###############################################################################
#                                                                             #
# IAR C/C++ Compiler V8.20.2.41139 for 8051             27/May/2014  19:14:05 #
# Copyright 2004-2013 IAR Systems AB.                                         #
#                                                                             #
#    Core               =  plain                                              #
#    Code model         =  banked                                             #
#    Data model         =  large                                              #
#    Calling convention =  xdata reentrant                                    #
#    Constant location  =  data_rom                                           #
#    Dptr setup         =  1,16                                               #
#                                                                             #
#    Source file        =  D:\Texas Instruments\Z-Stack Lighting              #
#                          1.0.2\Components\hal\common\hal_drivers.c          #
#    Command line       =  -f "D:\Texas Instruments\Z-Stack Lighting          #
#                          1.0.2\Projects\zstack\ZLL\SampleApp\CC253x\..\..\. #
#                          .\Tools\CC2530DB\f8wRouter.cfg" (-DCPU32MHZ        #
#                          -DROOT=__near_func -DMAC_CFG_APP_PENDING_QUEUE=TRU #
#                          E -DMAC_CFG_TX_DATA_MAX=5 -DMAC_CFG_TX_MAX=8       #
#                          -DMAC_CFG_RX_MAX=5 -DRTR_NWK) -f "D:\Texas         #
#                          Instruments\Z-Stack Lighting                       #
#                          1.0.2\Projects\zstack\ZLL\SampleApp\CC253x\..\..\. #
#                          .\Tools\CC2530DB\f8wConfig.cfg" (-DZIGBEEPRO       #
#                          -DSECURE=1 -DZG_SECURE_DYNAMIC=0 -DREFLECTOR       #
#                          -DDEFAULT_CHANLIST=0x00000800                      #
#                          -DZDAPP_CONFIG_PAN_ID=0xFFFF                       #
#                          -DNWK_START_DELAY=100 -DEXTENDED_JOINING_RANDOM_MA #
#                          SK=0x007F -DBEACON_REQUEST_DELAY=100               #
#                          -DBEACON_REQ_DELAY_MASK=0x00FF                     #
#                          -DLINK_STATUS_JITTER_MASK=0x007F                   #
#                          -DROUTE_EXPIRY_TIME=30 -DAPSC_ACK_WAIT_DURATION_PO #
#                          LLED=3000 -DNWK_INDIRECT_MSG_TIMEOUT=7             #
#                          -DMAX_RREQ_ENTRIES=8 -DAPSC_MAX_FRAME_RETRIES=3    #
#                          -DNWK_MAX_DATA_RETRIES=2                           #
#                          -DMAX_POLL_FAILURE_RETRIES=2 -DMAX_BCAST=9         #
#                          -DAPS_MAX_GROUPS=16 -DMAX_RTG_ENTRIES=40           #
#                          -DNWK_MAX_BINDING_ENTRIES=4                        #
#                          -DMAX_BINDING_CLUSTER_IDS=4 "-DDEFAULT_KEY={0x01,  #
#                          0x03, 0x05, 0x07, 0x09, 0x0B, 0x0D, 0x0F, 0x00,    #
#                          0x02, 0x04, 0x06, 0x08, 0x0A, 0x0C, 0x0D}"         #
#                          -DMAC_MAX_FRAME_SIZE=116                           #
#                          -DZDNWKMGR_MIN_TRANSMISSIONS=20 "-DCONST=const     #
#                          __code" -DGENERIC=__generic                        #
#                          -DRFD_RCVC_ALWAYS_ON=FALSE -DPOLL_RATE=1000        #
#                          -DQUEUED_POLL_RATE=100 -DRESPONSE_POLL_RATE=100    #
#                          -DREJOIN_POLL_RATE=440) -f "D:\Texas               #
#                          Instruments\Z-Stack Lighting                       #
#                          1.0.2\Projects\zstack\ZLL\SampleApp\CC253x\..\..\. #
#                          .\Tools\CC2530DB\f8wZCL.cfg" "D:\Texas             #
#                          Instruments\Z-Stack Lighting                       #
#                          1.0.2\Components\hal\common\hal_drivers.c" -D      #
#                          FEATURE_GREEN_POWER -D SECURE=1 -D                 #
#                          TC_LINKKEY_JOIN -D ZDSECMGR_TC_DEVICE_MAX=2 -D     #
#                          NV_RESTORE -D HOLD_AUTO_START -D INTER_PAN -D      #
#                          LCD_SUPPORTED=DEBUG -D ZCL_BASIC -D ZCL_READ -D    #
#                          ZCL_WRITE -D ZCL_IDENTIFY -D ZCL_ON_OFF -D         #
#                          ZCL_SCENES -D ZCL_GROUPS -D                        #
#                          ZCL_LIGHT_LINK_ENHANCE -D ZCL_LEVEL_CTRL -D        #
#                          ZCL_COLOR_CTRL -D MAX_CHANNELS_24GHZ=0x02108800    #
#                          -D xPWM_ALT2 -D xTHERMAL_SHUTDOWN -D               #
#                          ZLL_1_0_HUB_COMPATIBILITY -D DALI_LIGHT -lC        #
#                          "D:\Texas Instruments\Z-Stack Lighting             #
#                          1.0.2\Projects\zstack\ZLL\SampleApp\CC253x\Zlight  #
#                          - Router\List\" -lA "D:\Texas Instruments\Z-Stack  #
#                          Lighting 1.0.2\Projects\zstack\ZLL\SampleApp\CC253 #
#                          x\Zlight - Router\List\" --diag_suppress           #
#                          Pe001,Pa010 -o "D:\Texas Instruments\Z-Stack       #
#                          Lighting 1.0.2\Projects\zstack\ZLL\SampleApp\CC253 #
#                          x\Zlight - Router\Obj\" -e --debug --core=plain    #
#                          --dptr=16,1 --data_model=large                     #
#                          --code_model=banked --calling_convention=xdata_ree #
#                          ntrant --place_constants=data_rom                  #
#                          --nr_virtual_regs 16 -I "D:\Texas                  #
#                          Instruments\Z-Stack Lighting                       #
#                          1.0.2\Projects\zstack\ZLL\SampleApp\CC253x\" -I    #
#                          "D:\Texas Instruments\Z-Stack Lighting             #
#                          1.0.2\Projects\zstack\ZLL\SampleApp\CC253x\..\Sour #
#                          ce\" -I "D:\Texas Instruments\Z-Stack Lighting     #
#                          1.0.2\Projects\zstack\ZLL\SampleApp\CC253x\..\..\S #
#                          ource\" -I "D:\Texas Instruments\Z-Stack Lighting  #
#                          1.0.2\Projects\zstack\ZLL\SampleApp\CC253x\..\..\. #
#                          .\HomeAutomation\Source\" -I "D:\Texas             #
#                          Instruments\Z-Stack Lighting                       #
#                          1.0.2\Projects\zstack\ZLL\SampleApp\CC253x\..\..\. #
#                          .\HomeAutomation\SampleLight\Source\" -I           #
#                          "D:\Texas Instruments\Z-Stack Lighting             #
#                          1.0.2\Projects\zstack\ZLL\SampleApp\CC253x\..\..\. #
#                          .\ZMain\TI2530DB\" -I "D:\Texas                    #
#                          Instruments\Z-Stack Lighting                       #
#                          1.0.2\Projects\zstack\ZLL\SampleApp\CC253x\..\..\. #
#                          .\..\..\Components\hal\include\" -I "D:\Texas      #
#                          Instruments\Z-Stack Lighting                       #
#                          1.0.2\Projects\zstack\ZLL\SampleApp\CC253x\..\..\. #
#                          .\..\..\Components\hal\target\CC2530PMP4712\" -I   #
#                          "D:\Texas Instruments\Z-Stack Lighting             #
#                          1.0.2\Projects\zstack\ZLL\SampleApp\CC253x\..\..\. #
#                          .\..\..\Components\mac\include\" -I "D:\Texas      #
#                          Instruments\Z-Stack Lighting                       #
#                          1.0.2\Projects\zstack\ZLL\SampleApp\CC253x\..\..\. #
#                          .\..\..\Components\mac\high_level\" -I "D:\Texas   #
#                          Instruments\Z-Stack Lighting                       #
#                          1.0.2\Projects\zstack\ZLL\SampleApp\CC253x\..\..\. #
#                          .\..\..\Components\mac\low_level\srf04\" -I        #
#                          "D:\Texas Instruments\Z-Stack Lighting             #
#                          1.0.2\Projects\zstack\ZLL\SampleApp\CC253x\..\..\. #
#                          .\..\..\Components\mac\low_level\srf04\single_chip #
#                          \" -I "D:\Texas Instruments\Z-Stack Lighting       #
#                          1.0.2\Projects\zstack\ZLL\SampleApp\CC253x\..\..\. #
#                          .\..\..\Components\mt\" -I "D:\Texas               #
#                          Instruments\Z-Stack Lighting                       #
#                          1.0.2\Projects\zstack\ZLL\SampleApp\CC253x\..\..\. #
#                          .\..\..\Components\osal\include\" -I "D:\Texas     #
#                          Instruments\Z-Stack Lighting                       #
#                          1.0.2\Projects\zstack\ZLL\SampleApp\CC253x\..\..\. #
#                          .\..\..\Components\services\saddr\" -I "D:\Texas   #
#                          Instruments\Z-Stack Lighting                       #
#                          1.0.2\Projects\zstack\ZLL\SampleApp\CC253x\..\..\. #
#                          .\..\..\Components\services\sdata\" -I "D:\Texas   #
#                          Instruments\Z-Stack Lighting                       #
#                          1.0.2\Projects\zstack\ZLL\SampleApp\CC253x\..\..\. #
#                          .\..\..\Components\stack\af\" -I "D:\Texas         #
#                          Instruments\Z-Stack Lighting                       #
#                          1.0.2\Projects\zstack\ZLL\SampleApp\CC253x\..\..\. #
#                          .\..\..\Components\stack\nwk\" -I "D:\Texas        #
#                          Instruments\Z-Stack Lighting                       #
#                          1.0.2\Projects\zstack\ZLL\SampleApp\CC253x\..\..\. #
#                          .\..\..\Components\stack\sapi\" -I "D:\Texas       #
#                          Instruments\Z-Stack Lighting                       #
#                          1.0.2\Projects\zstack\ZLL\SampleApp\CC253x\..\..\. #
#                          .\..\..\Components\stack\sec\" -I "D:\Texas        #
#                          Instruments\Z-Stack Lighting                       #
#                          1.0.2\Projects\zstack\ZLL\SampleApp\CC253x\..\..\. #
#                          .\..\..\Components\stack\sys\" -I "D:\Texas        #
#                          Instruments\Z-Stack Lighting                       #
#                          1.0.2\Projects\zstack\ZLL\SampleApp\CC253x\..\..\. #
#                          .\..\..\Components\stack\zcl\" -I "D:\Texas        #
#                          Instruments\Z-Stack Lighting                       #
#                          1.0.2\Projects\zstack\ZLL\SampleApp\CC253x\..\..\. #
#                          .\..\..\Components\stack\zdo\" -I "D:\Texas        #
#                          Instruments\Z-Stack Lighting                       #
#                          1.0.2\Projects\zstack\ZLL\SampleApp\CC253x\..\..\. #
#                          .\..\..\Components\zmac\" -I "D:\Texas             #
#                          Instruments\Z-Stack Lighting                       #
#                          1.0.2\Projects\zstack\ZLL\SampleApp\CC253x\..\..\. #
#                          .\..\..\Components\zmac\f8w\" -Ohz                 #
#                          --require_prototypes                               #
#    List file          =  D:\Texas Instruments\Z-Stack Lighting              #
#                          1.0.2\Projects\zstack\ZLL\SampleApp\CC253x\Zlight  #
#                          - Router\List\hal_drivers.lst                      #
#    Object file        =  D:\Texas Instruments\Z-Stack Lighting              #
#                          1.0.2\Projects\zstack\ZLL\SampleApp\CC253x\Zlight  #
#                          - Router\Obj\hal_drivers.r51                       #
#                                                                             #
#                                                                             #
###############################################################################

D:\Texas Instruments\Z-Stack Lighting 1.0.2\Components\hal\common\hal_drivers.c
      1          /**************************************************************************************************
      2            Filename:       hal_drivers.c
      3            Revised:        $Date: 2007-07-06 10:42:24 -0700 (Fri, 06 Jul 2007) $
      4            Revision:       $Revision: 13579 $
      5          
      6            Description:    This file contains the interface to the Drivers Service.
      7          
      8          
      9            Copyright 2005-2013 Texas Instruments Incorporated. All rights reserved.
     10          
     11            IMPORTANT: Your use of this Software is limited to those specific rights
     12            granted under the terms of a software license agreement between the user
     13            who downloaded the software, his/her employer (which must be your employer)
     14            and Texas Instruments Incorporated (the "License").  You may not use this
     15            Software unless you agree to abide by the terms of the License. The License
     16            limits your use, and you acknowledge, that the Software may not be modified,
     17            copied or distributed unless embedded on a Texas Instruments microcontroller
     18            or used solely and exclusively in conjunction with a Texas Instruments radio
     19            frequency transceiver, which is integrated into your product.  Other than for
     20            the foregoing purpose, you may not use, reproduce, copy, prepare derivative
     21            works of, modify, distribute, perform, display or sell this Software and/or
     22            its documentation for any purpose.
     23          
     24            YOU FURTHER ACKNOWLEDGE AND AGREE THAT THE SOFTWARE AND DOCUMENTATION ARE
     25            PROVIDED “AS IS” WITHOUT WARRANTY OF ANY KIND, EITHER EXPRESS OR IMPLIED,
     26            INCLUDING WITHOUT LIMITATION, ANY WARRANTY OF MERCHANTABILITY, TITLE,
     27            NON-INFRINGEMENT AND FITNESS FOR A PARTICULAR PURPOSE. IN NO EVENT SHALL
     28            TEXAS INSTRUMENTS OR ITS LICENSORS BE LIABLE OR OBLIGATED UNDER CONTRACT,
     29            NEGLIGENCE, STRICT LIABILITY, CONTRIBUTION, BREACH OF WARRANTY, OR OTHER
     30            LEGAL EQUITABLE THEORY ANY DIRECT OR INDIRECT DAMAGES OR EXPENSES
     31            INCLUDING BUT NOT LIMITED TO ANY INCIDENTAL, SPECIAL, INDIRECT, PUNITIVE
     32            OR CONSEQUENTIAL DAMAGES, LOST PROFITS OR LOST DATA, COST OF PROCUREMENT
     33            OF SUBSTITUTE GOODS, TECHNOLOGY, SERVICES, OR ANY CLAIMS BY THIRD PARTIES
     34            (INCLUDING BUT NOT LIMITED TO ANY DEFENSE THEREOF), OR OTHER SIMILAR COSTS.
     35          
     36            Should you have any questions regarding your right to use this Software,
     37            contact Texas Instruments Incorporated at www.TI.com.
     38          **************************************************************************************************/
     39          
     40          /**************************************************************************************************
     41           *                                            INCLUDES
     42           **************************************************************************************************/
     43          
     44          #include "hal_adc.h"
     45          #if (defined HAL_AES) && (HAL_AES == TRUE)
     46          #include "hal_aes.h"
     47          #endif
     48          #if (defined HAL_BUZZER) && (HAL_BUZZER == TRUE)
     49          #include "hal_buzzer.h"
     50          #endif
     51          #if (defined HAL_DMA) && (HAL_DMA == TRUE)
     52          #include "hal_dma.h"
     53          #endif
     54          #include "hal_drivers.h"
     55          #include "hal_key.h"
     56          //#include "hal_lcd.h"
     57          #include "hal_oled.h"
     58          #include "hal_led.h"
     59          #include "hal_sleep.h"
     60          #include "hal_timer.h"
     61          #include "hal_types.h"
     62          #include "hal_uart.h"
     63          #ifdef CC2591_COMPRESSION_WORKAROUND
     64          #include "mac_rx.h"
     65          #endif
     66          #include "OSAL.h"
     67          #if defined POWER_SAVING
     68          #include "OSAL_PwrMgr.h"
     69          #endif
     70          #if (defined HAL_HID) && (HAL_HID == TRUE)
     71          #include "usb_hid.h"
     72          #endif
     73          #if (defined HAL_SPI) && (HAL_SPI == TRUE)
     74          #include "hal_spi.h"
     75          #endif
     76          
     77          /**************************************************************************************************
     78           *                                      GLOBAL VARIABLES
     79           **************************************************************************************************/

   \                                 In  segment XDATA_Z, align 1, keep-with-next
     80          uint8 Hal_TaskID;
   \                     Hal_TaskID:
   \   000000                DS 1
   \   000001                REQUIRE __INIT_XDATA_Z
     81          
     82          extern void HalLedUpdate( void ); /* Notes: This for internal only so it shouldn't be in hal_led.h */
     83          
     84          /**************************************************************************************************
     85           * @fn      Hal_Init
     86           *
     87           * @brief   Hal Initialization function.
     88           *
     89           * @param   task_id - Hal TaskId
     90           *
     91           * @return  None
     92           **************************************************************************************************/

   \                                 In  segment BANKED_CODE, align 1, keep-with-next
     93          void Hal_Init( uint8 task_id )
   \                     Hal_Init:
     94          {
   \   000000   C082         PUSH    DPL
   \   000002   C083         PUSH    DPH
   \   000004                ; Saved register size: 2
   \   000004                ; Auto size: 0
     95            /* Register task ID */
     96            Hal_TaskID = task_id;
   \   000004   E9           MOV     A,R1
   \   000005   90....       MOV     DPTR,#Hal_TaskID
   \   000008   F0           MOVX    @DPTR,A
     97          
     98          #ifdef CC2591_COMPRESSION_WORKAROUND
     99            osal_start_reload_timer( Hal_TaskID, PERIOD_RSSI_RESET_EVT, PERIOD_RSSI_RESET_TIMEOUT );
    100          #endif
    101          }
   \   000009                REQUIRE ?Subroutine0
   \   000009                ; // Fall through to label ?Subroutine0

   \                                 In  segment BANKED_CODE, align 1, keep-with-next
   \                     ?Subroutine0:
   \   000000   D083         POP     DPH
   \   000002   D082         POP     DPL
   \   000004   02....       LJMP    ?BRET
    102          
    103          /**************************************************************************************************
    104           * @fn      Hal_DriverInit
    105           *
    106           * @brief   Initialize HW - These need to be initialized before anyone.
    107           *
    108           * @param   task_id - Hal TaskId
    109           *
    110           * @return  None
    111           **************************************************************************************************/

   \                                 In  segment BANKED_CODE, align 1, keep-with-next
    112          void HalDriverInit (void)
   \                     HalDriverInit:
    113          {
   \   000000   C082         PUSH    DPL
   \   000002   C083         PUSH    DPH
   \   000004                ; Saved register size: 2
   \   000004                ; Auto size: 0
    114            /* TIMER */
    115          #if (defined HAL_TIMER) && (HAL_TIMER == TRUE)
    116          #endif
    117          
    118            /* ADC */
    119          #if (defined HAL_ADC) && (HAL_ADC == TRUE)
    120            HalAdcInit();
   \   000004                ; Setup parameters for call to function HalAdcInit
   \   000004   12....       LCALL   ??HalAdcInit?relay
    121          #endif
    122          
    123            /* DMA */
    124          #if (defined HAL_DMA) && (HAL_DMA == TRUE)
    125            // Must be called before the init call to any module that uses DMA.
    126            HalDmaInit();
   \   000007                ; Setup parameters for call to function HalDmaInit
   \   000007   12....       LCALL   ??HalDmaInit?relay
    127          #endif
    128          
    129            /* AES */
    130          #if (defined HAL_AES) && (HAL_AES == TRUE)
    131            HalAesInit();
   \   00000A                ; Setup parameters for call to function HalAesInit
   \   00000A   12....       LCALL   ??HalAesInit?relay
    132          #endif
    133          
    134            /* LCD */
    135          #if (defined HAL_LCD) && (HAL_LCD == TRUE)
    136            HalLcdInit();
    137          #endif
    138          
    139            /* LED */
    140          #if (defined HAL_LED) && (HAL_LED == TRUE)
    141            HalLedInit();
    142          #endif
    143          
    144            /* UART */
    145          #if (defined HAL_UART) && (HAL_UART == TRUE)
    146            HalUARTInit();
    147          #endif
    148          
    149            /* KEY */
    150          #if (defined HAL_KEY) && (HAL_KEY == TRUE)
    151            HalKeyInit();
   \   00000D                ; Setup parameters for call to function HalKeyInit
   \   00000D   12....       LCALL   ??HalKeyInit?relay
    152          #endif
    153            
    154            /* SPI */
    155          #if (defined HAL_SPI) && (HAL_SPI == TRUE)
    156            HalSpiInit();
    157          #endif
    158          
    159            /* HID */
    160          #if (defined HAL_HID) && (HAL_HID == TRUE)
    161            usbHidInit();
    162          #endif
    163          }
   \   000010   80..         SJMP    ?Subroutine0
    164          
    165          /**************************************************************************************************
    166           * @fn      Hal_ProcessEvent
    167           *
    168           * @brief   Hal Process Event
    169           *
    170           * @param   task_id - Hal TaskId
    171           *          events - events
    172           *
    173           * @return  None
    174           **************************************************************************************************/

   \                                 In  segment BANKED_CODE, align 1, keep-with-next
    175          uint16 Hal_ProcessEvent( uint8 task_id, uint16 events )
   \                     Hal_ProcessEvent:
    176          {
   \   000000   74F6         MOV     A,#-0xa
   \   000002   12....       LCALL   ?BANKED_ENTER_XDATA
   \   000005                ; Saved register size: 10
   \   000005                ; Auto size: 0
   \   000005   EA           MOV     A,R2
   \   000006   FE           MOV     R6,A
   \   000007   EB           MOV     A,R3
   \   000008   FF           MOV     R7,A
    177            uint8 *msgPtr;
    178          
    179            (void)task_id;  // Intentionally unreferenced parameter
    180          
    181            if ( events & SYS_EVENT_MSG )
   \   000009   5480         ANL     A,#0x80
   \   00000B   6018         JZ      ??Hal_ProcessEvent_0
    182            {
    183              msgPtr = osal_msg_receive(Hal_TaskID);
   \   00000D                ; Setup parameters for call to function osal_msg_receive
   \   00000D   8003         SJMP    ??Hal_ProcessEvent_1
    184          
    185              while (msgPtr)
    186              {
    187                /* Do something here - for now, just deallocate the msg and move on */
    188          
    189                /* De-allocate */
    190                osal_msg_deallocate( msgPtr );
   \                     ??Hal_ProcessEvent_2:
   \   00000F                ; Setup parameters for call to function osal_msg_deallocate
   \   00000F   12....       LCALL   ??osal_msg_deallocate?relay
    191                /* Next */
    192                msgPtr = osal_msg_receive( Hal_TaskID );
   \   000012                ; Setup parameters for call to function osal_msg_receive
   \                     ??Hal_ProcessEvent_1:
   \   000012   90....       MOV     DPTR,#Hal_TaskID
   \   000015   E0           MOVX    A,@DPTR
   \   000016   F9           MOV     R1,A
   \   000017   12....       LCALL   ??osal_msg_receive?relay
    193              }
   \   00001A   EA           MOV     A,R2
   \   00001B   4B           ORL     A,R3
   \   00001C   70F1         JNZ     ??Hal_ProcessEvent_2
    194              return events ^ SYS_EVENT_MSG;
   \   00001E   EE           MOV     A,R6
   \   00001F   FA           MOV     R2,A
   \   000020   EF           MOV     A,R7
   \   000021   6480         XRL     A,#0x80
   \   000023   8035         SJMP    ??Hal_ProcessEvent_3
    195            }
    196          
    197          #if (defined HAL_BUZZER) && (HAL_BUZZER == TRUE)
    198            if (events & HAL_BUZZER_EVENT)
    199            {
    200              HalBuzzerStop();
    201              return events ^ HAL_BUZZER_EVENT;
    202            }
    203          #endif
    204          
    205          #ifdef CC2591_COMPRESSION_WORKAROUND
    206            if ( events & PERIOD_RSSI_RESET_EVT )
    207            {
    208              macRxResetRssi();
    209              return (events ^ PERIOD_RSSI_RESET_EVT);
    210            }
    211          #endif
    212          
    213            if ( events & HAL_LED_BLINK_EVENT )
   \                     ??Hal_ProcessEvent_0:
   \   000025   EE           MOV     A,R6
   \   000026   5420         ANL     A,#0x20
   \   000028   6006         JZ      ??Hal_ProcessEvent_4
    214            {
    215          #if (defined (BLINK_LEDS)) && (HAL_LED == TRUE)
    216              HalLedUpdate();
    217          #endif /* BLINK_LEDS && HAL_LED */
    218              return events ^ HAL_LED_BLINK_EVENT;
   \   00002A   EE           MOV     A,R6
   \   00002B   6420         XRL     A,#0x20
   \   00002D   FA           MOV     R2,A
   \   00002E   8031         SJMP    ??Hal_ProcessEvent_5
    219            }
    220          
    221            if (events & HAL_KEY_EVENT)
   \                     ??Hal_ProcessEvent_4:
   \   000030   EE           MOV     A,R6
   \   000031   5410         ANL     A,#0x10
   \   000033   6028         JZ      ??Hal_ProcessEvent_6
    222            {
    223          #if (defined HAL_KEY) && (HAL_KEY == TRUE)
    224              /* Check for keys */
    225              HalKeyPoll();
   \   000035                ; Setup parameters for call to function HalKeyPoll
   \   000035   12....       LCALL   ??HalKeyPoll?relay
    226          
    227              /* if interrupt disabled, do next polling */
    228              if (!Hal_KeyIntEnable)
   \   000038   90....       MOV     DPTR,#Hal_KeyIntEnable
   \   00003B   E0           MOVX    A,@DPTR
   \   00003C   7017         JNZ     ??Hal_ProcessEvent_7
    229              {
    230                osal_start_timerEx( Hal_TaskID, HAL_KEY_EVENT, 100);
   \   00003E                ; Setup parameters for call to function osal_start_timerEx
   \   00003E   90....       MOV     DPTR,#__Constant_64
   \   000041   12....       LCALL   ?PUSH_XSTACK8_X_FOUR
   \   000044   7A10         MOV     R2,#0x10
   \   000046   7B00         MOV     R3,#0x0
   \   000048   90....       MOV     DPTR,#Hal_TaskID
   \   00004B   E0           MOVX    A,@DPTR
   \   00004C   F9           MOV     R1,A
   \   00004D   12....       LCALL   ??osal_start_timerEx?relay
   \   000050   7404         MOV     A,#0x4
   \   000052   12....       LCALL   ?DEALLOC_XSTACK8
    231              }
    232          #endif
    233              return events ^ HAL_KEY_EVENT;
   \                     ??Hal_ProcessEvent_7:
   \   000055   EE           MOV     A,R6
   \   000056   6410         XRL     A,#0x10
   \   000058   FA           MOV     R2,A
   \   000059   EF           MOV     A,R7
   \                     ??Hal_ProcessEvent_3:
   \   00005A   FB           MOV     R3,A
   \   00005B   8004         SJMP    ??Hal_ProcessEvent_5
    234            }
    235          
    236          #if defined POWER_SAVING
    237            if ( events & HAL_SLEEP_TIMER_EVENT )
    238            {
    239              halRestoreSleepLevel();
    240              return events ^ HAL_SLEEP_TIMER_EVENT;
    241            }
    242          
    243            if ( events & HAL_PWRMGR_HOLD_EVENT )
    244            {
    245              (void)osal_pwrmgr_task_state(Hal_TaskID, PWRMGR_HOLD);
    246          
    247              (void)osal_stop_timerEx(Hal_TaskID, HAL_PWRMGR_CONSERVE_EVENT);
    248              (void)osal_clear_event(Hal_TaskID, HAL_PWRMGR_CONSERVE_EVENT);
    249          
    250              return (events & ~(HAL_PWRMGR_HOLD_EVENT | HAL_PWRMGR_CONSERVE_EVENT));
    251            }
    252          
    253            if ( events & HAL_PWRMGR_CONSERVE_EVENT )
    254            {
    255              (void)osal_pwrmgr_task_state(Hal_TaskID, PWRMGR_CONSERVE);
    256              return events ^ HAL_PWRMGR_CONSERVE_EVENT;
    257            }
    258          #endif
    259          
    260            return 0;
   \                     ??Hal_ProcessEvent_6:
   \   00005D   7A00         MOV     R2,#0x0
   \   00005F   7B00         MOV     R3,#0x0
   \                     ??Hal_ProcessEvent_5:
   \   000061   7F02         MOV     R7,#0x2
   \   000063   02....       LJMP    ?BANKED_LEAVE_XDATA
    261          }
    262          
    263          /**************************************************************************************************
    264           * @fn      Hal_ProcessPoll
    265           *
    266           * @brief   This routine will be called by OSAL to poll UART, TIMER...
    267           *
    268           * @param   task_id - Hal TaskId
    269           *
    270           * @return  None
    271           **************************************************************************************************/

   \                                 In  segment BANKED_CODE, align 1, keep-with-next
    272          void Hal_ProcessPoll ()
   \                     Hal_ProcessPoll:
    273          {
   \   000000                ; Saved register size: 0
   \   000000                ; Auto size: 0
    274          #if defined( POWER_SAVING )
    275            /* Allow sleep before the next OSAL event loop */
    276            ALLOW_SLEEP_MODE();
    277          #endif
    278            
    279            /* UART Poll */
    280          #if (defined HAL_UART) && (HAL_UART == TRUE)
    281            HalUARTPoll();
    282          #endif
    283            
    284            /* SPI Poll */
    285          #if (defined HAL_SPI) && (HAL_SPI == TRUE)
    286            HalSpiPoll();
    287          #endif
    288          
    289            /* HID poll */
    290          #if (defined HAL_HID) && (HAL_HID == TRUE)
    291            usbHidProcessEvents();
    292          #endif
    293           
    294          }
   \   000000   02....       LJMP    ?BRET

   \                                 In  segment XDATA_ROM_C, align 1
   \                     __Constant_64:
   \   000000   64000000     DD 100

   \                                 In  segment BANK_RELAYS, align 1
   \                     ??Hal_Init?relay:
   \   000000   12....       LCALL   ?BDISPATCH
   \   000003   ......       DC24    Hal_Init

   \                                 In  segment BANK_RELAYS, align 1
   \                     ??HalDriverInit?relay:
   \   000000   12....       LCALL   ?BDISPATCH
   \   000003   ......       DC24    HalDriverInit

   \                                 In  segment BANK_RELAYS, align 1
   \                     ??Hal_ProcessEvent?relay:
   \   000000   12....       LCALL   ?BDISPATCH
   \   000003   ......       DC24    Hal_ProcessEvent

   \                                 In  segment BANK_RELAYS, align 1
   \                     ??Hal_ProcessPoll?relay:
   \   000000   12....       LCALL   ?BDISPATCH
   \   000003   ......       DC24    Hal_ProcessPoll
    295          
    296          /**************************************************************************************************
    297          **************************************************************************************************/
    298          

   Maximum stack usage in bytes:

   ISTACK PSTACK XSTACK Function
   ------ ------ ------ --------
       2      0      0  HalDriverInit
                          2 0  0 -> HalAdcInit
                          2 0  0 -> HalAesInit
                          2 0  0 -> HalDmaInit
                          2 0  0 -> HalKeyInit
       2      0      0  Hal_Init
       0      0     14  Hal_ProcessEvent
                          0 0 10 -> HalKeyPoll
                          0 0 10 -> osal_msg_deallocate
                          0 0 10 -> osal_msg_receive
                          0 0 14 -> osal_start_timerEx
       0      0      0  Hal_ProcessPoll


   Segment part sizes:

   Bytes  Function/Label
   -----  --------------
       6  ??HalDriverInit?relay
       6  ??Hal_Init?relay
       6  ??Hal_ProcessEvent?relay
       6  ??Hal_ProcessPoll?relay
       7  ?Subroutine0
      18  HalDriverInit
       9  Hal_Init
     102  Hal_ProcessEvent
       3  Hal_ProcessPoll
       1  Hal_TaskID
       4  __Constant_64

 
 139 bytes in segment BANKED_CODE
  24 bytes in segment BANK_RELAYS
   4 bytes in segment XDATA_ROM_C
   1 byte  in segment XDATA_Z
 
 163 bytes of CODE  memory
   0 bytes of CONST memory (+ 4 bytes shared)
   1 byte  of XDATA memory

Errors: none
Warnings: none
