///////////////////////////////////////////////////////////////////////////////
//                                                                            /
// IAR C/C++ Compiler V8.20.2.41139 for 8051            27/May/2014  19:14:06 /
// Copyright 2004-2013 IAR Systems AB.                                        /
//                                                                            /
//    Core               =  plain                                             /
//    Code model         =  banked                                            /
//    Data model         =  large                                             /
//    Calling convention =  xdata reentrant                                   /
//    Constant location  =  data_rom                                          /
//    Dptr setup         =  1,16                                              /
//                                                                            /
//    Source file        =  D:\Texas Instruments\Z-Stack Lighting             /
//                          1.0.2\Components\hal\target\CC2530PMP4712\hal_key /
//                          .c                                                /
//    Command line       =  -f "D:\Texas Instruments\Z-Stack Lighting         /
//                          1.0.2\Projects\zstack\ZLL\SampleApp\CC253x\..\..\ /
//                          ..\Tools\CC2530DB\f8wRouter.cfg" (-DCPU32MHZ      /
//                          -DROOT=__near_func -DMAC_CFG_APP_PENDING_QUEUE=TR /
//                          UE -DMAC_CFG_TX_DATA_MAX=5 -DMAC_CFG_TX_MAX=8     /
//                          -DMAC_CFG_RX_MAX=5 -DRTR_NWK) -f "D:\Texas        /
//                          Instruments\Z-Stack Lighting                      /
//                          1.0.2\Projects\zstack\ZLL\SampleApp\CC253x\..\..\ /
//                          ..\Tools\CC2530DB\f8wConfig.cfg" (-DZIGBEEPRO     /
//                          -DSECURE=1 -DZG_SECURE_DYNAMIC=0 -DREFLECTOR      /
//                          -DDEFAULT_CHANLIST=0x00000800                     /
//                          -DZDAPP_CONFIG_PAN_ID=0xFFFF                      /
//                          -DNWK_START_DELAY=100 -DEXTENDED_JOINING_RANDOM_M /
//                          ASK=0x007F -DBEACON_REQUEST_DELAY=100             /
//                          -DBEACON_REQ_DELAY_MASK=0x00FF                    /
//                          -DLINK_STATUS_JITTER_MASK=0x007F                  /
//                          -DROUTE_EXPIRY_TIME=30 -DAPSC_ACK_WAIT_DURATION_P /
//                          OLLED=3000 -DNWK_INDIRECT_MSG_TIMEOUT=7           /
//                          -DMAX_RREQ_ENTRIES=8 -DAPSC_MAX_FRAME_RETRIES=3   /
//                          -DNWK_MAX_DATA_RETRIES=2                          /
//                          -DMAX_POLL_FAILURE_RETRIES=2 -DMAX_BCAST=9        /
//                          -DAPS_MAX_GROUPS=16 -DMAX_RTG_ENTRIES=40          /
//                          -DNWK_MAX_BINDING_ENTRIES=4                       /
//                          -DMAX_BINDING_CLUSTER_IDS=4                       /
//                          "-DDEFAULT_KEY={0x01, 0x03, 0x05, 0x07, 0x09,     /
//                          0x0B, 0x0D, 0x0F, 0x00, 0x02, 0x04, 0x06, 0x08,   /
//                          0x0A, 0x0C, 0x0D}" -DMAC_MAX_FRAME_SIZE=116       /
//                          -DZDNWKMGR_MIN_TRANSMISSIONS=20 "-DCONST=const    /
//                          __code" -DGENERIC=__generic                       /
//                          -DRFD_RCVC_ALWAYS_ON=FALSE -DPOLL_RATE=1000       /
//                          -DQUEUED_POLL_RATE=100 -DRESPONSE_POLL_RATE=100   /
//                          -DREJOIN_POLL_RATE=440) -f "D:\Texas              /
//                          Instruments\Z-Stack Lighting                      /
//                          1.0.2\Projects\zstack\ZLL\SampleApp\CC253x\..\..\ /
//                          ..\Tools\CC2530DB\f8wZCL.cfg" "D:\Texas           /
//                          Instruments\Z-Stack Lighting                      /
//                          1.0.2\Components\hal\target\CC2530PMP4712\hal_key /
//                          .c" -D FEATURE_GREEN_POWER -D SECURE=1 -D         /
//                          TC_LINKKEY_JOIN -D ZDSECMGR_TC_DEVICE_MAX=2 -D    /
//                          NV_RESTORE -D HOLD_AUTO_START -D INTER_PAN -D     /
//                          LCD_SUPPORTED=DEBUG -D ZCL_BASIC -D ZCL_READ -D   /
//                          ZCL_WRITE -D ZCL_IDENTIFY -D ZCL_ON_OFF -D        /
//                          ZCL_SCENES -D ZCL_GROUPS -D                       /
//                          ZCL_LIGHT_LINK_ENHANCE -D ZCL_LEVEL_CTRL -D       /
//                          ZCL_COLOR_CTRL -D MAX_CHANNELS_24GHZ=0x02108800   /
//                          -D xPWM_ALT2 -D xTHERMAL_SHUTDOWN -D              /
//                          ZLL_1_0_HUB_COMPATIBILITY -D DALI_LIGHT -lC       /
//                          "D:\Texas Instruments\Z-Stack Lighting            /
//                          1.0.2\Projects\zstack\ZLL\SampleApp\CC253x\Zlight /
//                           - Router\List\" -lA "D:\Texas                    /
//                          Instruments\Z-Stack Lighting                      /
//                          1.0.2\Projects\zstack\ZLL\SampleApp\CC253x\Zlight /
//                           - Router\List\" --diag_suppress Pe001,Pa010 -o   /
//                          "D:\Texas Instruments\Z-Stack Lighting            /
//                          1.0.2\Projects\zstack\ZLL\SampleApp\CC253x\Zlight /
//                           - Router\Obj\" -e --debug --core=plain           /
//                          --dptr=16,1 --data_model=large                    /
//                          --code_model=banked --calling_convention=xdata_re /
//                          entrant --place_constants=data_rom                /
//                          --nr_virtual_regs 16 -I "D:\Texas                 /
//                          Instruments\Z-Stack Lighting                      /
//                          1.0.2\Projects\zstack\ZLL\SampleApp\CC253x\" -I   /
//                          "D:\Texas Instruments\Z-Stack Lighting            /
//                          1.0.2\Projects\zstack\ZLL\SampleApp\CC253x\..\Sou /
//                          rce\" -I "D:\Texas Instruments\Z-Stack Lighting   /
//                          1.0.2\Projects\zstack\ZLL\SampleApp\CC253x\..\..\ /
//                          Source\" -I "D:\Texas Instruments\Z-Stack         /
//                          Lighting 1.0.2\Projects\zstack\ZLL\SampleApp\CC25 /
//                          3x\..\..\..\HomeAutomation\Source\" -I "D:\Texas  /
//                          Instruments\Z-Stack Lighting                      /
//                          1.0.2\Projects\zstack\ZLL\SampleApp\CC253x\..\..\ /
//                          ..\HomeAutomation\SampleLight\Source\" -I         /
//                          "D:\Texas Instruments\Z-Stack Lighting            /
//                          1.0.2\Projects\zstack\ZLL\SampleApp\CC253x\..\..\ /
//                          ..\ZMain\TI2530DB\" -I "D:\Texas                  /
//                          Instruments\Z-Stack Lighting                      /
//                          1.0.2\Projects\zstack\ZLL\SampleApp\CC253x\..\..\ /
//                          ..\..\..\Components\hal\include\" -I "D:\Texas    /
//                          Instruments\Z-Stack Lighting                      /
//                          1.0.2\Projects\zstack\ZLL\SampleApp\CC253x\..\..\ /
//                          ..\..\..\Components\hal\target\CC2530PMP4712\"    /
//                          -I "D:\Texas Instruments\Z-Stack Lighting         /
//                          1.0.2\Projects\zstack\ZLL\SampleApp\CC253x\..\..\ /
//                          ..\..\..\Components\mac\include\" -I "D:\Texas    /
//                          Instruments\Z-Stack Lighting                      /
//                          1.0.2\Projects\zstack\ZLL\SampleApp\CC253x\..\..\ /
//                          ..\..\..\Components\mac\high_level\" -I           /
//                          "D:\Texas Instruments\Z-Stack Lighting            /
//                          1.0.2\Projects\zstack\ZLL\SampleApp\CC253x\..\..\ /
//                          ..\..\..\Components\mac\low_level\srf04\" -I      /
//                          "D:\Texas Instruments\Z-Stack Lighting            /
//                          1.0.2\Projects\zstack\ZLL\SampleApp\CC253x\..\..\ /
//                          ..\..\..\Components\mac\low_level\srf04\single_ch /
//                          ip\" -I "D:\Texas Instruments\Z-Stack Lighting    /
//                          1.0.2\Projects\zstack\ZLL\SampleApp\CC253x\..\..\ /
//                          ..\..\..\Components\mt\" -I "D:\Texas             /
//                          Instruments\Z-Stack Lighting                      /
//                          1.0.2\Projects\zstack\ZLL\SampleApp\CC253x\..\..\ /
//                          ..\..\..\Components\osal\include\" -I "D:\Texas   /
//                          Instruments\Z-Stack Lighting                      /
//                          1.0.2\Projects\zstack\ZLL\SampleApp\CC253x\..\..\ /
//                          ..\..\..\Components\services\saddr\" -I           /
//                          "D:\Texas Instruments\Z-Stack Lighting            /
//                          1.0.2\Projects\zstack\ZLL\SampleApp\CC253x\..\..\ /
//                          ..\..\..\Components\services\sdata\" -I           /
//                          "D:\Texas Instruments\Z-Stack Lighting            /
//                          1.0.2\Projects\zstack\ZLL\SampleApp\CC253x\..\..\ /
//                          ..\..\..\Components\stack\af\" -I "D:\Texas       /
//                          Instruments\Z-Stack Lighting                      /
//                          1.0.2\Projects\zstack\ZLL\SampleApp\CC253x\..\..\ /
//                          ..\..\..\Components\stack\nwk\" -I "D:\Texas      /
//                          Instruments\Z-Stack Lighting                      /
//                          1.0.2\Projects\zstack\ZLL\SampleApp\CC253x\..\..\ /
//                          ..\..\..\Components\stack\sapi\" -I "D:\Texas     /
//                          Instruments\Z-Stack Lighting                      /
//                          1.0.2\Projects\zstack\ZLL\SampleApp\CC253x\..\..\ /
//                          ..\..\..\Components\stack\sec\" -I "D:\Texas      /
//                          Instruments\Z-Stack Lighting                      /
//                          1.0.2\Projects\zstack\ZLL\SampleApp\CC253x\..\..\ /
//                          ..\..\..\Components\stack\sys\" -I "D:\Texas      /
//                          Instruments\Z-Stack Lighting                      /
//                          1.0.2\Projects\zstack\ZLL\SampleApp\CC253x\..\..\ /
//                          ..\..\..\Components\stack\zcl\" -I "D:\Texas      /
//                          Instruments\Z-Stack Lighting                      /
//                          1.0.2\Projects\zstack\ZLL\SampleApp\CC253x\..\..\ /
//                          ..\..\..\Components\stack\zdo\" -I "D:\Texas      /
//                          Instruments\Z-Stack Lighting                      /
//                          1.0.2\Projects\zstack\ZLL\SampleApp\CC253x\..\..\ /
//                          ..\..\..\Components\zmac\" -I "D:\Texas           /
//                          Instruments\Z-Stack Lighting                      /
//                          1.0.2\Projects\zstack\ZLL\SampleApp\CC253x\..\..\ /
//                          ..\..\..\Components\zmac\f8w\" -Ohz               /
//                          --require_prototypes                              /
//    List file          =  D:\Texas Instruments\Z-Stack Lighting             /
//                          1.0.2\Projects\zstack\ZLL\SampleApp\CC253x\Zlight /
//                           - Router\List\hal_key.s51                        /
//                                                                            /
//                                                                            /
///////////////////////////////////////////////////////////////////////////////

        NAME hal_key

        RTMODEL "__SystemLibrary", "CLib"
        RTMODEL "__calling_convention", "xdata_reentrant"
        RTMODEL "__code_model", "banked"
        RTMODEL "__core", "plain"
        RTMODEL "__data_model", "large"
        RTMODEL "__dptr_size", "16"
        RTMODEL "__extended_stack", "disabled"
        RTMODEL "__location_for_constants", "data"
        RTMODEL "__number_of_dptrs", "1"
        RTMODEL "__rt_version", "1"

        RSEG DOVERLAY:DATA:NOROOT(0)
        RSEG IOVERLAY:IDATA:NOROOT(0)
        RSEG ISTACK:IDATA:NOROOT(0)
        RSEG PSTACK:XDATA:NOROOT(0)
        RSEG XSTACK:XDATA:NOROOT(0)

        EXTERN ?BDISPATCH
        EXTERN ?BRET
        EXTERN ?CALL_IND
        EXTERN __INIT_XDATA_Z

        PUBLIC ??HalKeyConfig?relay
        FUNCTION ??HalKeyConfig?relay,0203H
        PUBLIC ??HalKeyEnterSleep?relay
        FUNCTION ??HalKeyEnterSleep?relay,0203H
        PUBLIC ??HalKeyExitSleep?relay
        FUNCTION ??HalKeyExitSleep?relay,0203H
        PUBLIC ??HalKeyInit?relay
        FUNCTION ??HalKeyInit?relay,0203H
        PUBLIC ??HalKeyPoll?relay
        FUNCTION ??HalKeyPoll?relay,0203H
        PUBLIC ??HalKeyRead?relay
        FUNCTION ??HalKeyRead?relay,0203H
        PUBLIC HalKeyConfig
        FUNCTION HalKeyConfig,021203H
        ARGFRAME XSTACK, 0, STACK
        LOCFRAME ISTACK, 2, STACK
        PUBLIC HalKeyEnterSleep
        FUNCTION HalKeyEnterSleep,0203H
        ARGFRAME XSTACK, 0, STACK
        PUBLIC HalKeyExitSleep
        FUNCTION HalKeyExitSleep,021203H
        ARGFRAME XSTACK, 0, STACK
        LOCFRAME ISTACK, 2, STACK
        PUBLIC HalKeyInit
        FUNCTION HalKeyInit,0203H
        ARGFRAME XSTACK, 0, STACK
        LOCFRAME ISTACK, 2, STACK
        PUBLIC HalKeyPoll
        FUNCTION HalKeyPoll,0203H
        ARGFRAME XSTACK, 0, STACK
        LOCFRAME ISTACK, 2, STACK
        PUBLIC HalKeyRead
        FUNCTION HalKeyRead,0203H
        ARGFRAME XSTACK, 0, STACK
        ARGFRAME IOVERLAY, 0, STATIC
        ARGFRAME DOVERLAY, 0, STATIC
        PUBLIC Hal_KeyIntEnable
        PUBWEAK _A_P2
        
          CFI Names cfiNames0
          CFI StackFrame CFA_SP SP IDATA
          CFI StackFrame CFA_PSP16 PSP16 XDATA
          CFI StackFrame CFA_XSP16 XSP16 XDATA
          CFI StaticOverlayFrame CFA_IOVERLAY IOVERLAY
          CFI StaticOverlayFrame CFA_DOVERLAY DOVERLAY
          CFI Resource `PSW.CY`:1, `B.BR0`:1, `B.BR1`:1, `B.BR2`:1, `B.BR3`:1
          CFI Resource `B.BR4`:1, `B.BR5`:1, `B.BR6`:1, `B.BR7`:1, `VB.BR8`:1
          CFI Resource `VB.BR9`:1, `VB.BR10`:1, `VB.BR11`:1, `VB.BR12`:1
          CFI Resource `VB.BR13`:1, `VB.BR14`:1, `VB.BR15`:1, VB:8, B:8, A:8
          CFI Resource PSW:8, DPL0:8, DPH0:8, R0:8, R1:8, R2:8, R3:8, R4:8, R5:8
          CFI Resource R6:8, R7:8, V0:8, V1:8, V2:8, V3:8, V4:8, V5:8, V6:8, V7:8
          CFI Resource V8:8, V9:8, V10:8, V11:8, V12:8, V13:8, V14:8, V15:8, SP:8
          CFI Resource PSPH:8, PSPL:8, PSP16:16, XSPH:8, XSPL:8, XSP16:16
          CFI VirtualResource ?RET:24
          CFI Resource ?BRET_EXT:8
          CFI VirtualResource ?RET_HIGH:8, ?RET_LOW:8
          CFI ResourceParts PSP16 PSPH, PSPL
          CFI ResourceParts XSP16 XSPH, XSPL
          CFI ResourceParts ?RET ?BRET_EXT, ?RET_HIGH, ?RET_LOW
          CFI EndNames cfiNames0
        
          CFI Common cfiCommon0 Using cfiNames0
          CFI CodeAlign 1
          CFI DataAlign -1
          CFI ReturnAddress ?RET CODE
          CFI CFA_DOVERLAY Used
          CFI CFA_IOVERLAY Used
          CFI CFA_SP SP+-3
          CFI CFA_PSP16 PSP16+0
          CFI CFA_XSP16 XSP16+0
          CFI `PSW.CY` SameValue
          CFI `B.BR0` SameValue
          CFI `B.BR1` SameValue
          CFI `B.BR2` SameValue
          CFI `B.BR3` SameValue
          CFI `B.BR4` SameValue
          CFI `B.BR5` SameValue
          CFI `B.BR6` SameValue
          CFI `B.BR7` SameValue
          CFI `VB.BR8` SameValue
          CFI `VB.BR9` SameValue
          CFI `VB.BR10` SameValue
          CFI `VB.BR11` SameValue
          CFI `VB.BR12` SameValue
          CFI `VB.BR13` SameValue
          CFI `VB.BR14` SameValue
          CFI `VB.BR15` SameValue
          CFI VB SameValue
          CFI B Undefined
          CFI A Undefined
          CFI PSW SameValue
          CFI DPL0 SameValue
          CFI DPH0 SameValue
          CFI R0 Undefined
          CFI R1 Undefined
          CFI R2 Undefined
          CFI R3 Undefined
          CFI R4 Undefined
          CFI R5 Undefined
          CFI R6 SameValue
          CFI R7 SameValue
          CFI V0 SameValue
          CFI V1 SameValue
          CFI V2 SameValue
          CFI V3 SameValue
          CFI V4 SameValue
          CFI V5 SameValue
          CFI V6 SameValue
          CFI V7 SameValue
          CFI V8 SameValue
          CFI V9 SameValue
          CFI V10 SameValue
          CFI V11 SameValue
          CFI V12 SameValue
          CFI V13 SameValue
          CFI V14 SameValue
          CFI V15 SameValue
          CFI PSPH Undefined
          CFI PSPL Undefined
          CFI XSPH Undefined
          CFI XSPL Undefined
          CFI ?RET Concat
          CFI ?BRET_EXT Frame(CFA_SP, 3)
          CFI ?RET_HIGH Frame(CFA_SP, 2)
          CFI ?RET_LOW Frame(CFA_SP, 1)
          CFI EndCommon cfiCommon0
        
osal_set_event      SYMBOL "osal_set_event"
??osal_set_event?relay SYMBOL "?relay", osal_set_event
HalKeyConfig        SYMBOL "HalKeyConfig"
??HalKeyConfig?relay SYMBOL "?relay", HalKeyConfig
HalKeyEnterSleep    SYMBOL "HalKeyEnterSleep"
??HalKeyEnterSleep?relay SYMBOL "?relay", HalKeyEnterSleep
HalKeyExitSleep     SYMBOL "HalKeyExitSleep"
??HalKeyExitSleep?relay SYMBOL "?relay", HalKeyExitSleep
HalKeyInit          SYMBOL "HalKeyInit"
??HalKeyInit?relay  SYMBOL "?relay", HalKeyInit
HalKeyPoll          SYMBOL "HalKeyPoll"
??HalKeyPoll?relay  SYMBOL "?relay", HalKeyPoll
HalKeyRead          SYMBOL "HalKeyRead"
??HalKeyRead?relay  SYMBOL "?relay", HalKeyRead

        EXTERN ??osal_set_event?relay
        FUNCTION ??osal_set_event?relay,00H
        EXTERN Hal_TaskID
        EXTERN osal_set_event
        FUNCTION osal_set_event,0202H
        ARGFRAME ISTACK, 2, STACK
        ARGFRAME PSTACK, 0, STACK
        ARGFRAME XSTACK, 0, STACK
        ARGFRAME IOVERLAY, 0, STATIC
        ARGFRAME DOVERLAY, 0, STATIC

// D:\Texas Instruments\Z-Stack Lighting 1.0.2\Components\hal\target\CC2530PMP4712\hal_key.c
//    1 /**************************************************************************************************
//    2   Filename:       hal_key.c
//    3   Revised:        $Date: 2012-12-19 09:23:16 -0800 (Wed, 19 Dec 2012) $
//    4   Revision:       $Revision: 32643 $
//    5 
//    6   Description:    This file contains the interface to the HAL KEY Service.
//    7 
//    8 
//    9   Copyright 2006-2010 Texas Instruments Incorporated. All rights reserved.
//   10 
//   11   IMPORTANT: Your use of this Software is limited to those specific rights
//   12   granted under the terms of a software license agreement between the user
//   13   who downloaded the software, his/her employer (which must be your employer)
//   14   and Texas Instruments Incorporated (the "License").  You may not use this
//   15   Software unless you agree to abide by the terms of the License. The License
//   16   limits your use, and you acknowledge, that the Software may not be modified,
//   17   copied or distributed unless embedded on a Texas Instruments microcontroller
//   18   or used solely and exclusively in conjunction with a Texas Instruments radio
//   19   frequency transceiver, which is integrated into your product.  Other than for
//   20   the foregoing purpose, you may not use, reproduce, copy, prepare derivative
//   21   works of, modify, distribute, perform, display or sell this Software and/or
//   22   its documentation for any purpose.
//   23 
//   24   YOU FURTHER ACKNOWLEDGE AND AGREE THAT THE SOFTWARE AND DOCUMENTATION ARE
//   25   PROVIDED “AS IS” WITHOUT WARRANTY OF ANY KIND, EITHER EXPRESS OR IMPLIED,
//   26   INCLUDING WITHOUT LIMITATION, ANY WARRANTY OF MERCHANTABILITY, TITLE,
//   27   NON-INFRINGEMENT AND FITNESS FOR A PARTICULAR PURPOSE. IN NO EVENT SHALL
//   28   TEXAS INSTRUMENTS OR ITS LICENSORS BE LIABLE OR OBLIGATED UNDER CONTRACT,
//   29   NEGLIGENCE, STRICT LIABILITY, CONTRIBUTION, BREACH OF WARRANTY, OR OTHER
//   30   LEGAL EQUITABLE THEORY ANY DIRECT OR INDIRECT DAMAGES OR EXPENSES
//   31   INCLUDING BUT NOT LIMITED TO ANY INCIDENTAL, SPECIAL, INDIRECT, PUNITIVE
//   32   OR CONSEQUENTIAL DAMAGES, LOST PROFITS OR LOST DATA, COST OF PROCUREMENT
//   33   OF SUBSTITUTE GOODS, TECHNOLOGY, SERVICES, OR ANY CLAIMS BY THIRD PARTIES
//   34   (INCLUDING BUT NOT LIMITED TO ANY DEFENSE THEREOF), OR OTHER SIMILAR COSTS.
//   35 
//   36   Should you have any questions regarding your right to use this Software,
//   37   contact Texas Instruments Incorporated at www.TI.com.
//   38 **************************************************************************************************/
//   39 /*********************************************************************
//   40  NOTE: If polling is used, the hal_driver task schedules the KeyRead()
//   41        to occur every 100ms.  This should be long enough to naturally
//   42        debounce the keys.  The KeyRead() function remembers the key
//   43        state of the previous poll and will only return a non-zero
//   44        value if the key state changes.
//   45 
//   46 
//   47  NOTE: When a switch like S1 is pushed, the S1 signal goes from a normally
//   48        high state to a low state.  This transition is typically clean.  The
//   49        duration of the low state is around 200ms.  When the signal returns
//   50        to the high state, there is a high likelihood of signal bounce, which
//   51        causes a unwanted interrupts.  Normally, we would set the interrupt
//   52        edge to falling edge to generate an interrupt when S1 is pushed, but
//   53        because of the signal bounce, it is better to set the edge to rising
//   54        edge to generate an interrupt when S1 is released.  The debounce logic
//   55        can then filter out the signal bounce.  The result is that we typically
//   56        get only 1 interrupt per button push.  This mechanism is not totally
//   57        foolproof because occasionally, signal bound occurs during the falling
//   58        edge as well.  A similar mechanism is used to handle the joystick
//   59        pushbutton on the DB.  For the EB, we do not have independent control
//   60        of the interrupt edge for the S1 and center joystick pushbutton.  As
//   61        a result, only one or the other pushbuttons work reasonably well with
//   62        interrupts.  The default is the make the S1 switch on the EB work more
//   63        reliably.
//   64 
//   65 *********************************************************************/
//   66 
//   67 /**************************************************************************************************
//   68  *                                            INCLUDES
//   69  **************************************************************************************************/
//   70 #include "hal_mcu.h"

        ASEGN SFR_AN:DATA:NOROOT,0a0H
// union <unnamed> volatile __sfr _A_P2
_A_P2:
        DATA8
        DS 1
//   71 #include "hal_defs.h"
//   72 #include "hal_types.h"
//   73 #include "hal_board.h"
//   74 #include "hal_drivers.h"
//   75 #include "hal_adc.h"
//   76 #include "hal_key.h"
//   77 #include "osal.h"
//   78 
//   79 #if (defined HAL_KEY) && (HAL_KEY == TRUE)
//   80 
//   81 /**************************************************************************************************
//   82  *                                              MACROS
//   83  **************************************************************************************************/
//   84 
//   85 /**************************************************************************************************
//   86  *                                            CONSTANTS
//   87  **************************************************************************************************/
//   88 
//   89 /**************************************************************************************************
//   90  *                                            TYPEDEFS
//   91  **************************************************************************************************/
//   92 
//   93 
//   94 /**************************************************************************************************
//   95  *                                        GLOBAL VARIABLES
//   96  **************************************************************************************************/

        RSEG XDATA_Z:XDATA:NOROOT(0)
        DATA8
//   97 static uint8 halKeySavedKeys;     /* used to store previous key state in polling mode */
halKeySavedKeys:
        DS 1
        REQUIRE __INIT_XDATA_Z

        RSEG XDATA_Z:XDATA:NOROOT(0)
        DATA16
//   98 static halKeyCBack_t pHalKeyProcessFunction;
pHalKeyProcessFunction:
        DS 2
        REQUIRE __INIT_XDATA_Z

        RSEG XDATA_Z:XDATA:NOROOT(0)
        DATA8
//   99 bool Hal_KeyIntEnable = false;            /* key interrupts not supported */
Hal_KeyIntEnable:
        DS 1
        REQUIRE __INIT_XDATA_Z
//  100 
//  101 
//  102 /**************************************************************************************************
//  103  *                                        FUNCTIONS - Local
//  104  **************************************************************************************************/
//  105 
//  106 /**************************************************************************************************
//  107  *                                        FUNCTIONS - API
//  108  **************************************************************************************************/
//  109 
//  110 
//  111 /**************************************************************************************************
//  112  * @fn      HalKeyInit
//  113  *
//  114  * @brief   Initilize Key Service
//  115  *
//  116  * @param   none
//  117  *
//  118  * @return  None
//  119  **************************************************************************************************/

        RSEG BANKED_CODE:CODE:NOROOT(0)
//  120 void HalKeyInit( void )
HalKeyInit:
          CFI Block cfiBlock0 Using cfiCommon0
          CFI Function HalKeyInit
        CODE
//  121 {
        PUSH    DPL
          CFI DPL0 Frame(CFA_SP, 4)
          CFI CFA_SP SP+-4
        PUSH    DPH
          CFI DPH0 Frame(CFA_SP, 5)
          CFI CFA_SP SP+-5
        ; Saved register size: 2
        ; Auto size: 0
//  122 
//  123   /* Initialize previous key to 0 */
//  124   halKeySavedKeys = 0;
        MOV     DPTR,#halKeySavedKeys
        CLR     A
        MOVX    @DPTR,A
//  125 
//  126   /* Initialize callback function */
//  127   pHalKeyProcessFunction  = NULL;
        MOV     DPTR,#pHalKeyProcessFunction
        MOVX    @DPTR,A
        INC     DPTR
        MOVX    @DPTR,A
//  128 }
        SJMP    ?Subroutine0
          CFI EndBlock cfiBlock0
//  129 
//  130 
//  131 /**************************************************************************************************
//  132  * @fn      HalKeyConfig
//  133  *
//  134  * @brief   Configure the Key serivce
//  135  *
//  136  * @param   interruptEnable - TRUE/FALSE, enable/disable interrupt
//  137  *          cback - pointer to the CallBack function
//  138  *
//  139  * @return  None
//  140  **************************************************************************************************/

        RSEG BANKED_CODE:CODE:NOROOT(0)
//  141 void HalKeyConfig (bool interruptEnable, halKeyCBack_t cback)
HalKeyConfig:
          CFI Block cfiBlock1 Using cfiCommon0
          CFI Function HalKeyConfig
        CODE
//  142 {
        FUNCALL HalKeyConfig, osal_set_event
        LOCFRAME ISTACK, 2, STACK
        LOCFRAME PSTACK, 0, STACK
        LOCFRAME XSTACK, 0, STACK
        LOCFRAME IOVERLAY, 0, STATIC
        LOCFRAME DOVERLAY, 0, STATIC
        ARGFRAME ISTACK, 2, STACK
        ARGFRAME PSTACK, 0, STACK
        ARGFRAME XSTACK, 0, STACK
        ARGFRAME IOVERLAY, 0, STATIC
        ARGFRAME DOVERLAY, 0, STATIC
        PUSH    DPL
          CFI DPL0 Frame(CFA_SP, 4)
          CFI CFA_SP SP+-4
        PUSH    DPH
          CFI DPH0 Frame(CFA_SP, 5)
          CFI CFA_SP SP+-5
        ; Saved register size: 2
        ; Auto size: 0
//  143   /* Register the callback fucntion */
//  144   pHalKeyProcessFunction = cback;
        MOV     DPTR,#pHalKeyProcessFunction
        MOV     A,R2
        MOVX    @DPTR,A
        INC     DPTR
        MOV     A,R3
        MOVX    @DPTR,A
//  145 
//  146   osal_set_event(Hal_TaskID, HAL_KEY_EVENT);
        ; Setup parameters for call to function osal_set_event
        MOV     R2,#0x10
        MOV     R3,#0x0
        MOV     DPTR,#Hal_TaskID
        MOVX    A,@DPTR
        MOV     R1,A
        LCALL   ??osal_set_event?relay
//  147 }
        SJMP    ?Subroutine0
          CFI EndBlock cfiBlock1
//  148 
//  149 
//  150 /**************************************************************************************************
//  151  * @fn      HalKeyRead
//  152  *
//  153  * @brief   Read the current value of a key
//  154  *
//  155  * @param   None
//  156  *
//  157  * @return  keys - current keys status
//  158  **************************************************************************************************/

        RSEG BANKED_CODE:CODE:NOROOT(0)
//  159 uint8 HalKeyRead ( void )
HalKeyRead:
          CFI Block cfiBlock2 Using cfiCommon0
          CFI Function HalKeyRead
        CODE
//  160 {
        ; Saved register size: 0
        ; Auto size: 0
//  161   uint8 keys = 0;
        MOV     R1,#0x0
//  162 
//  163   if (HAL_PUSH_BUTTON1())
        MOV     C,0xa0.0
        JC      ??HalKeyRead_0
//  164   {
//  165     //Map S1 to HAL_KEY_2
//  166     keys |= HAL_KEY_SW_2;
        INC     R1
        INC     R1
//  167   }
//  168 
//  169   return keys;
??HalKeyRead_0:
        LJMP    ?BRET
          CFI EndBlock cfiBlock2
        REQUIRE _A_P2
//  170 }
//  171 
//  172 
//  173 /**************************************************************************************************
//  174  * @fn      HalKeyPoll
//  175  *
//  176  * @brief   Called by hal_driver to poll the keys
//  177  *
//  178  * @param   None
//  179  *
//  180  * @return  None
//  181  **************************************************************************************************/

        RSEG BANKED_CODE:CODE:NOROOT(0)
//  182 void HalKeyPoll (void)
HalKeyPoll:
          CFI Block cfiBlock3 Using cfiCommon0
          CFI Function HalKeyPoll
        CODE
//  183 {
        PUSH    DPL
          CFI DPL0 Frame(CFA_SP, 4)
          CFI CFA_SP SP+-4
        PUSH    DPH
          CFI DPH0 Frame(CFA_SP, 5)
          CFI CFA_SP SP+-5
        ; Saved register size: 2
        ; Auto size: 0
//  184   uint8 keys = 0;
        MOV     R1,#0x0
//  185 
//  186   if (HAL_PUSH_BUTTON1())
        MOV     C,0xa0.0
        JC      ??HalKeyPoll_0
//  187   {
//  188     keys |= HAL_KEY_SW_2;
        INC     R1
        INC     R1
//  189   }
//  190 
//  191   if (keys == halKeySavedKeys)
??HalKeyPoll_0:
        MOV     DPTR,#halKeySavedKeys
        MOVX    A,@DPTR
        XRL     A,R1
        JZ      ??HalKeyPoll_1
//  192   {
//  193     /* Exit - since no keys have changed */
//  194     return;
//  195   }
//  196   /* Store the current keys for comparation next time */
//  197   halKeySavedKeys = keys;
        MOV     A,R1
        MOVX    @DPTR,A
//  198 
//  199   /* Invoke Callback if new keys were depressed */
//  200   if ( pHalKeyProcessFunction )
        MOV     DPTR,#pHalKeyProcessFunction
        MOVX    A,@DPTR
        MOV     R2,A
        INC     DPTR
        MOVX    A,@DPTR
        MOV     R3,A
        MOV     A,R2
        ORL     A,R3
        JZ      ??HalKeyPoll_1
//  201   {
//  202     (pHalKeyProcessFunction) (keys, HAL_KEY_STATE_NORMAL);
        ; Setup parameters for indirect call
        MOV     R2,#0x0
        MOV     DPTR,#pHalKeyProcessFunction
        MOVX    A,@DPTR
        MOV     R0,A
        INC     DPTR
        MOVX    A,@DPTR
        MOV     DPH,A
        MOV     DPL,R0
        LCALL   ?CALL_IND
          CFI EndBlock cfiBlock3
//  203   }
??HalKeyPoll_1:
        REQUIRE ?Subroutine0
        REQUIRE _A_P2
        ; // Fall through to label ?Subroutine0
//  204 }

        RSEG BANKED_CODE:CODE:NOROOT(0)
?Subroutine0:
          CFI Block cfiBlock4 Using cfiCommon0
          CFI NoFunction
          CFI CFA_SP SP+-5
          CFI DPL0 Frame(CFA_SP, 4)
          CFI DPH0 Frame(CFA_SP, 5)
        POP     DPH
          CFI CFA_SP SP+-4
          CFI DPH0 SameValue
        POP     DPL
          CFI CFA_SP SP+-3
          CFI DPL0 SameValue
        LJMP    ?BRET
          CFI EndBlock cfiBlock4
//  205 
//  206 /**************************************************************************************************
//  207  * @fn      HalKeyEnterSleep
//  208  *
//  209  * @brief  - Get called to enter sleep mode
//  210  *
//  211  * @param
//  212  *
//  213  * @return
//  214  **************************************************************************************************/

        RSEG BANKED_CODE:CODE:NOROOT(0)
//  215 void HalKeyEnterSleep ( void )
HalKeyEnterSleep:
          CFI Block cfiBlock5 Using cfiCommon0
          CFI Function HalKeyEnterSleep
        CODE
//  216 {
        ; Saved register size: 0
        ; Auto size: 0
//  217 }
        LJMP    ?BRET
          CFI EndBlock cfiBlock5
//  218 
//  219 /**************************************************************************************************
//  220  * @fn      HalKeyExitSleep
//  221  *
//  222  * @brief   - Get called when sleep is over
//  223  *
//  224  * @param
//  225  *
//  226  * @return  - return saved keys
//  227  **************************************************************************************************/

        RSEG BANKED_CODE:CODE:NOROOT(0)
//  228 uint8 HalKeyExitSleep ( void )
HalKeyExitSleep:
          CFI Block cfiBlock6 Using cfiCommon0
          CFI Function HalKeyExitSleep
        CODE
//  229 {
        FUNCALL HalKeyExitSleep, HalKeyRead
        LOCFRAME ISTACK, 2, STACK
        LOCFRAME PSTACK, 0, STACK
        LOCFRAME XSTACK, 0, STACK
        LOCFRAME IOVERLAY, 0, STATIC
        LOCFRAME DOVERLAY, 0, STATIC
        ARGFRAME ISTACK, 2, STACK
        ARGFRAME PSTACK, 0, STACK
        ARGFRAME XSTACK, 0, STACK
        ARGFRAME IOVERLAY, 0, STATIC
        ARGFRAME DOVERLAY, 0, STATIC
        PUSH    DPL
          CFI DPL0 Frame(CFA_SP, 4)
          CFI CFA_SP SP+-4
        PUSH    DPH
          CFI DPH0 Frame(CFA_SP, 5)
          CFI CFA_SP SP+-5
        ; Saved register size: 2
        ; Auto size: 0
//  230   /* Wake up and read keys */
//  231   return ( HalKeyRead () );
        ; Setup parameters for call to function HalKeyRead
        LCALL   ??HalKeyRead?relay
        SJMP    ?Subroutine0
          CFI EndBlock cfiBlock6
//  232 }

        RSEG BANK_RELAYS:CODE:REORDER:NOROOT(0)
??HalKeyInit?relay:
        CODE
        LCALL   ?BDISPATCH
        DATA24
        DC24    HalKeyInit

        RSEG BANK_RELAYS:CODE:REORDER:NOROOT(0)
??HalKeyConfig?relay:
        CODE
        LCALL   ?BDISPATCH
        DATA24
        DC24    HalKeyConfig

        RSEG BANK_RELAYS:CODE:REORDER:NOROOT(0)
??HalKeyRead?relay:
        CODE
        LCALL   ?BDISPATCH
        DATA24
        DC24    HalKeyRead

        RSEG BANK_RELAYS:CODE:REORDER:NOROOT(0)
??HalKeyPoll?relay:
        CODE
        LCALL   ?BDISPATCH
        DATA24
        DC24    HalKeyPoll

        RSEG BANK_RELAYS:CODE:REORDER:NOROOT(0)
??HalKeyEnterSleep?relay:
        CODE
        LCALL   ?BDISPATCH
        DATA24
        DC24    HalKeyEnterSleep

        RSEG BANK_RELAYS:CODE:REORDER:NOROOT(0)
??HalKeyExitSleep?relay:
        CODE
        LCALL   ?BDISPATCH
        DATA24
        DC24    HalKeyExitSleep

        END
//  233 
//  234 #else
//  235 
//  236 
//  237 void HalKeyInit(void){}
//  238 void HalKeyConfig(bool interruptEnable, halKeyCBack_t cback){}
//  239 uint8 HalKeyRead(void){ return 0;}
//  240 void HalKeyPoll(void){}
//  241 
//  242 #endif /* HAL_KEY */
//  243 
//  244 /**************************************************************************************************
//  245 **************************************************************************************************/
//  246 
//  247 
//  248 
// 
// 122 bytes in segment BANKED_CODE
//  36 bytes in segment BANK_RELAYS
//   1 byte  in segment SFR_AN
//   4 bytes in segment XDATA_Z
// 
// 158 bytes of CODE  memory
//   0 bytes of DATA  memory (+ 1 byte shared)
//   4 bytes of XDATA memory
//
//Errors: none
//Warnings: none
