///////////////////////////////////////////////////////////////////////////////
//                                                                            /
// IAR C/C++ Compiler V8.20.2.41139 for 8051            27/May/2014  19:14:07 /
// Copyright 2004-2013 IAR Systems AB.                                        /
//                                                                            /
//    Core               =  plain                                             /
//    Code model         =  banked                                            /
//    Data model         =  large                                             /
//    Calling convention =  xdata reentrant                                   /
//    Constant location  =  data_rom                                          /
//    Dptr setup         =  1,16                                              /
//                                                                            /
//    Source file        =  D:\Texas Instruments\Z-Stack Lighting             /
//                          1.0.2\Components\hal\target\CC2530PMP4712\hal_ole /
//                          d.c                                               /
//    Command line       =  -f "D:\Texas Instruments\Z-Stack Lighting         /
//                          1.0.2\Projects\zstack\ZLL\SampleApp\CC253x\..\..\ /
//                          ..\Tools\CC2530DB\f8wRouter.cfg" (-DCPU32MHZ      /
//                          -DROOT=__near_func -DMAC_CFG_APP_PENDING_QUEUE=TR /
//                          UE -DMAC_CFG_TX_DATA_MAX=5 -DMAC_CFG_TX_MAX=8     /
//                          -DMAC_CFG_RX_MAX=5 -DRTR_NWK) -f "D:\Texas        /
//                          Instruments\Z-Stack Lighting                      /
//                          1.0.2\Projects\zstack\ZLL\SampleApp\CC253x\..\..\ /
//                          ..\Tools\CC2530DB\f8wConfig.cfg" (-DZIGBEEPRO     /
//                          -DSECURE=1 -DZG_SECURE_DYNAMIC=0 -DREFLECTOR      /
//                          -DDEFAULT_CHANLIST=0x00000800                     /
//                          -DZDAPP_CONFIG_PAN_ID=0xFFFF                      /
//                          -DNWK_START_DELAY=100 -DEXTENDED_JOINING_RANDOM_M /
//                          ASK=0x007F -DBEACON_REQUEST_DELAY=100             /
//                          -DBEACON_REQ_DELAY_MASK=0x00FF                    /
//                          -DLINK_STATUS_JITTER_MASK=0x007F                  /
//                          -DROUTE_EXPIRY_TIME=30 -DAPSC_ACK_WAIT_DURATION_P /
//                          OLLED=3000 -DNWK_INDIRECT_MSG_TIMEOUT=7           /
//                          -DMAX_RREQ_ENTRIES=8 -DAPSC_MAX_FRAME_RETRIES=3   /
//                          -DNWK_MAX_DATA_RETRIES=2                          /
//                          -DMAX_POLL_FAILURE_RETRIES=2 -DMAX_BCAST=9        /
//                          -DAPS_MAX_GROUPS=16 -DMAX_RTG_ENTRIES=40          /
//                          -DNWK_MAX_BINDING_ENTRIES=4                       /
//                          -DMAX_BINDING_CLUSTER_IDS=4                       /
//                          "-DDEFAULT_KEY={0x01, 0x03, 0x05, 0x07, 0x09,     /
//                          0x0B, 0x0D, 0x0F, 0x00, 0x02, 0x04, 0x06, 0x08,   /
//                          0x0A, 0x0C, 0x0D}" -DMAC_MAX_FRAME_SIZE=116       /
//                          -DZDNWKMGR_MIN_TRANSMISSIONS=20 "-DCONST=const    /
//                          __code" -DGENERIC=__generic                       /
//                          -DRFD_RCVC_ALWAYS_ON=FALSE -DPOLL_RATE=1000       /
//                          -DQUEUED_POLL_RATE=100 -DRESPONSE_POLL_RATE=100   /
//                          -DREJOIN_POLL_RATE=440) -f "D:\Texas              /
//                          Instruments\Z-Stack Lighting                      /
//                          1.0.2\Projects\zstack\ZLL\SampleApp\CC253x\..\..\ /
//                          ..\Tools\CC2530DB\f8wZCL.cfg" "D:\Texas           /
//                          Instruments\Z-Stack Lighting                      /
//                          1.0.2\Components\hal\target\CC2530PMP4712\hal_ole /
//                          d.c" -D FEATURE_GREEN_POWER -D SECURE=1 -D        /
//                          TC_LINKKEY_JOIN -D ZDSECMGR_TC_DEVICE_MAX=2 -D    /
//                          NV_RESTORE -D HOLD_AUTO_START -D INTER_PAN -D     /
//                          LCD_SUPPORTED=DEBUG -D ZCL_BASIC -D ZCL_READ -D   /
//                          ZCL_WRITE -D ZCL_IDENTIFY -D ZCL_ON_OFF -D        /
//                          ZCL_SCENES -D ZCL_GROUPS -D                       /
//                          ZCL_LIGHT_LINK_ENHANCE -D ZCL_LEVEL_CTRL -D       /
//                          ZCL_COLOR_CTRL -D MAX_CHANNELS_24GHZ=0x02108800   /
//                          -D xPWM_ALT2 -D xTHERMAL_SHUTDOWN -D              /
//                          ZLL_1_0_HUB_COMPATIBILITY -D DALI_LIGHT -lC       /
//                          "D:\Texas Instruments\Z-Stack Lighting            /
//                          1.0.2\Projects\zstack\ZLL\SampleApp\CC253x\Zlight /
//                           - Router\List\" -lA "D:\Texas                    /
//                          Instruments\Z-Stack Lighting                      /
//                          1.0.2\Projects\zstack\ZLL\SampleApp\CC253x\Zlight /
//                           - Router\List\" --diag_suppress Pe001,Pa010 -o   /
//                          "D:\Texas Instruments\Z-Stack Lighting            /
//                          1.0.2\Projects\zstack\ZLL\SampleApp\CC253x\Zlight /
//                           - Router\Obj\" -e --debug --core=plain           /
//                          --dptr=16,1 --data_model=large                    /
//                          --code_model=banked --calling_convention=xdata_re /
//                          entrant --place_constants=data_rom                /
//                          --nr_virtual_regs 16 -I "D:\Texas                 /
//                          Instruments\Z-Stack Lighting                      /
//                          1.0.2\Projects\zstack\ZLL\SampleApp\CC253x\" -I   /
//                          "D:\Texas Instruments\Z-Stack Lighting            /
//                          1.0.2\Projects\zstack\ZLL\SampleApp\CC253x\..\Sou /
//                          rce\" -I "D:\Texas Instruments\Z-Stack Lighting   /
//                          1.0.2\Projects\zstack\ZLL\SampleApp\CC253x\..\..\ /
//                          Source\" -I "D:\Texas Instruments\Z-Stack         /
//                          Lighting 1.0.2\Projects\zstack\ZLL\SampleApp\CC25 /
//                          3x\..\..\..\HomeAutomation\Source\" -I "D:\Texas  /
//                          Instruments\Z-Stack Lighting                      /
//                          1.0.2\Projects\zstack\ZLL\SampleApp\CC253x\..\..\ /
//                          ..\HomeAutomation\SampleLight\Source\" -I         /
//                          "D:\Texas Instruments\Z-Stack Lighting            /
//                          1.0.2\Projects\zstack\ZLL\SampleApp\CC253x\..\..\ /
//                          ..\ZMain\TI2530DB\" -I "D:\Texas                  /
//                          Instruments\Z-Stack Lighting                      /
//                          1.0.2\Projects\zstack\ZLL\SampleApp\CC253x\..\..\ /
//                          ..\..\..\Components\hal\include\" -I "D:\Texas    /
//                          Instruments\Z-Stack Lighting                      /
//                          1.0.2\Projects\zstack\ZLL\SampleApp\CC253x\..\..\ /
//                          ..\..\..\Components\hal\target\CC2530PMP4712\"    /
//                          -I "D:\Texas Instruments\Z-Stack Lighting         /
//                          1.0.2\Projects\zstack\ZLL\SampleApp\CC253x\..\..\ /
//                          ..\..\..\Components\mac\include\" -I "D:\Texas    /
//                          Instruments\Z-Stack Lighting                      /
//                          1.0.2\Projects\zstack\ZLL\SampleApp\CC253x\..\..\ /
//                          ..\..\..\Components\mac\high_level\" -I           /
//                          "D:\Texas Instruments\Z-Stack Lighting            /
//                          1.0.2\Projects\zstack\ZLL\SampleApp\CC253x\..\..\ /
//                          ..\..\..\Components\mac\low_level\srf04\" -I      /
//                          "D:\Texas Instruments\Z-Stack Lighting            /
//                          1.0.2\Projects\zstack\ZLL\SampleApp\CC253x\..\..\ /
//                          ..\..\..\Components\mac\low_level\srf04\single_ch /
//                          ip\" -I "D:\Texas Instruments\Z-Stack Lighting    /
//                          1.0.2\Projects\zstack\ZLL\SampleApp\CC253x\..\..\ /
//                          ..\..\..\Components\mt\" -I "D:\Texas             /
//                          Instruments\Z-Stack Lighting                      /
//                          1.0.2\Projects\zstack\ZLL\SampleApp\CC253x\..\..\ /
//                          ..\..\..\Components\osal\include\" -I "D:\Texas   /
//                          Instruments\Z-Stack Lighting                      /
//                          1.0.2\Projects\zstack\ZLL\SampleApp\CC253x\..\..\ /
//                          ..\..\..\Components\services\saddr\" -I           /
//                          "D:\Texas Instruments\Z-Stack Lighting            /
//                          1.0.2\Projects\zstack\ZLL\SampleApp\CC253x\..\..\ /
//                          ..\..\..\Components\services\sdata\" -I           /
//                          "D:\Texas Instruments\Z-Stack Lighting            /
//                          1.0.2\Projects\zstack\ZLL\SampleApp\CC253x\..\..\ /
//                          ..\..\..\Components\stack\af\" -I "D:\Texas       /
//                          Instruments\Z-Stack Lighting                      /
//                          1.0.2\Projects\zstack\ZLL\SampleApp\CC253x\..\..\ /
//                          ..\..\..\Components\stack\nwk\" -I "D:\Texas      /
//                          Instruments\Z-Stack Lighting                      /
//                          1.0.2\Projects\zstack\ZLL\SampleApp\CC253x\..\..\ /
//                          ..\..\..\Components\stack\sapi\" -I "D:\Texas     /
//                          Instruments\Z-Stack Lighting                      /
//                          1.0.2\Projects\zstack\ZLL\SampleApp\CC253x\..\..\ /
//                          ..\..\..\Components\stack\sec\" -I "D:\Texas      /
//                          Instruments\Z-Stack Lighting                      /
//                          1.0.2\Projects\zstack\ZLL\SampleApp\CC253x\..\..\ /
//                          ..\..\..\Components\stack\sys\" -I "D:\Texas      /
//                          Instruments\Z-Stack Lighting                      /
//                          1.0.2\Projects\zstack\ZLL\SampleApp\CC253x\..\..\ /
//                          ..\..\..\Components\stack\zcl\" -I "D:\Texas      /
//                          Instruments\Z-Stack Lighting                      /
//                          1.0.2\Projects\zstack\ZLL\SampleApp\CC253x\..\..\ /
//                          ..\..\..\Components\stack\zdo\" -I "D:\Texas      /
//                          Instruments\Z-Stack Lighting                      /
//                          1.0.2\Projects\zstack\ZLL\SampleApp\CC253x\..\..\ /
//                          ..\..\..\Components\zmac\" -I "D:\Texas           /
//                          Instruments\Z-Stack Lighting                      /
//                          1.0.2\Projects\zstack\ZLL\SampleApp\CC253x\..\..\ /
//                          ..\..\..\Components\zmac\f8w\" -Ohz               /
//                          --require_prototypes                              /
//    List file          =  D:\Texas Instruments\Z-Stack Lighting             /
//                          1.0.2\Projects\zstack\ZLL\SampleApp\CC253x\Zlight /
//                           - Router\List\hal_oled.s51                       /
//                                                                            /
//                                                                            /
///////////////////////////////////////////////////////////////////////////////

        NAME hal_oled

        RTMODEL "__SystemLibrary", "CLib"
        RTMODEL "__calling_convention", "xdata_reentrant"
        RTMODEL "__code_model", "banked"
        RTMODEL "__core", "plain"
        RTMODEL "__data_model", "large"
        RTMODEL "__dptr_size", "16"
        RTMODEL "__extended_stack", "disabled"
        RTMODEL "__location_for_constants", "data"
        RTMODEL "__number_of_dptrs", "1"
        RTMODEL "__rt_version", "1"

        RSEG DOVERLAY:DATA:NOROOT(0)
        RSEG IOVERLAY:IDATA:NOROOT(0)
        RSEG ISTACK:IDATA:NOROOT(0)
        RSEG PSTACK:XDATA:NOROOT(0)
        RSEG XSTACK:XDATA:NOROOT(0)

        EXTERN ?ALLOC_XSTACK8
        EXTERN ?BANKED_ENTER_XDATA
        EXTERN ?BANKED_LEAVE_XDATA
        EXTERN ?BDISPATCH
        EXTERN ?BRET
        EXTERN ?DEALLOC_XSTACK8
        EXTERN ?FLT_GE
        EXTERN ?L_MOV_X
        EXTERN ?PUSH_XSTACK_I_TWO
        EXTERN ?S_SHL
        EXTERN ?UL_DIV_MOD
        EXTERN ?V0
        EXTERN ?XSP
        EXTERN ?XSTACK_DISP0_8
        EXTERN __INIT_XDATA_I

        PUBLIC ??ClearRow16?relay
        FUNCTION ??ClearRow16?relay,0203H
        PUBLIC ??ClearScreen?relay
        FUNCTION ??ClearScreen?relay,0203H
        PUBLIC ??HalLcdDisplayPercentBar?relay
        FUNCTION ??HalLcdDisplayPercentBar?relay,0203H
        PUBLIC ??HalLcdInit?relay
        FUNCTION ??HalLcdInit?relay,0203H
        PUBLIC ??HalLcdWriteScreen?relay
        FUNCTION ??HalLcdWriteScreen?relay,0203H
        PUBLIC ??HalLcdWriteString?relay
        FUNCTION ??HalLcdWriteString?relay,0203H
        PUBLIC ??HalLcdWriteStringValue?relay
        FUNCTION ??HalLcdWriteStringValue?relay,0203H
        PUBLIC ??HalLcdWriteStringValueValue?relay
        FUNCTION ??HalLcdWriteStringValueValue?relay,0203H
        PUBLIC ??HalLcdWriteValue?relay
        FUNCTION ??HalLcdWriteValue?relay,0203H
        PUBLIC ??InitDisplay?relay
        FUNCTION ??InitDisplay?relay,0203H
        PUBLIC ??LcdPowerOFF?relay
        FUNCTION ??LcdPowerOFF?relay,0203H
        PUBLIC ??LcdPowerON?relay
        FUNCTION ??LcdPowerON?relay,0203H
        PUBLIC ??LoadICO?relay
        FUNCTION ??LoadICO?relay,0203H
        PUBLIC ??Print16?relay
        FUNCTION ??Print16?relay,0203H
        PUBLIC ??Print16_8?relay
        FUNCTION ??Print16_8?relay,0203H
        PUBLIC ??Print32_16?relay
        FUNCTION ??Print32_16?relay,0203H
        PUBLIC ??Print6?relay
        FUNCTION ??Print6?relay,0203H
        PUBLIC ??Print?relay
        FUNCTION ??Print?relay,0203H
        PUBLIC ??PrintBatteryCapacity?relay
        FUNCTION ??PrintBatteryCapacity?relay,0203H
        PUBLIC ??PrintCh16_8?relay
        FUNCTION ??PrintCh16_8?relay,0203H
        PUBLIC ??PrintCh32_16?relay
        FUNCTION ??PrintCh32_16?relay,0203H
        PUBLIC ??PrintWirelessQuality?relay
        FUNCTION ??PrintWirelessQuality?relay,0203H
        PUBLIC ??Printn8?relay
        FUNCTION ??Printn8?relay,0203H
        PUBLIC ??Printn?relay
        FUNCTION ??Printn?relay,0203H
        PUBLIC ??Rectangle?relay
        FUNCTION ??Rectangle?relay,0203H
        PUBLIC ??SetContrast?relay
        FUNCTION ??SetContrast?relay,0203H
        PUBLIC ??SetRamAddr?relay
        FUNCTION ??SetRamAddr?relay,0203H
        PUBLIC ??Wait100Ns?relay
        FUNCTION ??Wait100Ns?relay,0203H
        PUBLIC ??WaitUs?relay
        FUNCTION ??WaitUs?relay,0203H
        PUBLIC ??WriteLCD?relay
        FUNCTION ??WriteLCD?relay,0203H
        PUBLIC ??WriteLCDbyte?relay
        FUNCTION ??WriteLCDbyte?relay,0203H
        PUBLIC ??contrastctrl?relay
        FUNCTION ??contrastctrl?relay,0203H
        PUBLIC ClearRow16
        FUNCTION ClearRow16,021203H
        ARGFRAME XSTACK, 0, STACK
        LOCFRAME XSTACK, 10, STACK
        PUBLIC ClearScreen
        FUNCTION ClearScreen,021203H
        ARGFRAME XSTACK, 0, STACK
        LOCFRAME XSTACK, 9, STACK
        PUBLIC ContrastValue
        PUBLIC HalLcdDisplayPercentBar
        FUNCTION HalLcdDisplayPercentBar,0203H
        ARGFRAME XSTACK, 0, STACK
        PUBLIC HalLcdInit
        FUNCTION HalLcdInit,0203H
        ARGFRAME XSTACK, 0, STACK
        PUBLIC HalLcdWriteScreen
        FUNCTION HalLcdWriteScreen,0203H
        ARGFRAME XSTACK, 0, STACK
        PUBLIC HalLcdWriteString
        FUNCTION HalLcdWriteString,0203H
        ARGFRAME XSTACK, 0, STACK
        PUBLIC HalLcdWriteStringValue
        FUNCTION HalLcdWriteStringValue,0203H
        ARGFRAME XSTACK, 1, STACK
        PUBLIC HalLcdWriteStringValueValue
        FUNCTION HalLcdWriteStringValueValue,0203H
        ARGFRAME XSTACK, 4, STACK
        PUBLIC HalLcdWriteValue
        FUNCTION HalLcdWriteValue,0203H
        ARGFRAME XSTACK, 1, STACK
        PUBLIC InitDisplay
        FUNCTION InitDisplay,021203H
        ARGFRAME XSTACK, 0, STACK
        LOCFRAME ISTACK, 2, STACK
        PUBLIC LcdPowerOFF
        FUNCTION LcdPowerOFF,021203H
        ARGFRAME XSTACK, 0, STACK
        LOCFRAME ISTACK, 2, STACK
        PUBLIC LcdPowerON
        FUNCTION LcdPowerON,021203H
        ARGFRAME XSTACK, 0, STACK
        LOCFRAME ISTACK, 2, STACK
        PUBLIC LoadICO
        FUNCTION LoadICO,021203H
        ARGFRAME XSTACK, 0, STACK
        LOCFRAME XSTACK, 12, STACK
        PUBWEAK P0DIR
        PUBWEAK P1DIR
        PUBLIC Print
        FUNCTION Print,021203H
        ARGFRAME XSTACK, 2, STACK
        LOCFRAME ISTACK, 1, STACK
        LOCFRAME XSTACK, 25, STACK
        PUBLIC Print16
        FUNCTION Print16,021203H
        ARGFRAME XSTACK, 25, STACK
        ARGFRAME IOVERLAY, 0, STATIC
        ARGFRAME DOVERLAY, 0, STATIC
        LOCFRAME XSTACK, 15, STACK
        PUBLIC Print16_8
        FUNCTION Print16_8,021203H
        ARGFRAME XSTACK, 32, STACK
        ARGFRAME IOVERLAY, 0, STATIC
        ARGFRAME DOVERLAY, 0, STATIC
        LOCFRAME XSTACK, 20, STACK
        PUBLIC Print32_16
        FUNCTION Print32_16,021203H
        ARGFRAME XSTACK, 4, STACK
        LOCFRAME XSTACK, 20, STACK
        PUBLIC Print6
        FUNCTION Print6,021203H
        ARGFRAME XSTACK, 28, STACK
        ARGFRAME IOVERLAY, 0, STATIC
        ARGFRAME DOVERLAY, 0, STATIC
        LOCFRAME XSTACK, 15, STACK
        PUBLIC PrintBatteryCapacity
        FUNCTION PrintBatteryCapacity,021203H
        ARGFRAME XSTACK, 0, STACK
        LOCFRAME XSTACK, 16, STACK
        PUBLIC PrintCh16_8
        FUNCTION PrintCh16_8,021203H
        ARGFRAME XSTACK, 20, STACK
        ARGFRAME IOVERLAY, 0, STATIC
        ARGFRAME DOVERLAY, 0, STATIC
        LOCFRAME XSTACK, 17, STACK
        PUBLIC PrintCh32_16
        FUNCTION PrintCh32_16,021203H
        ARGFRAME XSTACK, 20, STACK
        ARGFRAME IOVERLAY, 0, STATIC
        ARGFRAME DOVERLAY, 0, STATIC
        LOCFRAME XSTACK, 17, STACK
        PUBLIC PrintWirelessQuality
        FUNCTION PrintWirelessQuality,021203H
        ARGFRAME XSTACK, 0, STACK
        LOCFRAME XSTACK, 12, STACK
        PUBLIC Printn
        FUNCTION Printn,021203H
        ARGFRAME XSTACK, 4, STACK
        LOCFRAME ISTACK, 1, STACK
        LOCFRAME XSTACK, 28, STACK
        PUBLIC Printn8
        FUNCTION Printn8,021203H
        ARGFRAME XSTACK, 4, STACK
        LOCFRAME ISTACK, 1, STACK
        LOCFRAME XSTACK, 32, STACK
        PUBLIC Rectangle
        FUNCTION Rectangle,021203H
        ARGFRAME XSTACK, 0, STACK
        LOCFRAME XSTACK, 11, STACK
        PUBLIC SetContrast
        FUNCTION SetContrast,021203H
        ARGFRAME XSTACK, 9, STACK
        ARGFRAME IOVERLAY, 0, STATIC
        ARGFRAME DOVERLAY, 0, STATIC
        LOCFRAME XSTACK, 9, STACK
        PUBLIC SetRamAddr
        FUNCTION SetRamAddr,021203H
        ARGFRAME XSTACK, 17, STACK
        ARGFRAME IOVERLAY, 0, STATIC
        ARGFRAME DOVERLAY, 0, STATIC
        LOCFRAME XSTACK, 9, STACK
        PUBLIC Wait100Ns
        FUNCTION Wait100Ns,080203H
        ARGFRAME XSTACK, 0, STACK
        PUBLIC WaitUs
        FUNCTION WaitUs,080203H
        ARGFRAME XSTACK, 9, STACK
        ARGFRAME IOVERLAY, 0, STATIC
        ARGFRAME DOVERLAY, 0, STATIC
        PUBLIC WriteLCD
        FUNCTION WriteLCD,0203H
        ARGFRAME XSTACK, 17, STACK
        ARGFRAME IOVERLAY, 0, STATIC
        ARGFRAME DOVERLAY, 0, STATIC
        PUBLIC WriteLCDbyte
        FUNCTION WriteLCDbyte,0203H
        ARGFRAME XSTACK, 0, STACK
        PUBWEAK _A_P1
        PUBWEAK __Constant_a
        PUBLIC contrastctrl
        FUNCTION contrastctrl,021203H
        ARGFRAME XSTACK, 0, STACK
        LOCFRAME XSTACK, 9, STACK
        
          CFI Names cfiNames0
          CFI StackFrame CFA_SP SP IDATA
          CFI StackFrame CFA_PSP16 PSP16 XDATA
          CFI StackFrame CFA_XSP16 XSP16 XDATA
          CFI StaticOverlayFrame CFA_IOVERLAY IOVERLAY
          CFI StaticOverlayFrame CFA_DOVERLAY DOVERLAY
          CFI Resource `PSW.CY`:1, `B.BR0`:1, `B.BR1`:1, `B.BR2`:1, `B.BR3`:1
          CFI Resource `B.BR4`:1, `B.BR5`:1, `B.BR6`:1, `B.BR7`:1, `VB.BR8`:1
          CFI Resource `VB.BR9`:1, `VB.BR10`:1, `VB.BR11`:1, `VB.BR12`:1
          CFI Resource `VB.BR13`:1, `VB.BR14`:1, `VB.BR15`:1, VB:8, B:8, A:8
          CFI Resource PSW:8, DPL0:8, DPH0:8, R0:8, R1:8, R2:8, R3:8, R4:8, R5:8
          CFI Resource R6:8, R7:8, V0:8, V1:8, V2:8, V3:8, V4:8, V5:8, V6:8, V7:8
          CFI Resource V8:8, V9:8, V10:8, V11:8, V12:8, V13:8, V14:8, V15:8, SP:8
          CFI Resource PSPH:8, PSPL:8, PSP16:16, XSPH:8, XSPL:8, XSP16:16
          CFI VirtualResource ?RET:24
          CFI Resource ?BRET_EXT:8
          CFI VirtualResource ?RET_HIGH:8, ?RET_LOW:8
          CFI ResourceParts PSP16 PSPH, PSPL
          CFI ResourceParts XSP16 XSPH, XSPL
          CFI ResourceParts ?RET ?BRET_EXT, ?RET_HIGH, ?RET_LOW
          CFI EndNames cfiNames0
        
          CFI Common cfiCommon0 Using cfiNames0
          CFI CodeAlign 1
          CFI DataAlign -1
          CFI ReturnAddress ?RET CODE
          CFI CFA_DOVERLAY Used
          CFI CFA_IOVERLAY Used
          CFI CFA_SP SP+-3
          CFI CFA_PSP16 PSP16+0
          CFI CFA_XSP16 XSP16+0
          CFI `PSW.CY` SameValue
          CFI `B.BR0` SameValue
          CFI `B.BR1` SameValue
          CFI `B.BR2` SameValue
          CFI `B.BR3` SameValue
          CFI `B.BR4` SameValue
          CFI `B.BR5` SameValue
          CFI `B.BR6` SameValue
          CFI `B.BR7` SameValue
          CFI `VB.BR8` SameValue
          CFI `VB.BR9` SameValue
          CFI `VB.BR10` SameValue
          CFI `VB.BR11` SameValue
          CFI `VB.BR12` SameValue
          CFI `VB.BR13` SameValue
          CFI `VB.BR14` SameValue
          CFI `VB.BR15` SameValue
          CFI VB SameValue
          CFI B Undefined
          CFI A Undefined
          CFI PSW SameValue
          CFI DPL0 SameValue
          CFI DPH0 SameValue
          CFI R0 Undefined
          CFI R1 Undefined
          CFI R2 Undefined
          CFI R3 Undefined
          CFI R4 Undefined
          CFI R5 Undefined
          CFI R6 SameValue
          CFI R7 SameValue
          CFI V0 SameValue
          CFI V1 SameValue
          CFI V2 SameValue
          CFI V3 SameValue
          CFI V4 SameValue
          CFI V5 SameValue
          CFI V6 SameValue
          CFI V7 SameValue
          CFI V8 SameValue
          CFI V9 SameValue
          CFI V10 SameValue
          CFI V11 SameValue
          CFI V12 SameValue
          CFI V13 SameValue
          CFI V14 SameValue
          CFI V15 SameValue
          CFI PSPH Undefined
          CFI PSPL Undefined
          CFI XSPH Undefined
          CFI XSPL Undefined
          CFI ?RET Concat
          CFI ?BRET_EXT Frame(CFA_SP, 3)
          CFI ?RET_HIGH Frame(CFA_SP, 2)
          CFI ?RET_LOW Frame(CFA_SP, 1)
          CFI EndCommon cfiCommon0
        
        
          CFI Common cfiCommon1 Using cfiNames0
          CFI CodeAlign 1
          CFI DataAlign -1
          CFI ReturnAddress ?RET CODE
          CFI CFA_DOVERLAY Used
          CFI CFA_IOVERLAY Used
          CFI CFA_SP SP+-2
          CFI CFA_PSP16 PSP16+0
          CFI CFA_XSP16 XSP16+0
          CFI `PSW.CY` SameValue
          CFI `B.BR0` SameValue
          CFI `B.BR1` SameValue
          CFI `B.BR2` SameValue
          CFI `B.BR3` SameValue
          CFI `B.BR4` SameValue
          CFI `B.BR5` SameValue
          CFI `B.BR6` SameValue
          CFI `B.BR7` SameValue
          CFI `VB.BR8` SameValue
          CFI `VB.BR9` SameValue
          CFI `VB.BR10` SameValue
          CFI `VB.BR11` SameValue
          CFI `VB.BR12` SameValue
          CFI `VB.BR13` SameValue
          CFI `VB.BR14` SameValue
          CFI `VB.BR15` SameValue
          CFI VB SameValue
          CFI B SameValue
          CFI A SameValue
          CFI PSW SameValue
          CFI DPL0 SameValue
          CFI DPH0 SameValue
          CFI R0 SameValue
          CFI R1 SameValue
          CFI R2 SameValue
          CFI R3 SameValue
          CFI R4 SameValue
          CFI R5 SameValue
          CFI R6 SameValue
          CFI R7 SameValue
          CFI V0 SameValue
          CFI V1 SameValue
          CFI V2 SameValue
          CFI V3 SameValue
          CFI V4 SameValue
          CFI V5 SameValue
          CFI V6 SameValue
          CFI V7 SameValue
          CFI V8 SameValue
          CFI V9 SameValue
          CFI V10 SameValue
          CFI V11 SameValue
          CFI V12 SameValue
          CFI V13 SameValue
          CFI V14 SameValue
          CFI V15 SameValue
          CFI PSPH Undefined
          CFI PSPL Undefined
          CFI XSPH Undefined
          CFI XSPL Undefined
          CFI ?RET Concat
          CFI ?BRET_EXT SameValue
          CFI ?RET_HIGH Frame(CFA_SP, 2)
          CFI ?RET_LOW Frame(CFA_SP, 1)
          CFI EndCommon cfiCommon1
        
ClearRow16          SYMBOL "ClearRow16"
??ClearRow16?relay  SYMBOL "?relay", ClearRow16
ClearScreen         SYMBOL "ClearScreen"
??ClearScreen?relay SYMBOL "?relay", ClearScreen
HalLcdDisplayPercentBar SYMBOL "HalLcdDisplayPercentBar"
??HalLcdDisplayPercentBar?relay SYMBOL "?relay", HalLcdDisplayPercentBar
HalLcdInit          SYMBOL "HalLcdInit"
??HalLcdInit?relay  SYMBOL "?relay", HalLcdInit
HalLcdWriteScreen   SYMBOL "HalLcdWriteScreen"
??HalLcdWriteScreen?relay SYMBOL "?relay", HalLcdWriteScreen
HalLcdWriteString   SYMBOL "HalLcdWriteString"
??HalLcdWriteString?relay SYMBOL "?relay", HalLcdWriteString
HalLcdWriteStringValue SYMBOL "HalLcdWriteStringValue"
??HalLcdWriteStringValue?relay SYMBOL "?relay", HalLcdWriteStringValue
HalLcdWriteStringValueValue SYMBOL "HalLcdWriteStringValueValue"
??HalLcdWriteStringValueValue?relay SYMBOL "?relay", HalLcdWriteStringValueValue
HalLcdWriteValue    SYMBOL "HalLcdWriteValue"
??HalLcdWriteValue?relay SYMBOL "?relay", HalLcdWriteValue
InitDisplay         SYMBOL "InitDisplay"
??InitDisplay?relay SYMBOL "?relay", InitDisplay
LcdPowerOFF         SYMBOL "LcdPowerOFF"
??LcdPowerOFF?relay SYMBOL "?relay", LcdPowerOFF
LcdPowerON          SYMBOL "LcdPowerON"
??LcdPowerON?relay  SYMBOL "?relay", LcdPowerON
LoadICO             SYMBOL "LoadICO"
??LoadICO?relay     SYMBOL "?relay", LoadICO
Print16             SYMBOL "Print16"
??Print16?relay     SYMBOL "?relay", Print16
Print16_8           SYMBOL "Print16_8"
??Print16_8?relay   SYMBOL "?relay", Print16_8
Print32_16          SYMBOL "Print32_16"
??Print32_16?relay  SYMBOL "?relay", Print32_16
Print6              SYMBOL "Print6"
??Print6?relay      SYMBOL "?relay", Print6
Print               SYMBOL "Print"
??Print?relay       SYMBOL "?relay", Print
PrintBatteryCapacity SYMBOL "PrintBatteryCapacity"
??PrintBatteryCapacity?relay SYMBOL "?relay", PrintBatteryCapacity
PrintCh16_8         SYMBOL "PrintCh16_8"
??PrintCh16_8?relay SYMBOL "?relay", PrintCh16_8
PrintCh32_16        SYMBOL "PrintCh32_16"
??PrintCh32_16?relay SYMBOL "?relay", PrintCh32_16
PrintWirelessQuality SYMBOL "PrintWirelessQuality"
??PrintWirelessQuality?relay SYMBOL "?relay", PrintWirelessQuality
Printn8             SYMBOL "Printn8"
??Printn8?relay     SYMBOL "?relay", Printn8
Printn              SYMBOL "Printn"
??Printn?relay      SYMBOL "?relay", Printn
Rectangle           SYMBOL "Rectangle"
??Rectangle?relay   SYMBOL "?relay", Rectangle
SetContrast         SYMBOL "SetContrast"
??SetContrast?relay SYMBOL "?relay", SetContrast
SetRamAddr          SYMBOL "SetRamAddr"
??SetRamAddr?relay  SYMBOL "?relay", SetRamAddr
Wait100Ns           SYMBOL "Wait100Ns"
??Wait100Ns?relay   SYMBOL "?relay", Wait100Ns
WaitUs              SYMBOL "WaitUs"
??WaitUs?relay      SYMBOL "?relay", WaitUs
WriteLCD            SYMBOL "WriteLCD"
??WriteLCD?relay    SYMBOL "?relay", WriteLCD
WriteLCDbyte        SYMBOL "WriteLCDbyte"
??WriteLCDbyte?relay SYMBOL "?relay", WriteLCDbyte
contrastctrl        SYMBOL "contrastctrl"
??contrastctrl?relay SYMBOL "?relay", contrastctrl

        EXTERN Font16X8
        EXTERN Font32X16
        EXTERN FontNew16X16
        EXTERN FontNew8X16_Index
        EXTERN FontSystem6x8
        EXTERN ICO
        EXTERN Pwr
        EXTERN Sig

// D:\Texas Instruments\Z-Stack Lighting 1.0.2\Components\hal\target\CC2530PMP4712\hal_oled.c
//    1 #include "hal_font.h"
//    2 #include "hal_oled.h"

        ASEGN SFR_AN:DATA:NOROOT,090H
// union <unnamed> volatile __sfr _A_P1
_A_P1:
        DATA8
        DS 1

        ASEGN SFR_AN:DATA:NOROOT,0fdH
// unsigned char volatile __sfr P0DIR
P0DIR:
        DATA8
        DS 1

        ASEGN SFR_AN:DATA:NOROOT,0feH
// unsigned char volatile __sfr P1DIR
P1DIR:
        DATA8
        DS 1
//    3 #include "osal.h"
//    4 
//    5 /****************************************************
//    6 * B) Command Table per device *
//    7 ****************************************************/
//    8 #define 	ColAddrLo 	0x00
//    9 #define 	ColAddrHi 	0x10
//   10 #define 	SetAddrMode 	0x20
//   11 #define 	SetColAddr 	0x21
//   12 #define 	SetPagAddr 	0x22
//   13 #define 	DisplayStart 	0x40
//   14 #define 	ContCtrlReg 	0x81//
//   15 #define 	ChgPump 	0x8D//
//   16 #define 	SegRemapOff 	0xA0//
//   17 #define 	SegRemapOn 	0xA1//
//   18 #define 	ExitEntireD 	0xA4//
//   19 #define 	EntEntireD 	0xA5//
//   20 #define 	NormalDisp 	0xA6//
//   21 #define 	ReverseDisp 	0xA7//
//   22 #define 	CmdMuxRatio 	0xA8//
//   23 #define 	DisplayOff 	0xAE//
//   24 #define 	DisplayOn 	0xAF//
//   25 #define 	PageAddr 	0xB0//
//   26 #define 	ComRemapOff 	0xC0//-
//   27 #define 	ComRemapOn 	0xC8//-
//   28 #define 	DispOffset 	0xD3//-
//   29 #define 	SetOscFrq 	0xD5
//   30 #define 	PreChgPeriod 	0xD9
//   31 #define 	ComPin  	0xDA
//   32 #define 	VComH   	0xDB
//   33 #define 	LcdNOP  	0xE3
//   34 
//   35 #define 	Device SSD1306 			/* device under demo */
//   36 #define 	ColNo 		132 		/* number of Column/Seg on LCD glass*/
//   37 #define 	RowNo 		64		/* number of Row/Com/Mux */
//   38 #define 	PS 		1 		/* fixed to Parallel mode */
//   39 #define 	PageNo 		10 		/* Total no of RAM pages */
//   40 #define 	IconPage 	10 		/* Icon Page number */
//   41 #define 	All0 		6 		/* 3 for all 0, 4 for all 1 */
//   42 #define 	All1 		4
//   43 #define 	iIntRegValue 	1 		/*Internal Regulator Resistor Ratio Value */
//   44 #define 	iContCtrlRegValue 16 		/* Contrast Control Register Value */
//   45 #define 	iIntRegValuea 	20 		/*Internal Regulator Resistor Ratio Value */
//   46 #define 	iContCtrlRegValuea 16 		/* Contrast Control Register Value */
//   47 #define 	iIntRegValueb 	1 		/*Internal Regulator Resistor Ratio Value */
//   48 #define 	iContCtrlRegValueb 16 		/* Contrast Control Register Value */
//   49 #define 	MSGNo 		16
//   50 #define 	MSGLength 	22
//   51 #define 	SSLNameNo 	4
//   52 #define 	DevicePg 	0 		//RAM page for showing device name
//   53 #define 	FeaturePg 	1 		//RAM page for showing feature
//   54 #define 	GRAPHICNo 	13
//   55 #define 	xlogo 		38
//   56 #define 	ylogo 		5
//   57 #define 	xsolomon 	91
//   58 #define 	ysolomon 	2
//   59 #define 	xsystech 	81
//   60 #define 	ysystech 	2
//   61 #define 	xlimited 	70
//   62 #define 	ylimited 	2
//   63 #define 	xcc 		16
//   64 #define 	ycc 		2
//   65 #define 	xpageq 		128
//   66 #define 	ypageq 		4
//   67 #define 	horizonal 	0
//   68 #define 	d_time 		60
//   69 ////////////////////////////////////////////////////////////////////////////////////////////
//   70 

        RSEG XDATA_I:XDATA:NOROOT(0)
//   71 static float f_vcc_full   = 3.6;
f_vcc_full:
        DATA32
        DS 4
        REQUIRE `?<Initializer for f_vcc_full>`
        REQUIRE __INIT_XDATA_I

        RSEG XDATA_I:XDATA:NOROOT(0)
//   72 static float f_vcc_afull  = 3.2;
f_vcc_afull:
        DATA32
        DS 4
        REQUIRE `?<Initializer for f_vcc_afull>`
        REQUIRE __INIT_XDATA_I

        RSEG XDATA_I:XDATA:NOROOT(0)
//   73 static float f_vcc_midd   = 2.8;
f_vcc_midd:
        DATA32
        DS 4
        REQUIRE `?<Initializer for f_vcc_midd>`
        REQUIRE __INIT_XDATA_I

        RSEG XDATA_I:XDATA:NOROOT(0)
//   74 static float f_vcc_aempty = 2.5;
f_vcc_aempty:
        DATA32
        DS 4
        REQUIRE `?<Initializer for f_vcc_aempty>`
        REQUIRE __INIT_XDATA_I
//   75 
//   76 void WaitUs(uint16 microSecs);
//   77 void Wait100Ns(uint16 microSecs);
//   78 void Print16_8(unsigned short y,unsigned short x, unsigned char ch[],unsigned short yn);
//   79 void PrintCh32_16(unsigned short y,unsigned short x, unsigned char ch,unsigned short yn);
//   80 void Print32_16(unsigned short y,unsigned short x, unsigned char ch[],unsigned short yn);
//   81 void WriteLCDbyte(unsigned char dat);
//   82 void WriteLCD(unsigned char fs, unsigned char da);
//   83 void SetRamAddr(unsigned char x ,unsigned char y);
//   84 void Rectangle(unsigned char x1,unsigned char y1,unsigned char x2,unsigned char y2);
//   85 void WriteLCD(unsigned char fs, unsigned char da);
//   86 //void Printico(unsigned char xx, unsigned char yy, unsigned char ico[], unsigned char ww, unsigned char ll);	
//   87 void PrintWirelessQuality(unsigned char x);
//   88 void PrintBatteryCapacity(float x);		
//   89 void LcdPowerON(void);
//   90 void LcdPowerOFF(void);
//   91 

        RSEG XDATA_I:XDATA:NOROOT(0)
//   92 unsigned char ContrastValue = 0xff;  //对比度
ContrastValue:
        DATA8
        DS 1
        REQUIRE `?<Initializer for ContrastValue>`
        REQUIRE __INIT_XDATA_I
//   93 
//   94 /**************************************************************************************************
//   95 * @fn      WaitUs
//   96 *
//   97 * @brief   wait for x us. @ 32MHz MCU clock it takes 32 "nop"s for 1 us delay.
//   98 *
//   99 * @param   x us. range[0-65536]
//  100 *
//  101 * @return  None
//  102 **************************************************************************************************/

        RSEG BANKED_CODE:CODE:NOROOT(0)
//  103 void WaitUs(uint16 microSecs)
WaitUs:
          CFI Block cfiBlock0 Using cfiCommon0
          CFI Function WaitUs
        CODE
//  104 {
        ; Saved register size: 0
        ; Auto size: 0
        SJMP    ??WaitUs_0
//  105   while(microSecs--)
//  106   {
//  107     /* 32 NOPs == 1 usecs */
//  108     asm("nop"); asm("nop"); asm("nop"); asm("nop"); asm("nop");
??WaitUs_1:
        nop
        nop
        nop
        nop
        nop
//  109     asm("nop"); asm("nop"); asm("nop"); asm("nop"); asm("nop");
        nop
        nop
        nop
        nop
        nop
//  110     asm("nop"); asm("nop"); asm("nop"); asm("nop"); asm("nop");
        nop
        nop
        nop
        nop
        nop
//  111     asm("nop"); asm("nop"); asm("nop"); asm("nop"); asm("nop");
        nop
        nop
        nop
        nop
        nop
//  112     asm("nop"); asm("nop"); asm("nop"); asm("nop"); asm("nop");
        nop
        nop
        nop
        nop
        nop
//  113     asm("nop"); asm("nop"); asm("nop"); asm("nop"); asm("nop");
        nop
        nop
        nop
        nop
        nop
//  114     asm("nop"); asm("nop");
        nop
        nop
//  115   }
??WaitUs_0:
        LCALL   ?Subroutine11 & 0xFFFF
??CrossCallReturnLabel_9:
        JNZ     ??WaitUs_1
//  116 }
        LJMP    ?BRET
          CFI EndBlock cfiBlock0
//  117 
//  118 /**************************************************************************************************
//  119 * @fn      WaitUs
//  120 *
//  121 * @brief   wait for x us. @ 32MHz MCU clock it takes 32 "nop"s for 1 us delay.
//  122 *
//  123 * @param   x us. range[0-65536]
//  124 *
//  125 * @return  None
//  126 **************************************************************************************************/

        RSEG BANKED_CODE:CODE:NOROOT(0)
//  127 void Wait100Ns(uint16 microSecs)
Wait100Ns:
          CFI Block cfiBlock1 Using cfiCommon0
          CFI Function Wait100Ns
        CODE
//  128 {
        ; Saved register size: 0
        ; Auto size: 0
        SJMP    ??Wait100Ns_0
//  129   while(microSecs--)
//  130   {
//  131     /* 32 NOPs == 1 usecs */
//  132     asm("nop");asm("nop");asm("nop");
??Wait100Ns_1:
        nop
        nop
        nop
//  133   }
??Wait100Ns_0:
        LCALL   ?Subroutine11 & 0xFFFF
??CrossCallReturnLabel_10:
        JNZ     ??Wait100Ns_1
//  134 }
        LJMP    ?BRET
          CFI EndBlock cfiBlock1

        RSEG BANKED_CODE:CODE:NOROOT(0)
?Subroutine11:
          CFI Block cfiCond2 Using cfiCommon0
          CFI Function WaitUs
          CFI Conditional ??CrossCallReturnLabel_9
          CFI Block cfiCond3 Using cfiCommon0
          CFI (cfiCond3) Function Wait100Ns
          CFI (cfiCond3) Conditional ??CrossCallReturnLabel_10
          CFI Block cfiPicker4 Using cfiCommon1
          CFI (cfiPicker4) NoFunction
          CFI (cfiPicker4) Picker
        MOV     A,R2
        MOV     R0,A
        MOV     A,R3
        MOV     R1,A
        MOV     A,R0
        ADD     A,#-0x1
        DEC     R2
        MOV     A,R1
        ADDC    A,#-0x1
        MOV     R3,A
        MOV     A,R0
        ORL     A,R1
        RET
          CFI EndBlock cfiCond2
          CFI EndBlock cfiCond3
          CFI EndBlock cfiPicker4
//  135 
//  136 //******************************************************************************
//  137 //函数名：void WriteLCDbyte(unsigned char dat)
//  138 //输入：数据
//  139 //输出：无
//  140 //功能描述：LCD写数据，一次写入8位
//  141 //******************************************************************************

        RSEG BANKED_CODE:CODE:NOROOT(0)
//  142 void WriteLCDbyte(unsigned char dat)
WriteLCDbyte:
          CFI Block cfiBlock5 Using cfiCommon0
          CFI Function WriteLCDbyte
        CODE
//  143 {
        ; Saved register size: 0
        ; Auto size: 0
//  144   
//  145   unsigned char ii;		
//  146   
//  147   for(ii = 0 ; ii < 8; ii++)
        MOV     R0,#0x8
//  148   {
//  149     LCD_SCLK = 0;
??WriteLCDbyte_0:
        CLR     0x90.5
//  150     if(dat & 0x80) 	
        MOV     A,R1
        MOV     C,0xE0 /* A   */.7
        JNC     ??WriteLCDbyte_1
//  151       LCD_SDIN = 1;
        SETB    0x90.6
        SJMP    ??WriteLCDbyte_2
//  152     else		
//  153       LCD_SDIN = 0;
??WriteLCDbyte_1:
        CLR     0x90.6
//  154     dat <<= 1;
??WriteLCDbyte_2:
        CLR     C
        RLC     A
        MOV     R1,A
//  155     LCD_SCLK = 1;	
        SETB    0x90.5
//  156   }
        DEC     R0
        MOV     A,R0
        JNZ     ??WriteLCDbyte_0
//  157 }
        LJMP    ?BRET
          CFI EndBlock cfiBlock5
        REQUIRE _A_P1
//  158 
//  159 //*****************************************************************************
//  160 //*****************************************************************************
//  161 //函数名：WriteLCD(unsigned char fs, unsigned char da)
//  162 //功能描述：fs：0为命令，1为数据   da：待写数据
//  163 //*****************************************************************************

        RSEG BANKED_CODE:CODE:NOROOT(0)
//  164 void WriteLCD(unsigned char fs, unsigned char da)
WriteLCD:
          CFI Block cfiBlock6 Using cfiCommon0
          CFI Function WriteLCD
        CODE
//  165 {
        ; Saved register size: 0
        ; Auto size: 0
//  166   unsigned char ii;	
//  167   LCD_CS = 0;
        CLR     0x90.2
//  168   LCD_SCLK = 0;
        CLR     0x90.5
//  169   if(fs)
        MOV     A,R1
        JZ      ??WriteLCD_0
//  170     LCD_SDIN = 1;	
        SETB    0x90.6
        SJMP    ??WriteLCD_1
//  171   else
//  172     LCD_SDIN = 0;
??WriteLCD_0:
        CLR     0x90.6
//  173   LCD_SCLK = 1;	
??WriteLCD_1:
        SETB    0x90.5
//  174   
//  175   for(ii = 0 ; ii < 8; ii++)
        MOV     R0,#0x8
//  176   {
//  177     LCD_SCLK = 0;
??WriteLCD_2:
        CLR     0x90.5
//  178     if(da & 0x80) 	
        MOV     A,R2
        MOV     C,0xE0 /* A   */.7
        JNC     ??WriteLCD_3
//  179       LCD_SDIN = 1;
        SETB    0x90.6
        SJMP    ??WriteLCD_4
//  180     else		
//  181       LCD_SDIN = 0;
??WriteLCD_3:
        CLR     0x90.6
//  182     da <<= 1;
??WriteLCD_4:
        CLR     C
        RLC     A
        MOV     R2,A
//  183     LCD_SCLK = 1;	
        SETB    0x90.5
//  184   }
        DEC     R0
        MOV     A,R0
        JNZ     ??WriteLCD_2
//  185   
//  186   LCD_CS = 1;
        SETB    0x90.2
//  187 }
        LJMP    ?BRET
          CFI EndBlock cfiBlock6
        REQUIRE _A_P1
//  188 
//  189 

        RSEG BANKED_CODE:CODE:NOROOT(0)
//  190 void SetRamAddr(unsigned char x ,unsigned char y)
SetRamAddr:
          CFI Block cfiBlock7 Using cfiCommon0
          CFI Function SetRamAddr
        CODE
//  191 {
        FUNCALL SetRamAddr, WriteLCD
        LOCFRAME ISTACK, 0, STACK
        LOCFRAME PSTACK, 0, STACK
        LOCFRAME XSTACK, 9, STACK
        LOCFRAME IOVERLAY, 0, STATIC
        LOCFRAME DOVERLAY, 0, STATIC
        ARGFRAME ISTACK, 0, STACK
        ARGFRAME PSTACK, 0, STACK
        ARGFRAME XSTACK, 9, STACK
        ARGFRAME IOVERLAY, 0, STATIC
        ARGFRAME DOVERLAY, 0, STATIC
        FUNCALL SetRamAddr, WriteLCD
        LOCFRAME ISTACK, 0, STACK
        LOCFRAME PSTACK, 0, STACK
        LOCFRAME XSTACK, 9, STACK
        LOCFRAME IOVERLAY, 0, STATIC
        LOCFRAME DOVERLAY, 0, STATIC
        ARGFRAME ISTACK, 0, STACK
        ARGFRAME PSTACK, 0, STACK
        ARGFRAME XSTACK, 9, STACK
        ARGFRAME IOVERLAY, 0, STATIC
        ARGFRAME DOVERLAY, 0, STATIC
        FUNCALL SetRamAddr, WriteLCD
        LOCFRAME ISTACK, 0, STACK
        LOCFRAME PSTACK, 0, STACK
        LOCFRAME XSTACK, 9, STACK
        LOCFRAME IOVERLAY, 0, STATIC
        LOCFRAME DOVERLAY, 0, STATIC
        ARGFRAME ISTACK, 0, STACK
        ARGFRAME PSTACK, 0, STACK
        ARGFRAME XSTACK, 9, STACK
        ARGFRAME IOVERLAY, 0, STATIC
        ARGFRAME DOVERLAY, 0, STATIC
        MOV     A,#-0x9
        LCALL   ?BANKED_ENTER_XDATA
          CFI DPH0 load(1, XDATA, add(CFA_XSP16, literal(-1)))
          CFI DPL0 load(1, XDATA, add(CFA_XSP16, literal(-2)))
          CFI ?BRET_EXT load(1, XDATA, add(CFA_XSP16, literal(-3)))
          CFI ?RET_HIGH load(1, XDATA, add(CFA_XSP16, literal(-4)))
          CFI ?RET_LOW load(1, XDATA, add(CFA_XSP16, literal(-5)))
          CFI R7 load(1, XDATA, add(CFA_XSP16, literal(-6)))
          CFI V0 load(1, XDATA, add(CFA_XSP16, literal(-7)))
          CFI VB load(1, XDATA, add(CFA_XSP16, literal(-8)))
          CFI R6 load(1, XDATA, add(CFA_XSP16, literal(-9)))
          CFI CFA_SP SP+0
          CFI CFA_XSP16 add(XSP16, 9)
        ; Saved register size: 9
        ; Auto size: 0
        MOV     A,R1
        MOV     R6,A
        MOV     A,R2
        MOV     R7,A
//  192   unsigned char temp;
//  193   
//  194   temp = 0x0f & x;
//  195   WriteLCD(COMMAND , PageAddr|temp);
        ; Setup parameters for call to function WriteLCD
        MOV     A,#0xf
        ANL     A,R6
        ORL     A,#0xb0
        MOV     R2,A
        MOV     R1,#0x0
        LCALL   ??WriteLCD?relay
//  196   
//  197   temp = 0x0f & (y >> 4);
//  198   WriteLCD(COMMAND , ColAddrHi|temp);
        ; Setup parameters for call to function WriteLCD
        MOV     A,R7
        SWAP    A
        ANL     A,#0xf
        ORL     A,#0x10
        MOV     R2,A
        MOV     R1,#0x0
        LCALL   ??WriteLCD?relay
//  199   temp = 0x0f & y;
//  200   WriteLCD(COMMAND , ColAddrLo|temp);
        ; Setup parameters for call to function WriteLCD
        MOV     A,#0xf
        ANL     A,R7
        LJMP    ?Subroutine1 & 0xFFFF
          CFI EndBlock cfiBlock7
//  201 }
//  202 
//  203 /*******************************************************************************
//  204 //函数名：void SetContrast(unsigned char Gain, unsigned char Step)
//  205 //功能：lcd对比度设定
//  206 //输入：Gain,灰度 Step，对比度
//  207 //输出：无
//  208 ********************************************************************************/

        RSEG BANKED_CODE:CODE:NOROOT(0)
//  209 void SetContrast(unsigned char Step)
SetContrast:
          CFI Block cfiBlock8 Using cfiCommon0
          CFI Function SetContrast
        CODE
//  210 {
        FUNCALL SetContrast, WriteLCD
        LOCFRAME ISTACK, 0, STACK
        LOCFRAME PSTACK, 0, STACK
        LOCFRAME XSTACK, 9, STACK
        LOCFRAME IOVERLAY, 0, STATIC
        LOCFRAME DOVERLAY, 0, STATIC
        ARGFRAME ISTACK, 0, STACK
        ARGFRAME PSTACK, 0, STACK
        ARGFRAME XSTACK, 9, STACK
        ARGFRAME IOVERLAY, 0, STATIC
        ARGFRAME DOVERLAY, 0, STATIC
        FUNCALL SetContrast, WriteLCD
        LOCFRAME ISTACK, 0, STACK
        LOCFRAME PSTACK, 0, STACK
        LOCFRAME XSTACK, 9, STACK
        LOCFRAME IOVERLAY, 0, STATIC
        LOCFRAME DOVERLAY, 0, STATIC
        ARGFRAME ISTACK, 0, STACK
        ARGFRAME PSTACK, 0, STACK
        ARGFRAME XSTACK, 9, STACK
        ARGFRAME IOVERLAY, 0, STATIC
        ARGFRAME DOVERLAY, 0, STATIC
        MOV     A,#-0x9
        LCALL   ?BANKED_ENTER_XDATA
          CFI DPH0 load(1, XDATA, add(CFA_XSP16, literal(-1)))
          CFI DPL0 load(1, XDATA, add(CFA_XSP16, literal(-2)))
          CFI ?BRET_EXT load(1, XDATA, add(CFA_XSP16, literal(-3)))
          CFI ?RET_HIGH load(1, XDATA, add(CFA_XSP16, literal(-4)))
          CFI ?RET_LOW load(1, XDATA, add(CFA_XSP16, literal(-5)))
          CFI R7 load(1, XDATA, add(CFA_XSP16, literal(-6)))
          CFI V0 load(1, XDATA, add(CFA_XSP16, literal(-7)))
          CFI VB load(1, XDATA, add(CFA_XSP16, literal(-8)))
          CFI R6 load(1, XDATA, add(CFA_XSP16, literal(-9)))
          CFI CFA_SP SP+0
          CFI CFA_XSP16 add(XSP16, 9)
        ; Saved register size: 9
        ; Auto size: 0
        MOV     A,R1
        MOV     R6,A
//  211   WriteLCD(COMMAND , ContCtrlReg);//--set contrast control register
        ; Setup parameters for call to function WriteLCD
        MOV     R2,#-0x7f
        MOV     R1,#0x0
        LCALL   ??WriteLCD?relay
//  212   WriteLCD(COMMAND , Step);
        ; Setup parameters for call to function WriteLCD
        MOV     A,R6
        LJMP    ?Subroutine1 & 0xFFFF
          CFI EndBlock cfiBlock8
//  213 }
//  214 
//  215 /*******************************************************************************
//  216 //函数名：void InitDisplay(void)
//  217 //功能：lcd设定为正常显示状态
//  218 //输入：无
//  219 //输出：无
//  220 ********************************************************************************/

        RSEG BANKED_CODE:CODE:NOROOT(0)
//  221 void InitDisplay(void)
InitDisplay:
          CFI Block cfiBlock9 Using cfiCommon0
          CFI Function InitDisplay
        CODE
//  222 {
        FUNCALL InitDisplay, WaitUs
        LOCFRAME ISTACK, 2, STACK
        LOCFRAME PSTACK, 0, STACK
        LOCFRAME XSTACK, 0, STACK
        LOCFRAME IOVERLAY, 0, STATIC
        LOCFRAME DOVERLAY, 0, STATIC
        ARGFRAME ISTACK, 2, STACK
        ARGFRAME PSTACK, 0, STACK
        ARGFRAME XSTACK, 0, STACK
        ARGFRAME IOVERLAY, 0, STATIC
        ARGFRAME DOVERLAY, 0, STATIC
        FUNCALL InitDisplay, WriteLCD
        LOCFRAME ISTACK, 2, STACK
        LOCFRAME PSTACK, 0, STACK
        LOCFRAME XSTACK, 0, STACK
        LOCFRAME IOVERLAY, 0, STATIC
        LOCFRAME DOVERLAY, 0, STATIC
        ARGFRAME ISTACK, 2, STACK
        ARGFRAME PSTACK, 0, STACK
        ARGFRAME XSTACK, 0, STACK
        ARGFRAME IOVERLAY, 0, STATIC
        ARGFRAME DOVERLAY, 0, STATIC
        FUNCALL InitDisplay, WriteLCD
        LOCFRAME ISTACK, 2, STACK
        LOCFRAME PSTACK, 0, STACK
        LOCFRAME XSTACK, 0, STACK
        LOCFRAME IOVERLAY, 0, STATIC
        LOCFRAME DOVERLAY, 0, STATIC
        ARGFRAME ISTACK, 2, STACK
        ARGFRAME PSTACK, 0, STACK
        ARGFRAME XSTACK, 0, STACK
        ARGFRAME IOVERLAY, 0, STATIC
        ARGFRAME DOVERLAY, 0, STATIC
        FUNCALL InitDisplay, WriteLCD
        LOCFRAME ISTACK, 2, STACK
        LOCFRAME PSTACK, 0, STACK
        LOCFRAME XSTACK, 0, STACK
        LOCFRAME IOVERLAY, 0, STATIC
        LOCFRAME DOVERLAY, 0, STATIC
        ARGFRAME ISTACK, 2, STACK
        ARGFRAME PSTACK, 0, STACK
        ARGFRAME XSTACK, 0, STACK
        ARGFRAME IOVERLAY, 0, STATIC
        ARGFRAME DOVERLAY, 0, STATIC
        FUNCALL InitDisplay, WriteLCD
        LOCFRAME ISTACK, 2, STACK
        LOCFRAME PSTACK, 0, STACK
        LOCFRAME XSTACK, 0, STACK
        LOCFRAME IOVERLAY, 0, STATIC
        LOCFRAME DOVERLAY, 0, STATIC
        ARGFRAME ISTACK, 2, STACK
        ARGFRAME PSTACK, 0, STACK
        ARGFRAME XSTACK, 0, STACK
        ARGFRAME IOVERLAY, 0, STATIC
        ARGFRAME DOVERLAY, 0, STATIC
        FUNCALL InitDisplay, WriteLCD
        LOCFRAME ISTACK, 2, STACK
        LOCFRAME PSTACK, 0, STACK
        LOCFRAME XSTACK, 0, STACK
        LOCFRAME IOVERLAY, 0, STATIC
        LOCFRAME DOVERLAY, 0, STATIC
        ARGFRAME ISTACK, 2, STACK
        ARGFRAME PSTACK, 0, STACK
        ARGFRAME XSTACK, 0, STACK
        ARGFRAME IOVERLAY, 0, STATIC
        ARGFRAME DOVERLAY, 0, STATIC
        FUNCALL InitDisplay, WriteLCD
        LOCFRAME ISTACK, 2, STACK
        LOCFRAME PSTACK, 0, STACK
        LOCFRAME XSTACK, 0, STACK
        LOCFRAME IOVERLAY, 0, STATIC
        LOCFRAME DOVERLAY, 0, STATIC
        ARGFRAME ISTACK, 2, STACK
        ARGFRAME PSTACK, 0, STACK
        ARGFRAME XSTACK, 0, STACK
        ARGFRAME IOVERLAY, 0, STATIC
        ARGFRAME DOVERLAY, 0, STATIC
        FUNCALL InitDisplay, WriteLCD
        LOCFRAME ISTACK, 2, STACK
        LOCFRAME PSTACK, 0, STACK
        LOCFRAME XSTACK, 0, STACK
        LOCFRAME IOVERLAY, 0, STATIC
        LOCFRAME DOVERLAY, 0, STATIC
        ARGFRAME ISTACK, 2, STACK
        ARGFRAME PSTACK, 0, STACK
        ARGFRAME XSTACK, 0, STACK
        ARGFRAME IOVERLAY, 0, STATIC
        ARGFRAME DOVERLAY, 0, STATIC
        FUNCALL InitDisplay, WriteLCD
        LOCFRAME ISTACK, 2, STACK
        LOCFRAME PSTACK, 0, STACK
        LOCFRAME XSTACK, 0, STACK
        LOCFRAME IOVERLAY, 0, STATIC
        LOCFRAME DOVERLAY, 0, STATIC
        ARGFRAME ISTACK, 2, STACK
        ARGFRAME PSTACK, 0, STACK
        ARGFRAME XSTACK, 0, STACK
        ARGFRAME IOVERLAY, 0, STATIC
        ARGFRAME DOVERLAY, 0, STATIC
        FUNCALL InitDisplay, WriteLCD
        LOCFRAME ISTACK, 2, STACK
        LOCFRAME PSTACK, 0, STACK
        LOCFRAME XSTACK, 0, STACK
        LOCFRAME IOVERLAY, 0, STATIC
        LOCFRAME DOVERLAY, 0, STATIC
        ARGFRAME ISTACK, 2, STACK
        ARGFRAME PSTACK, 0, STACK
        ARGFRAME XSTACK, 0, STACK
        ARGFRAME IOVERLAY, 0, STATIC
        ARGFRAME DOVERLAY, 0, STATIC
        FUNCALL InitDisplay, WriteLCD
        LOCFRAME ISTACK, 2, STACK
        LOCFRAME PSTACK, 0, STACK
        LOCFRAME XSTACK, 0, STACK
        LOCFRAME IOVERLAY, 0, STATIC
        LOCFRAME DOVERLAY, 0, STATIC
        ARGFRAME ISTACK, 2, STACK
        ARGFRAME PSTACK, 0, STACK
        ARGFRAME XSTACK, 0, STACK
        ARGFRAME IOVERLAY, 0, STATIC
        ARGFRAME DOVERLAY, 0, STATIC
        FUNCALL InitDisplay, WriteLCD
        LOCFRAME ISTACK, 2, STACK
        LOCFRAME PSTACK, 0, STACK
        LOCFRAME XSTACK, 0, STACK
        LOCFRAME IOVERLAY, 0, STATIC
        LOCFRAME DOVERLAY, 0, STATIC
        ARGFRAME ISTACK, 2, STACK
        ARGFRAME PSTACK, 0, STACK
        ARGFRAME XSTACK, 0, STACK
        ARGFRAME IOVERLAY, 0, STATIC
        ARGFRAME DOVERLAY, 0, STATIC
        FUNCALL InitDisplay, WriteLCD
        LOCFRAME ISTACK, 2, STACK
        LOCFRAME PSTACK, 0, STACK
        LOCFRAME XSTACK, 0, STACK
        LOCFRAME IOVERLAY, 0, STATIC
        LOCFRAME DOVERLAY, 0, STATIC
        ARGFRAME ISTACK, 2, STACK
        ARGFRAME PSTACK, 0, STACK
        ARGFRAME XSTACK, 0, STACK
        ARGFRAME IOVERLAY, 0, STATIC
        ARGFRAME DOVERLAY, 0, STATIC
        FUNCALL InitDisplay, WriteLCD
        LOCFRAME ISTACK, 2, STACK
        LOCFRAME PSTACK, 0, STACK
        LOCFRAME XSTACK, 0, STACK
        LOCFRAME IOVERLAY, 0, STATIC
        LOCFRAME DOVERLAY, 0, STATIC
        ARGFRAME ISTACK, 2, STACK
        ARGFRAME PSTACK, 0, STACK
        ARGFRAME XSTACK, 0, STACK
        ARGFRAME IOVERLAY, 0, STATIC
        ARGFRAME DOVERLAY, 0, STATIC
        FUNCALL InitDisplay, WriteLCD
        LOCFRAME ISTACK, 2, STACK
        LOCFRAME PSTACK, 0, STACK
        LOCFRAME XSTACK, 0, STACK
        LOCFRAME IOVERLAY, 0, STATIC
        LOCFRAME DOVERLAY, 0, STATIC
        ARGFRAME ISTACK, 2, STACK
        ARGFRAME PSTACK, 0, STACK
        ARGFRAME XSTACK, 0, STACK
        ARGFRAME IOVERLAY, 0, STATIC
        ARGFRAME DOVERLAY, 0, STATIC
        FUNCALL InitDisplay, WriteLCD
        LOCFRAME ISTACK, 2, STACK
        LOCFRAME PSTACK, 0, STACK
        LOCFRAME XSTACK, 0, STACK
        LOCFRAME IOVERLAY, 0, STATIC
        LOCFRAME DOVERLAY, 0, STATIC
        ARGFRAME ISTACK, 2, STACK
        ARGFRAME PSTACK, 0, STACK
        ARGFRAME XSTACK, 0, STACK
        ARGFRAME IOVERLAY, 0, STATIC
        ARGFRAME DOVERLAY, 0, STATIC
        FUNCALL InitDisplay, WriteLCD
        LOCFRAME ISTACK, 2, STACK
        LOCFRAME PSTACK, 0, STACK
        LOCFRAME XSTACK, 0, STACK
        LOCFRAME IOVERLAY, 0, STATIC
        LOCFRAME DOVERLAY, 0, STATIC
        ARGFRAME ISTACK, 2, STACK
        ARGFRAME PSTACK, 0, STACK
        ARGFRAME XSTACK, 0, STACK
        ARGFRAME IOVERLAY, 0, STATIC
        ARGFRAME DOVERLAY, 0, STATIC
        FUNCALL InitDisplay, WriteLCD
        LOCFRAME ISTACK, 2, STACK
        LOCFRAME PSTACK, 0, STACK
        LOCFRAME XSTACK, 0, STACK
        LOCFRAME IOVERLAY, 0, STATIC
        LOCFRAME DOVERLAY, 0, STATIC
        ARGFRAME ISTACK, 2, STACK
        ARGFRAME PSTACK, 0, STACK
        ARGFRAME XSTACK, 0, STACK
        ARGFRAME IOVERLAY, 0, STATIC
        ARGFRAME DOVERLAY, 0, STATIC
        FUNCALL InitDisplay, WriteLCD
        LOCFRAME ISTACK, 2, STACK
        LOCFRAME PSTACK, 0, STACK
        LOCFRAME XSTACK, 0, STACK
        LOCFRAME IOVERLAY, 0, STATIC
        LOCFRAME DOVERLAY, 0, STATIC
        ARGFRAME ISTACK, 2, STACK
        ARGFRAME PSTACK, 0, STACK
        ARGFRAME XSTACK, 0, STACK
        ARGFRAME IOVERLAY, 0, STATIC
        ARGFRAME DOVERLAY, 0, STATIC
        FUNCALL InitDisplay, WriteLCD
        LOCFRAME ISTACK, 2, STACK
        LOCFRAME PSTACK, 0, STACK
        LOCFRAME XSTACK, 0, STACK
        LOCFRAME IOVERLAY, 0, STATIC
        LOCFRAME DOVERLAY, 0, STATIC
        ARGFRAME ISTACK, 2, STACK
        ARGFRAME PSTACK, 0, STACK
        ARGFRAME XSTACK, 0, STACK
        ARGFRAME IOVERLAY, 0, STATIC
        ARGFRAME DOVERLAY, 0, STATIC
        FUNCALL InitDisplay, WriteLCD
        LOCFRAME ISTACK, 2, STACK
        LOCFRAME PSTACK, 0, STACK
        LOCFRAME XSTACK, 0, STACK
        LOCFRAME IOVERLAY, 0, STATIC
        LOCFRAME DOVERLAY, 0, STATIC
        ARGFRAME ISTACK, 2, STACK
        ARGFRAME PSTACK, 0, STACK
        ARGFRAME XSTACK, 0, STACK
        ARGFRAME IOVERLAY, 0, STATIC
        ARGFRAME DOVERLAY, 0, STATIC
        FUNCALL InitDisplay, WriteLCD
        LOCFRAME ISTACK, 2, STACK
        LOCFRAME PSTACK, 0, STACK
        LOCFRAME XSTACK, 0, STACK
        LOCFRAME IOVERLAY, 0, STATIC
        LOCFRAME DOVERLAY, 0, STATIC
        ARGFRAME ISTACK, 2, STACK
        ARGFRAME PSTACK, 0, STACK
        ARGFRAME XSTACK, 0, STACK
        ARGFRAME IOVERLAY, 0, STATIC
        ARGFRAME DOVERLAY, 0, STATIC
        FUNCALL InitDisplay, WriteLCD
        LOCFRAME ISTACK, 2, STACK
        LOCFRAME PSTACK, 0, STACK
        LOCFRAME XSTACK, 0, STACK
        LOCFRAME IOVERLAY, 0, STATIC
        LOCFRAME DOVERLAY, 0, STATIC
        ARGFRAME ISTACK, 2, STACK
        ARGFRAME PSTACK, 0, STACK
        ARGFRAME XSTACK, 0, STACK
        ARGFRAME IOVERLAY, 0, STATIC
        ARGFRAME DOVERLAY, 0, STATIC
        FUNCALL InitDisplay, WriteLCD
        LOCFRAME ISTACK, 2, STACK
        LOCFRAME PSTACK, 0, STACK
        LOCFRAME XSTACK, 0, STACK
        LOCFRAME IOVERLAY, 0, STATIC
        LOCFRAME DOVERLAY, 0, STATIC
        ARGFRAME ISTACK, 2, STACK
        ARGFRAME PSTACK, 0, STACK
        ARGFRAME XSTACK, 0, STACK
        ARGFRAME IOVERLAY, 0, STATIC
        ARGFRAME DOVERLAY, 0, STATIC
        FUNCALL InitDisplay, WriteLCD
        LOCFRAME ISTACK, 2, STACK
        LOCFRAME PSTACK, 0, STACK
        LOCFRAME XSTACK, 0, STACK
        LOCFRAME IOVERLAY, 0, STATIC
        LOCFRAME DOVERLAY, 0, STATIC
        ARGFRAME ISTACK, 2, STACK
        ARGFRAME PSTACK, 0, STACK
        ARGFRAME XSTACK, 0, STACK
        ARGFRAME IOVERLAY, 0, STATIC
        ARGFRAME DOVERLAY, 0, STATIC
        PUSH    DPL
          CFI DPL0 Frame(CFA_SP, 4)
          CFI CFA_SP SP+-4
        PUSH    DPH
          CFI DPH0 Frame(CFA_SP, 5)
          CFI CFA_SP SP+-5
        ; Saved register size: 2
        ; Auto size: 0
//  223 //  P0DIR |= 0x25;
//  224 //  P1DIR |= 0x0C;
//  225   P0DIR |= 0x00;
        MOV     0xfd,0xfd
//  226   P1DIR |= 0xE4;
        ORL     0xfe,#0xe4
//  227   LCD_RST = 0;
        CLR     0x90.7
//  228   WaitUs(10000);
        ; Setup parameters for call to function WaitUs
        MOV     R2,#0x10
        MOV     R3,#0x27
        LCALL   ??WaitUs?relay
//  229   LCD_RST = 1;
        SETB    0x90.7
//  230 //  LCD_DC =1;
//  231   WriteLCD(COMMAND , DisplayOff);//--turn off oled panel
        ; Setup parameters for call to function WriteLCD
        MOV     R2,#-0x52
        MOV     R1,#0x0
        LCALL   ??WriteLCD?relay
//  232   WriteLCD(COMMAND , ColAddrLo);//---set low column address
        ; Setup parameters for call to function WriteLCD
        MOV     R2,#0x0
        MOV     R1,#0x0
        LCALL   ??WriteLCD?relay
//  233   WriteLCD(COMMAND , ColAddrHi);//---set high column address
        ; Setup parameters for call to function WriteLCD
        MOV     R2,#0x10
        MOV     R1,#0x0
        LCALL   ??WriteLCD?relay
//  234   WriteLCD(COMMAND , DisplayStart);//--set start line address
        ; Setup parameters for call to function WriteLCD
        MOV     R2,#0x40
        MOV     R1,#0x0
        LCALL   ??WriteLCD?relay
//  235   WriteLCD(COMMAND , ContCtrlReg);//--set contrast control register
        ; Setup parameters for call to function WriteLCD
        MOV     R2,#-0x7f
        MOV     R1,#0x0
        LCALL   ??WriteLCD?relay
//  236   WriteLCD(COMMAND , ContrastValue);
        ; Setup parameters for call to function WriteLCD
        MOV     DPTR,#ContrastValue
        MOVX    A,@DPTR
        MOV     R2,A
        MOV     R1,#0x0
        LCALL   ??WriteLCD?relay
//  237   WriteLCD(COMMAND , SegRemapOn);//--set segment re-map 95 to 0
        ; Setup parameters for call to function WriteLCD
        MOV     R2,#-0x5f
        MOV     R1,#0x0
        LCALL   ??WriteLCD?relay
//  238   WriteLCD(COMMAND , NormalDisp);//--set normal display
        ; Setup parameters for call to function WriteLCD
        MOV     R2,#-0x5a
        MOV     R1,#0x0
        LCALL   ??WriteLCD?relay
//  239   WriteLCD(COMMAND , ComRemapOn);//--set remap on
        ; Setup parameters for call to function WriteLCD
        MOV     R2,#-0x38
        MOV     R1,#0x0
        LCALL   ??WriteLCD?relay
//  240   WriteLCD(COMMAND , CmdMuxRatio);//--set multiplex ratio(1 to 64)
        ; Setup parameters for call to function WriteLCD
        MOV     R2,#-0x58
        MOV     R1,#0x0
        LCALL   ??WriteLCD?relay
//  241   WriteLCD(COMMAND , 0x3f);//--1/64 duty
        ; Setup parameters for call to function WriteLCD
        MOV     R2,#0x3f
        MOV     R1,#0x0
        LCALL   ??WriteLCD?relay
//  242   WriteLCD(COMMAND , DispOffset);//-set display offset
        ; Setup parameters for call to function WriteLCD
        MOV     R2,#-0x2d
        MOV     R1,#0x0
        LCALL   ??WriteLCD?relay
//  243   WriteLCD(COMMAND , 0x00);//-not offset
        ; Setup parameters for call to function WriteLCD
        MOV     R2,#0x0
        MOV     R1,#0x0
        LCALL   ??WriteLCD?relay
//  244   WriteLCD(COMMAND , SetOscFrq);//--set display clock divide ratio/oscillator frequency
        ; Setup parameters for call to function WriteLCD
        MOV     R2,#-0x2b
        MOV     R1,#0x0
        LCALL   ??WriteLCD?relay
//  245   WriteLCD(COMMAND , 0xF0);//--set divide ratio
        ; Setup parameters for call to function WriteLCD
        MOV     R2,#-0x10
        MOV     R1,#0x0
        LCALL   ??WriteLCD?relay
//  246   WriteLCD(COMMAND , PreChgPeriod);//--set pre-charge period
        ; Setup parameters for call to function WriteLCD
        MOV     R2,#-0x27
        MOV     R1,#0x0
        LCALL   ??WriteLCD?relay
//  247   WriteLCD(COMMAND , 0xf1);
        ; Setup parameters for call to function WriteLCD
        MOV     R2,#-0xf
        MOV     R1,#0x0
        LCALL   ??WriteLCD?relay
//  248   WriteLCD(COMMAND , ComPin);//--set com pins hardware configuration
        ; Setup parameters for call to function WriteLCD
        MOV     R2,#-0x26
        MOV     R1,#0x0
        LCALL   ??WriteLCD?relay
//  249   WriteLCD(COMMAND , 0x12);
        ; Setup parameters for call to function WriteLCD
        MOV     R2,#0x12
        MOV     R1,#0x0
        LCALL   ??WriteLCD?relay
//  250   WriteLCD(COMMAND , VComH);//--set vcomh
        ; Setup parameters for call to function WriteLCD
        MOV     R2,#-0x25
        MOV     R1,#0x0
        LCALL   ??WriteLCD?relay
//  251   WriteLCD(COMMAND , 0x40);
        ; Setup parameters for call to function WriteLCD
        MOV     R2,#0x40
        MOV     R1,#0x0
        LCALL   ??WriteLCD?relay
//  252   WriteLCD(COMMAND , ChgPump);//--set Charge Pump enable/disable
        ; Setup parameters for call to function WriteLCD
        MOV     R2,#-0x73
        MOV     R1,#0x0
        LCALL   ??WriteLCD?relay
//  253   WriteLCD(COMMAND , 0x14);//--set(0x10) disable
        ; Setup parameters for call to function WriteLCD
        MOV     R2,#0x14
        MOV     R1,#0x0
        LCALL   ??WriteLCD?relay
          CFI EndBlock cfiBlock9
//  254   WriteLCD(COMMAND , DisplayOn);//--turn on oled panel
        ; Setup parameters for call to function WriteLCD
        REQUIRE ?Subroutine0
        REQUIRE P0DIR
        REQUIRE P1DIR
        REQUIRE _A_P1
        ; // Fall through to label ?Subroutine0
//  255 }

        RSEG BANKED_CODE:CODE:NOROOT(0)
?Subroutine0:
          CFI Block cfiBlock10 Using cfiCommon0
          CFI NoFunction
          CFI CFA_SP SP+-5
          CFI DPL0 Frame(CFA_SP, 4)
          CFI DPH0 Frame(CFA_SP, 5)
        MOV     R2,#-0x51
          CFI EndBlock cfiBlock10
        REQUIRE ??Subroutine20_0
        ; // Fall through to label ??Subroutine20_0

        RSEG BANKED_CODE:CODE:NOROOT(0)
??Subroutine20_0:
          CFI Block cfiBlock11 Using cfiCommon0
          CFI NoFunction
          CFI CFA_SP SP+-5
          CFI DPL0 Frame(CFA_SP, 4)
          CFI DPH0 Frame(CFA_SP, 5)
        MOV     R1,#0x0
        LCALL   ??WriteLCD?relay
        POP     DPH
          CFI CFA_SP SP+-4
          CFI DPH0 SameValue
        POP     DPL
          CFI CFA_SP SP+-3
          CFI DPL0 SameValue
        LJMP    ?BRET
          CFI EndBlock cfiBlock11
//  256 
//  257 
//  258 /*******************************************************************************
//  259 //函数名：void contrastctrl(unsigned char start,stop)
//  260 //功能：lcd对比度调整
//  261 //输入：无
//  262 //输出：无
//  263 ********************************************************************************/

        RSEG BANKED_CODE:CODE:NOROOT(0)
//  264 void contrastctrl(unsigned char start, unsigned char stop)
contrastctrl:
          CFI Block cfiBlock12 Using cfiCommon0
          CFI Function contrastctrl
        CODE
//  265 {
        FUNCALL contrastctrl, SetContrast
        LOCFRAME ISTACK, 0, STACK
        LOCFRAME PSTACK, 0, STACK
        LOCFRAME XSTACK, 9, STACK
        LOCFRAME IOVERLAY, 0, STATIC
        LOCFRAME DOVERLAY, 0, STATIC
        ARGFRAME ISTACK, 0, STACK
        ARGFRAME PSTACK, 0, STACK
        ARGFRAME XSTACK, 9, STACK
        ARGFRAME IOVERLAY, 0, STATIC
        ARGFRAME DOVERLAY, 0, STATIC
        FUNCALL contrastctrl, WaitUs
        LOCFRAME ISTACK, 0, STACK
        LOCFRAME PSTACK, 0, STACK
        LOCFRAME XSTACK, 9, STACK
        LOCFRAME IOVERLAY, 0, STATIC
        LOCFRAME DOVERLAY, 0, STATIC
        ARGFRAME ISTACK, 0, STACK
        ARGFRAME PSTACK, 0, STACK
        ARGFRAME XSTACK, 9, STACK
        ARGFRAME IOVERLAY, 0, STATIC
        ARGFRAME DOVERLAY, 0, STATIC
        FUNCALL contrastctrl, SetContrast
        LOCFRAME ISTACK, 0, STACK
        LOCFRAME PSTACK, 0, STACK
        LOCFRAME XSTACK, 9, STACK
        LOCFRAME IOVERLAY, 0, STATIC
        LOCFRAME DOVERLAY, 0, STATIC
        ARGFRAME ISTACK, 0, STACK
        ARGFRAME PSTACK, 0, STACK
        ARGFRAME XSTACK, 9, STACK
        ARGFRAME IOVERLAY, 0, STATIC
        ARGFRAME DOVERLAY, 0, STATIC
        FUNCALL contrastctrl, WaitUs
        LOCFRAME ISTACK, 0, STACK
        LOCFRAME PSTACK, 0, STACK
        LOCFRAME XSTACK, 9, STACK
        LOCFRAME IOVERLAY, 0, STATIC
        LOCFRAME DOVERLAY, 0, STATIC
        ARGFRAME ISTACK, 0, STACK
        ARGFRAME PSTACK, 0, STACK
        ARGFRAME XSTACK, 9, STACK
        ARGFRAME IOVERLAY, 0, STATIC
        ARGFRAME DOVERLAY, 0, STATIC
        MOV     A,#-0x9
        LCALL   ?BANKED_ENTER_XDATA
          CFI DPH0 load(1, XDATA, add(CFA_XSP16, literal(-1)))
          CFI DPL0 load(1, XDATA, add(CFA_XSP16, literal(-2)))
          CFI ?BRET_EXT load(1, XDATA, add(CFA_XSP16, literal(-3)))
          CFI ?RET_HIGH load(1, XDATA, add(CFA_XSP16, literal(-4)))
          CFI ?RET_LOW load(1, XDATA, add(CFA_XSP16, literal(-5)))
          CFI R7 load(1, XDATA, add(CFA_XSP16, literal(-6)))
          CFI V0 load(1, XDATA, add(CFA_XSP16, literal(-7)))
          CFI VB load(1, XDATA, add(CFA_XSP16, literal(-8)))
          CFI R6 load(1, XDATA, add(CFA_XSP16, literal(-9)))
          CFI CFA_SP SP+0
          CFI CFA_XSP16 add(XSP16, 9)
        ; Saved register size: 9
        ; Auto size: 0
        MOV     A,R1
        MOV     R7,A
        MOV     ?V0 + 0,R2
//  266   unsigned char i;
//  267   if (start < stop)
        CLR     C
        SUBB    A,?V0 + 0
        MOV     A,R7
        MOV     R6,A
        JNC     ??contrastctrl_0
//  268   {
//  269     for (i=start; i<stop; i+=1)
//  270     {
//  271       SetContrast(i); //slowly turn on display
??contrastctrl_1:
        ; Setup parameters for call to function SetContrast
        MOV     A,R6
        MOV     R1,A
        LCALL   ??SetContrast?relay
//  272       WaitUs(10000);
        ; Setup parameters for call to function WaitUs
        MOV     R2,#0x10
        MOV     R3,#0x27
        LCALL   ??WaitUs?relay
//  273     }
        INC     R6
        MOV     A,R6
        CLR     C
        SUBB    A,?V0 + 0
        JNC     ??contrastctrl_2
        SJMP    ??contrastctrl_1
//  274   }
//  275   else
//  276   {
//  277     for (i=start; i>stop; i-=1)
//  278     {
//  279       SetContrast(i); //slowly turn off display
??contrastctrl_3:
        ; Setup parameters for call to function SetContrast
        MOV     A,R6
        MOV     R1,A
        LCALL   ??SetContrast?relay
//  280       WaitUs(10000);
        ; Setup parameters for call to function WaitUs
        MOV     R2,#0x10
        MOV     R3,#0x27
        LCALL   ??WaitUs?relay
//  281     }
        DEC     R6
??contrastctrl_0:
        MOV     A,?V0 + 0
        CLR     C
        SUBB    A,R6
        JC      ??contrastctrl_3
//  282   }
//  283 }
??contrastctrl_2:
        SJMP    ??Subroutine21_0
          CFI EndBlock cfiBlock12

        RSEG BANKED_CODE:CODE:NOROOT(0)
?Subroutine1:
          CFI Block cfiBlock13 Using cfiCommon0
          CFI NoFunction
          CFI CFA_SP SP+0
          CFI CFA_XSP16 add(XSP16, 9)
          CFI VB load(1, XDATA, add(CFA_XSP16, literal(-8)))
          CFI DPL0 load(1, XDATA, add(CFA_XSP16, literal(-2)))
          CFI DPH0 load(1, XDATA, add(CFA_XSP16, literal(-1)))
          CFI R6 load(1, XDATA, add(CFA_XSP16, literal(-9)))
          CFI R7 load(1, XDATA, add(CFA_XSP16, literal(-6)))
          CFI V0 load(1, XDATA, add(CFA_XSP16, literal(-7)))
          CFI ?BRET_EXT load(1, XDATA, add(CFA_XSP16, literal(-3)))
          CFI ?RET_HIGH load(1, XDATA, add(CFA_XSP16, literal(-4)))
          CFI ?RET_LOW load(1, XDATA, add(CFA_XSP16, literal(-5)))
        MOV     R2,A
        MOV     R1,#0x0
        LCALL   ??WriteLCD?relay
          CFI EndBlock cfiBlock13
        REQUIRE ??Subroutine21_0
        ; // Fall through to label ??Subroutine21_0

        RSEG BANKED_CODE:CODE:NOROOT(0)
??Subroutine21_0:
          CFI Block cfiBlock14 Using cfiCommon0
          CFI NoFunction
          CFI CFA_SP SP+0
          CFI CFA_XSP16 add(XSP16, 9)
          CFI VB load(1, XDATA, add(CFA_XSP16, literal(-8)))
          CFI DPL0 load(1, XDATA, add(CFA_XSP16, literal(-2)))
          CFI DPH0 load(1, XDATA, add(CFA_XSP16, literal(-1)))
          CFI R6 load(1, XDATA, add(CFA_XSP16, literal(-9)))
          CFI R7 load(1, XDATA, add(CFA_XSP16, literal(-6)))
          CFI V0 load(1, XDATA, add(CFA_XSP16, literal(-7)))
          CFI ?BRET_EXT load(1, XDATA, add(CFA_XSP16, literal(-3)))
          CFI ?RET_HIGH load(1, XDATA, add(CFA_XSP16, literal(-4)))
          CFI ?RET_LOW load(1, XDATA, add(CFA_XSP16, literal(-5)))
        MOV     R7,#0x1
        LJMP    ?BANKED_LEAVE_XDATA
          CFI EndBlock cfiBlock14
//  284 

        RSEG BANKED_CODE:CODE:NOROOT(0)
//  285 void ClearScreen(void)
ClearScreen:
          CFI Block cfiBlock15 Using cfiCommon0
          CFI Function ClearScreen
        CODE
//  286 {
        FUNCALL ClearScreen, SetRamAddr
        LOCFRAME ISTACK, 0, STACK
        LOCFRAME PSTACK, 0, STACK
        LOCFRAME XSTACK, 9, STACK
        LOCFRAME IOVERLAY, 0, STATIC
        LOCFRAME DOVERLAY, 0, STATIC
        ARGFRAME ISTACK, 0, STACK
        ARGFRAME PSTACK, 0, STACK
        ARGFRAME XSTACK, 9, STACK
        ARGFRAME IOVERLAY, 0, STATIC
        ARGFRAME DOVERLAY, 0, STATIC
        FUNCALL ClearScreen, WriteLCD
        LOCFRAME ISTACK, 0, STACK
        LOCFRAME PSTACK, 0, STACK
        LOCFRAME XSTACK, 9, STACK
        LOCFRAME IOVERLAY, 0, STATIC
        LOCFRAME DOVERLAY, 0, STATIC
        ARGFRAME ISTACK, 0, STACK
        ARGFRAME PSTACK, 0, STACK
        ARGFRAME XSTACK, 9, STACK
        ARGFRAME IOVERLAY, 0, STATIC
        ARGFRAME DOVERLAY, 0, STATIC
        MOV     A,#-0x9
        LCALL   ?BANKED_ENTER_XDATA
          CFI DPH0 load(1, XDATA, add(CFA_XSP16, literal(-1)))
          CFI DPL0 load(1, XDATA, add(CFA_XSP16, literal(-2)))
          CFI ?BRET_EXT load(1, XDATA, add(CFA_XSP16, literal(-3)))
          CFI ?RET_HIGH load(1, XDATA, add(CFA_XSP16, literal(-4)))
          CFI ?RET_LOW load(1, XDATA, add(CFA_XSP16, literal(-5)))
          CFI R7 load(1, XDATA, add(CFA_XSP16, literal(-6)))
          CFI V0 load(1, XDATA, add(CFA_XSP16, literal(-7)))
          CFI VB load(1, XDATA, add(CFA_XSP16, literal(-8)))
          CFI R6 load(1, XDATA, add(CFA_XSP16, literal(-9)))
          CFI CFA_SP SP+0
          CFI CFA_XSP16 add(XSP16, 9)
        ; Saved register size: 9
        ; Auto size: 0
//  287   unsigned char x,y;
//  288   for(x = 0;x < 8 ;x++){
        MOV     R6,#0x0
//  289     for(y = 0 ; y < 128 ; y++){	  		
??ClearScreen_0:
        MOV     R7,#0x0
//  290       SetRamAddr(x , y);			
??ClearScreen_1:
        ; Setup parameters for call to function SetRamAddr
        MOV     A,R7
        MOV     R2,A
        MOV     A,R6
        MOV     R1,A
        LCALL   ??SetRamAddr?relay
//  291       WriteLCD(DATA , 0x00);
        ; Setup parameters for call to function WriteLCD
        MOV     R2,#0x0
        MOV     R1,#0x1
        LCALL   ??WriteLCD?relay
//  292     }		
        INC     R7
        MOV     A,R7
        CLR     C
        SUBB    A,#-0x80
        JC      ??ClearScreen_1
//  293   }
        INC     R6
        MOV     A,R6
        CLR     C
        SUBB    A,#0x8
        JC      ??ClearScreen_0
//  294 }
        SJMP    ??Subroutine21_0
          CFI EndBlock cfiBlock15
//  295 

        RSEG BANKED_CODE:CODE:NOROOT(0)
//  296 void ClearRow16(unsigned char rowbegin,unsigned char rowend)
ClearRow16:
          CFI Block cfiBlock16 Using cfiCommon0
          CFI Function ClearRow16
        CODE
//  297 {
        FUNCALL ClearRow16, SetRamAddr
        LOCFRAME ISTACK, 0, STACK
        LOCFRAME PSTACK, 0, STACK
        LOCFRAME XSTACK, 10, STACK
        LOCFRAME IOVERLAY, 0, STATIC
        LOCFRAME DOVERLAY, 0, STATIC
        ARGFRAME ISTACK, 0, STACK
        ARGFRAME PSTACK, 0, STACK
        ARGFRAME XSTACK, 10, STACK
        ARGFRAME IOVERLAY, 0, STATIC
        ARGFRAME DOVERLAY, 0, STATIC
        FUNCALL ClearRow16, WriteLCD
        LOCFRAME ISTACK, 0, STACK
        LOCFRAME PSTACK, 0, STACK
        LOCFRAME XSTACK, 10, STACK
        LOCFRAME IOVERLAY, 0, STATIC
        LOCFRAME DOVERLAY, 0, STATIC
        ARGFRAME ISTACK, 0, STACK
        ARGFRAME PSTACK, 0, STACK
        ARGFRAME XSTACK, 10, STACK
        ARGFRAME IOVERLAY, 0, STATIC
        ARGFRAME DOVERLAY, 0, STATIC
        MOV     A,#-0xa
        LCALL   ?BANKED_ENTER_XDATA
          CFI DPH0 load(1, XDATA, add(CFA_XSP16, literal(-1)))
          CFI DPL0 load(1, XDATA, add(CFA_XSP16, literal(-2)))
          CFI ?BRET_EXT load(1, XDATA, add(CFA_XSP16, literal(-3)))
          CFI ?RET_HIGH load(1, XDATA, add(CFA_XSP16, literal(-4)))
          CFI ?RET_LOW load(1, XDATA, add(CFA_XSP16, literal(-5)))
          CFI R7 load(1, XDATA, add(CFA_XSP16, literal(-6)))
          CFI V1 load(1, XDATA, add(CFA_XSP16, literal(-7)))
          CFI V0 load(1, XDATA, add(CFA_XSP16, literal(-8)))
          CFI VB load(1, XDATA, add(CFA_XSP16, literal(-9)))
          CFI R6 load(1, XDATA, add(CFA_XSP16, literal(-10)))
          CFI CFA_SP SP+0
          CFI CFA_XSP16 add(XSP16, 10)
        ; Saved register size: 10
        ; Auto size: 0
        MOV     ?V0 + 0,R1
        MOV     ?V0 + 1,R2
//  298   unsigned char x,y;
//  299   for(x = rowbegin;x <= rowend ;x++){
        MOV     R7,?V0 + 0
        SJMP    ??ClearRow16_0
//  300     for(y = 0 ; y < 128 ; y++){	  		
??ClearRow16_1:
        MOV     R6,#0x0
//  301       SetRamAddr(x , y);			
??ClearRow16_2:
        ; Setup parameters for call to function SetRamAddr
        MOV     A,R6
        MOV     R2,A
        MOV     A,R7
        MOV     R1,A
        LCALL   ??SetRamAddr?relay
//  302       WriteLCD(DATA , 0x00);
        ; Setup parameters for call to function WriteLCD
        MOV     R2,#0x0
        MOV     R1,#0x1
        LCALL   ??WriteLCD?relay
//  303     }		
        INC     R6
        MOV     A,R6
        CLR     C
        SUBB    A,#-0x80
        JC      ??ClearRow16_2
//  304   }
        INC     R7
??ClearRow16_0:
        MOV     A,?V0 + 1
        CLR     C
        SUBB    A,R7
        JNC     ??ClearRow16_1
//  305 }
        MOV     R7,#0x2
        LJMP    ?BANKED_LEAVE_XDATA
          CFI EndBlock cfiBlock16
//  306 
//  307 /*******************************************************************************
//  308 //函数名：void Print6(unsigned char xx, unsigned char yy, unsigned char ch1[], unsigned char yn)
//  309 //功能：显示6*8字符串
//  310 //输入：xx ,yy 坐标,ch1待显示的字符串,yn是否反黑
//  311 //输出：无
//  312 ********************************************************************************/

        RSEG BANKED_CODE:CODE:NOROOT(0)
//  313 void Print6(unsigned char xx, unsigned char yy, unsigned char ch1[], unsigned char yn)		
Print6:
          CFI Block cfiBlock17 Using cfiCommon0
          CFI Function Print6
        CODE
//  314 {
        FUNCALL Print6, WriteLCD
        LOCFRAME ISTACK, 0, STACK
        LOCFRAME PSTACK, 0, STACK
        LOCFRAME XSTACK, 15, STACK
        LOCFRAME IOVERLAY, 0, STATIC
        LOCFRAME DOVERLAY, 0, STATIC
        ARGFRAME ISTACK, 0, STACK
        ARGFRAME PSTACK, 0, STACK
        ARGFRAME XSTACK, 15, STACK
        ARGFRAME IOVERLAY, 0, STATIC
        ARGFRAME DOVERLAY, 0, STATIC
        FUNCALL Print6, SetRamAddr
        LOCFRAME ISTACK, 0, STACK
        LOCFRAME PSTACK, 0, STACK
        LOCFRAME XSTACK, 15, STACK
        LOCFRAME IOVERLAY, 0, STATIC
        LOCFRAME DOVERLAY, 0, STATIC
        ARGFRAME ISTACK, 0, STACK
        ARGFRAME PSTACK, 0, STACK
        ARGFRAME XSTACK, 15, STACK
        ARGFRAME IOVERLAY, 0, STATIC
        ARGFRAME DOVERLAY, 0, STATIC
        FUNCALL Print6, WriteLCD
        LOCFRAME ISTACK, 0, STACK
        LOCFRAME PSTACK, 0, STACK
        LOCFRAME XSTACK, 15, STACK
        LOCFRAME IOVERLAY, 0, STATIC
        LOCFRAME DOVERLAY, 0, STATIC
        ARGFRAME ISTACK, 0, STACK
        ARGFRAME PSTACK, 0, STACK
        ARGFRAME XSTACK, 15, STACK
        ARGFRAME IOVERLAY, 0, STATIC
        ARGFRAME DOVERLAY, 0, STATIC
        MOV     A,#-0xf
        LCALL   ?BANKED_ENTER_XDATA
          CFI DPH0 load(1, XDATA, add(CFA_XSP16, literal(-1)))
          CFI DPL0 load(1, XDATA, add(CFA_XSP16, literal(-2)))
          CFI ?BRET_EXT load(1, XDATA, add(CFA_XSP16, literal(-3)))
          CFI ?RET_HIGH load(1, XDATA, add(CFA_XSP16, literal(-4)))
          CFI ?RET_LOW load(1, XDATA, add(CFA_XSP16, literal(-5)))
          CFI R7 load(1, XDATA, add(CFA_XSP16, literal(-6)))
          CFI V6 load(1, XDATA, add(CFA_XSP16, literal(-7)))
          CFI V5 load(1, XDATA, add(CFA_XSP16, literal(-8)))
          CFI V4 load(1, XDATA, add(CFA_XSP16, literal(-9)))
          CFI V3 load(1, XDATA, add(CFA_XSP16, literal(-10)))
          CFI V2 load(1, XDATA, add(CFA_XSP16, literal(-11)))
          CFI V1 load(1, XDATA, add(CFA_XSP16, literal(-12)))
          CFI V0 load(1, XDATA, add(CFA_XSP16, literal(-13)))
          CFI VB load(1, XDATA, add(CFA_XSP16, literal(-14)))
          CFI R6 load(1, XDATA, add(CFA_XSP16, literal(-15)))
          CFI CFA_SP SP+0
          CFI CFA_XSP16 add(XSP16, 15)
        ; Saved register size: 15
        ; Auto size: 0
        MOV     ?V0 + 3,R1
        MOV     ?V0 + 2,R2
        MOV     A,R4
        MOV     R6,A
        MOV     A,R5
        MOV     R7,A
        MOV     ?V0 + 6,R3
//  315   unsigned char ii = 0;
//  316   unsigned char bb = 0;
        MOV     ?V0 + 4,#0x0
//  317   unsigned int index = 0 ;	
        SJMP    ??Print6_0
//  318   
//  319   while(ch1[bb] != '\0')
//  320   {
//  321     index = (unsigned int)(ch1[bb] - 0x20);
//  322     index = (unsigned int)index*6;		
//  323     for(ii=0;ii<6;ii++)
//  324     {
//  325       SetRamAddr(xx , yy);
//  326       if(yn == 0)
//  327       {
//  328         WriteLCD(DATA, ~FontSystem6x8[index]);
//  329         
//  330       }
//  331       else
//  332       {
//  333         WriteLCD(DATA, FontSystem6x8[index]);
??Print6_1:
        ; Setup parameters for call to function WriteLCD
        MOV     R1,#0x1
        LCALL   ??WriteLCD?relay
//  334       }		
//  335       index += 1;
        MOV     A,?V0 + 0
        ADD     A,#0x1
        MOV     ?V0 + 0,A
        MOV     A,?V0 + 1
        ADDC    A,#0x0
        MOV     ?V0 + 1,A
//  336       yy += 1;
        INC     ?V0 + 2
        DEC     ?V0 + 5
        MOV     A,?V0 + 5
        JNZ     ??Print6_2
//  337     }		
//  338     bb += 1;
        INC     ?V0 + 4
??Print6_0:
        MOV     ?V0 + 0,?V0 + 4
        MOV     A,R6
        ADD     A,?V0 + 0
        MOV     DPL,A
        MOV     A,R7
        ADDC    A,#0x0
        MOV     DPH,A
        MOVX    A,@DPTR
        JZ      ??Print6_3
        ADD     A,#-0x20
        MOV     ?V0 + 0,A
        CLR     A
        ADDC    A,#-0x1
        MOV     ?V0 + 1,A
        MOV     A,?V0 + 0
        MOV     B,#0x6
        MUL     AB
        MOV     ?V0 + 0,A
        MOV     R0,B
        MOV     B,#0x6
        MOV     A,?V0 + 1
        MUL     AB
        ADD     A,R0
        MOV     ?V0 + 1,A
        MOV     ?V0 + 5,#0x6
??Print6_2:
        ; Setup parameters for call to function SetRamAddr
        MOV     R2,?V0 + 2
        MOV     R1,?V0 + 3
        LCALL   ??SetRamAddr?relay
        MOV     A,#FontSystem6x8 & 0xff
        ADD     A,?V0 + 0
        MOV     DPL,A
        MOV     A,#(FontSystem6x8 >> 8) & 0xff
        ADDC    A,?V0 + 1
        MOV     DPH,A
        CLR     A
        MOVC    A,@A+DPTR
        MOV     R2,A
        MOV     A,?V0 + 6
        JNZ     ??Print6_1
        ; Setup parameters for call to function WriteLCD
        MOV     A,R2
        CPL     A
        MOV     R2,A
        SJMP    ??Print6_1
          CFI EndBlock cfiBlock17
//  339   }
//  340 }
??Print6_3:
        REQUIRE ?Subroutine2
        ; // Fall through to label ?Subroutine2

        RSEG BANKED_CODE:CODE:NOROOT(0)
?Subroutine2:
          CFI Block cfiBlock18 Using cfiCommon0
          CFI NoFunction
          CFI CFA_SP SP+0
          CFI CFA_XSP16 add(XSP16, 15)
          CFI VB load(1, XDATA, add(CFA_XSP16, literal(-14)))
          CFI DPL0 load(1, XDATA, add(CFA_XSP16, literal(-2)))
          CFI DPH0 load(1, XDATA, add(CFA_XSP16, literal(-1)))
          CFI R6 load(1, XDATA, add(CFA_XSP16, literal(-15)))
          CFI R7 load(1, XDATA, add(CFA_XSP16, literal(-6)))
          CFI V0 load(1, XDATA, add(CFA_XSP16, literal(-13)))
          CFI V1 load(1, XDATA, add(CFA_XSP16, literal(-12)))
          CFI V2 load(1, XDATA, add(CFA_XSP16, literal(-11)))
          CFI V3 load(1, XDATA, add(CFA_XSP16, literal(-10)))
          CFI V4 load(1, XDATA, add(CFA_XSP16, literal(-9)))
          CFI V5 load(1, XDATA, add(CFA_XSP16, literal(-8)))
          CFI V6 load(1, XDATA, add(CFA_XSP16, literal(-7)))
          CFI ?BRET_EXT load(1, XDATA, add(CFA_XSP16, literal(-3)))
          CFI ?RET_HIGH load(1, XDATA, add(CFA_XSP16, literal(-4)))
          CFI ?RET_LOW load(1, XDATA, add(CFA_XSP16, literal(-5)))
        MOV     R7,#0x7
        LJMP    ?BANKED_LEAVE_XDATA
          CFI EndBlock cfiBlock18
//  341 
//  342 
//  343 //*******************************************************************************
//  344 //函数名：void Printn8(unsigned char xx ,unsigned char yy , unsigned long no,unsigned char yn,unsigned char le)
//  345 //功能：显示8*8一个无符号数据
//  346 //输入：xx , yy屏幕当中位置,no待显示数据 yn=0正常显示 yn=1反黑显示  le有效位
//  347 //输出：无
//  348 //*******************************************************************************

        RSEG BANKED_CODE:CODE:NOROOT(0)
//  349 void Printn8(unsigned char xx ,unsigned char yy , unsigned long no,unsigned char yn,unsigned char le)
Printn8:
          CFI Block cfiBlock19 Using cfiCommon0
          CFI Function Printn8
        CODE
//  350 {
        FUNCALL Printn8, Print16_8
        LOCFRAME ISTACK, 0, STACK
        LOCFRAME PSTACK, 0, STACK
        LOCFRAME XSTACK, 32, STACK
        LOCFRAME IOVERLAY, 0, STATIC
        LOCFRAME DOVERLAY, 0, STATIC
        ARGFRAME ISTACK, 0, STACK
        ARGFRAME PSTACK, 0, STACK
        ARGFRAME XSTACK, 32, STACK
        ARGFRAME IOVERLAY, 0, STATIC
        ARGFRAME DOVERLAY, 0, STATIC
        MOV     A,#-0x16
        LCALL   ?BANKED_ENTER_XDATA
          CFI DPH0 load(1, XDATA, add(CFA_XSP16, literal(-1)))
          CFI DPL0 load(1, XDATA, add(CFA_XSP16, literal(-2)))
          CFI ?BRET_EXT load(1, XDATA, add(CFA_XSP16, literal(-3)))
          CFI ?RET_HIGH load(1, XDATA, add(CFA_XSP16, literal(-4)))
          CFI ?RET_LOW load(1, XDATA, add(CFA_XSP16, literal(-5)))
          CFI R7 load(1, XDATA, add(CFA_XSP16, literal(-6)))
          CFI V13 load(1, XDATA, add(CFA_XSP16, literal(-7)))
          CFI V12 load(1, XDATA, add(CFA_XSP16, literal(-8)))
          CFI V11 load(1, XDATA, add(CFA_XSP16, literal(-9)))
          CFI V10 load(1, XDATA, add(CFA_XSP16, literal(-10)))
          CFI V9 load(1, XDATA, add(CFA_XSP16, literal(-11)))
          CFI V8 load(1, XDATA, add(CFA_XSP16, literal(-12)))
          CFI V7 load(1, XDATA, add(CFA_XSP16, literal(-13)))
          CFI V6 load(1, XDATA, add(CFA_XSP16, literal(-14)))
          CFI V5 load(1, XDATA, add(CFA_XSP16, literal(-15)))
          CFI V4 load(1, XDATA, add(CFA_XSP16, literal(-16)))
          CFI V3 load(1, XDATA, add(CFA_XSP16, literal(-17)))
          CFI V2 load(1, XDATA, add(CFA_XSP16, literal(-18)))
          CFI V1 load(1, XDATA, add(CFA_XSP16, literal(-19)))
          CFI V0 load(1, XDATA, add(CFA_XSP16, literal(-20)))
          CFI VB load(1, XDATA, add(CFA_XSP16, literal(-21)))
          CFI R6 load(1, XDATA, add(CFA_XSP16, literal(-22)))
          CFI CFA_SP SP+0
          CFI CFA_XSP16 add(XSP16, 22)
        ; Saved register size: 22
        ; Auto size: 6
        MOV     A,#-0x6
        LCALL   ?ALLOC_XSTACK8
          CFI CFA_XSP16 add(XSP16, 28)
        MOV     ?V0 + 13,R1
        MOV     ?V0 + 12,R2
        MOV     A,R3
        MOV     R7,A
        MOV     A,R4
        MOV     R6,A
//  351   unsigned char ch2[6];
//  352   unsigned char ii;
//  353   
//  354   for(ii = 1 ; ii <= le ;){
        MOV     R4,#0x1
        MOV     DPL,R6
        MOV     R2,DPL
        MOV     A,#0x1c
        LCALL   ?XSTACK_DISP0_8
        MOV     R0,#?V0 + 0
        LCALL   ?L_MOV_X
        SJMP    ??Printn8_0
//  355     ch2[le - ii] = no % 10 + 0x30;
??Printn8_1:
        MOV     ?V0 + 4,?V0 + 0
        MOV     ?V0 + 5,?V0 + 1
        MOV     ?V0 + 6,?V0 + 2
        MOV     ?V0 + 7,?V0 + 3
        MOV     DPTR,#__Constant_a
        MOV     R0,#?V0 + 8
        LCALL   ?L_MOV_X
        MOV     R0,#?V0 + 4
        MOV     R1,#?V0 + 8
        LCALL   ?UL_DIV_MOD
        MOV     A,?V0 + 8
        ADD     A,#0x30
        PUSH    A
          CFI CFA_SP SP+-1
        LCALL   ?Subroutine14 & 0xFFFF
??CrossCallReturnLabel_15:
        POP     A
          CFI CFA_SP SP+0
        MOVX    @DPTR,A
//  356     no /= 10;
        MOV     DPTR,#__Constant_a
        MOV     R0,#?V0 + 4
        LCALL   ?L_MOV_X
        MOV     R0,#?V0 + 0
        MOV     R1,#?V0 + 4
        LCALL   ?UL_DIV_MOD
//  357     ii += 1;
        INC     R4
//  358   }
??Printn8_0:
        MOV     A,R6
        CLR     C
        SUBB    A,R4
        JNC     ??Printn8_1
//  359   ch2[le] = '\0';
        LCALL   ?Subroutine18 & 0xFFFF
//  360   Print16_8(xx ,yy ,ch2 ,yn);
??CrossCallReturnLabel_22:
        ; Setup parameters for call to function Print16_8
        MOV     ?V0 + 0,R7
        MOV     ?V0 + 1,A
        MOV     R0,#?V0 + 0
        LCALL   ?PUSH_XSTACK_I_TWO
          CFI CFA_XSP16 add(XSP16, 30)
        MOV     A,#0x2
        LCALL   ?XSTACK_DISP0_8
        MOV     ?V0 + 0,DPL
        MOV     ?V0 + 1,DPH
        MOV     R0,#?V0 + 0
        LCALL   ?PUSH_XSTACK_I_TWO
          CFI CFA_XSP16 add(XSP16, 32)
        MOV     ?V0 + 0,?V0 + 12
        MOV     R4,?V0 + 0
        MOV     R5,#0x0
        MOV     ?V0 + 0,?V0 + 13
        MOV     R2,?V0 + 0
        MOV     R3,#0x0
        LCALL   ??Print16_8?relay
        MOV     A,#0x4
        LCALL   ?DEALLOC_XSTACK8
          CFI EndBlock cfiBlock19
//  361 }
        REQUIRE ?Subroutine3
        ; // Fall through to label ?Subroutine3

        RSEG BANKED_CODE:CODE:NOROOT(0)
?Subroutine3:
          CFI Block cfiBlock20 Using cfiCommon0
          CFI NoFunction
          CFI CFA_SP SP+0
          CFI CFA_XSP16 add(XSP16, 28)
          CFI VB load(1, XDATA, add(CFA_XSP16, literal(-21)))
          CFI DPL0 load(1, XDATA, add(CFA_XSP16, literal(-2)))
          CFI DPH0 load(1, XDATA, add(CFA_XSP16, literal(-1)))
          CFI R6 load(1, XDATA, add(CFA_XSP16, literal(-22)))
          CFI R7 load(1, XDATA, add(CFA_XSP16, literal(-6)))
          CFI V0 load(1, XDATA, add(CFA_XSP16, literal(-20)))
          CFI V1 load(1, XDATA, add(CFA_XSP16, literal(-19)))
          CFI V2 load(1, XDATA, add(CFA_XSP16, literal(-18)))
          CFI V3 load(1, XDATA, add(CFA_XSP16, literal(-17)))
          CFI V4 load(1, XDATA, add(CFA_XSP16, literal(-16)))
          CFI V5 load(1, XDATA, add(CFA_XSP16, literal(-15)))
          CFI V6 load(1, XDATA, add(CFA_XSP16, literal(-14)))
          CFI V7 load(1, XDATA, add(CFA_XSP16, literal(-13)))
          CFI V8 load(1, XDATA, add(CFA_XSP16, literal(-12)))
          CFI V9 load(1, XDATA, add(CFA_XSP16, literal(-11)))
          CFI V10 load(1, XDATA, add(CFA_XSP16, literal(-10)))
          CFI V11 load(1, XDATA, add(CFA_XSP16, literal(-9)))
          CFI V12 load(1, XDATA, add(CFA_XSP16, literal(-8)))
          CFI V13 load(1, XDATA, add(CFA_XSP16, literal(-7)))
          CFI ?BRET_EXT load(1, XDATA, add(CFA_XSP16, literal(-3)))
          CFI ?RET_HIGH load(1, XDATA, add(CFA_XSP16, literal(-4)))
          CFI ?RET_LOW load(1, XDATA, add(CFA_XSP16, literal(-5)))
        MOV     A,#0x6
        LCALL   ?DEALLOC_XSTACK8
          CFI CFA_XSP16 add(XSP16, 22)
        MOV     R7,#0xe
        LJMP    ?BANKED_LEAVE_XDATA
          CFI EndBlock cfiBlock20
//  362 
//  363 /*******************************************************************************
//  364 //函数名：void Print16_8(unsigned short y,unsigned short x, unsigned char ch,unsigned short yn)
//  365 //功能：显示16*8字符
//  366 //输入：xx ,yy 坐标,ch待显示的字符,yn是否反黑
//  367 //输出：无
//  368 ********************************************************************************/

        RSEG BANKED_CODE:CODE:NOROOT(0)
//  369 void PrintCh16_8(unsigned short y,unsigned short x, unsigned char ch,unsigned short yn)
PrintCh16_8:
          CFI Block cfiBlock21 Using cfiCommon0
          CFI Function PrintCh16_8
        CODE
//  370 {
        FUNCALL PrintCh16_8, SetRamAddr
        LOCFRAME ISTACK, 0, STACK
        LOCFRAME PSTACK, 0, STACK
        LOCFRAME XSTACK, 17, STACK
        LOCFRAME IOVERLAY, 0, STATIC
        LOCFRAME DOVERLAY, 0, STATIC
        ARGFRAME ISTACK, 0, STACK
        ARGFRAME PSTACK, 0, STACK
        ARGFRAME XSTACK, 17, STACK
        ARGFRAME IOVERLAY, 0, STATIC
        ARGFRAME DOVERLAY, 0, STATIC
        FUNCALL PrintCh16_8, WriteLCD
        LOCFRAME ISTACK, 0, STACK
        LOCFRAME PSTACK, 0, STACK
        LOCFRAME XSTACK, 17, STACK
        LOCFRAME IOVERLAY, 0, STATIC
        LOCFRAME DOVERLAY, 0, STATIC
        ARGFRAME ISTACK, 0, STACK
        ARGFRAME PSTACK, 0, STACK
        ARGFRAME XSTACK, 17, STACK
        ARGFRAME IOVERLAY, 0, STATIC
        ARGFRAME DOVERLAY, 0, STATIC
        FUNCALL PrintCh16_8, WriteLCD
        LOCFRAME ISTACK, 0, STACK
        LOCFRAME PSTACK, 0, STACK
        LOCFRAME XSTACK, 17, STACK
        LOCFRAME IOVERLAY, 0, STATIC
        LOCFRAME DOVERLAY, 0, STATIC
        ARGFRAME ISTACK, 0, STACK
        ARGFRAME PSTACK, 0, STACK
        ARGFRAME XSTACK, 17, STACK
        ARGFRAME IOVERLAY, 0, STATIC
        ARGFRAME DOVERLAY, 0, STATIC
        MOV     A,#-0x11
        LCALL   ?BANKED_ENTER_XDATA
          CFI DPH0 load(1, XDATA, add(CFA_XSP16, literal(-1)))
          CFI DPL0 load(1, XDATA, add(CFA_XSP16, literal(-2)))
          CFI ?BRET_EXT load(1, XDATA, add(CFA_XSP16, literal(-3)))
          CFI ?RET_HIGH load(1, XDATA, add(CFA_XSP16, literal(-4)))
          CFI ?RET_LOW load(1, XDATA, add(CFA_XSP16, literal(-5)))
          CFI R7 load(1, XDATA, add(CFA_XSP16, literal(-6)))
          CFI V8 load(1, XDATA, add(CFA_XSP16, literal(-7)))
          CFI V7 load(1, XDATA, add(CFA_XSP16, literal(-8)))
          CFI V6 load(1, XDATA, add(CFA_XSP16, literal(-9)))
          CFI V5 load(1, XDATA, add(CFA_XSP16, literal(-10)))
          CFI V4 load(1, XDATA, add(CFA_XSP16, literal(-11)))
          CFI V3 load(1, XDATA, add(CFA_XSP16, literal(-12)))
          CFI V2 load(1, XDATA, add(CFA_XSP16, literal(-13)))
          CFI V1 load(1, XDATA, add(CFA_XSP16, literal(-14)))
          CFI V0 load(1, XDATA, add(CFA_XSP16, literal(-15)))
          CFI VB load(1, XDATA, add(CFA_XSP16, literal(-16)))
          CFI R6 load(1, XDATA, add(CFA_XSP16, literal(-17)))
          CFI CFA_SP SP+0
          CFI CFA_XSP16 add(XSP16, 17)
        ; Saved register size: 17
        ; Auto size: 0
        LCALL   ?Subroutine13 & 0xFFFF
//  371   unsigned char i,wm;
//  372   unsigned short adder;
//  373   
//  374   adder = (ch - 0x20) * 16;
??CrossCallReturnLabel_13:
        MOV     A,#0x4
        MOV     R0,#?V0 + 4
        LCALL   ?S_SHL
        MOV     ?V0 + 2,?V0 + 4
        MOV     ?V0 + 3,?V0 + 5
//  375   for(i=0;i<2;i++)
        MOV     ?V0 + 8,#0x2
        MOV     A,#0x11
        LCALL   ?XSTACK_DISP0_8
        LCALL   ?Subroutine10 & 0xFFFF
//  376   {
//  377     for(wm = 0;wm < 8;wm++)
??CrossCallReturnLabel_6:
        MOV     ?V0 + 7,#0x8
//  378     {
//  379       SetRamAddr(y , x);
??PrintCh16_8_0:
        ; Setup parameters for call to function SetRamAddr
        MOV     A,R6
        MOV     R2,A
        MOV     R1,?V0 + 0
        LCALL   ??SetRamAddr?relay
//  380       if(yn == 0)
        MOV     A,#Font16X8 & 0xff
        ADD     A,?V0 + 2
        MOV     DPL,A
        MOV     A,#(Font16X8 >> 8) & 0xff
        LCALL   ??Subroutine22_0 & 0xFFFF
??CrossCallReturnLabel_26:
        JNZ     ??PrintCh16_8_1
//  381       {
//  382         WriteLCD(DATA, ~Font16X8[adder]);
        ; Setup parameters for call to function WriteLCD
        MOV     A,R2
        CPL     A
        MOV     R2,A
//  383       }
//  384       else
//  385       {
//  386         WriteLCD(DATA, Font16X8[adder]);
??PrintCh16_8_1:
        ; Setup parameters for call to function WriteLCD
        MOV     R1,#0x1
        LCALL   ??WriteLCD?relay
//  387       }
//  388       adder += 1;
        LCALL   ?Subroutine7 & 0xFFFF
//  389       x += 1;
//  390     }
??CrossCallReturnLabel_0:
        JNZ     ??PrintCh16_8_0
//  391     y += 1;
        MOV     A,?V0 + 0
        INC     A
        MOV     ?V0 + 0,A
//  392     x -= 8;
        MOV     A,R6
        ADD     A,#-0x8
        MOV     R6,A
//  393   }
        DEC     ?V0 + 8
        MOV     A,?V0 + 8
        JNZ     ??CrossCallReturnLabel_6
          CFI EndBlock cfiBlock21
//  394 }
        REQUIRE ?Subroutine4
        ; // Fall through to label ?Subroutine4

        RSEG BANKED_CODE:CODE:NOROOT(0)
?Subroutine4:
          CFI Block cfiBlock22 Using cfiCommon0
          CFI NoFunction
          CFI CFA_SP SP+0
          CFI CFA_XSP16 add(XSP16, 17)
          CFI VB load(1, XDATA, add(CFA_XSP16, literal(-16)))
          CFI DPL0 load(1, XDATA, add(CFA_XSP16, literal(-2)))
          CFI DPH0 load(1, XDATA, add(CFA_XSP16, literal(-1)))
          CFI R6 load(1, XDATA, add(CFA_XSP16, literal(-17)))
          CFI R7 load(1, XDATA, add(CFA_XSP16, literal(-6)))
          CFI V0 load(1, XDATA, add(CFA_XSP16, literal(-15)))
          CFI V1 load(1, XDATA, add(CFA_XSP16, literal(-14)))
          CFI V2 load(1, XDATA, add(CFA_XSP16, literal(-13)))
          CFI V3 load(1, XDATA, add(CFA_XSP16, literal(-12)))
          CFI V4 load(1, XDATA, add(CFA_XSP16, literal(-11)))
          CFI V5 load(1, XDATA, add(CFA_XSP16, literal(-10)))
          CFI V6 load(1, XDATA, add(CFA_XSP16, literal(-9)))
          CFI V7 load(1, XDATA, add(CFA_XSP16, literal(-8)))
          CFI V8 load(1, XDATA, add(CFA_XSP16, literal(-7)))
          CFI ?BRET_EXT load(1, XDATA, add(CFA_XSP16, literal(-3)))
          CFI ?RET_HIGH load(1, XDATA, add(CFA_XSP16, literal(-4)))
          CFI ?RET_LOW load(1, XDATA, add(CFA_XSP16, literal(-5)))
        MOV     R7,#0x9
        LJMP    ?BANKED_LEAVE_XDATA
          CFI EndBlock cfiBlock22
//  395 
//  396 /*******************************************************************************
//  397 //函数名：void Print32_16(unsigned short y,unsigned short x, unsigned char ch,unsigned short yn)
//  398 //功能：显示32*16字符
//  399 //输入：xx ,yy 坐标,ch待显示的字符,yn是否反黑
//  400 //输出：无
//  401 ********************************************************************************/

        RSEG BANKED_CODE:CODE:NOROOT(0)
//  402 void PrintCh32_16(unsigned short y,unsigned short x, unsigned char ch,unsigned short yn)
PrintCh32_16:
          CFI Block cfiBlock23 Using cfiCommon0
          CFI Function PrintCh32_16
        CODE
//  403 {
        FUNCALL PrintCh32_16, SetRamAddr
        LOCFRAME ISTACK, 0, STACK
        LOCFRAME PSTACK, 0, STACK
        LOCFRAME XSTACK, 17, STACK
        LOCFRAME IOVERLAY, 0, STATIC
        LOCFRAME DOVERLAY, 0, STATIC
        ARGFRAME ISTACK, 0, STACK
        ARGFRAME PSTACK, 0, STACK
        ARGFRAME XSTACK, 17, STACK
        ARGFRAME IOVERLAY, 0, STATIC
        ARGFRAME DOVERLAY, 0, STATIC
        FUNCALL PrintCh32_16, WriteLCD
        LOCFRAME ISTACK, 0, STACK
        LOCFRAME PSTACK, 0, STACK
        LOCFRAME XSTACK, 17, STACK
        LOCFRAME IOVERLAY, 0, STATIC
        LOCFRAME DOVERLAY, 0, STATIC
        ARGFRAME ISTACK, 0, STACK
        ARGFRAME PSTACK, 0, STACK
        ARGFRAME XSTACK, 17, STACK
        ARGFRAME IOVERLAY, 0, STATIC
        ARGFRAME DOVERLAY, 0, STATIC
        FUNCALL PrintCh32_16, WriteLCD
        LOCFRAME ISTACK, 0, STACK
        LOCFRAME PSTACK, 0, STACK
        LOCFRAME XSTACK, 17, STACK
        LOCFRAME IOVERLAY, 0, STATIC
        LOCFRAME DOVERLAY, 0, STATIC
        ARGFRAME ISTACK, 0, STACK
        ARGFRAME PSTACK, 0, STACK
        ARGFRAME XSTACK, 17, STACK
        ARGFRAME IOVERLAY, 0, STATIC
        ARGFRAME DOVERLAY, 0, STATIC
        MOV     A,#-0x11
        LCALL   ?BANKED_ENTER_XDATA
          CFI DPH0 load(1, XDATA, add(CFA_XSP16, literal(-1)))
          CFI DPL0 load(1, XDATA, add(CFA_XSP16, literal(-2)))
          CFI ?BRET_EXT load(1, XDATA, add(CFA_XSP16, literal(-3)))
          CFI ?RET_HIGH load(1, XDATA, add(CFA_XSP16, literal(-4)))
          CFI ?RET_LOW load(1, XDATA, add(CFA_XSP16, literal(-5)))
          CFI R7 load(1, XDATA, add(CFA_XSP16, literal(-6)))
          CFI V8 load(1, XDATA, add(CFA_XSP16, literal(-7)))
          CFI V7 load(1, XDATA, add(CFA_XSP16, literal(-8)))
          CFI V6 load(1, XDATA, add(CFA_XSP16, literal(-9)))
          CFI V5 load(1, XDATA, add(CFA_XSP16, literal(-10)))
          CFI V4 load(1, XDATA, add(CFA_XSP16, literal(-11)))
          CFI V3 load(1, XDATA, add(CFA_XSP16, literal(-12)))
          CFI V2 load(1, XDATA, add(CFA_XSP16, literal(-13)))
          CFI V1 load(1, XDATA, add(CFA_XSP16, literal(-14)))
          CFI V0 load(1, XDATA, add(CFA_XSP16, literal(-15)))
          CFI VB load(1, XDATA, add(CFA_XSP16, literal(-16)))
          CFI R6 load(1, XDATA, add(CFA_XSP16, literal(-17)))
          CFI CFA_SP SP+0
          CFI CFA_XSP16 add(XSP16, 17)
        ; Saved register size: 17
        ; Auto size: 0
        LCALL   ?Subroutine13 & 0xFFFF
//  404   unsigned char i,wm;
//  405   unsigned short adder;
//  406   
//  407   adder = (ch - 0x20) * 64;
??CrossCallReturnLabel_14:
        MOV     A,#0x6
        MOV     R0,#?V0 + 4
        LCALL   ?S_SHL
        MOV     ?V0 + 2,?V0 + 4
        MOV     ?V0 + 3,?V0 + 5
//  408   for(i=0;i<4;i++)
        MOV     ?V0 + 8,#0x4
        MOV     A,#0x11
        LCALL   ?XSTACK_DISP0_8
        LCALL   ?Subroutine10 & 0xFFFF
//  409   {
//  410     for(wm = 0;wm <16;wm++)
??CrossCallReturnLabel_7:
        MOV     ?V0 + 7,#0x10
//  411     {
//  412       SetRamAddr(y , x);
??PrintCh32_16_0:
        ; Setup parameters for call to function SetRamAddr
        MOV     A,R6
        MOV     R2,A
        MOV     R1,?V0 + 0
        LCALL   ??SetRamAddr?relay
//  413       if(yn == 0)
        MOV     A,#Font32X16 & 0xff
        ADD     A,?V0 + 2
        MOV     DPL,A
        MOV     A,#(Font32X16 >> 8) & 0xff
        LCALL   ??Subroutine22_0 & 0xFFFF
??CrossCallReturnLabel_27:
        JNZ     ??PrintCh32_16_1
//  414       {
//  415         WriteLCD(DATA, ~Font32X16[adder]);
        ; Setup parameters for call to function WriteLCD
        MOV     A,R2
        CPL     A
        MOV     R2,A
//  416       }
//  417       else
//  418       {
//  419         WriteLCD(DATA, Font32X16[adder]);
??PrintCh32_16_1:
        ; Setup parameters for call to function WriteLCD
        MOV     R1,#0x1
        LCALL   ??WriteLCD?relay
//  420       }
//  421       adder += 1;
        LCALL   ?Subroutine7 & 0xFFFF
//  422       x += 1;
//  423     }
??CrossCallReturnLabel_1:
        JNZ     ??PrintCh32_16_0
//  424     y += 1;
        MOV     A,?V0 + 0
        INC     A
        MOV     ?V0 + 0,A
//  425     x -= 16;
        MOV     A,R6
        ADD     A,#-0x10
        MOV     R6,A
//  426   }
        DEC     ?V0 + 8
        MOV     A,?V0 + 8
        JNZ     ??CrossCallReturnLabel_7
//  427 }
        SJMP    ?Subroutine4
          CFI EndBlock cfiBlock23

        RSEG BANKED_CODE:CODE:NOROOT(0)
?Subroutine15:
          CFI Block cfiCond24 Using cfiCommon0
          CFI Function Print16
          CFI Conditional ??CrossCallReturnLabel_28
          CFI R6 load(1, XDATA, add(CFA_XSP16, literal(-15)))
          CFI VB load(1, XDATA, add(CFA_XSP16, literal(-14)))
          CFI V0 load(1, XDATA, add(CFA_XSP16, literal(-13)))
          CFI V1 load(1, XDATA, add(CFA_XSP16, literal(-12)))
          CFI V2 load(1, XDATA, add(CFA_XSP16, literal(-11)))
          CFI V3 load(1, XDATA, add(CFA_XSP16, literal(-10)))
          CFI V4 load(1, XDATA, add(CFA_XSP16, literal(-9)))
          CFI V5 load(1, XDATA, add(CFA_XSP16, literal(-8)))
          CFI V6 load(1, XDATA, add(CFA_XSP16, literal(-7)))
          CFI R7 load(1, XDATA, add(CFA_XSP16, literal(-6)))
          CFI ?RET_LOW load(1, XDATA, add(CFA_XSP16, literal(-5)))
          CFI ?RET_HIGH load(1, XDATA, add(CFA_XSP16, literal(-4)))
          CFI ?BRET_EXT load(1, XDATA, add(CFA_XSP16, literal(-3)))
          CFI DPL0 load(1, XDATA, add(CFA_XSP16, literal(-2)))
          CFI DPH0 load(1, XDATA, add(CFA_XSP16, literal(-1)))
          CFI CFA_SP SP+0
          CFI CFA_XSP16 add(XSP16, 15)
          CFI Block cfiCond25 Using cfiCommon0
          CFI (cfiCond25) Function Print16
          CFI (cfiCond25) Conditional ??CrossCallReturnLabel_29
          CFI (cfiCond25) R6 load(1, XDATA, add(CFA_XSP16, literal(-15)))
          CFI (cfiCond25) VB load(1, XDATA, add(CFA_XSP16, literal(-14)))
          CFI (cfiCond25) V0 load(1, XDATA, add(CFA_XSP16, literal(-13)))
          CFI (cfiCond25) V1 load(1, XDATA, add(CFA_XSP16, literal(-12)))
          CFI (cfiCond25) V2 load(1, XDATA, add(CFA_XSP16, literal(-11)))
          CFI (cfiCond25) V3 load(1, XDATA, add(CFA_XSP16, literal(-10)))
          CFI (cfiCond25) V4 load(1, XDATA, add(CFA_XSP16, literal(-9)))
          CFI (cfiCond25) V5 load(1, XDATA, add(CFA_XSP16, literal(-8)))
          CFI (cfiCond25) V6 load(1, XDATA, add(CFA_XSP16, literal(-7)))
          CFI (cfiCond25) R7 load(1, XDATA, add(CFA_XSP16, literal(-6)))
          CFI (cfiCond25) ?RET_LOW load(1, XDATA, add(CFA_XSP16, literal(-5)))
          CFI (cfiCond25) ?RET_HIGH load(1, XDATA, add(CFA_XSP16, literal(-4)))
          CFI (cfiCond25) ?BRET_EXT load(1, XDATA, add(CFA_XSP16, literal(-3)))
          CFI (cfiCond25) DPL0 load(1, XDATA, add(CFA_XSP16, literal(-2)))
          CFI (cfiCond25) DPH0 load(1, XDATA, add(CFA_XSP16, literal(-1)))
          CFI (cfiCond25) CFA_SP SP+0
          CFI (cfiCond25) CFA_XSP16 add(XSP16, 15)
          CFI Block cfiPicker26 Using cfiCommon1
          CFI (cfiPicker26) NoFunction
          CFI (cfiPicker26) Picker
        MOV     A,#FontNew16X16 & 0xff
        ADD     A,?V0 + 2
        MOV     DPL,A
        MOV     A,#(FontNew16X16 >> 8) & 0xff
          CFI EndBlock cfiCond24
          CFI EndBlock cfiCond25
          CFI EndBlock cfiPicker26
        REQUIRE ??Subroutine22_0
        ; // Fall through to label ??Subroutine22_0

        RSEG BANKED_CODE:CODE:NOROOT(0)
??Subroutine22_0:
          CFI Block cfiCond27 Using cfiCommon0
          CFI Function PrintCh16_8
          CFI Conditional ??CrossCallReturnLabel_26
          CFI R6 load(1, XDATA, add(CFA_XSP16, literal(-17)))
          CFI VB load(1, XDATA, add(CFA_XSP16, literal(-16)))
          CFI V0 load(1, XDATA, add(CFA_XSP16, literal(-15)))
          CFI V1 load(1, XDATA, add(CFA_XSP16, literal(-14)))
          CFI V2 load(1, XDATA, add(CFA_XSP16, literal(-13)))
          CFI V3 load(1, XDATA, add(CFA_XSP16, literal(-12)))
          CFI V4 load(1, XDATA, add(CFA_XSP16, literal(-11)))
          CFI V5 load(1, XDATA, add(CFA_XSP16, literal(-10)))
          CFI V6 load(1, XDATA, add(CFA_XSP16, literal(-9)))
          CFI V7 load(1, XDATA, add(CFA_XSP16, literal(-8)))
          CFI V8 load(1, XDATA, add(CFA_XSP16, literal(-7)))
          CFI R7 load(1, XDATA, add(CFA_XSP16, literal(-6)))
          CFI ?RET_LOW load(1, XDATA, add(CFA_XSP16, literal(-5)))
          CFI ?RET_HIGH load(1, XDATA, add(CFA_XSP16, literal(-4)))
          CFI ?BRET_EXT load(1, XDATA, add(CFA_XSP16, literal(-3)))
          CFI DPL0 load(1, XDATA, add(CFA_XSP16, literal(-2)))
          CFI DPH0 load(1, XDATA, add(CFA_XSP16, literal(-1)))
          CFI CFA_SP SP+0
          CFI CFA_XSP16 add(XSP16, 17)
          CFI Block cfiCond28 Using cfiCommon0
          CFI (cfiCond28) Function PrintCh32_16
          CFI (cfiCond28) Conditional ??CrossCallReturnLabel_27
          CFI (cfiCond28) R6 load(1, XDATA, add(CFA_XSP16, literal(-17)))
          CFI (cfiCond28) VB load(1, XDATA, add(CFA_XSP16, literal(-16)))
          CFI (cfiCond28) V0 load(1, XDATA, add(CFA_XSP16, literal(-15)))
          CFI (cfiCond28) V1 load(1, XDATA, add(CFA_XSP16, literal(-14)))
          CFI (cfiCond28) V2 load(1, XDATA, add(CFA_XSP16, literal(-13)))
          CFI (cfiCond28) V3 load(1, XDATA, add(CFA_XSP16, literal(-12)))
          CFI (cfiCond28) V4 load(1, XDATA, add(CFA_XSP16, literal(-11)))
          CFI (cfiCond28) V5 load(1, XDATA, add(CFA_XSP16, literal(-10)))
          CFI (cfiCond28) V6 load(1, XDATA, add(CFA_XSP16, literal(-9)))
          CFI (cfiCond28) V7 load(1, XDATA, add(CFA_XSP16, literal(-8)))
          CFI (cfiCond28) V8 load(1, XDATA, add(CFA_XSP16, literal(-7)))
          CFI (cfiCond28) R7 load(1, XDATA, add(CFA_XSP16, literal(-6)))
          CFI (cfiCond28) ?RET_LOW load(1, XDATA, add(CFA_XSP16, literal(-5)))
          CFI (cfiCond28) ?RET_HIGH load(1, XDATA, add(CFA_XSP16, literal(-4)))
          CFI (cfiCond28) ?BRET_EXT load(1, XDATA, add(CFA_XSP16, literal(-3)))
          CFI (cfiCond28) DPL0 load(1, XDATA, add(CFA_XSP16, literal(-2)))
          CFI (cfiCond28) DPH0 load(1, XDATA, add(CFA_XSP16, literal(-1)))
          CFI (cfiCond28) CFA_SP SP+0
          CFI (cfiCond28) CFA_XSP16 add(XSP16, 17)
          CFI Block cfiCond29 Using cfiCommon0
          CFI (cfiCond29) Function Print16
          CFI (cfiCond29) Conditional ??CrossCallReturnLabel_28
          CFI (cfiCond29) R6 load(1, XDATA, add(CFA_XSP16, literal(-15)))
          CFI (cfiCond29) VB load(1, XDATA, add(CFA_XSP16, literal(-14)))
          CFI (cfiCond29) V0 load(1, XDATA, add(CFA_XSP16, literal(-13)))
          CFI (cfiCond29) V1 load(1, XDATA, add(CFA_XSP16, literal(-12)))
          CFI (cfiCond29) V2 load(1, XDATA, add(CFA_XSP16, literal(-11)))
          CFI (cfiCond29) V3 load(1, XDATA, add(CFA_XSP16, literal(-10)))
          CFI (cfiCond29) V4 load(1, XDATA, add(CFA_XSP16, literal(-9)))
          CFI (cfiCond29) V5 load(1, XDATA, add(CFA_XSP16, literal(-8)))
          CFI (cfiCond29) V6 load(1, XDATA, add(CFA_XSP16, literal(-7)))
          CFI (cfiCond29) R7 load(1, XDATA, add(CFA_XSP16, literal(-6)))
          CFI (cfiCond29) ?RET_LOW load(1, XDATA, add(CFA_XSP16, literal(-5)))
          CFI (cfiCond29) ?RET_HIGH load(1, XDATA, add(CFA_XSP16, literal(-4)))
          CFI (cfiCond29) ?BRET_EXT load(1, XDATA, add(CFA_XSP16, literal(-3)))
          CFI (cfiCond29) DPL0 load(1, XDATA, add(CFA_XSP16, literal(-2)))
          CFI (cfiCond29) DPH0 load(1, XDATA, add(CFA_XSP16, literal(-1)))
          CFI (cfiCond29) CFA_SP SP+0
          CFI (cfiCond29) CFA_XSP16 add(XSP16, 15)
          CFI Block cfiCond30 Using cfiCommon0
          CFI (cfiCond30) Function Print16
          CFI (cfiCond30) Conditional ??CrossCallReturnLabel_29
          CFI (cfiCond30) R6 load(1, XDATA, add(CFA_XSP16, literal(-15)))
          CFI (cfiCond30) VB load(1, XDATA, add(CFA_XSP16, literal(-14)))
          CFI (cfiCond30) V0 load(1, XDATA, add(CFA_XSP16, literal(-13)))
          CFI (cfiCond30) V1 load(1, XDATA, add(CFA_XSP16, literal(-12)))
          CFI (cfiCond30) V2 load(1, XDATA, add(CFA_XSP16, literal(-11)))
          CFI (cfiCond30) V3 load(1, XDATA, add(CFA_XSP16, literal(-10)))
          CFI (cfiCond30) V4 load(1, XDATA, add(CFA_XSP16, literal(-9)))
          CFI (cfiCond30) V5 load(1, XDATA, add(CFA_XSP16, literal(-8)))
          CFI (cfiCond30) V6 load(1, XDATA, add(CFA_XSP16, literal(-7)))
          CFI (cfiCond30) R7 load(1, XDATA, add(CFA_XSP16, literal(-6)))
          CFI (cfiCond30) ?RET_LOW load(1, XDATA, add(CFA_XSP16, literal(-5)))
          CFI (cfiCond30) ?RET_HIGH load(1, XDATA, add(CFA_XSP16, literal(-4)))
          CFI (cfiCond30) ?BRET_EXT load(1, XDATA, add(CFA_XSP16, literal(-3)))
          CFI (cfiCond30) DPL0 load(1, XDATA, add(CFA_XSP16, literal(-2)))
          CFI (cfiCond30) DPH0 load(1, XDATA, add(CFA_XSP16, literal(-1)))
          CFI (cfiCond30) CFA_SP SP+0
          CFI (cfiCond30) CFA_XSP16 add(XSP16, 15)
          CFI Block cfiPicker31 Using cfiCommon1
          CFI (cfiPicker31) NoFunction
          CFI (cfiPicker31) Picker
        ADDC    A,?V0 + 3
        MOV     DPH,A
        CLR     A
        MOVC    A,@A+DPTR
        MOV     R2,A
        MOV     A,?V0 + 4
        ORL     A,?V0 + 5
        RET
          CFI EndBlock cfiCond27
          CFI EndBlock cfiCond28
          CFI EndBlock cfiCond29
          CFI EndBlock cfiCond30
          CFI EndBlock cfiPicker31

        RSEG BANKED_CODE:CODE:NOROOT(0)
?Subroutine13:
          CFI Block cfiCond32 Using cfiCommon0
          CFI Function PrintCh16_8
          CFI Conditional ??CrossCallReturnLabel_13
          CFI R6 load(1, XDATA, add(CFA_XSP16, literal(-17)))
          CFI VB load(1, XDATA, add(CFA_XSP16, literal(-16)))
          CFI V0 load(1, XDATA, add(CFA_XSP16, literal(-15)))
          CFI V1 load(1, XDATA, add(CFA_XSP16, literal(-14)))
          CFI V2 load(1, XDATA, add(CFA_XSP16, literal(-13)))
          CFI V3 load(1, XDATA, add(CFA_XSP16, literal(-12)))
          CFI V4 load(1, XDATA, add(CFA_XSP16, literal(-11)))
          CFI V5 load(1, XDATA, add(CFA_XSP16, literal(-10)))
          CFI V6 load(1, XDATA, add(CFA_XSP16, literal(-9)))
          CFI V7 load(1, XDATA, add(CFA_XSP16, literal(-8)))
          CFI V8 load(1, XDATA, add(CFA_XSP16, literal(-7)))
          CFI R7 load(1, XDATA, add(CFA_XSP16, literal(-6)))
          CFI ?RET_LOW load(1, XDATA, add(CFA_XSP16, literal(-5)))
          CFI ?RET_HIGH load(1, XDATA, add(CFA_XSP16, literal(-4)))
          CFI ?BRET_EXT load(1, XDATA, add(CFA_XSP16, literal(-3)))
          CFI DPL0 load(1, XDATA, add(CFA_XSP16, literal(-2)))
          CFI DPH0 load(1, XDATA, add(CFA_XSP16, literal(-1)))
          CFI CFA_SP SP+0
          CFI CFA_XSP16 add(XSP16, 17)
          CFI Block cfiCond33 Using cfiCommon0
          CFI (cfiCond33) Function PrintCh32_16
          CFI (cfiCond33) Conditional ??CrossCallReturnLabel_14
          CFI (cfiCond33) R6 load(1, XDATA, add(CFA_XSP16, literal(-17)))
          CFI (cfiCond33) VB load(1, XDATA, add(CFA_XSP16, literal(-16)))
          CFI (cfiCond33) V0 load(1, XDATA, add(CFA_XSP16, literal(-15)))
          CFI (cfiCond33) V1 load(1, XDATA, add(CFA_XSP16, literal(-14)))
          CFI (cfiCond33) V2 load(1, XDATA, add(CFA_XSP16, literal(-13)))
          CFI (cfiCond33) V3 load(1, XDATA, add(CFA_XSP16, literal(-12)))
          CFI (cfiCond33) V4 load(1, XDATA, add(CFA_XSP16, literal(-11)))
          CFI (cfiCond33) V5 load(1, XDATA, add(CFA_XSP16, literal(-10)))
          CFI (cfiCond33) V6 load(1, XDATA, add(CFA_XSP16, literal(-9)))
          CFI (cfiCond33) V7 load(1, XDATA, add(CFA_XSP16, literal(-8)))
          CFI (cfiCond33) V8 load(1, XDATA, add(CFA_XSP16, literal(-7)))
          CFI (cfiCond33) R7 load(1, XDATA, add(CFA_XSP16, literal(-6)))
          CFI (cfiCond33) ?RET_LOW load(1, XDATA, add(CFA_XSP16, literal(-5)))
          CFI (cfiCond33) ?RET_HIGH load(1, XDATA, add(CFA_XSP16, literal(-4)))
          CFI (cfiCond33) ?BRET_EXT load(1, XDATA, add(CFA_XSP16, literal(-3)))
          CFI (cfiCond33) DPL0 load(1, XDATA, add(CFA_XSP16, literal(-2)))
          CFI (cfiCond33) DPH0 load(1, XDATA, add(CFA_XSP16, literal(-1)))
          CFI (cfiCond33) CFA_SP SP+0
          CFI (cfiCond33) CFA_XSP16 add(XSP16, 17)
          CFI Block cfiPicker34 Using cfiCommon1
          CFI (cfiPicker34) NoFunction
          CFI (cfiPicker34) Picker
        MOV     ?V0 + 0,R2
        MOV     A,R4
        MOV     R6,A
        MOV     A,R1
        ADD     A,#-0x20
        MOV     ?V0 + 4,A
        CLR     A
        ADDC    A,#-0x1
        MOV     ?V0 + 5,A
        RET
          CFI EndBlock cfiCond32
          CFI EndBlock cfiCond33
          CFI EndBlock cfiPicker34

        RSEG BANKED_CODE:CODE:NOROOT(0)
?Subroutine10:
          CFI Block cfiCond35 Using cfiCommon0
          CFI Function PrintCh16_8
          CFI Conditional ??CrossCallReturnLabel_6
          CFI R6 load(1, XDATA, add(CFA_XSP16, literal(-17)))
          CFI VB load(1, XDATA, add(CFA_XSP16, literal(-16)))
          CFI V0 load(1, XDATA, add(CFA_XSP16, literal(-15)))
          CFI V1 load(1, XDATA, add(CFA_XSP16, literal(-14)))
          CFI V2 load(1, XDATA, add(CFA_XSP16, literal(-13)))
          CFI V3 load(1, XDATA, add(CFA_XSP16, literal(-12)))
          CFI V4 load(1, XDATA, add(CFA_XSP16, literal(-11)))
          CFI V5 load(1, XDATA, add(CFA_XSP16, literal(-10)))
          CFI V6 load(1, XDATA, add(CFA_XSP16, literal(-9)))
          CFI V7 load(1, XDATA, add(CFA_XSP16, literal(-8)))
          CFI V8 load(1, XDATA, add(CFA_XSP16, literal(-7)))
          CFI R7 load(1, XDATA, add(CFA_XSP16, literal(-6)))
          CFI ?RET_LOW load(1, XDATA, add(CFA_XSP16, literal(-5)))
          CFI ?RET_HIGH load(1, XDATA, add(CFA_XSP16, literal(-4)))
          CFI ?BRET_EXT load(1, XDATA, add(CFA_XSP16, literal(-3)))
          CFI DPL0 load(1, XDATA, add(CFA_XSP16, literal(-2)))
          CFI DPH0 load(1, XDATA, add(CFA_XSP16, literal(-1)))
          CFI CFA_SP SP+0
          CFI CFA_XSP16 add(XSP16, 17)
          CFI Block cfiCond36 Using cfiCommon0
          CFI (cfiCond36) Function PrintCh32_16
          CFI (cfiCond36) Conditional ??CrossCallReturnLabel_7
          CFI (cfiCond36) R6 load(1, XDATA, add(CFA_XSP16, literal(-17)))
          CFI (cfiCond36) VB load(1, XDATA, add(CFA_XSP16, literal(-16)))
          CFI (cfiCond36) V0 load(1, XDATA, add(CFA_XSP16, literal(-15)))
          CFI (cfiCond36) V1 load(1, XDATA, add(CFA_XSP16, literal(-14)))
          CFI (cfiCond36) V2 load(1, XDATA, add(CFA_XSP16, literal(-13)))
          CFI (cfiCond36) V3 load(1, XDATA, add(CFA_XSP16, literal(-12)))
          CFI (cfiCond36) V4 load(1, XDATA, add(CFA_XSP16, literal(-11)))
          CFI (cfiCond36) V5 load(1, XDATA, add(CFA_XSP16, literal(-10)))
          CFI (cfiCond36) V6 load(1, XDATA, add(CFA_XSP16, literal(-9)))
          CFI (cfiCond36) V7 load(1, XDATA, add(CFA_XSP16, literal(-8)))
          CFI (cfiCond36) V8 load(1, XDATA, add(CFA_XSP16, literal(-7)))
          CFI (cfiCond36) R7 load(1, XDATA, add(CFA_XSP16, literal(-6)))
          CFI (cfiCond36) ?RET_LOW load(1, XDATA, add(CFA_XSP16, literal(-5)))
          CFI (cfiCond36) ?RET_HIGH load(1, XDATA, add(CFA_XSP16, literal(-4)))
          CFI (cfiCond36) ?BRET_EXT load(1, XDATA, add(CFA_XSP16, literal(-3)))
          CFI (cfiCond36) DPL0 load(1, XDATA, add(CFA_XSP16, literal(-2)))
          CFI (cfiCond36) DPH0 load(1, XDATA, add(CFA_XSP16, literal(-1)))
          CFI (cfiCond36) CFA_SP SP+0
          CFI (cfiCond36) CFA_XSP16 add(XSP16, 17)
          CFI Block cfiCond37 Using cfiCommon0
          CFI (cfiCond37) Function Print16
          CFI (cfiCond37) Conditional ??CrossCallReturnLabel_8
          CFI (cfiCond37) R6 load(1, XDATA, add(CFA_XSP16, literal(-15)))
          CFI (cfiCond37) VB load(1, XDATA, add(CFA_XSP16, literal(-14)))
          CFI (cfiCond37) V0 load(1, XDATA, add(CFA_XSP16, literal(-13)))
          CFI (cfiCond37) V1 load(1, XDATA, add(CFA_XSP16, literal(-12)))
          CFI (cfiCond37) V2 load(1, XDATA, add(CFA_XSP16, literal(-11)))
          CFI (cfiCond37) V3 load(1, XDATA, add(CFA_XSP16, literal(-10)))
          CFI (cfiCond37) V4 load(1, XDATA, add(CFA_XSP16, literal(-9)))
          CFI (cfiCond37) V5 load(1, XDATA, add(CFA_XSP16, literal(-8)))
          CFI (cfiCond37) V6 load(1, XDATA, add(CFA_XSP16, literal(-7)))
          CFI (cfiCond37) R7 load(1, XDATA, add(CFA_XSP16, literal(-6)))
          CFI (cfiCond37) ?RET_LOW load(1, XDATA, add(CFA_XSP16, literal(-5)))
          CFI (cfiCond37) ?RET_HIGH load(1, XDATA, add(CFA_XSP16, literal(-4)))
          CFI (cfiCond37) ?BRET_EXT load(1, XDATA, add(CFA_XSP16, literal(-3)))
          CFI (cfiCond37) DPL0 load(1, XDATA, add(CFA_XSP16, literal(-2)))
          CFI (cfiCond37) DPH0 load(1, XDATA, add(CFA_XSP16, literal(-1)))
          CFI (cfiCond37) CFA_SP SP+0
          CFI (cfiCond37) CFA_XSP16 add(XSP16, 15)
          CFI Block cfiPicker38 Using cfiCommon1
          CFI (cfiPicker38) NoFunction
          CFI (cfiPicker38) Picker
        MOVX    A,@DPTR
        MOV     ?V0 + 4,A
        INC     DPTR
        MOVX    A,@DPTR
        MOV     ?V0 + 5,A
        RET
          CFI EndBlock cfiCond35
          CFI EndBlock cfiCond36
          CFI EndBlock cfiCond37
          CFI EndBlock cfiPicker38

        RSEG BANKED_CODE:CODE:NOROOT(0)
?Subroutine7:
          CFI Block cfiCond39 Using cfiCommon0
          CFI Function PrintCh16_8
          CFI Conditional ??CrossCallReturnLabel_0
          CFI R6 load(1, XDATA, add(CFA_XSP16, literal(-17)))
          CFI VB load(1, XDATA, add(CFA_XSP16, literal(-16)))
          CFI V0 load(1, XDATA, add(CFA_XSP16, literal(-15)))
          CFI V1 load(1, XDATA, add(CFA_XSP16, literal(-14)))
          CFI V2 load(1, XDATA, add(CFA_XSP16, literal(-13)))
          CFI V3 load(1, XDATA, add(CFA_XSP16, literal(-12)))
          CFI V4 load(1, XDATA, add(CFA_XSP16, literal(-11)))
          CFI V5 load(1, XDATA, add(CFA_XSP16, literal(-10)))
          CFI V6 load(1, XDATA, add(CFA_XSP16, literal(-9)))
          CFI V7 load(1, XDATA, add(CFA_XSP16, literal(-8)))
          CFI V8 load(1, XDATA, add(CFA_XSP16, literal(-7)))
          CFI R7 load(1, XDATA, add(CFA_XSP16, literal(-6)))
          CFI ?RET_LOW load(1, XDATA, add(CFA_XSP16, literal(-5)))
          CFI ?RET_HIGH load(1, XDATA, add(CFA_XSP16, literal(-4)))
          CFI ?BRET_EXT load(1, XDATA, add(CFA_XSP16, literal(-3)))
          CFI DPL0 load(1, XDATA, add(CFA_XSP16, literal(-2)))
          CFI DPH0 load(1, XDATA, add(CFA_XSP16, literal(-1)))
          CFI CFA_SP SP+0
          CFI CFA_XSP16 add(XSP16, 17)
          CFI Block cfiCond40 Using cfiCommon0
          CFI (cfiCond40) Function PrintCh32_16
          CFI (cfiCond40) Conditional ??CrossCallReturnLabel_1
          CFI (cfiCond40) R6 load(1, XDATA, add(CFA_XSP16, literal(-17)))
          CFI (cfiCond40) VB load(1, XDATA, add(CFA_XSP16, literal(-16)))
          CFI (cfiCond40) V0 load(1, XDATA, add(CFA_XSP16, literal(-15)))
          CFI (cfiCond40) V1 load(1, XDATA, add(CFA_XSP16, literal(-14)))
          CFI (cfiCond40) V2 load(1, XDATA, add(CFA_XSP16, literal(-13)))
          CFI (cfiCond40) V3 load(1, XDATA, add(CFA_XSP16, literal(-12)))
          CFI (cfiCond40) V4 load(1, XDATA, add(CFA_XSP16, literal(-11)))
          CFI (cfiCond40) V5 load(1, XDATA, add(CFA_XSP16, literal(-10)))
          CFI (cfiCond40) V6 load(1, XDATA, add(CFA_XSP16, literal(-9)))
          CFI (cfiCond40) V7 load(1, XDATA, add(CFA_XSP16, literal(-8)))
          CFI (cfiCond40) V8 load(1, XDATA, add(CFA_XSP16, literal(-7)))
          CFI (cfiCond40) R7 load(1, XDATA, add(CFA_XSP16, literal(-6)))
          CFI (cfiCond40) ?RET_LOW load(1, XDATA, add(CFA_XSP16, literal(-5)))
          CFI (cfiCond40) ?RET_HIGH load(1, XDATA, add(CFA_XSP16, literal(-4)))
          CFI (cfiCond40) ?BRET_EXT load(1, XDATA, add(CFA_XSP16, literal(-3)))
          CFI (cfiCond40) DPL0 load(1, XDATA, add(CFA_XSP16, literal(-2)))
          CFI (cfiCond40) DPH0 load(1, XDATA, add(CFA_XSP16, literal(-1)))
          CFI (cfiCond40) CFA_SP SP+0
          CFI (cfiCond40) CFA_XSP16 add(XSP16, 17)
          CFI Block cfiPicker41 Using cfiCommon1
          CFI (cfiPicker41) NoFunction
          CFI (cfiPicker41) Picker
        LCALL   ?Subroutine19 & 0xFFFF
??CrossCallReturnLabel_24:
        DEC     ?V0 + 7
        MOV     A,?V0 + 7
        RET
          CFI EndBlock cfiCond39
          CFI EndBlock cfiCond40
          CFI EndBlock cfiPicker41
//  428 
//  429 /*******************************************************************************
//  430 //函数名：void Print16_8(unsigned short y,unsigned short x, unsigned char ch[],unsigned short yn)
//  431 //功能：显示16*8字符串
//  432 //输入：xx ,yy 坐标,ch1待显示的字符串,yn是否反黑
//  433 //输出：无
//  434 ********************************************************************************/

        RSEG BANKED_CODE:CODE:NOROOT(0)
//  435 void Print16_8(unsigned short y,unsigned short x, unsigned char ch[],unsigned short yn)
Print16_8:
          CFI Block cfiBlock42 Using cfiCommon0
          CFI Function Print16_8
        CODE
//  436 {
        FUNCALL Print16_8, PrintCh16_8
        LOCFRAME ISTACK, 0, STACK
        LOCFRAME PSTACK, 0, STACK
        LOCFRAME XSTACK, 20, STACK
        LOCFRAME IOVERLAY, 0, STATIC
        LOCFRAME DOVERLAY, 0, STATIC
        ARGFRAME ISTACK, 0, STACK
        ARGFRAME PSTACK, 0, STACK
        ARGFRAME XSTACK, 20, STACK
        ARGFRAME IOVERLAY, 0, STATIC
        ARGFRAME DOVERLAY, 0, STATIC
        MOV     A,#-0x12
        LCALL   ?BANKED_ENTER_XDATA
          CFI DPH0 load(1, XDATA, add(CFA_XSP16, literal(-1)))
          CFI DPL0 load(1, XDATA, add(CFA_XSP16, literal(-2)))
          CFI ?BRET_EXT load(1, XDATA, add(CFA_XSP16, literal(-3)))
          CFI ?RET_HIGH load(1, XDATA, add(CFA_XSP16, literal(-4)))
          CFI ?RET_LOW load(1, XDATA, add(CFA_XSP16, literal(-5)))
          CFI R7 load(1, XDATA, add(CFA_XSP16, literal(-6)))
          CFI V9 load(1, XDATA, add(CFA_XSP16, literal(-7)))
          CFI V8 load(1, XDATA, add(CFA_XSP16, literal(-8)))
          CFI V7 load(1, XDATA, add(CFA_XSP16, literal(-9)))
          CFI V6 load(1, XDATA, add(CFA_XSP16, literal(-10)))
          CFI V5 load(1, XDATA, add(CFA_XSP16, literal(-11)))
          CFI V4 load(1, XDATA, add(CFA_XSP16, literal(-12)))
          CFI V3 load(1, XDATA, add(CFA_XSP16, literal(-13)))
          CFI V2 load(1, XDATA, add(CFA_XSP16, literal(-14)))
          CFI V1 load(1, XDATA, add(CFA_XSP16, literal(-15)))
          CFI V0 load(1, XDATA, add(CFA_XSP16, literal(-16)))
          CFI VB load(1, XDATA, add(CFA_XSP16, literal(-17)))
          CFI R6 load(1, XDATA, add(CFA_XSP16, literal(-18)))
          CFI CFA_SP SP+0
          CFI CFA_XSP16 add(XSP16, 18)
        ; Saved register size: 18
        ; Auto size: 0
        MOV     ?V0 + 2,R2
        MOV     ?V0 + 3,R3
        MOV     A,R4
        MOV     R6,A
        MOV     A,R5
        MOV     R7,A
//  437   unsigned char ii = 0;
        MOV     ?V0 + 4,#0x0
        MOV     A,#0x12
        LCALL   ?XSTACK_DISP0_8
        LCALL   ?Subroutine12 & 0xFFFF
??CrossCallReturnLabel_11:
        LCALL   ?XSTACK_DISP0_8
        MOVX    A,@DPTR
        MOV     ?V0 + 8,A
        INC     DPTR
        MOVX    A,@DPTR
        MOV     ?V0 + 9,A
        SJMP    ??Print16_8_0
//  438   while(ch[ii] != '\0')
//  439   {
//  440     PrintCh16_8(y,x,ch[ii],yn);
??Print16_8_1:
        ; Setup parameters for call to function PrintCh16_8
        MOV     R0,#?V0 + 8
        LCALL   ?PUSH_XSTACK_I_TWO
          CFI CFA_XSP16 add(XSP16, 20)
        MOV     A,R6
        MOV     R4,A
        MOV     A,R7
        MOV     R5,A
        MOV     R2,?V0 + 2
        MOV     R3,?V0 + 3
        LCALL   ??PrintCh16_8?relay
        MOV     A,#0x2
        LCALL   ?DEALLOC_XSTACK8
          CFI CFA_XSP16 add(XSP16, 18)
//  441     ii += 1;
        INC     ?V0 + 4
//  442     x += 8;
        MOV     A,R6
        ADD     A,#0x8
        MOV     R6,A
        MOV     A,R7
        ADDC    A,#0x0
        MOV     R7,A
//  443   }
??Print16_8_0:
        LCALL   ?Subroutine17 & 0xFFFF
??CrossCallReturnLabel_20:
        JNZ     ??Print16_8_1
          CFI EndBlock cfiBlock42
//  444   
//  445 }
        REQUIRE ?Subroutine5
        ; // Fall through to label ?Subroutine5

        RSEG BANKED_CODE:CODE:NOROOT(0)
?Subroutine5:
          CFI Block cfiBlock43 Using cfiCommon0
          CFI NoFunction
          CFI CFA_SP SP+0
          CFI CFA_XSP16 add(XSP16, 18)
          CFI VB load(1, XDATA, add(CFA_XSP16, literal(-17)))
          CFI DPL0 load(1, XDATA, add(CFA_XSP16, literal(-2)))
          CFI DPH0 load(1, XDATA, add(CFA_XSP16, literal(-1)))
          CFI R6 load(1, XDATA, add(CFA_XSP16, literal(-18)))
          CFI R7 load(1, XDATA, add(CFA_XSP16, literal(-6)))
          CFI V0 load(1, XDATA, add(CFA_XSP16, literal(-16)))
          CFI V1 load(1, XDATA, add(CFA_XSP16, literal(-15)))
          CFI V2 load(1, XDATA, add(CFA_XSP16, literal(-14)))
          CFI V3 load(1, XDATA, add(CFA_XSP16, literal(-13)))
          CFI V4 load(1, XDATA, add(CFA_XSP16, literal(-12)))
          CFI V5 load(1, XDATA, add(CFA_XSP16, literal(-11)))
          CFI V6 load(1, XDATA, add(CFA_XSP16, literal(-10)))
          CFI V7 load(1, XDATA, add(CFA_XSP16, literal(-9)))
          CFI V8 load(1, XDATA, add(CFA_XSP16, literal(-8)))
          CFI V9 load(1, XDATA, add(CFA_XSP16, literal(-7)))
          CFI ?BRET_EXT load(1, XDATA, add(CFA_XSP16, literal(-3)))
          CFI ?RET_HIGH load(1, XDATA, add(CFA_XSP16, literal(-4)))
          CFI ?RET_LOW load(1, XDATA, add(CFA_XSP16, literal(-5)))
        MOV     R7,#0xa
        LJMP    ?BANKED_LEAVE_XDATA
          CFI EndBlock cfiBlock43
//  446 
//  447 /*******************************************************************************
//  448 //函数名：void Print32_16(unsigned short y,unsigned short x, unsigned char ch[],unsigned short yn)
//  449 //功能：显示32*16字符串
//  450 //输入：xx ,yy 坐标,ch1待显示的字符串,yn是否反黑
//  451 //输出：无
//  452 ********************************************************************************/

        RSEG BANKED_CODE:CODE:NOROOT(0)
//  453 void Print32_16(unsigned short y,unsigned short x, unsigned char ch[],unsigned short yn)
Print32_16:
          CFI Block cfiBlock44 Using cfiCommon0
          CFI Function Print32_16
        CODE
//  454 {
        FUNCALL Print32_16, PrintCh32_16
        LOCFRAME ISTACK, 0, STACK
        LOCFRAME PSTACK, 0, STACK
        LOCFRAME XSTACK, 20, STACK
        LOCFRAME IOVERLAY, 0, STATIC
        LOCFRAME DOVERLAY, 0, STATIC
        ARGFRAME ISTACK, 0, STACK
        ARGFRAME PSTACK, 0, STACK
        ARGFRAME XSTACK, 20, STACK
        ARGFRAME IOVERLAY, 0, STATIC
        ARGFRAME DOVERLAY, 0, STATIC
        MOV     A,#-0x12
        LCALL   ?BANKED_ENTER_XDATA
          CFI DPH0 load(1, XDATA, add(CFA_XSP16, literal(-1)))
          CFI DPL0 load(1, XDATA, add(CFA_XSP16, literal(-2)))
          CFI ?BRET_EXT load(1, XDATA, add(CFA_XSP16, literal(-3)))
          CFI ?RET_HIGH load(1, XDATA, add(CFA_XSP16, literal(-4)))
          CFI ?RET_LOW load(1, XDATA, add(CFA_XSP16, literal(-5)))
          CFI R7 load(1, XDATA, add(CFA_XSP16, literal(-6)))
          CFI V9 load(1, XDATA, add(CFA_XSP16, literal(-7)))
          CFI V8 load(1, XDATA, add(CFA_XSP16, literal(-8)))
          CFI V7 load(1, XDATA, add(CFA_XSP16, literal(-9)))
          CFI V6 load(1, XDATA, add(CFA_XSP16, literal(-10)))
          CFI V5 load(1, XDATA, add(CFA_XSP16, literal(-11)))
          CFI V4 load(1, XDATA, add(CFA_XSP16, literal(-12)))
          CFI V3 load(1, XDATA, add(CFA_XSP16, literal(-13)))
          CFI V2 load(1, XDATA, add(CFA_XSP16, literal(-14)))
          CFI V1 load(1, XDATA, add(CFA_XSP16, literal(-15)))
          CFI V0 load(1, XDATA, add(CFA_XSP16, literal(-16)))
          CFI VB load(1, XDATA, add(CFA_XSP16, literal(-17)))
          CFI R6 load(1, XDATA, add(CFA_XSP16, literal(-18)))
          CFI CFA_SP SP+0
          CFI CFA_XSP16 add(XSP16, 18)
        ; Saved register size: 18
        ; Auto size: 0
        MOV     ?V0 + 2,R2
        MOV     ?V0 + 3,R3
        MOV     A,R4
        MOV     R6,A
        MOV     A,R5
        MOV     R7,A
//  455   unsigned char ii = 0;
        MOV     ?V0 + 4,#0x0
        MOV     A,#0x12
        LCALL   ?XSTACK_DISP0_8
        LCALL   ?Subroutine12 & 0xFFFF
??CrossCallReturnLabel_12:
        LCALL   ?XSTACK_DISP0_8
        MOVX    A,@DPTR
        MOV     ?V0 + 8,A
        INC     DPTR
        MOVX    A,@DPTR
        MOV     ?V0 + 9,A
        SJMP    ??Print32_16_0
//  456   while(ch[ii] != '\0')
//  457   {
//  458     PrintCh32_16(y,x,ch[ii],yn);
??Print32_16_1:
        ; Setup parameters for call to function PrintCh32_16
        MOV     R0,#?V0 + 8
        LCALL   ?PUSH_XSTACK_I_TWO
          CFI CFA_XSP16 add(XSP16, 20)
        MOV     A,R6
        MOV     R4,A
        MOV     A,R7
        MOV     R5,A
        MOV     R2,?V0 + 2
        MOV     R3,?V0 + 3
        LCALL   ??PrintCh32_16?relay
        MOV     A,#0x2
        LCALL   ?DEALLOC_XSTACK8
          CFI CFA_XSP16 add(XSP16, 18)
//  459     ii += 1;
        INC     ?V0 + 4
//  460     x += 16;
        MOV     A,R6
        ADD     A,#0x10
        MOV     R6,A
        MOV     A,R7
        ADDC    A,#0x0
        MOV     R7,A
//  461   }
??Print32_16_0:
        LCALL   ?Subroutine17 & 0xFFFF
??CrossCallReturnLabel_21:
        JNZ     ??Print32_16_1
//  462   
//  463 }
        SJMP    ?Subroutine5
          CFI EndBlock cfiBlock44

        RSEG BANKED_CODE:CODE:NOROOT(0)
?Subroutine17:
          CFI Block cfiCond45 Using cfiCommon0
          CFI Function Print16_8
          CFI Conditional ??CrossCallReturnLabel_20
          CFI R6 load(1, XDATA, add(CFA_XSP16, literal(-18)))
          CFI VB load(1, XDATA, add(CFA_XSP16, literal(-17)))
          CFI V0 load(1, XDATA, add(CFA_XSP16, literal(-16)))
          CFI V1 load(1, XDATA, add(CFA_XSP16, literal(-15)))
          CFI V2 load(1, XDATA, add(CFA_XSP16, literal(-14)))
          CFI V3 load(1, XDATA, add(CFA_XSP16, literal(-13)))
          CFI V4 load(1, XDATA, add(CFA_XSP16, literal(-12)))
          CFI V5 load(1, XDATA, add(CFA_XSP16, literal(-11)))
          CFI V6 load(1, XDATA, add(CFA_XSP16, literal(-10)))
          CFI V7 load(1, XDATA, add(CFA_XSP16, literal(-9)))
          CFI V8 load(1, XDATA, add(CFA_XSP16, literal(-8)))
          CFI V9 load(1, XDATA, add(CFA_XSP16, literal(-7)))
          CFI R7 load(1, XDATA, add(CFA_XSP16, literal(-6)))
          CFI ?RET_LOW load(1, XDATA, add(CFA_XSP16, literal(-5)))
          CFI ?RET_HIGH load(1, XDATA, add(CFA_XSP16, literal(-4)))
          CFI ?BRET_EXT load(1, XDATA, add(CFA_XSP16, literal(-3)))
          CFI DPL0 load(1, XDATA, add(CFA_XSP16, literal(-2)))
          CFI DPH0 load(1, XDATA, add(CFA_XSP16, literal(-1)))
          CFI CFA_SP SP+0
          CFI CFA_XSP16 add(XSP16, 18)
          CFI Block cfiCond46 Using cfiCommon0
          CFI (cfiCond46) Function Print32_16
          CFI (cfiCond46) Conditional ??CrossCallReturnLabel_21
          CFI (cfiCond46) R6 load(1, XDATA, add(CFA_XSP16, literal(-18)))
          CFI (cfiCond46) VB load(1, XDATA, add(CFA_XSP16, literal(-17)))
          CFI (cfiCond46) V0 load(1, XDATA, add(CFA_XSP16, literal(-16)))
          CFI (cfiCond46) V1 load(1, XDATA, add(CFA_XSP16, literal(-15)))
          CFI (cfiCond46) V2 load(1, XDATA, add(CFA_XSP16, literal(-14)))
          CFI (cfiCond46) V3 load(1, XDATA, add(CFA_XSP16, literal(-13)))
          CFI (cfiCond46) V4 load(1, XDATA, add(CFA_XSP16, literal(-12)))
          CFI (cfiCond46) V5 load(1, XDATA, add(CFA_XSP16, literal(-11)))
          CFI (cfiCond46) V6 load(1, XDATA, add(CFA_XSP16, literal(-10)))
          CFI (cfiCond46) V7 load(1, XDATA, add(CFA_XSP16, literal(-9)))
          CFI (cfiCond46) V8 load(1, XDATA, add(CFA_XSP16, literal(-8)))
          CFI (cfiCond46) V9 load(1, XDATA, add(CFA_XSP16, literal(-7)))
          CFI (cfiCond46) R7 load(1, XDATA, add(CFA_XSP16, literal(-6)))
          CFI (cfiCond46) ?RET_LOW load(1, XDATA, add(CFA_XSP16, literal(-5)))
          CFI (cfiCond46) ?RET_HIGH load(1, XDATA, add(CFA_XSP16, literal(-4)))
          CFI (cfiCond46) ?BRET_EXT load(1, XDATA, add(CFA_XSP16, literal(-3)))
          CFI (cfiCond46) DPL0 load(1, XDATA, add(CFA_XSP16, literal(-2)))
          CFI (cfiCond46) DPH0 load(1, XDATA, add(CFA_XSP16, literal(-1)))
          CFI (cfiCond46) CFA_SP SP+0
          CFI (cfiCond46) CFA_XSP16 add(XSP16, 18)
          CFI Block cfiPicker47 Using cfiCommon1
          CFI (cfiPicker47) NoFunction
          CFI (cfiPicker47) Picker
        MOV     ?V0 + 6,?V0 + 4
        MOV     A,?V0 + 0
        ADD     A,?V0 + 6
        MOV     DPL,A
        MOV     A,?V0 + 1
        ADDC    A,#0x0
        MOV     DPH,A
        MOVX    A,@DPTR
        MOV     R1,A
        RET
          CFI EndBlock cfiCond45
          CFI EndBlock cfiCond46
          CFI EndBlock cfiPicker47

        RSEG BANKED_CODE:CODE:NOROOT(0)
?Subroutine12:
          CFI Block cfiCond48 Using cfiCommon0
          CFI Function Print16_8
          CFI Conditional ??CrossCallReturnLabel_11
          CFI R6 load(1, XDATA, add(CFA_XSP16, literal(-18)))
          CFI VB load(1, XDATA, add(CFA_XSP16, literal(-17)))
          CFI V0 load(1, XDATA, add(CFA_XSP16, literal(-16)))
          CFI V1 load(1, XDATA, add(CFA_XSP16, literal(-15)))
          CFI V2 load(1, XDATA, add(CFA_XSP16, literal(-14)))
          CFI V3 load(1, XDATA, add(CFA_XSP16, literal(-13)))
          CFI V4 load(1, XDATA, add(CFA_XSP16, literal(-12)))
          CFI V5 load(1, XDATA, add(CFA_XSP16, literal(-11)))
          CFI V6 load(1, XDATA, add(CFA_XSP16, literal(-10)))
          CFI V7 load(1, XDATA, add(CFA_XSP16, literal(-9)))
          CFI V8 load(1, XDATA, add(CFA_XSP16, literal(-8)))
          CFI V9 load(1, XDATA, add(CFA_XSP16, literal(-7)))
          CFI R7 load(1, XDATA, add(CFA_XSP16, literal(-6)))
          CFI ?RET_LOW load(1, XDATA, add(CFA_XSP16, literal(-5)))
          CFI ?RET_HIGH load(1, XDATA, add(CFA_XSP16, literal(-4)))
          CFI ?BRET_EXT load(1, XDATA, add(CFA_XSP16, literal(-3)))
          CFI DPL0 load(1, XDATA, add(CFA_XSP16, literal(-2)))
          CFI DPH0 load(1, XDATA, add(CFA_XSP16, literal(-1)))
          CFI CFA_SP SP+0
          CFI CFA_XSP16 add(XSP16, 18)
          CFI Block cfiCond49 Using cfiCommon0
          CFI (cfiCond49) Function Print32_16
          CFI (cfiCond49) Conditional ??CrossCallReturnLabel_12
          CFI (cfiCond49) R6 load(1, XDATA, add(CFA_XSP16, literal(-18)))
          CFI (cfiCond49) VB load(1, XDATA, add(CFA_XSP16, literal(-17)))
          CFI (cfiCond49) V0 load(1, XDATA, add(CFA_XSP16, literal(-16)))
          CFI (cfiCond49) V1 load(1, XDATA, add(CFA_XSP16, literal(-15)))
          CFI (cfiCond49) V2 load(1, XDATA, add(CFA_XSP16, literal(-14)))
          CFI (cfiCond49) V3 load(1, XDATA, add(CFA_XSP16, literal(-13)))
          CFI (cfiCond49) V4 load(1, XDATA, add(CFA_XSP16, literal(-12)))
          CFI (cfiCond49) V5 load(1, XDATA, add(CFA_XSP16, literal(-11)))
          CFI (cfiCond49) V6 load(1, XDATA, add(CFA_XSP16, literal(-10)))
          CFI (cfiCond49) V7 load(1, XDATA, add(CFA_XSP16, literal(-9)))
          CFI (cfiCond49) V8 load(1, XDATA, add(CFA_XSP16, literal(-8)))
          CFI (cfiCond49) V9 load(1, XDATA, add(CFA_XSP16, literal(-7)))
          CFI (cfiCond49) R7 load(1, XDATA, add(CFA_XSP16, literal(-6)))
          CFI (cfiCond49) ?RET_LOW load(1, XDATA, add(CFA_XSP16, literal(-5)))
          CFI (cfiCond49) ?RET_HIGH load(1, XDATA, add(CFA_XSP16, literal(-4)))
          CFI (cfiCond49) ?BRET_EXT load(1, XDATA, add(CFA_XSP16, literal(-3)))
          CFI (cfiCond49) DPL0 load(1, XDATA, add(CFA_XSP16, literal(-2)))
          CFI (cfiCond49) DPH0 load(1, XDATA, add(CFA_XSP16, literal(-1)))
          CFI (cfiCond49) CFA_SP SP+0
          CFI (cfiCond49) CFA_XSP16 add(XSP16, 18)
          CFI Block cfiPicker50 Using cfiCommon1
          CFI (cfiPicker50) NoFunction
          CFI (cfiPicker50) Picker
        MOVX    A,@DPTR
        MOV     ?V0 + 0,A
        INC     DPTR
        MOVX    A,@DPTR
        MOV     ?V0 + 1,A
        MOV     A,#0x14
        RET
          CFI EndBlock cfiCond48
          CFI EndBlock cfiCond49
          CFI EndBlock cfiPicker50
//  464 
//  465 /*******************************************************************************
//  466 //函数名：void Print16(unsigned short y,unsigned short x,unsigned char ch[],unsigned short yn)
//  467 //功能：在屏幕上显示汉字
//  468 //输入：x ,y 坐标,ch[]待显示的汉字,yn是否反黑
//  469 //输出：无
//  470 ********************************************************************************/

        RSEG BANKED_CODE:CODE:NOROOT(0)
//  471 void Print16(unsigned short y,unsigned short x,unsigned char ch[],unsigned short yn)
Print16:
          CFI Block cfiBlock51 Using cfiCommon0
          CFI Function Print16
        CODE
//  472 {
        FUNCALL Print16, SetRamAddr
        LOCFRAME ISTACK, 0, STACK
        LOCFRAME PSTACK, 0, STACK
        LOCFRAME XSTACK, 15, STACK
        LOCFRAME IOVERLAY, 0, STATIC
        LOCFRAME DOVERLAY, 0, STATIC
        ARGFRAME ISTACK, 0, STACK
        ARGFRAME PSTACK, 0, STACK
        ARGFRAME XSTACK, 15, STACK
        ARGFRAME IOVERLAY, 0, STATIC
        ARGFRAME DOVERLAY, 0, STATIC
        FUNCALL Print16, SetRamAddr
        LOCFRAME ISTACK, 0, STACK
        LOCFRAME PSTACK, 0, STACK
        LOCFRAME XSTACK, 15, STACK
        LOCFRAME IOVERLAY, 0, STATIC
        LOCFRAME DOVERLAY, 0, STATIC
        ARGFRAME ISTACK, 0, STACK
        ARGFRAME PSTACK, 0, STACK
        ARGFRAME XSTACK, 15, STACK
        ARGFRAME IOVERLAY, 0, STATIC
        ARGFRAME DOVERLAY, 0, STATIC
        FUNCALL Print16, WriteLCD
        LOCFRAME ISTACK, 0, STACK
        LOCFRAME PSTACK, 0, STACK
        LOCFRAME XSTACK, 15, STACK
        LOCFRAME IOVERLAY, 0, STATIC
        LOCFRAME DOVERLAY, 0, STATIC
        ARGFRAME ISTACK, 0, STACK
        ARGFRAME PSTACK, 0, STACK
        ARGFRAME XSTACK, 15, STACK
        ARGFRAME IOVERLAY, 0, STATIC
        ARGFRAME DOVERLAY, 0, STATIC
        FUNCALL Print16, WriteLCD
        LOCFRAME ISTACK, 0, STACK
        LOCFRAME PSTACK, 0, STACK
        LOCFRAME XSTACK, 15, STACK
        LOCFRAME IOVERLAY, 0, STATIC
        LOCFRAME DOVERLAY, 0, STATIC
        ARGFRAME ISTACK, 0, STACK
        ARGFRAME PSTACK, 0, STACK
        ARGFRAME XSTACK, 15, STACK
        ARGFRAME IOVERLAY, 0, STATIC
        ARGFRAME DOVERLAY, 0, STATIC
        FUNCALL Print16, SetRamAddr
        LOCFRAME ISTACK, 0, STACK
        LOCFRAME PSTACK, 0, STACK
        LOCFRAME XSTACK, 15, STACK
        LOCFRAME IOVERLAY, 0, STATIC
        LOCFRAME DOVERLAY, 0, STATIC
        ARGFRAME ISTACK, 0, STACK
        ARGFRAME PSTACK, 0, STACK
        ARGFRAME XSTACK, 15, STACK
        ARGFRAME IOVERLAY, 0, STATIC
        ARGFRAME DOVERLAY, 0, STATIC
        FUNCALL Print16, WriteLCD
        LOCFRAME ISTACK, 0, STACK
        LOCFRAME PSTACK, 0, STACK
        LOCFRAME XSTACK, 15, STACK
        LOCFRAME IOVERLAY, 0, STATIC
        LOCFRAME DOVERLAY, 0, STATIC
        ARGFRAME ISTACK, 0, STACK
        ARGFRAME PSTACK, 0, STACK
        ARGFRAME XSTACK, 15, STACK
        ARGFRAME IOVERLAY, 0, STATIC
        ARGFRAME DOVERLAY, 0, STATIC
        FUNCALL Print16, WriteLCD
        LOCFRAME ISTACK, 0, STACK
        LOCFRAME PSTACK, 0, STACK
        LOCFRAME XSTACK, 15, STACK
        LOCFRAME IOVERLAY, 0, STATIC
        LOCFRAME DOVERLAY, 0, STATIC
        ARGFRAME ISTACK, 0, STACK
        ARGFRAME PSTACK, 0, STACK
        ARGFRAME XSTACK, 15, STACK
        ARGFRAME IOVERLAY, 0, STATIC
        ARGFRAME DOVERLAY, 0, STATIC
        FUNCALL Print16, SetRamAddr
        LOCFRAME ISTACK, 0, STACK
        LOCFRAME PSTACK, 0, STACK
        LOCFRAME XSTACK, 15, STACK
        LOCFRAME IOVERLAY, 0, STATIC
        LOCFRAME DOVERLAY, 0, STATIC
        ARGFRAME ISTACK, 0, STACK
        ARGFRAME PSTACK, 0, STACK
        ARGFRAME XSTACK, 15, STACK
        ARGFRAME IOVERLAY, 0, STATIC
        ARGFRAME DOVERLAY, 0, STATIC
        FUNCALL Print16, WriteLCD
        LOCFRAME ISTACK, 0, STACK
        LOCFRAME PSTACK, 0, STACK
        LOCFRAME XSTACK, 15, STACK
        LOCFRAME IOVERLAY, 0, STATIC
        LOCFRAME DOVERLAY, 0, STATIC
        ARGFRAME ISTACK, 0, STACK
        ARGFRAME PSTACK, 0, STACK
        ARGFRAME XSTACK, 15, STACK
        ARGFRAME IOVERLAY, 0, STATIC
        ARGFRAME DOVERLAY, 0, STATIC
        FUNCALL Print16, WriteLCD
        LOCFRAME ISTACK, 0, STACK
        LOCFRAME PSTACK, 0, STACK
        LOCFRAME XSTACK, 15, STACK
        LOCFRAME IOVERLAY, 0, STATIC
        LOCFRAME DOVERLAY, 0, STATIC
        ARGFRAME ISTACK, 0, STACK
        ARGFRAME PSTACK, 0, STACK
        ARGFRAME XSTACK, 15, STACK
        ARGFRAME IOVERLAY, 0, STATIC
        ARGFRAME DOVERLAY, 0, STATIC
        FUNCALL Print16, SetRamAddr
        LOCFRAME ISTACK, 0, STACK
        LOCFRAME PSTACK, 0, STACK
        LOCFRAME XSTACK, 15, STACK
        LOCFRAME IOVERLAY, 0, STATIC
        LOCFRAME DOVERLAY, 0, STATIC
        ARGFRAME ISTACK, 0, STACK
        ARGFRAME PSTACK, 0, STACK
        ARGFRAME XSTACK, 15, STACK
        ARGFRAME IOVERLAY, 0, STATIC
        ARGFRAME DOVERLAY, 0, STATIC
        FUNCALL Print16, WriteLCD
        LOCFRAME ISTACK, 0, STACK
        LOCFRAME PSTACK, 0, STACK
        LOCFRAME XSTACK, 15, STACK
        LOCFRAME IOVERLAY, 0, STATIC
        LOCFRAME DOVERLAY, 0, STATIC
        ARGFRAME ISTACK, 0, STACK
        ARGFRAME PSTACK, 0, STACK
        ARGFRAME XSTACK, 15, STACK
        ARGFRAME IOVERLAY, 0, STATIC
        ARGFRAME DOVERLAY, 0, STATIC
        FUNCALL Print16, WriteLCD
        LOCFRAME ISTACK, 0, STACK
        LOCFRAME PSTACK, 0, STACK
        LOCFRAME XSTACK, 15, STACK
        LOCFRAME IOVERLAY, 0, STATIC
        LOCFRAME DOVERLAY, 0, STATIC
        ARGFRAME ISTACK, 0, STACK
        ARGFRAME PSTACK, 0, STACK
        ARGFRAME XSTACK, 15, STACK
        ARGFRAME IOVERLAY, 0, STATIC
        ARGFRAME DOVERLAY, 0, STATIC
        FUNCALL Print16, SetRamAddr
        LOCFRAME ISTACK, 0, STACK
        LOCFRAME PSTACK, 0, STACK
        LOCFRAME XSTACK, 15, STACK
        LOCFRAME IOVERLAY, 0, STATIC
        LOCFRAME DOVERLAY, 0, STATIC
        ARGFRAME ISTACK, 0, STACK
        ARGFRAME PSTACK, 0, STACK
        ARGFRAME XSTACK, 15, STACK
        ARGFRAME IOVERLAY, 0, STATIC
        ARGFRAME DOVERLAY, 0, STATIC
        FUNCALL Print16, WriteLCD
        LOCFRAME ISTACK, 0, STACK
        LOCFRAME PSTACK, 0, STACK
        LOCFRAME XSTACK, 15, STACK
        LOCFRAME IOVERLAY, 0, STATIC
        LOCFRAME DOVERLAY, 0, STATIC
        ARGFRAME ISTACK, 0, STACK
        ARGFRAME PSTACK, 0, STACK
        ARGFRAME XSTACK, 15, STACK
        ARGFRAME IOVERLAY, 0, STATIC
        ARGFRAME DOVERLAY, 0, STATIC
        FUNCALL Print16, WriteLCD
        LOCFRAME ISTACK, 0, STACK
        LOCFRAME PSTACK, 0, STACK
        LOCFRAME XSTACK, 15, STACK
        LOCFRAME IOVERLAY, 0, STATIC
        LOCFRAME DOVERLAY, 0, STATIC
        ARGFRAME ISTACK, 0, STACK
        ARGFRAME PSTACK, 0, STACK
        ARGFRAME XSTACK, 15, STACK
        ARGFRAME IOVERLAY, 0, STATIC
        ARGFRAME DOVERLAY, 0, STATIC
        MOV     A,#-0xf
        LCALL   ?BANKED_ENTER_XDATA
          CFI DPH0 load(1, XDATA, add(CFA_XSP16, literal(-1)))
          CFI DPL0 load(1, XDATA, add(CFA_XSP16, literal(-2)))
          CFI ?BRET_EXT load(1, XDATA, add(CFA_XSP16, literal(-3)))
          CFI ?RET_HIGH load(1, XDATA, add(CFA_XSP16, literal(-4)))
          CFI ?RET_LOW load(1, XDATA, add(CFA_XSP16, literal(-5)))
          CFI R7 load(1, XDATA, add(CFA_XSP16, literal(-6)))
          CFI V6 load(1, XDATA, add(CFA_XSP16, literal(-7)))
          CFI V5 load(1, XDATA, add(CFA_XSP16, literal(-8)))
          CFI V4 load(1, XDATA, add(CFA_XSP16, literal(-9)))
          CFI V3 load(1, XDATA, add(CFA_XSP16, literal(-10)))
          CFI V2 load(1, XDATA, add(CFA_XSP16, literal(-11)))
          CFI V1 load(1, XDATA, add(CFA_XSP16, literal(-12)))
          CFI V0 load(1, XDATA, add(CFA_XSP16, literal(-13)))
          CFI VB load(1, XDATA, add(CFA_XSP16, literal(-14)))
          CFI R6 load(1, XDATA, add(CFA_XSP16, literal(-15)))
          CFI CFA_SP SP+0
          CFI CFA_XSP16 add(XSP16, 15)
        ; Saved register size: 15
        ; Auto size: 0
        MOV     ?V0 + 0,R2
        MOV     A,R4
        MOV     R6,A
//  473   unsigned char wm ,ii = 0;
//  474   unsigned short adder;
//  475   
//  476   wm = 0;
        MOV     R4,#0x0
//  477   adder = 1;
        MOV     ?V0 + 2,#0x1
        MOV     ?V0 + 3,R4
        MOV     A,#0xf
        LCALL   ?XSTACK_DISP0_8
        MOVX    A,@DPTR
        MOV     R0,A
        INC     DPTR
        MOVX    A,@DPTR
        MOV     R1,A
        SJMP    ??Print16_0
//  478   while(FontNew8X16_Index[wm] > 128)
//  479   {
//  480     if(FontNew8X16_Index[wm] == ch[ii])
//  481     {
//  482       if(FontNew8X16_Index[wm + 1] == ch[ii + 1])
//  483       {
//  484         adder = wm * 16;
//  485         break;
//  486       }
//  487     }
//  488     wm += 2;				//找到汉字在索引中的位置
??Print16_1:
        INC     R4
        INC     R4
??Print16_0:
        MOV     DPL,R4
        MOV     ?V0 + 4,DPL
        MOV     ?V0 + 5,#0x0
        MOV     A,#FontNew8X16_Index & 0xff
        ADD     A,?V0 + 4
        MOV     R2,A
        MOV     A,#(FontNew8X16_Index >> 8) & 0xff
        ADDC    A,#0x0
        MOV     R3,A
        MOV     DPL,R2
        MOV     DPH,R3
        CLR     A
        MOVC    A,@A+DPTR
        MOV     R5,A
        CLR     C
        SUBB    A,#-0x7f
        JC      ??Print16_2
        MOV     DPL,R0
        MOV     DPH,R1
        MOVX    A,@DPTR
        XRL     A,R5
        JNZ     ??Print16_1
        MOV     DPL,R2
        MOV     DPH,R3
        INC     DPTR
        CLR     A
        MOVC    A,@A+DPTR
        MOV     R2,A
        MOV     DPL,R0
        MOV     DPH,R1
        INC     DPTR
        MOVX    A,@DPTR
        XRL     A,R2
        JNZ     ??Print16_1
        MOV     A,#0x4
        MOV     R0,#?V0 + 4
        LCALL   ?S_SHL
        MOV     ?V0 + 2,?V0 + 4
        MOV     ?V0 + 3,?V0 + 5
//  489   }
//  490   SetRamAddr(y , x);
??Print16_2:
        ; Setup parameters for call to function SetRamAddr
        MOV     A,R6
        MOV     R2,A
        MOV     R1,?V0 + 0
        LCALL   ??SetRamAddr?relay
        MOV     A,#0x11
        LCALL   ?XSTACK_DISP0_8
        LCALL   ?Subroutine10 & 0xFFFF
//  491   
//  492   if(adder != 1)					//找到汉字，显示出来	
??CrossCallReturnLabel_8:
        MOV     A,#0x1
        XRL     A,?V0 + 2
        JNZ     ??Print16_3
        MOV     A,?V0 + 3
??Print16_3:
        JZ      ??Print16_4
//  493   {
//  494     
//  495     for(wm = 0;wm < 16;wm++)
        MOV     ?V0 + 6,#0x10
//  496     {
//  497       SetRamAddr(y , x);
??Print16_5:
        ; Setup parameters for call to function SetRamAddr
        MOV     A,R6
        MOV     R2,A
        MOV     R1,?V0 + 0
        LCALL   ??SetRamAddr?relay
//  498       if(yn == 0)
        LCALL   ?Subroutine15 & 0xFFFF
??CrossCallReturnLabel_28:
        JNZ     ??Print16_6
//  499       {
//  500         WriteLCD(DATA, ~FontNew16X16[adder]);
        ; Setup parameters for call to function WriteLCD
        MOV     A,R2
        CPL     A
        MOV     R2,A
//  501       }
//  502       else
//  503       {
//  504         WriteLCD(DATA, FontNew16X16[adder]);
??Print16_6:
        ; Setup parameters for call to function WriteLCD
        MOV     R1,#0x1
        LCALL   ??WriteLCD?relay
//  505       }
//  506       adder += 1;
        LCALL   ?Subroutine8 & 0xFFFF
//  507       x += 1;
//  508     }
??CrossCallReturnLabel_2:
        JNZ     ??Print16_5
//  509     y += 1;
        MOV     A,?V0 + 0
        INC     A
        MOV     ?V0 + 0,A
//  510     x -=16;
        MOV     A,R6
        ADD     A,#-0x10
        MOV     R6,A
//  511     
//  512     for(wm = 0;wm < 16;wm++)
        MOV     ?V0 + 6,#0x10
//  513     {
//  514       SetRamAddr(y , x);
??Print16_7:
        ; Setup parameters for call to function SetRamAddr
        MOV     A,R6
        MOV     R2,A
        MOV     R1,?V0 + 0
        LCALL   ??SetRamAddr?relay
//  515       if(yn == 0)
        LCALL   ?Subroutine15 & 0xFFFF
??CrossCallReturnLabel_29:
        JNZ     ??Print16_8
//  516       {
//  517         WriteLCD(DATA, ~FontNew16X16[adder]);
        ; Setup parameters for call to function WriteLCD
        MOV     A,R2
        CPL     A
        MOV     R2,A
//  518       }
//  519       else
//  520       {
//  521         WriteLCD(DATA, FontNew16X16[adder]);
??Print16_8:
        ; Setup parameters for call to function WriteLCD
        MOV     R1,#0x1
        LCALL   ??WriteLCD?relay
//  522       }
//  523       adder += 1;
        LCALL   ?Subroutine8 & 0xFFFF
//  524       x += 1;
//  525     }
??CrossCallReturnLabel_3:
        JNZ     ??Print16_7
//  526     for(wm = 0;wm < 2;wm++)
        MOV     ?V0 + 2,#0x2
//  527     {
//  528       SetRamAddr(y , x);
??Print16_9:
        ; Setup parameters for call to function SetRamAddr
        MOV     A,R6
        MOV     R2,A
        MOV     R1,?V0 + 0
        LCALL   ??SetRamAddr?relay
//  529       if(yn == 0)
        MOV     A,?V0 + 4
        ORL     A,?V0 + 5
        JNZ     ??Print16_10
//  530       {
//  531         WriteLCD(DATA, 0xff);
        ; Setup parameters for call to function WriteLCD
        MOV     R2,#-0x1
        SJMP    ??Print16_11
//  532       }
//  533       else
//  534       {
//  535         WriteLCD(DATA, 0x00);
??Print16_10:
        ; Setup parameters for call to function WriteLCD
        MOV     R2,#0x0
??Print16_11:
        MOV     R1,#0x1
        LCALL   ??WriteLCD?relay
//  536       }
//  537       x += 1;
        INC     R6
//  538     }
        DEC     ?V0 + 2
        MOV     A,?V0 + 2
        JZ      ??Print16_12
        SJMP    ??Print16_9
//  539     
//  540     
//  541   }
//  542   else						//找不到字显示空格			
//  543   {
//  544     ii += 1;
//  545     
//  546     for(wm = 0;wm < 16;wm++)
??Print16_4:
        MOV     ?V0 + 2,#0x10
//  547     {
//  548       SetRamAddr(y , x);
??Print16_13:
        ; Setup parameters for call to function SetRamAddr
        MOV     A,R6
        MOV     R2,A
        MOV     R1,?V0 + 0
        LCALL   ??SetRamAddr?relay
//  549       if(yn == 0)
        MOV     A,?V0 + 4
        ORL     A,?V0 + 5
        JNZ     ??Print16_14
//  550       {
//  551         WriteLCD(DATA, 0xff);
        ; Setup parameters for call to function WriteLCD
        MOV     R2,#-0x1
        SJMP    ??Print16_15
//  552       }
//  553       else
//  554       {
//  555         WriteLCD(DATA, 0x00);
??Print16_14:
        ; Setup parameters for call to function WriteLCD
        MOV     R2,#0x0
??Print16_15:
        MOV     R1,#0x1
        LCALL   ??WriteLCD?relay
//  556       }
//  557       x += 1;
        INC     R6
//  558     }
        DEC     ?V0 + 2
        MOV     A,?V0 + 2
        JNZ     ??Print16_13
//  559     y += 1;
        MOV     A,?V0 + 0
        INC     A
        MOV     ?V0 + 0,A
//  560     x -= 16;
        MOV     A,R6
        ADD     A,#-0x10
        MOV     R6,A
//  561     for(wm = 0;wm < 16;wm++)
        MOV     ?V0 + 2,#0x10
//  562     {
//  563       SetRamAddr(y , x);
??Print16_16:
        ; Setup parameters for call to function SetRamAddr
        MOV     A,R6
        MOV     R2,A
        MOV     R1,?V0 + 0
        LCALL   ??SetRamAddr?relay
//  564       if(yn == 0)
        MOV     A,?V0 + 4
        ORL     A,?V0 + 5
        JNZ     ??Print16_17
//  565       {
//  566         WriteLCD(DATA, 0xff);
        ; Setup parameters for call to function WriteLCD
        MOV     R2,#-0x1
        SJMP    ??Print16_18
//  567       }
//  568       else
//  569       {
//  570         WriteLCD(DATA, 0x00);
??Print16_17:
        ; Setup parameters for call to function WriteLCD
        MOV     R2,#0x0
??Print16_18:
        MOV     R1,#0x1
        LCALL   ??WriteLCD?relay
//  571       }
//  572       x += 1;
        INC     R6
//  573     }
        DEC     ?V0 + 2
        MOV     A,?V0 + 2
        JNZ     ??Print16_16
//  574   }
//  575 }
??Print16_12:
        LJMP    ?Subroutine2 & 0xFFFF
          CFI EndBlock cfiBlock51

        RSEG BANKED_CODE:CODE:NOROOT(0)
?Subroutine8:
          CFI Block cfiCond52 Using cfiCommon0
          CFI Function Print16
          CFI Conditional ??CrossCallReturnLabel_2
          CFI R6 load(1, XDATA, add(CFA_XSP16, literal(-15)))
          CFI VB load(1, XDATA, add(CFA_XSP16, literal(-14)))
          CFI V0 load(1, XDATA, add(CFA_XSP16, literal(-13)))
          CFI V1 load(1, XDATA, add(CFA_XSP16, literal(-12)))
          CFI V2 load(1, XDATA, add(CFA_XSP16, literal(-11)))
          CFI V3 load(1, XDATA, add(CFA_XSP16, literal(-10)))
          CFI V4 load(1, XDATA, add(CFA_XSP16, literal(-9)))
          CFI V5 load(1, XDATA, add(CFA_XSP16, literal(-8)))
          CFI V6 load(1, XDATA, add(CFA_XSP16, literal(-7)))
          CFI R7 load(1, XDATA, add(CFA_XSP16, literal(-6)))
          CFI ?RET_LOW load(1, XDATA, add(CFA_XSP16, literal(-5)))
          CFI ?RET_HIGH load(1, XDATA, add(CFA_XSP16, literal(-4)))
          CFI ?BRET_EXT load(1, XDATA, add(CFA_XSP16, literal(-3)))
          CFI DPL0 load(1, XDATA, add(CFA_XSP16, literal(-2)))
          CFI DPH0 load(1, XDATA, add(CFA_XSP16, literal(-1)))
          CFI CFA_SP SP+0
          CFI CFA_XSP16 add(XSP16, 15)
          CFI Block cfiCond53 Using cfiCommon0
          CFI (cfiCond53) Function Print16
          CFI (cfiCond53) Conditional ??CrossCallReturnLabel_3
          CFI (cfiCond53) R6 load(1, XDATA, add(CFA_XSP16, literal(-15)))
          CFI (cfiCond53) VB load(1, XDATA, add(CFA_XSP16, literal(-14)))
          CFI (cfiCond53) V0 load(1, XDATA, add(CFA_XSP16, literal(-13)))
          CFI (cfiCond53) V1 load(1, XDATA, add(CFA_XSP16, literal(-12)))
          CFI (cfiCond53) V2 load(1, XDATA, add(CFA_XSP16, literal(-11)))
          CFI (cfiCond53) V3 load(1, XDATA, add(CFA_XSP16, literal(-10)))
          CFI (cfiCond53) V4 load(1, XDATA, add(CFA_XSP16, literal(-9)))
          CFI (cfiCond53) V5 load(1, XDATA, add(CFA_XSP16, literal(-8)))
          CFI (cfiCond53) V6 load(1, XDATA, add(CFA_XSP16, literal(-7)))
          CFI (cfiCond53) R7 load(1, XDATA, add(CFA_XSP16, literal(-6)))
          CFI (cfiCond53) ?RET_LOW load(1, XDATA, add(CFA_XSP16, literal(-5)))
          CFI (cfiCond53) ?RET_HIGH load(1, XDATA, add(CFA_XSP16, literal(-4)))
          CFI (cfiCond53) ?BRET_EXT load(1, XDATA, add(CFA_XSP16, literal(-3)))
          CFI (cfiCond53) DPL0 load(1, XDATA, add(CFA_XSP16, literal(-2)))
          CFI (cfiCond53) DPH0 load(1, XDATA, add(CFA_XSP16, literal(-1)))
          CFI (cfiCond53) CFA_SP SP+0
          CFI (cfiCond53) CFA_XSP16 add(XSP16, 15)
          CFI Block cfiPicker54 Using cfiCommon1
          CFI (cfiPicker54) NoFunction
          CFI (cfiPicker54) Picker
        LCALL   ?Subroutine19 & 0xFFFF
??CrossCallReturnLabel_25:
        DEC     ?V0 + 6
        MOV     A,?V0 + 6
        RET
          CFI EndBlock cfiCond52
          CFI EndBlock cfiCond53
          CFI EndBlock cfiPicker54

        RSEG BANKED_CODE:CODE:NOROOT(0)
?Subroutine19:
          CFI Block cfiCond55 Using cfiCommon0
          CFI Function PrintCh16_8
          CFI Conditional ??CrossCallReturnLabel_24, ??CrossCallReturnLabel_0
          CFI R6 load(1, XDATA, add(CFA_XSP16, literal(-17)))
          CFI VB load(1, XDATA, add(CFA_XSP16, literal(-16)))
          CFI V0 load(1, XDATA, add(CFA_XSP16, literal(-15)))
          CFI V1 load(1, XDATA, add(CFA_XSP16, literal(-14)))
          CFI V2 load(1, XDATA, add(CFA_XSP16, literal(-13)))
          CFI V3 load(1, XDATA, add(CFA_XSP16, literal(-12)))
          CFI V4 load(1, XDATA, add(CFA_XSP16, literal(-11)))
          CFI V5 load(1, XDATA, add(CFA_XSP16, literal(-10)))
          CFI V6 load(1, XDATA, add(CFA_XSP16, literal(-9)))
          CFI V7 load(1, XDATA, add(CFA_XSP16, literal(-8)))
          CFI V8 load(1, XDATA, add(CFA_XSP16, literal(-7)))
          CFI R7 load(1, XDATA, add(CFA_XSP16, literal(-6)))
          CFI ?RET_LOW load(1, XDATA, add(CFA_XSP16, literal(-5)))
          CFI ?RET_HIGH load(1, XDATA, add(CFA_XSP16, literal(-4)))
          CFI ?BRET_EXT load(1, XDATA, add(CFA_XSP16, literal(-3)))
          CFI DPL0 load(1, XDATA, add(CFA_XSP16, literal(-2)))
          CFI DPH0 load(1, XDATA, add(CFA_XSP16, literal(-1)))
          CFI CFA_SP SP+0
          CFI CFA_XSP16 add(XSP16, 17)
          CFI Block cfiCond56 Using cfiCommon0
          CFI (cfiCond56) Function PrintCh32_16
          CFI (cfiCond56) Conditional ??CrossCallReturnLabel_24, ??CrossCallReturnLabel_1
          CFI (cfiCond56) R6 load(1, XDATA, add(CFA_XSP16, literal(-17)))
          CFI (cfiCond56) VB load(1, XDATA, add(CFA_XSP16, literal(-16)))
          CFI (cfiCond56) V0 load(1, XDATA, add(CFA_XSP16, literal(-15)))
          CFI (cfiCond56) V1 load(1, XDATA, add(CFA_XSP16, literal(-14)))
          CFI (cfiCond56) V2 load(1, XDATA, add(CFA_XSP16, literal(-13)))
          CFI (cfiCond56) V3 load(1, XDATA, add(CFA_XSP16, literal(-12)))
          CFI (cfiCond56) V4 load(1, XDATA, add(CFA_XSP16, literal(-11)))
          CFI (cfiCond56) V5 load(1, XDATA, add(CFA_XSP16, literal(-10)))
          CFI (cfiCond56) V6 load(1, XDATA, add(CFA_XSP16, literal(-9)))
          CFI (cfiCond56) V7 load(1, XDATA, add(CFA_XSP16, literal(-8)))
          CFI (cfiCond56) V8 load(1, XDATA, add(CFA_XSP16, literal(-7)))
          CFI (cfiCond56) R7 load(1, XDATA, add(CFA_XSP16, literal(-6)))
          CFI (cfiCond56) ?RET_LOW load(1, XDATA, add(CFA_XSP16, literal(-5)))
          CFI (cfiCond56) ?RET_HIGH load(1, XDATA, add(CFA_XSP16, literal(-4)))
          CFI (cfiCond56) ?BRET_EXT load(1, XDATA, add(CFA_XSP16, literal(-3)))
          CFI (cfiCond56) DPL0 load(1, XDATA, add(CFA_XSP16, literal(-2)))
          CFI (cfiCond56) DPH0 load(1, XDATA, add(CFA_XSP16, literal(-1)))
          CFI (cfiCond56) CFA_SP SP+0
          CFI (cfiCond56) CFA_XSP16 add(XSP16, 17)
          CFI Block cfiCond57 Using cfiCommon0
          CFI (cfiCond57) Function Print16
          CFI (cfiCond57) Conditional ??CrossCallReturnLabel_25, ??CrossCallReturnLabel_2
          CFI (cfiCond57) R6 load(1, XDATA, add(CFA_XSP16, literal(-15)))
          CFI (cfiCond57) VB load(1, XDATA, add(CFA_XSP16, literal(-14)))
          CFI (cfiCond57) V0 load(1, XDATA, add(CFA_XSP16, literal(-13)))
          CFI (cfiCond57) V1 load(1, XDATA, add(CFA_XSP16, literal(-12)))
          CFI (cfiCond57) V2 load(1, XDATA, add(CFA_XSP16, literal(-11)))
          CFI (cfiCond57) V3 load(1, XDATA, add(CFA_XSP16, literal(-10)))
          CFI (cfiCond57) V4 load(1, XDATA, add(CFA_XSP16, literal(-9)))
          CFI (cfiCond57) V5 load(1, XDATA, add(CFA_XSP16, literal(-8)))
          CFI (cfiCond57) V6 load(1, XDATA, add(CFA_XSP16, literal(-7)))
          CFI (cfiCond57) R7 load(1, XDATA, add(CFA_XSP16, literal(-6)))
          CFI (cfiCond57) ?RET_LOW load(1, XDATA, add(CFA_XSP16, literal(-5)))
          CFI (cfiCond57) ?RET_HIGH load(1, XDATA, add(CFA_XSP16, literal(-4)))
          CFI (cfiCond57) ?BRET_EXT load(1, XDATA, add(CFA_XSP16, literal(-3)))
          CFI (cfiCond57) DPL0 load(1, XDATA, add(CFA_XSP16, literal(-2)))
          CFI (cfiCond57) DPH0 load(1, XDATA, add(CFA_XSP16, literal(-1)))
          CFI (cfiCond57) CFA_SP SP+0
          CFI (cfiCond57) CFA_XSP16 add(XSP16, 15)
          CFI Block cfiCond58 Using cfiCommon0
          CFI (cfiCond58) Function Print16
          CFI (cfiCond58) Conditional ??CrossCallReturnLabel_25, ??CrossCallReturnLabel_3
          CFI (cfiCond58) R6 load(1, XDATA, add(CFA_XSP16, literal(-15)))
          CFI (cfiCond58) VB load(1, XDATA, add(CFA_XSP16, literal(-14)))
          CFI (cfiCond58) V0 load(1, XDATA, add(CFA_XSP16, literal(-13)))
          CFI (cfiCond58) V1 load(1, XDATA, add(CFA_XSP16, literal(-12)))
          CFI (cfiCond58) V2 load(1, XDATA, add(CFA_XSP16, literal(-11)))
          CFI (cfiCond58) V3 load(1, XDATA, add(CFA_XSP16, literal(-10)))
          CFI (cfiCond58) V4 load(1, XDATA, add(CFA_XSP16, literal(-9)))
          CFI (cfiCond58) V5 load(1, XDATA, add(CFA_XSP16, literal(-8)))
          CFI (cfiCond58) V6 load(1, XDATA, add(CFA_XSP16, literal(-7)))
          CFI (cfiCond58) R7 load(1, XDATA, add(CFA_XSP16, literal(-6)))
          CFI (cfiCond58) ?RET_LOW load(1, XDATA, add(CFA_XSP16, literal(-5)))
          CFI (cfiCond58) ?RET_HIGH load(1, XDATA, add(CFA_XSP16, literal(-4)))
          CFI (cfiCond58) ?BRET_EXT load(1, XDATA, add(CFA_XSP16, literal(-3)))
          CFI (cfiCond58) DPL0 load(1, XDATA, add(CFA_XSP16, literal(-2)))
          CFI (cfiCond58) DPH0 load(1, XDATA, add(CFA_XSP16, literal(-1)))
          CFI (cfiCond58) CFA_SP SP+0
          CFI (cfiCond58) CFA_XSP16 add(XSP16, 15)
          CFI Block cfiPicker59 Using cfiCommon1
          CFI (cfiPicker59) NoFunction
          CFI (cfiPicker59) Picker
        MOV     A,?V0 + 2
        ADD     A,#0x1
        MOV     ?V0 + 2,A
        MOV     A,?V0 + 3
        ADDC    A,#0x0
        MOV     ?V0 + 3,A
        INC     R6
        RET
          CFI EndBlock cfiCond55
          CFI EndBlock cfiCond56
          CFI EndBlock cfiCond57
          CFI EndBlock cfiCond58
          CFI EndBlock cfiPicker59
//  576 
//  577 
//  578 /*******************************************************************************
//  579 //函数名：void Print(unsigned char y, unsigned char x, unsigned char ch[], unsigned short yn)
//  580 //功能：实现汉字及字母混合显示
//  581 //输入：x ,y 坐标,ch[]待显示的汉字或字母,yn是否反黑
//  582 //输出：无
//  583 ********************************************************************************/

        RSEG BANKED_CODE:CODE:NOROOT(0)
//  584 void Print(unsigned char y, unsigned char x, unsigned char ch[], unsigned short yn)
Print:
          CFI Block cfiBlock60 Using cfiCommon0
          CFI Function Print
        CODE
//  585 {
        FUNCALL Print, Print16
        LOCFRAME ISTACK, 0, STACK
        LOCFRAME PSTACK, 0, STACK
        LOCFRAME XSTACK, 25, STACK
        LOCFRAME IOVERLAY, 0, STATIC
        LOCFRAME DOVERLAY, 0, STATIC
        ARGFRAME ISTACK, 0, STACK
        ARGFRAME PSTACK, 0, STACK
        ARGFRAME XSTACK, 25, STACK
        ARGFRAME IOVERLAY, 0, STATIC
        ARGFRAME DOVERLAY, 0, STATIC
        FUNCALL Print, Print16_8
        LOCFRAME ISTACK, 0, STACK
        LOCFRAME PSTACK, 0, STACK
        LOCFRAME XSTACK, 25, STACK
        LOCFRAME IOVERLAY, 0, STATIC
        LOCFRAME DOVERLAY, 0, STATIC
        ARGFRAME ISTACK, 0, STACK
        ARGFRAME PSTACK, 0, STACK
        ARGFRAME XSTACK, 25, STACK
        ARGFRAME IOVERLAY, 0, STATIC
        ARGFRAME DOVERLAY, 0, STATIC
        MOV     A,#-0x12
        LCALL   ?BANKED_ENTER_XDATA
          CFI DPH0 load(1, XDATA, add(CFA_XSP16, literal(-1)))
          CFI DPL0 load(1, XDATA, add(CFA_XSP16, literal(-2)))
          CFI ?BRET_EXT load(1, XDATA, add(CFA_XSP16, literal(-3)))
          CFI ?RET_HIGH load(1, XDATA, add(CFA_XSP16, literal(-4)))
          CFI ?RET_LOW load(1, XDATA, add(CFA_XSP16, literal(-5)))
          CFI R7 load(1, XDATA, add(CFA_XSP16, literal(-6)))
          CFI V9 load(1, XDATA, add(CFA_XSP16, literal(-7)))
          CFI V8 load(1, XDATA, add(CFA_XSP16, literal(-8)))
          CFI V7 load(1, XDATA, add(CFA_XSP16, literal(-9)))
          CFI V6 load(1, XDATA, add(CFA_XSP16, literal(-10)))
          CFI V5 load(1, XDATA, add(CFA_XSP16, literal(-11)))
          CFI V4 load(1, XDATA, add(CFA_XSP16, literal(-12)))
          CFI V3 load(1, XDATA, add(CFA_XSP16, literal(-13)))
          CFI V2 load(1, XDATA, add(CFA_XSP16, literal(-14)))
          CFI V1 load(1, XDATA, add(CFA_XSP16, literal(-15)))
          CFI V0 load(1, XDATA, add(CFA_XSP16, literal(-16)))
          CFI VB load(1, XDATA, add(CFA_XSP16, literal(-17)))
          CFI R6 load(1, XDATA, add(CFA_XSP16, literal(-18)))
          CFI CFA_SP SP+0
          CFI CFA_XSP16 add(XSP16, 18)
        ; Saved register size: 18
        ; Auto size: 3
        MOV     A,#-0x3
        LCALL   ?ALLOC_XSTACK8
          CFI CFA_XSP16 add(XSP16, 21)
        MOV     ?V0 + 2,R2
        MOV     ?V0 + 0,R4
        MOV     ?V0 + 1,R5
//  586   unsigned char ch2[3];
//  587   unsigned char ii;
//  588   ii = 0;
        MOV     ?V0 + 4,#0x0
        MOV     DPL,R1
        MOV     R6,DPL
        MOV     A,#0x15
        LCALL   ?XSTACK_DISP0_8
        MOVX    A,@DPTR
        MOV     ?V0 + 6,A
        INC     DPTR
        MOVX    A,@DPTR
        MOV     ?V0 + 7,A
        SJMP    ??Print_0
//  589   while(ch[ii] != '\0')
//  590   {
//  591     if(ch[ii] > 128)
//  592     {
//  593       ch2[0] = ch[ii];
//  594       ch2[1] = ch[ii + 1];
??Print_1:
        MOV     DPL,R0
        MOV     DPH,R1
        INC     DPTR
        MOVX    A,@DPTR
        PUSH    A
          CFI CFA_SP SP+-1
        MOV     A,#0x1
        LCALL   ?XSTACK_DISP0_8
        POP     A
          CFI CFA_SP SP+0
        MOVX    @DPTR,A
//  595       ch2[2] = '\0';			//汉字为两个字节
        MOV     A,#0x2
        LCALL   ?XSTACK_DISP0_8
        CLR     A
        MOVX    @DPTR,A
//  596       Print16(y , x , ch2 , yn);	//显示汉字
        ; Setup parameters for call to function Print16
        MOV     R0,#?V0 + 6
        LCALL   ?PUSH_XSTACK_I_TWO
          CFI CFA_XSP16 add(XSP16, 23)
        MOV     A,#0x2
        LCALL   ?XSTACK_DISP0_8
        MOV     ?V0 + 8,DPL
        MOV     ?V0 + 9,DPH
        MOV     R0,#?V0 + 8
        LCALL   ?PUSH_XSTACK_I_TWO
          CFI CFA_XSP16 add(XSP16, 25)
        MOV     A,R6
        MOV     R2,A
        MOV     R3,#0x0
        LCALL   ??Print16?relay
        MOV     A,#0x4
        LCALL   ?DEALLOC_XSTACK8
          CFI CFA_XSP16 add(XSP16, 21)
//  597       x += 16;
        MOV     A,#0x10
        ADD     A,?V0 + 2
        MOV     ?V0 + 2,A
//  598       ii += 2;
        INC     ?V0 + 4
??Print_2:
        INC     ?V0 + 4
//  599     }
??Print_0:
        MOV     ?V0 + 8,?V0 + 4
        MOV     A,?V0 + 0
        ADD     A,?V0 + 8
        MOV     R0,A
        MOV     A,?V0 + 1
        ADDC    A,#0x0
        MOV     R1,A
        MOV     DPL,R0
        MOV     DPH,R1
        MOVX    A,@DPTR
        MOV     R2,A
        JZ      ??Print_3
        MOV     DPL,?V0 + 2
        MOV     R4,DPL
        MOV     R5,#0x0
        CLR     C
        SUBB    A,#-0x7f
        MOV     A,R2
        MOV     DPL,?XSP + 0
        MOV     DPH,?XSP + 1
        MOVX    @DPTR,A
        JNC     ??Print_1
//  600     else
//  601     {
//  602       ch2[0] = ch[ii];	
//  603       ch2[1] = '\0';			//字母占一个字节
        MOV     A,#0x1
        LCALL   ?XSTACK_DISP0_8
        CLR     A
        MOVX    @DPTR,A
//  604       Print16_8(y , x , ch2 , yn);	//显示字母
        ; Setup parameters for call to function Print16_8
        MOV     R0,#?V0 + 6
        LCALL   ?PUSH_XSTACK_I_TWO
          CFI CFA_XSP16 add(XSP16, 23)
        MOV     A,#0x2
        LCALL   ?XSTACK_DISP0_8
        MOV     ?V0 + 8,DPL
        MOV     ?V0 + 9,DPH
        MOV     R0,#?V0 + 8
        LCALL   ?PUSH_XSTACK_I_TWO
          CFI CFA_XSP16 add(XSP16, 25)
        MOV     A,R6
        MOV     R2,A
        MOV     R3,#0x0
        LCALL   ??Print16_8?relay
        MOV     A,#0x4
        LCALL   ?DEALLOC_XSTACK8
          CFI CFA_XSP16 add(XSP16, 21)
//  605       x += 8;
        MOV     A,#0x8
        ADD     A,?V0 + 2
        MOV     ?V0 + 2,A
//  606       ii += 1;
        SJMP    ??Print_2
//  607     }
//  608   }
//  609 }
??Print_3:
        MOV     A,#0x3
        LCALL   ?DEALLOC_XSTACK8
          CFI CFA_XSP16 add(XSP16, 18)
        LJMP    ?Subroutine5 & 0xFFFF
          CFI EndBlock cfiBlock60
//  610 
//  611 /*******************************************************************************
//  612 //函数名：void Rectangle(unsigned char x1,unsigned char y1,unsigned char x2,unsigned char y2)
//  613 //功能：画直线函数，本函数目前只能画水平和垂直线
//  614 //输入：x1,y1(第一个点)   x2,y2第二个点
//  615 //输出：无
//  616 ********************************************************************************/

        RSEG BANKED_CODE:CODE:NOROOT(0)
//  617 void Rectangle(unsigned char x1,unsigned char y1,unsigned char x2,unsigned char y2)
Rectangle:
          CFI Block cfiBlock61 Using cfiCommon0
          CFI Function Rectangle
        CODE
//  618 {
        FUNCALL Rectangle, SetRamAddr
        LOCFRAME ISTACK, 0, STACK
        LOCFRAME PSTACK, 0, STACK
        LOCFRAME XSTACK, 11, STACK
        LOCFRAME IOVERLAY, 0, STATIC
        LOCFRAME DOVERLAY, 0, STATIC
        ARGFRAME ISTACK, 0, STACK
        ARGFRAME PSTACK, 0, STACK
        ARGFRAME XSTACK, 11, STACK
        ARGFRAME IOVERLAY, 0, STATIC
        ARGFRAME DOVERLAY, 0, STATIC
        FUNCALL Rectangle, WriteLCD
        LOCFRAME ISTACK, 0, STACK
        LOCFRAME PSTACK, 0, STACK
        LOCFRAME XSTACK, 11, STACK
        LOCFRAME IOVERLAY, 0, STATIC
        LOCFRAME DOVERLAY, 0, STATIC
        ARGFRAME ISTACK, 0, STACK
        ARGFRAME PSTACK, 0, STACK
        ARGFRAME XSTACK, 11, STACK
        ARGFRAME IOVERLAY, 0, STATIC
        ARGFRAME DOVERLAY, 0, STATIC
        FUNCALL Rectangle, SetRamAddr
        LOCFRAME ISTACK, 0, STACK
        LOCFRAME PSTACK, 0, STACK
        LOCFRAME XSTACK, 11, STACK
        LOCFRAME IOVERLAY, 0, STATIC
        LOCFRAME DOVERLAY, 0, STATIC
        ARGFRAME ISTACK, 0, STACK
        ARGFRAME PSTACK, 0, STACK
        ARGFRAME XSTACK, 11, STACK
        ARGFRAME IOVERLAY, 0, STATIC
        ARGFRAME DOVERLAY, 0, STATIC
        FUNCALL Rectangle, WriteLCD
        LOCFRAME ISTACK, 0, STACK
        LOCFRAME PSTACK, 0, STACK
        LOCFRAME XSTACK, 11, STACK
        LOCFRAME IOVERLAY, 0, STATIC
        LOCFRAME DOVERLAY, 0, STATIC
        ARGFRAME ISTACK, 0, STACK
        ARGFRAME PSTACK, 0, STACK
        ARGFRAME XSTACK, 11, STACK
        ARGFRAME IOVERLAY, 0, STATIC
        ARGFRAME DOVERLAY, 0, STATIC
        FUNCALL Rectangle, SetRamAddr
        LOCFRAME ISTACK, 0, STACK
        LOCFRAME PSTACK, 0, STACK
        LOCFRAME XSTACK, 11, STACK
        LOCFRAME IOVERLAY, 0, STATIC
        LOCFRAME DOVERLAY, 0, STATIC
        ARGFRAME ISTACK, 0, STACK
        ARGFRAME PSTACK, 0, STACK
        ARGFRAME XSTACK, 11, STACK
        ARGFRAME IOVERLAY, 0, STATIC
        ARGFRAME DOVERLAY, 0, STATIC
        FUNCALL Rectangle, WriteLCD
        LOCFRAME ISTACK, 0, STACK
        LOCFRAME PSTACK, 0, STACK
        LOCFRAME XSTACK, 11, STACK
        LOCFRAME IOVERLAY, 0, STATIC
        LOCFRAME DOVERLAY, 0, STATIC
        ARGFRAME ISTACK, 0, STACK
        ARGFRAME PSTACK, 0, STACK
        ARGFRAME XSTACK, 11, STACK
        ARGFRAME IOVERLAY, 0, STATIC
        ARGFRAME DOVERLAY, 0, STATIC
        FUNCALL Rectangle, SetRamAddr
        LOCFRAME ISTACK, 0, STACK
        LOCFRAME PSTACK, 0, STACK
        LOCFRAME XSTACK, 11, STACK
        LOCFRAME IOVERLAY, 0, STATIC
        LOCFRAME DOVERLAY, 0, STATIC
        ARGFRAME ISTACK, 0, STACK
        ARGFRAME PSTACK, 0, STACK
        ARGFRAME XSTACK, 11, STACK
        ARGFRAME IOVERLAY, 0, STATIC
        ARGFRAME DOVERLAY, 0, STATIC
        FUNCALL Rectangle, WriteLCD
        LOCFRAME ISTACK, 0, STACK
        LOCFRAME PSTACK, 0, STACK
        LOCFRAME XSTACK, 11, STACK
        LOCFRAME IOVERLAY, 0, STATIC
        LOCFRAME DOVERLAY, 0, STATIC
        ARGFRAME ISTACK, 0, STACK
        ARGFRAME PSTACK, 0, STACK
        ARGFRAME XSTACK, 11, STACK
        ARGFRAME IOVERLAY, 0, STATIC
        ARGFRAME DOVERLAY, 0, STATIC
        FUNCALL Rectangle, SetRamAddr
        LOCFRAME ISTACK, 0, STACK
        LOCFRAME PSTACK, 0, STACK
        LOCFRAME XSTACK, 11, STACK
        LOCFRAME IOVERLAY, 0, STATIC
        LOCFRAME DOVERLAY, 0, STATIC
        ARGFRAME ISTACK, 0, STACK
        ARGFRAME PSTACK, 0, STACK
        ARGFRAME XSTACK, 11, STACK
        ARGFRAME IOVERLAY, 0, STATIC
        ARGFRAME DOVERLAY, 0, STATIC
        FUNCALL Rectangle, WriteLCD
        LOCFRAME ISTACK, 0, STACK
        LOCFRAME PSTACK, 0, STACK
        LOCFRAME XSTACK, 11, STACK
        LOCFRAME IOVERLAY, 0, STATIC
        LOCFRAME DOVERLAY, 0, STATIC
        ARGFRAME ISTACK, 0, STACK
        ARGFRAME PSTACK, 0, STACK
        ARGFRAME XSTACK, 11, STACK
        ARGFRAME IOVERLAY, 0, STATIC
        ARGFRAME DOVERLAY, 0, STATIC
        FUNCALL Rectangle, SetRamAddr
        LOCFRAME ISTACK, 0, STACK
        LOCFRAME PSTACK, 0, STACK
        LOCFRAME XSTACK, 11, STACK
        LOCFRAME IOVERLAY, 0, STATIC
        LOCFRAME DOVERLAY, 0, STATIC
        ARGFRAME ISTACK, 0, STACK
        ARGFRAME PSTACK, 0, STACK
        ARGFRAME XSTACK, 11, STACK
        ARGFRAME IOVERLAY, 0, STATIC
        ARGFRAME DOVERLAY, 0, STATIC
        FUNCALL Rectangle, WriteLCD
        LOCFRAME ISTACK, 0, STACK
        LOCFRAME PSTACK, 0, STACK
        LOCFRAME XSTACK, 11, STACK
        LOCFRAME IOVERLAY, 0, STATIC
        LOCFRAME DOVERLAY, 0, STATIC
        ARGFRAME ISTACK, 0, STACK
        ARGFRAME PSTACK, 0, STACK
        ARGFRAME XSTACK, 11, STACK
        ARGFRAME IOVERLAY, 0, STATIC
        ARGFRAME DOVERLAY, 0, STATIC
        FUNCALL Rectangle, SetRamAddr
        LOCFRAME ISTACK, 0, STACK
        LOCFRAME PSTACK, 0, STACK
        LOCFRAME XSTACK, 11, STACK
        LOCFRAME IOVERLAY, 0, STATIC
        LOCFRAME DOVERLAY, 0, STATIC
        ARGFRAME ISTACK, 0, STACK
        ARGFRAME PSTACK, 0, STACK
        ARGFRAME XSTACK, 11, STACK
        ARGFRAME IOVERLAY, 0, STATIC
        ARGFRAME DOVERLAY, 0, STATIC
        FUNCALL Rectangle, WriteLCD
        LOCFRAME ISTACK, 0, STACK
        LOCFRAME PSTACK, 0, STACK
        LOCFRAME XSTACK, 11, STACK
        LOCFRAME IOVERLAY, 0, STATIC
        LOCFRAME DOVERLAY, 0, STATIC
        ARGFRAME ISTACK, 0, STACK
        ARGFRAME PSTACK, 0, STACK
        ARGFRAME XSTACK, 11, STACK
        ARGFRAME IOVERLAY, 0, STATIC
        ARGFRAME DOVERLAY, 0, STATIC
        FUNCALL Rectangle, SetRamAddr
        LOCFRAME ISTACK, 0, STACK
        LOCFRAME PSTACK, 0, STACK
        LOCFRAME XSTACK, 11, STACK
        LOCFRAME IOVERLAY, 0, STATIC
        LOCFRAME DOVERLAY, 0, STATIC
        ARGFRAME ISTACK, 0, STACK
        ARGFRAME PSTACK, 0, STACK
        ARGFRAME XSTACK, 11, STACK
        ARGFRAME IOVERLAY, 0, STATIC
        ARGFRAME DOVERLAY, 0, STATIC
        FUNCALL Rectangle, WriteLCD
        LOCFRAME ISTACK, 0, STACK
        LOCFRAME PSTACK, 0, STACK
        LOCFRAME XSTACK, 11, STACK
        LOCFRAME IOVERLAY, 0, STATIC
        LOCFRAME DOVERLAY, 0, STATIC
        ARGFRAME ISTACK, 0, STACK
        ARGFRAME PSTACK, 0, STACK
        ARGFRAME XSTACK, 11, STACK
        ARGFRAME IOVERLAY, 0, STATIC
        ARGFRAME DOVERLAY, 0, STATIC
        MOV     A,#-0xb
        LCALL   ?BANKED_ENTER_XDATA
          CFI DPH0 load(1, XDATA, add(CFA_XSP16, literal(-1)))
          CFI DPL0 load(1, XDATA, add(CFA_XSP16, literal(-2)))
          CFI ?BRET_EXT load(1, XDATA, add(CFA_XSP16, literal(-3)))
          CFI ?RET_HIGH load(1, XDATA, add(CFA_XSP16, literal(-4)))
          CFI ?RET_LOW load(1, XDATA, add(CFA_XSP16, literal(-5)))
          CFI R7 load(1, XDATA, add(CFA_XSP16, literal(-6)))
          CFI V2 load(1, XDATA, add(CFA_XSP16, literal(-7)))
          CFI V1 load(1, XDATA, add(CFA_XSP16, literal(-8)))
          CFI V0 load(1, XDATA, add(CFA_XSP16, literal(-9)))
          CFI VB load(1, XDATA, add(CFA_XSP16, literal(-10)))
          CFI R6 load(1, XDATA, add(CFA_XSP16, literal(-11)))
          CFI CFA_SP SP+0
          CFI CFA_XSP16 add(XSP16, 11)
        ; Saved register size: 11
        ; Auto size: 0
        MOV     ?V0 + 2,R1
        MOV     ?V0 + 1,R2
        MOV     ?V0 + 0,R3
        MOV     A,R4
        MOV     R7,A
//  619   
//  620   unsigned char ii;
//  621   
//  622   for(ii=x1; ii<x2; ii++)
        MOV     R6,?V0 + 2
        SJMP    ??Rectangle_0
//  623   {		
//  624     SetRamAddr(y1,ii);
??Rectangle_1:
        ; Setup parameters for call to function SetRamAddr
        MOV     A,R6
        MOV     R2,A
        MOV     R1,?V0 + 1
        LCALL   ??SetRamAddr?relay
//  625     WriteLCD(DATA , 0x08);	//画横线
        ; Setup parameters for call to function WriteLCD
        MOV     R2,#0x8
        MOV     R1,#0x1
        LCALL   ??WriteLCD?relay
//  626     SetRamAddr(y2,ii);
        ; Setup parameters for call to function SetRamAddr
        MOV     A,R6
        MOV     R2,A
        MOV     A,R7
        MOV     R1,A
        LCALL   ??SetRamAddr?relay
//  627     WriteLCD(DATA , 0x08);
        ; Setup parameters for call to function WriteLCD
        MOV     R2,#0x8
        MOV     R1,#0x1
        LCALL   ??WriteLCD?relay
//  628   }
        INC     R6
??Rectangle_0:
        MOV     A,R6
        CLR     C
        SUBB    A,?V0 + 0
        JC      ??Rectangle_1
//  629   SetRamAddr(y1,x1);
        ; Setup parameters for call to function SetRamAddr
        MOV     R2,?V0 + 2
        MOV     R1,?V0 + 1
        LCALL   ??SetRamAddr?relay
//  630   WriteLCD(DATA , 0xF0);
        ; Setup parameters for call to function WriteLCD
        MOV     R2,#-0x10
        MOV     R1,#0x1
        LCALL   ??WriteLCD?relay
//  631   SetRamAddr(y1,x2);
        ; Setup parameters for call to function SetRamAddr
        MOV     R2,?V0 + 0
        MOV     R1,?V0 + 1
        LCALL   ??SetRamAddr?relay
//  632   WriteLCD(DATA , 0xf0);
        ; Setup parameters for call to function WriteLCD
        MOV     R2,#-0x10
        MOV     R1,#0x1
        LCALL   ??WriteLCD?relay
//  633   
//  634   for(ii = y1+1;ii<y2;ii++)
        MOV     A,#0x1
        ADD     A,?V0 + 1
        MOV     R6,A
        SJMP    ??Rectangle_2
//  635   {		
//  636     SetRamAddr(ii,x1);
??Rectangle_3:
        ; Setup parameters for call to function SetRamAddr
        MOV     A,R6
        MOV     R1,A
        LCALL   ??SetRamAddr?relay
//  637     WriteLCD(DATA , 0xFF);
        ; Setup parameters for call to function WriteLCD
        MOV     R2,#-0x1
        MOV     R1,#0x1
        LCALL   ??WriteLCD?relay
//  638     SetRamAddr(ii,x2);//画竖线
        ; Setup parameters for call to function SetRamAddr
        MOV     R2,?V0 + 0
        MOV     A,R6
        MOV     R1,A
        LCALL   ??SetRamAddr?relay
//  639     WriteLCD(DATA , 0xFF);
        ; Setup parameters for call to function WriteLCD
        MOV     R2,#-0x1
        MOV     R1,#0x1
        LCALL   ??WriteLCD?relay
//  640   }
        INC     R6
??Rectangle_2:
        MOV     A,R6
        CLR     C
        SUBB    A,R7
        MOV     R2,?V0 + 2
        JC      ??Rectangle_3
//  641   
//  642   SetRamAddr(y2,x1);
        ; Setup parameters for call to function SetRamAddr
        MOV     A,R7
        MOV     R1,A
        LCALL   ??SetRamAddr?relay
//  643   WriteLCD(DATA , 0x0F);
        ; Setup parameters for call to function WriteLCD
        MOV     R2,#0xf
        MOV     R1,#0x1
        LCALL   ??WriteLCD?relay
//  644   SetRamAddr(y2,x2);
        ; Setup parameters for call to function SetRamAddr
        MOV     R2,?V0 + 0
        MOV     A,R7
        MOV     R1,A
        LCALL   ??SetRamAddr?relay
//  645   WriteLCD(DATA , 0x0F);
        ; Setup parameters for call to function WriteLCD
        MOV     R2,#0xf
        MOV     R1,#0x1
        LCALL   ??WriteLCD?relay
//  646 }
        MOV     R7,#0x3
        LJMP    ?BANKED_LEAVE_XDATA
          CFI EndBlock cfiBlock61
//  647 
//  648 
//  649 
//  650 /*******************************************************************************
//  651 //函数名：void LoadICO(void)
//  652 //功能：打开一个指定指针的图标
//  653 //输入：
//  654 //输出：无
//  655 ********************************************************************************/

        RSEG BANKED_CODE:CODE:NOROOT(0)
//  656 void LoadICO(void)
LoadICO:
          CFI Block cfiBlock62 Using cfiCommon0
          CFI Function LoadICO
        CODE
//  657 {
        FUNCALL LoadICO, SetRamAddr
        LOCFRAME ISTACK, 0, STACK
        LOCFRAME PSTACK, 0, STACK
        LOCFRAME XSTACK, 12, STACK
        LOCFRAME IOVERLAY, 0, STATIC
        LOCFRAME DOVERLAY, 0, STATIC
        ARGFRAME ISTACK, 0, STACK
        ARGFRAME PSTACK, 0, STACK
        ARGFRAME XSTACK, 12, STACK
        ARGFRAME IOVERLAY, 0, STATIC
        ARGFRAME DOVERLAY, 0, STATIC
        FUNCALL LoadICO, WriteLCD
        LOCFRAME ISTACK, 0, STACK
        LOCFRAME PSTACK, 0, STACK
        LOCFRAME XSTACK, 12, STACK
        LOCFRAME IOVERLAY, 0, STATIC
        LOCFRAME DOVERLAY, 0, STATIC
        ARGFRAME ISTACK, 0, STACK
        ARGFRAME PSTACK, 0, STACK
        ARGFRAME XSTACK, 12, STACK
        ARGFRAME IOVERLAY, 0, STATIC
        ARGFRAME DOVERLAY, 0, STATIC
        MOV     A,#-0xc
        LCALL   ?BANKED_ENTER_XDATA
          CFI DPH0 load(1, XDATA, add(CFA_XSP16, literal(-1)))
          CFI DPL0 load(1, XDATA, add(CFA_XSP16, literal(-2)))
          CFI ?BRET_EXT load(1, XDATA, add(CFA_XSP16, literal(-3)))
          CFI ?RET_HIGH load(1, XDATA, add(CFA_XSP16, literal(-4)))
          CFI ?RET_LOW load(1, XDATA, add(CFA_XSP16, literal(-5)))
          CFI R7 load(1, XDATA, add(CFA_XSP16, literal(-6)))
          CFI V3 load(1, XDATA, add(CFA_XSP16, literal(-7)))
          CFI V2 load(1, XDATA, add(CFA_XSP16, literal(-8)))
          CFI V1 load(1, XDATA, add(CFA_XSP16, literal(-9)))
          CFI V0 load(1, XDATA, add(CFA_XSP16, literal(-10)))
          CFI VB load(1, XDATA, add(CFA_XSP16, literal(-11)))
          CFI R6 load(1, XDATA, add(CFA_XSP16, literal(-12)))
          CFI CFA_SP SP+0
          CFI CFA_XSP16 add(XSP16, 12)
        ; Saved register size: 12
        ; Auto size: 0
//  658   
//  659   unsigned char i,j;
//  660   for(i=0; i<8; i++)
        MOV     R7,#0x0
//  661   {
//  662     SetRamAddr(i , 0);
??LoadICO_0:
        ; Setup parameters for call to function SetRamAddr
        MOV     R2,#0x0
        MOV     A,R7
        MOV     R1,A
        LCALL   ??SetRamAddr?relay
//  663     for(j = 0;j < 128;j++)
        MOV     R6,#0x0
//  664     {
//  665       WriteLCD(DATA, ICO[j+i*128]);
??LoadICO_1:
        ; Setup parameters for call to function WriteLCD
        MOV     ?V0 + 2,R6
        MOV     ?V0 + 0,R7
        MOV     ?V0 + 1,#0x0
        MOV     A,#0x7
        MOV     R0,#?V0 + 0
        LCALL   ?S_SHL
        MOV     A,?V0 + 2
        ADD     A,?V0 + 0
        MOV     R0,A
        CLR     A
        ADDC    A,?V0 + 1
        MOV     R1,A
        MOV     A,#ICO & 0xff
        ADD     A,R0
        MOV     DPL,A
        MOV     A,#(ICO >> 8) & 0xff
        LCALL   ?Subroutine16 & 0xFFFF
//  666     }
??CrossCallReturnLabel_17:
        LCALL   ??WriteLCD?relay
        INC     R6
        MOV     A,R6
        CLR     C
        SUBB    A,#-0x80
        JC      ??LoadICO_1
//  667   }
        INC     R7
        MOV     A,R7
        CLR     C
        SUBB    A,#0x8
        JC      ??LoadICO_0
          CFI EndBlock cfiBlock62
//  668 }
        REQUIRE ?Subroutine6
        ; // Fall through to label ?Subroutine6

        RSEG BANKED_CODE:CODE:NOROOT(0)
?Subroutine6:
          CFI Block cfiBlock63 Using cfiCommon0
          CFI NoFunction
          CFI CFA_SP SP+0
          CFI CFA_XSP16 add(XSP16, 12)
          CFI VB load(1, XDATA, add(CFA_XSP16, literal(-11)))
          CFI DPL0 load(1, XDATA, add(CFA_XSP16, literal(-2)))
          CFI DPH0 load(1, XDATA, add(CFA_XSP16, literal(-1)))
          CFI R6 load(1, XDATA, add(CFA_XSP16, literal(-12)))
          CFI R7 load(1, XDATA, add(CFA_XSP16, literal(-6)))
          CFI V0 load(1, XDATA, add(CFA_XSP16, literal(-10)))
          CFI V1 load(1, XDATA, add(CFA_XSP16, literal(-9)))
          CFI V2 load(1, XDATA, add(CFA_XSP16, literal(-8)))
          CFI V3 load(1, XDATA, add(CFA_XSP16, literal(-7)))
          CFI ?BRET_EXT load(1, XDATA, add(CFA_XSP16, literal(-3)))
          CFI ?RET_HIGH load(1, XDATA, add(CFA_XSP16, literal(-4)))
          CFI ?RET_LOW load(1, XDATA, add(CFA_XSP16, literal(-5)))
        MOV     R7,#0x4
        LJMP    ?BANKED_LEAVE_XDATA
          CFI EndBlock cfiBlock63
//  669 
//  670 
//  671 /*******************************************************************************
//  672 //函数名：void Printn(unsigned char xx ,unsigned char yy , unsigned long no,unsigned char yn,unsigned char le)
//  673 //功能：显示一个6*8无符号数据
//  674 //输入：xx , yy屏幕当中位置,no待显示数据 yn=0正常显示 yn=1反黑显示  le有效位
//  675 //输出：无
//  676 ********************************************************************************/

        RSEG BANKED_CODE:CODE:NOROOT(0)
//  677 void Printn(unsigned char xx ,unsigned char yy , unsigned long no,unsigned char yn,unsigned char le)
Printn:
          CFI Block cfiBlock64 Using cfiCommon0
          CFI Function Printn
        CODE
//  678 {
        FUNCALL Printn, Print6
        LOCFRAME ISTACK, 0, STACK
        LOCFRAME PSTACK, 0, STACK
        LOCFRAME XSTACK, 28, STACK
        LOCFRAME IOVERLAY, 0, STATIC
        LOCFRAME DOVERLAY, 0, STATIC
        ARGFRAME ISTACK, 0, STACK
        ARGFRAME PSTACK, 0, STACK
        ARGFRAME XSTACK, 28, STACK
        ARGFRAME IOVERLAY, 0, STATIC
        ARGFRAME DOVERLAY, 0, STATIC
        MOV     A,#-0x16
        LCALL   ?BANKED_ENTER_XDATA
          CFI DPH0 load(1, XDATA, add(CFA_XSP16, literal(-1)))
          CFI DPL0 load(1, XDATA, add(CFA_XSP16, literal(-2)))
          CFI ?BRET_EXT load(1, XDATA, add(CFA_XSP16, literal(-3)))
          CFI ?RET_HIGH load(1, XDATA, add(CFA_XSP16, literal(-4)))
          CFI ?RET_LOW load(1, XDATA, add(CFA_XSP16, literal(-5)))
          CFI R7 load(1, XDATA, add(CFA_XSP16, literal(-6)))
          CFI V13 load(1, XDATA, add(CFA_XSP16, literal(-7)))
          CFI V12 load(1, XDATA, add(CFA_XSP16, literal(-8)))
          CFI V11 load(1, XDATA, add(CFA_XSP16, literal(-9)))
          CFI V10 load(1, XDATA, add(CFA_XSP16, literal(-10)))
          CFI V9 load(1, XDATA, add(CFA_XSP16, literal(-11)))
          CFI V8 load(1, XDATA, add(CFA_XSP16, literal(-12)))
          CFI V7 load(1, XDATA, add(CFA_XSP16, literal(-13)))
          CFI V6 load(1, XDATA, add(CFA_XSP16, literal(-14)))
          CFI V5 load(1, XDATA, add(CFA_XSP16, literal(-15)))
          CFI V4 load(1, XDATA, add(CFA_XSP16, literal(-16)))
          CFI V3 load(1, XDATA, add(CFA_XSP16, literal(-17)))
          CFI V2 load(1, XDATA, add(CFA_XSP16, literal(-18)))
          CFI V1 load(1, XDATA, add(CFA_XSP16, literal(-19)))
          CFI V0 load(1, XDATA, add(CFA_XSP16, literal(-20)))
          CFI VB load(1, XDATA, add(CFA_XSP16, literal(-21)))
          CFI R6 load(1, XDATA, add(CFA_XSP16, literal(-22)))
          CFI CFA_SP SP+0
          CFI CFA_XSP16 add(XSP16, 22)
        ; Saved register size: 22
        ; Auto size: 6
        MOV     A,#-0x6
        LCALL   ?ALLOC_XSTACK8
          CFI CFA_XSP16 add(XSP16, 28)
        MOV     ?V0 + 13,R1
        MOV     ?V0 + 12,R2
        MOV     A,R4
        MOV     R6,A
//  679   unsigned char ch2[6];
//  680   unsigned char ii;
//  681   
//  682   for(ii = 1 ; ii <= le ;)
        MOV     R4,#0x1
        MOV     DPL,R6
        MOV     R2,DPL
        MOV     A,#0x1c
        LCALL   ?XSTACK_DISP0_8
        MOV     R0,#?V0 + 0
        LCALL   ?L_MOV_X
        SJMP    ??Printn_0
//  683   {
//  684     ch2[le - ii] = no % 10 + 0x30;
??Printn_1:
        MOV     ?V0 + 4,?V0 + 0
        MOV     ?V0 + 5,?V0 + 1
        MOV     ?V0 + 6,?V0 + 2
        MOV     ?V0 + 7,?V0 + 3
        MOV     DPTR,#__Constant_a
        MOV     R0,#?V0 + 8
        LCALL   ?L_MOV_X
        MOV     R0,#?V0 + 4
        MOV     R1,#?V0 + 8
        LCALL   ?UL_DIV_MOD
        MOV     A,?V0 + 8
        ADD     A,#0x30
        PUSH    A
          CFI CFA_SP SP+-1
        LCALL   ?Subroutine14 & 0xFFFF
??CrossCallReturnLabel_16:
        POP     A
          CFI CFA_SP SP+0
        MOVX    @DPTR,A
//  685     no /= 10;
        MOV     DPTR,#__Constant_a
        MOV     R0,#?V0 + 4
        LCALL   ?L_MOV_X
        MOV     R0,#?V0 + 0
        MOV     R1,#?V0 + 4
        LCALL   ?UL_DIV_MOD
//  686     ii += 1;
        INC     R4
//  687   }
??Printn_0:
        MOV     A,R6
        CLR     C
        SUBB    A,R4
        JNC     ??Printn_1
//  688   ch2[le] = '\0';
        LCALL   ?Subroutine18 & 0xFFFF
//  689   Print6(xx ,yy ,ch2 ,yn);
??CrossCallReturnLabel_23:
        ; Setup parameters for call to function Print6
        MOV     DPL,?XSP + 0
        MOV     DPH,?XSP + 1
        MOV     R4,DPL
        MOV     R5,DPH
        MOV     R2,?V0 + 12
        MOV     R1,?V0 + 13
        LCALL   ??Print6?relay
//  690 }
        LJMP    ?Subroutine3 & 0xFFFF
          CFI EndBlock cfiBlock64

        RSEG BANKED_CODE:CODE:NOROOT(0)
?Subroutine18:
          CFI Block cfiCond65 Using cfiCommon0
          CFI Function Printn8
          CFI Conditional ??CrossCallReturnLabel_22
          CFI R6 load(1, XDATA, add(CFA_XSP16, literal(-22)))
          CFI VB load(1, XDATA, add(CFA_XSP16, literal(-21)))
          CFI V0 load(1, XDATA, add(CFA_XSP16, literal(-20)))
          CFI V1 load(1, XDATA, add(CFA_XSP16, literal(-19)))
          CFI V2 load(1, XDATA, add(CFA_XSP16, literal(-18)))
          CFI V3 load(1, XDATA, add(CFA_XSP16, literal(-17)))
          CFI V4 load(1, XDATA, add(CFA_XSP16, literal(-16)))
          CFI V5 load(1, XDATA, add(CFA_XSP16, literal(-15)))
          CFI V6 load(1, XDATA, add(CFA_XSP16, literal(-14)))
          CFI V7 load(1, XDATA, add(CFA_XSP16, literal(-13)))
          CFI V8 load(1, XDATA, add(CFA_XSP16, literal(-12)))
          CFI V9 load(1, XDATA, add(CFA_XSP16, literal(-11)))
          CFI V10 load(1, XDATA, add(CFA_XSP16, literal(-10)))
          CFI V11 load(1, XDATA, add(CFA_XSP16, literal(-9)))
          CFI V12 load(1, XDATA, add(CFA_XSP16, literal(-8)))
          CFI V13 load(1, XDATA, add(CFA_XSP16, literal(-7)))
          CFI R7 load(1, XDATA, add(CFA_XSP16, literal(-6)))
          CFI ?RET_LOW load(1, XDATA, add(CFA_XSP16, literal(-5)))
          CFI ?RET_HIGH load(1, XDATA, add(CFA_XSP16, literal(-4)))
          CFI ?BRET_EXT load(1, XDATA, add(CFA_XSP16, literal(-3)))
          CFI DPL0 load(1, XDATA, add(CFA_XSP16, literal(-2)))
          CFI DPH0 load(1, XDATA, add(CFA_XSP16, literal(-1)))
          CFI CFA_SP SP+0
          CFI CFA_XSP16 add(XSP16, 28)
          CFI Block cfiCond66 Using cfiCommon0
          CFI (cfiCond66) Function Printn
          CFI (cfiCond66) Conditional ??CrossCallReturnLabel_23
          CFI (cfiCond66) R6 load(1, XDATA, add(CFA_XSP16, literal(-22)))
          CFI (cfiCond66) VB load(1, XDATA, add(CFA_XSP16, literal(-21)))
          CFI (cfiCond66) V0 load(1, XDATA, add(CFA_XSP16, literal(-20)))
          CFI (cfiCond66) V1 load(1, XDATA, add(CFA_XSP16, literal(-19)))
          CFI (cfiCond66) V2 load(1, XDATA, add(CFA_XSP16, literal(-18)))
          CFI (cfiCond66) V3 load(1, XDATA, add(CFA_XSP16, literal(-17)))
          CFI (cfiCond66) V4 load(1, XDATA, add(CFA_XSP16, literal(-16)))
          CFI (cfiCond66) V5 load(1, XDATA, add(CFA_XSP16, literal(-15)))
          CFI (cfiCond66) V6 load(1, XDATA, add(CFA_XSP16, literal(-14)))
          CFI (cfiCond66) V7 load(1, XDATA, add(CFA_XSP16, literal(-13)))
          CFI (cfiCond66) V8 load(1, XDATA, add(CFA_XSP16, literal(-12)))
          CFI (cfiCond66) V9 load(1, XDATA, add(CFA_XSP16, literal(-11)))
          CFI (cfiCond66) V10 load(1, XDATA, add(CFA_XSP16, literal(-10)))
          CFI (cfiCond66) V11 load(1, XDATA, add(CFA_XSP16, literal(-9)))
          CFI (cfiCond66) V12 load(1, XDATA, add(CFA_XSP16, literal(-8)))
          CFI (cfiCond66) V13 load(1, XDATA, add(CFA_XSP16, literal(-7)))
          CFI (cfiCond66) R7 load(1, XDATA, add(CFA_XSP16, literal(-6)))
          CFI (cfiCond66) ?RET_LOW load(1, XDATA, add(CFA_XSP16, literal(-5)))
          CFI (cfiCond66) ?RET_HIGH load(1, XDATA, add(CFA_XSP16, literal(-4)))
          CFI (cfiCond66) ?BRET_EXT load(1, XDATA, add(CFA_XSP16, literal(-3)))
          CFI (cfiCond66) DPL0 load(1, XDATA, add(CFA_XSP16, literal(-2)))
          CFI (cfiCond66) DPH0 load(1, XDATA, add(CFA_XSP16, literal(-1)))
          CFI (cfiCond66) CFA_SP SP+0
          CFI (cfiCond66) CFA_XSP16 add(XSP16, 28)
          CFI Block cfiPicker67 Using cfiCommon1
          CFI (cfiPicker67) NoFunction
          CFI (cfiPicker67) Picker
        MOV     DPL,?XSP + 0
        MOV     DPH,?XSP + 1
        MOV     A,DPL
        ADD     A,R2
        MOV     DPL,A
        MOV     A,DPH
        ADDC    A,#0x0
        MOV     DPH,A
        CLR     A
        MOVX    @DPTR,A
        RET
          CFI EndBlock cfiCond65
          CFI EndBlock cfiCond66
          CFI EndBlock cfiPicker67

        RSEG BANKED_CODE:CODE:NOROOT(0)
?Subroutine14:
          CFI Block cfiCond68 Using cfiCommon0
          CFI Function Printn8
          CFI Conditional ??CrossCallReturnLabel_15
          CFI R6 load(1, XDATA, add(CFA_XSP16, literal(-22)))
          CFI VB load(1, XDATA, add(CFA_XSP16, literal(-21)))
          CFI V0 load(1, XDATA, add(CFA_XSP16, literal(-20)))
          CFI V1 load(1, XDATA, add(CFA_XSP16, literal(-19)))
          CFI V2 load(1, XDATA, add(CFA_XSP16, literal(-18)))
          CFI V3 load(1, XDATA, add(CFA_XSP16, literal(-17)))
          CFI V4 load(1, XDATA, add(CFA_XSP16, literal(-16)))
          CFI V5 load(1, XDATA, add(CFA_XSP16, literal(-15)))
          CFI V6 load(1, XDATA, add(CFA_XSP16, literal(-14)))
          CFI V7 load(1, XDATA, add(CFA_XSP16, literal(-13)))
          CFI V8 load(1, XDATA, add(CFA_XSP16, literal(-12)))
          CFI V9 load(1, XDATA, add(CFA_XSP16, literal(-11)))
          CFI V10 load(1, XDATA, add(CFA_XSP16, literal(-10)))
          CFI V11 load(1, XDATA, add(CFA_XSP16, literal(-9)))
          CFI V12 load(1, XDATA, add(CFA_XSP16, literal(-8)))
          CFI V13 load(1, XDATA, add(CFA_XSP16, literal(-7)))
          CFI R7 load(1, XDATA, add(CFA_XSP16, literal(-6)))
          CFI ?RET_LOW load(1, XDATA, add(CFA_XSP16, literal(-5)))
          CFI ?RET_HIGH load(1, XDATA, add(CFA_XSP16, literal(-4)))
          CFI ?BRET_EXT load(1, XDATA, add(CFA_XSP16, literal(-3)))
          CFI DPL0 load(1, XDATA, add(CFA_XSP16, literal(-2)))
          CFI DPH0 load(1, XDATA, add(CFA_XSP16, literal(-1)))
          CFI CFA_SP SP+-1
          CFI CFA_XSP16 add(XSP16, 28)
          CFI Block cfiCond69 Using cfiCommon0
          CFI (cfiCond69) Function Printn
          CFI (cfiCond69) Conditional ??CrossCallReturnLabel_16
          CFI (cfiCond69) R6 load(1, XDATA, add(CFA_XSP16, literal(-22)))
          CFI (cfiCond69) VB load(1, XDATA, add(CFA_XSP16, literal(-21)))
          CFI (cfiCond69) V0 load(1, XDATA, add(CFA_XSP16, literal(-20)))
          CFI (cfiCond69) V1 load(1, XDATA, add(CFA_XSP16, literal(-19)))
          CFI (cfiCond69) V2 load(1, XDATA, add(CFA_XSP16, literal(-18)))
          CFI (cfiCond69) V3 load(1, XDATA, add(CFA_XSP16, literal(-17)))
          CFI (cfiCond69) V4 load(1, XDATA, add(CFA_XSP16, literal(-16)))
          CFI (cfiCond69) V5 load(1, XDATA, add(CFA_XSP16, literal(-15)))
          CFI (cfiCond69) V6 load(1, XDATA, add(CFA_XSP16, literal(-14)))
          CFI (cfiCond69) V7 load(1, XDATA, add(CFA_XSP16, literal(-13)))
          CFI (cfiCond69) V8 load(1, XDATA, add(CFA_XSP16, literal(-12)))
          CFI (cfiCond69) V9 load(1, XDATA, add(CFA_XSP16, literal(-11)))
          CFI (cfiCond69) V10 load(1, XDATA, add(CFA_XSP16, literal(-10)))
          CFI (cfiCond69) V11 load(1, XDATA, add(CFA_XSP16, literal(-9)))
          CFI (cfiCond69) V12 load(1, XDATA, add(CFA_XSP16, literal(-8)))
          CFI (cfiCond69) V13 load(1, XDATA, add(CFA_XSP16, literal(-7)))
          CFI (cfiCond69) R7 load(1, XDATA, add(CFA_XSP16, literal(-6)))
          CFI (cfiCond69) ?RET_LOW load(1, XDATA, add(CFA_XSP16, literal(-5)))
          CFI (cfiCond69) ?RET_HIGH load(1, XDATA, add(CFA_XSP16, literal(-4)))
          CFI (cfiCond69) ?BRET_EXT load(1, XDATA, add(CFA_XSP16, literal(-3)))
          CFI (cfiCond69) DPL0 load(1, XDATA, add(CFA_XSP16, literal(-2)))
          CFI (cfiCond69) DPH0 load(1, XDATA, add(CFA_XSP16, literal(-1)))
          CFI (cfiCond69) CFA_SP SP+-1
          CFI (cfiCond69) CFA_XSP16 add(XSP16, 28)
          CFI Block cfiPicker70 Using cfiCommon1
          CFI (cfiPicker70) NoFunction
          CFI (cfiPicker70) Picker
        MOV     ?V0 + 4,R4
        MOV     A,R2
        CLR     C
        SUBB    A,?V0 + 4
        MOV     R0,A
        SUBB    A,0xE0 /* A   */
        MOV     R1,A
        MOV     DPL,?XSP + 0
        MOV     DPH,?XSP + 1
        MOV     A,DPL
        ADD     A,R0
        MOV     DPL,A
        MOV     A,DPH
        ADDC    A,R1
        MOV     DPH,A
        RET
          CFI EndBlock cfiCond68
          CFI EndBlock cfiCond69
          CFI EndBlock cfiPicker70
//  691 
//  692 /*******************************************************************************
//  693 //函数名：void LcdPowerON(void)
//  694 //功能：打开LCD电源
//  695 //输入：无
//  696 //输出：无
//  697 ********************************************************************************/

        RSEG BANKED_CODE:CODE:NOROOT(0)
//  698 void LcdPowerON(void)
LcdPowerON:
          CFI Block cfiBlock71 Using cfiCommon0
          CFI Function LcdPowerON
        CODE
//  699 {
        FUNCALL LcdPowerON, WriteLCD
        LOCFRAME ISTACK, 2, STACK
        LOCFRAME PSTACK, 0, STACK
        LOCFRAME XSTACK, 0, STACK
        LOCFRAME IOVERLAY, 0, STATIC
        LOCFRAME DOVERLAY, 0, STATIC
        ARGFRAME ISTACK, 2, STACK
        ARGFRAME PSTACK, 0, STACK
        ARGFRAME XSTACK, 0, STACK
        ARGFRAME IOVERLAY, 0, STATIC
        ARGFRAME DOVERLAY, 0, STATIC
        PUSH    DPL
          CFI DPL0 Frame(CFA_SP, 4)
          CFI CFA_SP SP+-4
        PUSH    DPH
          CFI DPH0 Frame(CFA_SP, 5)
          CFI CFA_SP SP+-5
        ; Saved register size: 2
        ; Auto size: 0
//  700   WriteLCD(COMMAND,DisplayOn);
        ; Setup parameters for call to function WriteLCD
        LJMP    ?Subroutine0 & 0xFFFF
          CFI EndBlock cfiBlock71
//  701 }
//  702 
//  703 /*******************************************************************************
//  704 //函数名：void LcdPowerOFF(void)
//  705 //功能：关闭LCD电源
//  706 //输入：无
//  707 //输出：无
//  708 ********************************************************************************/

        RSEG BANKED_CODE:CODE:NOROOT(0)
//  709 void LcdPowerOFF(void)
LcdPowerOFF:
          CFI Block cfiBlock72 Using cfiCommon0
          CFI Function LcdPowerOFF
        CODE
//  710 {
        FUNCALL LcdPowerOFF, WriteLCD
        LOCFRAME ISTACK, 2, STACK
        LOCFRAME PSTACK, 0, STACK
        LOCFRAME XSTACK, 0, STACK
        LOCFRAME IOVERLAY, 0, STATIC
        LOCFRAME DOVERLAY, 0, STATIC
        ARGFRAME ISTACK, 2, STACK
        ARGFRAME PSTACK, 0, STACK
        ARGFRAME XSTACK, 0, STACK
        ARGFRAME IOVERLAY, 0, STATIC
        ARGFRAME DOVERLAY, 0, STATIC
        PUSH    DPL
          CFI DPL0 Frame(CFA_SP, 4)
          CFI CFA_SP SP+-4
        PUSH    DPH
          CFI DPH0 Frame(CFA_SP, 5)
          CFI CFA_SP SP+-5
        ; Saved register size: 2
        ; Auto size: 0
//  711   WriteLCD(COMMAND,DisplayOff);
        ; Setup parameters for call to function WriteLCD
        MOV     R2,#-0x52
        LJMP    ??Subroutine20_0 & 0xFFFF
          CFI EndBlock cfiBlock72
//  712 }
//  713 
//  714 /*******************************************************************************
//  715 //函数名：void PrintWirelessQuality(x)
//  716 //功能：显示无线信号强度
//  717 //输入：x为信号强度输入
//  718 //输出：无
//  719 ********************************************************************************/

        RSEG BANKED_CODE:CODE:NOROOT(0)
//  720 void PrintWirelessQuality(unsigned char x)		
PrintWirelessQuality:
          CFI Block cfiBlock73 Using cfiCommon0
          CFI Function PrintWirelessQuality
        CODE
//  721 {
        FUNCALL PrintWirelessQuality, SetRamAddr
        LOCFRAME ISTACK, 0, STACK
        LOCFRAME PSTACK, 0, STACK
        LOCFRAME XSTACK, 12, STACK
        LOCFRAME IOVERLAY, 0, STATIC
        LOCFRAME DOVERLAY, 0, STATIC
        ARGFRAME ISTACK, 0, STACK
        ARGFRAME PSTACK, 0, STACK
        ARGFRAME XSTACK, 12, STACK
        ARGFRAME IOVERLAY, 0, STATIC
        ARGFRAME DOVERLAY, 0, STATIC
        FUNCALL PrintWirelessQuality, WriteLCD
        LOCFRAME ISTACK, 0, STACK
        LOCFRAME PSTACK, 0, STACK
        LOCFRAME XSTACK, 12, STACK
        LOCFRAME IOVERLAY, 0, STATIC
        LOCFRAME DOVERLAY, 0, STATIC
        ARGFRAME ISTACK, 0, STACK
        ARGFRAME PSTACK, 0, STACK
        ARGFRAME XSTACK, 12, STACK
        ARGFRAME IOVERLAY, 0, STATIC
        ARGFRAME DOVERLAY, 0, STATIC
        MOV     A,#-0xc
        LCALL   ?BANKED_ENTER_XDATA
          CFI DPH0 load(1, XDATA, add(CFA_XSP16, literal(-1)))
          CFI DPL0 load(1, XDATA, add(CFA_XSP16, literal(-2)))
          CFI ?BRET_EXT load(1, XDATA, add(CFA_XSP16, literal(-3)))
          CFI ?RET_HIGH load(1, XDATA, add(CFA_XSP16, literal(-4)))
          CFI ?RET_LOW load(1, XDATA, add(CFA_XSP16, literal(-5)))
          CFI R7 load(1, XDATA, add(CFA_XSP16, literal(-6)))
          CFI V3 load(1, XDATA, add(CFA_XSP16, literal(-7)))
          CFI V2 load(1, XDATA, add(CFA_XSP16, literal(-8)))
          CFI V1 load(1, XDATA, add(CFA_XSP16, literal(-9)))
          CFI V0 load(1, XDATA, add(CFA_XSP16, literal(-10)))
          CFI VB load(1, XDATA, add(CFA_XSP16, literal(-11)))
          CFI R6 load(1, XDATA, add(CFA_XSP16, literal(-12)))
          CFI CFA_SP SP+0
          CFI CFA_XSP16 add(XSP16, 12)
        ; Saved register size: 12
        ; Auto size: 0
//  722   unsigned char i,k,j;
//  723   if (x>=30)
        MOV     A,R1
        CLR     C
        SUBB    A,#0x1e
        JC      ??PrintWirelessQuality_0
//  724     k=36*4;           // 100%
        MOV     ?V0 + 3,#-0x70
        SJMP    ??PrintWirelessQuality_1
//  725   else if (x>=10)
??PrintWirelessQuality_0:
        MOV     A,R1
        CLR     C
        SUBB    A,#0xa
        JC      ??PrintWirelessQuality_2
//  726     k=36*3;
        MOV     ?V0 + 3,#0x6c
        SJMP    ??PrintWirelessQuality_1
//  727   else if (x>=3)
??PrintWirelessQuality_2:
        MOV     A,R1
        CLR     C
        SUBB    A,#0x3
        JC      ??PrintWirelessQuality_3
//  728     k=36*2;
        MOV     ?V0 + 3,#0x48
        SJMP    ??PrintWirelessQuality_1
//  729   else if (x>=1)
??PrintWirelessQuality_3:
        MOV     A,R1
        JZ      ??PrintWirelessQuality_4
//  730     k=36*1;
        MOV     ?V0 + 3,#0x24
        SJMP    ??PrintWirelessQuality_1
//  731   else 
//  732     k=0;
??PrintWirelessQuality_4:
        MOV     ?V0 + 3,#0x0
//  733   
//  734   for(i=0; i<2; i++)
??PrintWirelessQuality_1:
        MOV     R6,#0x0
//  735   {
//  736     SetRamAddr(i , 105);
??PrintWirelessQuality_5:
        ; Setup parameters for call to function SetRamAddr
        MOV     R2,#0x69
        MOV     A,R6
        MOV     R1,A
        LCALL   ??SetRamAddr?relay
//  737     for(j = 0;j < 123 -105;j++)
        MOV     R7,#0x0
//  738     {
//  739       WriteLCD(DATA, Sig[j+i*18+k]);
??PrintWirelessQuality_6:
        ; Setup parameters for call to function WriteLCD
        MOV     ?V0 + 0,?V0 + 3
        MOV     A,R6
        MOV     B,#0x12
        LCALL   ?Subroutine9 & 0xFFFF
//  740     }
??CrossCallReturnLabel_4:
        MOV     A,#Sig & 0xff
        ADD     A,R0
        MOV     DPL,A
        MOV     A,#(Sig >> 8) & 0xff
        LCALL   ?Subroutine16 & 0xFFFF
??CrossCallReturnLabel_18:
        LCALL   ??WriteLCD?relay
        INC     R7
        MOV     A,R7
        CLR     C
        SUBB    A,#0x12
        JC      ??PrintWirelessQuality_6
//  741   }
        INC     R6
        MOV     A,R6
        CLR     C
        SUBB    A,#0x2
        JC      ??PrintWirelessQuality_5
//  742 }
        LJMP    ?Subroutine6 & 0xFFFF
          CFI EndBlock cfiBlock73

        RSEG BANKED_CODE:CODE:NOROOT(0)
?Subroutine16:
          CFI Block cfiCond74 Using cfiCommon0
          CFI Function LoadICO
          CFI Conditional ??CrossCallReturnLabel_17
          CFI R6 load(1, XDATA, add(CFA_XSP16, literal(-12)))
          CFI VB load(1, XDATA, add(CFA_XSP16, literal(-11)))
          CFI V0 load(1, XDATA, add(CFA_XSP16, literal(-10)))
          CFI V1 load(1, XDATA, add(CFA_XSP16, literal(-9)))
          CFI V2 load(1, XDATA, add(CFA_XSP16, literal(-8)))
          CFI V3 load(1, XDATA, add(CFA_XSP16, literal(-7)))
          CFI R7 load(1, XDATA, add(CFA_XSP16, literal(-6)))
          CFI ?RET_LOW load(1, XDATA, add(CFA_XSP16, literal(-5)))
          CFI ?RET_HIGH load(1, XDATA, add(CFA_XSP16, literal(-4)))
          CFI ?BRET_EXT load(1, XDATA, add(CFA_XSP16, literal(-3)))
          CFI DPL0 load(1, XDATA, add(CFA_XSP16, literal(-2)))
          CFI DPH0 load(1, XDATA, add(CFA_XSP16, literal(-1)))
          CFI CFA_SP SP+0
          CFI CFA_XSP16 add(XSP16, 12)
          CFI Block cfiCond75 Using cfiCommon0
          CFI (cfiCond75) Function PrintWirelessQuality
          CFI (cfiCond75) Conditional ??CrossCallReturnLabel_18
          CFI (cfiCond75) R6 load(1, XDATA, add(CFA_XSP16, literal(-12)))
          CFI (cfiCond75) VB load(1, XDATA, add(CFA_XSP16, literal(-11)))
          CFI (cfiCond75) V0 load(1, XDATA, add(CFA_XSP16, literal(-10)))
          CFI (cfiCond75) V1 load(1, XDATA, add(CFA_XSP16, literal(-9)))
          CFI (cfiCond75) V2 load(1, XDATA, add(CFA_XSP16, literal(-8)))
          CFI (cfiCond75) V3 load(1, XDATA, add(CFA_XSP16, literal(-7)))
          CFI (cfiCond75) R7 load(1, XDATA, add(CFA_XSP16, literal(-6)))
          CFI (cfiCond75) ?RET_LOW load(1, XDATA, add(CFA_XSP16, literal(-5)))
          CFI (cfiCond75) ?RET_HIGH load(1, XDATA, add(CFA_XSP16, literal(-4)))
          CFI (cfiCond75) ?BRET_EXT load(1, XDATA, add(CFA_XSP16, literal(-3)))
          CFI (cfiCond75) DPL0 load(1, XDATA, add(CFA_XSP16, literal(-2)))
          CFI (cfiCond75) DPH0 load(1, XDATA, add(CFA_XSP16, literal(-1)))
          CFI (cfiCond75) CFA_SP SP+0
          CFI (cfiCond75) CFA_XSP16 add(XSP16, 12)
          CFI Block cfiCond76 Using cfiCommon0
          CFI (cfiCond76) Function PrintBatteryCapacity
          CFI (cfiCond76) Conditional ??CrossCallReturnLabel_19
          CFI (cfiCond76) R6 load(1, XDATA, add(CFA_XSP16, literal(-16)))
          CFI (cfiCond76) VB load(1, XDATA, add(CFA_XSP16, literal(-15)))
          CFI (cfiCond76) V0 load(1, XDATA, add(CFA_XSP16, literal(-14)))
          CFI (cfiCond76) V1 load(1, XDATA, add(CFA_XSP16, literal(-13)))
          CFI (cfiCond76) V2 load(1, XDATA, add(CFA_XSP16, literal(-12)))
          CFI (cfiCond76) V3 load(1, XDATA, add(CFA_XSP16, literal(-11)))
          CFI (cfiCond76) V4 load(1, XDATA, add(CFA_XSP16, literal(-10)))
          CFI (cfiCond76) V5 load(1, XDATA, add(CFA_XSP16, literal(-9)))
          CFI (cfiCond76) V6 load(1, XDATA, add(CFA_XSP16, literal(-8)))
          CFI (cfiCond76) V7 load(1, XDATA, add(CFA_XSP16, literal(-7)))
          CFI (cfiCond76) R7 load(1, XDATA, add(CFA_XSP16, literal(-6)))
          CFI (cfiCond76) ?RET_LOW load(1, XDATA, add(CFA_XSP16, literal(-5)))
          CFI (cfiCond76) ?RET_HIGH load(1, XDATA, add(CFA_XSP16, literal(-4)))
          CFI (cfiCond76) ?BRET_EXT load(1, XDATA, add(CFA_XSP16, literal(-3)))
          CFI (cfiCond76) DPL0 load(1, XDATA, add(CFA_XSP16, literal(-2)))
          CFI (cfiCond76) DPH0 load(1, XDATA, add(CFA_XSP16, literal(-1)))
          CFI (cfiCond76) CFA_SP SP+0
          CFI (cfiCond76) CFA_XSP16 add(XSP16, 16)
          CFI Block cfiPicker77 Using cfiCommon1
          CFI (cfiPicker77) NoFunction
          CFI (cfiPicker77) Picker
        ADDC    A,R1
        MOV     DPH,A
        CLR     A
        MOVC    A,@A+DPTR
        MOV     R2,A
        MOV     R1,#0x1
        RET
          CFI EndBlock cfiCond74
          CFI EndBlock cfiCond75
          CFI EndBlock cfiCond76
          CFI EndBlock cfiPicker77
//  743 
//  744 
//  745 /*******************************************************************************
//  746 //函数名：void PrintBatteryCapacity(x)
//  747 //功能：显示电池容量
//  748 //输入：x为信号强度输入
//  749 //输出：无
//  750 ********************************************************************************/

        RSEG BANKED_CODE:CODE:NOROOT(0)
//  751 void PrintBatteryCapacity(float x)		
PrintBatteryCapacity:
          CFI Block cfiBlock78 Using cfiCommon0
          CFI Function PrintBatteryCapacity
        CODE
//  752 {
        FUNCALL PrintBatteryCapacity, SetRamAddr
        LOCFRAME ISTACK, 0, STACK
        LOCFRAME PSTACK, 0, STACK
        LOCFRAME XSTACK, 16, STACK
        LOCFRAME IOVERLAY, 0, STATIC
        LOCFRAME DOVERLAY, 0, STATIC
        ARGFRAME ISTACK, 0, STACK
        ARGFRAME PSTACK, 0, STACK
        ARGFRAME XSTACK, 16, STACK
        ARGFRAME IOVERLAY, 0, STATIC
        ARGFRAME DOVERLAY, 0, STATIC
        FUNCALL PrintBatteryCapacity, WriteLCD
        LOCFRAME ISTACK, 0, STACK
        LOCFRAME PSTACK, 0, STACK
        LOCFRAME XSTACK, 16, STACK
        LOCFRAME IOVERLAY, 0, STATIC
        LOCFRAME DOVERLAY, 0, STATIC
        ARGFRAME ISTACK, 0, STACK
        ARGFRAME PSTACK, 0, STACK
        ARGFRAME XSTACK, 16, STACK
        ARGFRAME IOVERLAY, 0, STATIC
        ARGFRAME DOVERLAY, 0, STATIC
        MOV     A,#-0x10
        LCALL   ?BANKED_ENTER_XDATA
          CFI DPH0 load(1, XDATA, add(CFA_XSP16, literal(-1)))
          CFI DPL0 load(1, XDATA, add(CFA_XSP16, literal(-2)))
          CFI ?BRET_EXT load(1, XDATA, add(CFA_XSP16, literal(-3)))
          CFI ?RET_HIGH load(1, XDATA, add(CFA_XSP16, literal(-4)))
          CFI ?RET_LOW load(1, XDATA, add(CFA_XSP16, literal(-5)))
          CFI R7 load(1, XDATA, add(CFA_XSP16, literal(-6)))
          CFI V7 load(1, XDATA, add(CFA_XSP16, literal(-7)))
          CFI V6 load(1, XDATA, add(CFA_XSP16, literal(-8)))
          CFI V5 load(1, XDATA, add(CFA_XSP16, literal(-9)))
          CFI V4 load(1, XDATA, add(CFA_XSP16, literal(-10)))
          CFI V3 load(1, XDATA, add(CFA_XSP16, literal(-11)))
          CFI V2 load(1, XDATA, add(CFA_XSP16, literal(-12)))
          CFI V1 load(1, XDATA, add(CFA_XSP16, literal(-13)))
          CFI V0 load(1, XDATA, add(CFA_XSP16, literal(-14)))
          CFI VB load(1, XDATA, add(CFA_XSP16, literal(-15)))
          CFI R6 load(1, XDATA, add(CFA_XSP16, literal(-16)))
          CFI CFA_SP SP+0
          CFI CFA_XSP16 add(XSP16, 16)
        ; Saved register size: 16
        ; Auto size: 0
        MOV     ?V0 + 0,R2
        MOV     ?V0 + 1,R3
        MOV     ?V0 + 2,R4
        MOV     ?V0 + 3,R5
//  753   unsigned char i,k,j;
//  754   if (x>=f_vcc_full)
        MOV     DPTR,#f_vcc_full
        MOV     R0,#?V0 + 4
        LCALL   ?L_MOV_X
        MOV     R0,#?V0 + 0
        MOV     R1,#?V0 + 4
        LCALL   ?FLT_GE
        JNC     ??PrintBatteryCapacity_0
//  755     k=28*4;           // 100%
        MOV     ?V0 + 2,#0x70
        SJMP    ??PrintBatteryCapacity_1
//  756   else if (x>=f_vcc_afull)
??PrintBatteryCapacity_0:
        MOV     DPTR,#f_vcc_afull
        MOV     R0,#?V0 + 4
        LCALL   ?L_MOV_X
        MOV     R0,#?V0 + 0
        MOV     R1,#?V0 + 4
        LCALL   ?FLT_GE
        JNC     ??PrintBatteryCapacity_2
//  757     k=28*3;
        MOV     ?V0 + 2,#0x54
        SJMP    ??PrintBatteryCapacity_1
//  758   else if (x>=f_vcc_midd)
??PrintBatteryCapacity_2:
        MOV     DPTR,#f_vcc_midd
        MOV     R0,#?V0 + 4
        LCALL   ?L_MOV_X
        MOV     R0,#?V0 + 0
        MOV     R1,#?V0 + 4
        LCALL   ?FLT_GE
        JNC     ??PrintBatteryCapacity_3
//  759     k=28*2;
        MOV     ?V0 + 2,#0x38
        SJMP    ??PrintBatteryCapacity_1
//  760   else if (x>=f_vcc_aempty)
??PrintBatteryCapacity_3:
        MOV     DPTR,#f_vcc_aempty
        MOV     R0,#?V0 + 4
        LCALL   ?L_MOV_X
        MOV     R0,#?V0 + 0
        MOV     R1,#?V0 + 4
        LCALL   ?FLT_GE
        JNC     ??PrintBatteryCapacity_4
//  761     k=28*1;
        MOV     ?V0 + 2,#0x1c
        SJMP    ??PrintBatteryCapacity_1
//  762   else 
//  763     k=0;
??PrintBatteryCapacity_4:
        MOV     ?V0 + 2,#0x0
//  764   
//  765   for(i=0; i<2; i++)
??PrintBatteryCapacity_1:
        MOV     R6,#0x0
//  766   {
//  767     SetRamAddr(i , 88);
??PrintBatteryCapacity_5:
        ; Setup parameters for call to function SetRamAddr
        MOV     R2,#0x58
        MOV     A,R6
        MOV     R1,A
        LCALL   ??SetRamAddr?relay
//  768     for(j = 0;j <14;j++)
        MOV     R7,#0x0
//  769     {
//  770       WriteLCD(DATA, Pwr[j+i*14+k]);
??PrintBatteryCapacity_6:
        ; Setup parameters for call to function WriteLCD
        MOV     ?V0 + 0,?V0 + 2
        MOV     A,R6
        MOV     B,#0xe
        LCALL   ?Subroutine9 & 0xFFFF
//  771     }
??CrossCallReturnLabel_5:
        MOV     A,#Pwr & 0xff
        ADD     A,R0
        MOV     DPL,A
        MOV     A,#(Pwr >> 8) & 0xff
        LCALL   ?Subroutine16 & 0xFFFF
??CrossCallReturnLabel_19:
        LCALL   ??WriteLCD?relay
        INC     R7
        MOV     A,R7
        CLR     C
        SUBB    A,#0xe
        JC      ??PrintBatteryCapacity_6
//  772   }
        INC     R6
        MOV     A,R6
        CLR     C
        SUBB    A,#0x2
        JC      ??PrintBatteryCapacity_5
//  773 }
        MOV     R7,#0x8
        LJMP    ?BANKED_LEAVE_XDATA
          CFI EndBlock cfiBlock78

        RSEG BANKED_CODE:CODE:NOROOT(0)
?Subroutine9:
          CFI Block cfiCond79 Using cfiCommon0
          CFI Function PrintWirelessQuality
          CFI Conditional ??CrossCallReturnLabel_4
          CFI R6 load(1, XDATA, add(CFA_XSP16, literal(-12)))
          CFI VB load(1, XDATA, add(CFA_XSP16, literal(-11)))
          CFI V0 load(1, XDATA, add(CFA_XSP16, literal(-10)))
          CFI V1 load(1, XDATA, add(CFA_XSP16, literal(-9)))
          CFI V2 load(1, XDATA, add(CFA_XSP16, literal(-8)))
          CFI V3 load(1, XDATA, add(CFA_XSP16, literal(-7)))
          CFI R7 load(1, XDATA, add(CFA_XSP16, literal(-6)))
          CFI ?RET_LOW load(1, XDATA, add(CFA_XSP16, literal(-5)))
          CFI ?RET_HIGH load(1, XDATA, add(CFA_XSP16, literal(-4)))
          CFI ?BRET_EXT load(1, XDATA, add(CFA_XSP16, literal(-3)))
          CFI DPL0 load(1, XDATA, add(CFA_XSP16, literal(-2)))
          CFI DPH0 load(1, XDATA, add(CFA_XSP16, literal(-1)))
          CFI CFA_SP SP+0
          CFI CFA_XSP16 add(XSP16, 12)
          CFI Block cfiCond80 Using cfiCommon0
          CFI (cfiCond80) Function PrintBatteryCapacity
          CFI (cfiCond80) Conditional ??CrossCallReturnLabel_5
          CFI (cfiCond80) R6 load(1, XDATA, add(CFA_XSP16, literal(-16)))
          CFI (cfiCond80) VB load(1, XDATA, add(CFA_XSP16, literal(-15)))
          CFI (cfiCond80) V0 load(1, XDATA, add(CFA_XSP16, literal(-14)))
          CFI (cfiCond80) V1 load(1, XDATA, add(CFA_XSP16, literal(-13)))
          CFI (cfiCond80) V2 load(1, XDATA, add(CFA_XSP16, literal(-12)))
          CFI (cfiCond80) V3 load(1, XDATA, add(CFA_XSP16, literal(-11)))
          CFI (cfiCond80) V4 load(1, XDATA, add(CFA_XSP16, literal(-10)))
          CFI (cfiCond80) V5 load(1, XDATA, add(CFA_XSP16, literal(-9)))
          CFI (cfiCond80) V6 load(1, XDATA, add(CFA_XSP16, literal(-8)))
          CFI (cfiCond80) V7 load(1, XDATA, add(CFA_XSP16, literal(-7)))
          CFI (cfiCond80) R7 load(1, XDATA, add(CFA_XSP16, literal(-6)))
          CFI (cfiCond80) ?RET_LOW load(1, XDATA, add(CFA_XSP16, literal(-5)))
          CFI (cfiCond80) ?RET_HIGH load(1, XDATA, add(CFA_XSP16, literal(-4)))
          CFI (cfiCond80) ?BRET_EXT load(1, XDATA, add(CFA_XSP16, literal(-3)))
          CFI (cfiCond80) DPL0 load(1, XDATA, add(CFA_XSP16, literal(-2)))
          CFI (cfiCond80) DPH0 load(1, XDATA, add(CFA_XSP16, literal(-1)))
          CFI (cfiCond80) CFA_SP SP+0
          CFI (cfiCond80) CFA_XSP16 add(XSP16, 16)
          CFI Block cfiPicker81 Using cfiCommon1
          CFI (cfiPicker81) NoFunction
          CFI (cfiPicker81) Picker
        MUL     AB
        MOV     R0,A
        MOV     R1,B
        MOV     A,?V0 + 0
        ADD     A,R0
        MOV     R0,A
        CLR     A
        ADDC    A,R1
        MOV     R1,A
        MOV     ?V0 + 0,R7
        MOV     A,R0
        ADD     A,?V0 + 0
        MOV     R0,A
        MOV     A,R1
        ADDC    A,#0x0
        MOV     R1,A
        RET
          CFI EndBlock cfiCond79
          CFI EndBlock cfiCond80
          CFI EndBlock cfiPicker81
//  774 
//  775 /*
//  776 * Initialize LCD Service
//  777 */

        RSEG BANKED_CODE:CODE:NOROOT(0)
//  778 void HalLcdInit(void){
HalLcdInit:
          CFI Block cfiBlock82 Using cfiCommon0
          CFI Function HalLcdInit
        CODE
        ; Saved register size: 0
        ; Auto size: 0
//  779 #if (HAL_LCD == TRUE)
//  780   InitDisplay();
//  781   ClearScreen();
//  782   HalLcdWriteString( "SampleApp", HAL_LCD_LINE_1 );
//  783   LoadICO();
//  784 //  contrastctrl(255,0);
//  785 //  contrastctrl(0,255);
//  786 #endif
//  787 }
        LJMP    ?BRET
          CFI EndBlock cfiBlock82
//  788 

        RSEG BANKED_CODE:CODE:NOROOT(0)
//  789 void HalLcdWriteString ( char *str, uint8 option)
HalLcdWriteString:
          CFI Block cfiBlock83 Using cfiCommon0
          CFI Function HalLcdWriteString
        CODE
//  790 {
        ; Saved register size: 0
        ; Auto size: 0
//  791 #if (HAL_LCD == TRUE)
//  792   unsigned char str_tmp[30];
//  793   unsigned int i=0;
//  794   while (*(str+i)!=NULL) 
//  795   {
//  796     str_tmp[i]=*(str+i);
//  797     i++;
//  798   }
//  799   
//  800   str_tmp[i]=NULL;
//  801   
//  802   if (option==HAL_LCD_LINE_1) 
//  803   {
//  804     ClearRow16(0,1);
//  805     Print16_8(0, 0, str_tmp, 1);
//  806   }
//  807   else if (option==HAL_LCD_LINE_2)
//  808   {
//  809     ClearRow16(2,3);
//  810     Print16_8(2, 0, str_tmp, 1);
//  811   }
//  812 #endif
//  813 }
        LJMP    ?BRET
          CFI EndBlock cfiBlock83
//  814 

        RSEG BANKED_CODE:CODE:NOROOT(0)
//  815 void HalLcdWriteValue ( uint32 value, const uint8 radix, uint8 option)
HalLcdWriteValue:
          CFI Block cfiBlock84 Using cfiCommon0
          CFI Function HalLcdWriteValue
        CODE
//  816 {
        ; Saved register size: 0
        ; Auto size: 0
//  817 #if (HAL_LCD == TRUE)
//  818   uint8 buf[HAL_LCD_MAX_BUFF];
//  819   
//  820   _ltoa( value, &buf[0], radix );
//  821   HalLcdWriteString( (char*)buf, option );
//  822 #endif
//  823 }
        LJMP    ?BRET
          CFI EndBlock cfiBlock84
//  824 
//  825 /*
//  826 * Write a value to the LCD
//  827 */

        RSEG BANKED_CODE:CODE:NOROOT(0)
//  828 void HalLcdWriteScreen( char *line1, char *line2 )
HalLcdWriteScreen:
          CFI Block cfiBlock85 Using cfiCommon0
          CFI Function HalLcdWriteScreen
        CODE
//  829 {
        ; Saved register size: 0
        ; Auto size: 0
//  830 #if (HAL_LCD == TRUE)
//  831   HalLcdWriteString( line1, 1 );
//  832   HalLcdWriteString( line2, 2 );
//  833 #endif
//  834   
//  835 }
        LJMP    ?BRET
          CFI EndBlock cfiBlock85
//  836 
//  837 /*
//  838 * Write a string followed by a value to the LCD
//  839 */

        RSEG BANKED_CODE:CODE:NOROOT(0)
//  840 void HalLcdWriteStringValue( char *title, uint16 value, uint8 format, uint8 line )
HalLcdWriteStringValue:
          CFI Block cfiBlock86 Using cfiCommon0
          CFI Function HalLcdWriteStringValue
        CODE
//  841 {
        ; Saved register size: 0
        ; Auto size: 0
//  842 #if (HAL_LCD == TRUE)
//  843   uint8 tmpLen;
//  844   uint8 buf[HAL_LCD_MAX_BUFF];
//  845   uint32 err;
//  846   
//  847   tmpLen = (uint8)osal_strlen( (char*)title );
//  848   osal_memcpy( buf, title, tmpLen );
//  849   buf[tmpLen] = ' ';
//  850   err = (uint32)(value);
//  851   _ltoa( err, &buf[tmpLen+1], format );
//  852   HalLcdWriteString( (char*)buf, line );	
//  853 #endif
//  854   
//  855 }
        LJMP    ?BRET
          CFI EndBlock cfiBlock86
//  856 
//  857 /*
//  858 * Write a string followed by 2 values to the LCD
//  859 */

        RSEG BANKED_CODE:CODE:NOROOT(0)
//  860 void HalLcdWriteStringValueValue( char *title, uint16 value1, uint8 format1, uint16 value2, uint8 format2, uint8 line )
HalLcdWriteStringValueValue:
          CFI Block cfiBlock87 Using cfiCommon0
          CFI Function HalLcdWriteStringValueValue
        CODE
//  861 {
        ; Saved register size: 0
        ; Auto size: 0
//  862 #if (HAL_LCD == TRUE)
//  863   
//  864   uint8 tmpLen;
//  865   uint8 buf[HAL_LCD_MAX_BUFF];
//  866   uint32 err;
//  867   
//  868   tmpLen = (uint8)osal_strlen( (char*)title );
//  869   if ( tmpLen )
//  870   {
//  871     osal_memcpy( buf, title, tmpLen );
//  872     buf[tmpLen++] = ' ';
//  873   }
//  874   
//  875   err = (uint32)(value1);
//  876   _ltoa( err, &buf[tmpLen], format1 );
//  877   tmpLen = (uint8)osal_strlen( (char*)buf );
//  878   
//  879   buf[tmpLen++] = ',';
//  880   buf[tmpLen++] = ' ';
//  881   err = (uint32)(value2);
//  882   _ltoa( err, &buf[tmpLen], format2 );
//  883   
//  884   HalLcdWriteString( (char *)buf, line );		
//  885   
//  886 #endif
//  887   
//  888 }
        LJMP    ?BRET
          CFI EndBlock cfiBlock87
//  889 
//  890 /*
//  891 * Write a percentage bar to the LCD
//  892 */

        RSEG BANKED_CODE:CODE:NOROOT(0)
//  893 void HalLcdDisplayPercentBar( char *title, uint8 value )
HalLcdDisplayPercentBar:
          CFI Block cfiBlock88 Using cfiCommon0
          CFI Function HalLcdDisplayPercentBar
        CODE
//  894 {
        ; Saved register size: 0
        ; Auto size: 0
//  895   #if (HAL_LCD == TRUE)
//  896 
//  897   uint8 percent;
//  898   uint8 leftOver;
//  899   uint8 buf[17];
//  900   uint32 err;
//  901   uint8 x;
//  902 
//  903   /* Write the title: */
//  904   HalLcdWriteString( title, HAL_LCD_LINE_1 );
//  905 
//  906   if ( value > 100 )
//  907     value = 100;
//  908 
//  909   /* convert to blocks */
//  910   percent = (uint8)(value / 10);
//  911   leftOver = (uint8)(value % 10);
//  912 
//  913   /* Make window */
//  914   osal_memcpy( buf, "[          ]  ", 15 );
//  915 
//  916   for ( x = 0; x < percent; x ++ )
//  917   {
//  918     buf[1+x] = '>';
//  919   }
//  920 
//  921   if ( leftOver >= 5 )
//  922     buf[1+x] = '+';
//  923 
//  924   err = (uint32)value;
//  925   _ltoa( err, (uint8*)&buf[13], 10 );
//  926 
//  927   HalLcdWriteString( (char*)buf, HAL_LCD_LINE_2 );
//  928 
//  929 #endif
//  930 
//  931 }
        LJMP    ?BRET
          CFI EndBlock cfiBlock88

        RSEG XDATA_ID:CODE:NOROOT(0)
`?<Initializer for f_vcc_full>`:
        DATA32
        DD 40666666H

        RSEG XDATA_ID:CODE:NOROOT(0)
`?<Initializer for f_vcc_afull>`:
        DATA32
        DD 404CCCCDH

        RSEG XDATA_ID:CODE:NOROOT(0)
`?<Initializer for f_vcc_midd>`:
        DATA32
        DD 40333333H

        RSEG XDATA_ID:CODE:NOROOT(0)
`?<Initializer for f_vcc_aempty>`:
        DATA32
        DD 40200000H

        RSEG XDATA_ID:CODE:NOROOT(0)
`?<Initializer for ContrastValue>`:
        DATA8
        DB 255

        RSEG XDATA_ROM_C:CONST:REORDER:NOROOT(0)
        DATA32
__Constant_a:
        DD 10

        RSEG BANK_RELAYS:CODE:REORDER:NOROOT(0)
??WaitUs?relay:
        CODE
        LCALL   ?BDISPATCH
        DATA24
        DC24    WaitUs

        RSEG BANK_RELAYS:CODE:REORDER:NOROOT(0)
??Wait100Ns?relay:
        CODE
        LCALL   ?BDISPATCH
        DATA24
        DC24    Wait100Ns

        RSEG BANK_RELAYS:CODE:REORDER:NOROOT(0)
??WriteLCDbyte?relay:
        CODE
        LCALL   ?BDISPATCH
        DATA24
        DC24    WriteLCDbyte

        RSEG BANK_RELAYS:CODE:REORDER:NOROOT(0)
??WriteLCD?relay:
        CODE
        LCALL   ?BDISPATCH
        DATA24
        DC24    WriteLCD

        RSEG BANK_RELAYS:CODE:REORDER:NOROOT(0)
??SetRamAddr?relay:
        CODE
        LCALL   ?BDISPATCH
        DATA24
        DC24    SetRamAddr

        RSEG BANK_RELAYS:CODE:REORDER:NOROOT(0)
??SetContrast?relay:
        CODE
        LCALL   ?BDISPATCH
        DATA24
        DC24    SetContrast

        RSEG BANK_RELAYS:CODE:REORDER:NOROOT(0)
??InitDisplay?relay:
        CODE
        LCALL   ?BDISPATCH
        DATA24
        DC24    InitDisplay

        RSEG BANK_RELAYS:CODE:REORDER:NOROOT(0)
??contrastctrl?relay:
        CODE
        LCALL   ?BDISPATCH
        DATA24
        DC24    contrastctrl

        RSEG BANK_RELAYS:CODE:REORDER:NOROOT(0)
??ClearScreen?relay:
        CODE
        LCALL   ?BDISPATCH
        DATA24
        DC24    ClearScreen

        RSEG BANK_RELAYS:CODE:REORDER:NOROOT(0)
??ClearRow16?relay:
        CODE
        LCALL   ?BDISPATCH
        DATA24
        DC24    ClearRow16

        RSEG BANK_RELAYS:CODE:REORDER:NOROOT(0)
??Print6?relay:
        CODE
        LCALL   ?BDISPATCH
        DATA24
        DC24    Print6

        RSEG BANK_RELAYS:CODE:REORDER:NOROOT(0)
??Printn8?relay:
        CODE
        LCALL   ?BDISPATCH
        DATA24
        DC24    Printn8

        RSEG BANK_RELAYS:CODE:REORDER:NOROOT(0)
??PrintCh16_8?relay:
        CODE
        LCALL   ?BDISPATCH
        DATA24
        DC24    PrintCh16_8

        RSEG BANK_RELAYS:CODE:REORDER:NOROOT(0)
??PrintCh32_16?relay:
        CODE
        LCALL   ?BDISPATCH
        DATA24
        DC24    PrintCh32_16

        RSEG BANK_RELAYS:CODE:REORDER:NOROOT(0)
??Print16_8?relay:
        CODE
        LCALL   ?BDISPATCH
        DATA24
        DC24    Print16_8

        RSEG BANK_RELAYS:CODE:REORDER:NOROOT(0)
??Print32_16?relay:
        CODE
        LCALL   ?BDISPATCH
        DATA24
        DC24    Print32_16

        RSEG BANK_RELAYS:CODE:REORDER:NOROOT(0)
??Print16?relay:
        CODE
        LCALL   ?BDISPATCH
        DATA24
        DC24    Print16

        RSEG BANK_RELAYS:CODE:REORDER:NOROOT(0)
??Print?relay:
        CODE
        LCALL   ?BDISPATCH
        DATA24
        DC24    Print

        RSEG BANK_RELAYS:CODE:REORDER:NOROOT(0)
??Rectangle?relay:
        CODE
        LCALL   ?BDISPATCH
        DATA24
        DC24    Rectangle

        RSEG BANK_RELAYS:CODE:REORDER:NOROOT(0)
??LoadICO?relay:
        CODE
        LCALL   ?BDISPATCH
        DATA24
        DC24    LoadICO

        RSEG BANK_RELAYS:CODE:REORDER:NOROOT(0)
??Printn?relay:
        CODE
        LCALL   ?BDISPATCH
        DATA24
        DC24    Printn

        RSEG BANK_RELAYS:CODE:REORDER:NOROOT(0)
??LcdPowerON?relay:
        CODE
        LCALL   ?BDISPATCH
        DATA24
        DC24    LcdPowerON

        RSEG BANK_RELAYS:CODE:REORDER:NOROOT(0)
??LcdPowerOFF?relay:
        CODE
        LCALL   ?BDISPATCH
        DATA24
        DC24    LcdPowerOFF

        RSEG BANK_RELAYS:CODE:REORDER:NOROOT(0)
??PrintWirelessQuality?relay:
        CODE
        LCALL   ?BDISPATCH
        DATA24
        DC24    PrintWirelessQuality

        RSEG BANK_RELAYS:CODE:REORDER:NOROOT(0)
??PrintBatteryCapacity?relay:
        CODE
        LCALL   ?BDISPATCH
        DATA24
        DC24    PrintBatteryCapacity

        RSEG BANK_RELAYS:CODE:REORDER:NOROOT(0)
??HalLcdInit?relay:
        CODE
        LCALL   ?BDISPATCH
        DATA24
        DC24    HalLcdInit

        RSEG BANK_RELAYS:CODE:REORDER:NOROOT(0)
??HalLcdWriteString?relay:
        CODE
        LCALL   ?BDISPATCH
        DATA24
        DC24    HalLcdWriteString

        RSEG BANK_RELAYS:CODE:REORDER:NOROOT(0)
??HalLcdWriteValue?relay:
        CODE
        LCALL   ?BDISPATCH
        DATA24
        DC24    HalLcdWriteValue

        RSEG BANK_RELAYS:CODE:REORDER:NOROOT(0)
??HalLcdWriteScreen?relay:
        CODE
        LCALL   ?BDISPATCH
        DATA24
        DC24    HalLcdWriteScreen

        RSEG BANK_RELAYS:CODE:REORDER:NOROOT(0)
??HalLcdWriteStringValue?relay:
        CODE
        LCALL   ?BDISPATCH
        DATA24
        DC24    HalLcdWriteStringValue

        RSEG BANK_RELAYS:CODE:REORDER:NOROOT(0)
??HalLcdWriteStringValueValue?relay:
        CODE
        LCALL   ?BDISPATCH
        DATA24
        DC24    HalLcdWriteStringValueValue

        RSEG BANK_RELAYS:CODE:REORDER:NOROOT(0)
??HalLcdDisplayPercentBar?relay:
        CODE
        LCALL   ?BDISPATCH
        DATA24
        DC24    HalLcdDisplayPercentBar

        END
// 
// 2 479 bytes in segment BANKED_CODE
//   192 bytes in segment BANK_RELAYS
//     3 bytes in segment SFR_AN
//    17 bytes in segment XDATA_I
//    17 bytes in segment XDATA_ID
//     4 bytes in segment XDATA_ROM_C
// 
// 2 688 bytes of CODE  memory
//     0 bytes of CONST memory (+ 4 bytes shared)
//     0 bytes of DATA  memory (+ 3 bytes shared)
//    17 bytes of XDATA memory
//
//Errors: none
//Warnings: none
