///////////////////////////////////////////////////////////////////////////////
//                                                                            /
// IAR C/C++ Compiler V8.20.2.41139 for 8051            27/May/2014  19:14:09 /
// Copyright 2004-2013 IAR Systems AB.                                        /
//                                                                            /
//    Core               =  plain                                             /
//    Code model         =  banked                                            /
//    Data model         =  large                                             /
//    Calling convention =  xdata reentrant                                   /
//    Constant location  =  data_rom                                          /
//    Dptr setup         =  1,16                                              /
//                                                                            /
//    Source file        =  D:\Texas Instruments\Z-Stack Lighting             /
//                          1.0.2\Projects\zstack\ZLL\SampleApp\Source\Light\ /
//                          hw_light_ctrl.c                                   /
//    Command line       =  -f "D:\Texas Instruments\Z-Stack Lighting         /
//                          1.0.2\Projects\zstack\ZLL\SampleApp\CC253x\..\..\ /
//                          ..\Tools\CC2530DB\f8wRouter.cfg" (-DCPU32MHZ      /
//                          -DROOT=__near_func -DMAC_CFG_APP_PENDING_QUEUE=TR /
//                          UE -DMAC_CFG_TX_DATA_MAX=5 -DMAC_CFG_TX_MAX=8     /
//                          -DMAC_CFG_RX_MAX=5 -DRTR_NWK) -f "D:\Texas        /
//                          Instruments\Z-Stack Lighting                      /
//                          1.0.2\Projects\zstack\ZLL\SampleApp\CC253x\..\..\ /
//                          ..\Tools\CC2530DB\f8wConfig.cfg" (-DZIGBEEPRO     /
//                          -DSECURE=1 -DZG_SECURE_DYNAMIC=0 -DREFLECTOR      /
//                          -DDEFAULT_CHANLIST=0x00000800                     /
//                          -DZDAPP_CONFIG_PAN_ID=0xFFFF                      /
//                          -DNWK_START_DELAY=100 -DEXTENDED_JOINING_RANDOM_M /
//                          ASK=0x007F -DBEACON_REQUEST_DELAY=100             /
//                          -DBEACON_REQ_DELAY_MASK=0x00FF                    /
//                          -DLINK_STATUS_JITTER_MASK=0x007F                  /
//                          -DROUTE_EXPIRY_TIME=30 -DAPSC_ACK_WAIT_DURATION_P /
//                          OLLED=3000 -DNWK_INDIRECT_MSG_TIMEOUT=7           /
//                          -DMAX_RREQ_ENTRIES=8 -DAPSC_MAX_FRAME_RETRIES=3   /
//                          -DNWK_MAX_DATA_RETRIES=2                          /
//                          -DMAX_POLL_FAILURE_RETRIES=2 -DMAX_BCAST=9        /
//                          -DAPS_MAX_GROUPS=16 -DMAX_RTG_ENTRIES=40          /
//                          -DNWK_MAX_BINDING_ENTRIES=4                       /
//                          -DMAX_BINDING_CLUSTER_IDS=4                       /
//                          "-DDEFAULT_KEY={0x01, 0x03, 0x05, 0x07, 0x09,     /
//                          0x0B, 0x0D, 0x0F, 0x00, 0x02, 0x04, 0x06, 0x08,   /
//                          0x0A, 0x0C, 0x0D}" -DMAC_MAX_FRAME_SIZE=116       /
//                          -DZDNWKMGR_MIN_TRANSMISSIONS=20 "-DCONST=const    /
//                          __code" -DGENERIC=__generic                       /
//                          -DRFD_RCVC_ALWAYS_ON=FALSE -DPOLL_RATE=1000       /
//                          -DQUEUED_POLL_RATE=100 -DRESPONSE_POLL_RATE=100   /
//                          -DREJOIN_POLL_RATE=440) -f "D:\Texas              /
//                          Instruments\Z-Stack Lighting                      /
//                          1.0.2\Projects\zstack\ZLL\SampleApp\CC253x\..\..\ /
//                          ..\Tools\CC2530DB\f8wZCL.cfg" "D:\Texas           /
//                          Instruments\Z-Stack Lighting                      /
//                          1.0.2\Projects\zstack\ZLL\SampleApp\Source\Light\ /
//                          hw_light_ctrl.c" -D FEATURE_GREEN_POWER -D        /
//                          SECURE=1 -D TC_LINKKEY_JOIN -D                    /
//                          ZDSECMGR_TC_DEVICE_MAX=2 -D NV_RESTORE -D         /
//                          HOLD_AUTO_START -D INTER_PAN -D                   /
//                          LCD_SUPPORTED=DEBUG -D ZCL_BASIC -D ZCL_READ -D   /
//                          ZCL_WRITE -D ZCL_IDENTIFY -D ZCL_ON_OFF -D        /
//                          ZCL_SCENES -D ZCL_GROUPS -D                       /
//                          ZCL_LIGHT_LINK_ENHANCE -D ZCL_LEVEL_CTRL -D       /
//                          ZCL_COLOR_CTRL -D MAX_CHANNELS_24GHZ=0x02108800   /
//                          -D xPWM_ALT2 -D xTHERMAL_SHUTDOWN -D              /
//                          ZLL_1_0_HUB_COMPATIBILITY -D DALI_LIGHT -lC       /
//                          "D:\Texas Instruments\Z-Stack Lighting            /
//                          1.0.2\Projects\zstack\ZLL\SampleApp\CC253x\Zlight /
//                           - Router\List\" -lA "D:\Texas                    /
//                          Instruments\Z-Stack Lighting                      /
//                          1.0.2\Projects\zstack\ZLL\SampleApp\CC253x\Zlight /
//                           - Router\List\" --diag_suppress Pe001,Pa010 -o   /
//                          "D:\Texas Instruments\Z-Stack Lighting            /
//                          1.0.2\Projects\zstack\ZLL\SampleApp\CC253x\Zlight /
//                           - Router\Obj\" -e --debug --core=plain           /
//                          --dptr=16,1 --data_model=large                    /
//                          --code_model=banked --calling_convention=xdata_re /
//                          entrant --place_constants=data_rom                /
//                          --nr_virtual_regs 16 -I "D:\Texas                 /
//                          Instruments\Z-Stack Lighting                      /
//                          1.0.2\Projects\zstack\ZLL\SampleApp\CC253x\" -I   /
//                          "D:\Texas Instruments\Z-Stack Lighting            /
//                          1.0.2\Projects\zstack\ZLL\SampleApp\CC253x\..\Sou /
//                          rce\" -I "D:\Texas Instruments\Z-Stack Lighting   /
//                          1.0.2\Projects\zstack\ZLL\SampleApp\CC253x\..\..\ /
//                          Source\" -I "D:\Texas Instruments\Z-Stack         /
//                          Lighting 1.0.2\Projects\zstack\ZLL\SampleApp\CC25 /
//                          3x\..\..\..\HomeAutomation\Source\" -I "D:\Texas  /
//                          Instruments\Z-Stack Lighting                      /
//                          1.0.2\Projects\zstack\ZLL\SampleApp\CC253x\..\..\ /
//                          ..\HomeAutomation\SampleLight\Source\" -I         /
//                          "D:\Texas Instruments\Z-Stack Lighting            /
//                          1.0.2\Projects\zstack\ZLL\SampleApp\CC253x\..\..\ /
//                          ..\ZMain\TI2530DB\" -I "D:\Texas                  /
//                          Instruments\Z-Stack Lighting                      /
//                          1.0.2\Projects\zstack\ZLL\SampleApp\CC253x\..\..\ /
//                          ..\..\..\Components\hal\include\" -I "D:\Texas    /
//                          Instruments\Z-Stack Lighting                      /
//                          1.0.2\Projects\zstack\ZLL\SampleApp\CC253x\..\..\ /
//                          ..\..\..\Components\hal\target\CC2530PMP4712\"    /
//                          -I "D:\Texas Instruments\Z-Stack Lighting         /
//                          1.0.2\Projects\zstack\ZLL\SampleApp\CC253x\..\..\ /
//                          ..\..\..\Components\mac\include\" -I "D:\Texas    /
//                          Instruments\Z-Stack Lighting                      /
//                          1.0.2\Projects\zstack\ZLL\SampleApp\CC253x\..\..\ /
//                          ..\..\..\Components\mac\high_level\" -I           /
//                          "D:\Texas Instruments\Z-Stack Lighting            /
//                          1.0.2\Projects\zstack\ZLL\SampleApp\CC253x\..\..\ /
//                          ..\..\..\Components\mac\low_level\srf04\" -I      /
//                          "D:\Texas Instruments\Z-Stack Lighting            /
//                          1.0.2\Projects\zstack\ZLL\SampleApp\CC253x\..\..\ /
//                          ..\..\..\Components\mac\low_level\srf04\single_ch /
//                          ip\" -I "D:\Texas Instruments\Z-Stack Lighting    /
//                          1.0.2\Projects\zstack\ZLL\SampleApp\CC253x\..\..\ /
//                          ..\..\..\Components\mt\" -I "D:\Texas             /
//                          Instruments\Z-Stack Lighting                      /
//                          1.0.2\Projects\zstack\ZLL\SampleApp\CC253x\..\..\ /
//                          ..\..\..\Components\osal\include\" -I "D:\Texas   /
//                          Instruments\Z-Stack Lighting                      /
//                          1.0.2\Projects\zstack\ZLL\SampleApp\CC253x\..\..\ /
//                          ..\..\..\Components\services\saddr\" -I           /
//                          "D:\Texas Instruments\Z-Stack Lighting            /
//                          1.0.2\Projects\zstack\ZLL\SampleApp\CC253x\..\..\ /
//                          ..\..\..\Components\services\sdata\" -I           /
//                          "D:\Texas Instruments\Z-Stack Lighting            /
//                          1.0.2\Projects\zstack\ZLL\SampleApp\CC253x\..\..\ /
//                          ..\..\..\Components\stack\af\" -I "D:\Texas       /
//                          Instruments\Z-Stack Lighting                      /
//                          1.0.2\Projects\zstack\ZLL\SampleApp\CC253x\..\..\ /
//                          ..\..\..\Components\stack\nwk\" -I "D:\Texas      /
//                          Instruments\Z-Stack Lighting                      /
//                          1.0.2\Projects\zstack\ZLL\SampleApp\CC253x\..\..\ /
//                          ..\..\..\Components\stack\sapi\" -I "D:\Texas     /
//                          Instruments\Z-Stack Lighting                      /
//                          1.0.2\Projects\zstack\ZLL\SampleApp\CC253x\..\..\ /
//                          ..\..\..\Components\stack\sec\" -I "D:\Texas      /
//                          Instruments\Z-Stack Lighting                      /
//                          1.0.2\Projects\zstack\ZLL\SampleApp\CC253x\..\..\ /
//                          ..\..\..\Components\stack\sys\" -I "D:\Texas      /
//                          Instruments\Z-Stack Lighting                      /
//                          1.0.2\Projects\zstack\ZLL\SampleApp\CC253x\..\..\ /
//                          ..\..\..\Components\stack\zcl\" -I "D:\Texas      /
//                          Instruments\Z-Stack Lighting                      /
//                          1.0.2\Projects\zstack\ZLL\SampleApp\CC253x\..\..\ /
//                          ..\..\..\Components\stack\zdo\" -I "D:\Texas      /
//                          Instruments\Z-Stack Lighting                      /
//                          1.0.2\Projects\zstack\ZLL\SampleApp\CC253x\..\..\ /
//                          ..\..\..\Components\zmac\" -I "D:\Texas           /
//                          Instruments\Z-Stack Lighting                      /
//                          1.0.2\Projects\zstack\ZLL\SampleApp\CC253x\..\..\ /
//                          ..\..\..\Components\zmac\f8w\" -Ohz               /
//                          --require_prototypes                              /
//    List file          =  D:\Texas Instruments\Z-Stack Lighting             /
//                          1.0.2\Projects\zstack\ZLL\SampleApp\CC253x\Zlight /
//                           - Router\List\hw_light_ctrl.s51                  /
//                                                                            /
//                                                                            /
///////////////////////////////////////////////////////////////////////////////

        NAME hw_light_ctrl

        RTMODEL "__SystemLibrary", "CLib"
        RTMODEL "__calling_convention", "xdata_reentrant"
        RTMODEL "__code_model", "banked"
        RTMODEL "__core", "plain"
        RTMODEL "__data_model", "large"
        RTMODEL "__dptr_size", "16"
        RTMODEL "__extended_stack", "disabled"
        RTMODEL "__location_for_constants", "data"
        RTMODEL "__number_of_dptrs", "1"
        RTMODEL "__rt_version", "1"

        RSEG DOVERLAY:DATA:NOROOT(0)
        RSEG IOVERLAY:IDATA:NOROOT(0)
        RSEG ISTACK:IDATA:NOROOT(0)
        RSEG PSTACK:XDATA:NOROOT(0)
        RSEG XSTACK:XDATA:NOROOT(0)

        EXTERN ?ALLOC_XSTACK8
        EXTERN ?BANKED_ENTER_XDATA
        EXTERN ?BANKED_LEAVE_XDATA
        EXTERN ?BDISPATCH
        EXTERN ?BRET
        EXTERN ?DEALLOC_XSTACK8
        EXTERN ?FLT_ADD
        EXTERN ?FLT_DIV
        EXTERN ?FLT_EQ
        EXTERN ?FLT_GE
        EXTERN ?FLT_LT
        EXTERN ?FLT_MUL
        EXTERN ?FLT_SUB
        EXTERN ?FLT_TO_L
        EXTERN ?L_ADD
        EXTERN ?L_ADD_TO_X
        EXTERN ?L_ADD_X
        EXTERN ?L_DIV_MOD
        EXTERN ?L_MOV_TO_X
        EXTERN ?L_MOV_X
        EXTERN ?L_MUL
        EXTERN ?L_SHL
        EXTERN ?L_SUB
        EXTERN ?L_TO_FLT
        EXTERN ?PUSH_XSTACK8_X_FOUR
        EXTERN ?PUSH_XSTACK_I_FOUR
        EXTERN ?PUSH_XSTACK_I_TWO
        EXTERN ?SL_GE_X
        EXTERN ?SL_GT
        EXTERN ?SL_GT_X
        EXTERN ?UL_DIV_MOD
        EXTERN ?UL_GT
        EXTERN ?UL_SHR
        EXTERN ?UL_TO_FLT
        EXTERN ?V0
        EXTERN ?XLOAD_R2345
        EXTERN ?XSP
        EXTERN ?XSTACK_DISP0_8
        EXTERN ?XSTORE_R2345
        EXTERN __INIT_XDATA_Z

        PUBLIC ??hwLight_ApplyUpdate16b?relay
        FUNCTION ??hwLight_ApplyUpdate16b?relay,0203H
        PUBLIC ??hwLight_ApplyUpdate?relay
        FUNCTION ??hwLight_ApplyUpdate?relay,0203H
        FUNCTION ??hwLight_Convert_xyY_to_RGB?relay,0203H
        FUNCTION ??hwLight_RGB_to_RGBW?relay,0203H
        PUBLIC ??hwLight_Refresh?relay
        FUNCTION ??hwLight_Refresh?relay,0203H
        PUBLIC ??hwLight_UpdateColorMode?relay
        FUNCTION ??hwLight_UpdateColorMode?relay,0203H
        FUNCTION ??hwLight_UpdateLampColor?relay,0203H
        PUBLIC ??hwLight_UpdateLampColorHueSat?relay
        FUNCTION ??hwLight_UpdateLampColorHueSat?relay,0203H
        PUBLIC ??hwLight_UpdateOnOff?relay
        FUNCTION ??hwLight_UpdateOnOff?relay,0203H
        FUNCTION ??hwLight_XyToSat?relay,0203H
        FUNCTION ??hwLight_satToXy?relay,0203H
        PUBWEAK P0SEL
        PUBWEAK _A_P0
        PUBWEAK __Constant_0
        PUBWEAK __Constant_1
        PUBWEAK __Constant_100
        PUBWEAK __Constant_3b449ba7
        PUBWEAK __Constant_3d29fbe7
        PUBWEAK __Constant_3d6425af
        PUBWEAK __Constant_3ec8c8c9
        PUBWEAK __Constant_3f2aaaab
        PUBWEAK __Constant_3f800001
        PUBWEAK __Constant_3f874bc7
        PUBWEAK __Constant_3f8b851f
        PUBWEAK __Constant_3f9c28f6
        PUBWEAK __Constant_3ff01a37
        PUBWEAK __Constant_404f65fe
        PUBWEAK __Constant_42be1811
        PUBWEAK __Constant_42c80000
        PUBWEAK __Constant_42c80001
        PUBWEAK __Constant_42d9c41a
        PUBWEAK __Constant_437e0000
        PUBWEAK __Constant_437f0000
        PUBWEAK __Constant_447a0000
        PUBWEAK __Constant_477fff00
        PUBWEAK __Constant_7f
        PUBWEAK __Constant_bd23d70a
        PUBWEAK __Constant_bd4ccccd
        PUBWEAK __Constant_be50e560
        PUBWEAK __Constant_beff4880
        PUBWEAK __Constant_bf7809d5
        PUBWEAK __Constant_bf800000
        PUBWEAK __Constant_bfc4c2f8
        PUBWEAK __Constant_fe
        PUBWEAK __Constant_ffffaaab
        PUBWEAK __Constant_ffffb000
        PUBWEAK __Constant_ffffff00
        PUBLIC hueToX
        PUBLIC hueToY
        PUBLIC hwLight_ApplyUpdate
        FUNCTION hwLight_ApplyUpdate,021203H
        ARGFRAME XSTACK, 6, STACK
        LOCFRAME ISTACK, 1, STACK
        LOCFRAME XSTACK, 29, STACK
        PUBLIC hwLight_ApplyUpdate16b
        FUNCTION hwLight_ApplyUpdate16b,021203H
        ARGFRAME XSTACK, 8, STACK
        LOCFRAME ISTACK, 1, STACK
        LOCFRAME XSTACK, 33, STACK
        FUNCTION hwLight_Convert_xyY_to_RGB,021203H
        ARGFRAME XSTACK, 38, STACK
        ARGFRAME IOVERLAY, 0, STATIC
        ARGFRAME DOVERLAY, 0, STATIC
        LOCFRAME ISTACK, 4, STACK
        LOCFRAME XSTACK, 44, STACK
        FUNCTION hwLight_RGB_to_RGBW,0203H
        ARGFRAME XSTACK, 28, STACK
        ARGFRAME IOVERLAY, 0, STATIC
        ARGFRAME DOVERLAY, 0, STATIC
        LOCFRAME XSTACK, 22, STACK
        PUBLIC hwLight_Refresh
        FUNCTION hwLight_Refresh,021203H
        ARGFRAME XSTACK, 33, STACK
        ARGFRAME IOVERLAY, 0, STATIC
        ARGFRAME DOVERLAY, 0, STATIC
        LOCFRAME XSTACK, 9, STACK
        PUBLIC hwLight_UpdateColorMode
        FUNCTION hwLight_UpdateColorMode,021203H
        ARGFRAME XSTACK, 9, STACK
        ARGFRAME IOVERLAY, 0, STATIC
        ARGFRAME DOVERLAY, 0, STATIC
        LOCFRAME XSTACK, 20, STACK
        FUNCTION hwLight_UpdateLampColor,021203H
        ARGFRAME XSTACK, 13, STACK
        ARGFRAME IOVERLAY, 0, STATIC
        ARGFRAME DOVERLAY, 0, STATIC
        LOCFRAME XSTACK, 38, STACK
        PUBLIC hwLight_UpdateLampColorHueSat
        FUNCTION hwLight_UpdateLampColorHueSat,021203H
        ARGFRAME XSTACK, 9, STACK
        ARGFRAME IOVERLAY, 0, STATIC
        ARGFRAME DOVERLAY, 0, STATIC
        LOCFRAME XSTACK, 13, STACK
        PUBLIC hwLight_UpdateOnOff
        FUNCTION hwLight_UpdateOnOff,0203H
        ARGFRAME XSTACK, 9, STACK
        ARGFRAME IOVERLAY, 0, STATIC
        ARGFRAME DOVERLAY, 0, STATIC
        FUNCTION hwLight_XyToSat,0203H
        ARGFRAME XSTACK, 20, STACK
        ARGFRAME IOVERLAY, 0, STATIC
        ARGFRAME DOVERLAY, 0, STATIC
        LOCFRAME XSTACK, 20, STACK
        FUNCTION hwLight_satToXy,0203H
        ARGFRAME XSTACK, 20, STACK
        ARGFRAME IOVERLAY, 0, STATIC
        ARGFRAME DOVERLAY, 0, STATIC
        LOCFRAME XSTACK, 28, STACK
        
          CFI Names cfiNames0
          CFI StackFrame CFA_SP SP IDATA
          CFI StackFrame CFA_PSP16 PSP16 XDATA
          CFI StackFrame CFA_XSP16 XSP16 XDATA
          CFI StaticOverlayFrame CFA_IOVERLAY IOVERLAY
          CFI StaticOverlayFrame CFA_DOVERLAY DOVERLAY
          CFI Resource `PSW.CY`:1, `B.BR0`:1, `B.BR1`:1, `B.BR2`:1, `B.BR3`:1
          CFI Resource `B.BR4`:1, `B.BR5`:1, `B.BR6`:1, `B.BR7`:1, `VB.BR8`:1
          CFI Resource `VB.BR9`:1, `VB.BR10`:1, `VB.BR11`:1, `VB.BR12`:1
          CFI Resource `VB.BR13`:1, `VB.BR14`:1, `VB.BR15`:1, VB:8, B:8, A:8
          CFI Resource PSW:8, DPL0:8, DPH0:8, R0:8, R1:8, R2:8, R3:8, R4:8, R5:8
          CFI Resource R6:8, R7:8, V0:8, V1:8, V2:8, V3:8, V4:8, V5:8, V6:8, V7:8
          CFI Resource V8:8, V9:8, V10:8, V11:8, V12:8, V13:8, V14:8, V15:8, SP:8
          CFI Resource PSPH:8, PSPL:8, PSP16:16, XSPH:8, XSPL:8, XSP16:16
          CFI VirtualResource ?RET:24
          CFI Resource ?BRET_EXT:8
          CFI VirtualResource ?RET_HIGH:8, ?RET_LOW:8
          CFI ResourceParts PSP16 PSPH, PSPL
          CFI ResourceParts XSP16 XSPH, XSPL
          CFI ResourceParts ?RET ?BRET_EXT, ?RET_HIGH, ?RET_LOW
          CFI EndNames cfiNames0
        
          CFI Common cfiCommon0 Using cfiNames0
          CFI CodeAlign 1
          CFI DataAlign -1
          CFI ReturnAddress ?RET CODE
          CFI CFA_DOVERLAY Used
          CFI CFA_IOVERLAY Used
          CFI CFA_SP SP+-3
          CFI CFA_PSP16 PSP16+0
          CFI CFA_XSP16 XSP16+0
          CFI `PSW.CY` SameValue
          CFI `B.BR0` SameValue
          CFI `B.BR1` SameValue
          CFI `B.BR2` SameValue
          CFI `B.BR3` SameValue
          CFI `B.BR4` SameValue
          CFI `B.BR5` SameValue
          CFI `B.BR6` SameValue
          CFI `B.BR7` SameValue
          CFI `VB.BR8` SameValue
          CFI `VB.BR9` SameValue
          CFI `VB.BR10` SameValue
          CFI `VB.BR11` SameValue
          CFI `VB.BR12` SameValue
          CFI `VB.BR13` SameValue
          CFI `VB.BR14` SameValue
          CFI `VB.BR15` SameValue
          CFI VB SameValue
          CFI B Undefined
          CFI A Undefined
          CFI PSW SameValue
          CFI DPL0 SameValue
          CFI DPH0 SameValue
          CFI R0 Undefined
          CFI R1 Undefined
          CFI R2 Undefined
          CFI R3 Undefined
          CFI R4 Undefined
          CFI R5 Undefined
          CFI R6 SameValue
          CFI R7 SameValue
          CFI V0 SameValue
          CFI V1 SameValue
          CFI V2 SameValue
          CFI V3 SameValue
          CFI V4 SameValue
          CFI V5 SameValue
          CFI V6 SameValue
          CFI V7 SameValue
          CFI V8 SameValue
          CFI V9 SameValue
          CFI V10 SameValue
          CFI V11 SameValue
          CFI V12 SameValue
          CFI V13 SameValue
          CFI V14 SameValue
          CFI V15 SameValue
          CFI PSPH Undefined
          CFI PSPL Undefined
          CFI XSPH Undefined
          CFI XSPL Undefined
          CFI ?RET Concat
          CFI ?BRET_EXT Frame(CFA_SP, 3)
          CFI ?RET_HIGH Frame(CFA_SP, 2)
          CFI ?RET_LOW Frame(CFA_SP, 1)
          CFI EndCommon cfiCommon0
        
        
          CFI Common cfiCommon1 Using cfiNames0
          CFI CodeAlign 1
          CFI DataAlign -1
          CFI ReturnAddress ?RET CODE
          CFI CFA_DOVERLAY Used
          CFI CFA_IOVERLAY Used
          CFI CFA_SP SP+-2
          CFI CFA_PSP16 PSP16+0
          CFI CFA_XSP16 XSP16+0
          CFI `PSW.CY` SameValue
          CFI `B.BR0` SameValue
          CFI `B.BR1` SameValue
          CFI `B.BR2` SameValue
          CFI `B.BR3` SameValue
          CFI `B.BR4` SameValue
          CFI `B.BR5` SameValue
          CFI `B.BR6` SameValue
          CFI `B.BR7` SameValue
          CFI `VB.BR8` SameValue
          CFI `VB.BR9` SameValue
          CFI `VB.BR10` SameValue
          CFI `VB.BR11` SameValue
          CFI `VB.BR12` SameValue
          CFI `VB.BR13` SameValue
          CFI `VB.BR14` SameValue
          CFI `VB.BR15` SameValue
          CFI VB SameValue
          CFI B SameValue
          CFI A SameValue
          CFI PSW SameValue
          CFI DPL0 SameValue
          CFI DPH0 SameValue
          CFI R0 SameValue
          CFI R1 SameValue
          CFI R2 SameValue
          CFI R3 SameValue
          CFI R4 SameValue
          CFI R5 SameValue
          CFI R6 SameValue
          CFI R7 SameValue
          CFI V0 SameValue
          CFI V1 SameValue
          CFI V2 SameValue
          CFI V3 SameValue
          CFI V4 SameValue
          CFI V5 SameValue
          CFI V6 SameValue
          CFI V7 SameValue
          CFI V8 SameValue
          CFI V9 SameValue
          CFI V10 SameValue
          CFI V11 SameValue
          CFI V12 SameValue
          CFI V13 SameValue
          CFI V14 SameValue
          CFI V15 SameValue
          CFI PSPH Undefined
          CFI PSPL Undefined
          CFI XSPH Undefined
          CFI XSPL Undefined
          CFI ?RET Concat
          CFI ?BRET_EXT SameValue
          CFI ?RET_HIGH Frame(CFA_SP, 2)
          CFI ?RET_LOW Frame(CFA_SP, 1)
          CFI EndCommon cfiCommon1
        
halTimer1SetChannelDuty SYMBOL "halTimer1SetChannelDuty"
??halTimer1SetChannelDuty?relay SYMBOL "?relay", halTimer1SetChannelDuty
pow                 SYMBOL "pow"
??pow?relay         SYMBOL "?relay", pow
hwLight_ApplyUpdate16b SYMBOL "hwLight_ApplyUpdate16b"
??hwLight_ApplyUpdate16b?relay SYMBOL "?relay", hwLight_ApplyUpdate16b
hwLight_ApplyUpdate SYMBOL "hwLight_ApplyUpdate"
??hwLight_ApplyUpdate?relay SYMBOL "?relay", hwLight_ApplyUpdate
hwLight_Refresh     SYMBOL "hwLight_Refresh"
??hwLight_Refresh?relay SYMBOL "?relay", hwLight_Refresh
hwLight_UpdateColorMode SYMBOL "hwLight_UpdateColorMode"
??hwLight_UpdateColorMode?relay SYMBOL "?relay", hwLight_UpdateColorMode
hwLight_UpdateLampColorHueSat SYMBOL "hwLight_UpdateLampColorHueSat"
??hwLight_UpdateLampColorHueSat?relay SYMBOL "?relay", hwLight_UpdateLampColorHueSat
hwLight_UpdateOnOff SYMBOL "hwLight_UpdateOnOff"
??hwLight_UpdateOnOff?relay SYMBOL "?relay", hwLight_UpdateOnOff

        EXTERN ??halTimer1SetChannelDuty?relay
        FUNCTION ??halTimer1SetChannelDuty?relay,00H
        EXTERN ??pow?relay
        FUNCTION ??pow?relay,00H
        EXTERN halTimer1SetChannelDuty
        FUNCTION halTimer1SetChannelDuty,0202H
        ARGFRAME ISTACK, 0, STACK
        ARGFRAME PSTACK, 0, STACK
        ARGFRAME XSTACK, 24, STACK
        ARGFRAME IOVERLAY, 0, STATIC
        ARGFRAME DOVERLAY, 0, STATIC
        EXTERN pow
        FUNCTION pow,010202H
        ARGFRAME ISTACK, 0, STACK
        ARGFRAME PSTACK, 0, STACK
        ARGFRAME XSTACK, 44, STACK
        ARGFRAME IOVERLAY, 0, STATIC
        ARGFRAME DOVERLAY, 0, STATIC
        EXTERN zclColor_ColorMode
        EXTERN zclColor_CurrentHue
        EXTERN zclColor_CurrentSaturation
        EXTERN zclColor_CurrentX
        EXTERN zclColor_CurrentY
        EXTERN zclColor_EnhancedColorMode
        EXTERN zclColor_EnhancedCurrentHue
        EXTERN zclLevel_CurrentLevel
        EXTERN zllSampleLight_OnOff
        EXTERN zllSampleLight_SceneValid

// D:\Texas Instruments\Z-Stack Lighting 1.0.2\Projects\zstack\ZLL\SampleApp\Source\Light\hw_light_ctrl.c
//    1 /**************************************************************************************************
//    2   Filename:       hw_light_ctrl.c
//    3   Revised:        $Date: 2013-12-02 13:17:39 -0800 (Mon, 02 Dec 2013) $
//    4   Revision:       $Revision: 36338 $
//    5 
//    6 
//    7   Description:    Application physical lighting device control and color engine
//    8                   demonstration, provided as a source for inspiration.
//    9 
//   10 
//   11   Copyright 2011-2013 Texas Instruments Incorporated. All rights reserved.
//   12 
//   13   IMPORTANT: Your use of this Software is limited to those specific rights
//   14   granted under the terms of a software license agreement between the user
//   15   who downloaded the software, his/her employer (which must be your employer)
//   16   and Texas Instruments Incorporated (the "License").  You may not use this
//   17   Software unless you agree to abide by the terms of the License. The License
//   18   limits your use, and you acknowledge, that the Software may not be modified,
//   19   copied or distributed unless embedded on a Texas Instruments microcontroller
//   20   or used solely and exclusively in conjunction with a Texas Instruments radio
//   21   frequency transceiver, which is integrated into your product.  Other than for
//   22   the foregoing purpose, you may not use, reproduce, copy, prepare derivative
//   23   works of, modify, distribute, perform, display or sell this Software and/or
//   24   its documentation for any purpose.
//   25 
//   26   YOU FURTHER ACKNOWLEDGE AND AGREE THAT THE SOFTWARE AND DOCUMENTATION ARE
//   27   PROVIDED “AS IS” WITHOUT WARRANTY OF ANY KIND, EITHER EXPRESS OR IMPLIED,
//   28   INCLUDING WITHOUT LIMITATION, ANY WARRANTY OF MERCHANTABILITY, TITLE,
//   29   NON-INFRINGEMENT AND FITNESS FOR A PARTICULAR PURPOSE. IN NO EVENT SHALL
//   30   TEXAS INSTRUMENTS OR ITS LICENSORS BE LIABLE OR OBLIGATED UNDER CONTRACT,
//   31   NEGLIGENCE, STRICT LIABILITY, CONTRIBUTION, BREACH OF WARRANTY, OR OTHER
//   32   LEGAL EQUITABLE THEORY ANY DIRECT OR INDIRECT DAMAGES OR EXPENSES
//   33   INCLUDING BUT NOT LIMITED TO ANY INCIDENTAL, SPECIAL, INDIRECT, PUNITIVE
//   34   OR CONSEQUENTIAL DAMAGES, LOST PROFITS OR LOST DATA, COST OF PROCUREMENT
//   35   OF SUBSTITUTE GOODS, TECHNOLOGY, SERVICES, OR ANY CLAIMS BY THIRD PARTIES
//   36   (INCLUDING BUT NOT LIMITED TO ANY DEFENSE THEREOF), OR OTHER SIMILAR COSTS.
//   37 
//   38   Should you have any questions regarding your right to use this Software,
//   39   contact Texas Instruments Incorporated at www.TI.com.
//   40 **************************************************************************************************/
//   41 
//   42 /*********************************************************************
//   43   This device will be like a Light device.  This application is not
//   44   intended to be a Light device, but will use the device description
//   45   to implement this sample code.
//   46 *********************************************************************/
//   47 
//   48 /*********************************************************************
//   49  * INCLUDES
//   50  */
//   51 #include "onboard.h"

        ASEGN SFR_AN:DATA:NOROOT,080H
// union <unnamed> volatile __sfr _A_P0
_A_P0:
        DATA8
        DS 1

        ASEGN SFR_AN:DATA:NOROOT,0f3H
// unsigned char volatile __sfr P0SEL
P0SEL:
        DATA8
        DS 1
//   52 
//   53 /* HAL */
//   54 #include "hal_timer.h"
//   55 //#include "hal_lcd.h"
//   56 #include "hal_oled.h"
//   57 #include "hal_led.h"
//   58 
//   59 #ifdef ZCL_COLOR_CTRL
//   60 #include "hueToXyTable.c"

        RSEG CODE_C:CODE:REORDER:NOROOT(0)
        DATA8
// unsigned short const __code hueToX[256]
hueToX:
        DATA16
        DW 49151
        DW 48630
        DW 48110
        DW 47589
        DW 47069
        DW 46548
        DW 46028
        DW 45508
        DW 44987
        DW 44467
        DW 43946
        DW 43426
        DW 42905
        DW 42385
        DW 41865
        DW 41344
        DW 40824
        DW 40303
        DW 39783
        DW 39262
        DW 38742
        DW 38222
        DW 37701
        DW 37181
        DW 36660
        DW 36140
        DW 35620
        DW 35099
        DW 34579
        DW 34058
        DW 33538
        DW 33017
        DW 32497
        DW 31977
        DW 31456
        DW 30936
        DW 30415
        DW 29895
        DW 29374
        DW 28854
        DW 28334
        DW 27813
        DW 27293
        DW 26772
        DW 26252
        DW 25731
        DW 25211
        DW 24691
        DW 24170
        DW 23650
        DW 23129
        DW 22609
        DW 22089
        DW 21568
        DW 21048
        DW 20527
        DW 20007
        DW 19486
        DW 18966
        DW 18446
        DW 17925
        DW 17405
        DW 16884
        DW 16364
        DW 15843
        DW 15323
        DW 14803
        DW 14282
        DW 13762
        DW 13241
        DW 12721
        DW 12200
        DW 11680
        DW 11160
        DW 10639
        DW 10119
        DW 9598
        DW 9078
        DW 8558
        DW 8037
        DW 7517
        DW 6996
        DW 6476
        DW 5955
        DW 4915
        DW 4957
        DW 4999
        DW 5042
        DW 5084
        DW 5126
        DW 5169
        DW 5211
        DW 5254
        DW 5296
        DW 5338
        DW 5381
        DW 5423
        DW 5466
        DW 5508
        DW 5550
        DW 5593
        DW 5635
        DW 5678
        DW 5720
        DW 5762
        DW 5805
        DW 5847
        DW 5890
        DW 5932
        DW 5974
        DW 6017
        DW 6059
        DW 6102
        DW 6144
        DW 6186
        DW 6229
        DW 6271
        DW 6314
        DW 6356
        DW 6398
        DW 6441
        DW 6483
        DW 6526
        DW 6568
        DW 6610
        DW 6653
        DW 6695
        DW 6738
        DW 6780
        DW 6822
        DW 6865
        DW 6907
        DW 6950
        DW 6992
        DW 7034
        DW 7077
        DW 7119
        DW 7162
        DW 7204
        DW 7246
        DW 7289
        DW 7331
        DW 7374
        DW 7416
        DW 7458
        DW 7501
        DW 7543
        DW 7586
        DW 7628
        DW 7670
        DW 7713
        DW 7755
        DW 7798
        DW 7840
        DW 7882
        DW 7925
        DW 7967
        DW 8010
        DW 8052
        DW 8094
        DW 8137
        DW 8179
        DW 8222
        DW 8264
        DW 8306
        DW 8349
        DW 8391
        DW 8434
        DW 8519
        DW 8997
        DW 9475
        DW 9953
        DW 10431
        DW 10909
        DW 11387
        DW 11865
        DW 12343
        DW 12821
        DW 13299
        DW 13777
        DW 14255
        DW 14733
        DW 15211
        DW 15689
        DW 16167
        DW 16645
        DW 17123
        DW 17601
        DW 18079
        DW 18557
        DW 19035
        DW 19513
        DW 19991
        DW 20469
        DW 20947
        DW 21425
        DW 21903
        DW 22381
        DW 22859
        DW 23337
        DW 23815
        DW 24293
        DW 24771
        DW 25249
        DW 25727
        DW 26205
        DW 26683
        DW 27161
        DW 27639
        DW 28117
        DW 28595
        DW 29074
        DW 29552
        DW 30030
        DW 30508
        DW 30986
        DW 31464
        DW 31942
        DW 32420
        DW 32898
        DW 33376
        DW 33854
        DW 34332
        DW 34810
        DW 35288
        DW 35766
        DW 36244
        DW 36722
        DW 37200
        DW 37678
        DW 38156
        DW 38634
        DW 39112
        DW 39590
        DW 40068
        DW 40546
        DW 41024
        DW 41502
        DW 41980
        DW 42458
        DW 42936
        DW 43414
        DW 43892
        DW 44370
        DW 44848
        DW 45326
        DW 45804
        DW 46282
        DW 46760
        DW 47238
        DW 47716
        DW 48194
        DW 48672
        DW 48841
        DW 49010
        DW 49151

        RSEG CODE_C:CODE:REORDER:NOROOT(0)
        DATA8
// unsigned short const __code hueToY[256]
hueToY:
        DATA16
        DW 16383
        DW 16807
        DW 17231
        DW 17655
        DW 18079
        DW 18503
        DW 18927
        DW 19351
        DW 19775
        DW 20199
        DW 20623
        DW 21047
        DW 21471
        DW 21895
        DW 22319
        DW 22743
        DW 23167
        DW 23591
        DW 24016
        DW 24440
        DW 24864
        DW 25288
        DW 25712
        DW 26136
        DW 26560
        DW 26984
        DW 27408
        DW 27832
        DW 28256
        DW 28680
        DW 29104
        DW 29528
        DW 29952
        DW 30376
        DW 30800
        DW 31225
        DW 31649
        DW 32073
        DW 32497
        DW 32921
        DW 33345
        DW 33769
        DW 34193
        DW 34617
        DW 35041
        DW 35465
        DW 35889
        DW 36313
        DW 36737
        DW 37161
        DW 37585
        DW 38009
        DW 38434
        DW 38858
        DW 39282
        DW 39706
        DW 40130
        DW 40554
        DW 40978
        DW 41402
        DW 41826
        DW 42250
        DW 42674
        DW 43098
        DW 43522
        DW 43946
        DW 44370
        DW 44794
        DW 45218
        DW 45643
        DW 46067
        DW 46491
        DW 46915
        DW 47339
        DW 47763
        DW 48187
        DW 48611
        DW 49035
        DW 49459
        DW 49883
        DW 50307
        DW 50731
        DW 51155
        DW 51579
        DW 52428
        DW 51834
        DW 51240
        DW 50646
        DW 50053
        DW 49459
        DW 48865
        DW 48272
        DW 47678
        DW 47084
        DW 46491
        DW 45897
        DW 45303
        DW 44710
        DW 44116
        DW 43522
        DW 42929
        DW 42335
        DW 41741
        DW 41148
        DW 40554
        DW 39960
        DW 39367
        DW 38773
        DW 38179
        DW 37586
        DW 36992
        DW 36398
        DW 35805
        DW 35211
        DW 34617
        DW 34024
        DW 33430
        DW 32836
        DW 32243
        DW 31649
        DW 31055
        DW 30462
        DW 29868
        DW 29274
        DW 28681
        DW 28087
        DW 27493
        DW 26900
        DW 26306
        DW 25712
        DW 25119
        DW 24525
        DW 23931
        DW 23338
        DW 22744
        DW 22150
        DW 21557
        DW 20963
        DW 20369
        DW 19776
        DW 19182
        DW 18588
        DW 17995
        DW 17401
        DW 16807
        DW 16214
        DW 15620
        DW 15026
        DW 14433
        DW 13839
        DW 13245
        DW 12652
        DW 12058
        DW 11464
        DW 10871
        DW 10277
        DW 9683
        DW 9090
        DW 8496
        DW 7902
        DW 7309
        DW 6715
        DW 6121
        DW 5527
        DW 4934
        DW 4340
        DW 3746
        DW 3153
        DW 1966
        DW 2135
        DW 2305
        DW 2474
        DW 2644
        DW 2814
        DW 2983
        DW 3153
        DW 3322
        DW 3492
        DW 3662
        DW 3831
        DW 4001
        DW 4170
        DW 4340
        DW 4510
        DW 4679
        DW 4849
        DW 5019
        DW 5188
        DW 5358
        DW 5527
        DW 5697
        DW 5867
        DW 6036
        DW 6206
        DW 6375
        DW 6545
        DW 6715
        DW 6884
        DW 7054
        DW 7223
        DW 7393
        DW 7563
        DW 7732
        DW 7902
        DW 8072
        DW 8241
        DW 8411
        DW 8580
        DW 8750
        DW 8920
        DW 9089
        DW 9259
        DW 9428
        DW 9598
        DW 9768
        DW 9937
        DW 10107
        DW 10276
        DW 10446
        DW 10616
        DW 10785
        DW 10955
        DW 11125
        DW 11294
        DW 11464
        DW 11633
        DW 11803
        DW 11973
        DW 12142
        DW 12312
        DW 12481
        DW 12651
        DW 12821
        DW 12990
        DW 13160
        DW 13329
        DW 13499
        DW 13669
        DW 13838
        DW 14008
        DW 14178
        DW 14347
        DW 14517
        DW 14686
        DW 14856
        DW 15026
        DW 15195
        DW 15365
        DW 15534
        DW 15704
        DW 15874
        DW 16043
        DW 16213
        DW 16382
        DW 16381
        DW 16383
//   61 #include "zcl_color_ctrl.h"
//   62 #endif //ZCL_COLOR_CTRL
//   63 
//   64 #include "hw_light_ctrl.h"
//   65 #include "zll_samplelight.h"
//   66 
//   67 #include "math.h"
//   68 
//   69 
//   70 /*********************************************************************
//   71  * MACROS
//   72  */
//   73 #define WHITE_POINT_X 0x5000
//   74 #define WHITE_POINT_Y 0x5555
//   75 
//   76 #define MAX3(a,b,c) (((a) > (b)) ? ( ((a) > (c)) ? (a) : (c) ) : ( ((b) > (c)) ? (b) : (c) ))
//   77 #define MIN3(a,b,c) (((a) > (b)) ? ( ((b) > (c)) ? (c) : (b) ) : ( ((a) > (c)) ? (c) : (a) ))
//   78 #define DISTANCE(a,b)  (((a) > (b)) ? ((a) - (b)) : ((b)-(a)))
//   79 
//   80 /*********************************************************************
//   81  * CONSTANTS
//   82  */
//   83 #define GAMMA_VALUE 2
//   84 
//   85 /*********************************************************************
//   86  * TYPEDEFS
//   87  */
//   88 
//   89 /*********************************************************************
//   90  * GLOBAL VARIABLES
//   91  */
//   92 
//   93 /*********************************************************************
//   94  * GLOBAL FUNCTIONS
//   95  */
//   96 
//   97 /*********************************************************************
//   98  * LOCAL VARIABLES
//   99  */
//  100 
//  101 /*********************************************************************
//  102  * LOCAL FUNCTIONS
//  103  */
//  104 #ifdef ZCL_COLOR_CTRL
//  105 static void hwLight_UpdateColor(void);
//  106 static uint8 hwLight_XyToSat(uint16 x, uint16 y, uint8 hue);
//  107 static void hwLight_satToXy(uint16 *x, uint16 *y, uint8 sat);
//  108 #ifdef ZLL_HW_LED_LAMP
//  109 static void hwLight_Convert_xyY_to_RGB(float x, float y, float Y, uint16 *R, uint16 *G,uint16 *B);
//  110 static void hwLight_GammaCorrectRGB(float *R, float *G, float *B);
//  111 static void hwLight_TempCompensateRGB(float *R, float *G, float *B);
//  112 static void hwLight_TempCompensateRGB(float *R, float *G, float *B);
//  113 static void hwLight_GroupWaveLenCompensateRGB(float *R, float *G, float *B);
//  114 static void hwLight_GroupLuminCompensateRGB(float *R, float *G, float *B);
//  115 static void hwLight_RGB_to_RGBW( uint16 *R, uint16 *G, uint16 *B, uint16 *W );
//  116 static void hwLight_UpdateLampColor( uint16 colorX, uint16 colorY, uint8 level);
//  117 #endif //ZLL_HW_LED_LAMP
//  118 #else  //ZCL_COLOR_CTRL
//  119 #ifdef ZCL_LEVEL_CTRL
//  120 static void hwLight_UpdateLevel( uint8 level );
//  121 #endif //ZCL_LEVEL_CTRL
//  122 #endif //ZCL_COLOR_CTRL
//  123 
//  124 #ifdef ZCL_COLOR_CTRL
//  125 #ifdef ZLL_HW_LED_LAMP
//  126 /*********************************************************************
//  127 * @fn      zclSimpleLight_UpdateLampColor()
//  128 *
//  129 * @brief   Update color and level of lamp
//  130 *
//  131 * @param   ColorX, ColorY 0... 0xFFFF, level 0...0xFF
//  132 *
//  133 * @return  none
//  134 */

        RSEG BANKED_CODE:CODE:NOROOT(0)
//  135 static void hwLight_UpdateLampColor( uint16 colorX, uint16 colorY, uint8 level)
hwLight_UpdateLampColor:
          CFI Block cfiBlock0 Using cfiCommon0
          CFI Function hwLight_UpdateLampColor
        CODE
//  136 {
        FUNCALL hwLight_UpdateLampColor, hwLight_Convert_xyY_to_RGB
        LOCFRAME ISTACK, 0, STACK
        LOCFRAME PSTACK, 0, STACK
        LOCFRAME XSTACK, 38, STACK
        LOCFRAME IOVERLAY, 0, STATIC
        LOCFRAME DOVERLAY, 0, STATIC
        ARGFRAME ISTACK, 0, STACK
        ARGFRAME PSTACK, 0, STACK
        ARGFRAME XSTACK, 38, STACK
        ARGFRAME IOVERLAY, 0, STATIC
        ARGFRAME DOVERLAY, 0, STATIC
        FUNCALL hwLight_UpdateLampColor, hwLight_RGB_to_RGBW
        LOCFRAME ISTACK, 0, STACK
        LOCFRAME PSTACK, 0, STACK
        LOCFRAME XSTACK, 28, STACK
        LOCFRAME IOVERLAY, 0, STATIC
        LOCFRAME DOVERLAY, 0, STATIC
        ARGFRAME ISTACK, 0, STACK
        ARGFRAME PSTACK, 0, STACK
        ARGFRAME XSTACK, 28, STACK
        ARGFRAME IOVERLAY, 0, STATIC
        ARGFRAME DOVERLAY, 0, STATIC
        FUNCALL hwLight_UpdateLampColor, halTimer1SetChannelDuty
        LOCFRAME ISTACK, 0, STACK
        LOCFRAME PSTACK, 0, STACK
        LOCFRAME XSTACK, 24, STACK
        LOCFRAME IOVERLAY, 0, STATIC
        LOCFRAME DOVERLAY, 0, STATIC
        ARGFRAME ISTACK, 0, STACK
        ARGFRAME PSTACK, 0, STACK
        ARGFRAME XSTACK, 24, STACK
        ARGFRAME IOVERLAY, 0, STATIC
        ARGFRAME DOVERLAY, 0, STATIC
        FUNCALL hwLight_UpdateLampColor, halTimer1SetChannelDuty
        LOCFRAME ISTACK, 0, STACK
        LOCFRAME PSTACK, 0, STACK
        LOCFRAME XSTACK, 24, STACK
        LOCFRAME IOVERLAY, 0, STATIC
        LOCFRAME DOVERLAY, 0, STATIC
        ARGFRAME ISTACK, 0, STACK
        ARGFRAME PSTACK, 0, STACK
        ARGFRAME XSTACK, 24, STACK
        ARGFRAME IOVERLAY, 0, STATIC
        ARGFRAME DOVERLAY, 0, STATIC
        FUNCALL hwLight_UpdateLampColor, halTimer1SetChannelDuty
        LOCFRAME ISTACK, 0, STACK
        LOCFRAME PSTACK, 0, STACK
        LOCFRAME XSTACK, 24, STACK
        LOCFRAME IOVERLAY, 0, STATIC
        LOCFRAME DOVERLAY, 0, STATIC
        ARGFRAME ISTACK, 0, STACK
        ARGFRAME PSTACK, 0, STACK
        ARGFRAME XSTACK, 24, STACK
        ARGFRAME IOVERLAY, 0, STATIC
        ARGFRAME DOVERLAY, 0, STATIC
        FUNCALL hwLight_UpdateLampColor, halTimer1SetChannelDuty
        LOCFRAME ISTACK, 0, STACK
        LOCFRAME PSTACK, 0, STACK
        LOCFRAME XSTACK, 24, STACK
        LOCFRAME IOVERLAY, 0, STATIC
        LOCFRAME DOVERLAY, 0, STATIC
        ARGFRAME ISTACK, 0, STACK
        ARGFRAME PSTACK, 0, STACK
        ARGFRAME XSTACK, 24, STACK
        ARGFRAME IOVERLAY, 0, STATIC
        ARGFRAME DOVERLAY, 0, STATIC
        MOV     A,#-0x10
        LCALL   ?BANKED_ENTER_XDATA
          CFI DPH0 load(1, XDATA, add(CFA_XSP16, literal(-1)))
          CFI DPL0 load(1, XDATA, add(CFA_XSP16, literal(-2)))
          CFI ?BRET_EXT load(1, XDATA, add(CFA_XSP16, literal(-3)))
          CFI ?RET_HIGH load(1, XDATA, add(CFA_XSP16, literal(-4)))
          CFI ?RET_LOW load(1, XDATA, add(CFA_XSP16, literal(-5)))
          CFI R7 load(1, XDATA, add(CFA_XSP16, literal(-6)))
          CFI V7 load(1, XDATA, add(CFA_XSP16, literal(-7)))
          CFI V6 load(1, XDATA, add(CFA_XSP16, literal(-8)))
          CFI V5 load(1, XDATA, add(CFA_XSP16, literal(-9)))
          CFI V4 load(1, XDATA, add(CFA_XSP16, literal(-10)))
          CFI V3 load(1, XDATA, add(CFA_XSP16, literal(-11)))
          CFI V2 load(1, XDATA, add(CFA_XSP16, literal(-12)))
          CFI V1 load(1, XDATA, add(CFA_XSP16, literal(-13)))
          CFI V0 load(1, XDATA, add(CFA_XSP16, literal(-14)))
          CFI VB load(1, XDATA, add(CFA_XSP16, literal(-15)))
          CFI R6 load(1, XDATA, add(CFA_XSP16, literal(-16)))
          CFI CFA_SP SP+0
          CFI CFA_XSP16 add(XSP16, 16)
        ; Saved register size: 16
        ; Auto size: 8
        MOV     A,#-0x8
        LCALL   ?ALLOC_XSTACK8
          CFI CFA_XSP16 add(XSP16, 24)
        MOV     A,R1
        MOV     R6,A
//  137   uint16 redP, greenP, blueP, whiteP;
//  138 
//  139   hwLight_Convert_xyY_to_RGB((float)colorX/0xFFFF, (float)colorY/0xFFFF, (float) level*(100/(float)0xFF),
//  140                      &redP, &greenP, &blueP);
        ; Setup parameters for call to function hwLight_Convert_xyY_to_RGB
        MOV     DPL,?XSP + 0
        MOV     DPH,?XSP + 1
        MOV     ?V0 + 0,DPL
        MOV     ?V0 + 1,DPH
        MOV     R0,#?V0 + 0
        LCALL   ?PUSH_XSTACK_I_TWO
          CFI CFA_XSP16 add(XSP16, 26)
        MOV     A,#0x4
        LCALL   ?XSTACK_DISP0_8
        MOV     ?V0 + 0,DPL
        MOV     ?V0 + 1,DPH
        MOV     R0,#?V0 + 0
        LCALL   ?PUSH_XSTACK_I_TWO
          CFI CFA_XSP16 add(XSP16, 28)
        MOV     A,#0x8
        LCALL   ?XSTACK_DISP0_8
        MOV     ?V0 + 0,DPL
        MOV     ?V0 + 1,DPH
        MOV     R0,#?V0 + 0
        LCALL   ?PUSH_XSTACK_I_TWO
          CFI CFA_XSP16 add(XSP16, 30)
        MOV     ?V0 + 0,R6
        CLR     A
        MOV     ?V0 + 1,A
        MOV     ?V0 + 2,A
        MOV     ?V0 + 3,A
        MOV     R0,#?V0 + 0
        LCALL   ?UL_TO_FLT
        MOV     DPTR,#__Constant_3ec8c8c9
        MOV     R0,#?V0 + 4
        LCALL   ?L_MOV_X
        MOV     R0,#?V0 + 0
        MOV     R1,#?V0 + 4
        LCALL   ?FLT_MUL
        MOV     R0,#?V0 + 0
        LCALL   ?PUSH_XSTACK_I_FOUR
          CFI CFA_XSP16 add(XSP16, 34)
        MOV     ?V0 + 0,R4
        MOV     ?V0 + 1,R5
        CLR     A
        MOV     ?V0 + 2,A
        MOV     ?V0 + 3,A
        MOV     R0,#?V0 + 0
        LCALL   ?UL_TO_FLT
        MOV     DPTR,#__Constant_477fff00
        MOV     R0,#?V0 + 4
        LCALL   ?L_MOV_X
        MOV     R0,#?V0 + 0
        MOV     R1,#?V0 + 4
        LCALL   ?FLT_DIV
        MOV     R0,#?V0 + 0
        LCALL   ?PUSH_XSTACK_I_FOUR
          CFI CFA_XSP16 add(XSP16, 38)
        MOV     ?V0 + 0,R2
        MOV     ?V0 + 1,R3
        CLR     A
        MOV     ?V0 + 2,A
        MOV     ?V0 + 3,A
        MOV     R0,#?V0 + 0
        LCALL   ?UL_TO_FLT
        MOV     DPTR,#__Constant_477fff00
        MOV     R0,#?V0 + 4
        LCALL   ?L_MOV_X
        MOV     R0,#?V0 + 0
        MOV     R1,#?V0 + 4
        LCALL   ?FLT_DIV
        MOV     R2,?V0 + 0
        MOV     R3,?V0 + 1
        MOV     R4,?V0 + 2
        MOV     R5,?V0 + 3
        LCALL   ??hwLight_Convert_xyY_to_RGB?relay
        MOV     A,#0xe
        LCALL   ?DEALLOC_XSTACK8
          CFI CFA_XSP16 add(XSP16, 24)
//  141 
//  142   hwLight_RGB_to_RGBW( &redP, &greenP, &blueP, &whiteP );
        ; Setup parameters for call to function hwLight_RGB_to_RGBW
        MOV     A,#0x6
        LCALL   ?XSTACK_DISP0_8
        MOV     ?V0 + 0,DPL
        MOV     ?V0 + 1,DPH
        MOV     R0,#?V0 + 0
        LCALL   ?PUSH_XSTACK_I_TWO
          CFI CFA_XSP16 add(XSP16, 26)
        MOV     A,#0x2
        LCALL   ?XSTACK_DISP0_8
        MOV     ?V0 + 0,DPL
        MOV     ?V0 + 1,DPH
        MOV     R0,#?V0 + 0
        LCALL   ?PUSH_XSTACK_I_TWO
          CFI CFA_XSP16 add(XSP16, 28)
        MOV     A,#0x6
        LCALL   ?XSTACK_DISP0_8
        MOV     R4,DPL
        MOV     R5,DPH
        MOV     A,#0x8
        LCALL   ?XSTACK_DISP0_8
        MOV     R2,DPL
        MOV     R3,DPH
        LCALL   ??hwLight_RGB_to_RGBW?relay
        MOV     A,#0x4
        LCALL   ?DEALLOC_XSTACK8
          CFI CFA_XSP16 add(XSP16, 24)
//  143 
//  144   halTimer1SetChannelDuty (RED_LED,   redP);
        ; Setup parameters for call to function halTimer1SetChannelDuty
        MOV     A,#0x4
        LCALL   ?XSTACK_DISP0_8
        LCALL   ??Subroutine34_0 & 0xFFFF
??CrossCallReturnLabel_56:
        MOV     R1,#0x1
        LCALL   ??halTimer1SetChannelDuty?relay
//  145   halTimer1SetChannelDuty (GREEN_LED, greenP );
        ; Setup parameters for call to function halTimer1SetChannelDuty
        MOV     A,#0x2
        LCALL   ?XSTACK_DISP0_8
        LCALL   ??Subroutine34_0 & 0xFFFF
??CrossCallReturnLabel_57:
        MOV     R1,#0x3
        LCALL   ??halTimer1SetChannelDuty?relay
//  146   halTimer1SetChannelDuty (BLUE_LED,  blueP);
        ; Setup parameters for call to function halTimer1SetChannelDuty
        MOV     DPL,?XSP + 0
        MOV     DPH,?XSP + 1
        LCALL   ??Subroutine34_0 & 0xFFFF
??CrossCallReturnLabel_58:
        MOV     R1,#0x2
        LCALL   ??halTimer1SetChannelDuty?relay
//  147   halTimer1SetChannelDuty (WHITE_LED, whiteP);
        ; Setup parameters for call to function halTimer1SetChannelDuty
        MOV     A,#0x6
        LCALL   ?XSTACK_DISP0_8
        LCALL   ??Subroutine34_0 & 0xFFFF
??CrossCallReturnLabel_59:
        MOV     R1,#0x4
        LCALL   ??halTimer1SetChannelDuty?relay
//  148 
//  149 }
        MOV     A,#0x8
        LCALL   ?DEALLOC_XSTACK8
          CFI CFA_XSP16 add(XSP16, 16)
        MOV     R7,#0x8
        LJMP    ?BANKED_LEAVE_XDATA
          CFI EndBlock cfiBlock0
//  150 
//  151 /*********************************************************************
//  152 * @fn      hwLight_Convert_xyY_to_RGB
//  153 *
//  154 * @brief   Process ZCL Foundation incoming message
//  155 *
//  156 * input parameters
//  157 *
//  158 * @param  x - x value in xyY from 0 to 1
//  159 * @param  y - y value in xyY from 0 to 1
//  160 * @param  LinearY - Y value in xyY from 0 to 100
//  161 *
//  162 * output parameters
//  163 *
//  164 * @param  R - pointer to red value from 0 to PWM_FULL_DUTY_CYCLE
//  165 * @param  G - pointer to green value from 0 to PWM_FULL_DUTY_CYCLE
//  166 * @param  B - pointer to blue value from 0 to PWM_FULL_DUTY_CYCLE
//  167 *
//  168 * @return  none
//  169 */

        RSEG BANKED_CODE:CODE:NOROOT(0)
//  170 void hwLight_Convert_xyY_to_RGB(float x, float y, float LinearY, uint16 *R, uint16 *G, uint16 *B)
hwLight_Convert_xyY_to_RGB:
          CFI Block cfiBlock1 Using cfiCommon0
          CFI Function hwLight_Convert_xyY_to_RGB
        CODE
//  171 {
        FUNCALL hwLight_Convert_xyY_to_RGB, pow
        LOCFRAME ISTACK, 0, STACK
        LOCFRAME PSTACK, 0, STACK
        LOCFRAME XSTACK, 44, STACK
        LOCFRAME IOVERLAY, 0, STATIC
        LOCFRAME DOVERLAY, 0, STATIC
        ARGFRAME ISTACK, 0, STACK
        ARGFRAME PSTACK, 0, STACK
        ARGFRAME XSTACK, 44, STACK
        ARGFRAME IOVERLAY, 0, STATIC
        ARGFRAME DOVERLAY, 0, STATIC
        FUNCALL hwLight_Convert_xyY_to_RGB, pow
        LOCFRAME ISTACK, 0, STACK
        LOCFRAME PSTACK, 0, STACK
        LOCFRAME XSTACK, 44, STACK
        LOCFRAME IOVERLAY, 0, STATIC
        LOCFRAME DOVERLAY, 0, STATIC
        ARGFRAME ISTACK, 0, STACK
        ARGFRAME PSTACK, 0, STACK
        ARGFRAME XSTACK, 44, STACK
        ARGFRAME IOVERLAY, 0, STATIC
        ARGFRAME DOVERLAY, 0, STATIC
        FUNCALL hwLight_Convert_xyY_to_RGB, pow
        LOCFRAME ISTACK, 0, STACK
        LOCFRAME PSTACK, 0, STACK
        LOCFRAME XSTACK, 44, STACK
        LOCFRAME IOVERLAY, 0, STATIC
        LOCFRAME DOVERLAY, 0, STATIC
        ARGFRAME ISTACK, 0, STACK
        ARGFRAME PSTACK, 0, STACK
        ARGFRAME XSTACK, 44, STACK
        ARGFRAME IOVERLAY, 0, STATIC
        ARGFRAME DOVERLAY, 0, STATIC
        MOV     A,#-0x18
        LCALL   ?BANKED_ENTER_XDATA
          CFI DPH0 load(1, XDATA, add(CFA_XSP16, literal(-1)))
          CFI DPL0 load(1, XDATA, add(CFA_XSP16, literal(-2)))
          CFI ?BRET_EXT load(1, XDATA, add(CFA_XSP16, literal(-3)))
          CFI ?RET_HIGH load(1, XDATA, add(CFA_XSP16, literal(-4)))
          CFI ?RET_LOW load(1, XDATA, add(CFA_XSP16, literal(-5)))
          CFI R7 load(1, XDATA, add(CFA_XSP16, literal(-6)))
          CFI V15 load(1, XDATA, add(CFA_XSP16, literal(-7)))
          CFI V14 load(1, XDATA, add(CFA_XSP16, literal(-8)))
          CFI V13 load(1, XDATA, add(CFA_XSP16, literal(-9)))
          CFI V12 load(1, XDATA, add(CFA_XSP16, literal(-10)))
          CFI V11 load(1, XDATA, add(CFA_XSP16, literal(-11)))
          CFI V10 load(1, XDATA, add(CFA_XSP16, literal(-12)))
          CFI V9 load(1, XDATA, add(CFA_XSP16, literal(-13)))
          CFI V8 load(1, XDATA, add(CFA_XSP16, literal(-14)))
          CFI V7 load(1, XDATA, add(CFA_XSP16, literal(-15)))
          CFI V6 load(1, XDATA, add(CFA_XSP16, literal(-16)))
          CFI V5 load(1, XDATA, add(CFA_XSP16, literal(-17)))
          CFI V4 load(1, XDATA, add(CFA_XSP16, literal(-18)))
          CFI V3 load(1, XDATA, add(CFA_XSP16, literal(-19)))
          CFI V2 load(1, XDATA, add(CFA_XSP16, literal(-20)))
          CFI V1 load(1, XDATA, add(CFA_XSP16, literal(-21)))
          CFI V0 load(1, XDATA, add(CFA_XSP16, literal(-22)))
          CFI VB load(1, XDATA, add(CFA_XSP16, literal(-23)))
          CFI R6 load(1, XDATA, add(CFA_XSP16, literal(-24)))
          CFI CFA_SP SP+0
          CFI CFA_XSP16 add(XSP16, 24)
        ; Saved register size: 24
        ; Auto size: 16
        MOV     A,#-0x10
        LCALL   ?ALLOC_XSTACK8
          CFI CFA_XSP16 add(XSP16, 40)
        MOV     A,#0xc
        LCALL   ?XSTACK_DISP0_8
        MOV     A,R2
        MOVX    @DPTR,A
        INC     DPTR
        MOV     A,R3
        MOVX    @DPTR,A
        INC     DPTR
        MOV     A,R4
        MOVX    @DPTR,A
        INC     DPTR
        MOV     A,R5
        MOVX    @DPTR,A
        MOV     A,#0x2c
        LCALL   ?XSTACK_DISP0_8
        MOV     R0,#?V0 + 0
        LCALL   ?L_MOV_X
        MOV     A,#0x34
        LCALL   ?XSTACK_DISP0_8
        MOVX    A,@DPTR
        MOV     R6,A
        INC     DPTR
        MOVX    A,@DPTR
        MOV     R7,A
//  172   float Y;
//  173   float X;
//  174   float Z;
//  175   float f_R;
//  176   float f_G;
//  177   float f_B;
//  178 
//  179   //gamma correct the level
//  180   Y = pow( ( LinearY / LEVEL_MAX ), (float)GAMMA_VALUE ) * (float)LEVEL_MAX;
        MOV     DPTR,#__Constant_437e0000
        MOV     R0,#?V0 + 4
        LCALL   ?L_MOV_X
        MOV     R0,#?V0 + 0
        MOV     R1,#?V0 + 4
        LCALL   ?FLT_DIV
        MOV     ?V0 + 4,?V0 + 0
        MOV     ?V0 + 5,?V0 + 1
        MOV     ?V0 + 6,?V0 + 2
        MOV     ?V0 + 7,?V0 + 3
        MOV     R0,#?V0 + 4
        MOV     R1,#?V0 + 0
        LCALL   ?FLT_MUL
        MOV     DPTR,#__Constant_437e0000
        MOV     R0,#?V0 + 0
        LCALL   ?L_MOV_X
        MOV     R0,#?V0 + 4
        MOV     R1,#?V0 + 0
        LCALL   ?FLT_MUL
        MOV     DPL,?XSP + 0
        MOV     DPH,?XSP + 1
        MOV     R0,#?V0 + 4
        LCALL   ?L_MOV_TO_X
        MOV     A,#0x28
        LCALL   ?XSTACK_DISP0_8
        MOV     R0,#?V0 + 4
        LCALL   ?L_MOV_X
//  181 
//  182 
//  183   // from xyY to XYZ
//  184   if (y != 0)
        MOV     DPTR,#__Constant_0
        MOV     R0,#?V0 + 0
        LCALL   ?L_MOV_X
        MOV     R0,#?V0 + 4
        MOV     R1,#?V0 + 0
        LCALL   ?FLT_EQ
        JNZ     $+5
        LJMP    ??hwLight_Convert_xyY_to_RGB_0 & 0xFFFF
//  185   {
//  186     do
//  187     {
//  188       X = x * ( Y / y );
??hwLight_Convert_xyY_to_RGB_1:
        MOV     DPL,?XSP + 0
        MOV     DPH,?XSP + 1
        MOV     R0,#?V0 + 0
        LCALL   ?L_MOV_X
        MOV     R0,#?V0 + 0
        MOV     R1,#?V0 + 4
        LCALL   ?FLT_DIV
        MOV     A,#0x8
        LCALL   ?XSTACK_DISP0_8
        MOV     R0,#?V0 + 0
        LCALL   ?L_MOV_TO_X
        MOV     A,#0x8
        LCALL   ?XSTACK_DISP0_8
        MOV     R0,#?V0 + 8
        LCALL   ?L_MOV_X
        MOV     A,#0xc
        LCALL   ?XSTACK_DISP0_8
        MOV     R0,#?V0 + 0
        LCALL   ?L_MOV_X
        MOV     R0,#?V0 + 8
        MOV     R1,#?V0 + 0
        LCALL   ?FLT_MUL
//  189       Z = ( 1 - x - y ) * ( Y / y );
        MOV     ?V0 + 0,#0x0
        MOV     ?V0 + 1,#0x0
        MOV     ?V0 + 2,#-0x80
        MOV     ?V0 + 3,#0x3f
        MOV     A,#0xc
        LCALL   ?XSTACK_DISP0_8
        MOV     R0,#?V0 + 12
        LCALL   ?L_MOV_X
        MOV     R0,#?V0 + 0
        MOV     R1,#?V0 + 12
        LCALL   ?FLT_SUB
        MOV     R0,#?V0 + 0
        MOV     R1,#?V0 + 4
        LCALL   ?FLT_SUB
        MOV     A,#0x8
        LCALL   ?XSTACK_DISP0_8
        MOV     R0,#?V0 + 12
        LCALL   ?L_MOV_X
        MOV     R0,#?V0 + 0
        MOV     R1,#?V0 + 12
        LCALL   ?FLT_MUL
        MOV     A,#0x4
        LCALL   ?XSTACK_DISP0_8
        MOV     R0,#?V0 + 0
        LCALL   ?L_MOV_TO_X
//  190     }
//  191     while( ((X > 95.047) || (Z > 108.883)) && ((uint8)(Y--) > 0));
        MOV     DPTR,#__Constant_42be1811
        MOV     R0,#?V0 + 0
        LCALL   ?L_MOV_X
        MOV     R0,#?V0 + 8
        MOV     R1,#?V0 + 0
        LCALL   ?FLT_GE
        JC      ??hwLight_Convert_xyY_to_RGB_2
        MOV     A,#0x4
        LCALL   ?XSTACK_DISP0_8
        MOV     R0,#?V0 + 12
        LCALL   ?L_MOV_X
        MOV     DPTR,#__Constant_42d9c41a
        MOV     R0,#?V0 + 0
        LCALL   ?L_MOV_X
        MOV     R0,#?V0 + 12
        MOV     R1,#?V0 + 0
        LCALL   ?FLT_GE
        JNC     ??hwLight_Convert_xyY_to_RGB_3
??hwLight_Convert_xyY_to_RGB_2:
        MOV     DPL,?XSP + 0
        MOV     DPH,?XSP + 1
        LCALL   ?XLOAD_R2345
        MOV     A,#0x8
        LCALL   ?XSTACK_DISP0_8
        LCALL   ?XSTORE_R2345
        MOV     A,#0x8
        LCALL   ?XSTACK_DISP0_8
        MOV     R0,#?V0 + 12
        LCALL   ?L_MOV_X
        MOV     DPTR,#__Constant_bf800000
        MOV     R0,#?V0 + 0
        LCALL   ?L_MOV_X
        MOV     R0,#?V0 + 12
        MOV     R1,#?V0 + 0
        LCALL   ?FLT_ADD
        MOV     DPL,?XSP + 0
        MOV     DPH,?XSP + 1
        MOV     R0,#?V0 + 12
        LCALL   ?L_MOV_TO_X
        MOV     A,#0x8
        LCALL   ?XSTACK_DISP0_8
        MOV     R0,#?V0 + 0
        LCALL   ?L_MOV_X
        MOV     R0,#?V0 + 0
        LCALL   ?FLT_TO_L
        MOV     A,?V0 + 0
        JZ      $+5
        LJMP    ??hwLight_Convert_xyY_to_RGB_1 & 0xFFFF
//  192     // normalize variables:
//  193     // X from 0 to 0.95047
//  194     X = (X > 95.047 ? 95.047 : (X < 0 ? 0 : X));
        MOV     DPTR,#__Constant_42be1811
        MOV     R0,#?V0 + 0
        LCALL   ?L_MOV_X
        MOV     R0,#?V0 + 8
        MOV     R1,#?V0 + 0
        LCALL   ?FLT_GE
        JNC     ??hwLight_Convert_xyY_to_RGB_3
        MOV     ?V0 + 8,#0x10
        MOV     ?V0 + 9,#0x18
        MOV     ?V0 + 10,#-0x42
        MOV     ?V0 + 11,#0x42
        SJMP    ??hwLight_Convert_xyY_to_RGB_4
??hwLight_Convert_xyY_to_RGB_3:
        MOV     DPTR,#__Constant_0
        MOV     R0,#?V0 + 0
        LCALL   ?L_MOV_X
        MOV     R0,#?V0 + 8
        MOV     R1,#?V0 + 0
        LCALL   ?FLT_LT
        JNC     ??hwLight_Convert_xyY_to_RGB_4
        MOV     ?V0 + 8,#0x0
        MOV     ?V0 + 9,#0x0
        MOV     ?V0 + 10,#0x0
        MOV     ?V0 + 11,#0x0
//  195     X = X / 100;
??hwLight_Convert_xyY_to_RGB_4:
        MOV     DPTR,#__Constant_42c80000
        MOV     R0,#?V0 + 0
        LCALL   ?L_MOV_X
        MOV     R0,#?V0 + 8
        MOV     R1,#?V0 + 0
        LCALL   ?FLT_DIV
//  196     // Z from 0 to 1.08883
//  197     Z = (Z > 108.883 ? 108.883 : (Z < 0 ? 0 : Z));
        MOV     A,#0x4
        LCALL   ?XSTACK_DISP0_8
        MOV     R0,#?V0 + 0
        LCALL   ?L_MOV_X
        MOV     DPTR,#__Constant_42d9c41a
        MOV     R0,#?V0 + 4
        LCALL   ?L_MOV_X
        MOV     R0,#?V0 + 0
        MOV     R1,#?V0 + 4
        LCALL   ?FLT_GE
        MOV     A,#0x4
        JNC     ??hwLight_Convert_xyY_to_RGB_5
        LCALL   ?XSTACK_DISP0_8
        MOV     A,#0x19
        MOVX    @DPTR,A
        INC     DPTR
        MOV     A,#-0x3c
        MOVX    @DPTR,A
        INC     DPTR
        MOV     A,#-0x27
        MOVX    @DPTR,A
        INC     DPTR
        MOV     A,#0x42
        SJMP    ??CrossCallReturnLabel_53
??hwLight_Convert_xyY_to_RGB_5:
        LCALL   ?XSTACK_DISP0_8
        MOV     R0,#?V0 + 0
        LCALL   ?L_MOV_X
        MOV     DPTR,#__Constant_0
        MOV     R0,#?V0 + 4
        LCALL   ?L_MOV_X
        MOV     R0,#?V0 + 0
        MOV     R1,#?V0 + 4
        LCALL   ?FLT_LT
        JNC     ??hwLight_Convert_xyY_to_RGB_6
        MOV     A,#0x4
        LCALL   ?XSTACK_DISP0_8
        LCALL   ?Subroutine19 & 0xFFFF
??CrossCallReturnLabel_53:
        MOVX    @DPTR,A
//  198     Z = Z / 100;
??hwLight_Convert_xyY_to_RGB_6:
        MOV     A,#0x4
        LCALL   ?XSTACK_DISP0_8
        MOV     R0,#?V0 + 0
        LCALL   ?L_MOV_X
        MOV     DPTR,#__Constant_42c80000
        MOV     R0,#?V0 + 4
        LCALL   ?L_MOV_X
        MOV     R0,#?V0 + 0
        MOV     R1,#?V0 + 4
        LCALL   ?FLT_DIV
        MOV     A,#0x4
        LCALL   ?XSTACK_DISP0_8
        MOV     R0,#?V0 + 0
        LCALL   ?L_MOV_TO_X
        SJMP    ??hwLight_Convert_xyY_to_RGB_7
//  199   }
//  200   else
//  201   {
//  202     X = 0;
??hwLight_Convert_xyY_to_RGB_0:
        MOV     ?V0 + 8,#0x0
        MOV     ?V0 + 9,#0x0
        MOV     ?V0 + 10,#0x0
        MOV     ?V0 + 11,#0x0
//  203     Z = 0;
        MOV     A,#0x4
        LCALL   ?XSTACK_DISP0_8
        LCALL   ?Subroutine19 & 0xFFFF
//  204   }
??CrossCallReturnLabel_54:
        MOVX    @DPTR,A
//  205   // Y from 0 to 1
//  206   Y = (Y > 100 ? 100 : (Y < 0 ? 0 : Y));
??hwLight_Convert_xyY_to_RGB_7:
        MOV     DPL,?XSP + 0
        MOV     DPH,?XSP + 1
        MOV     R0,#?V0 + 0
        LCALL   ?L_MOV_X
        MOV     DPTR,#__Constant_42c80001
        MOV     R0,#?V0 + 4
        LCALL   ?L_MOV_X
        MOV     R0,#?V0 + 0
        MOV     R1,#?V0 + 4
        LCALL   ?FLT_GE
        MOV     DPL,?XSP + 0
        MOV     DPH,?XSP + 1
        JNC     ??hwLight_Convert_xyY_to_RGB_8
        CLR     A
        MOVX    @DPTR,A
        INC     DPTR
        MOVX    @DPTR,A
        INC     DPTR
        MOV     A,#-0x38
        MOVX    @DPTR,A
        INC     DPTR
        MOV     A,#0x42
        SJMP    ??CrossCallReturnLabel_55
??hwLight_Convert_xyY_to_RGB_8:
        MOV     R0,#?V0 + 0
        LCALL   ?L_MOV_X
        MOV     DPTR,#__Constant_0
        MOV     R0,#?V0 + 4
        LCALL   ?L_MOV_X
        MOV     R0,#?V0 + 0
        MOV     R1,#?V0 + 4
        LCALL   ?FLT_LT
        JNC     ??hwLight_Convert_xyY_to_RGB_9
        MOV     DPL,?XSP + 0
        MOV     DPH,?XSP + 1
        LCALL   ?Subroutine19 & 0xFFFF
??CrossCallReturnLabel_55:
        MOVX    @DPTR,A
//  207   Y = Y / 100;
??hwLight_Convert_xyY_to_RGB_9:
        MOV     DPL,?XSP + 0
        MOV     DPH,?XSP + 1
        MOV     R0,#?V0 + 0
        LCALL   ?L_MOV_X
        MOV     DPTR,#__Constant_42c80000
        MOV     R0,#?V0 + 4
        LCALL   ?L_MOV_X
        MOV     R0,#?V0 + 0
        MOV     R1,#?V0 + 4
        LCALL   ?FLT_DIV
        MOV     DPL,?XSP + 0
        MOV     DPH,?XSP + 1
        MOV     R0,#?V0 + 0
        LCALL   ?L_MOV_TO_X
//  208 
//  209   // transformation according to standard illuminant D65.
//  210   f_R = X *  3.2406 + Y * -1.5372 + Z * -0.4986;
        MOV     ?V0 + 0,?V0 + 8
        MOV     ?V0 + 1,?V0 + 9
        MOV     ?V0 + 2,?V0 + 10
        MOV     ?V0 + 3,?V0 + 11
        MOV     DPTR,#__Constant_404f65fe
        MOV     R0,#?V0 + 4
        LCALL   ?L_MOV_X
        MOV     R0,#?V0 + 0
        MOV     R1,#?V0 + 4
        LCALL   ?FLT_MUL
        MOV     DPL,?XSP + 0
        MOV     DPH,?XSP + 1
        MOV     R0,#?V0 + 12
        LCALL   ?L_MOV_X
        MOV     DPTR,#__Constant_bfc4c2f8
        MOV     R0,#?V0 + 4
        LCALL   ?L_MOV_X
        MOV     R0,#?V0 + 12
        MOV     R1,#?V0 + 4
        LCALL   ?FLT_MUL
        MOV     R0,#?V0 + 0
        MOV     R1,#?V0 + 12
        LCALL   ?FLT_ADD
        MOV     A,#0x4
        LCALL   ?XSTACK_DISP0_8
        MOV     R0,#?V0 + 12
        LCALL   ?L_MOV_X
        MOV     DPTR,#__Constant_beff4880
        MOV     R0,#?V0 + 4
        LCALL   ?L_MOV_X
        MOV     R0,#?V0 + 12
        MOV     R1,#?V0 + 4
        LCALL   ?FLT_MUL
        MOV     R0,#?V0 + 0
        MOV     R1,#?V0 + 12
        LCALL   ?FLT_ADD
//  211   f_G = X * -0.9689 + Y *  1.8758 + Z *  0.0415;
        MOV     ?V0 + 4,?V0 + 8
        MOV     ?V0 + 5,?V0 + 9
        MOV     ?V0 + 6,?V0 + 10
        MOV     ?V0 + 7,?V0 + 11
        MOV     DPTR,#__Constant_bf7809d5
        MOV     R0,#?V0 + 12
        LCALL   ?L_MOV_X
        MOV     R0,#?V0 + 4
        MOV     R1,#?V0 + 12
        LCALL   ?FLT_MUL
        PUSH    ?V0 + 4
          CFI CFA_SP SP+-1
        PUSH    ?V0 + 5
          CFI CFA_SP SP+-2
        PUSH    ?V0 + 6
          CFI CFA_SP SP+-3
        PUSH    ?V0 + 7
          CFI CFA_SP SP+-4
        MOV     DPL,?XSP + 0
        MOV     DPH,?XSP + 1
        MOV     R0,#?V0 + 12
        LCALL   ?L_MOV_X
        MOV     DPTR,#__Constant_3ff01a37
        MOV     R0,#?V0 + 4
        LCALL   ?L_MOV_X
        MOV     R0,#?V0 + 12
        MOV     R1,#?V0 + 4
        LCALL   ?FLT_MUL
        POP     ?V0 + 7
          CFI CFA_SP SP+-3
        POP     ?V0 + 6
          CFI CFA_SP SP+-2
        POP     ?V0 + 5
          CFI CFA_SP SP+-1
        POP     ?V0 + 4
          CFI CFA_SP SP+0
        MOV     R0,#?V0 + 4
        MOV     R1,#?V0 + 12
        LCALL   ?FLT_ADD
        PUSH    ?V0 + 4
          CFI CFA_SP SP+-1
        PUSH    ?V0 + 5
          CFI CFA_SP SP+-2
        PUSH    ?V0 + 6
          CFI CFA_SP SP+-3
        PUSH    ?V0 + 7
          CFI CFA_SP SP+-4
        MOV     A,#0x4
        LCALL   ?XSTACK_DISP0_8
        MOV     R0,#?V0 + 12
        LCALL   ?L_MOV_X
        MOV     DPTR,#__Constant_3d29fbe7
        MOV     R0,#?V0 + 4
        LCALL   ?L_MOV_X
        MOV     R0,#?V0 + 12
        MOV     R1,#?V0 + 4
        LCALL   ?FLT_MUL
        POP     ?V0 + 7
          CFI CFA_SP SP+-3
        POP     ?V0 + 6
          CFI CFA_SP SP+-2
        POP     ?V0 + 5
          CFI CFA_SP SP+-1
        POP     ?V0 + 4
          CFI CFA_SP SP+0
        MOV     R0,#?V0 + 4
        MOV     R1,#?V0 + 12
        LCALL   ?FLT_ADD
//  212   f_B = X *  0.0557 + Y * -0.2040 + Z *  1.0570;
        MOV     DPTR,#__Constant_3d6425af
        MOV     R0,#?V0 + 12
        LCALL   ?L_MOV_X
        MOV     R0,#?V0 + 8
        MOV     R1,#?V0 + 12
        LCALL   ?FLT_MUL
        PUSH    ?V0 + 8
          CFI CFA_SP SP+-1
        PUSH    ?V0 + 9
          CFI CFA_SP SP+-2
        PUSH    ?V0 + 10
          CFI CFA_SP SP+-3
        PUSH    ?V0 + 11
          CFI CFA_SP SP+-4
        MOV     DPL,?XSP + 0
        MOV     DPH,?XSP + 1
        MOV     R0,#?V0 + 12
        LCALL   ?L_MOV_X
        MOV     DPTR,#__Constant_be50e560
        MOV     R0,#?V0 + 8
        LCALL   ?L_MOV_X
        MOV     R0,#?V0 + 12
        MOV     R1,#?V0 + 8
        LCALL   ?FLT_MUL
        POP     ?V0 + 11
          CFI CFA_SP SP+-3
        POP     ?V0 + 10
          CFI CFA_SP SP+-2
        POP     ?V0 + 9
          CFI CFA_SP SP+-1
        POP     ?V0 + 8
          CFI CFA_SP SP+0
        MOV     R0,#?V0 + 8
        MOV     R1,#?V0 + 12
        LCALL   ?FLT_ADD
        PUSH    ?V0 + 8
          CFI CFA_SP SP+-1
        PUSH    ?V0 + 9
          CFI CFA_SP SP+-2
        PUSH    ?V0 + 10
          CFI CFA_SP SP+-3
        PUSH    ?V0 + 11
          CFI CFA_SP SP+-4
        MOV     A,#0x4
        LCALL   ?XSTACK_DISP0_8
        MOV     R0,#?V0 + 12
        LCALL   ?L_MOV_X
        MOV     DPTR,#__Constant_3f874bc7
        MOV     R0,#?V0 + 8
        LCALL   ?L_MOV_X
        MOV     R0,#?V0 + 12
        MOV     R1,#?V0 + 8
        LCALL   ?FLT_MUL
        POP     ?V0 + 11
          CFI CFA_SP SP+-3
        POP     ?V0 + 10
          CFI CFA_SP SP+-2
        POP     ?V0 + 9
          CFI CFA_SP SP+-1
        POP     ?V0 + 8
          CFI CFA_SP SP+0
        MOV     R0,#?V0 + 8
        MOV     R1,#?V0 + 12
        LCALL   ?FLT_ADD
//  213 
//  214   //color correction
//  215   hwLight_GammaCorrectRGB(&f_R, &f_G, &f_B);
        MOV     DPTR,#__Constant_3b449ba7
        MOV     R0,#?V0 + 12
        LCALL   ?L_MOV_X
        MOV     R0,#?V0 + 0
        MOV     R1,#?V0 + 12
        LCALL   ?FLT_GE
        JNC     ??hwLight_Convert_xyY_to_RGB_10
        ; Setup parameters for call to function pow
        MOV     DPTR,#__Constant_3f2aaaab
        LCALL   ?PUSH_XSTACK8_X_FOUR
          CFI CFA_XSP16 add(XSP16, 44)
        MOV     R2,?V0 + 0
        MOV     R3,?V0 + 1
        MOV     R4,?V0 + 2
        MOV     R5,?V0 + 3
        LCALL   ??pow?relay
        MOV     A,#0x4
        LCALL   ?DEALLOC_XSTACK8
          CFI CFA_XSP16 add(XSP16, 40)
        MOV     ?V0 + 0,R2
        MOV     ?V0 + 1,R3
        MOV     ?V0 + 2,R4
        MOV     ?V0 + 3,R5
        MOV     DPTR,#__Constant_3f9c28f6
        MOV     R0,#?V0 + 12
        LCALL   ?L_MOV_X
        MOV     R0,#?V0 + 0
        MOV     R1,#?V0 + 12
        LCALL   ?FLT_MUL
        MOV     DPTR,#__Constant_bd23d70a
        MOV     R0,#?V0 + 12
        LCALL   ?L_MOV_X
        MOV     R0,#?V0 + 0
        MOV     R1,#?V0 + 12
        LCALL   ?FLT_ADD
        SJMP    ??hwLight_Convert_xyY_to_RGB_11
??hwLight_Convert_xyY_to_RGB_10:
        MOV     ?V0 + 0,#0x0
        MOV     ?V0 + 1,#0x0
        MOV     ?V0 + 2,#0x0
        MOV     ?V0 + 3,#0x0
??hwLight_Convert_xyY_to_RGB_11:
        MOV     DPTR,#__Constant_3b449ba7
        MOV     R0,#?V0 + 12
        LCALL   ?L_MOV_X
        MOV     R0,#?V0 + 4
        MOV     R1,#?V0 + 12
        LCALL   ?FLT_GE
        JNC     ??hwLight_Convert_xyY_to_RGB_12
        ; Setup parameters for call to function pow
        MOV     DPTR,#__Constant_3f2aaaab
        LCALL   ?PUSH_XSTACK8_X_FOUR
          CFI CFA_XSP16 add(XSP16, 44)
        MOV     R2,?V0 + 4
        MOV     R3,?V0 + 5
        MOV     R4,?V0 + 6
        MOV     R5,?V0 + 7
        LCALL   ??pow?relay
        MOV     A,#0x4
        LCALL   ?DEALLOC_XSTACK8
          CFI CFA_XSP16 add(XSP16, 40)
        MOV     ?V0 + 4,R2
        MOV     ?V0 + 5,R3
        MOV     ?V0 + 6,R4
        MOV     ?V0 + 7,R5
        MOV     DPTR,#__Constant_3f9c28f6
        MOV     R0,#?V0 + 12
        LCALL   ?L_MOV_X
        MOV     R0,#?V0 + 4
        MOV     R1,#?V0 + 12
        LCALL   ?FLT_MUL
        MOV     DPTR,#__Constant_bd23d70a
        MOV     R0,#?V0 + 12
        LCALL   ?L_MOV_X
        MOV     R0,#?V0 + 4
        MOV     R1,#?V0 + 12
        LCALL   ?FLT_ADD
        SJMP    ??hwLight_Convert_xyY_to_RGB_13
??hwLight_Convert_xyY_to_RGB_12:
        MOV     ?V0 + 4,#0x0
        MOV     ?V0 + 5,#0x0
        MOV     ?V0 + 6,#0x0
        MOV     ?V0 + 7,#0x0
??hwLight_Convert_xyY_to_RGB_13:
        MOV     DPTR,#__Constant_3b449ba7
        MOV     R0,#?V0 + 12
        LCALL   ?L_MOV_X
        MOV     R0,#?V0 + 8
        MOV     R1,#?V0 + 12
        LCALL   ?FLT_GE
        JNC     ??hwLight_Convert_xyY_to_RGB_14
        ; Setup parameters for call to function pow
        MOV     DPTR,#__Constant_3f2aaaab
        LCALL   ?PUSH_XSTACK8_X_FOUR
          CFI CFA_XSP16 add(XSP16, 44)
        MOV     R2,?V0 + 8
        MOV     R3,?V0 + 9
        MOV     R4,?V0 + 10
        MOV     R5,?V0 + 11
        LCALL   ??pow?relay
        MOV     A,#0x4
        LCALL   ?DEALLOC_XSTACK8
          CFI CFA_XSP16 add(XSP16, 40)
        MOV     ?V0 + 8,R2
        MOV     ?V0 + 9,R3
        MOV     ?V0 + 10,R4
        MOV     ?V0 + 11,R5
        MOV     DPTR,#__Constant_3f8b851f
        MOV     R0,#?V0 + 12
        LCALL   ?L_MOV_X
        MOV     R0,#?V0 + 8
        MOV     R1,#?V0 + 12
        LCALL   ?FLT_MUL
        MOV     DPTR,#__Constant_bd4ccccd
        MOV     R0,#?V0 + 12
        LCALL   ?L_MOV_X
        MOV     R0,#?V0 + 8
        MOV     R1,#?V0 + 12
        LCALL   ?FLT_ADD
        SJMP    ??hwLight_Convert_xyY_to_RGB_15
??hwLight_Convert_xyY_to_RGB_14:
        MOV     ?V0 + 8,#0x0
        MOV     ?V0 + 9,#0x0
        MOV     ?V0 + 10,#0x0
        MOV     ?V0 + 11,#0x0
//  216   hwLight_TempCompensateRGB(&f_R, &f_G, &f_B);
//  217   hwLight_GroupWaveLenCompensateRGB(&f_R, &f_G, &f_B);
//  218   hwLight_GroupLuminCompensateRGB(&f_R, &f_G, &f_B);
//  219 
//  220   // truncate results exceeding 0..1
//  221   f_R = (f_R > 1.0 ? 1.0 : (f_R < 0 ? 0 : f_R));
??hwLight_Convert_xyY_to_RGB_15:
        MOV     DPTR,#__Constant_3f800001
        MOV     R0,#?V0 + 12
        LCALL   ?L_MOV_X
        MOV     R0,#?V0 + 0
        MOV     R1,#?V0 + 12
        LCALL   ?FLT_GE
        JNC     ??hwLight_Convert_xyY_to_RGB_16
        MOV     ?V0 + 0,#0x0
        MOV     ?V0 + 1,#0x0
        MOV     ?V0 + 2,#-0x80
        MOV     ?V0 + 3,#0x3f
        SJMP    ??hwLight_Convert_xyY_to_RGB_17
??hwLight_Convert_xyY_to_RGB_16:
        MOV     DPTR,#__Constant_0
        MOV     R0,#?V0 + 12
        LCALL   ?L_MOV_X
        MOV     R0,#?V0 + 0
        MOV     R1,#?V0 + 12
        LCALL   ?FLT_LT
        JNC     ??hwLight_Convert_xyY_to_RGB_17
        MOV     ?V0 + 0,#0x0
        MOV     ?V0 + 1,#0x0
        MOV     ?V0 + 2,#0x0
        MOV     ?V0 + 3,#0x0
//  222   f_G = (f_G > 1.0 ? 1.0 : (f_G < 0 ? 0 : f_G));
??hwLight_Convert_xyY_to_RGB_17:
        MOV     DPTR,#__Constant_3f800001
        MOV     R0,#?V0 + 12
        LCALL   ?L_MOV_X
        MOV     R0,#?V0 + 4
        MOV     R1,#?V0 + 12
        LCALL   ?FLT_GE
        JNC     ??hwLight_Convert_xyY_to_RGB_18
        MOV     ?V0 + 4,#0x0
        MOV     ?V0 + 5,#0x0
        MOV     ?V0 + 6,#-0x80
        MOV     ?V0 + 7,#0x3f
        SJMP    ??hwLight_Convert_xyY_to_RGB_19
??hwLight_Convert_xyY_to_RGB_18:
        MOV     DPTR,#__Constant_0
        MOV     R0,#?V0 + 12
        LCALL   ?L_MOV_X
        MOV     R0,#?V0 + 4
        MOV     R1,#?V0 + 12
        LCALL   ?FLT_LT
        JNC     ??hwLight_Convert_xyY_to_RGB_19
        MOV     ?V0 + 4,#0x0
        MOV     ?V0 + 5,#0x0
        MOV     ?V0 + 6,#0x0
        MOV     ?V0 + 7,#0x0
//  223   f_B = (f_B > 1.0 ? 1.0 : (f_B < 0 ? 0 : f_B));
??hwLight_Convert_xyY_to_RGB_19:
        MOV     DPTR,#__Constant_3f800001
        MOV     R0,#?V0 + 12
        LCALL   ?L_MOV_X
        MOV     R0,#?V0 + 8
        MOV     R1,#?V0 + 12
        LCALL   ?FLT_GE
        JNC     ??hwLight_Convert_xyY_to_RGB_20
        MOV     ?V0 + 8,#0x0
        MOV     ?V0 + 9,#0x0
        MOV     ?V0 + 10,#-0x80
        MOV     ?V0 + 11,#0x3f
        SJMP    ??hwLight_Convert_xyY_to_RGB_21
??hwLight_Convert_xyY_to_RGB_20:
        MOV     DPTR,#__Constant_0
        MOV     R0,#?V0 + 12
        LCALL   ?L_MOV_X
        MOV     R0,#?V0 + 8
        MOV     R1,#?V0 + 12
        LCALL   ?FLT_LT
        JNC     ??hwLight_Convert_xyY_to_RGB_21
        MOV     ?V0 + 8,#0x0
        MOV     ?V0 + 9,#0x0
        MOV     ?V0 + 10,#0x0
        MOV     ?V0 + 11,#0x0
//  224 
//  225   *R = (uint16)(f_R * PWM_FULL_DUTY_CYCLE);
??hwLight_Convert_xyY_to_RGB_21:
        MOV     DPTR,#__Constant_447a0000
        MOV     R0,#?V0 + 12
        LCALL   ?L_MOV_X
        MOV     R0,#?V0 + 0
        MOV     R1,#?V0 + 12
        LCALL   ?FLT_MUL
        MOV     R0,#?V0 + 0
        LCALL   ?FLT_TO_L
        MOV     A,#0x30
        LCALL   ?XSTACK_DISP0_8
        LCALL   ?Subroutine8 & 0xFFFF
//  226   *G = (uint16)(f_G * PWM_FULL_DUTY_CYCLE);
??CrossCallReturnLabel_4:
        MOV     DPTR,#__Constant_447a0000
        MOV     R0,#?V0 + 0
        LCALL   ?L_MOV_X
        MOV     R0,#?V0 + 4
        MOV     R1,#?V0 + 0
        LCALL   ?FLT_MUL
        MOV     R0,#?V0 + 4
        LCALL   ?FLT_TO_L
        MOV     A,#0x32
        LCALL   ?XSTACK_DISP0_8
        LCALL   ??Subroutine38_0 & 0xFFFF
??CrossCallReturnLabel_75:
        MOV     A,?V0 + 4
        MOVX    @DPTR,A
        INC     DPTR
        MOV     A,?V0 + 5
        MOVX    @DPTR,A
//  227   *B = (uint16)(f_B * PWM_FULL_DUTY_CYCLE);
        MOV     DPTR,#__Constant_447a0000
        MOV     R0,#?V0 + 0
        LCALL   ?L_MOV_X
        MOV     R0,#?V0 + 8
        MOV     R1,#?V0 + 0
        LCALL   ?FLT_MUL
        MOV     R0,#?V0 + 8
        LCALL   ?FLT_TO_L
        MOV     DPL,R6
        MOV     DPH,R7
        MOV     A,?V0 + 8
        MOVX    @DPTR,A
        INC     DPTR
        MOV     A,?V0 + 9
        MOVX    @DPTR,A
//  228 }
        MOV     A,#0x10
        LJMP    ?Subroutine0 & 0xFFFF
          CFI EndBlock cfiBlock1

        RSEG BANKED_CODE:CODE:NOROOT(0)
?Subroutine19:
          CFI Block cfiCond2 Using cfiCommon0
          CFI Function hwLight_Convert_xyY_to_RGB
          CFI Conditional ??CrossCallReturnLabel_53
          CFI R6 load(1, XDATA, add(CFA_XSP16, literal(-24)))
          CFI VB load(1, XDATA, add(CFA_XSP16, literal(-23)))
          CFI V0 load(1, XDATA, add(CFA_XSP16, literal(-22)))
          CFI V1 load(1, XDATA, add(CFA_XSP16, literal(-21)))
          CFI V2 load(1, XDATA, add(CFA_XSP16, literal(-20)))
          CFI V3 load(1, XDATA, add(CFA_XSP16, literal(-19)))
          CFI V4 load(1, XDATA, add(CFA_XSP16, literal(-18)))
          CFI V5 load(1, XDATA, add(CFA_XSP16, literal(-17)))
          CFI V6 load(1, XDATA, add(CFA_XSP16, literal(-16)))
          CFI V7 load(1, XDATA, add(CFA_XSP16, literal(-15)))
          CFI V8 load(1, XDATA, add(CFA_XSP16, literal(-14)))
          CFI V9 load(1, XDATA, add(CFA_XSP16, literal(-13)))
          CFI V10 load(1, XDATA, add(CFA_XSP16, literal(-12)))
          CFI V11 load(1, XDATA, add(CFA_XSP16, literal(-11)))
          CFI V12 load(1, XDATA, add(CFA_XSP16, literal(-10)))
          CFI V13 load(1, XDATA, add(CFA_XSP16, literal(-9)))
          CFI V14 load(1, XDATA, add(CFA_XSP16, literal(-8)))
          CFI V15 load(1, XDATA, add(CFA_XSP16, literal(-7)))
          CFI R7 load(1, XDATA, add(CFA_XSP16, literal(-6)))
          CFI ?RET_LOW load(1, XDATA, add(CFA_XSP16, literal(-5)))
          CFI ?RET_HIGH load(1, XDATA, add(CFA_XSP16, literal(-4)))
          CFI ?BRET_EXT load(1, XDATA, add(CFA_XSP16, literal(-3)))
          CFI DPL0 load(1, XDATA, add(CFA_XSP16, literal(-2)))
          CFI DPH0 load(1, XDATA, add(CFA_XSP16, literal(-1)))
          CFI CFA_SP SP+0
          CFI CFA_XSP16 add(XSP16, 40)
          CFI Block cfiCond3 Using cfiCommon0
          CFI (cfiCond3) Function hwLight_Convert_xyY_to_RGB
          CFI (cfiCond3) Conditional ??CrossCallReturnLabel_54
          CFI (cfiCond3) R6 load(1, XDATA, add(CFA_XSP16, literal(-24)))
          CFI (cfiCond3) VB load(1, XDATA, add(CFA_XSP16, literal(-23)))
          CFI (cfiCond3) V0 load(1, XDATA, add(CFA_XSP16, literal(-22)))
          CFI (cfiCond3) V1 load(1, XDATA, add(CFA_XSP16, literal(-21)))
          CFI (cfiCond3) V2 load(1, XDATA, add(CFA_XSP16, literal(-20)))
          CFI (cfiCond3) V3 load(1, XDATA, add(CFA_XSP16, literal(-19)))
          CFI (cfiCond3) V4 load(1, XDATA, add(CFA_XSP16, literal(-18)))
          CFI (cfiCond3) V5 load(1, XDATA, add(CFA_XSP16, literal(-17)))
          CFI (cfiCond3) V6 load(1, XDATA, add(CFA_XSP16, literal(-16)))
          CFI (cfiCond3) V7 load(1, XDATA, add(CFA_XSP16, literal(-15)))
          CFI (cfiCond3) V8 load(1, XDATA, add(CFA_XSP16, literal(-14)))
          CFI (cfiCond3) V9 load(1, XDATA, add(CFA_XSP16, literal(-13)))
          CFI (cfiCond3) V10 load(1, XDATA, add(CFA_XSP16, literal(-12)))
          CFI (cfiCond3) V11 load(1, XDATA, add(CFA_XSP16, literal(-11)))
          CFI (cfiCond3) V12 load(1, XDATA, add(CFA_XSP16, literal(-10)))
          CFI (cfiCond3) V13 load(1, XDATA, add(CFA_XSP16, literal(-9)))
          CFI (cfiCond3) V14 load(1, XDATA, add(CFA_XSP16, literal(-8)))
          CFI (cfiCond3) V15 load(1, XDATA, add(CFA_XSP16, literal(-7)))
          CFI (cfiCond3) R7 load(1, XDATA, add(CFA_XSP16, literal(-6)))
          CFI (cfiCond3) ?RET_LOW load(1, XDATA, add(CFA_XSP16, literal(-5)))
          CFI (cfiCond3) ?RET_HIGH load(1, XDATA, add(CFA_XSP16, literal(-4)))
          CFI (cfiCond3) ?BRET_EXT load(1, XDATA, add(CFA_XSP16, literal(-3)))
          CFI (cfiCond3) DPL0 load(1, XDATA, add(CFA_XSP16, literal(-2)))
          CFI (cfiCond3) DPH0 load(1, XDATA, add(CFA_XSP16, literal(-1)))
          CFI (cfiCond3) CFA_SP SP+0
          CFI (cfiCond3) CFA_XSP16 add(XSP16, 40)
          CFI Block cfiCond4 Using cfiCommon0
          CFI (cfiCond4) Function hwLight_Convert_xyY_to_RGB
          CFI (cfiCond4) Conditional ??CrossCallReturnLabel_55
          CFI (cfiCond4) R6 load(1, XDATA, add(CFA_XSP16, literal(-24)))
          CFI (cfiCond4) VB load(1, XDATA, add(CFA_XSP16, literal(-23)))
          CFI (cfiCond4) V0 load(1, XDATA, add(CFA_XSP16, literal(-22)))
          CFI (cfiCond4) V1 load(1, XDATA, add(CFA_XSP16, literal(-21)))
          CFI (cfiCond4) V2 load(1, XDATA, add(CFA_XSP16, literal(-20)))
          CFI (cfiCond4) V3 load(1, XDATA, add(CFA_XSP16, literal(-19)))
          CFI (cfiCond4) V4 load(1, XDATA, add(CFA_XSP16, literal(-18)))
          CFI (cfiCond4) V5 load(1, XDATA, add(CFA_XSP16, literal(-17)))
          CFI (cfiCond4) V6 load(1, XDATA, add(CFA_XSP16, literal(-16)))
          CFI (cfiCond4) V7 load(1, XDATA, add(CFA_XSP16, literal(-15)))
          CFI (cfiCond4) V8 load(1, XDATA, add(CFA_XSP16, literal(-14)))
          CFI (cfiCond4) V9 load(1, XDATA, add(CFA_XSP16, literal(-13)))
          CFI (cfiCond4) V10 load(1, XDATA, add(CFA_XSP16, literal(-12)))
          CFI (cfiCond4) V11 load(1, XDATA, add(CFA_XSP16, literal(-11)))
          CFI (cfiCond4) V12 load(1, XDATA, add(CFA_XSP16, literal(-10)))
          CFI (cfiCond4) V13 load(1, XDATA, add(CFA_XSP16, literal(-9)))
          CFI (cfiCond4) V14 load(1, XDATA, add(CFA_XSP16, literal(-8)))
          CFI (cfiCond4) V15 load(1, XDATA, add(CFA_XSP16, literal(-7)))
          CFI (cfiCond4) R7 load(1, XDATA, add(CFA_XSP16, literal(-6)))
          CFI (cfiCond4) ?RET_LOW load(1, XDATA, add(CFA_XSP16, literal(-5)))
          CFI (cfiCond4) ?RET_HIGH load(1, XDATA, add(CFA_XSP16, literal(-4)))
          CFI (cfiCond4) ?BRET_EXT load(1, XDATA, add(CFA_XSP16, literal(-3)))
          CFI (cfiCond4) DPL0 load(1, XDATA, add(CFA_XSP16, literal(-2)))
          CFI (cfiCond4) DPH0 load(1, XDATA, add(CFA_XSP16, literal(-1)))
          CFI (cfiCond4) CFA_SP SP+0
          CFI (cfiCond4) CFA_XSP16 add(XSP16, 40)
          CFI Block cfiPicker5 Using cfiCommon1
          CFI (cfiPicker5) NoFunction
          CFI (cfiPicker5) Picker
        CLR     A
          CFI EndBlock cfiCond2
          CFI EndBlock cfiCond3
          CFI EndBlock cfiCond4
          CFI EndBlock cfiPicker5
        REQUIRE ??Subroutine33_0
        ; // Fall through to label ??Subroutine33_0

        RSEG BANKED_CODE:CODE:NOROOT(0)
??Subroutine33_0:
          CFI Block cfiCond6 Using cfiCommon0
          CFI Function hwLight_ApplyUpdate16b
          CFI Conditional ??CrossCallReturnLabel_52
          CFI R6 load(1, XDATA, add(CFA_XSP16, literal(-24)))
          CFI VB load(1, XDATA, add(CFA_XSP16, literal(-23)))
          CFI V0 load(1, XDATA, add(CFA_XSP16, literal(-22)))
          CFI V1 load(1, XDATA, add(CFA_XSP16, literal(-21)))
          CFI V2 load(1, XDATA, add(CFA_XSP16, literal(-20)))
          CFI V3 load(1, XDATA, add(CFA_XSP16, literal(-19)))
          CFI V4 load(1, XDATA, add(CFA_XSP16, literal(-18)))
          CFI V5 load(1, XDATA, add(CFA_XSP16, literal(-17)))
          CFI V6 load(1, XDATA, add(CFA_XSP16, literal(-16)))
          CFI V7 load(1, XDATA, add(CFA_XSP16, literal(-15)))
          CFI V8 load(1, XDATA, add(CFA_XSP16, literal(-14)))
          CFI V9 load(1, XDATA, add(CFA_XSP16, literal(-13)))
          CFI V10 load(1, XDATA, add(CFA_XSP16, literal(-12)))
          CFI V11 load(1, XDATA, add(CFA_XSP16, literal(-11)))
          CFI V12 load(1, XDATA, add(CFA_XSP16, literal(-10)))
          CFI V13 load(1, XDATA, add(CFA_XSP16, literal(-9)))
          CFI V14 load(1, XDATA, add(CFA_XSP16, literal(-8)))
          CFI V15 load(1, XDATA, add(CFA_XSP16, literal(-7)))
          CFI R7 load(1, XDATA, add(CFA_XSP16, literal(-6)))
          CFI ?RET_LOW load(1, XDATA, add(CFA_XSP16, literal(-5)))
          CFI ?RET_HIGH load(1, XDATA, add(CFA_XSP16, literal(-4)))
          CFI ?BRET_EXT load(1, XDATA, add(CFA_XSP16, literal(-3)))
          CFI DPL0 load(1, XDATA, add(CFA_XSP16, literal(-2)))
          CFI DPH0 load(1, XDATA, add(CFA_XSP16, literal(-1)))
          CFI CFA_SP SP+0
          CFI CFA_XSP16 add(XSP16, 33)
          CFI Block cfiCond7 Using cfiCommon0
          CFI (cfiCond7) Function hwLight_Convert_xyY_to_RGB
          CFI (cfiCond7) Conditional ??CrossCallReturnLabel_53
          CFI (cfiCond7) R6 load(1, XDATA, add(CFA_XSP16, literal(-24)))
          CFI (cfiCond7) VB load(1, XDATA, add(CFA_XSP16, literal(-23)))
          CFI (cfiCond7) V0 load(1, XDATA, add(CFA_XSP16, literal(-22)))
          CFI (cfiCond7) V1 load(1, XDATA, add(CFA_XSP16, literal(-21)))
          CFI (cfiCond7) V2 load(1, XDATA, add(CFA_XSP16, literal(-20)))
          CFI (cfiCond7) V3 load(1, XDATA, add(CFA_XSP16, literal(-19)))
          CFI (cfiCond7) V4 load(1, XDATA, add(CFA_XSP16, literal(-18)))
          CFI (cfiCond7) V5 load(1, XDATA, add(CFA_XSP16, literal(-17)))
          CFI (cfiCond7) V6 load(1, XDATA, add(CFA_XSP16, literal(-16)))
          CFI (cfiCond7) V7 load(1, XDATA, add(CFA_XSP16, literal(-15)))
          CFI (cfiCond7) V8 load(1, XDATA, add(CFA_XSP16, literal(-14)))
          CFI (cfiCond7) V9 load(1, XDATA, add(CFA_XSP16, literal(-13)))
          CFI (cfiCond7) V10 load(1, XDATA, add(CFA_XSP16, literal(-12)))
          CFI (cfiCond7) V11 load(1, XDATA, add(CFA_XSP16, literal(-11)))
          CFI (cfiCond7) V12 load(1, XDATA, add(CFA_XSP16, literal(-10)))
          CFI (cfiCond7) V13 load(1, XDATA, add(CFA_XSP16, literal(-9)))
          CFI (cfiCond7) V14 load(1, XDATA, add(CFA_XSP16, literal(-8)))
          CFI (cfiCond7) V15 load(1, XDATA, add(CFA_XSP16, literal(-7)))
          CFI (cfiCond7) R7 load(1, XDATA, add(CFA_XSP16, literal(-6)))
          CFI (cfiCond7) ?RET_LOW load(1, XDATA, add(CFA_XSP16, literal(-5)))
          CFI (cfiCond7) ?RET_HIGH load(1, XDATA, add(CFA_XSP16, literal(-4)))
          CFI (cfiCond7) ?BRET_EXT load(1, XDATA, add(CFA_XSP16, literal(-3)))
          CFI (cfiCond7) DPL0 load(1, XDATA, add(CFA_XSP16, literal(-2)))
          CFI (cfiCond7) DPH0 load(1, XDATA, add(CFA_XSP16, literal(-1)))
          CFI (cfiCond7) CFA_SP SP+0
          CFI (cfiCond7) CFA_XSP16 add(XSP16, 40)
          CFI Block cfiCond8 Using cfiCommon0
          CFI (cfiCond8) Function hwLight_Convert_xyY_to_RGB
          CFI (cfiCond8) Conditional ??CrossCallReturnLabel_54
          CFI (cfiCond8) R6 load(1, XDATA, add(CFA_XSP16, literal(-24)))
          CFI (cfiCond8) VB load(1, XDATA, add(CFA_XSP16, literal(-23)))
          CFI (cfiCond8) V0 load(1, XDATA, add(CFA_XSP16, literal(-22)))
          CFI (cfiCond8) V1 load(1, XDATA, add(CFA_XSP16, literal(-21)))
          CFI (cfiCond8) V2 load(1, XDATA, add(CFA_XSP16, literal(-20)))
          CFI (cfiCond8) V3 load(1, XDATA, add(CFA_XSP16, literal(-19)))
          CFI (cfiCond8) V4 load(1, XDATA, add(CFA_XSP16, literal(-18)))
          CFI (cfiCond8) V5 load(1, XDATA, add(CFA_XSP16, literal(-17)))
          CFI (cfiCond8) V6 load(1, XDATA, add(CFA_XSP16, literal(-16)))
          CFI (cfiCond8) V7 load(1, XDATA, add(CFA_XSP16, literal(-15)))
          CFI (cfiCond8) V8 load(1, XDATA, add(CFA_XSP16, literal(-14)))
          CFI (cfiCond8) V9 load(1, XDATA, add(CFA_XSP16, literal(-13)))
          CFI (cfiCond8) V10 load(1, XDATA, add(CFA_XSP16, literal(-12)))
          CFI (cfiCond8) V11 load(1, XDATA, add(CFA_XSP16, literal(-11)))
          CFI (cfiCond8) V12 load(1, XDATA, add(CFA_XSP16, literal(-10)))
          CFI (cfiCond8) V13 load(1, XDATA, add(CFA_XSP16, literal(-9)))
          CFI (cfiCond8) V14 load(1, XDATA, add(CFA_XSP16, literal(-8)))
          CFI (cfiCond8) V15 load(1, XDATA, add(CFA_XSP16, literal(-7)))
          CFI (cfiCond8) R7 load(1, XDATA, add(CFA_XSP16, literal(-6)))
          CFI (cfiCond8) ?RET_LOW load(1, XDATA, add(CFA_XSP16, literal(-5)))
          CFI (cfiCond8) ?RET_HIGH load(1, XDATA, add(CFA_XSP16, literal(-4)))
          CFI (cfiCond8) ?BRET_EXT load(1, XDATA, add(CFA_XSP16, literal(-3)))
          CFI (cfiCond8) DPL0 load(1, XDATA, add(CFA_XSP16, literal(-2)))
          CFI (cfiCond8) DPH0 load(1, XDATA, add(CFA_XSP16, literal(-1)))
          CFI (cfiCond8) CFA_SP SP+0
          CFI (cfiCond8) CFA_XSP16 add(XSP16, 40)
          CFI Block cfiCond9 Using cfiCommon0
          CFI (cfiCond9) Function hwLight_Convert_xyY_to_RGB
          CFI (cfiCond9) Conditional ??CrossCallReturnLabel_55
          CFI (cfiCond9) R6 load(1, XDATA, add(CFA_XSP16, literal(-24)))
          CFI (cfiCond9) VB load(1, XDATA, add(CFA_XSP16, literal(-23)))
          CFI (cfiCond9) V0 load(1, XDATA, add(CFA_XSP16, literal(-22)))
          CFI (cfiCond9) V1 load(1, XDATA, add(CFA_XSP16, literal(-21)))
          CFI (cfiCond9) V2 load(1, XDATA, add(CFA_XSP16, literal(-20)))
          CFI (cfiCond9) V3 load(1, XDATA, add(CFA_XSP16, literal(-19)))
          CFI (cfiCond9) V4 load(1, XDATA, add(CFA_XSP16, literal(-18)))
          CFI (cfiCond9) V5 load(1, XDATA, add(CFA_XSP16, literal(-17)))
          CFI (cfiCond9) V6 load(1, XDATA, add(CFA_XSP16, literal(-16)))
          CFI (cfiCond9) V7 load(1, XDATA, add(CFA_XSP16, literal(-15)))
          CFI (cfiCond9) V8 load(1, XDATA, add(CFA_XSP16, literal(-14)))
          CFI (cfiCond9) V9 load(1, XDATA, add(CFA_XSP16, literal(-13)))
          CFI (cfiCond9) V10 load(1, XDATA, add(CFA_XSP16, literal(-12)))
          CFI (cfiCond9) V11 load(1, XDATA, add(CFA_XSP16, literal(-11)))
          CFI (cfiCond9) V12 load(1, XDATA, add(CFA_XSP16, literal(-10)))
          CFI (cfiCond9) V13 load(1, XDATA, add(CFA_XSP16, literal(-9)))
          CFI (cfiCond9) V14 load(1, XDATA, add(CFA_XSP16, literal(-8)))
          CFI (cfiCond9) V15 load(1, XDATA, add(CFA_XSP16, literal(-7)))
          CFI (cfiCond9) R7 load(1, XDATA, add(CFA_XSP16, literal(-6)))
          CFI (cfiCond9) ?RET_LOW load(1, XDATA, add(CFA_XSP16, literal(-5)))
          CFI (cfiCond9) ?RET_HIGH load(1, XDATA, add(CFA_XSP16, literal(-4)))
          CFI (cfiCond9) ?BRET_EXT load(1, XDATA, add(CFA_XSP16, literal(-3)))
          CFI (cfiCond9) DPL0 load(1, XDATA, add(CFA_XSP16, literal(-2)))
          CFI (cfiCond9) DPH0 load(1, XDATA, add(CFA_XSP16, literal(-1)))
          CFI (cfiCond9) CFA_SP SP+0
          CFI (cfiCond9) CFA_XSP16 add(XSP16, 40)
          CFI Block cfiPicker10 Using cfiCommon1
          CFI (cfiPicker10) NoFunction
          CFI (cfiPicker10) Picker
        MOVX    @DPTR,A
        INC     DPTR
        MOVX    @DPTR,A
        INC     DPTR
        MOVX    @DPTR,A
        INC     DPTR
        RET
          CFI EndBlock cfiCond6
          CFI EndBlock cfiCond7
          CFI EndBlock cfiCond8
          CFI EndBlock cfiCond9
          CFI EndBlock cfiPicker10
//  229 
//  230 /*********************************************************************
//  231 * @fn      hwLight_RGB_to_RGBW
//  232 *
//  233 * @brief   Convert RGB LED values to RGBW. The white value is written to W,
//  234 *          the original RGB values are overwritten.
//  235 *
//  236 * @param   R - pointer to red input and output value from 0 to PWM_FULL_DUTY_CYCLE
//  237 * @param   G - pointer to green input and output value from 0 to PWM_FULL_DUTY_CYCLE
//  238 * @param   B - pointer to blue input and output value from 0 to PWM_FULL_DUTY_CYCLE
//  239 * @param   W - pointer to white output value from 0 to PWM_FULL_DUTY_CYCLE
//  240 *
//  241 * @return  none
//  242 */

        RSEG BANKED_CODE:CODE:NOROOT(0)
//  243 static void hwLight_RGB_to_RGBW( uint16 *R, uint16 *G, uint16 *B, uint16 *W )
hwLight_RGB_to_RGBW:
          CFI Block cfiBlock11 Using cfiCommon0
          CFI Function hwLight_RGB_to_RGBW
        CODE
//  244 {
        MOV     A,#-0x16
        LCALL   ?BANKED_ENTER_XDATA
          CFI DPH0 load(1, XDATA, add(CFA_XSP16, literal(-1)))
          CFI DPL0 load(1, XDATA, add(CFA_XSP16, literal(-2)))
          CFI ?BRET_EXT load(1, XDATA, add(CFA_XSP16, literal(-3)))
          CFI ?RET_HIGH load(1, XDATA, add(CFA_XSP16, literal(-4)))
          CFI ?RET_LOW load(1, XDATA, add(CFA_XSP16, literal(-5)))
          CFI R7 load(1, XDATA, add(CFA_XSP16, literal(-6)))
          CFI V13 load(1, XDATA, add(CFA_XSP16, literal(-7)))
          CFI V12 load(1, XDATA, add(CFA_XSP16, literal(-8)))
          CFI V11 load(1, XDATA, add(CFA_XSP16, literal(-9)))
          CFI V10 load(1, XDATA, add(CFA_XSP16, literal(-10)))
          CFI V9 load(1, XDATA, add(CFA_XSP16, literal(-11)))
          CFI V8 load(1, XDATA, add(CFA_XSP16, literal(-12)))
          CFI V7 load(1, XDATA, add(CFA_XSP16, literal(-13)))
          CFI V6 load(1, XDATA, add(CFA_XSP16, literal(-14)))
          CFI V5 load(1, XDATA, add(CFA_XSP16, literal(-15)))
          CFI V4 load(1, XDATA, add(CFA_XSP16, literal(-16)))
          CFI V3 load(1, XDATA, add(CFA_XSP16, literal(-17)))
          CFI V2 load(1, XDATA, add(CFA_XSP16, literal(-18)))
          CFI V1 load(1, XDATA, add(CFA_XSP16, literal(-19)))
          CFI V0 load(1, XDATA, add(CFA_XSP16, literal(-20)))
          CFI VB load(1, XDATA, add(CFA_XSP16, literal(-21)))
          CFI R6 load(1, XDATA, add(CFA_XSP16, literal(-22)))
          CFI CFA_SP SP+0
          CFI CFA_XSP16 add(XSP16, 22)
        ; Saved register size: 22
        ; Auto size: 0
        MOV     ?V0 + 12,R2
        MOV     ?V0 + 13,R3
        MOV     A,R4
        MOV     R6,A
        MOV     A,R5
        MOV     R7,A
        MOV     A,#0x16
        LCALL   ?XSTACK_DISP0_8
        LCALL   ??Subroutine34_0 & 0xFFFF
//  245   uint16 w;
//  246   if ( MAX3(*R,*G,*B) == 0 )
??CrossCallReturnLabel_60:
        MOV     DPL,R2
        MOV     DPH,R3
        LCALL   ?Subroutine13 & 0xFFFF
??CrossCallReturnLabel_13:
        MOVX    A,@DPTR
        MOV     ?V0 + 6,A
        INC     DPTR
        MOVX    A,@DPTR
        MOV     ?V0 + 7,A
        MOV     DPL,R6
        MOV     DPH,R7
        MOVX    A,@DPTR
        MOV     ?V0 + 8,A
        INC     DPTR
        MOVX    A,@DPTR
        MOV     ?V0 + 9,A
        LCALL   ?Subroutine25 & 0xFFFF
??CrossCallReturnLabel_34:
        JNC     ??hwLight_RGB_to_RGBW_0
        CLR     C
        MOV     A,R0
        SUBB    A,?V0 + 6
        MOV     A,R1
        SUBB    A,?V0 + 7
        JNC     ??hwLight_RGB_to_RGBW_1
        MOV     ?V0 + 0,?V0 + 6
        MOV     ?V0 + 1,?V0 + 7
        SJMP    ??hwLight_RGB_to_RGBW_2
??hwLight_RGB_to_RGBW_0:
        CLR     C
        MOV     A,R0
        SUBB    A,?V0 + 8
        MOV     A,R1
        SUBB    A,?V0 + 9
        JNC     ??hwLight_RGB_to_RGBW_1
        MOV     ?V0 + 0,?V0 + 8
        MOV     ?V0 + 1,?V0 + 9
        SJMP    ??hwLight_RGB_to_RGBW_2
??hwLight_RGB_to_RGBW_1:
        MOV     ?V0 + 0,R0
        MOV     ?V0 + 1,R1
??hwLight_RGB_to_RGBW_2:
        MOV     A,#0x18
        LCALL   ?XSTACK_DISP0_8
        LCALL   ?Subroutine29 & 0xFFFF
??CrossCallReturnLabel_44:
        MOV     A,?V0 + 0
        ORL     A,?V0 + 1
        JNZ     ??hwLight_RGB_to_RGBW_3
//  247   {
//  248     *W = 0;
        MOV     DPL,R4
        MOV     DPH,R5
        CLR     A
        MOVX    @DPTR,A
        INC     DPTR
        LJMP    ??hwLight_RGB_to_RGBW_4 & 0xFFFF
//  249     return;
//  250   }
//  251   w = (uint16)( ( (uint32)MIN3(*R,*G,*B) * ( *R + *G + *B ) ) / ( MAX3(*R,*G,*B) * 3 ) );
??hwLight_RGB_to_RGBW_3:
        LCALL   ?Subroutine25 & 0xFFFF
??CrossCallReturnLabel_35:
        JNC     ??hwLight_RGB_to_RGBW_5
        CLR     C
        MOV     A,R0
        SUBB    A,?V0 + 8
        MOV     A,R1
        SUBB    A,?V0 + 9
        JC      ??hwLight_RGB_to_RGBW_6
        MOV     ?V0 + 0,?V0 + 8
        MOV     ?V0 + 1,?V0 + 9
??hwLight_RGB_to_RGBW_7:
        CLR     C
        MOV     A,R0
        SUBB    A,?V0 + 6
        MOV     A,R1
        SUBB    A,?V0 + 7
        JNC     ??hwLight_RGB_to_RGBW_8
        MOV     ?V0 + 4,?V0 + 6
        MOV     ?V0 + 5,?V0 + 7
        SJMP    ??hwLight_RGB_to_RGBW_9
??hwLight_RGB_to_RGBW_5:
        CLR     C
        MOV     A,R0
        SUBB    A,?V0 + 6
        MOV     A,R1
        SUBB    A,?V0 + 7
        JNC     ??hwLight_RGB_to_RGBW_10
??hwLight_RGB_to_RGBW_6:
        MOV     ?V0 + 0,R0
        MOV     ?V0 + 1,R1
        LCALL   ?Subroutine25 & 0xFFFF
??CrossCallReturnLabel_36:
        JNC     ??hwLight_RGB_to_RGBW_11
        SJMP    ??hwLight_RGB_to_RGBW_7
??hwLight_RGB_to_RGBW_10:
        MOV     ?V0 + 0,?V0 + 6
        MOV     ?V0 + 1,?V0 + 7
??hwLight_RGB_to_RGBW_11:
        CLR     C
        MOV     A,R0
        SUBB    A,?V0 + 8
        MOV     A,R1
        SUBB    A,?V0 + 9
        JNC     ??hwLight_RGB_to_RGBW_8
        MOV     ?V0 + 4,?V0 + 8
        MOV     ?V0 + 5,?V0 + 9
        SJMP    ??hwLight_RGB_to_RGBW_9
??hwLight_RGB_to_RGBW_8:
        MOV     ?V0 + 4,R0
        MOV     ?V0 + 5,R1
??hwLight_RGB_to_RGBW_9:
        CLR     A
        MOV     ?V0 + 2,A
        MOV     ?V0 + 3,A
        MOV     A,?V0 + 6
        ADD     A,?V0 + 8
        MOV     ?V0 + 6,A
        MOV     A,?V0 + 7
        ADDC    A,?V0 + 9
        MOV     ?V0 + 7,A
        MOV     A,?V0 + 6
        ADD     A,R0
        MOV     ?V0 + 8,A
        MOV     A,?V0 + 7
        ADDC    A,R1
        MOV     ?V0 + 9,A
        CLR     A
        MOV     ?V0 + 10,A
        MOV     ?V0 + 11,A
        MOV     R0,#?V0 + 0
        MOV     R1,#?V0 + 8
        LCALL   ?L_MUL
        MOV     A,?V0 + 4
        MOV     B,#0x3
        MUL     AB
        MOV     ?V0 + 4,A
        MOV     R0,B
        MOV     B,#0x3
        MOV     A,?V0 + 5
        MUL     AB
        ADD     A,R0
        MOV     ?V0 + 5,A
        CLR     A
        MOV     ?V0 + 6,A
        MOV     ?V0 + 7,A
        MOV     R0,#?V0 + 0
        MOV     R1,#?V0 + 4
        LCALL   ?UL_DIV_MOD
        MOV     R0,?V0 + 0
        MOV     R1,?V0 + 1
//  252   *R += w;
        MOV     DPL,?V0 + 12
        MOV     DPH,?V0 + 13
        LCALL   ?Subroutine14 & 0xFFFF
//  253   *G += w;
??CrossCallReturnLabel_15:
        MOV     DPL,R6
        MOV     DPH,R7
        LCALL   ?Subroutine14 & 0xFFFF
//  254   *B += w;
??CrossCallReturnLabel_16:
        MOV     DPL,R2
        MOV     DPH,R3
        LCALL   ?Subroutine14 & 0xFFFF
//  255   *W = MIN3(*R,*G,*B);
??CrossCallReturnLabel_17:
        MOV     DPL,?V0 + 12
        MOV     DPH,?V0 + 13
        MOVX    A,@DPTR
        MOV     ?V0 + 2,A
        INC     DPTR
        MOVX    A,@DPTR
        MOV     ?V0 + 3,A
        MOV     DPL,R6
        MOV     DPH,R7
        MOVX    A,@DPTR
        MOV     ?V0 + 0,A
        INC     DPTR
        MOVX    A,@DPTR
        MOV     ?V0 + 1,A
        MOV     DPL,R2
        MOV     DPH,R3
        LCALL   ?Subroutine26 & 0xFFFF
??CrossCallReturnLabel_37:
        CLR     C
        MOV     A,?V0 + 0
        SUBB    A,?V0 + 2
        MOV     A,?V0 + 1
        SUBB    A,?V0 + 3
        JNC     ??hwLight_RGB_to_RGBW_12
        CLR     C
        MOV     A,R0
        SUBB    A,?V0 + 0
        MOV     A,R1
        SUBB    A,?V0 + 1
        JC      ??hwLight_RGB_to_RGBW_13
        MOV     ?V0 + 4,?V0 + 0
        MOV     ?V0 + 5,?V0 + 1
        SJMP    ??hwLight_RGB_to_RGBW_14
??hwLight_RGB_to_RGBW_12:
        CLR     C
        MOV     A,R0
        SUBB    A,?V0 + 2
        MOV     A,R1
        SUBB    A,?V0 + 3
        JNC     ??hwLight_RGB_to_RGBW_15
??hwLight_RGB_to_RGBW_13:
        MOV     ?V0 + 4,R0
        MOV     ?V0 + 5,R1
        SJMP    ??hwLight_RGB_to_RGBW_14
??hwLight_RGB_to_RGBW_15:
        MOV     ?V0 + 4,?V0 + 2
        MOV     ?V0 + 5,?V0 + 3
??hwLight_RGB_to_RGBW_14:
        MOV     DPL,R4
        MOV     DPH,R5
        LCALL   ?Subroutine20 & 0xFFFF
//  256   *W = (*W > PWM_FULL_DUTY_CYCLE) ? PWM_FULL_DUTY_CYCLE : *W;
??CrossCallReturnLabel_26:
        MOV     R0,A
        INC     DPTR
        MOVX    A,@DPTR
        MOV     R1,A
        CLR     C
        MOV     A,R0
        SUBB    A,#-0x17
        MOV     A,R1
        SUBB    A,#0x3
        JC      ??hwLight_RGB_to_RGBW_16
        MOV     ?V0 + 0,#-0x18
        MOV     ?V0 + 1,#0x3
        SJMP    ??hwLight_RGB_to_RGBW_17
??hwLight_RGB_to_RGBW_16:
        MOV     ?V0 + 0,R0
        MOV     ?V0 + 1,R1
??hwLight_RGB_to_RGBW_17:
        MOV     DPL,R4
        MOV     DPH,R5
        MOV     A,?V0 + 0
        MOVX    @DPTR,A
        INC     DPTR
        MOV     A,?V0 + 1
        MOVX    @DPTR,A
//  257   *R -= *W;
        MOV     DPL,R4
        MOV     DPH,R5
        LCALL   ?Subroutine13 & 0xFFFF
??CrossCallReturnLabel_14:
        LCALL   ?Subroutine7 & 0xFFFF
//  258   *G -= *W;
??CrossCallReturnLabel_2:
        MOV     DPL,R6
        MOV     DPH,R7
        LCALL   ?Subroutine7 & 0xFFFF
//  259   *B -= *W;
??CrossCallReturnLabel_3:
        MOV     DPL,R2
        MOV     DPH,R3
        CLR     C
        MOVX    A,@DPTR
        SUBB    A,R0
        MOVX    @DPTR,A
        INC     DPTR
        MOVX    A,@DPTR
        SUBB    A,R1
??hwLight_RGB_to_RGBW_4:
        MOVX    @DPTR,A
//  260 }
        MOV     R7,#0xe
        LJMP    ?BANKED_LEAVE_XDATA
          CFI EndBlock cfiBlock11

        RSEG BANKED_CODE:CODE:NOROOT(0)
?Subroutine25:
          CFI Block cfiCond12 Using cfiCommon0
          CFI Function hwLight_RGB_to_RGBW
          CFI Conditional ??CrossCallReturnLabel_34
          CFI R6 load(1, XDATA, add(CFA_XSP16, literal(-22)))
          CFI VB load(1, XDATA, add(CFA_XSP16, literal(-21)))
          CFI V0 load(1, XDATA, add(CFA_XSP16, literal(-20)))
          CFI V1 load(1, XDATA, add(CFA_XSP16, literal(-19)))
          CFI V2 load(1, XDATA, add(CFA_XSP16, literal(-18)))
          CFI V3 load(1, XDATA, add(CFA_XSP16, literal(-17)))
          CFI V4 load(1, XDATA, add(CFA_XSP16, literal(-16)))
          CFI V5 load(1, XDATA, add(CFA_XSP16, literal(-15)))
          CFI V6 load(1, XDATA, add(CFA_XSP16, literal(-14)))
          CFI V7 load(1, XDATA, add(CFA_XSP16, literal(-13)))
          CFI V8 load(1, XDATA, add(CFA_XSP16, literal(-12)))
          CFI V9 load(1, XDATA, add(CFA_XSP16, literal(-11)))
          CFI V10 load(1, XDATA, add(CFA_XSP16, literal(-10)))
          CFI V11 load(1, XDATA, add(CFA_XSP16, literal(-9)))
          CFI V12 load(1, XDATA, add(CFA_XSP16, literal(-8)))
          CFI V13 load(1, XDATA, add(CFA_XSP16, literal(-7)))
          CFI R7 load(1, XDATA, add(CFA_XSP16, literal(-6)))
          CFI ?RET_LOW load(1, XDATA, add(CFA_XSP16, literal(-5)))
          CFI ?RET_HIGH load(1, XDATA, add(CFA_XSP16, literal(-4)))
          CFI ?BRET_EXT load(1, XDATA, add(CFA_XSP16, literal(-3)))
          CFI DPL0 load(1, XDATA, add(CFA_XSP16, literal(-2)))
          CFI DPH0 load(1, XDATA, add(CFA_XSP16, literal(-1)))
          CFI CFA_SP SP+0
          CFI CFA_XSP16 add(XSP16, 22)
          CFI Block cfiCond13 Using cfiCommon0
          CFI (cfiCond13) Function hwLight_RGB_to_RGBW
          CFI (cfiCond13) Conditional ??CrossCallReturnLabel_35
          CFI (cfiCond13) R6 load(1, XDATA, add(CFA_XSP16, literal(-22)))
          CFI (cfiCond13) VB load(1, XDATA, add(CFA_XSP16, literal(-21)))
          CFI (cfiCond13) V0 load(1, XDATA, add(CFA_XSP16, literal(-20)))
          CFI (cfiCond13) V1 load(1, XDATA, add(CFA_XSP16, literal(-19)))
          CFI (cfiCond13) V2 load(1, XDATA, add(CFA_XSP16, literal(-18)))
          CFI (cfiCond13) V3 load(1, XDATA, add(CFA_XSP16, literal(-17)))
          CFI (cfiCond13) V4 load(1, XDATA, add(CFA_XSP16, literal(-16)))
          CFI (cfiCond13) V5 load(1, XDATA, add(CFA_XSP16, literal(-15)))
          CFI (cfiCond13) V6 load(1, XDATA, add(CFA_XSP16, literal(-14)))
          CFI (cfiCond13) V7 load(1, XDATA, add(CFA_XSP16, literal(-13)))
          CFI (cfiCond13) V8 load(1, XDATA, add(CFA_XSP16, literal(-12)))
          CFI (cfiCond13) V9 load(1, XDATA, add(CFA_XSP16, literal(-11)))
          CFI (cfiCond13) V10 load(1, XDATA, add(CFA_XSP16, literal(-10)))
          CFI (cfiCond13) V11 load(1, XDATA, add(CFA_XSP16, literal(-9)))
          CFI (cfiCond13) V12 load(1, XDATA, add(CFA_XSP16, literal(-8)))
          CFI (cfiCond13) V13 load(1, XDATA, add(CFA_XSP16, literal(-7)))
          CFI (cfiCond13) R7 load(1, XDATA, add(CFA_XSP16, literal(-6)))
          CFI (cfiCond13) ?RET_LOW load(1, XDATA, add(CFA_XSP16, literal(-5)))
          CFI (cfiCond13) ?RET_HIGH load(1, XDATA, add(CFA_XSP16, literal(-4)))
          CFI (cfiCond13) ?BRET_EXT load(1, XDATA, add(CFA_XSP16, literal(-3)))
          CFI (cfiCond13) DPL0 load(1, XDATA, add(CFA_XSP16, literal(-2)))
          CFI (cfiCond13) DPH0 load(1, XDATA, add(CFA_XSP16, literal(-1)))
          CFI (cfiCond13) CFA_SP SP+0
          CFI (cfiCond13) CFA_XSP16 add(XSP16, 22)
          CFI Block cfiCond14 Using cfiCommon0
          CFI (cfiCond14) Function hwLight_RGB_to_RGBW
          CFI (cfiCond14) Conditional ??CrossCallReturnLabel_36
          CFI (cfiCond14) R6 load(1, XDATA, add(CFA_XSP16, literal(-22)))
          CFI (cfiCond14) VB load(1, XDATA, add(CFA_XSP16, literal(-21)))
          CFI (cfiCond14) V0 load(1, XDATA, add(CFA_XSP16, literal(-20)))
          CFI (cfiCond14) V1 load(1, XDATA, add(CFA_XSP16, literal(-19)))
          CFI (cfiCond14) V2 load(1, XDATA, add(CFA_XSP16, literal(-18)))
          CFI (cfiCond14) V3 load(1, XDATA, add(CFA_XSP16, literal(-17)))
          CFI (cfiCond14) V4 load(1, XDATA, add(CFA_XSP16, literal(-16)))
          CFI (cfiCond14) V5 load(1, XDATA, add(CFA_XSP16, literal(-15)))
          CFI (cfiCond14) V6 load(1, XDATA, add(CFA_XSP16, literal(-14)))
          CFI (cfiCond14) V7 load(1, XDATA, add(CFA_XSP16, literal(-13)))
          CFI (cfiCond14) V8 load(1, XDATA, add(CFA_XSP16, literal(-12)))
          CFI (cfiCond14) V9 load(1, XDATA, add(CFA_XSP16, literal(-11)))
          CFI (cfiCond14) V10 load(1, XDATA, add(CFA_XSP16, literal(-10)))
          CFI (cfiCond14) V11 load(1, XDATA, add(CFA_XSP16, literal(-9)))
          CFI (cfiCond14) V12 load(1, XDATA, add(CFA_XSP16, literal(-8)))
          CFI (cfiCond14) V13 load(1, XDATA, add(CFA_XSP16, literal(-7)))
          CFI (cfiCond14) R7 load(1, XDATA, add(CFA_XSP16, literal(-6)))
          CFI (cfiCond14) ?RET_LOW load(1, XDATA, add(CFA_XSP16, literal(-5)))
          CFI (cfiCond14) ?RET_HIGH load(1, XDATA, add(CFA_XSP16, literal(-4)))
          CFI (cfiCond14) ?BRET_EXT load(1, XDATA, add(CFA_XSP16, literal(-3)))
          CFI (cfiCond14) DPL0 load(1, XDATA, add(CFA_XSP16, literal(-2)))
          CFI (cfiCond14) DPH0 load(1, XDATA, add(CFA_XSP16, literal(-1)))
          CFI (cfiCond14) CFA_SP SP+0
          CFI (cfiCond14) CFA_XSP16 add(XSP16, 22)
          CFI Block cfiPicker15 Using cfiCommon1
          CFI (cfiPicker15) NoFunction
          CFI (cfiPicker15) Picker
        CLR     C
        MOV     A,?V0 + 8
        SUBB    A,?V0 + 6
        MOV     A,?V0 + 9
        SUBB    A,?V0 + 7
        RET
          CFI EndBlock cfiCond12
          CFI EndBlock cfiCond13
          CFI EndBlock cfiCond14
          CFI EndBlock cfiPicker15

        RSEG BANKED_CODE:CODE:NOROOT(0)
?Subroutine14:
          CFI Block cfiCond16 Using cfiCommon0
          CFI Function hwLight_RGB_to_RGBW
          CFI Conditional ??CrossCallReturnLabel_15
          CFI R6 load(1, XDATA, add(CFA_XSP16, literal(-22)))
          CFI VB load(1, XDATA, add(CFA_XSP16, literal(-21)))
          CFI V0 load(1, XDATA, add(CFA_XSP16, literal(-20)))
          CFI V1 load(1, XDATA, add(CFA_XSP16, literal(-19)))
          CFI V2 load(1, XDATA, add(CFA_XSP16, literal(-18)))
          CFI V3 load(1, XDATA, add(CFA_XSP16, literal(-17)))
          CFI V4 load(1, XDATA, add(CFA_XSP16, literal(-16)))
          CFI V5 load(1, XDATA, add(CFA_XSP16, literal(-15)))
          CFI V6 load(1, XDATA, add(CFA_XSP16, literal(-14)))
          CFI V7 load(1, XDATA, add(CFA_XSP16, literal(-13)))
          CFI V8 load(1, XDATA, add(CFA_XSP16, literal(-12)))
          CFI V9 load(1, XDATA, add(CFA_XSP16, literal(-11)))
          CFI V10 load(1, XDATA, add(CFA_XSP16, literal(-10)))
          CFI V11 load(1, XDATA, add(CFA_XSP16, literal(-9)))
          CFI V12 load(1, XDATA, add(CFA_XSP16, literal(-8)))
          CFI V13 load(1, XDATA, add(CFA_XSP16, literal(-7)))
          CFI R7 load(1, XDATA, add(CFA_XSP16, literal(-6)))
          CFI ?RET_LOW load(1, XDATA, add(CFA_XSP16, literal(-5)))
          CFI ?RET_HIGH load(1, XDATA, add(CFA_XSP16, literal(-4)))
          CFI ?BRET_EXT load(1, XDATA, add(CFA_XSP16, literal(-3)))
          CFI DPL0 load(1, XDATA, add(CFA_XSP16, literal(-2)))
          CFI DPH0 load(1, XDATA, add(CFA_XSP16, literal(-1)))
          CFI CFA_SP SP+0
          CFI CFA_XSP16 add(XSP16, 22)
          CFI Block cfiCond17 Using cfiCommon0
          CFI (cfiCond17) Function hwLight_RGB_to_RGBW
          CFI (cfiCond17) Conditional ??CrossCallReturnLabel_16
          CFI (cfiCond17) R6 load(1, XDATA, add(CFA_XSP16, literal(-22)))
          CFI (cfiCond17) VB load(1, XDATA, add(CFA_XSP16, literal(-21)))
          CFI (cfiCond17) V0 load(1, XDATA, add(CFA_XSP16, literal(-20)))
          CFI (cfiCond17) V1 load(1, XDATA, add(CFA_XSP16, literal(-19)))
          CFI (cfiCond17) V2 load(1, XDATA, add(CFA_XSP16, literal(-18)))
          CFI (cfiCond17) V3 load(1, XDATA, add(CFA_XSP16, literal(-17)))
          CFI (cfiCond17) V4 load(1, XDATA, add(CFA_XSP16, literal(-16)))
          CFI (cfiCond17) V5 load(1, XDATA, add(CFA_XSP16, literal(-15)))
          CFI (cfiCond17) V6 load(1, XDATA, add(CFA_XSP16, literal(-14)))
          CFI (cfiCond17) V7 load(1, XDATA, add(CFA_XSP16, literal(-13)))
          CFI (cfiCond17) V8 load(1, XDATA, add(CFA_XSP16, literal(-12)))
          CFI (cfiCond17) V9 load(1, XDATA, add(CFA_XSP16, literal(-11)))
          CFI (cfiCond17) V10 load(1, XDATA, add(CFA_XSP16, literal(-10)))
          CFI (cfiCond17) V11 load(1, XDATA, add(CFA_XSP16, literal(-9)))
          CFI (cfiCond17) V12 load(1, XDATA, add(CFA_XSP16, literal(-8)))
          CFI (cfiCond17) V13 load(1, XDATA, add(CFA_XSP16, literal(-7)))
          CFI (cfiCond17) R7 load(1, XDATA, add(CFA_XSP16, literal(-6)))
          CFI (cfiCond17) ?RET_LOW load(1, XDATA, add(CFA_XSP16, literal(-5)))
          CFI (cfiCond17) ?RET_HIGH load(1, XDATA, add(CFA_XSP16, literal(-4)))
          CFI (cfiCond17) ?BRET_EXT load(1, XDATA, add(CFA_XSP16, literal(-3)))
          CFI (cfiCond17) DPL0 load(1, XDATA, add(CFA_XSP16, literal(-2)))
          CFI (cfiCond17) DPH0 load(1, XDATA, add(CFA_XSP16, literal(-1)))
          CFI (cfiCond17) CFA_SP SP+0
          CFI (cfiCond17) CFA_XSP16 add(XSP16, 22)
          CFI Block cfiCond18 Using cfiCommon0
          CFI (cfiCond18) Function hwLight_RGB_to_RGBW
          CFI (cfiCond18) Conditional ??CrossCallReturnLabel_17
          CFI (cfiCond18) R6 load(1, XDATA, add(CFA_XSP16, literal(-22)))
          CFI (cfiCond18) VB load(1, XDATA, add(CFA_XSP16, literal(-21)))
          CFI (cfiCond18) V0 load(1, XDATA, add(CFA_XSP16, literal(-20)))
          CFI (cfiCond18) V1 load(1, XDATA, add(CFA_XSP16, literal(-19)))
          CFI (cfiCond18) V2 load(1, XDATA, add(CFA_XSP16, literal(-18)))
          CFI (cfiCond18) V3 load(1, XDATA, add(CFA_XSP16, literal(-17)))
          CFI (cfiCond18) V4 load(1, XDATA, add(CFA_XSP16, literal(-16)))
          CFI (cfiCond18) V5 load(1, XDATA, add(CFA_XSP16, literal(-15)))
          CFI (cfiCond18) V6 load(1, XDATA, add(CFA_XSP16, literal(-14)))
          CFI (cfiCond18) V7 load(1, XDATA, add(CFA_XSP16, literal(-13)))
          CFI (cfiCond18) V8 load(1, XDATA, add(CFA_XSP16, literal(-12)))
          CFI (cfiCond18) V9 load(1, XDATA, add(CFA_XSP16, literal(-11)))
          CFI (cfiCond18) V10 load(1, XDATA, add(CFA_XSP16, literal(-10)))
          CFI (cfiCond18) V11 load(1, XDATA, add(CFA_XSP16, literal(-9)))
          CFI (cfiCond18) V12 load(1, XDATA, add(CFA_XSP16, literal(-8)))
          CFI (cfiCond18) V13 load(1, XDATA, add(CFA_XSP16, literal(-7)))
          CFI (cfiCond18) R7 load(1, XDATA, add(CFA_XSP16, literal(-6)))
          CFI (cfiCond18) ?RET_LOW load(1, XDATA, add(CFA_XSP16, literal(-5)))
          CFI (cfiCond18) ?RET_HIGH load(1, XDATA, add(CFA_XSP16, literal(-4)))
          CFI (cfiCond18) ?BRET_EXT load(1, XDATA, add(CFA_XSP16, literal(-3)))
          CFI (cfiCond18) DPL0 load(1, XDATA, add(CFA_XSP16, literal(-2)))
          CFI (cfiCond18) DPH0 load(1, XDATA, add(CFA_XSP16, literal(-1)))
          CFI (cfiCond18) CFA_SP SP+0
          CFI (cfiCond18) CFA_XSP16 add(XSP16, 22)
          CFI Block cfiPicker19 Using cfiCommon1
          CFI (cfiPicker19) NoFunction
          CFI (cfiPicker19) Picker
        MOVX    A,@DPTR
        ADD     A,R0
        MOVX    @DPTR,A
        INC     DPTR
        MOVX    A,@DPTR
        ADDC    A,R1
        MOVX    @DPTR,A
        RET
          CFI EndBlock cfiCond16
          CFI EndBlock cfiCond17
          CFI EndBlock cfiCond18
          CFI EndBlock cfiPicker19

        RSEG BANKED_CODE:CODE:NOROOT(0)
?Subroutine13:
          CFI Block cfiCond20 Using cfiCommon0
          CFI Function hwLight_RGB_to_RGBW
          CFI Conditional ??CrossCallReturnLabel_13
          CFI R6 load(1, XDATA, add(CFA_XSP16, literal(-22)))
          CFI VB load(1, XDATA, add(CFA_XSP16, literal(-21)))
          CFI V0 load(1, XDATA, add(CFA_XSP16, literal(-20)))
          CFI V1 load(1, XDATA, add(CFA_XSP16, literal(-19)))
          CFI V2 load(1, XDATA, add(CFA_XSP16, literal(-18)))
          CFI V3 load(1, XDATA, add(CFA_XSP16, literal(-17)))
          CFI V4 load(1, XDATA, add(CFA_XSP16, literal(-16)))
          CFI V5 load(1, XDATA, add(CFA_XSP16, literal(-15)))
          CFI V6 load(1, XDATA, add(CFA_XSP16, literal(-14)))
          CFI V7 load(1, XDATA, add(CFA_XSP16, literal(-13)))
          CFI V8 load(1, XDATA, add(CFA_XSP16, literal(-12)))
          CFI V9 load(1, XDATA, add(CFA_XSP16, literal(-11)))
          CFI V10 load(1, XDATA, add(CFA_XSP16, literal(-10)))
          CFI V11 load(1, XDATA, add(CFA_XSP16, literal(-9)))
          CFI V12 load(1, XDATA, add(CFA_XSP16, literal(-8)))
          CFI V13 load(1, XDATA, add(CFA_XSP16, literal(-7)))
          CFI R7 load(1, XDATA, add(CFA_XSP16, literal(-6)))
          CFI ?RET_LOW load(1, XDATA, add(CFA_XSP16, literal(-5)))
          CFI ?RET_HIGH load(1, XDATA, add(CFA_XSP16, literal(-4)))
          CFI ?BRET_EXT load(1, XDATA, add(CFA_XSP16, literal(-3)))
          CFI DPL0 load(1, XDATA, add(CFA_XSP16, literal(-2)))
          CFI DPH0 load(1, XDATA, add(CFA_XSP16, literal(-1)))
          CFI CFA_SP SP+0
          CFI CFA_XSP16 add(XSP16, 22)
          CFI Block cfiCond21 Using cfiCommon0
          CFI (cfiCond21) Function hwLight_RGB_to_RGBW
          CFI (cfiCond21) Conditional ??CrossCallReturnLabel_14
          CFI (cfiCond21) R6 load(1, XDATA, add(CFA_XSP16, literal(-22)))
          CFI (cfiCond21) VB load(1, XDATA, add(CFA_XSP16, literal(-21)))
          CFI (cfiCond21) V0 load(1, XDATA, add(CFA_XSP16, literal(-20)))
          CFI (cfiCond21) V1 load(1, XDATA, add(CFA_XSP16, literal(-19)))
          CFI (cfiCond21) V2 load(1, XDATA, add(CFA_XSP16, literal(-18)))
          CFI (cfiCond21) V3 load(1, XDATA, add(CFA_XSP16, literal(-17)))
          CFI (cfiCond21) V4 load(1, XDATA, add(CFA_XSP16, literal(-16)))
          CFI (cfiCond21) V5 load(1, XDATA, add(CFA_XSP16, literal(-15)))
          CFI (cfiCond21) V6 load(1, XDATA, add(CFA_XSP16, literal(-14)))
          CFI (cfiCond21) V7 load(1, XDATA, add(CFA_XSP16, literal(-13)))
          CFI (cfiCond21) V8 load(1, XDATA, add(CFA_XSP16, literal(-12)))
          CFI (cfiCond21) V9 load(1, XDATA, add(CFA_XSP16, literal(-11)))
          CFI (cfiCond21) V10 load(1, XDATA, add(CFA_XSP16, literal(-10)))
          CFI (cfiCond21) V11 load(1, XDATA, add(CFA_XSP16, literal(-9)))
          CFI (cfiCond21) V12 load(1, XDATA, add(CFA_XSP16, literal(-8)))
          CFI (cfiCond21) V13 load(1, XDATA, add(CFA_XSP16, literal(-7)))
          CFI (cfiCond21) R7 load(1, XDATA, add(CFA_XSP16, literal(-6)))
          CFI (cfiCond21) ?RET_LOW load(1, XDATA, add(CFA_XSP16, literal(-5)))
          CFI (cfiCond21) ?RET_HIGH load(1, XDATA, add(CFA_XSP16, literal(-4)))
          CFI (cfiCond21) ?BRET_EXT load(1, XDATA, add(CFA_XSP16, literal(-3)))
          CFI (cfiCond21) DPL0 load(1, XDATA, add(CFA_XSP16, literal(-2)))
          CFI (cfiCond21) DPH0 load(1, XDATA, add(CFA_XSP16, literal(-1)))
          CFI (cfiCond21) CFA_SP SP+0
          CFI (cfiCond21) CFA_XSP16 add(XSP16, 22)
          CFI Block cfiPicker22 Using cfiCommon1
          CFI (cfiPicker22) NoFunction
          CFI (cfiPicker22) Picker
        LCALL   ?Subroutine26 & 0xFFFF
??CrossCallReturnLabel_41:
        MOV     DPL,?V0 + 12
        MOV     DPH,?V0 + 13
        RET
          CFI EndBlock cfiCond20
          CFI EndBlock cfiCond21
          CFI EndBlock cfiPicker22

        RSEG BANKED_CODE:CODE:NOROOT(0)
?Subroutine7:
          CFI Block cfiCond23 Using cfiCommon0
          CFI Function hwLight_RGB_to_RGBW
          CFI Conditional ??CrossCallReturnLabel_2
          CFI R6 load(1, XDATA, add(CFA_XSP16, literal(-22)))
          CFI VB load(1, XDATA, add(CFA_XSP16, literal(-21)))
          CFI V0 load(1, XDATA, add(CFA_XSP16, literal(-20)))
          CFI V1 load(1, XDATA, add(CFA_XSP16, literal(-19)))
          CFI V2 load(1, XDATA, add(CFA_XSP16, literal(-18)))
          CFI V3 load(1, XDATA, add(CFA_XSP16, literal(-17)))
          CFI V4 load(1, XDATA, add(CFA_XSP16, literal(-16)))
          CFI V5 load(1, XDATA, add(CFA_XSP16, literal(-15)))
          CFI V6 load(1, XDATA, add(CFA_XSP16, literal(-14)))
          CFI V7 load(1, XDATA, add(CFA_XSP16, literal(-13)))
          CFI V8 load(1, XDATA, add(CFA_XSP16, literal(-12)))
          CFI V9 load(1, XDATA, add(CFA_XSP16, literal(-11)))
          CFI V10 load(1, XDATA, add(CFA_XSP16, literal(-10)))
          CFI V11 load(1, XDATA, add(CFA_XSP16, literal(-9)))
          CFI V12 load(1, XDATA, add(CFA_XSP16, literal(-8)))
          CFI V13 load(1, XDATA, add(CFA_XSP16, literal(-7)))
          CFI R7 load(1, XDATA, add(CFA_XSP16, literal(-6)))
          CFI ?RET_LOW load(1, XDATA, add(CFA_XSP16, literal(-5)))
          CFI ?RET_HIGH load(1, XDATA, add(CFA_XSP16, literal(-4)))
          CFI ?BRET_EXT load(1, XDATA, add(CFA_XSP16, literal(-3)))
          CFI DPL0 load(1, XDATA, add(CFA_XSP16, literal(-2)))
          CFI DPH0 load(1, XDATA, add(CFA_XSP16, literal(-1)))
          CFI CFA_SP SP+0
          CFI CFA_XSP16 add(XSP16, 22)
          CFI Block cfiCond24 Using cfiCommon0
          CFI (cfiCond24) Function hwLight_RGB_to_RGBW
          CFI (cfiCond24) Conditional ??CrossCallReturnLabel_3
          CFI (cfiCond24) R6 load(1, XDATA, add(CFA_XSP16, literal(-22)))
          CFI (cfiCond24) VB load(1, XDATA, add(CFA_XSP16, literal(-21)))
          CFI (cfiCond24) V0 load(1, XDATA, add(CFA_XSP16, literal(-20)))
          CFI (cfiCond24) V1 load(1, XDATA, add(CFA_XSP16, literal(-19)))
          CFI (cfiCond24) V2 load(1, XDATA, add(CFA_XSP16, literal(-18)))
          CFI (cfiCond24) V3 load(1, XDATA, add(CFA_XSP16, literal(-17)))
          CFI (cfiCond24) V4 load(1, XDATA, add(CFA_XSP16, literal(-16)))
          CFI (cfiCond24) V5 load(1, XDATA, add(CFA_XSP16, literal(-15)))
          CFI (cfiCond24) V6 load(1, XDATA, add(CFA_XSP16, literal(-14)))
          CFI (cfiCond24) V7 load(1, XDATA, add(CFA_XSP16, literal(-13)))
          CFI (cfiCond24) V8 load(1, XDATA, add(CFA_XSP16, literal(-12)))
          CFI (cfiCond24) V9 load(1, XDATA, add(CFA_XSP16, literal(-11)))
          CFI (cfiCond24) V10 load(1, XDATA, add(CFA_XSP16, literal(-10)))
          CFI (cfiCond24) V11 load(1, XDATA, add(CFA_XSP16, literal(-9)))
          CFI (cfiCond24) V12 load(1, XDATA, add(CFA_XSP16, literal(-8)))
          CFI (cfiCond24) V13 load(1, XDATA, add(CFA_XSP16, literal(-7)))
          CFI (cfiCond24) R7 load(1, XDATA, add(CFA_XSP16, literal(-6)))
          CFI (cfiCond24) ?RET_LOW load(1, XDATA, add(CFA_XSP16, literal(-5)))
          CFI (cfiCond24) ?RET_HIGH load(1, XDATA, add(CFA_XSP16, literal(-4)))
          CFI (cfiCond24) ?BRET_EXT load(1, XDATA, add(CFA_XSP16, literal(-3)))
          CFI (cfiCond24) DPL0 load(1, XDATA, add(CFA_XSP16, literal(-2)))
          CFI (cfiCond24) DPH0 load(1, XDATA, add(CFA_XSP16, literal(-1)))
          CFI (cfiCond24) CFA_SP SP+0
          CFI (cfiCond24) CFA_XSP16 add(XSP16, 22)
          CFI Block cfiPicker25 Using cfiCommon1
          CFI (cfiPicker25) NoFunction
          CFI (cfiPicker25) Picker
        CLR     C
        MOVX    A,@DPTR
        SUBB    A,R0
        MOVX    @DPTR,A
        INC     DPTR
        MOVX    A,@DPTR
        SUBB    A,R1
        MOVX    @DPTR,A
        MOV     DPL,R4
        MOV     DPH,R5
        LCALL   ?Subroutine26 & 0xFFFF
??CrossCallReturnLabel_40:
        RET
          CFI EndBlock cfiCond23
          CFI EndBlock cfiCond24
          CFI EndBlock cfiPicker25

        RSEG BANKED_CODE:CODE:NOROOT(0)
?Subroutine26:
          CFI Block cfiCond26 Using cfiCommon0
          CFI Function hwLight_RGB_to_RGBW
          CFI Conditional ??CrossCallReturnLabel_37
          CFI R6 load(1, XDATA, add(CFA_XSP16, literal(-22)))
          CFI VB load(1, XDATA, add(CFA_XSP16, literal(-21)))
          CFI V0 load(1, XDATA, add(CFA_XSP16, literal(-20)))
          CFI V1 load(1, XDATA, add(CFA_XSP16, literal(-19)))
          CFI V2 load(1, XDATA, add(CFA_XSP16, literal(-18)))
          CFI V3 load(1, XDATA, add(CFA_XSP16, literal(-17)))
          CFI V4 load(1, XDATA, add(CFA_XSP16, literal(-16)))
          CFI V5 load(1, XDATA, add(CFA_XSP16, literal(-15)))
          CFI V6 load(1, XDATA, add(CFA_XSP16, literal(-14)))
          CFI V7 load(1, XDATA, add(CFA_XSP16, literal(-13)))
          CFI V8 load(1, XDATA, add(CFA_XSP16, literal(-12)))
          CFI V9 load(1, XDATA, add(CFA_XSP16, literal(-11)))
          CFI V10 load(1, XDATA, add(CFA_XSP16, literal(-10)))
          CFI V11 load(1, XDATA, add(CFA_XSP16, literal(-9)))
          CFI V12 load(1, XDATA, add(CFA_XSP16, literal(-8)))
          CFI V13 load(1, XDATA, add(CFA_XSP16, literal(-7)))
          CFI R7 load(1, XDATA, add(CFA_XSP16, literal(-6)))
          CFI ?RET_LOW load(1, XDATA, add(CFA_XSP16, literal(-5)))
          CFI ?RET_HIGH load(1, XDATA, add(CFA_XSP16, literal(-4)))
          CFI ?BRET_EXT load(1, XDATA, add(CFA_XSP16, literal(-3)))
          CFI DPL0 load(1, XDATA, add(CFA_XSP16, literal(-2)))
          CFI DPH0 load(1, XDATA, add(CFA_XSP16, literal(-1)))
          CFI CFA_SP SP+0
          CFI CFA_XSP16 add(XSP16, 22)
          CFI Block cfiCond27 Using cfiCommon0
          CFI (cfiCond27) Function hwLight_RGB_to_RGBW
          CFI (cfiCond27) Conditional ??CrossCallReturnLabel_41, ??CrossCallReturnLabel_13
          CFI (cfiCond27) R6 load(1, XDATA, add(CFA_XSP16, literal(-22)))
          CFI (cfiCond27) VB load(1, XDATA, add(CFA_XSP16, literal(-21)))
          CFI (cfiCond27) V0 load(1, XDATA, add(CFA_XSP16, literal(-20)))
          CFI (cfiCond27) V1 load(1, XDATA, add(CFA_XSP16, literal(-19)))
          CFI (cfiCond27) V2 load(1, XDATA, add(CFA_XSP16, literal(-18)))
          CFI (cfiCond27) V3 load(1, XDATA, add(CFA_XSP16, literal(-17)))
          CFI (cfiCond27) V4 load(1, XDATA, add(CFA_XSP16, literal(-16)))
          CFI (cfiCond27) V5 load(1, XDATA, add(CFA_XSP16, literal(-15)))
          CFI (cfiCond27) V6 load(1, XDATA, add(CFA_XSP16, literal(-14)))
          CFI (cfiCond27) V7 load(1, XDATA, add(CFA_XSP16, literal(-13)))
          CFI (cfiCond27) V8 load(1, XDATA, add(CFA_XSP16, literal(-12)))
          CFI (cfiCond27) V9 load(1, XDATA, add(CFA_XSP16, literal(-11)))
          CFI (cfiCond27) V10 load(1, XDATA, add(CFA_XSP16, literal(-10)))
          CFI (cfiCond27) V11 load(1, XDATA, add(CFA_XSP16, literal(-9)))
          CFI (cfiCond27) V12 load(1, XDATA, add(CFA_XSP16, literal(-8)))
          CFI (cfiCond27) V13 load(1, XDATA, add(CFA_XSP16, literal(-7)))
          CFI (cfiCond27) R7 load(1, XDATA, add(CFA_XSP16, literal(-6)))
          CFI (cfiCond27) ?RET_LOW load(1, XDATA, add(CFA_XSP16, literal(-5)))
          CFI (cfiCond27) ?RET_HIGH load(1, XDATA, add(CFA_XSP16, literal(-4)))
          CFI (cfiCond27) ?BRET_EXT load(1, XDATA, add(CFA_XSP16, literal(-3)))
          CFI (cfiCond27) DPL0 load(1, XDATA, add(CFA_XSP16, literal(-2)))
          CFI (cfiCond27) DPH0 load(1, XDATA, add(CFA_XSP16, literal(-1)))
          CFI (cfiCond27) CFA_SP SP+0
          CFI (cfiCond27) CFA_XSP16 add(XSP16, 22)
          CFI Block cfiCond28 Using cfiCommon0
          CFI (cfiCond28) Function hwLight_RGB_to_RGBW
          CFI (cfiCond28) Conditional ??CrossCallReturnLabel_41, ??CrossCallReturnLabel_14
          CFI (cfiCond28) R6 load(1, XDATA, add(CFA_XSP16, literal(-22)))
          CFI (cfiCond28) VB load(1, XDATA, add(CFA_XSP16, literal(-21)))
          CFI (cfiCond28) V0 load(1, XDATA, add(CFA_XSP16, literal(-20)))
          CFI (cfiCond28) V1 load(1, XDATA, add(CFA_XSP16, literal(-19)))
          CFI (cfiCond28) V2 load(1, XDATA, add(CFA_XSP16, literal(-18)))
          CFI (cfiCond28) V3 load(1, XDATA, add(CFA_XSP16, literal(-17)))
          CFI (cfiCond28) V4 load(1, XDATA, add(CFA_XSP16, literal(-16)))
          CFI (cfiCond28) V5 load(1, XDATA, add(CFA_XSP16, literal(-15)))
          CFI (cfiCond28) V6 load(1, XDATA, add(CFA_XSP16, literal(-14)))
          CFI (cfiCond28) V7 load(1, XDATA, add(CFA_XSP16, literal(-13)))
          CFI (cfiCond28) V8 load(1, XDATA, add(CFA_XSP16, literal(-12)))
          CFI (cfiCond28) V9 load(1, XDATA, add(CFA_XSP16, literal(-11)))
          CFI (cfiCond28) V10 load(1, XDATA, add(CFA_XSP16, literal(-10)))
          CFI (cfiCond28) V11 load(1, XDATA, add(CFA_XSP16, literal(-9)))
          CFI (cfiCond28) V12 load(1, XDATA, add(CFA_XSP16, literal(-8)))
          CFI (cfiCond28) V13 load(1, XDATA, add(CFA_XSP16, literal(-7)))
          CFI (cfiCond28) R7 load(1, XDATA, add(CFA_XSP16, literal(-6)))
          CFI (cfiCond28) ?RET_LOW load(1, XDATA, add(CFA_XSP16, literal(-5)))
          CFI (cfiCond28) ?RET_HIGH load(1, XDATA, add(CFA_XSP16, literal(-4)))
          CFI (cfiCond28) ?BRET_EXT load(1, XDATA, add(CFA_XSP16, literal(-3)))
          CFI (cfiCond28) DPL0 load(1, XDATA, add(CFA_XSP16, literal(-2)))
          CFI (cfiCond28) DPH0 load(1, XDATA, add(CFA_XSP16, literal(-1)))
          CFI (cfiCond28) CFA_SP SP+0
          CFI (cfiCond28) CFA_XSP16 add(XSP16, 22)
          CFI Block cfiCond29 Using cfiCommon0
          CFI (cfiCond29) Function hwLight_RGB_to_RGBW
          CFI (cfiCond29) Conditional ??CrossCallReturnLabel_40, ??CrossCallReturnLabel_2
          CFI (cfiCond29) R6 load(1, XDATA, add(CFA_XSP16, literal(-22)))
          CFI (cfiCond29) VB load(1, XDATA, add(CFA_XSP16, literal(-21)))
          CFI (cfiCond29) V0 load(1, XDATA, add(CFA_XSP16, literal(-20)))
          CFI (cfiCond29) V1 load(1, XDATA, add(CFA_XSP16, literal(-19)))
          CFI (cfiCond29) V2 load(1, XDATA, add(CFA_XSP16, literal(-18)))
          CFI (cfiCond29) V3 load(1, XDATA, add(CFA_XSP16, literal(-17)))
          CFI (cfiCond29) V4 load(1, XDATA, add(CFA_XSP16, literal(-16)))
          CFI (cfiCond29) V5 load(1, XDATA, add(CFA_XSP16, literal(-15)))
          CFI (cfiCond29) V6 load(1, XDATA, add(CFA_XSP16, literal(-14)))
          CFI (cfiCond29) V7 load(1, XDATA, add(CFA_XSP16, literal(-13)))
          CFI (cfiCond29) V8 load(1, XDATA, add(CFA_XSP16, literal(-12)))
          CFI (cfiCond29) V9 load(1, XDATA, add(CFA_XSP16, literal(-11)))
          CFI (cfiCond29) V10 load(1, XDATA, add(CFA_XSP16, literal(-10)))
          CFI (cfiCond29) V11 load(1, XDATA, add(CFA_XSP16, literal(-9)))
          CFI (cfiCond29) V12 load(1, XDATA, add(CFA_XSP16, literal(-8)))
          CFI (cfiCond29) V13 load(1, XDATA, add(CFA_XSP16, literal(-7)))
          CFI (cfiCond29) R7 load(1, XDATA, add(CFA_XSP16, literal(-6)))
          CFI (cfiCond29) ?RET_LOW load(1, XDATA, add(CFA_XSP16, literal(-5)))
          CFI (cfiCond29) ?RET_HIGH load(1, XDATA, add(CFA_XSP16, literal(-4)))
          CFI (cfiCond29) ?BRET_EXT load(1, XDATA, add(CFA_XSP16, literal(-3)))
          CFI (cfiCond29) DPL0 load(1, XDATA, add(CFA_XSP16, literal(-2)))
          CFI (cfiCond29) DPH0 load(1, XDATA, add(CFA_XSP16, literal(-1)))
          CFI (cfiCond29) CFA_SP SP+0
          CFI (cfiCond29) CFA_XSP16 add(XSP16, 22)
          CFI Block cfiCond30 Using cfiCommon0
          CFI (cfiCond30) Function hwLight_RGB_to_RGBW
          CFI (cfiCond30) Conditional ??CrossCallReturnLabel_40, ??CrossCallReturnLabel_3
          CFI (cfiCond30) R6 load(1, XDATA, add(CFA_XSP16, literal(-22)))
          CFI (cfiCond30) VB load(1, XDATA, add(CFA_XSP16, literal(-21)))
          CFI (cfiCond30) V0 load(1, XDATA, add(CFA_XSP16, literal(-20)))
          CFI (cfiCond30) V1 load(1, XDATA, add(CFA_XSP16, literal(-19)))
          CFI (cfiCond30) V2 load(1, XDATA, add(CFA_XSP16, literal(-18)))
          CFI (cfiCond30) V3 load(1, XDATA, add(CFA_XSP16, literal(-17)))
          CFI (cfiCond30) V4 load(1, XDATA, add(CFA_XSP16, literal(-16)))
          CFI (cfiCond30) V5 load(1, XDATA, add(CFA_XSP16, literal(-15)))
          CFI (cfiCond30) V6 load(1, XDATA, add(CFA_XSP16, literal(-14)))
          CFI (cfiCond30) V7 load(1, XDATA, add(CFA_XSP16, literal(-13)))
          CFI (cfiCond30) V8 load(1, XDATA, add(CFA_XSP16, literal(-12)))
          CFI (cfiCond30) V9 load(1, XDATA, add(CFA_XSP16, literal(-11)))
          CFI (cfiCond30) V10 load(1, XDATA, add(CFA_XSP16, literal(-10)))
          CFI (cfiCond30) V11 load(1, XDATA, add(CFA_XSP16, literal(-9)))
          CFI (cfiCond30) V12 load(1, XDATA, add(CFA_XSP16, literal(-8)))
          CFI (cfiCond30) V13 load(1, XDATA, add(CFA_XSP16, literal(-7)))
          CFI (cfiCond30) R7 load(1, XDATA, add(CFA_XSP16, literal(-6)))
          CFI (cfiCond30) ?RET_LOW load(1, XDATA, add(CFA_XSP16, literal(-5)))
          CFI (cfiCond30) ?RET_HIGH load(1, XDATA, add(CFA_XSP16, literal(-4)))
          CFI (cfiCond30) ?BRET_EXT load(1, XDATA, add(CFA_XSP16, literal(-3)))
          CFI (cfiCond30) DPL0 load(1, XDATA, add(CFA_XSP16, literal(-2)))
          CFI (cfiCond30) DPH0 load(1, XDATA, add(CFA_XSP16, literal(-1)))
          CFI (cfiCond30) CFA_SP SP+0
          CFI (cfiCond30) CFA_XSP16 add(XSP16, 22)
          CFI Block cfiCond31 Using cfiCommon0
          CFI (cfiCond31) Function hwLight_ApplyUpdate
          CFI (cfiCond31) Conditional ??CrossCallReturnLabel_38
          CFI (cfiCond31) R6 load(1, XDATA, add(CFA_XSP16, literal(-24)))
          CFI (cfiCond31) VB load(1, XDATA, add(CFA_XSP16, literal(-23)))
          CFI (cfiCond31) V0 load(1, XDATA, add(CFA_XSP16, literal(-22)))
          CFI (cfiCond31) V1 load(1, XDATA, add(CFA_XSP16, literal(-21)))
          CFI (cfiCond31) V2 load(1, XDATA, add(CFA_XSP16, literal(-20)))
          CFI (cfiCond31) V3 load(1, XDATA, add(CFA_XSP16, literal(-19)))
          CFI (cfiCond31) V4 load(1, XDATA, add(CFA_XSP16, literal(-18)))
          CFI (cfiCond31) V5 load(1, XDATA, add(CFA_XSP16, literal(-17)))
          CFI (cfiCond31) V6 load(1, XDATA, add(CFA_XSP16, literal(-16)))
          CFI (cfiCond31) V7 load(1, XDATA, add(CFA_XSP16, literal(-15)))
          CFI (cfiCond31) V8 load(1, XDATA, add(CFA_XSP16, literal(-14)))
          CFI (cfiCond31) V9 load(1, XDATA, add(CFA_XSP16, literal(-13)))
          CFI (cfiCond31) V10 load(1, XDATA, add(CFA_XSP16, literal(-12)))
          CFI (cfiCond31) V11 load(1, XDATA, add(CFA_XSP16, literal(-11)))
          CFI (cfiCond31) V12 load(1, XDATA, add(CFA_XSP16, literal(-10)))
          CFI (cfiCond31) V13 load(1, XDATA, add(CFA_XSP16, literal(-9)))
          CFI (cfiCond31) V14 load(1, XDATA, add(CFA_XSP16, literal(-8)))
          CFI (cfiCond31) V15 load(1, XDATA, add(CFA_XSP16, literal(-7)))
          CFI (cfiCond31) R7 load(1, XDATA, add(CFA_XSP16, literal(-6)))
          CFI (cfiCond31) ?RET_LOW load(1, XDATA, add(CFA_XSP16, literal(-5)))
          CFI (cfiCond31) ?RET_HIGH load(1, XDATA, add(CFA_XSP16, literal(-4)))
          CFI (cfiCond31) ?BRET_EXT load(1, XDATA, add(CFA_XSP16, literal(-3)))
          CFI (cfiCond31) DPL0 load(1, XDATA, add(CFA_XSP16, literal(-2)))
          CFI (cfiCond31) DPH0 load(1, XDATA, add(CFA_XSP16, literal(-1)))
          CFI (cfiCond31) CFA_SP SP+0
          CFI (cfiCond31) CFA_XSP16 add(XSP16, 29)
          CFI Block cfiCond32 Using cfiCommon0
          CFI (cfiCond32) Function hwLight_ApplyUpdate16b
          CFI (cfiCond32) Conditional ??CrossCallReturnLabel_39, ??CrossCallReturnLabel_0
          CFI (cfiCond32) R6 load(1, XDATA, add(CFA_XSP16, literal(-24)))
          CFI (cfiCond32) VB load(1, XDATA, add(CFA_XSP16, literal(-23)))
          CFI (cfiCond32) V0 load(1, XDATA, add(CFA_XSP16, literal(-22)))
          CFI (cfiCond32) V1 load(1, XDATA, add(CFA_XSP16, literal(-21)))
          CFI (cfiCond32) V2 load(1, XDATA, add(CFA_XSP16, literal(-20)))
          CFI (cfiCond32) V3 load(1, XDATA, add(CFA_XSP16, literal(-19)))
          CFI (cfiCond32) V4 load(1, XDATA, add(CFA_XSP16, literal(-18)))
          CFI (cfiCond32) V5 load(1, XDATA, add(CFA_XSP16, literal(-17)))
          CFI (cfiCond32) V6 load(1, XDATA, add(CFA_XSP16, literal(-16)))
          CFI (cfiCond32) V7 load(1, XDATA, add(CFA_XSP16, literal(-15)))
          CFI (cfiCond32) V8 load(1, XDATA, add(CFA_XSP16, literal(-14)))
          CFI (cfiCond32) V9 load(1, XDATA, add(CFA_XSP16, literal(-13)))
          CFI (cfiCond32) V10 load(1, XDATA, add(CFA_XSP16, literal(-12)))
          CFI (cfiCond32) V11 load(1, XDATA, add(CFA_XSP16, literal(-11)))
          CFI (cfiCond32) V12 load(1, XDATA, add(CFA_XSP16, literal(-10)))
          CFI (cfiCond32) V13 load(1, XDATA, add(CFA_XSP16, literal(-9)))
          CFI (cfiCond32) V14 load(1, XDATA, add(CFA_XSP16, literal(-8)))
          CFI (cfiCond32) V15 load(1, XDATA, add(CFA_XSP16, literal(-7)))
          CFI (cfiCond32) R7 load(1, XDATA, add(CFA_XSP16, literal(-6)))
          CFI (cfiCond32) ?RET_LOW load(1, XDATA, add(CFA_XSP16, literal(-5)))
          CFI (cfiCond32) ?RET_HIGH load(1, XDATA, add(CFA_XSP16, literal(-4)))
          CFI (cfiCond32) ?BRET_EXT load(1, XDATA, add(CFA_XSP16, literal(-3)))
          CFI (cfiCond32) DPL0 load(1, XDATA, add(CFA_XSP16, literal(-2)))
          CFI (cfiCond32) DPH0 load(1, XDATA, add(CFA_XSP16, literal(-1)))
          CFI (cfiCond32) CFA_SP SP+0
          CFI (cfiCond32) CFA_XSP16 add(XSP16, 33)
          CFI Block cfiCond33 Using cfiCommon0
          CFI (cfiCond33) Function hwLight_ApplyUpdate
          CFI (cfiCond33) Conditional ??CrossCallReturnLabel_39, ??CrossCallReturnLabel_1
          CFI (cfiCond33) R6 load(1, XDATA, add(CFA_XSP16, literal(-24)))
          CFI (cfiCond33) VB load(1, XDATA, add(CFA_XSP16, literal(-23)))
          CFI (cfiCond33) V0 load(1, XDATA, add(CFA_XSP16, literal(-22)))
          CFI (cfiCond33) V1 load(1, XDATA, add(CFA_XSP16, literal(-21)))
          CFI (cfiCond33) V2 load(1, XDATA, add(CFA_XSP16, literal(-20)))
          CFI (cfiCond33) V3 load(1, XDATA, add(CFA_XSP16, literal(-19)))
          CFI (cfiCond33) V4 load(1, XDATA, add(CFA_XSP16, literal(-18)))
          CFI (cfiCond33) V5 load(1, XDATA, add(CFA_XSP16, literal(-17)))
          CFI (cfiCond33) V6 load(1, XDATA, add(CFA_XSP16, literal(-16)))
          CFI (cfiCond33) V7 load(1, XDATA, add(CFA_XSP16, literal(-15)))
          CFI (cfiCond33) V8 load(1, XDATA, add(CFA_XSP16, literal(-14)))
          CFI (cfiCond33) V9 load(1, XDATA, add(CFA_XSP16, literal(-13)))
          CFI (cfiCond33) V10 load(1, XDATA, add(CFA_XSP16, literal(-12)))
          CFI (cfiCond33) V11 load(1, XDATA, add(CFA_XSP16, literal(-11)))
          CFI (cfiCond33) V12 load(1, XDATA, add(CFA_XSP16, literal(-10)))
          CFI (cfiCond33) V13 load(1, XDATA, add(CFA_XSP16, literal(-9)))
          CFI (cfiCond33) V14 load(1, XDATA, add(CFA_XSP16, literal(-8)))
          CFI (cfiCond33) V15 load(1, XDATA, add(CFA_XSP16, literal(-7)))
          CFI (cfiCond33) R7 load(1, XDATA, add(CFA_XSP16, literal(-6)))
          CFI (cfiCond33) ?RET_LOW load(1, XDATA, add(CFA_XSP16, literal(-5)))
          CFI (cfiCond33) ?RET_HIGH load(1, XDATA, add(CFA_XSP16, literal(-4)))
          CFI (cfiCond33) ?BRET_EXT load(1, XDATA, add(CFA_XSP16, literal(-3)))
          CFI (cfiCond33) DPL0 load(1, XDATA, add(CFA_XSP16, literal(-2)))
          CFI (cfiCond33) DPH0 load(1, XDATA, add(CFA_XSP16, literal(-1)))
          CFI (cfiCond33) CFA_SP SP+0
          CFI (cfiCond33) CFA_XSP16 add(XSP16, 29)
          CFI Block cfiPicker34 Using cfiCommon1
          CFI (cfiPicker34) NoFunction
          CFI (cfiPicker34) Picker
        MOVX    A,@DPTR
        MOV     R0,A
        INC     DPTR
        MOVX    A,@DPTR
        MOV     R1,A
        RET
          CFI EndBlock cfiCond26
          CFI EndBlock cfiCond27
          CFI EndBlock cfiCond28
          CFI EndBlock cfiCond29
          CFI EndBlock cfiCond30
          CFI EndBlock cfiCond31
          CFI EndBlock cfiCond32
          CFI EndBlock cfiCond33
          CFI EndBlock cfiPicker34
//  261 
//  262 /*********************************************************************
//  263 * @fn      hwLight_GammaCorrectRGB()
//  264 *
//  265 * @brief   Gamma correct the RGB values for specific LEDS
//  266 *
//  267 *          R - pointer to red value from 0 to 1
//  268 *          G - pointer to green value from 0 to 1
//  269 *          B - pointer to blue value from 0 to 1
//  270 *
//  271 * @return  none
//  272 */
//  273 void hwLight_GammaCorrectRGB(float *R, float *G, float *B)
//  274 {
//  275   if ( *R > 0.003 ) *R = (1.22 * ( pow(*R, ( 1/1.5 ) )) - 0.040);
//  276   else                      *R = 0; //1.8023 * var_R;
//  277   if ( *G > 0.003) *G = (1.22 * ( pow(*G, ( 1/1.5 ) )) - 0.040);
//  278   else                     *G = 0; //1.8023 * var_G;
//  279   if ( *B > 0.003 ) *B = (1.09 * ( pow(*B, ( 1/1.5 ) )) - 0.050);
//  280   else                     *B = 0; //1.8023 * var_B;
//  281 }
//  282 
//  283 /*********************************************************************
//  284 * @fn      hwLight_TempCompensateRGB()
//  285 *
//  286 * @brief   correct the RGB values for current temp
//  287 *
//  288 *          R - pointer to red value from 0 to 1
//  289 *          G - pointer to green value from 0 to 1
//  290 *          B - pointer to blue value from 0 to 1
//  291 *
//  292 * @return  none
//  293 */
//  294 void hwLight_TempCompensateRGB(float *R, float *G, float *B)
//  295 {
//  296   // Fill in your code here...
//  297 }
//  298 
//  299 /*********************************************************************
//  300 * @fn      hwLight_GroupWaveLenCompensateRGB()
//  301 *
//  302 * @brief   correct the specific Group WaveLength (stored in NV)
//  303 *
//  304 *          R - pointer to red value from 0 to 1
//  305 *          G - pointer to green value from 0 to 1
//  306 *          B - pointer to blue value from 0 to 1
//  307 *
//  308 * @return  none
//  309 */
//  310 void hwLight_GroupWaveLenCompensateRGB(float *R, float *G, float *B)
//  311 {
//  312   // Fill in your code here...
//  313 }
//  314 
//  315 /*********************************************************************
//  316 * @fn      hwLight_GroupLuminCompensateRGB()
//  317 *
//  318 * @brief   correct the specific Group Lumin (stored in NV)
//  319 *
//  320 *          R - pointer to red value from 0 to 1
//  321 *          G - pointer to green value from 0 to 1
//  322 *          B - pointer to blue value from 0 to 1
//  323 *
//  324 * @return  none
//  325 */
//  326 void hwLight_GroupLuminCompensateRGB(float *R, float *G, float *B)
//  327 {
//  328   // Fill in your code here...
//  329 }
//  330 
//  331 
//  332 /*********************************************************************
//  333 * @fn      hwLight_UpdateLampColorHueSat()
//  334 *
//  335 * @brief   Update color and level of lamp
//  336 *
//  337 * @param   hue, sat, level 0...0xFF
//  338 *
//  339 * @return  none
//  340 */

        RSEG BANKED_CODE:CODE:NOROOT(0)
//  341 void hwLight_UpdateLampColorHueSat( uint8 hue, uint8 sat, uint8 level )
hwLight_UpdateLampColorHueSat:
          CFI Block cfiBlock35 Using cfiCommon0
          CFI Function hwLight_UpdateLampColorHueSat
        CODE
//  342 {
        FUNCALL hwLight_UpdateLampColorHueSat, hwLight_satToXy
        LOCFRAME ISTACK, 0, STACK
        LOCFRAME PSTACK, 0, STACK
        LOCFRAME XSTACK, 13, STACK
        LOCFRAME IOVERLAY, 0, STATIC
        LOCFRAME DOVERLAY, 0, STATIC
        ARGFRAME ISTACK, 0, STACK
        ARGFRAME PSTACK, 0, STACK
        ARGFRAME XSTACK, 13, STACK
        ARGFRAME IOVERLAY, 0, STATIC
        ARGFRAME DOVERLAY, 0, STATIC
        FUNCALL hwLight_UpdateLampColorHueSat, hwLight_UpdateLampColor
        LOCFRAME ISTACK, 0, STACK
        LOCFRAME PSTACK, 0, STACK
        LOCFRAME XSTACK, 13, STACK
        LOCFRAME IOVERLAY, 0, STATIC
        LOCFRAME DOVERLAY, 0, STATIC
        ARGFRAME ISTACK, 0, STACK
        ARGFRAME PSTACK, 0, STACK
        ARGFRAME XSTACK, 13, STACK
        ARGFRAME IOVERLAY, 0, STATIC
        ARGFRAME DOVERLAY, 0, STATIC
        MOV     A,#-0x9
        LCALL   ?BANKED_ENTER_XDATA
          CFI DPH0 load(1, XDATA, add(CFA_XSP16, literal(-1)))
          CFI DPL0 load(1, XDATA, add(CFA_XSP16, literal(-2)))
          CFI ?BRET_EXT load(1, XDATA, add(CFA_XSP16, literal(-3)))
          CFI ?RET_HIGH load(1, XDATA, add(CFA_XSP16, literal(-4)))
          CFI ?RET_LOW load(1, XDATA, add(CFA_XSP16, literal(-5)))
          CFI R7 load(1, XDATA, add(CFA_XSP16, literal(-6)))
          CFI V0 load(1, XDATA, add(CFA_XSP16, literal(-7)))
          CFI VB load(1, XDATA, add(CFA_XSP16, literal(-8)))
          CFI R6 load(1, XDATA, add(CFA_XSP16, literal(-9)))
          CFI CFA_SP SP+0
          CFI CFA_XSP16 add(XSP16, 9)
        ; Saved register size: 9
        ; Auto size: 4
        MOV     A,#-0x4
        LCALL   ?ALLOC_XSTACK8
          CFI CFA_XSP16 add(XSP16, 13)
        MOV     A,R2
        MOV     R6,A
        MOV     A,R3
        MOV     R7,A
//  343   uint16 colorX, colorY;
//  344 
//  345   colorX = hueToX[hue];
        MOV     A,R1
        LCALL   ?Subroutine22 & 0xFFFF
??CrossCallReturnLabel_28:
        MOV     A,#0x2
        LCALL   ?XSTACK_DISP0_8
        LCALL   ?Subroutine17 & 0xFFFF
//  346   colorY = hueToY[hue];
??CrossCallReturnLabel_22:
        MOV     DPL,?XSP + 0
        MOV     DPH,?XSP + 1
        MOV     A,R0
        LCALL   ??Subroutine37_0 & 0xFFFF
//  347 
//  348   hwLight_satToXy(&colorX, &colorY, sat);
??CrossCallReturnLabel_69:
        ; Setup parameters for call to function hwLight_satToXy
        MOV     A,R6
        MOV     R1,A
        MOV     DPL,?XSP + 0
        MOV     DPH,?XSP + 1
        MOV     R4,DPL
        MOV     R5,DPH
        MOV     A,#0x2
        LCALL   ?XSTACK_DISP0_8
        MOV     R2,DPL
        MOV     R3,DPH
        LCALL   ??hwLight_satToXy?relay
//  349 
//  350   //color table is 0-PWM_FULL_DUTY_CYCLE
//  351   hwLight_UpdateLampColor( colorX*(0xFFFF/COLOR_XY_MAX), colorY*(0xFFFF/COLOR_XY_MAX), level);
        ; Setup parameters for call to function hwLight_UpdateLampColor
        MOV     A,R7
        MOV     R1,A
        MOV     DPL,?XSP + 0
        MOV     DPH,?XSP + 1
        LCALL   ?Subroutine29 & 0xFFFF
??CrossCallReturnLabel_45:
        MOV     A,#0x2
        LCALL   ?XSTACK_DISP0_8
        LCALL   ??Subroutine34_0 & 0xFFFF
??CrossCallReturnLabel_61:
        LCALL   ??hwLight_UpdateLampColor?relay
//  352 }
        MOV     A,#0x4
        LCALL   ?DEALLOC_XSTACK8
          CFI EndBlock cfiBlock35
        REQUIRE ?Subroutine1
        ; // Fall through to label ?Subroutine1

        RSEG BANKED_CODE:CODE:NOROOT(0)
?Subroutine1:
          CFI Block cfiBlock36 Using cfiCommon0
          CFI NoFunction
          CFI CFA_SP SP+0
          CFI CFA_XSP16 add(XSP16, 9)
          CFI VB load(1, XDATA, add(CFA_XSP16, literal(-8)))
          CFI DPL0 load(1, XDATA, add(CFA_XSP16, literal(-2)))
          CFI DPH0 load(1, XDATA, add(CFA_XSP16, literal(-1)))
          CFI R6 load(1, XDATA, add(CFA_XSP16, literal(-9)))
          CFI R7 load(1, XDATA, add(CFA_XSP16, literal(-6)))
          CFI V0 load(1, XDATA, add(CFA_XSP16, literal(-7)))
          CFI ?BRET_EXT load(1, XDATA, add(CFA_XSP16, literal(-3)))
          CFI ?RET_HIGH load(1, XDATA, add(CFA_XSP16, literal(-4)))
          CFI ?RET_LOW load(1, XDATA, add(CFA_XSP16, literal(-5)))
        MOV     R7,#0x1
        LJMP    ?BANKED_LEAVE_XDATA
          CFI EndBlock cfiBlock36
//  353 #endif //ZLL_HW_LED_LAMP
//  354 
//  355 /*********************************************************************
//  356 * @fn      hwLight_satToXy
//  357 *
//  358 * @brief   Adjust x,y values from xyY gamut perimeter (fully saturated),
//  359 *          towards pre-defined white-point, according to saturation.
//  360 *
//  361 * @param   x - pointer to x value of fully saturated hue, to be overwritten
//  362 * @param   x - pointer to y value of fully saturated hue, to be overwritten
//  363 * @param   sat - saturation input
//  364 *
//  365 * @return  none
//  366 */

        RSEG BANKED_CODE:CODE:NOROOT(0)
//  367 static void hwLight_satToXy(uint16 *x, uint16 *y, uint8 sat)
hwLight_satToXy:
          CFI Block cfiBlock37 Using cfiCommon0
          CFI Function hwLight_satToXy
        CODE
//  368 {
        MOV     A,#-0x18
        LCALL   ?BANKED_ENTER_XDATA
          CFI DPH0 load(1, XDATA, add(CFA_XSP16, literal(-1)))
          CFI DPL0 load(1, XDATA, add(CFA_XSP16, literal(-2)))
          CFI ?BRET_EXT load(1, XDATA, add(CFA_XSP16, literal(-3)))
          CFI ?RET_HIGH load(1, XDATA, add(CFA_XSP16, literal(-4)))
          CFI ?RET_LOW load(1, XDATA, add(CFA_XSP16, literal(-5)))
          CFI R7 load(1, XDATA, add(CFA_XSP16, literal(-6)))
          CFI V15 load(1, XDATA, add(CFA_XSP16, literal(-7)))
          CFI V14 load(1, XDATA, add(CFA_XSP16, literal(-8)))
          CFI V13 load(1, XDATA, add(CFA_XSP16, literal(-9)))
          CFI V12 load(1, XDATA, add(CFA_XSP16, literal(-10)))
          CFI V11 load(1, XDATA, add(CFA_XSP16, literal(-11)))
          CFI V10 load(1, XDATA, add(CFA_XSP16, literal(-12)))
          CFI V9 load(1, XDATA, add(CFA_XSP16, literal(-13)))
          CFI V8 load(1, XDATA, add(CFA_XSP16, literal(-14)))
          CFI V7 load(1, XDATA, add(CFA_XSP16, literal(-15)))
          CFI V6 load(1, XDATA, add(CFA_XSP16, literal(-16)))
          CFI V5 load(1, XDATA, add(CFA_XSP16, literal(-17)))
          CFI V4 load(1, XDATA, add(CFA_XSP16, literal(-18)))
          CFI V3 load(1, XDATA, add(CFA_XSP16, literal(-19)))
          CFI V2 load(1, XDATA, add(CFA_XSP16, literal(-20)))
          CFI V1 load(1, XDATA, add(CFA_XSP16, literal(-21)))
          CFI V0 load(1, XDATA, add(CFA_XSP16, literal(-22)))
          CFI VB load(1, XDATA, add(CFA_XSP16, literal(-23)))
          CFI R6 load(1, XDATA, add(CFA_XSP16, literal(-24)))
          CFI CFA_SP SP+0
          CFI CFA_XSP16 add(XSP16, 24)
        ; Saved register size: 24
        ; Auto size: 4
        MOV     A,#-0x4
        LCALL   ?ALLOC_XSTACK8
          CFI CFA_XSP16 add(XSP16, 28)
        MOV     A,R1
        MOV     R6,A
//  369   float xDelta, yDelta;
//  370   uint16 localSat;
//  371 
//  372   localSat = 255 - sat;
        MOV     ?V0 + 0,R6
        MOV     A,#-0x1
        CLR     C
        SUBB    A,?V0 + 0
        MOV     ?V0 + 4,A
        SUBB    A,0xE0 /* A   */
        MOV     ?V0 + 5,A
//  373 
//  374   xDelta = (int32)*x - WHITE_POINT_X;
//  375   yDelta = (int32)*y - WHITE_POINT_Y;
        MOV     DPL,R4
        MOV     DPH,R5
        MOVX    A,@DPTR
        MOV     ?V0 + 0,A
        INC     DPTR
        MOVX    A,@DPTR
        MOV     ?V0 + 1,A
        CLR     A
        MOV     ?V0 + 2,A
        MOV     ?V0 + 3,A
        MOV     DPTR,#__Constant_ffffaaab
        MOV     R0,#?V0 + 0
        LCALL   ?L_ADD_X
        MOV     R0,#?V0 + 0
        LCALL   ?L_TO_FLT
        MOV     DPL,?XSP + 0
        MOV     DPH,?XSP + 1
        MOV     R0,#?V0 + 0
        LCALL   ?L_MOV_TO_X
//  376 
//  377   xDelta = xDelta * (float)localSat/0xFF;
//  378   yDelta = yDelta * (float)localSat/0xFF;
//  379 
//  380   *x = (uint16) (*x - xDelta);
        MOV     ?V0 + 0,?V0 + 4
        MOV     ?V0 + 1,?V0 + 5
        CLR     A
        MOV     ?V0 + 2,A
        MOV     ?V0 + 3,A
        MOV     R0,#?V0 + 0
        LCALL   ?UL_TO_FLT
        MOV     DPL,R2
        MOV     DPH,R3
        MOVX    A,@DPTR
        MOV     ?V0 + 12,A
        INC     DPTR
        MOVX    A,@DPTR
        MOV     ?V0 + 13,A
        MOV     ?V0 + 4,?V0 + 12
        MOV     ?V0 + 5,A
        CLR     A
        MOV     ?V0 + 6,A
        MOV     ?V0 + 7,A
        MOV     R0,#?V0 + 4
        LCALL   ?UL_TO_FLT
        CLR     A
        MOV     ?V0 + 14,A
        MOV     ?V0 + 15,A
        MOV     DPTR,#__Constant_ffffb000
        MOV     R0,#?V0 + 12
        LCALL   ?L_ADD_X
        MOV     R0,#?V0 + 12
        LCALL   ?L_TO_FLT
        MOV     R0,#?V0 + 12
        MOV     R1,#?V0 + 0
        LCALL   ?FLT_MUL
        MOV     DPTR,#__Constant_437f0000
        MOV     R0,#?V0 + 8
        LCALL   ?L_MOV_X
        MOV     R0,#?V0 + 12
        MOV     R1,#?V0 + 8
        LCALL   ?FLT_DIV
        MOV     R0,#?V0 + 4
        MOV     R1,#?V0 + 12
        LCALL   ?FLT_SUB
        MOV     R0,#?V0 + 4
        LCALL   ?FLT_TO_L
        MOV     DPL,R2
        MOV     DPH,R3
        LCALL   ?Subroutine20 & 0xFFFF
//  381   *y = (uint16) (*y - yDelta);
??CrossCallReturnLabel_27:
        LCALL   ?Subroutine15 & 0xFFFF
??CrossCallReturnLabel_18:
        LCALL   ?UL_TO_FLT
        MOV     DPL,?XSP + 0
        MOV     DPH,?XSP + 1
        MOV     R0,#?V0 + 8
        LCALL   ?L_MOV_X
        MOV     R0,#?V0 + 0
        MOV     R1,#?V0 + 8
        LCALL   ?FLT_MUL
        MOV     DPTR,#__Constant_437f0000
        MOV     R0,#?V0 + 8
        LCALL   ?L_MOV_X
        MOV     R0,#?V0 + 0
        MOV     R1,#?V0 + 8
        LCALL   ?FLT_DIV
        MOV     R0,#?V0 + 4
        MOV     R1,#?V0 + 0
        LCALL   ?FLT_SUB
        MOV     R0,#?V0 + 4
        LCALL   ?FLT_TO_L
        MOV     DPL,R4
        MOV     DPH,R5
        MOV     A,?V0 + 4
        MOVX    @DPTR,A
        INC     DPTR
        MOV     A,?V0 + 5
        MOVX    @DPTR,A
//  382 
//  383   return;
        MOV     A,#0x4
        LJMP    ?Subroutine0 & 0xFFFF
          CFI EndBlock cfiBlock37
//  384 }

        RSEG BANKED_CODE:CODE:NOROOT(0)
?Subroutine20:
          CFI Block cfiCond38 Using cfiCommon0
          CFI Function hwLight_RGB_to_RGBW
          CFI Conditional ??CrossCallReturnLabel_26
          CFI R6 load(1, XDATA, add(CFA_XSP16, literal(-22)))
          CFI VB load(1, XDATA, add(CFA_XSP16, literal(-21)))
          CFI V0 load(1, XDATA, add(CFA_XSP16, literal(-20)))
          CFI V1 load(1, XDATA, add(CFA_XSP16, literal(-19)))
          CFI V2 load(1, XDATA, add(CFA_XSP16, literal(-18)))
          CFI V3 load(1, XDATA, add(CFA_XSP16, literal(-17)))
          CFI V4 load(1, XDATA, add(CFA_XSP16, literal(-16)))
          CFI V5 load(1, XDATA, add(CFA_XSP16, literal(-15)))
          CFI V6 load(1, XDATA, add(CFA_XSP16, literal(-14)))
          CFI V7 load(1, XDATA, add(CFA_XSP16, literal(-13)))
          CFI V8 load(1, XDATA, add(CFA_XSP16, literal(-12)))
          CFI V9 load(1, XDATA, add(CFA_XSP16, literal(-11)))
          CFI V10 load(1, XDATA, add(CFA_XSP16, literal(-10)))
          CFI V11 load(1, XDATA, add(CFA_XSP16, literal(-9)))
          CFI V12 load(1, XDATA, add(CFA_XSP16, literal(-8)))
          CFI V13 load(1, XDATA, add(CFA_XSP16, literal(-7)))
          CFI R7 load(1, XDATA, add(CFA_XSP16, literal(-6)))
          CFI ?RET_LOW load(1, XDATA, add(CFA_XSP16, literal(-5)))
          CFI ?RET_HIGH load(1, XDATA, add(CFA_XSP16, literal(-4)))
          CFI ?BRET_EXT load(1, XDATA, add(CFA_XSP16, literal(-3)))
          CFI DPL0 load(1, XDATA, add(CFA_XSP16, literal(-2)))
          CFI DPH0 load(1, XDATA, add(CFA_XSP16, literal(-1)))
          CFI CFA_SP SP+0
          CFI CFA_XSP16 add(XSP16, 22)
          CFI Block cfiCond39 Using cfiCommon0
          CFI (cfiCond39) Function hwLight_satToXy
          CFI (cfiCond39) Conditional ??CrossCallReturnLabel_27
          CFI (cfiCond39) R6 load(1, XDATA, add(CFA_XSP16, literal(-24)))
          CFI (cfiCond39) VB load(1, XDATA, add(CFA_XSP16, literal(-23)))
          CFI (cfiCond39) V0 load(1, XDATA, add(CFA_XSP16, literal(-22)))
          CFI (cfiCond39) V1 load(1, XDATA, add(CFA_XSP16, literal(-21)))
          CFI (cfiCond39) V2 load(1, XDATA, add(CFA_XSP16, literal(-20)))
          CFI (cfiCond39) V3 load(1, XDATA, add(CFA_XSP16, literal(-19)))
          CFI (cfiCond39) V4 load(1, XDATA, add(CFA_XSP16, literal(-18)))
          CFI (cfiCond39) V5 load(1, XDATA, add(CFA_XSP16, literal(-17)))
          CFI (cfiCond39) V6 load(1, XDATA, add(CFA_XSP16, literal(-16)))
          CFI (cfiCond39) V7 load(1, XDATA, add(CFA_XSP16, literal(-15)))
          CFI (cfiCond39) V8 load(1, XDATA, add(CFA_XSP16, literal(-14)))
          CFI (cfiCond39) V9 load(1, XDATA, add(CFA_XSP16, literal(-13)))
          CFI (cfiCond39) V10 load(1, XDATA, add(CFA_XSP16, literal(-12)))
          CFI (cfiCond39) V11 load(1, XDATA, add(CFA_XSP16, literal(-11)))
          CFI (cfiCond39) V12 load(1, XDATA, add(CFA_XSP16, literal(-10)))
          CFI (cfiCond39) V13 load(1, XDATA, add(CFA_XSP16, literal(-9)))
          CFI (cfiCond39) V14 load(1, XDATA, add(CFA_XSP16, literal(-8)))
          CFI (cfiCond39) V15 load(1, XDATA, add(CFA_XSP16, literal(-7)))
          CFI (cfiCond39) R7 load(1, XDATA, add(CFA_XSP16, literal(-6)))
          CFI (cfiCond39) ?RET_LOW load(1, XDATA, add(CFA_XSP16, literal(-5)))
          CFI (cfiCond39) ?RET_HIGH load(1, XDATA, add(CFA_XSP16, literal(-4)))
          CFI (cfiCond39) ?BRET_EXT load(1, XDATA, add(CFA_XSP16, literal(-3)))
          CFI (cfiCond39) DPL0 load(1, XDATA, add(CFA_XSP16, literal(-2)))
          CFI (cfiCond39) DPH0 load(1, XDATA, add(CFA_XSP16, literal(-1)))
          CFI (cfiCond39) CFA_SP SP+0
          CFI (cfiCond39) CFA_XSP16 add(XSP16, 28)
          CFI Block cfiPicker40 Using cfiCommon1
          CFI (cfiPicker40) NoFunction
          CFI (cfiPicker40) Picker
        MOV     A,?V0 + 4
        MOVX    @DPTR,A
        INC     DPTR
        MOV     A,?V0 + 5
        MOVX    @DPTR,A
        MOV     DPL,R4
        MOV     DPH,R5
        MOVX    A,@DPTR
        RET
          CFI EndBlock cfiCond38
          CFI EndBlock cfiCond39
          CFI EndBlock cfiPicker40
//  385 
//  386 /*********************************************************************
//  387 * @fn      hwLight_XyToSat
//  388 *
//  389 * @brief   Set saturation parameter according to x,y coordinates
//  390 *          relative distance from white point.
//  391 *
//  392 * @param   x - x of xyY
//  393 * @param   y - y of xyY
//  394 * @param   hue - current saturated hue matching xy
//  395 *
//  396 * @return  saturation value to be set
//  397 */

        RSEG BANKED_CODE:CODE:NOROOT(0)
//  398 static uint8 hwLight_XyToSat(uint16 x, uint16 y, uint8 hue)
hwLight_XyToSat:
          CFI Block cfiBlock41 Using cfiCommon0
          CFI Function hwLight_XyToSat
        CODE
//  399 {
        MOV     A,#-0x14
        LCALL   ?BANKED_ENTER_XDATA
          CFI DPH0 load(1, XDATA, add(CFA_XSP16, literal(-1)))
          CFI DPL0 load(1, XDATA, add(CFA_XSP16, literal(-2)))
          CFI ?BRET_EXT load(1, XDATA, add(CFA_XSP16, literal(-3)))
          CFI ?RET_HIGH load(1, XDATA, add(CFA_XSP16, literal(-4)))
          CFI ?RET_LOW load(1, XDATA, add(CFA_XSP16, literal(-5)))
          CFI R7 load(1, XDATA, add(CFA_XSP16, literal(-6)))
          CFI V11 load(1, XDATA, add(CFA_XSP16, literal(-7)))
          CFI V10 load(1, XDATA, add(CFA_XSP16, literal(-8)))
          CFI V9 load(1, XDATA, add(CFA_XSP16, literal(-9)))
          CFI V8 load(1, XDATA, add(CFA_XSP16, literal(-10)))
          CFI V7 load(1, XDATA, add(CFA_XSP16, literal(-11)))
          CFI V6 load(1, XDATA, add(CFA_XSP16, literal(-12)))
          CFI V5 load(1, XDATA, add(CFA_XSP16, literal(-13)))
          CFI V4 load(1, XDATA, add(CFA_XSP16, literal(-14)))
          CFI V3 load(1, XDATA, add(CFA_XSP16, literal(-15)))
          CFI V2 load(1, XDATA, add(CFA_XSP16, literal(-16)))
          CFI V1 load(1, XDATA, add(CFA_XSP16, literal(-17)))
          CFI V0 load(1, XDATA, add(CFA_XSP16, literal(-18)))
          CFI VB load(1, XDATA, add(CFA_XSP16, literal(-19)))
          CFI R6 load(1, XDATA, add(CFA_XSP16, literal(-20)))
          CFI CFA_SP SP+0
          CFI CFA_XSP16 add(XSP16, 20)
        ; Saved register size: 20
        ; Auto size: 0
        MOV     A,R1
        MOV     R6,A
//  400   uint32 xyDeltas, hueDeltas;
//  401 
//  402   //we try to avoid polor to cartesan conversion using proportional scaling
//  403   xyDeltas = ((uint32)DISTANCE(x, WHITE_POINT_X) + DISTANCE(y, WHITE_POINT_Y));
        CLR     C
        MOV     A,R2
        SUBB    A,#0x1
        MOV     A,R3
        SUBB    A,#0x50
        JC      ??hwLight_XyToSat_0
        MOV     A,R2
        ADD     A,#0x0
        MOV     A,R3
        ADDC    A,#-0x50
        SJMP    ??hwLight_XyToSat_1
??hwLight_XyToSat_0:
        CLR     A
        CLR     C
        SUBB    A,R2
        MOV     R2,A
        MOV     A,#0x50
        SUBB    A,R3
??hwLight_XyToSat_1:
        MOV     R3,A
        CLR     C
        MOV     A,R4
        SUBB    A,#0x56
        MOV     A,R5
        SUBB    A,#0x55
        JC      ??hwLight_XyToSat_2
        MOV     A,R4
        ADD     A,#-0x55
        MOV     R0,A
        MOV     A,R5
        ADDC    A,#-0x56
        SJMP    ??hwLight_XyToSat_3
??hwLight_XyToSat_2:
        MOV     A,#0x55
        CLR     C
        SUBB    A,R4
        MOV     R0,A
        MOV     A,#0x55
        SUBB    A,R5
??hwLight_XyToSat_3:
        MOV     R1,A
        MOV     ?V0 + 0,R2
        MOV     ?V0 + 1,R3
        CLR     A
        MOV     ?V0 + 2,A
        MOV     ?V0 + 3,A
        MOV     ?V0 + 4,R0
        MOV     ?V0 + 5,R1
        MOV     ?V0 + 6,A
        MOV     ?V0 + 7,A
        MOV     R0,#?V0 + 0
        MOV     R1,#?V0 + 4
        LCALL   ?L_ADD
//  404   hueDeltas = ((uint32)DISTANCE(hueToX[hue], WHITE_POINT_X) + DISTANCE(hueToY[hue], WHITE_POINT_Y));
        MOV     A,R6
        LCALL   ?Subroutine23 & 0xFFFF
??CrossCallReturnLabel_30:
        PUSH    A
        MOV     A,#0x1
        MOVC    A,@A+DPTR
        MOV     DPH,A
        POP     DPL
        MOV     R2,DPL
        MOV     R3,DPH
        CLR     C
        MOV     A,R2
        SUBB    A,#0x1
        MOV     A,R3
        SUBB    A,#0x50
        JC      ??hwLight_XyToSat_4
        MOV     A,R2
        ADD     A,#0x0
        MOV     A,R3
        ADDC    A,#-0x50
        SJMP    ??hwLight_XyToSat_5
??hwLight_XyToSat_4:
        CLR     A
        CLR     C
        SUBB    A,R2
        MOV     R2,A
        MOV     A,#0x50
        SUBB    A,R3
??hwLight_XyToSat_5:
        MOV     R3,A
        LCALL   ?Subroutine24 & 0xFFFF
??CrossCallReturnLabel_32:
        PUSH    A
        MOV     A,#0x1
        MOVC    A,@A+DPTR
        MOV     DPH,A
        POP     DPL
        MOV     R0,DPL
        MOV     R1,DPH
        CLR     C
        MOV     A,R0
        SUBB    A,#0x56
        MOV     A,R1
        SUBB    A,#0x55
        JC      ??hwLight_XyToSat_6
        MOV     A,R0
        ADD     A,#-0x55
        MOV     R0,A
        MOV     A,R1
        ADDC    A,#-0x56
        SJMP    ??hwLight_XyToSat_7
??hwLight_XyToSat_6:
        MOV     A,#0x55
        CLR     C
        SUBB    A,R0
        MOV     R0,A
        MOV     A,#0x55
        SUBB    A,R1
??hwLight_XyToSat_7:
        MOV     R1,A
        MOV     ?V0 + 4,R2
        MOV     ?V0 + 5,R3
        CLR     A
        MOV     ?V0 + 8,R0
        MOV     ?V0 + 9,R1
        MOV     ?V0 + 10,A
        MOV     ?V0 + 11,A
        MOV     R0,#?V0 + 4
        MOV     R1,#?V0 + 8
        LCALL   ?L_ADD
//  405 
//  406   return ( (hueDeltas) ? ((xyDeltas * COLOR_SAT_MAX) / hueDeltas) : COLOR_SAT_MAX );
        MOV     A,?V0 + 4
        ORL     A,?V0 + 5
        ORL     A,?V0 + 6
        ORL     A,?V0 + 7
        JZ      ??hwLight_XyToSat_8
        MOV     DPTR,#__Constant_fe
        MOV     R0,#?V0 + 8
        LCALL   ?L_MOV_X
        MOV     R0,#?V0 + 0
        MOV     R1,#?V0 + 8
        LCALL   ?L_MUL
        MOV     R0,#?V0 + 0
        MOV     R1,#?V0 + 4
        LCALL   ?UL_DIV_MOD
        MOV     R1,?V0 + 0
        SJMP    ??hwLight_XyToSat_9
??hwLight_XyToSat_8:
        MOV     R1,#-0x2
          CFI EndBlock cfiBlock41
??hwLight_XyToSat_9:
        REQUIRE ?Subroutine2
        ; // Fall through to label ?Subroutine2
//  407 }

        RSEG BANKED_CODE:CODE:NOROOT(0)
?Subroutine2:
          CFI Block cfiBlock42 Using cfiCommon0
          CFI NoFunction
          CFI CFA_SP SP+0
          CFI CFA_XSP16 add(XSP16, 20)
          CFI VB load(1, XDATA, add(CFA_XSP16, literal(-19)))
          CFI DPL0 load(1, XDATA, add(CFA_XSP16, literal(-2)))
          CFI DPH0 load(1, XDATA, add(CFA_XSP16, literal(-1)))
          CFI R6 load(1, XDATA, add(CFA_XSP16, literal(-20)))
          CFI R7 load(1, XDATA, add(CFA_XSP16, literal(-6)))
          CFI V0 load(1, XDATA, add(CFA_XSP16, literal(-18)))
          CFI V1 load(1, XDATA, add(CFA_XSP16, literal(-17)))
          CFI V2 load(1, XDATA, add(CFA_XSP16, literal(-16)))
          CFI V3 load(1, XDATA, add(CFA_XSP16, literal(-15)))
          CFI V4 load(1, XDATA, add(CFA_XSP16, literal(-14)))
          CFI V5 load(1, XDATA, add(CFA_XSP16, literal(-13)))
          CFI V6 load(1, XDATA, add(CFA_XSP16, literal(-12)))
          CFI V7 load(1, XDATA, add(CFA_XSP16, literal(-11)))
          CFI V8 load(1, XDATA, add(CFA_XSP16, literal(-10)))
          CFI V9 load(1, XDATA, add(CFA_XSP16, literal(-9)))
          CFI V10 load(1, XDATA, add(CFA_XSP16, literal(-8)))
          CFI V11 load(1, XDATA, add(CFA_XSP16, literal(-7)))
          CFI ?BRET_EXT load(1, XDATA, add(CFA_XSP16, literal(-3)))
          CFI ?RET_HIGH load(1, XDATA, add(CFA_XSP16, literal(-4)))
          CFI ?RET_LOW load(1, XDATA, add(CFA_XSP16, literal(-5)))
        MOV     R7,#0xc
        LJMP    ?BANKED_LEAVE_XDATA
          CFI EndBlock cfiBlock42
//  408 
//  409 /*********************************************************************
//  410  * @fn      hwLight_UpdateColorMode
//  411  *
//  412  * @brief   Calculates the new xy of hue/sat value on color mode change
//  413  *
//  414  * @param   NewColorMode - Color Mode Attribute value
//  415  *
//  416  * @return  none
//  417  */

        RSEG BANKED_CODE:CODE:NOROOT(0)
//  418 void hwLight_UpdateColorMode(uint8 NewColorMode)
hwLight_UpdateColorMode:
          CFI Block cfiBlock43 Using cfiCommon0
          CFI Function hwLight_UpdateColorMode
        CODE
//  419 {
        FUNCALL hwLight_UpdateColorMode, hwLight_satToXy
        LOCFRAME ISTACK, 0, STACK
        LOCFRAME PSTACK, 0, STACK
        LOCFRAME XSTACK, 20, STACK
        LOCFRAME IOVERLAY, 0, STATIC
        LOCFRAME DOVERLAY, 0, STATIC
        ARGFRAME ISTACK, 0, STACK
        ARGFRAME PSTACK, 0, STACK
        ARGFRAME XSTACK, 20, STACK
        ARGFRAME IOVERLAY, 0, STATIC
        ARGFRAME DOVERLAY, 0, STATIC
        FUNCALL hwLight_UpdateColorMode, hwLight_XyToSat
        LOCFRAME ISTACK, 0, STACK
        LOCFRAME PSTACK, 0, STACK
        LOCFRAME XSTACK, 20, STACK
        LOCFRAME IOVERLAY, 0, STATIC
        LOCFRAME DOVERLAY, 0, STATIC
        ARGFRAME ISTACK, 0, STACK
        ARGFRAME PSTACK, 0, STACK
        ARGFRAME XSTACK, 20, STACK
        ARGFRAME IOVERLAY, 0, STATIC
        ARGFRAME DOVERLAY, 0, STATIC
        MOV     A,#-0x14
        LCALL   ?BANKED_ENTER_XDATA
          CFI DPH0 load(1, XDATA, add(CFA_XSP16, literal(-1)))
          CFI DPL0 load(1, XDATA, add(CFA_XSP16, literal(-2)))
          CFI ?BRET_EXT load(1, XDATA, add(CFA_XSP16, literal(-3)))
          CFI ?RET_HIGH load(1, XDATA, add(CFA_XSP16, literal(-4)))
          CFI ?RET_LOW load(1, XDATA, add(CFA_XSP16, literal(-5)))
          CFI R7 load(1, XDATA, add(CFA_XSP16, literal(-6)))
          CFI V11 load(1, XDATA, add(CFA_XSP16, literal(-7)))
          CFI V10 load(1, XDATA, add(CFA_XSP16, literal(-8)))
          CFI V9 load(1, XDATA, add(CFA_XSP16, literal(-9)))
          CFI V8 load(1, XDATA, add(CFA_XSP16, literal(-10)))
          CFI V7 load(1, XDATA, add(CFA_XSP16, literal(-11)))
          CFI V6 load(1, XDATA, add(CFA_XSP16, literal(-12)))
          CFI V5 load(1, XDATA, add(CFA_XSP16, literal(-13)))
          CFI V4 load(1, XDATA, add(CFA_XSP16, literal(-14)))
          CFI V3 load(1, XDATA, add(CFA_XSP16, literal(-15)))
          CFI V2 load(1, XDATA, add(CFA_XSP16, literal(-16)))
          CFI V1 load(1, XDATA, add(CFA_XSP16, literal(-17)))
          CFI V0 load(1, XDATA, add(CFA_XSP16, literal(-18)))
          CFI VB load(1, XDATA, add(CFA_XSP16, literal(-19)))
          CFI R6 load(1, XDATA, add(CFA_XSP16, literal(-20)))
          CFI CFA_SP SP+0
          CFI CFA_XSP16 add(XSP16, 20)
        ; Saved register size: 20
        ; Auto size: 0
        MOV     A,R1
        MOV     R7,A
//  420   uint8 idx, chosenIdx=0;
        MOV     R6,#0x0
//  421   uint32 currDist=0, minDist = 0xFFFFF;
        MOV     ?V0 + 4,#-0x1
        MOV     ?V0 + 5,#-0x1
        MOV     ?V0 + 6,#0xf
        MOV     ?V0 + 7,R6
//  422 
//  423   if( NewColorMode != zclColor_ColorMode )
        MOV     DPTR,#zclColor_ColorMode
        MOVX    A,@DPTR
        XRL     A,R7
        JNZ     $+5
        LJMP    ??hwLight_UpdateColorMode_0 & 0xFFFF
//  424   {
//  425     if( NewColorMode == COLOR_MODE_CURRENT_X_Y )
        MOV     A,#0x1
        XRL     A,R7
        JNZ     ??hwLight_UpdateColorMode_1
//  426     {
//  427       //update the current xy values from hue and sat
//  428       zclColor_CurrentX = hueToX[zclColor_CurrentHue];
        MOV     DPTR,#zclColor_CurrentHue
        MOVX    A,@DPTR
        LCALL   ?Subroutine22 & 0xFFFF
??CrossCallReturnLabel_29:
        MOV     DPTR,#zclColor_CurrentX
        LCALL   ?Subroutine17 & 0xFFFF
//  429       zclColor_CurrentY = hueToY[zclColor_CurrentHue];
??CrossCallReturnLabel_23:
        MOV     DPTR,#zclColor_CurrentY
        MOV     A,R0
        LCALL   ??Subroutine37_0 & 0xFFFF
//  430 
//  431       hwLight_satToXy( &zclColor_CurrentX, &zclColor_CurrentY, zclColor_CurrentSaturation );
??CrossCallReturnLabel_70:
        ; Setup parameters for call to function hwLight_satToXy
        MOV     DPTR,#zclColor_CurrentSaturation
        MOVX    A,@DPTR
        MOV     R1,A
        MOV     R4,#zclColor_CurrentY & 0xff
        MOV     R5,#(zclColor_CurrentY >> 8) & 0xff
        MOV     R2,#zclColor_CurrentX & 0xff
        MOV     R3,#(zclColor_CurrentX >> 8) & 0xff
        LCALL   ??hwLight_satToXy?relay
        LJMP    ??hwLight_UpdateColorMode_0 & 0xFFFF
//  432     }
//  433     else if( NewColorMode == COLOR_MODE_CURRENT_HUE_SATURATION )
??hwLight_UpdateColorMode_1:
        MOV     A,R7
        JZ      $+5
        LJMP    ??hwLight_UpdateColorMode_0 & 0xFFFF
//  434     {
//  435       //update the current hue/sat values from xy
//  436       //Loop thrugh hueToX/Y tables and look for the value closest to the
//  437       //zclColor_CurrentX and zclColor_CurrentY
//  438       for( idx = 0; idx != 0xFF; idx++ )
        MOV     R2,#0x0
//  439       {
//  440         currDist = ( (uint32)DISTANCE(hueToX[idx], zclColor_CurrentX)
//  441                      + DISTANCE(hueToY[idx], zclColor_CurrentY) );
??hwLight_UpdateColorMode_2:
        MOV     A,R2
        LCALL   ?Subroutine23 & 0xFFFF
??CrossCallReturnLabel_31:
        PUSH    A
        MOV     A,#0x1
        MOVC    A,@A+DPTR
        MOV     DPH,A
        POP     DPL
        MOV     ?V0 + 0,DPL
        MOV     ?V0 + 1,DPH
        MOV     DPTR,#zclColor_CurrentX
        CLR     C
        MOVX    A,@DPTR
        SUBB    A,?V0 + 0
        INC     DPTR
        MOVX    A,@DPTR
        SUBB    A,?V0 + 1
        MOV     DPTR,#zclColor_CurrentX
        MOVX    A,@DPTR
        JNC     ??hwLight_UpdateColorMode_3
        MOV     R4,A
        INC     DPTR
        MOVX    A,@DPTR
        MOV     R5,A
        MOV     A,?V0 + 0
        CLR     C
        SUBB    A,R4
        MOV     R4,A
        MOV     A,?V0 + 1
        SUBB    A,R5
        SJMP    ??hwLight_UpdateColorMode_4
??hwLight_UpdateColorMode_3:
        CLR     C
        SUBB    A,?V0 + 0
        MOV     R4,A
        INC     DPTR
        MOVX    A,@DPTR
        SUBB    A,?V0 + 1
??hwLight_UpdateColorMode_4:
        MOV     R5,A
        LCALL   ?Subroutine24 & 0xFFFF
??CrossCallReturnLabel_33:
        PUSH    A
        MOV     A,#0x1
        MOVC    A,@A+DPTR
        MOV     DPH,A
        POP     DPL
        MOV     ?V0 + 0,DPL
        MOV     ?V0 + 1,DPH
        MOV     DPTR,#zclColor_CurrentY
        CLR     C
        MOVX    A,@DPTR
        SUBB    A,?V0 + 0
        INC     DPTR
        MOVX    A,@DPTR
        SUBB    A,?V0 + 1
        MOV     DPTR,#zclColor_CurrentY
        MOVX    A,@DPTR
        JNC     ??hwLight_UpdateColorMode_5
        MOV     R0,A
        INC     DPTR
        MOVX    A,@DPTR
        MOV     R1,A
        MOV     A,?V0 + 0
        CLR     C
        SUBB    A,R0
        MOV     R0,A
        MOV     A,?V0 + 1
        SUBB    A,R1
        SJMP    ??hwLight_UpdateColorMode_6
??hwLight_UpdateColorMode_5:
        CLR     C
        SUBB    A,?V0 + 0
        MOV     R0,A
        INC     DPTR
        MOVX    A,@DPTR
        SUBB    A,?V0 + 1
??hwLight_UpdateColorMode_6:
        MOV     R1,A
        MOV     ?V0 + 0,R4
        MOV     ?V0 + 1,R5
        CLR     A
        MOV     ?V0 + 2,A
        MOV     ?V0 + 3,A
        MOV     ?V0 + 8,R0
        MOV     ?V0 + 9,R1
        MOV     ?V0 + 10,A
        MOV     ?V0 + 11,A
        MOV     R0,#?V0 + 0
        MOV     R1,#?V0 + 8
        LCALL   ?L_ADD
//  442 
//  443         if ( currDist < minDist )
        MOV     R0,#?V0 + 4
        MOV     R1,#?V0 + 0
        LCALL   ?UL_GT
        JNC     ??hwLight_UpdateColorMode_7
//  444         {
//  445           chosenIdx = idx;
        MOV     A,R2
        MOV     R6,A
//  446           minDist = currDist;
        MOV     ?V0 + 4,?V0 + 0
        MOV     ?V0 + 5,?V0 + 1
        MOV     ?V0 + 6,?V0 + 2
        MOV     ?V0 + 7,?V0 + 3
//  447         }
//  448       }
??hwLight_UpdateColorMode_7:
        INC     R2
        MOV     A,#-0x1
        XRL     A,R2
        JZ      $+5
        LJMP    ??hwLight_UpdateColorMode_2 & 0xFFFF
//  449       zclColor_CurrentHue = chosenIdx;
        MOV     A,R6
        MOV     DPTR,#zclColor_CurrentHue
        MOVX    @DPTR,A
//  450 
//  451       zclColor_EnhancedCurrentHue = (uint16)zclColor_CurrentHue << 8;
        LCALL   ?Subroutine21 & 0xFFFF
//  452 
//  453       zclColor_CurrentSaturation = hwLight_XyToSat( zclColor_CurrentX, zclColor_CurrentY, zclColor_CurrentHue );
??CrossCallReturnLabel_73:
        ; Setup parameters for call to function hwLight_XyToSat
        LCALL   ?Subroutine6 & 0xFFFF
//  454     }
//  455     else //do nothing COLOR_MODE_COLOR_TEMPERATURE not supported
//  456     {
//  457     }
//  458   }
??CrossCallReturnLabel_63:
        LCALL   ??hwLight_XyToSat?relay
        MOV     A,R1
        MOV     DPTR,#zclColor_CurrentSaturation
        MOVX    @DPTR,A
//  459 
//  460   return;
??hwLight_UpdateColorMode_0:
        LJMP    ?Subroutine2 & 0xFFFF
          CFI EndBlock cfiBlock43
//  461 }

        RSEG BANKED_CODE:CODE:NOROOT(0)
?Subroutine24:
          CFI Block cfiCond44 Using cfiCommon0
          CFI Function hwLight_XyToSat
          CFI Conditional ??CrossCallReturnLabel_32
          CFI R6 load(1, XDATA, add(CFA_XSP16, literal(-20)))
          CFI VB load(1, XDATA, add(CFA_XSP16, literal(-19)))
          CFI V0 load(1, XDATA, add(CFA_XSP16, literal(-18)))
          CFI V1 load(1, XDATA, add(CFA_XSP16, literal(-17)))
          CFI V2 load(1, XDATA, add(CFA_XSP16, literal(-16)))
          CFI V3 load(1, XDATA, add(CFA_XSP16, literal(-15)))
          CFI V4 load(1, XDATA, add(CFA_XSP16, literal(-14)))
          CFI V5 load(1, XDATA, add(CFA_XSP16, literal(-13)))
          CFI V6 load(1, XDATA, add(CFA_XSP16, literal(-12)))
          CFI V7 load(1, XDATA, add(CFA_XSP16, literal(-11)))
          CFI V8 load(1, XDATA, add(CFA_XSP16, literal(-10)))
          CFI V9 load(1, XDATA, add(CFA_XSP16, literal(-9)))
          CFI V10 load(1, XDATA, add(CFA_XSP16, literal(-8)))
          CFI V11 load(1, XDATA, add(CFA_XSP16, literal(-7)))
          CFI R7 load(1, XDATA, add(CFA_XSP16, literal(-6)))
          CFI ?RET_LOW load(1, XDATA, add(CFA_XSP16, literal(-5)))
          CFI ?RET_HIGH load(1, XDATA, add(CFA_XSP16, literal(-4)))
          CFI ?BRET_EXT load(1, XDATA, add(CFA_XSP16, literal(-3)))
          CFI DPL0 load(1, XDATA, add(CFA_XSP16, literal(-2)))
          CFI DPH0 load(1, XDATA, add(CFA_XSP16, literal(-1)))
          CFI CFA_SP SP+0
          CFI CFA_XSP16 add(XSP16, 20)
          CFI Block cfiCond45 Using cfiCommon0
          CFI (cfiCond45) Function hwLight_UpdateColorMode
          CFI (cfiCond45) Conditional ??CrossCallReturnLabel_33
          CFI (cfiCond45) R6 load(1, XDATA, add(CFA_XSP16, literal(-20)))
          CFI (cfiCond45) VB load(1, XDATA, add(CFA_XSP16, literal(-19)))
          CFI (cfiCond45) V0 load(1, XDATA, add(CFA_XSP16, literal(-18)))
          CFI (cfiCond45) V1 load(1, XDATA, add(CFA_XSP16, literal(-17)))
          CFI (cfiCond45) V2 load(1, XDATA, add(CFA_XSP16, literal(-16)))
          CFI (cfiCond45) V3 load(1, XDATA, add(CFA_XSP16, literal(-15)))
          CFI (cfiCond45) V4 load(1, XDATA, add(CFA_XSP16, literal(-14)))
          CFI (cfiCond45) V5 load(1, XDATA, add(CFA_XSP16, literal(-13)))
          CFI (cfiCond45) V6 load(1, XDATA, add(CFA_XSP16, literal(-12)))
          CFI (cfiCond45) V7 load(1, XDATA, add(CFA_XSP16, literal(-11)))
          CFI (cfiCond45) V8 load(1, XDATA, add(CFA_XSP16, literal(-10)))
          CFI (cfiCond45) V9 load(1, XDATA, add(CFA_XSP16, literal(-9)))
          CFI (cfiCond45) V10 load(1, XDATA, add(CFA_XSP16, literal(-8)))
          CFI (cfiCond45) V11 load(1, XDATA, add(CFA_XSP16, literal(-7)))
          CFI (cfiCond45) R7 load(1, XDATA, add(CFA_XSP16, literal(-6)))
          CFI (cfiCond45) ?RET_LOW load(1, XDATA, add(CFA_XSP16, literal(-5)))
          CFI (cfiCond45) ?RET_HIGH load(1, XDATA, add(CFA_XSP16, literal(-4)))
          CFI (cfiCond45) ?BRET_EXT load(1, XDATA, add(CFA_XSP16, literal(-3)))
          CFI (cfiCond45) DPL0 load(1, XDATA, add(CFA_XSP16, literal(-2)))
          CFI (cfiCond45) DPH0 load(1, XDATA, add(CFA_XSP16, literal(-1)))
          CFI (cfiCond45) CFA_SP SP+0
          CFI (cfiCond45) CFA_XSP16 add(XSP16, 20)
          CFI Block cfiPicker46 Using cfiCommon1
          CFI (cfiPicker46) NoFunction
          CFI (cfiPicker46) Picker
        LCALL   ?Subroutine30 & 0xFFFF
??CrossCallReturnLabel_49:
        RET
          CFI EndBlock cfiCond44
          CFI EndBlock cfiCond45
          CFI EndBlock cfiPicker46

        RSEG BANKED_CODE:CODE:NOROOT(0)
?Subroutine30:
          CFI Block cfiCond47 Using cfiCommon0
          CFI Function hwLight_XyToSat
          CFI Conditional ??CrossCallReturnLabel_49, ??CrossCallReturnLabel_32
          CFI R6 load(1, XDATA, add(CFA_XSP16, literal(-20)))
          CFI VB load(1, XDATA, add(CFA_XSP16, literal(-19)))
          CFI V0 load(1, XDATA, add(CFA_XSP16, literal(-18)))
          CFI V1 load(1, XDATA, add(CFA_XSP16, literal(-17)))
          CFI V2 load(1, XDATA, add(CFA_XSP16, literal(-16)))
          CFI V3 load(1, XDATA, add(CFA_XSP16, literal(-15)))
          CFI V4 load(1, XDATA, add(CFA_XSP16, literal(-14)))
          CFI V5 load(1, XDATA, add(CFA_XSP16, literal(-13)))
          CFI V6 load(1, XDATA, add(CFA_XSP16, literal(-12)))
          CFI V7 load(1, XDATA, add(CFA_XSP16, literal(-11)))
          CFI V8 load(1, XDATA, add(CFA_XSP16, literal(-10)))
          CFI V9 load(1, XDATA, add(CFA_XSP16, literal(-9)))
          CFI V10 load(1, XDATA, add(CFA_XSP16, literal(-8)))
          CFI V11 load(1, XDATA, add(CFA_XSP16, literal(-7)))
          CFI R7 load(1, XDATA, add(CFA_XSP16, literal(-6)))
          CFI ?RET_LOW load(1, XDATA, add(CFA_XSP16, literal(-5)))
          CFI ?RET_HIGH load(1, XDATA, add(CFA_XSP16, literal(-4)))
          CFI ?BRET_EXT load(1, XDATA, add(CFA_XSP16, literal(-3)))
          CFI DPL0 load(1, XDATA, add(CFA_XSP16, literal(-2)))
          CFI DPH0 load(1, XDATA, add(CFA_XSP16, literal(-1)))
          CFI CFA_SP SP+0
          CFI CFA_XSP16 add(XSP16, 20)
          CFI Block cfiCond48 Using cfiCommon0
          CFI (cfiCond48) Function hwLight_UpdateColorMode
          CFI (cfiCond48) Conditional ??CrossCallReturnLabel_49, ??CrossCallReturnLabel_33
          CFI (cfiCond48) R6 load(1, XDATA, add(CFA_XSP16, literal(-20)))
          CFI (cfiCond48) VB load(1, XDATA, add(CFA_XSP16, literal(-19)))
          CFI (cfiCond48) V0 load(1, XDATA, add(CFA_XSP16, literal(-18)))
          CFI (cfiCond48) V1 load(1, XDATA, add(CFA_XSP16, literal(-17)))
          CFI (cfiCond48) V2 load(1, XDATA, add(CFA_XSP16, literal(-16)))
          CFI (cfiCond48) V3 load(1, XDATA, add(CFA_XSP16, literal(-15)))
          CFI (cfiCond48) V4 load(1, XDATA, add(CFA_XSP16, literal(-14)))
          CFI (cfiCond48) V5 load(1, XDATA, add(CFA_XSP16, literal(-13)))
          CFI (cfiCond48) V6 load(1, XDATA, add(CFA_XSP16, literal(-12)))
          CFI (cfiCond48) V7 load(1, XDATA, add(CFA_XSP16, literal(-11)))
          CFI (cfiCond48) V8 load(1, XDATA, add(CFA_XSP16, literal(-10)))
          CFI (cfiCond48) V9 load(1, XDATA, add(CFA_XSP16, literal(-9)))
          CFI (cfiCond48) V10 load(1, XDATA, add(CFA_XSP16, literal(-8)))
          CFI (cfiCond48) V11 load(1, XDATA, add(CFA_XSP16, literal(-7)))
          CFI (cfiCond48) R7 load(1, XDATA, add(CFA_XSP16, literal(-6)))
          CFI (cfiCond48) ?RET_LOW load(1, XDATA, add(CFA_XSP16, literal(-5)))
          CFI (cfiCond48) ?RET_HIGH load(1, XDATA, add(CFA_XSP16, literal(-4)))
          CFI (cfiCond48) ?BRET_EXT load(1, XDATA, add(CFA_XSP16, literal(-3)))
          CFI (cfiCond48) DPL0 load(1, XDATA, add(CFA_XSP16, literal(-2)))
          CFI (cfiCond48) DPH0 load(1, XDATA, add(CFA_XSP16, literal(-1)))
          CFI (cfiCond48) CFA_SP SP+0
          CFI (cfiCond48) CFA_XSP16 add(XSP16, 20)
          CFI Block cfiCond49 Using cfiCommon0
          CFI (cfiCond49) Function hwLight_UpdateLampColorHueSat
          CFI (cfiCond49) Conditional ??CrossCallReturnLabel_48, ??CrossCallReturnLabel_22
          CFI (cfiCond49) R6 load(1, XDATA, add(CFA_XSP16, literal(-9)))
          CFI (cfiCond49) VB load(1, XDATA, add(CFA_XSP16, literal(-8)))
          CFI (cfiCond49) V0 load(1, XDATA, add(CFA_XSP16, literal(-7)))
          CFI (cfiCond49) R7 load(1, XDATA, add(CFA_XSP16, literal(-6)))
          CFI (cfiCond49) ?RET_LOW load(1, XDATA, add(CFA_XSP16, literal(-5)))
          CFI (cfiCond49) ?RET_HIGH load(1, XDATA, add(CFA_XSP16, literal(-4)))
          CFI (cfiCond49) ?BRET_EXT load(1, XDATA, add(CFA_XSP16, literal(-3)))
          CFI (cfiCond49) DPL0 load(1, XDATA, add(CFA_XSP16, literal(-2)))
          CFI (cfiCond49) DPH0 load(1, XDATA, add(CFA_XSP16, literal(-1)))
          CFI (cfiCond49) CFA_SP SP+0
          CFI (cfiCond49) CFA_XSP16 add(XSP16, 13)
          CFI Block cfiCond50 Using cfiCommon0
          CFI (cfiCond50) Function hwLight_UpdateColorMode
          CFI (cfiCond50) Conditional ??CrossCallReturnLabel_48, ??CrossCallReturnLabel_23
          CFI (cfiCond50) R6 load(1, XDATA, add(CFA_XSP16, literal(-20)))
          CFI (cfiCond50) VB load(1, XDATA, add(CFA_XSP16, literal(-19)))
          CFI (cfiCond50) V0 load(1, XDATA, add(CFA_XSP16, literal(-18)))
          CFI (cfiCond50) V1 load(1, XDATA, add(CFA_XSP16, literal(-17)))
          CFI (cfiCond50) V2 load(1, XDATA, add(CFA_XSP16, literal(-16)))
          CFI (cfiCond50) V3 load(1, XDATA, add(CFA_XSP16, literal(-15)))
          CFI (cfiCond50) V4 load(1, XDATA, add(CFA_XSP16, literal(-14)))
          CFI (cfiCond50) V5 load(1, XDATA, add(CFA_XSP16, literal(-13)))
          CFI (cfiCond50) V6 load(1, XDATA, add(CFA_XSP16, literal(-12)))
          CFI (cfiCond50) V7 load(1, XDATA, add(CFA_XSP16, literal(-11)))
          CFI (cfiCond50) V8 load(1, XDATA, add(CFA_XSP16, literal(-10)))
          CFI (cfiCond50) V9 load(1, XDATA, add(CFA_XSP16, literal(-9)))
          CFI (cfiCond50) V10 load(1, XDATA, add(CFA_XSP16, literal(-8)))
          CFI (cfiCond50) V11 load(1, XDATA, add(CFA_XSP16, literal(-7)))
          CFI (cfiCond50) R7 load(1, XDATA, add(CFA_XSP16, literal(-6)))
          CFI (cfiCond50) ?RET_LOW load(1, XDATA, add(CFA_XSP16, literal(-5)))
          CFI (cfiCond50) ?RET_HIGH load(1, XDATA, add(CFA_XSP16, literal(-4)))
          CFI (cfiCond50) ?BRET_EXT load(1, XDATA, add(CFA_XSP16, literal(-3)))
          CFI (cfiCond50) DPL0 load(1, XDATA, add(CFA_XSP16, literal(-2)))
          CFI (cfiCond50) DPH0 load(1, XDATA, add(CFA_XSP16, literal(-1)))
          CFI (cfiCond50) CFA_SP SP+0
          CFI (cfiCond50) CFA_XSP16 add(XSP16, 20)
          CFI Block cfiPicker51 Using cfiCommon1
          CFI (cfiPicker51) NoFunction
          CFI (cfiPicker51) Picker
        MOV     A,#hueToY & 0xff
        ADD     A,R0
        MOV     DPL,A
        MOV     A,#(hueToY >> 8) & 0xff
        ADDC    A,R1
        MOV     DPH,A
        CLR     A
        MOVC    A,@A+DPTR
        RET
          CFI EndBlock cfiCond47
          CFI EndBlock cfiCond48
          CFI EndBlock cfiCond49
          CFI EndBlock cfiCond50
          CFI EndBlock cfiPicker51

        RSEG BANKED_CODE:CODE:NOROOT(0)
?Subroutine23:
          CFI Block cfiCond52 Using cfiCommon0
          CFI Function hwLight_XyToSat
          CFI Conditional ??CrossCallReturnLabel_30
          CFI R6 load(1, XDATA, add(CFA_XSP16, literal(-20)))
          CFI VB load(1, XDATA, add(CFA_XSP16, literal(-19)))
          CFI V0 load(1, XDATA, add(CFA_XSP16, literal(-18)))
          CFI V1 load(1, XDATA, add(CFA_XSP16, literal(-17)))
          CFI V2 load(1, XDATA, add(CFA_XSP16, literal(-16)))
          CFI V3 load(1, XDATA, add(CFA_XSP16, literal(-15)))
          CFI V4 load(1, XDATA, add(CFA_XSP16, literal(-14)))
          CFI V5 load(1, XDATA, add(CFA_XSP16, literal(-13)))
          CFI V6 load(1, XDATA, add(CFA_XSP16, literal(-12)))
          CFI V7 load(1, XDATA, add(CFA_XSP16, literal(-11)))
          CFI V8 load(1, XDATA, add(CFA_XSP16, literal(-10)))
          CFI V9 load(1, XDATA, add(CFA_XSP16, literal(-9)))
          CFI V10 load(1, XDATA, add(CFA_XSP16, literal(-8)))
          CFI V11 load(1, XDATA, add(CFA_XSP16, literal(-7)))
          CFI R7 load(1, XDATA, add(CFA_XSP16, literal(-6)))
          CFI ?RET_LOW load(1, XDATA, add(CFA_XSP16, literal(-5)))
          CFI ?RET_HIGH load(1, XDATA, add(CFA_XSP16, literal(-4)))
          CFI ?BRET_EXT load(1, XDATA, add(CFA_XSP16, literal(-3)))
          CFI DPL0 load(1, XDATA, add(CFA_XSP16, literal(-2)))
          CFI DPH0 load(1, XDATA, add(CFA_XSP16, literal(-1)))
          CFI CFA_SP SP+0
          CFI CFA_XSP16 add(XSP16, 20)
          CFI Block cfiCond53 Using cfiCommon0
          CFI (cfiCond53) Function hwLight_UpdateColorMode
          CFI (cfiCond53) Conditional ??CrossCallReturnLabel_31
          CFI (cfiCond53) R6 load(1, XDATA, add(CFA_XSP16, literal(-20)))
          CFI (cfiCond53) VB load(1, XDATA, add(CFA_XSP16, literal(-19)))
          CFI (cfiCond53) V0 load(1, XDATA, add(CFA_XSP16, literal(-18)))
          CFI (cfiCond53) V1 load(1, XDATA, add(CFA_XSP16, literal(-17)))
          CFI (cfiCond53) V2 load(1, XDATA, add(CFA_XSP16, literal(-16)))
          CFI (cfiCond53) V3 load(1, XDATA, add(CFA_XSP16, literal(-15)))
          CFI (cfiCond53) V4 load(1, XDATA, add(CFA_XSP16, literal(-14)))
          CFI (cfiCond53) V5 load(1, XDATA, add(CFA_XSP16, literal(-13)))
          CFI (cfiCond53) V6 load(1, XDATA, add(CFA_XSP16, literal(-12)))
          CFI (cfiCond53) V7 load(1, XDATA, add(CFA_XSP16, literal(-11)))
          CFI (cfiCond53) V8 load(1, XDATA, add(CFA_XSP16, literal(-10)))
          CFI (cfiCond53) V9 load(1, XDATA, add(CFA_XSP16, literal(-9)))
          CFI (cfiCond53) V10 load(1, XDATA, add(CFA_XSP16, literal(-8)))
          CFI (cfiCond53) V11 load(1, XDATA, add(CFA_XSP16, literal(-7)))
          CFI (cfiCond53) R7 load(1, XDATA, add(CFA_XSP16, literal(-6)))
          CFI (cfiCond53) ?RET_LOW load(1, XDATA, add(CFA_XSP16, literal(-5)))
          CFI (cfiCond53) ?RET_HIGH load(1, XDATA, add(CFA_XSP16, literal(-4)))
          CFI (cfiCond53) ?BRET_EXT load(1, XDATA, add(CFA_XSP16, literal(-3)))
          CFI (cfiCond53) DPL0 load(1, XDATA, add(CFA_XSP16, literal(-2)))
          CFI (cfiCond53) DPH0 load(1, XDATA, add(CFA_XSP16, literal(-1)))
          CFI (cfiCond53) CFA_SP SP+0
          CFI (cfiCond53) CFA_XSP16 add(XSP16, 20)
          CFI Block cfiPicker54 Using cfiCommon1
          CFI (cfiPicker54) NoFunction
          CFI (cfiPicker54) Picker
        LCALL   ?Subroutine31 & 0xFFFF
??CrossCallReturnLabel_51:
        RET
          CFI EndBlock cfiCond52
          CFI EndBlock cfiCond53
          CFI EndBlock cfiPicker54

        RSEG BANKED_CODE:CODE:NOROOT(0)
?Subroutine31:
          CFI Block cfiCond55 Using cfiCommon0
          CFI Function hwLight_XyToSat
          CFI Conditional ??CrossCallReturnLabel_51, ??CrossCallReturnLabel_30
          CFI R6 load(1, XDATA, add(CFA_XSP16, literal(-20)))
          CFI VB load(1, XDATA, add(CFA_XSP16, literal(-19)))
          CFI V0 load(1, XDATA, add(CFA_XSP16, literal(-18)))
          CFI V1 load(1, XDATA, add(CFA_XSP16, literal(-17)))
          CFI V2 load(1, XDATA, add(CFA_XSP16, literal(-16)))
          CFI V3 load(1, XDATA, add(CFA_XSP16, literal(-15)))
          CFI V4 load(1, XDATA, add(CFA_XSP16, literal(-14)))
          CFI V5 load(1, XDATA, add(CFA_XSP16, literal(-13)))
          CFI V6 load(1, XDATA, add(CFA_XSP16, literal(-12)))
          CFI V7 load(1, XDATA, add(CFA_XSP16, literal(-11)))
          CFI V8 load(1, XDATA, add(CFA_XSP16, literal(-10)))
          CFI V9 load(1, XDATA, add(CFA_XSP16, literal(-9)))
          CFI V10 load(1, XDATA, add(CFA_XSP16, literal(-8)))
          CFI V11 load(1, XDATA, add(CFA_XSP16, literal(-7)))
          CFI R7 load(1, XDATA, add(CFA_XSP16, literal(-6)))
          CFI ?RET_LOW load(1, XDATA, add(CFA_XSP16, literal(-5)))
          CFI ?RET_HIGH load(1, XDATA, add(CFA_XSP16, literal(-4)))
          CFI ?BRET_EXT load(1, XDATA, add(CFA_XSP16, literal(-3)))
          CFI DPL0 load(1, XDATA, add(CFA_XSP16, literal(-2)))
          CFI DPH0 load(1, XDATA, add(CFA_XSP16, literal(-1)))
          CFI CFA_SP SP+0
          CFI CFA_XSP16 add(XSP16, 20)
          CFI Block cfiCond56 Using cfiCommon0
          CFI (cfiCond56) Function hwLight_UpdateColorMode
          CFI (cfiCond56) Conditional ??CrossCallReturnLabel_51, ??CrossCallReturnLabel_31
          CFI (cfiCond56) R6 load(1, XDATA, add(CFA_XSP16, literal(-20)))
          CFI (cfiCond56) VB load(1, XDATA, add(CFA_XSP16, literal(-19)))
          CFI (cfiCond56) V0 load(1, XDATA, add(CFA_XSP16, literal(-18)))
          CFI (cfiCond56) V1 load(1, XDATA, add(CFA_XSP16, literal(-17)))
          CFI (cfiCond56) V2 load(1, XDATA, add(CFA_XSP16, literal(-16)))
          CFI (cfiCond56) V3 load(1, XDATA, add(CFA_XSP16, literal(-15)))
          CFI (cfiCond56) V4 load(1, XDATA, add(CFA_XSP16, literal(-14)))
          CFI (cfiCond56) V5 load(1, XDATA, add(CFA_XSP16, literal(-13)))
          CFI (cfiCond56) V6 load(1, XDATA, add(CFA_XSP16, literal(-12)))
          CFI (cfiCond56) V7 load(1, XDATA, add(CFA_XSP16, literal(-11)))
          CFI (cfiCond56) V8 load(1, XDATA, add(CFA_XSP16, literal(-10)))
          CFI (cfiCond56) V9 load(1, XDATA, add(CFA_XSP16, literal(-9)))
          CFI (cfiCond56) V10 load(1, XDATA, add(CFA_XSP16, literal(-8)))
          CFI (cfiCond56) V11 load(1, XDATA, add(CFA_XSP16, literal(-7)))
          CFI (cfiCond56) R7 load(1, XDATA, add(CFA_XSP16, literal(-6)))
          CFI (cfiCond56) ?RET_LOW load(1, XDATA, add(CFA_XSP16, literal(-5)))
          CFI (cfiCond56) ?RET_HIGH load(1, XDATA, add(CFA_XSP16, literal(-4)))
          CFI (cfiCond56) ?BRET_EXT load(1, XDATA, add(CFA_XSP16, literal(-3)))
          CFI (cfiCond56) DPL0 load(1, XDATA, add(CFA_XSP16, literal(-2)))
          CFI (cfiCond56) DPH0 load(1, XDATA, add(CFA_XSP16, literal(-1)))
          CFI (cfiCond56) CFA_SP SP+0
          CFI (cfiCond56) CFA_XSP16 add(XSP16, 20)
          CFI Block cfiCond57 Using cfiCommon0
          CFI (cfiCond57) Function hwLight_UpdateLampColorHueSat
          CFI (cfiCond57) Conditional ??CrossCallReturnLabel_50, ??CrossCallReturnLabel_28
          CFI (cfiCond57) R6 load(1, XDATA, add(CFA_XSP16, literal(-9)))
          CFI (cfiCond57) VB load(1, XDATA, add(CFA_XSP16, literal(-8)))
          CFI (cfiCond57) V0 load(1, XDATA, add(CFA_XSP16, literal(-7)))
          CFI (cfiCond57) R7 load(1, XDATA, add(CFA_XSP16, literal(-6)))
          CFI (cfiCond57) ?RET_LOW load(1, XDATA, add(CFA_XSP16, literal(-5)))
          CFI (cfiCond57) ?RET_HIGH load(1, XDATA, add(CFA_XSP16, literal(-4)))
          CFI (cfiCond57) ?BRET_EXT load(1, XDATA, add(CFA_XSP16, literal(-3)))
          CFI (cfiCond57) DPL0 load(1, XDATA, add(CFA_XSP16, literal(-2)))
          CFI (cfiCond57) DPH0 load(1, XDATA, add(CFA_XSP16, literal(-1)))
          CFI (cfiCond57) CFA_SP SP+0
          CFI (cfiCond57) CFA_XSP16 add(XSP16, 13)
          CFI Block cfiCond58 Using cfiCommon0
          CFI (cfiCond58) Function hwLight_UpdateColorMode
          CFI (cfiCond58) Conditional ??CrossCallReturnLabel_50, ??CrossCallReturnLabel_29
          CFI (cfiCond58) R6 load(1, XDATA, add(CFA_XSP16, literal(-20)))
          CFI (cfiCond58) VB load(1, XDATA, add(CFA_XSP16, literal(-19)))
          CFI (cfiCond58) V0 load(1, XDATA, add(CFA_XSP16, literal(-18)))
          CFI (cfiCond58) V1 load(1, XDATA, add(CFA_XSP16, literal(-17)))
          CFI (cfiCond58) V2 load(1, XDATA, add(CFA_XSP16, literal(-16)))
          CFI (cfiCond58) V3 load(1, XDATA, add(CFA_XSP16, literal(-15)))
          CFI (cfiCond58) V4 load(1, XDATA, add(CFA_XSP16, literal(-14)))
          CFI (cfiCond58) V5 load(1, XDATA, add(CFA_XSP16, literal(-13)))
          CFI (cfiCond58) V6 load(1, XDATA, add(CFA_XSP16, literal(-12)))
          CFI (cfiCond58) V7 load(1, XDATA, add(CFA_XSP16, literal(-11)))
          CFI (cfiCond58) V8 load(1, XDATA, add(CFA_XSP16, literal(-10)))
          CFI (cfiCond58) V9 load(1, XDATA, add(CFA_XSP16, literal(-9)))
          CFI (cfiCond58) V10 load(1, XDATA, add(CFA_XSP16, literal(-8)))
          CFI (cfiCond58) V11 load(1, XDATA, add(CFA_XSP16, literal(-7)))
          CFI (cfiCond58) R7 load(1, XDATA, add(CFA_XSP16, literal(-6)))
          CFI (cfiCond58) ?RET_LOW load(1, XDATA, add(CFA_XSP16, literal(-5)))
          CFI (cfiCond58) ?RET_HIGH load(1, XDATA, add(CFA_XSP16, literal(-4)))
          CFI (cfiCond58) ?BRET_EXT load(1, XDATA, add(CFA_XSP16, literal(-3)))
          CFI (cfiCond58) DPL0 load(1, XDATA, add(CFA_XSP16, literal(-2)))
          CFI (cfiCond58) DPH0 load(1, XDATA, add(CFA_XSP16, literal(-1)))
          CFI (cfiCond58) CFA_SP SP+0
          CFI (cfiCond58) CFA_XSP16 add(XSP16, 20)
          CFI Block cfiPicker59 Using cfiCommon1
          CFI (cfiPicker59) NoFunction
          CFI (cfiPicker59) Picker
        CLR     C
        RLC     A
        MOV     R0,A
        CLR     A
        RLC     A
        MOV     R1,A
        MOV     A,#hueToX & 0xff
        ADD     A,R0
        MOV     DPL,A
        MOV     A,#(hueToX >> 8) & 0xff
        ADDC    A,R1
        MOV     DPH,A
        CLR     A
        MOVC    A,@A+DPTR
        RET
          CFI EndBlock cfiCond55
          CFI EndBlock cfiCond56
          CFI EndBlock cfiCond57
          CFI EndBlock cfiCond58
          CFI EndBlock cfiPicker59

        RSEG BANKED_CODE:CODE:NOROOT(0)
?Subroutine22:
          CFI Block cfiCond60 Using cfiCommon0
          CFI Function hwLight_UpdateLampColorHueSat
          CFI Conditional ??CrossCallReturnLabel_28
          CFI R6 load(1, XDATA, add(CFA_XSP16, literal(-9)))
          CFI VB load(1, XDATA, add(CFA_XSP16, literal(-8)))
          CFI V0 load(1, XDATA, add(CFA_XSP16, literal(-7)))
          CFI R7 load(1, XDATA, add(CFA_XSP16, literal(-6)))
          CFI ?RET_LOW load(1, XDATA, add(CFA_XSP16, literal(-5)))
          CFI ?RET_HIGH load(1, XDATA, add(CFA_XSP16, literal(-4)))
          CFI ?BRET_EXT load(1, XDATA, add(CFA_XSP16, literal(-3)))
          CFI DPL0 load(1, XDATA, add(CFA_XSP16, literal(-2)))
          CFI DPH0 load(1, XDATA, add(CFA_XSP16, literal(-1)))
          CFI CFA_SP SP+0
          CFI CFA_XSP16 add(XSP16, 13)
          CFI Block cfiCond61 Using cfiCommon0
          CFI (cfiCond61) Function hwLight_UpdateColorMode
          CFI (cfiCond61) Conditional ??CrossCallReturnLabel_29
          CFI (cfiCond61) R6 load(1, XDATA, add(CFA_XSP16, literal(-20)))
          CFI (cfiCond61) VB load(1, XDATA, add(CFA_XSP16, literal(-19)))
          CFI (cfiCond61) V0 load(1, XDATA, add(CFA_XSP16, literal(-18)))
          CFI (cfiCond61) V1 load(1, XDATA, add(CFA_XSP16, literal(-17)))
          CFI (cfiCond61) V2 load(1, XDATA, add(CFA_XSP16, literal(-16)))
          CFI (cfiCond61) V3 load(1, XDATA, add(CFA_XSP16, literal(-15)))
          CFI (cfiCond61) V4 load(1, XDATA, add(CFA_XSP16, literal(-14)))
          CFI (cfiCond61) V5 load(1, XDATA, add(CFA_XSP16, literal(-13)))
          CFI (cfiCond61) V6 load(1, XDATA, add(CFA_XSP16, literal(-12)))
          CFI (cfiCond61) V7 load(1, XDATA, add(CFA_XSP16, literal(-11)))
          CFI (cfiCond61) V8 load(1, XDATA, add(CFA_XSP16, literal(-10)))
          CFI (cfiCond61) V9 load(1, XDATA, add(CFA_XSP16, literal(-9)))
          CFI (cfiCond61) V10 load(1, XDATA, add(CFA_XSP16, literal(-8)))
          CFI (cfiCond61) V11 load(1, XDATA, add(CFA_XSP16, literal(-7)))
          CFI (cfiCond61) R7 load(1, XDATA, add(CFA_XSP16, literal(-6)))
          CFI (cfiCond61) ?RET_LOW load(1, XDATA, add(CFA_XSP16, literal(-5)))
          CFI (cfiCond61) ?RET_HIGH load(1, XDATA, add(CFA_XSP16, literal(-4)))
          CFI (cfiCond61) ?BRET_EXT load(1, XDATA, add(CFA_XSP16, literal(-3)))
          CFI (cfiCond61) DPL0 load(1, XDATA, add(CFA_XSP16, literal(-2)))
          CFI (cfiCond61) DPH0 load(1, XDATA, add(CFA_XSP16, literal(-1)))
          CFI (cfiCond61) CFA_SP SP+0
          CFI (cfiCond61) CFA_XSP16 add(XSP16, 20)
          CFI Block cfiPicker62 Using cfiCommon1
          CFI (cfiPicker62) NoFunction
          CFI (cfiPicker62) Picker
        LCALL   ?Subroutine31 & 0xFFFF
??CrossCallReturnLabel_50:
        MOV     R2,A
        MOV     A,#0x1
        MOVC    A,@A+DPTR
        MOV     R3,A
        RET
          CFI EndBlock cfiCond60
          CFI EndBlock cfiCond61
          CFI EndBlock cfiPicker62

        RSEG BANKED_CODE:CODE:NOROOT(0)
?Subroutine17:
          CFI Block cfiCond63 Using cfiCommon0
          CFI Function hwLight_UpdateLampColorHueSat
          CFI Conditional ??CrossCallReturnLabel_22
          CFI R6 load(1, XDATA, add(CFA_XSP16, literal(-9)))
          CFI VB load(1, XDATA, add(CFA_XSP16, literal(-8)))
          CFI V0 load(1, XDATA, add(CFA_XSP16, literal(-7)))
          CFI R7 load(1, XDATA, add(CFA_XSP16, literal(-6)))
          CFI ?RET_LOW load(1, XDATA, add(CFA_XSP16, literal(-5)))
          CFI ?RET_HIGH load(1, XDATA, add(CFA_XSP16, literal(-4)))
          CFI ?BRET_EXT load(1, XDATA, add(CFA_XSP16, literal(-3)))
          CFI DPL0 load(1, XDATA, add(CFA_XSP16, literal(-2)))
          CFI DPH0 load(1, XDATA, add(CFA_XSP16, literal(-1)))
          CFI CFA_SP SP+0
          CFI CFA_XSP16 add(XSP16, 13)
          CFI Block cfiCond64 Using cfiCommon0
          CFI (cfiCond64) Function hwLight_UpdateColorMode
          CFI (cfiCond64) Conditional ??CrossCallReturnLabel_23
          CFI (cfiCond64) R6 load(1, XDATA, add(CFA_XSP16, literal(-20)))
          CFI (cfiCond64) VB load(1, XDATA, add(CFA_XSP16, literal(-19)))
          CFI (cfiCond64) V0 load(1, XDATA, add(CFA_XSP16, literal(-18)))
          CFI (cfiCond64) V1 load(1, XDATA, add(CFA_XSP16, literal(-17)))
          CFI (cfiCond64) V2 load(1, XDATA, add(CFA_XSP16, literal(-16)))
          CFI (cfiCond64) V3 load(1, XDATA, add(CFA_XSP16, literal(-15)))
          CFI (cfiCond64) V4 load(1, XDATA, add(CFA_XSP16, literal(-14)))
          CFI (cfiCond64) V5 load(1, XDATA, add(CFA_XSP16, literal(-13)))
          CFI (cfiCond64) V6 load(1, XDATA, add(CFA_XSP16, literal(-12)))
          CFI (cfiCond64) V7 load(1, XDATA, add(CFA_XSP16, literal(-11)))
          CFI (cfiCond64) V8 load(1, XDATA, add(CFA_XSP16, literal(-10)))
          CFI (cfiCond64) V9 load(1, XDATA, add(CFA_XSP16, literal(-9)))
          CFI (cfiCond64) V10 load(1, XDATA, add(CFA_XSP16, literal(-8)))
          CFI (cfiCond64) V11 load(1, XDATA, add(CFA_XSP16, literal(-7)))
          CFI (cfiCond64) R7 load(1, XDATA, add(CFA_XSP16, literal(-6)))
          CFI (cfiCond64) ?RET_LOW load(1, XDATA, add(CFA_XSP16, literal(-5)))
          CFI (cfiCond64) ?RET_HIGH load(1, XDATA, add(CFA_XSP16, literal(-4)))
          CFI (cfiCond64) ?BRET_EXT load(1, XDATA, add(CFA_XSP16, literal(-3)))
          CFI (cfiCond64) DPL0 load(1, XDATA, add(CFA_XSP16, literal(-2)))
          CFI (cfiCond64) DPH0 load(1, XDATA, add(CFA_XSP16, literal(-1)))
          CFI (cfiCond64) CFA_SP SP+0
          CFI (cfiCond64) CFA_XSP16 add(XSP16, 20)
          CFI Block cfiPicker65 Using cfiCommon1
          CFI (cfiPicker65) NoFunction
          CFI (cfiPicker65) Picker
        MOV     A,R2
        MOVX    @DPTR,A
        INC     DPTR
        MOV     A,R3
        MOVX    @DPTR,A
        LCALL   ?Subroutine30 & 0xFFFF
??CrossCallReturnLabel_48:
        MOV     R0,A
        MOV     A,#0x1
        MOVC    A,@A+DPTR
        MOV     R1,A
        RET
          CFI EndBlock cfiCond63
          CFI EndBlock cfiCond64
          CFI EndBlock cfiPicker65
//  462 
//  463 
//  464 /*********************************************************************
//  465  * @fn      hwLight_ApplyUpdate16b
//  466  *
//  467  * @brief
//  468  *
//  469  * @param   pCurrentVal - pointer to current 16bit attr (i.e. zclColor_CurrentHue) value
//  470  * @param   pCurrentVal_256  - pointer to current attr value at hi resolution (x256)
//  471  * @param   pStepVal_256 - pointer to the required step value of CurrentVal_256
//  472  * @param   pRemainingTime - pointer to the time remaining,  in 100ms,  to get to the target value
//  473  * @param   minLevel - Minimun val of attr
//  474  * @param   maxLevel - Maximun val of attr
//  475  *
//  476  * @return  none
//  477  */

        RSEG BANKED_CODE:CODE:NOROOT(0)
//  478 void hwLight_ApplyUpdate16b( uint16 *pCurrentVal, uint32 *pCurrentVal_256, int32 *pStepVal_256, uint16 *pRemainingTime, uint16 minLevel, uint16 maxLevel, bool wrap )
hwLight_ApplyUpdate16b:
          CFI Block cfiBlock66 Using cfiCommon0
          CFI Function hwLight_ApplyUpdate16b
        CODE
//  479 {
        FUNCALL hwLight_ApplyUpdate16b, hwLight_Refresh
        LOCFRAME ISTACK, 0, STACK
        LOCFRAME PSTACK, 0, STACK
        LOCFRAME XSTACK, 33, STACK
        LOCFRAME IOVERLAY, 0, STATIC
        LOCFRAME DOVERLAY, 0, STATIC
        ARGFRAME ISTACK, 0, STACK
        ARGFRAME PSTACK, 0, STACK
        ARGFRAME XSTACK, 33, STACK
        ARGFRAME IOVERLAY, 0, STATIC
        ARGFRAME DOVERLAY, 0, STATIC
        MOV     A,#-0x18
        LCALL   ?BANKED_ENTER_XDATA
          CFI DPH0 load(1, XDATA, add(CFA_XSP16, literal(-1)))
          CFI DPL0 load(1, XDATA, add(CFA_XSP16, literal(-2)))
          CFI ?BRET_EXT load(1, XDATA, add(CFA_XSP16, literal(-3)))
          CFI ?RET_HIGH load(1, XDATA, add(CFA_XSP16, literal(-4)))
          CFI ?RET_LOW load(1, XDATA, add(CFA_XSP16, literal(-5)))
          CFI R7 load(1, XDATA, add(CFA_XSP16, literal(-6)))
          CFI V15 load(1, XDATA, add(CFA_XSP16, literal(-7)))
          CFI V14 load(1, XDATA, add(CFA_XSP16, literal(-8)))
          CFI V13 load(1, XDATA, add(CFA_XSP16, literal(-9)))
          CFI V12 load(1, XDATA, add(CFA_XSP16, literal(-10)))
          CFI V11 load(1, XDATA, add(CFA_XSP16, literal(-11)))
          CFI V10 load(1, XDATA, add(CFA_XSP16, literal(-12)))
          CFI V9 load(1, XDATA, add(CFA_XSP16, literal(-13)))
          CFI V8 load(1, XDATA, add(CFA_XSP16, literal(-14)))
          CFI V7 load(1, XDATA, add(CFA_XSP16, literal(-15)))
          CFI V6 load(1, XDATA, add(CFA_XSP16, literal(-16)))
          CFI V5 load(1, XDATA, add(CFA_XSP16, literal(-17)))
          CFI V4 load(1, XDATA, add(CFA_XSP16, literal(-18)))
          CFI V3 load(1, XDATA, add(CFA_XSP16, literal(-19)))
          CFI V2 load(1, XDATA, add(CFA_XSP16, literal(-20)))
          CFI V1 load(1, XDATA, add(CFA_XSP16, literal(-21)))
          CFI V0 load(1, XDATA, add(CFA_XSP16, literal(-22)))
          CFI VB load(1, XDATA, add(CFA_XSP16, literal(-23)))
          CFI R6 load(1, XDATA, add(CFA_XSP16, literal(-24)))
          CFI CFA_SP SP+0
          CFI CFA_XSP16 add(XSP16, 24)
        ; Saved register size: 24
        ; Auto size: 9
        MOV     A,#-0x9
        LCALL   ?ALLOC_XSTACK8
          CFI CFA_XSP16 add(XSP16, 33)
        MOV     A,#0x3
        LCALL   ?XSTACK_DISP0_8
        LCALL   ?Subroutine18 & 0xFFFF
??CrossCallReturnLabel_24:
        LCALL   ?XSTACK_DISP0_8
        MOV     A,R1
        MOVX    @DPTR,A
        MOV     A,#0x25
        LCALL   ?XSTACK_DISP0_8
        LCALL   ??Subroutine34_0 & 0xFFFF
??CrossCallReturnLabel_62:
        MOV     A,R2
        MOV     R4,A
        MOV     A,R3
        MOV     R5,A
        MOV     A,R4
        XCH     A,R5
        MOV     R6,A
        MOV     A,#0x5
        LCALL   ?XSTACK_DISP0_8
        CLR     A
        MOVX    @DPTR,A
        INC     DPTR
        MOV     A,R5
        MOVX    @DPTR,A
        INC     DPTR
        MOV     A,R6
        MOVX    @DPTR,A
        INC     DPTR
        CLR     A
        MOVX    @DPTR,A
        MOV     A,#0x27
        LCALL   ?XSTACK_DISP0_8
        LCALL   ?Subroutine29 & 0xFFFF
??CrossCallReturnLabel_46:
        MOV     A,#0x21
        LCALL   ?XSTACK_DISP0_8
        MOVX    A,@DPTR
        MOV     R6,A
        INC     DPTR
        MOVX    A,@DPTR
        MOV     R7,A
        MOV     DPL,R6
        MOV     DPH,R7
        MOV     R0,#?V0 + 4
        LCALL   ?L_MOV_X
        MOV     DPTR,#__Constant_1
        MOV     R0,#?V0 + 4
        LCALL   ?SL_GE_X
        JC      $+5
        LJMP    ??hwLight_ApplyUpdate16b_0 & 0xFFFF
        LCALL   ?Subroutine12 & 0xFFFF
??CrossCallReturnLabel_77:
        MOV     R0,#?V0 + 8
        LCALL   ?L_MOV_X
        MOV     ?V0 + 0,?V0 + 8
        MOV     ?V0 + 1,?V0 + 9
        MOV     ?V0 + 2,?V0 + 10
        MOV     ?V0 + 3,?V0 + 11
        MOV     R0,#?V0 + 0
        MOV     R1,#?V0 + 4
        LCALL   ?L_ADD
        MOV     DPTR,#__Constant_100
        MOV     R0,#?V0 + 12
        LCALL   ?L_MOV_X
        MOV     R0,#?V0 + 0
        MOV     R1,#?V0 + 12
        LCALL   ?L_DIV_MOD
        MOV     ?V0 + 12,R4
        MOV     ?V0 + 13,R5
        CLR     A
        MOV     ?V0 + 14,A
        MOV     ?V0 + 15,A
        MOV     R0,#?V0 + 0
        MOV     R1,#?V0 + 12
        LCALL   ?SL_GT
        JC      $+5
        LJMP    ??hwLight_ApplyUpdate16b_1 & 0xFFFF
//  480   if( (*pStepVal_256 > 0) && ((((int32)*pCurrentVal_256 + *pStepVal_256) / 256) > maxLevel) )
//  481   {
//  482     if(wrap)
        MOV     ?V0 + 0,R4
        MOV     ?V0 + 1,R5
        MOV     ?V0 + 2,#0x0
        CLR     A
        XCH     A,?V0 + 0
        XCH     A,?V0 + 1
        XCH     A,?V0 + 2
        MOV     ?V0 + 3,A
        MOV     A,#0x2
        LCALL   ?XSTACK_DISP0_8
        MOVX    A,@DPTR
        JZ      ??hwLight_ApplyUpdate16b_2
//  483     {
//  484       *pCurrentVal_256 = ( (uint32)minLevel * 256 ) + ( ( *pCurrentVal_256 + *pStepVal_256 ) - ( (uint32)maxLevel * 256 ) ) - 256;
        MOV     A,#0x5
        LCALL   ?XSTACK_DISP0_8
        MOV     R0,#?V0 + 8
        LCALL   ?L_ADD_X
        MOV     R0,#?V0 + 8
        MOV     R1,#?V0 + 4
        LCALL   ?L_ADD
        MOV     R0,#?V0 + 8
        MOV     R1,#?V0 + 0
        LCALL   ?L_SUB
        MOV     DPTR,#__Constant_ffffff00
        MOV     R0,#?V0 + 8
        LCALL   ?L_ADD_X
        LCALL   ?Subroutine12 & 0xFFFF
//  485     }
??CrossCallReturnLabel_78:
        MOV     R0,#?V0 + 8
        LCALL   ?L_MOV_TO_X
        LJMP    ??hwLight_ApplyUpdate16b_3 & 0xFFFF
//  486     else
//  487     {
//  488       *pCurrentVal_256 = (uint32)maxLevel * 256;
??hwLight_ApplyUpdate16b_2:
        LCALL   ?Subroutine4 & 0xFFFF
//  489     }
//  490   }
??CrossCallReturnLabel_66:
        LCALL   ?L_MOV_TO_X
        LJMP    ??hwLight_ApplyUpdate16b_3 & 0xFFFF
//  491   else if( (*pStepVal_256 < 0) && ((((int32)*pCurrentVal_256 + *pStepVal_256) / 256 ) < minLevel) )
??hwLight_ApplyUpdate16b_0:
        MOV     DPTR,#__Constant_0
        MOV     R0,#?V0 + 4
        LCALL   ?SL_GE_X
        JC      ??hwLight_ApplyUpdate16b_1
        MOV     ?V0 + 8,R2
        MOV     ?V0 + 9,R3
        CLR     A
        MOV     ?V0 + 10,A
        MOV     ?V0 + 11,A
        LCALL   ?Subroutine12 & 0xFFFF
??CrossCallReturnLabel_79:
        MOV     ?V0 + 0,?V0 + 4
        MOV     ?V0 + 1,?V0 + 5
        MOV     ?V0 + 2,?V0 + 6
        MOV     ?V0 + 3,?V0 + 7
        MOV     R0,#?V0 + 0
        LCALL   ?L_ADD_X
        MOV     DPTR,#__Constant_100
        MOV     R0,#?V0 + 12
        LCALL   ?L_MOV_X
        MOV     R0,#?V0 + 0
        MOV     R1,#?V0 + 12
        LCALL   ?L_DIV_MOD
        MOV     R0,#?V0 + 8
        MOV     R1,#?V0 + 0
        LCALL   ?SL_GT
        JNC     ??hwLight_ApplyUpdate16b_1
//  492   {
//  493     if(wrap)
        MOV     A,#0x2
        LCALL   ?XSTACK_DISP0_8
        MOVX    A,@DPTR
        JZ      ??hwLight_ApplyUpdate16b_4
//  494     {
//  495       *pCurrentVal_256 = ( (uint32)maxLevel * 256 ) - ( ( (uint32)minLevel * 256 ) - ((int32)*pCurrentVal_256 + *pStepVal_256) ) + 256;
        MOV     ?V0 + 0,R4
        MOV     ?V0 + 1,R5
        CLR     A
        MOV     ?V0 + 2,A
        MOV     ?V0 + 3,A
        MOV     R0,#?V0 + 0
        MOV     R1,#?V0 + 8
        LCALL   ?L_SUB
        MOV     A,#0x8
        MOV     R0,#?V0 + 0
        LCALL   ?L_SHL
        MOV     R0,#?V0 + 0
        MOV     R1,#?V0 + 4
        LCALL   ?L_ADD
        MOV     DPTR,#__Constant_100
        MOV     R0,#?V0 + 0
        LCALL   ?L_ADD_X
        LCALL   ?Subroutine4 & 0xFFFF
//  496     }
??CrossCallReturnLabel_67:
        LCALL   ?L_ADD_TO_X
        SJMP    ??hwLight_ApplyUpdate16b_3
//  497     else
//  498     {
//  499       *pCurrentVal_256 = (uint32)minLevel * 256;
??hwLight_ApplyUpdate16b_4:
        MOV     A,#0x5
        LCALL   ?XSTACK_DISP0_8
        LCALL   ?XLOAD_R2345
        LCALL   ?Subroutine12 & 0xFFFF
//  500     }
//  501   }
??CrossCallReturnLabel_80:
        LCALL   ?XSTORE_R2345
        SJMP    ??hwLight_ApplyUpdate16b_3
//  502   else
//  503   {
//  504     *pCurrentVal_256 += *pStepVal_256;
??hwLight_ApplyUpdate16b_1:
        LCALL   ?Subroutine12 & 0xFFFF
//  505   }
??CrossCallReturnLabel_81:
        MOV     R0,#?V0 + 4
        LCALL   ?L_ADD_TO_X
//  506 
//  507   if (*pStepVal_256 > 0)
??hwLight_ApplyUpdate16b_3:
        LCALL   ?Subroutine4 & 0xFFFF
??CrossCallReturnLabel_68:
        LCALL   ?L_MOV_X
        MOV     DPTR,#__Constant_1
        MOV     R0,#?V0 + 4
        LCALL   ?L_MOV_X
        MOV     DPL,R6
        MOV     DPH,R7
        MOV     R0,#?V0 + 4
        LCALL   ?SL_GT_X
        JC      ??hwLight_ApplyUpdate16b_5
//  508   {
//  509     //fraction step compensation
//  510     *pCurrentVal = ( *pCurrentVal_256 + 127 ) / 256;
        MOV     DPTR,#__Constant_7f
        MOV     R0,#?V0 + 0
        LCALL   ?L_ADD_X
        MOV     A,#0x8
        MOV     R0,#?V0 + 0
        LCALL   ?UL_SHR
        SJMP    ??hwLight_ApplyUpdate16b_6
//  511   }
//  512   else
//  513   {
//  514     *pCurrentVal = ( *pCurrentVal_256 / 256 );
??hwLight_ApplyUpdate16b_5:
        MOV     A,?V0 + 2
        XCH     A,?V0 + 1
        MOV     ?V0 + 0,A
??hwLight_ApplyUpdate16b_6:
        MOV     A,#0x3
        LCALL   ?XSTACK_DISP0_8
//  515   }
        LCALL   ?Subroutine8 & 0xFFFF
??CrossCallReturnLabel_5:
        MOV     A,#0x23
        LCALL   ?XSTACK_DISP0_8
        LCALL   ?Subroutine5 & 0xFFFF
//  516 
//  517   if (*pRemainingTime == 0x0)
??CrossCallReturnLabel_0:
        JNZ     ??hwLight_ApplyUpdate16b_7
//  518   {
//  519     // align variables
//  520     *pCurrentVal_256 = ((uint32)*pCurrentVal) * 256;
        MOV     A,#0x3
        LCALL   ?XSTACK_DISP0_8
        LCALL   ??Subroutine39_0 & 0xFFFF
??CrossCallReturnLabel_83:
        MOV     R2,A
        INC     DPTR
        MOVX    A,@DPTR
        MOV     R3,A
        MOV     A,R2
        XCH     A,R3
        MOV     R4,A
        LCALL   ?Subroutine10 & 0xFFFF
??CrossCallReturnLabel_9:
        MOVX    @DPTR,A
        INC     DPTR
        MOV     A,R4
        MOVX    @DPTR,A
        INC     DPTR
        CLR     A
        MOVX    @DPTR,A
//  521     *pStepVal_256 = 0;
        MOV     DPL,R6
        MOV     DPH,R7
        LCALL   ??Subroutine33_0 & 0xFFFF
//  522   }
??CrossCallReturnLabel_52:
        SJMP    ??CrossCallReturnLabel_20
//  523   else if (*pRemainingTime != 0xFFFF)
??hwLight_ApplyUpdate16b_7:
        MOV     A,#-0x1
        XRL     A,R2
        JNZ     ??hwLight_ApplyUpdate16b_8
        MOV     A,#-0x1
        XRL     A,R3
??hwLight_ApplyUpdate16b_8:
        JZ      ??hwLight_ApplyUpdate16b_9
//  524   {
//  525     *pRemainingTime = *pRemainingTime-1;
        LCALL   ?Subroutine16 & 0xFFFF
//  526   }
??CrossCallReturnLabel_20:
        MOVX    @DPTR,A
//  527 
//  528   hwLight_Refresh( REFRESH_AUTO );
??hwLight_ApplyUpdate16b_9:
        ; Setup parameters for call to function hwLight_Refresh
        MOV     R1,#0x0
        LCALL   ??hwLight_Refresh?relay
//  529   SCENE_INVALID();
        MOV     DPTR,#zllSampleLight_SceneValid
        CLR     A
        MOVX    @DPTR,A
//  530 }
        MOV     A,#0x9
          CFI EndBlock cfiBlock66
        REQUIRE ?Subroutine0
        ; // Fall through to label ?Subroutine0

        RSEG BANKED_CODE:CODE:NOROOT(0)
?Subroutine0:
          CFI Block cfiBlock67 Using cfiCommon0
          CFI NoFunction
          CFI CFA_SP SP+0
          CFI CFA_XSP16 add(XSP16, 40)
          CFI VB load(1, XDATA, add(CFA_XSP16, literal(-23)))
          CFI DPL0 load(1, XDATA, add(CFA_XSP16, literal(-2)))
          CFI DPH0 load(1, XDATA, add(CFA_XSP16, literal(-1)))
          CFI R6 load(1, XDATA, add(CFA_XSP16, literal(-24)))
          CFI R7 load(1, XDATA, add(CFA_XSP16, literal(-6)))
          CFI V0 load(1, XDATA, add(CFA_XSP16, literal(-22)))
          CFI V1 load(1, XDATA, add(CFA_XSP16, literal(-21)))
          CFI V2 load(1, XDATA, add(CFA_XSP16, literal(-20)))
          CFI V3 load(1, XDATA, add(CFA_XSP16, literal(-19)))
          CFI V4 load(1, XDATA, add(CFA_XSP16, literal(-18)))
          CFI V5 load(1, XDATA, add(CFA_XSP16, literal(-17)))
          CFI V6 load(1, XDATA, add(CFA_XSP16, literal(-16)))
          CFI V7 load(1, XDATA, add(CFA_XSP16, literal(-15)))
          CFI V8 load(1, XDATA, add(CFA_XSP16, literal(-14)))
          CFI V9 load(1, XDATA, add(CFA_XSP16, literal(-13)))
          CFI V10 load(1, XDATA, add(CFA_XSP16, literal(-12)))
          CFI V11 load(1, XDATA, add(CFA_XSP16, literal(-11)))
          CFI V12 load(1, XDATA, add(CFA_XSP16, literal(-10)))
          CFI V13 load(1, XDATA, add(CFA_XSP16, literal(-9)))
          CFI V14 load(1, XDATA, add(CFA_XSP16, literal(-8)))
          CFI V15 load(1, XDATA, add(CFA_XSP16, literal(-7)))
          CFI ?BRET_EXT load(1, XDATA, add(CFA_XSP16, literal(-3)))
          CFI ?RET_HIGH load(1, XDATA, add(CFA_XSP16, literal(-4)))
          CFI ?RET_LOW load(1, XDATA, add(CFA_XSP16, literal(-5)))
          CFI Invalid
        LCALL   ?DEALLOC_XSTACK8
          CFI CFA_XSP16 add(XSP16, 24)
          CFI Valid
        MOV     R7,#0x10
        LJMP    ?BANKED_LEAVE_XDATA
          CFI EndBlock cfiBlock67

        RSEG BANKED_CODE:CODE:NOROOT(0)
?Subroutine29:
          CFI Block cfiCond68 Using cfiCommon0
          CFI Function hwLight_RGB_to_RGBW
          CFI Conditional ??CrossCallReturnLabel_44
          CFI R6 load(1, XDATA, add(CFA_XSP16, literal(-22)))
          CFI VB load(1, XDATA, add(CFA_XSP16, literal(-21)))
          CFI V0 load(1, XDATA, add(CFA_XSP16, literal(-20)))
          CFI V1 load(1, XDATA, add(CFA_XSP16, literal(-19)))
          CFI V2 load(1, XDATA, add(CFA_XSP16, literal(-18)))
          CFI V3 load(1, XDATA, add(CFA_XSP16, literal(-17)))
          CFI V4 load(1, XDATA, add(CFA_XSP16, literal(-16)))
          CFI V5 load(1, XDATA, add(CFA_XSP16, literal(-15)))
          CFI V6 load(1, XDATA, add(CFA_XSP16, literal(-14)))
          CFI V7 load(1, XDATA, add(CFA_XSP16, literal(-13)))
          CFI V8 load(1, XDATA, add(CFA_XSP16, literal(-12)))
          CFI V9 load(1, XDATA, add(CFA_XSP16, literal(-11)))
          CFI V10 load(1, XDATA, add(CFA_XSP16, literal(-10)))
          CFI V11 load(1, XDATA, add(CFA_XSP16, literal(-9)))
          CFI V12 load(1, XDATA, add(CFA_XSP16, literal(-8)))
          CFI V13 load(1, XDATA, add(CFA_XSP16, literal(-7)))
          CFI R7 load(1, XDATA, add(CFA_XSP16, literal(-6)))
          CFI ?RET_LOW load(1, XDATA, add(CFA_XSP16, literal(-5)))
          CFI ?RET_HIGH load(1, XDATA, add(CFA_XSP16, literal(-4)))
          CFI ?BRET_EXT load(1, XDATA, add(CFA_XSP16, literal(-3)))
          CFI DPL0 load(1, XDATA, add(CFA_XSP16, literal(-2)))
          CFI DPH0 load(1, XDATA, add(CFA_XSP16, literal(-1)))
          CFI CFA_SP SP+0
          CFI CFA_XSP16 add(XSP16, 22)
          CFI Block cfiCond69 Using cfiCommon0
          CFI (cfiCond69) Function hwLight_UpdateLampColorHueSat
          CFI (cfiCond69) Conditional ??CrossCallReturnLabel_45
          CFI (cfiCond69) R6 load(1, XDATA, add(CFA_XSP16, literal(-9)))
          CFI (cfiCond69) VB load(1, XDATA, add(CFA_XSP16, literal(-8)))
          CFI (cfiCond69) V0 load(1, XDATA, add(CFA_XSP16, literal(-7)))
          CFI (cfiCond69) R7 load(1, XDATA, add(CFA_XSP16, literal(-6)))
          CFI (cfiCond69) ?RET_LOW load(1, XDATA, add(CFA_XSP16, literal(-5)))
          CFI (cfiCond69) ?RET_HIGH load(1, XDATA, add(CFA_XSP16, literal(-4)))
          CFI (cfiCond69) ?BRET_EXT load(1, XDATA, add(CFA_XSP16, literal(-3)))
          CFI (cfiCond69) DPL0 load(1, XDATA, add(CFA_XSP16, literal(-2)))
          CFI (cfiCond69) DPH0 load(1, XDATA, add(CFA_XSP16, literal(-1)))
          CFI (cfiCond69) CFA_SP SP+0
          CFI (cfiCond69) CFA_XSP16 add(XSP16, 13)
          CFI Block cfiCond70 Using cfiCommon0
          CFI (cfiCond70) Function hwLight_ApplyUpdate16b
          CFI (cfiCond70) Conditional ??CrossCallReturnLabel_46
          CFI (cfiCond70) R6 load(1, XDATA, add(CFA_XSP16, literal(-24)))
          CFI (cfiCond70) VB load(1, XDATA, add(CFA_XSP16, literal(-23)))
          CFI (cfiCond70) V0 load(1, XDATA, add(CFA_XSP16, literal(-22)))
          CFI (cfiCond70) V1 load(1, XDATA, add(CFA_XSP16, literal(-21)))
          CFI (cfiCond70) V2 load(1, XDATA, add(CFA_XSP16, literal(-20)))
          CFI (cfiCond70) V3 load(1, XDATA, add(CFA_XSP16, literal(-19)))
          CFI (cfiCond70) V4 load(1, XDATA, add(CFA_XSP16, literal(-18)))
          CFI (cfiCond70) V5 load(1, XDATA, add(CFA_XSP16, literal(-17)))
          CFI (cfiCond70) V6 load(1, XDATA, add(CFA_XSP16, literal(-16)))
          CFI (cfiCond70) V7 load(1, XDATA, add(CFA_XSP16, literal(-15)))
          CFI (cfiCond70) V8 load(1, XDATA, add(CFA_XSP16, literal(-14)))
          CFI (cfiCond70) V9 load(1, XDATA, add(CFA_XSP16, literal(-13)))
          CFI (cfiCond70) V10 load(1, XDATA, add(CFA_XSP16, literal(-12)))
          CFI (cfiCond70) V11 load(1, XDATA, add(CFA_XSP16, literal(-11)))
          CFI (cfiCond70) V12 load(1, XDATA, add(CFA_XSP16, literal(-10)))
          CFI (cfiCond70) V13 load(1, XDATA, add(CFA_XSP16, literal(-9)))
          CFI (cfiCond70) V14 load(1, XDATA, add(CFA_XSP16, literal(-8)))
          CFI (cfiCond70) V15 load(1, XDATA, add(CFA_XSP16, literal(-7)))
          CFI (cfiCond70) R7 load(1, XDATA, add(CFA_XSP16, literal(-6)))
          CFI (cfiCond70) ?RET_LOW load(1, XDATA, add(CFA_XSP16, literal(-5)))
          CFI (cfiCond70) ?RET_HIGH load(1, XDATA, add(CFA_XSP16, literal(-4)))
          CFI (cfiCond70) ?BRET_EXT load(1, XDATA, add(CFA_XSP16, literal(-3)))
          CFI (cfiCond70) DPL0 load(1, XDATA, add(CFA_XSP16, literal(-2)))
          CFI (cfiCond70) DPH0 load(1, XDATA, add(CFA_XSP16, literal(-1)))
          CFI (cfiCond70) CFA_SP SP+0
          CFI (cfiCond70) CFA_XSP16 add(XSP16, 33)
          CFI Block cfiCond71 Using cfiCommon0
          CFI (cfiCond71) Function hwLight_UpdateColorMode
          CFI (cfiCond71) Conditional ??CrossCallReturnLabel_47, ??CrossCallReturnLabel_63
          CFI (cfiCond71) R6 load(1, XDATA, add(CFA_XSP16, literal(-20)))
          CFI (cfiCond71) VB load(1, XDATA, add(CFA_XSP16, literal(-19)))
          CFI (cfiCond71) V0 load(1, XDATA, add(CFA_XSP16, literal(-18)))
          CFI (cfiCond71) V1 load(1, XDATA, add(CFA_XSP16, literal(-17)))
          CFI (cfiCond71) V2 load(1, XDATA, add(CFA_XSP16, literal(-16)))
          CFI (cfiCond71) V3 load(1, XDATA, add(CFA_XSP16, literal(-15)))
          CFI (cfiCond71) V4 load(1, XDATA, add(CFA_XSP16, literal(-14)))
          CFI (cfiCond71) V5 load(1, XDATA, add(CFA_XSP16, literal(-13)))
          CFI (cfiCond71) V6 load(1, XDATA, add(CFA_XSP16, literal(-12)))
          CFI (cfiCond71) V7 load(1, XDATA, add(CFA_XSP16, literal(-11)))
          CFI (cfiCond71) V8 load(1, XDATA, add(CFA_XSP16, literal(-10)))
          CFI (cfiCond71) V9 load(1, XDATA, add(CFA_XSP16, literal(-9)))
          CFI (cfiCond71) V10 load(1, XDATA, add(CFA_XSP16, literal(-8)))
          CFI (cfiCond71) V11 load(1, XDATA, add(CFA_XSP16, literal(-7)))
          CFI (cfiCond71) R7 load(1, XDATA, add(CFA_XSP16, literal(-6)))
          CFI (cfiCond71) ?RET_LOW load(1, XDATA, add(CFA_XSP16, literal(-5)))
          CFI (cfiCond71) ?RET_HIGH load(1, XDATA, add(CFA_XSP16, literal(-4)))
          CFI (cfiCond71) ?BRET_EXT load(1, XDATA, add(CFA_XSP16, literal(-3)))
          CFI (cfiCond71) DPL0 load(1, XDATA, add(CFA_XSP16, literal(-2)))
          CFI (cfiCond71) DPH0 load(1, XDATA, add(CFA_XSP16, literal(-1)))
          CFI (cfiCond71) CFA_SP SP+0
          CFI (cfiCond71) CFA_XSP16 add(XSP16, 20)
          CFI Block cfiCond72 Using cfiCommon0
          CFI (cfiCond72) Function hwLight_Refresh
          CFI (cfiCond72) Conditional ??CrossCallReturnLabel_47, ??CrossCallReturnLabel_64
          CFI (cfiCond72) R6 load(1, XDATA, add(CFA_XSP16, literal(-9)))
          CFI (cfiCond72) VB load(1, XDATA, add(CFA_XSP16, literal(-8)))
          CFI (cfiCond72) V0 load(1, XDATA, add(CFA_XSP16, literal(-7)))
          CFI (cfiCond72) R7 load(1, XDATA, add(CFA_XSP16, literal(-6)))
          CFI (cfiCond72) ?RET_LOW load(1, XDATA, add(CFA_XSP16, literal(-5)))
          CFI (cfiCond72) ?RET_HIGH load(1, XDATA, add(CFA_XSP16, literal(-4)))
          CFI (cfiCond72) ?BRET_EXT load(1, XDATA, add(CFA_XSP16, literal(-3)))
          CFI (cfiCond72) DPL0 load(1, XDATA, add(CFA_XSP16, literal(-2)))
          CFI (cfiCond72) DPH0 load(1, XDATA, add(CFA_XSP16, literal(-1)))
          CFI (cfiCond72) CFA_SP SP+0
          CFI (cfiCond72) CFA_XSP16 add(XSP16, 9)
          CFI Block cfiPicker73 Using cfiCommon1
          CFI (cfiPicker73) NoFunction
          CFI (cfiPicker73) Picker
        MOVX    A,@DPTR
        MOV     R4,A
        INC     DPTR
        MOVX    A,@DPTR
        MOV     R5,A
        RET
          CFI EndBlock cfiCond68
          CFI EndBlock cfiCond69
          CFI EndBlock cfiCond70
          CFI EndBlock cfiCond71
          CFI EndBlock cfiCond72
          CFI EndBlock cfiPicker73

        RSEG BANKED_CODE:CODE:NOROOT(0)
?Subroutine8:
          CFI Block cfiCond74 Using cfiCommon0
          CFI Function hwLight_Convert_xyY_to_RGB
          CFI Conditional ??CrossCallReturnLabel_4
          CFI R6 load(1, XDATA, add(CFA_XSP16, literal(-24)))
          CFI VB load(1, XDATA, add(CFA_XSP16, literal(-23)))
          CFI V0 load(1, XDATA, add(CFA_XSP16, literal(-22)))
          CFI V1 load(1, XDATA, add(CFA_XSP16, literal(-21)))
          CFI V2 load(1, XDATA, add(CFA_XSP16, literal(-20)))
          CFI V3 load(1, XDATA, add(CFA_XSP16, literal(-19)))
          CFI V4 load(1, XDATA, add(CFA_XSP16, literal(-18)))
          CFI V5 load(1, XDATA, add(CFA_XSP16, literal(-17)))
          CFI V6 load(1, XDATA, add(CFA_XSP16, literal(-16)))
          CFI V7 load(1, XDATA, add(CFA_XSP16, literal(-15)))
          CFI V8 load(1, XDATA, add(CFA_XSP16, literal(-14)))
          CFI V9 load(1, XDATA, add(CFA_XSP16, literal(-13)))
          CFI V10 load(1, XDATA, add(CFA_XSP16, literal(-12)))
          CFI V11 load(1, XDATA, add(CFA_XSP16, literal(-11)))
          CFI V12 load(1, XDATA, add(CFA_XSP16, literal(-10)))
          CFI V13 load(1, XDATA, add(CFA_XSP16, literal(-9)))
          CFI V14 load(1, XDATA, add(CFA_XSP16, literal(-8)))
          CFI V15 load(1, XDATA, add(CFA_XSP16, literal(-7)))
          CFI R7 load(1, XDATA, add(CFA_XSP16, literal(-6)))
          CFI ?RET_LOW load(1, XDATA, add(CFA_XSP16, literal(-5)))
          CFI ?RET_HIGH load(1, XDATA, add(CFA_XSP16, literal(-4)))
          CFI ?BRET_EXT load(1, XDATA, add(CFA_XSP16, literal(-3)))
          CFI DPL0 load(1, XDATA, add(CFA_XSP16, literal(-2)))
          CFI DPH0 load(1, XDATA, add(CFA_XSP16, literal(-1)))
          CFI CFA_SP SP+0
          CFI CFA_XSP16 add(XSP16, 40)
          CFI Block cfiCond75 Using cfiCommon0
          CFI (cfiCond75) Function hwLight_ApplyUpdate16b
          CFI (cfiCond75) Conditional ??CrossCallReturnLabel_5
          CFI (cfiCond75) R6 load(1, XDATA, add(CFA_XSP16, literal(-24)))
          CFI (cfiCond75) VB load(1, XDATA, add(CFA_XSP16, literal(-23)))
          CFI (cfiCond75) V0 load(1, XDATA, add(CFA_XSP16, literal(-22)))
          CFI (cfiCond75) V1 load(1, XDATA, add(CFA_XSP16, literal(-21)))
          CFI (cfiCond75) V2 load(1, XDATA, add(CFA_XSP16, literal(-20)))
          CFI (cfiCond75) V3 load(1, XDATA, add(CFA_XSP16, literal(-19)))
          CFI (cfiCond75) V4 load(1, XDATA, add(CFA_XSP16, literal(-18)))
          CFI (cfiCond75) V5 load(1, XDATA, add(CFA_XSP16, literal(-17)))
          CFI (cfiCond75) V6 load(1, XDATA, add(CFA_XSP16, literal(-16)))
          CFI (cfiCond75) V7 load(1, XDATA, add(CFA_XSP16, literal(-15)))
          CFI (cfiCond75) V8 load(1, XDATA, add(CFA_XSP16, literal(-14)))
          CFI (cfiCond75) V9 load(1, XDATA, add(CFA_XSP16, literal(-13)))
          CFI (cfiCond75) V10 load(1, XDATA, add(CFA_XSP16, literal(-12)))
          CFI (cfiCond75) V11 load(1, XDATA, add(CFA_XSP16, literal(-11)))
          CFI (cfiCond75) V12 load(1, XDATA, add(CFA_XSP16, literal(-10)))
          CFI (cfiCond75) V13 load(1, XDATA, add(CFA_XSP16, literal(-9)))
          CFI (cfiCond75) V14 load(1, XDATA, add(CFA_XSP16, literal(-8)))
          CFI (cfiCond75) V15 load(1, XDATA, add(CFA_XSP16, literal(-7)))
          CFI (cfiCond75) R7 load(1, XDATA, add(CFA_XSP16, literal(-6)))
          CFI (cfiCond75) ?RET_LOW load(1, XDATA, add(CFA_XSP16, literal(-5)))
          CFI (cfiCond75) ?RET_HIGH load(1, XDATA, add(CFA_XSP16, literal(-4)))
          CFI (cfiCond75) ?BRET_EXT load(1, XDATA, add(CFA_XSP16, literal(-3)))
          CFI (cfiCond75) DPL0 load(1, XDATA, add(CFA_XSP16, literal(-2)))
          CFI (cfiCond75) DPH0 load(1, XDATA, add(CFA_XSP16, literal(-1)))
          CFI (cfiCond75) CFA_SP SP+0
          CFI (cfiCond75) CFA_XSP16 add(XSP16, 33)
          CFI Block cfiPicker76 Using cfiCommon1
          CFI (cfiPicker76) NoFunction
          CFI (cfiPicker76) Picker
        LCALL   ?Subroutine28 & 0xFFFF
??CrossCallReturnLabel_89:
        MOV     A,?V0 + 0
        MOVX    @DPTR,A
        INC     DPTR
        MOV     A,?V0 + 1
        MOVX    @DPTR,A
        RET
          CFI EndBlock cfiCond74
          CFI EndBlock cfiCond75
          CFI EndBlock cfiPicker76

        RSEG BANKED_CODE:CODE:NOROOT(0)
?Subroutine6:
          CFI Block cfiCond77 Using cfiCommon0
          CFI Function hwLight_UpdateColorMode
          CFI Conditional ??CrossCallReturnLabel_63
          CFI R6 load(1, XDATA, add(CFA_XSP16, literal(-20)))
          CFI VB load(1, XDATA, add(CFA_XSP16, literal(-19)))
          CFI V0 load(1, XDATA, add(CFA_XSP16, literal(-18)))
          CFI V1 load(1, XDATA, add(CFA_XSP16, literal(-17)))
          CFI V2 load(1, XDATA, add(CFA_XSP16, literal(-16)))
          CFI V3 load(1, XDATA, add(CFA_XSP16, literal(-15)))
          CFI V4 load(1, XDATA, add(CFA_XSP16, literal(-14)))
          CFI V5 load(1, XDATA, add(CFA_XSP16, literal(-13)))
          CFI V6 load(1, XDATA, add(CFA_XSP16, literal(-12)))
          CFI V7 load(1, XDATA, add(CFA_XSP16, literal(-11)))
          CFI V8 load(1, XDATA, add(CFA_XSP16, literal(-10)))
          CFI V9 load(1, XDATA, add(CFA_XSP16, literal(-9)))
          CFI V10 load(1, XDATA, add(CFA_XSP16, literal(-8)))
          CFI V11 load(1, XDATA, add(CFA_XSP16, literal(-7)))
          CFI R7 load(1, XDATA, add(CFA_XSP16, literal(-6)))
          CFI ?RET_LOW load(1, XDATA, add(CFA_XSP16, literal(-5)))
          CFI ?RET_HIGH load(1, XDATA, add(CFA_XSP16, literal(-4)))
          CFI ?BRET_EXT load(1, XDATA, add(CFA_XSP16, literal(-3)))
          CFI DPL0 load(1, XDATA, add(CFA_XSP16, literal(-2)))
          CFI DPH0 load(1, XDATA, add(CFA_XSP16, literal(-1)))
          CFI CFA_SP SP+0
          CFI CFA_XSP16 add(XSP16, 20)
          CFI Block cfiCond78 Using cfiCommon0
          CFI (cfiCond78) Function hwLight_Refresh
          CFI (cfiCond78) Conditional ??CrossCallReturnLabel_64
          CFI (cfiCond78) R6 load(1, XDATA, add(CFA_XSP16, literal(-9)))
          CFI (cfiCond78) VB load(1, XDATA, add(CFA_XSP16, literal(-8)))
          CFI (cfiCond78) V0 load(1, XDATA, add(CFA_XSP16, literal(-7)))
          CFI (cfiCond78) R7 load(1, XDATA, add(CFA_XSP16, literal(-6)))
          CFI (cfiCond78) ?RET_LOW load(1, XDATA, add(CFA_XSP16, literal(-5)))
          CFI (cfiCond78) ?RET_HIGH load(1, XDATA, add(CFA_XSP16, literal(-4)))
          CFI (cfiCond78) ?BRET_EXT load(1, XDATA, add(CFA_XSP16, literal(-3)))
          CFI (cfiCond78) DPL0 load(1, XDATA, add(CFA_XSP16, literal(-2)))
          CFI (cfiCond78) DPH0 load(1, XDATA, add(CFA_XSP16, literal(-1)))
          CFI (cfiCond78) CFA_SP SP+0
          CFI (cfiCond78) CFA_XSP16 add(XSP16, 9)
          CFI Block cfiPicker79 Using cfiCommon1
          CFI (cfiPicker79) NoFunction
          CFI (cfiPicker79) Picker
        MOV     DPTR,#zclColor_CurrentY
        LCALL   ?Subroutine29 & 0xFFFF
??CrossCallReturnLabel_47:
        MOV     DPTR,#zclColor_CurrentX
          CFI EndBlock cfiCond77
          CFI EndBlock cfiCond78
          CFI EndBlock cfiPicker79
        REQUIRE ??Subroutine34_0
        ; // Fall through to label ??Subroutine34_0

        RSEG BANKED_CODE:CODE:NOROOT(0)
??Subroutine34_0:
          CFI Block cfiCond80 Using cfiCommon0
          CFI Function hwLight_UpdateLampColor
          CFI Conditional ??CrossCallReturnLabel_56
          CFI R6 load(1, XDATA, add(CFA_XSP16, literal(-16)))
          CFI VB load(1, XDATA, add(CFA_XSP16, literal(-15)))
          CFI V0 load(1, XDATA, add(CFA_XSP16, literal(-14)))
          CFI V1 load(1, XDATA, add(CFA_XSP16, literal(-13)))
          CFI V2 load(1, XDATA, add(CFA_XSP16, literal(-12)))
          CFI V3 load(1, XDATA, add(CFA_XSP16, literal(-11)))
          CFI V4 load(1, XDATA, add(CFA_XSP16, literal(-10)))
          CFI V5 load(1, XDATA, add(CFA_XSP16, literal(-9)))
          CFI V6 load(1, XDATA, add(CFA_XSP16, literal(-8)))
          CFI V7 load(1, XDATA, add(CFA_XSP16, literal(-7)))
          CFI R7 load(1, XDATA, add(CFA_XSP16, literal(-6)))
          CFI ?RET_LOW load(1, XDATA, add(CFA_XSP16, literal(-5)))
          CFI ?RET_HIGH load(1, XDATA, add(CFA_XSP16, literal(-4)))
          CFI ?BRET_EXT load(1, XDATA, add(CFA_XSP16, literal(-3)))
          CFI DPL0 load(1, XDATA, add(CFA_XSP16, literal(-2)))
          CFI DPH0 load(1, XDATA, add(CFA_XSP16, literal(-1)))
          CFI CFA_SP SP+0
          CFI CFA_XSP16 add(XSP16, 24)
          CFI Block cfiCond81 Using cfiCommon0
          CFI (cfiCond81) Function hwLight_UpdateLampColor
          CFI (cfiCond81) Conditional ??CrossCallReturnLabel_57
          CFI (cfiCond81) R6 load(1, XDATA, add(CFA_XSP16, literal(-16)))
          CFI (cfiCond81) VB load(1, XDATA, add(CFA_XSP16, literal(-15)))
          CFI (cfiCond81) V0 load(1, XDATA, add(CFA_XSP16, literal(-14)))
          CFI (cfiCond81) V1 load(1, XDATA, add(CFA_XSP16, literal(-13)))
          CFI (cfiCond81) V2 load(1, XDATA, add(CFA_XSP16, literal(-12)))
          CFI (cfiCond81) V3 load(1, XDATA, add(CFA_XSP16, literal(-11)))
          CFI (cfiCond81) V4 load(1, XDATA, add(CFA_XSP16, literal(-10)))
          CFI (cfiCond81) V5 load(1, XDATA, add(CFA_XSP16, literal(-9)))
          CFI (cfiCond81) V6 load(1, XDATA, add(CFA_XSP16, literal(-8)))
          CFI (cfiCond81) V7 load(1, XDATA, add(CFA_XSP16, literal(-7)))
          CFI (cfiCond81) R7 load(1, XDATA, add(CFA_XSP16, literal(-6)))
          CFI (cfiCond81) ?RET_LOW load(1, XDATA, add(CFA_XSP16, literal(-5)))
          CFI (cfiCond81) ?RET_HIGH load(1, XDATA, add(CFA_XSP16, literal(-4)))
          CFI (cfiCond81) ?BRET_EXT load(1, XDATA, add(CFA_XSP16, literal(-3)))
          CFI (cfiCond81) DPL0 load(1, XDATA, add(CFA_XSP16, literal(-2)))
          CFI (cfiCond81) DPH0 load(1, XDATA, add(CFA_XSP16, literal(-1)))
          CFI (cfiCond81) CFA_SP SP+0
          CFI (cfiCond81) CFA_XSP16 add(XSP16, 24)
          CFI Block cfiCond82 Using cfiCommon0
          CFI (cfiCond82) Function hwLight_UpdateLampColor
          CFI (cfiCond82) Conditional ??CrossCallReturnLabel_58
          CFI (cfiCond82) R6 load(1, XDATA, add(CFA_XSP16, literal(-16)))
          CFI (cfiCond82) VB load(1, XDATA, add(CFA_XSP16, literal(-15)))
          CFI (cfiCond82) V0 load(1, XDATA, add(CFA_XSP16, literal(-14)))
          CFI (cfiCond82) V1 load(1, XDATA, add(CFA_XSP16, literal(-13)))
          CFI (cfiCond82) V2 load(1, XDATA, add(CFA_XSP16, literal(-12)))
          CFI (cfiCond82) V3 load(1, XDATA, add(CFA_XSP16, literal(-11)))
          CFI (cfiCond82) V4 load(1, XDATA, add(CFA_XSP16, literal(-10)))
          CFI (cfiCond82) V5 load(1, XDATA, add(CFA_XSP16, literal(-9)))
          CFI (cfiCond82) V6 load(1, XDATA, add(CFA_XSP16, literal(-8)))
          CFI (cfiCond82) V7 load(1, XDATA, add(CFA_XSP16, literal(-7)))
          CFI (cfiCond82) R7 load(1, XDATA, add(CFA_XSP16, literal(-6)))
          CFI (cfiCond82) ?RET_LOW load(1, XDATA, add(CFA_XSP16, literal(-5)))
          CFI (cfiCond82) ?RET_HIGH load(1, XDATA, add(CFA_XSP16, literal(-4)))
          CFI (cfiCond82) ?BRET_EXT load(1, XDATA, add(CFA_XSP16, literal(-3)))
          CFI (cfiCond82) DPL0 load(1, XDATA, add(CFA_XSP16, literal(-2)))
          CFI (cfiCond82) DPH0 load(1, XDATA, add(CFA_XSP16, literal(-1)))
          CFI (cfiCond82) CFA_SP SP+0
          CFI (cfiCond82) CFA_XSP16 add(XSP16, 24)
          CFI Block cfiCond83 Using cfiCommon0
          CFI (cfiCond83) Function hwLight_UpdateLampColor
          CFI (cfiCond83) Conditional ??CrossCallReturnLabel_59
          CFI (cfiCond83) R6 load(1, XDATA, add(CFA_XSP16, literal(-16)))
          CFI (cfiCond83) VB load(1, XDATA, add(CFA_XSP16, literal(-15)))
          CFI (cfiCond83) V0 load(1, XDATA, add(CFA_XSP16, literal(-14)))
          CFI (cfiCond83) V1 load(1, XDATA, add(CFA_XSP16, literal(-13)))
          CFI (cfiCond83) V2 load(1, XDATA, add(CFA_XSP16, literal(-12)))
          CFI (cfiCond83) V3 load(1, XDATA, add(CFA_XSP16, literal(-11)))
          CFI (cfiCond83) V4 load(1, XDATA, add(CFA_XSP16, literal(-10)))
          CFI (cfiCond83) V5 load(1, XDATA, add(CFA_XSP16, literal(-9)))
          CFI (cfiCond83) V6 load(1, XDATA, add(CFA_XSP16, literal(-8)))
          CFI (cfiCond83) V7 load(1, XDATA, add(CFA_XSP16, literal(-7)))
          CFI (cfiCond83) R7 load(1, XDATA, add(CFA_XSP16, literal(-6)))
          CFI (cfiCond83) ?RET_LOW load(1, XDATA, add(CFA_XSP16, literal(-5)))
          CFI (cfiCond83) ?RET_HIGH load(1, XDATA, add(CFA_XSP16, literal(-4)))
          CFI (cfiCond83) ?BRET_EXT load(1, XDATA, add(CFA_XSP16, literal(-3)))
          CFI (cfiCond83) DPL0 load(1, XDATA, add(CFA_XSP16, literal(-2)))
          CFI (cfiCond83) DPH0 load(1, XDATA, add(CFA_XSP16, literal(-1)))
          CFI (cfiCond83) CFA_SP SP+0
          CFI (cfiCond83) CFA_XSP16 add(XSP16, 24)
          CFI Block cfiCond84 Using cfiCommon0
          CFI (cfiCond84) Function hwLight_RGB_to_RGBW
          CFI (cfiCond84) Conditional ??CrossCallReturnLabel_60
          CFI (cfiCond84) R6 load(1, XDATA, add(CFA_XSP16, literal(-22)))
          CFI (cfiCond84) VB load(1, XDATA, add(CFA_XSP16, literal(-21)))
          CFI (cfiCond84) V0 load(1, XDATA, add(CFA_XSP16, literal(-20)))
          CFI (cfiCond84) V1 load(1, XDATA, add(CFA_XSP16, literal(-19)))
          CFI (cfiCond84) V2 load(1, XDATA, add(CFA_XSP16, literal(-18)))
          CFI (cfiCond84) V3 load(1, XDATA, add(CFA_XSP16, literal(-17)))
          CFI (cfiCond84) V4 load(1, XDATA, add(CFA_XSP16, literal(-16)))
          CFI (cfiCond84) V5 load(1, XDATA, add(CFA_XSP16, literal(-15)))
          CFI (cfiCond84) V6 load(1, XDATA, add(CFA_XSP16, literal(-14)))
          CFI (cfiCond84) V7 load(1, XDATA, add(CFA_XSP16, literal(-13)))
          CFI (cfiCond84) V8 load(1, XDATA, add(CFA_XSP16, literal(-12)))
          CFI (cfiCond84) V9 load(1, XDATA, add(CFA_XSP16, literal(-11)))
          CFI (cfiCond84) V10 load(1, XDATA, add(CFA_XSP16, literal(-10)))
          CFI (cfiCond84) V11 load(1, XDATA, add(CFA_XSP16, literal(-9)))
          CFI (cfiCond84) V12 load(1, XDATA, add(CFA_XSP16, literal(-8)))
          CFI (cfiCond84) V13 load(1, XDATA, add(CFA_XSP16, literal(-7)))
          CFI (cfiCond84) R7 load(1, XDATA, add(CFA_XSP16, literal(-6)))
          CFI (cfiCond84) ?RET_LOW load(1, XDATA, add(CFA_XSP16, literal(-5)))
          CFI (cfiCond84) ?RET_HIGH load(1, XDATA, add(CFA_XSP16, literal(-4)))
          CFI (cfiCond84) ?BRET_EXT load(1, XDATA, add(CFA_XSP16, literal(-3)))
          CFI (cfiCond84) DPL0 load(1, XDATA, add(CFA_XSP16, literal(-2)))
          CFI (cfiCond84) DPH0 load(1, XDATA, add(CFA_XSP16, literal(-1)))
          CFI (cfiCond84) CFA_SP SP+0
          CFI (cfiCond84) CFA_XSP16 add(XSP16, 22)
          CFI Block cfiCond85 Using cfiCommon0
          CFI (cfiCond85) Function hwLight_UpdateLampColorHueSat
          CFI (cfiCond85) Conditional ??CrossCallReturnLabel_61
          CFI (cfiCond85) R6 load(1, XDATA, add(CFA_XSP16, literal(-9)))
          CFI (cfiCond85) VB load(1, XDATA, add(CFA_XSP16, literal(-8)))
          CFI (cfiCond85) V0 load(1, XDATA, add(CFA_XSP16, literal(-7)))
          CFI (cfiCond85) R7 load(1, XDATA, add(CFA_XSP16, literal(-6)))
          CFI (cfiCond85) ?RET_LOW load(1, XDATA, add(CFA_XSP16, literal(-5)))
          CFI (cfiCond85) ?RET_HIGH load(1, XDATA, add(CFA_XSP16, literal(-4)))
          CFI (cfiCond85) ?BRET_EXT load(1, XDATA, add(CFA_XSP16, literal(-3)))
          CFI (cfiCond85) DPL0 load(1, XDATA, add(CFA_XSP16, literal(-2)))
          CFI (cfiCond85) DPH0 load(1, XDATA, add(CFA_XSP16, literal(-1)))
          CFI (cfiCond85) CFA_SP SP+0
          CFI (cfiCond85) CFA_XSP16 add(XSP16, 13)
          CFI Block cfiCond86 Using cfiCommon0
          CFI (cfiCond86) Function hwLight_ApplyUpdate16b
          CFI (cfiCond86) Conditional ??CrossCallReturnLabel_62
          CFI (cfiCond86) R6 load(1, XDATA, add(CFA_XSP16, literal(-24)))
          CFI (cfiCond86) VB load(1, XDATA, add(CFA_XSP16, literal(-23)))
          CFI (cfiCond86) V0 load(1, XDATA, add(CFA_XSP16, literal(-22)))
          CFI (cfiCond86) V1 load(1, XDATA, add(CFA_XSP16, literal(-21)))
          CFI (cfiCond86) V2 load(1, XDATA, add(CFA_XSP16, literal(-20)))
          CFI (cfiCond86) V3 load(1, XDATA, add(CFA_XSP16, literal(-19)))
          CFI (cfiCond86) V4 load(1, XDATA, add(CFA_XSP16, literal(-18)))
          CFI (cfiCond86) V5 load(1, XDATA, add(CFA_XSP16, literal(-17)))
          CFI (cfiCond86) V6 load(1, XDATA, add(CFA_XSP16, literal(-16)))
          CFI (cfiCond86) V7 load(1, XDATA, add(CFA_XSP16, literal(-15)))
          CFI (cfiCond86) V8 load(1, XDATA, add(CFA_XSP16, literal(-14)))
          CFI (cfiCond86) V9 load(1, XDATA, add(CFA_XSP16, literal(-13)))
          CFI (cfiCond86) V10 load(1, XDATA, add(CFA_XSP16, literal(-12)))
          CFI (cfiCond86) V11 load(1, XDATA, add(CFA_XSP16, literal(-11)))
          CFI (cfiCond86) V12 load(1, XDATA, add(CFA_XSP16, literal(-10)))
          CFI (cfiCond86) V13 load(1, XDATA, add(CFA_XSP16, literal(-9)))
          CFI (cfiCond86) V14 load(1, XDATA, add(CFA_XSP16, literal(-8)))
          CFI (cfiCond86) V15 load(1, XDATA, add(CFA_XSP16, literal(-7)))
          CFI (cfiCond86) R7 load(1, XDATA, add(CFA_XSP16, literal(-6)))
          CFI (cfiCond86) ?RET_LOW load(1, XDATA, add(CFA_XSP16, literal(-5)))
          CFI (cfiCond86) ?RET_HIGH load(1, XDATA, add(CFA_XSP16, literal(-4)))
          CFI (cfiCond86) ?BRET_EXT load(1, XDATA, add(CFA_XSP16, literal(-3)))
          CFI (cfiCond86) DPL0 load(1, XDATA, add(CFA_XSP16, literal(-2)))
          CFI (cfiCond86) DPH0 load(1, XDATA, add(CFA_XSP16, literal(-1)))
          CFI (cfiCond86) CFA_SP SP+0
          CFI (cfiCond86) CFA_XSP16 add(XSP16, 33)
          CFI Block cfiCond87 Using cfiCommon0
          CFI (cfiCond87) Function hwLight_UpdateColorMode
          CFI (cfiCond87) Conditional ??CrossCallReturnLabel_63
          CFI (cfiCond87) R6 load(1, XDATA, add(CFA_XSP16, literal(-20)))
          CFI (cfiCond87) VB load(1, XDATA, add(CFA_XSP16, literal(-19)))
          CFI (cfiCond87) V0 load(1, XDATA, add(CFA_XSP16, literal(-18)))
          CFI (cfiCond87) V1 load(1, XDATA, add(CFA_XSP16, literal(-17)))
          CFI (cfiCond87) V2 load(1, XDATA, add(CFA_XSP16, literal(-16)))
          CFI (cfiCond87) V3 load(1, XDATA, add(CFA_XSP16, literal(-15)))
          CFI (cfiCond87) V4 load(1, XDATA, add(CFA_XSP16, literal(-14)))
          CFI (cfiCond87) V5 load(1, XDATA, add(CFA_XSP16, literal(-13)))
          CFI (cfiCond87) V6 load(1, XDATA, add(CFA_XSP16, literal(-12)))
          CFI (cfiCond87) V7 load(1, XDATA, add(CFA_XSP16, literal(-11)))
          CFI (cfiCond87) V8 load(1, XDATA, add(CFA_XSP16, literal(-10)))
          CFI (cfiCond87) V9 load(1, XDATA, add(CFA_XSP16, literal(-9)))
          CFI (cfiCond87) V10 load(1, XDATA, add(CFA_XSP16, literal(-8)))
          CFI (cfiCond87) V11 load(1, XDATA, add(CFA_XSP16, literal(-7)))
          CFI (cfiCond87) R7 load(1, XDATA, add(CFA_XSP16, literal(-6)))
          CFI (cfiCond87) ?RET_LOW load(1, XDATA, add(CFA_XSP16, literal(-5)))
          CFI (cfiCond87) ?RET_HIGH load(1, XDATA, add(CFA_XSP16, literal(-4)))
          CFI (cfiCond87) ?BRET_EXT load(1, XDATA, add(CFA_XSP16, literal(-3)))
          CFI (cfiCond87) DPL0 load(1, XDATA, add(CFA_XSP16, literal(-2)))
          CFI (cfiCond87) DPH0 load(1, XDATA, add(CFA_XSP16, literal(-1)))
          CFI (cfiCond87) CFA_SP SP+0
          CFI (cfiCond87) CFA_XSP16 add(XSP16, 20)
          CFI Block cfiCond88 Using cfiCommon0
          CFI (cfiCond88) Function hwLight_Refresh
          CFI (cfiCond88) Conditional ??CrossCallReturnLabel_64
          CFI (cfiCond88) R6 load(1, XDATA, add(CFA_XSP16, literal(-9)))
          CFI (cfiCond88) VB load(1, XDATA, add(CFA_XSP16, literal(-8)))
          CFI (cfiCond88) V0 load(1, XDATA, add(CFA_XSP16, literal(-7)))
          CFI (cfiCond88) R7 load(1, XDATA, add(CFA_XSP16, literal(-6)))
          CFI (cfiCond88) ?RET_LOW load(1, XDATA, add(CFA_XSP16, literal(-5)))
          CFI (cfiCond88) ?RET_HIGH load(1, XDATA, add(CFA_XSP16, literal(-4)))
          CFI (cfiCond88) ?BRET_EXT load(1, XDATA, add(CFA_XSP16, literal(-3)))
          CFI (cfiCond88) DPL0 load(1, XDATA, add(CFA_XSP16, literal(-2)))
          CFI (cfiCond88) DPH0 load(1, XDATA, add(CFA_XSP16, literal(-1)))
          CFI (cfiCond88) CFA_SP SP+0
          CFI (cfiCond88) CFA_XSP16 add(XSP16, 9)
          CFI Block cfiPicker89 Using cfiCommon1
          CFI (cfiPicker89) NoFunction
          CFI (cfiPicker89) Picker
        MOVX    A,@DPTR
        MOV     R2,A
        INC     DPTR
        MOVX    A,@DPTR
        MOV     R3,A
        RET
          CFI EndBlock cfiCond80
          CFI EndBlock cfiCond81
          CFI EndBlock cfiCond82
          CFI EndBlock cfiCond83
          CFI EndBlock cfiCond84
          CFI EndBlock cfiCond85
          CFI EndBlock cfiCond86
          CFI EndBlock cfiCond87
          CFI EndBlock cfiCond88
          CFI EndBlock cfiPicker89

        RSEG BANKED_CODE:CODE:NOROOT(0)
?Subroutine4:
          CFI Block cfiCond90 Using cfiCommon0
          CFI Function hwLight_ApplyUpdate16b
          CFI Conditional ??CrossCallReturnLabel_66
          CFI R6 load(1, XDATA, add(CFA_XSP16, literal(-24)))
          CFI VB load(1, XDATA, add(CFA_XSP16, literal(-23)))
          CFI V0 load(1, XDATA, add(CFA_XSP16, literal(-22)))
          CFI V1 load(1, XDATA, add(CFA_XSP16, literal(-21)))
          CFI V2 load(1, XDATA, add(CFA_XSP16, literal(-20)))
          CFI V3 load(1, XDATA, add(CFA_XSP16, literal(-19)))
          CFI V4 load(1, XDATA, add(CFA_XSP16, literal(-18)))
          CFI V5 load(1, XDATA, add(CFA_XSP16, literal(-17)))
          CFI V6 load(1, XDATA, add(CFA_XSP16, literal(-16)))
          CFI V7 load(1, XDATA, add(CFA_XSP16, literal(-15)))
          CFI V8 load(1, XDATA, add(CFA_XSP16, literal(-14)))
          CFI V9 load(1, XDATA, add(CFA_XSP16, literal(-13)))
          CFI V10 load(1, XDATA, add(CFA_XSP16, literal(-12)))
          CFI V11 load(1, XDATA, add(CFA_XSP16, literal(-11)))
          CFI V12 load(1, XDATA, add(CFA_XSP16, literal(-10)))
          CFI V13 load(1, XDATA, add(CFA_XSP16, literal(-9)))
          CFI V14 load(1, XDATA, add(CFA_XSP16, literal(-8)))
          CFI V15 load(1, XDATA, add(CFA_XSP16, literal(-7)))
          CFI R7 load(1, XDATA, add(CFA_XSP16, literal(-6)))
          CFI ?RET_LOW load(1, XDATA, add(CFA_XSP16, literal(-5)))
          CFI ?RET_HIGH load(1, XDATA, add(CFA_XSP16, literal(-4)))
          CFI ?BRET_EXT load(1, XDATA, add(CFA_XSP16, literal(-3)))
          CFI DPL0 load(1, XDATA, add(CFA_XSP16, literal(-2)))
          CFI DPH0 load(1, XDATA, add(CFA_XSP16, literal(-1)))
          CFI CFA_SP SP+0
          CFI CFA_XSP16 add(XSP16, 33)
          CFI Block cfiCond91 Using cfiCommon0
          CFI (cfiCond91) Function hwLight_ApplyUpdate16b
          CFI (cfiCond91) Conditional ??CrossCallReturnLabel_67
          CFI (cfiCond91) R6 load(1, XDATA, add(CFA_XSP16, literal(-24)))
          CFI (cfiCond91) VB load(1, XDATA, add(CFA_XSP16, literal(-23)))
          CFI (cfiCond91) V0 load(1, XDATA, add(CFA_XSP16, literal(-22)))
          CFI (cfiCond91) V1 load(1, XDATA, add(CFA_XSP16, literal(-21)))
          CFI (cfiCond91) V2 load(1, XDATA, add(CFA_XSP16, literal(-20)))
          CFI (cfiCond91) V3 load(1, XDATA, add(CFA_XSP16, literal(-19)))
          CFI (cfiCond91) V4 load(1, XDATA, add(CFA_XSP16, literal(-18)))
          CFI (cfiCond91) V5 load(1, XDATA, add(CFA_XSP16, literal(-17)))
          CFI (cfiCond91) V6 load(1, XDATA, add(CFA_XSP16, literal(-16)))
          CFI (cfiCond91) V7 load(1, XDATA, add(CFA_XSP16, literal(-15)))
          CFI (cfiCond91) V8 load(1, XDATA, add(CFA_XSP16, literal(-14)))
          CFI (cfiCond91) V9 load(1, XDATA, add(CFA_XSP16, literal(-13)))
          CFI (cfiCond91) V10 load(1, XDATA, add(CFA_XSP16, literal(-12)))
          CFI (cfiCond91) V11 load(1, XDATA, add(CFA_XSP16, literal(-11)))
          CFI (cfiCond91) V12 load(1, XDATA, add(CFA_XSP16, literal(-10)))
          CFI (cfiCond91) V13 load(1, XDATA, add(CFA_XSP16, literal(-9)))
          CFI (cfiCond91) V14 load(1, XDATA, add(CFA_XSP16, literal(-8)))
          CFI (cfiCond91) V15 load(1, XDATA, add(CFA_XSP16, literal(-7)))
          CFI (cfiCond91) R7 load(1, XDATA, add(CFA_XSP16, literal(-6)))
          CFI (cfiCond91) ?RET_LOW load(1, XDATA, add(CFA_XSP16, literal(-5)))
          CFI (cfiCond91) ?RET_HIGH load(1, XDATA, add(CFA_XSP16, literal(-4)))
          CFI (cfiCond91) ?BRET_EXT load(1, XDATA, add(CFA_XSP16, literal(-3)))
          CFI (cfiCond91) DPL0 load(1, XDATA, add(CFA_XSP16, literal(-2)))
          CFI (cfiCond91) DPH0 load(1, XDATA, add(CFA_XSP16, literal(-1)))
          CFI (cfiCond91) CFA_SP SP+0
          CFI (cfiCond91) CFA_XSP16 add(XSP16, 33)
          CFI Block cfiCond92 Using cfiCommon0
          CFI (cfiCond92) Function hwLight_ApplyUpdate16b
          CFI (cfiCond92) Conditional ??CrossCallReturnLabel_68
          CFI (cfiCond92) R6 load(1, XDATA, add(CFA_XSP16, literal(-24)))
          CFI (cfiCond92) VB load(1, XDATA, add(CFA_XSP16, literal(-23)))
          CFI (cfiCond92) V0 load(1, XDATA, add(CFA_XSP16, literal(-22)))
          CFI (cfiCond92) V1 load(1, XDATA, add(CFA_XSP16, literal(-21)))
          CFI (cfiCond92) V2 load(1, XDATA, add(CFA_XSP16, literal(-20)))
          CFI (cfiCond92) V3 load(1, XDATA, add(CFA_XSP16, literal(-19)))
          CFI (cfiCond92) V4 load(1, XDATA, add(CFA_XSP16, literal(-18)))
          CFI (cfiCond92) V5 load(1, XDATA, add(CFA_XSP16, literal(-17)))
          CFI (cfiCond92) V6 load(1, XDATA, add(CFA_XSP16, literal(-16)))
          CFI (cfiCond92) V7 load(1, XDATA, add(CFA_XSP16, literal(-15)))
          CFI (cfiCond92) V8 load(1, XDATA, add(CFA_XSP16, literal(-14)))
          CFI (cfiCond92) V9 load(1, XDATA, add(CFA_XSP16, literal(-13)))
          CFI (cfiCond92) V10 load(1, XDATA, add(CFA_XSP16, literal(-12)))
          CFI (cfiCond92) V11 load(1, XDATA, add(CFA_XSP16, literal(-11)))
          CFI (cfiCond92) V12 load(1, XDATA, add(CFA_XSP16, literal(-10)))
          CFI (cfiCond92) V13 load(1, XDATA, add(CFA_XSP16, literal(-9)))
          CFI (cfiCond92) V14 load(1, XDATA, add(CFA_XSP16, literal(-8)))
          CFI (cfiCond92) V15 load(1, XDATA, add(CFA_XSP16, literal(-7)))
          CFI (cfiCond92) R7 load(1, XDATA, add(CFA_XSP16, literal(-6)))
          CFI (cfiCond92) ?RET_LOW load(1, XDATA, add(CFA_XSP16, literal(-5)))
          CFI (cfiCond92) ?RET_HIGH load(1, XDATA, add(CFA_XSP16, literal(-4)))
          CFI (cfiCond92) ?BRET_EXT load(1, XDATA, add(CFA_XSP16, literal(-3)))
          CFI (cfiCond92) DPL0 load(1, XDATA, add(CFA_XSP16, literal(-2)))
          CFI (cfiCond92) DPH0 load(1, XDATA, add(CFA_XSP16, literal(-1)))
          CFI (cfiCond92) CFA_SP SP+0
          CFI (cfiCond92) CFA_XSP16 add(XSP16, 33)
          CFI Block cfiPicker93 Using cfiCommon1
          CFI (cfiPicker93) NoFunction
          CFI (cfiPicker93) Picker
        MOV     DPL,?XSP + 0
        MOV     DPH,?XSP + 1
          CFI EndBlock cfiCond90
          CFI EndBlock cfiCond91
          CFI EndBlock cfiCond92
          CFI EndBlock cfiPicker93
        REQUIRE ??Subroutine35_0
        ; // Fall through to label ??Subroutine35_0

        RSEG BANKED_CODE:CODE:NOROOT(0)
??Subroutine35_0:
          CFI Block cfiCond94 Using cfiCommon0
          CFI Function hwLight_ApplyUpdate
          CFI Conditional ??CrossCallReturnLabel_65
          CFI R6 load(1, XDATA, add(CFA_XSP16, literal(-24)))
          CFI VB load(1, XDATA, add(CFA_XSP16, literal(-23)))
          CFI V0 load(1, XDATA, add(CFA_XSP16, literal(-22)))
          CFI V1 load(1, XDATA, add(CFA_XSP16, literal(-21)))
          CFI V2 load(1, XDATA, add(CFA_XSP16, literal(-20)))
          CFI V3 load(1, XDATA, add(CFA_XSP16, literal(-19)))
          CFI V4 load(1, XDATA, add(CFA_XSP16, literal(-18)))
          CFI V5 load(1, XDATA, add(CFA_XSP16, literal(-17)))
          CFI V6 load(1, XDATA, add(CFA_XSP16, literal(-16)))
          CFI V7 load(1, XDATA, add(CFA_XSP16, literal(-15)))
          CFI V8 load(1, XDATA, add(CFA_XSP16, literal(-14)))
          CFI V9 load(1, XDATA, add(CFA_XSP16, literal(-13)))
          CFI V10 load(1, XDATA, add(CFA_XSP16, literal(-12)))
          CFI V11 load(1, XDATA, add(CFA_XSP16, literal(-11)))
          CFI V12 load(1, XDATA, add(CFA_XSP16, literal(-10)))
          CFI V13 load(1, XDATA, add(CFA_XSP16, literal(-9)))
          CFI V14 load(1, XDATA, add(CFA_XSP16, literal(-8)))
          CFI V15 load(1, XDATA, add(CFA_XSP16, literal(-7)))
          CFI R7 load(1, XDATA, add(CFA_XSP16, literal(-6)))
          CFI ?RET_LOW load(1, XDATA, add(CFA_XSP16, literal(-5)))
          CFI ?RET_HIGH load(1, XDATA, add(CFA_XSP16, literal(-4)))
          CFI ?BRET_EXT load(1, XDATA, add(CFA_XSP16, literal(-3)))
          CFI DPL0 load(1, XDATA, add(CFA_XSP16, literal(-2)))
          CFI DPH0 load(1, XDATA, add(CFA_XSP16, literal(-1)))
          CFI CFA_SP SP+0
          CFI CFA_XSP16 add(XSP16, 29)
          CFI Block cfiCond95 Using cfiCommon0
          CFI (cfiCond95) Function hwLight_ApplyUpdate16b
          CFI (cfiCond95) Conditional ??CrossCallReturnLabel_66
          CFI (cfiCond95) R6 load(1, XDATA, add(CFA_XSP16, literal(-24)))
          CFI (cfiCond95) VB load(1, XDATA, add(CFA_XSP16, literal(-23)))
          CFI (cfiCond95) V0 load(1, XDATA, add(CFA_XSP16, literal(-22)))
          CFI (cfiCond95) V1 load(1, XDATA, add(CFA_XSP16, literal(-21)))
          CFI (cfiCond95) V2 load(1, XDATA, add(CFA_XSP16, literal(-20)))
          CFI (cfiCond95) V3 load(1, XDATA, add(CFA_XSP16, literal(-19)))
          CFI (cfiCond95) V4 load(1, XDATA, add(CFA_XSP16, literal(-18)))
          CFI (cfiCond95) V5 load(1, XDATA, add(CFA_XSP16, literal(-17)))
          CFI (cfiCond95) V6 load(1, XDATA, add(CFA_XSP16, literal(-16)))
          CFI (cfiCond95) V7 load(1, XDATA, add(CFA_XSP16, literal(-15)))
          CFI (cfiCond95) V8 load(1, XDATA, add(CFA_XSP16, literal(-14)))
          CFI (cfiCond95) V9 load(1, XDATA, add(CFA_XSP16, literal(-13)))
          CFI (cfiCond95) V10 load(1, XDATA, add(CFA_XSP16, literal(-12)))
          CFI (cfiCond95) V11 load(1, XDATA, add(CFA_XSP16, literal(-11)))
          CFI (cfiCond95) V12 load(1, XDATA, add(CFA_XSP16, literal(-10)))
          CFI (cfiCond95) V13 load(1, XDATA, add(CFA_XSP16, literal(-9)))
          CFI (cfiCond95) V14 load(1, XDATA, add(CFA_XSP16, literal(-8)))
          CFI (cfiCond95) V15 load(1, XDATA, add(CFA_XSP16, literal(-7)))
          CFI (cfiCond95) R7 load(1, XDATA, add(CFA_XSP16, literal(-6)))
          CFI (cfiCond95) ?RET_LOW load(1, XDATA, add(CFA_XSP16, literal(-5)))
          CFI (cfiCond95) ?RET_HIGH load(1, XDATA, add(CFA_XSP16, literal(-4)))
          CFI (cfiCond95) ?BRET_EXT load(1, XDATA, add(CFA_XSP16, literal(-3)))
          CFI (cfiCond95) DPL0 load(1, XDATA, add(CFA_XSP16, literal(-2)))
          CFI (cfiCond95) DPH0 load(1, XDATA, add(CFA_XSP16, literal(-1)))
          CFI (cfiCond95) CFA_SP SP+0
          CFI (cfiCond95) CFA_XSP16 add(XSP16, 33)
          CFI Block cfiCond96 Using cfiCommon0
          CFI (cfiCond96) Function hwLight_ApplyUpdate16b
          CFI (cfiCond96) Conditional ??CrossCallReturnLabel_67
          CFI (cfiCond96) R6 load(1, XDATA, add(CFA_XSP16, literal(-24)))
          CFI (cfiCond96) VB load(1, XDATA, add(CFA_XSP16, literal(-23)))
          CFI (cfiCond96) V0 load(1, XDATA, add(CFA_XSP16, literal(-22)))
          CFI (cfiCond96) V1 load(1, XDATA, add(CFA_XSP16, literal(-21)))
          CFI (cfiCond96) V2 load(1, XDATA, add(CFA_XSP16, literal(-20)))
          CFI (cfiCond96) V3 load(1, XDATA, add(CFA_XSP16, literal(-19)))
          CFI (cfiCond96) V4 load(1, XDATA, add(CFA_XSP16, literal(-18)))
          CFI (cfiCond96) V5 load(1, XDATA, add(CFA_XSP16, literal(-17)))
          CFI (cfiCond96) V6 load(1, XDATA, add(CFA_XSP16, literal(-16)))
          CFI (cfiCond96) V7 load(1, XDATA, add(CFA_XSP16, literal(-15)))
          CFI (cfiCond96) V8 load(1, XDATA, add(CFA_XSP16, literal(-14)))
          CFI (cfiCond96) V9 load(1, XDATA, add(CFA_XSP16, literal(-13)))
          CFI (cfiCond96) V10 load(1, XDATA, add(CFA_XSP16, literal(-12)))
          CFI (cfiCond96) V11 load(1, XDATA, add(CFA_XSP16, literal(-11)))
          CFI (cfiCond96) V12 load(1, XDATA, add(CFA_XSP16, literal(-10)))
          CFI (cfiCond96) V13 load(1, XDATA, add(CFA_XSP16, literal(-9)))
          CFI (cfiCond96) V14 load(1, XDATA, add(CFA_XSP16, literal(-8)))
          CFI (cfiCond96) V15 load(1, XDATA, add(CFA_XSP16, literal(-7)))
          CFI (cfiCond96) R7 load(1, XDATA, add(CFA_XSP16, literal(-6)))
          CFI (cfiCond96) ?RET_LOW load(1, XDATA, add(CFA_XSP16, literal(-5)))
          CFI (cfiCond96) ?RET_HIGH load(1, XDATA, add(CFA_XSP16, literal(-4)))
          CFI (cfiCond96) ?BRET_EXT load(1, XDATA, add(CFA_XSP16, literal(-3)))
          CFI (cfiCond96) DPL0 load(1, XDATA, add(CFA_XSP16, literal(-2)))
          CFI (cfiCond96) DPH0 load(1, XDATA, add(CFA_XSP16, literal(-1)))
          CFI (cfiCond96) CFA_SP SP+0
          CFI (cfiCond96) CFA_XSP16 add(XSP16, 33)
          CFI Block cfiCond97 Using cfiCommon0
          CFI (cfiCond97) Function hwLight_ApplyUpdate16b
          CFI (cfiCond97) Conditional ??CrossCallReturnLabel_68
          CFI (cfiCond97) R6 load(1, XDATA, add(CFA_XSP16, literal(-24)))
          CFI (cfiCond97) VB load(1, XDATA, add(CFA_XSP16, literal(-23)))
          CFI (cfiCond97) V0 load(1, XDATA, add(CFA_XSP16, literal(-22)))
          CFI (cfiCond97) V1 load(1, XDATA, add(CFA_XSP16, literal(-21)))
          CFI (cfiCond97) V2 load(1, XDATA, add(CFA_XSP16, literal(-20)))
          CFI (cfiCond97) V3 load(1, XDATA, add(CFA_XSP16, literal(-19)))
          CFI (cfiCond97) V4 load(1, XDATA, add(CFA_XSP16, literal(-18)))
          CFI (cfiCond97) V5 load(1, XDATA, add(CFA_XSP16, literal(-17)))
          CFI (cfiCond97) V6 load(1, XDATA, add(CFA_XSP16, literal(-16)))
          CFI (cfiCond97) V7 load(1, XDATA, add(CFA_XSP16, literal(-15)))
          CFI (cfiCond97) V8 load(1, XDATA, add(CFA_XSP16, literal(-14)))
          CFI (cfiCond97) V9 load(1, XDATA, add(CFA_XSP16, literal(-13)))
          CFI (cfiCond97) V10 load(1, XDATA, add(CFA_XSP16, literal(-12)))
          CFI (cfiCond97) V11 load(1, XDATA, add(CFA_XSP16, literal(-11)))
          CFI (cfiCond97) V12 load(1, XDATA, add(CFA_XSP16, literal(-10)))
          CFI (cfiCond97) V13 load(1, XDATA, add(CFA_XSP16, literal(-9)))
          CFI (cfiCond97) V14 load(1, XDATA, add(CFA_XSP16, literal(-8)))
          CFI (cfiCond97) V15 load(1, XDATA, add(CFA_XSP16, literal(-7)))
          CFI (cfiCond97) R7 load(1, XDATA, add(CFA_XSP16, literal(-6)))
          CFI (cfiCond97) ?RET_LOW load(1, XDATA, add(CFA_XSP16, literal(-5)))
          CFI (cfiCond97) ?RET_HIGH load(1, XDATA, add(CFA_XSP16, literal(-4)))
          CFI (cfiCond97) ?BRET_EXT load(1, XDATA, add(CFA_XSP16, literal(-3)))
          CFI (cfiCond97) DPL0 load(1, XDATA, add(CFA_XSP16, literal(-2)))
          CFI (cfiCond97) DPH0 load(1, XDATA, add(CFA_XSP16, literal(-1)))
          CFI (cfiCond97) CFA_SP SP+0
          CFI (cfiCond97) CFA_XSP16 add(XSP16, 33)
          CFI Block cfiPicker98 Using cfiCommon1
          CFI (cfiPicker98) NoFunction
          CFI (cfiPicker98) Picker
        LCALL   ?Subroutine28 & 0xFFFF
??CrossCallReturnLabel_90:
        MOV     R0,#?V0 + 0
        RET
          CFI EndBlock cfiCond94
          CFI EndBlock cfiCond95
          CFI EndBlock cfiCond96
          CFI EndBlock cfiCond97
          CFI EndBlock cfiPicker98
//  531 
//  532 /*********************************************************************
//  533  * @fn      hwLight_UpdateColor
//  534  *
//  535  * @brief   Update light output according to color attributes
//  536  *
//  537  * @param   none
//  538  *
//  539  * @return  none
//  540  */
//  541 static void hwLight_UpdateColor(void)
//  542 {
//  543 
//  544   if(zclColor_ColorMode == COLOR_MODE_CURRENT_X_Y)
//  545   {
//  546 #ifdef ZLL_HW_LED_LAMP
//  547     hwLight_UpdateLampColor(zclColor_CurrentX, zclColor_CurrentY, zclLevel_CurrentLevel);
//  548 #else //ZLL_HW_LED_LAMP #else
//  549   #if defined ZCL_LEVEL_CTRL
//  550     HalLcdWriteStringValue( "Level:", zclLevel_CurrentLevel, 10, HAL_LCD_LINE_1 );
//  551   #endif //ZCL_LEVEL_CTRL
//  552     HalLcdWriteStringValue( "x: 0x", zclColor_CurrentX, 16, HAL_LCD_LINE_2 );
//  553     HalLcdWriteStringValue( "y: 0x", zclColor_CurrentY, 16, HAL_LCD_LINE_3 );
//  554 #endif //ZLL_HW_LED_LAMP
//  555   }
//  556   else
//  557   {
//  558     if(zclColor_EnhancedColorMode == ENHANCED_COLOR_MODE_ENHANCED_CURRENT_HUE_SATURATION)
//  559     {
//  560       //add enhancement here for color Zoom.
//  561       zclColor_CurrentHue = (zclColor_EnhancedCurrentHue&0xFF00)>>8;
//  562       if ( zclColor_CurrentHue > COLOR_HUE_MAX )
//  563       {
//  564         zclColor_CurrentHue = COLOR_HUE_MAX;
//  565       }
//  566 #ifdef ZLL_HW_LED_LAMP
//  567       hwLight_UpdateLampColorHueSat( zclColor_CurrentHue, zclColor_CurrentSaturation, zclLevel_CurrentLevel);
//  568 #else //ZLL_HW_LED_LAMP #else
//  569   #if defined ZCL_LEVEL_CTRL
//  570       HalLcdWriteStringValue( "Level:", zclLevel_CurrentLevel, 10, HAL_LCD_LINE_1 );
//  571   #endif //ZCL_LEVEL_CTRL
//  572       HalLcdWriteStringValue( "EnhHue: 0x", zclColor_EnhancedCurrentHue, 16, HAL_LCD_LINE_2 );
//  573       HalLcdWriteStringValue( "Sat:", zclColor_CurrentSaturation, 10, HAL_LCD_LINE_3 );
//  574 #endif //ZLL_HW_LED_LAMP
//  575     }
//  576     else
//  577     {
//  578       zclColor_EnhancedCurrentHue = zclColor_CurrentHue<<8;
//  579 #ifdef ZLL_HW_LED_LAMP
//  580       hwLight_UpdateLampColorHueSat( zclColor_CurrentHue, zclColor_CurrentSaturation, zclLevel_CurrentLevel);
//  581 #else //ZLL_HW_LED_LAMP #else
//  582   #if defined ZCL_LEVEL_CTRL
//  583       HalLcdWriteStringValue( "Level:", zclLevel_CurrentLevel, 10, HAL_LCD_LINE_1 );
//  584   #endif //ZCL_LEVEL_CTRL
//  585       HalLcdWriteStringValue( "Hue:", zclColor_CurrentHue, 10, HAL_LCD_LINE_2 );
//  586       HalLcdWriteStringValue( "Sat:", zclColor_CurrentSaturation, 10, HAL_LCD_LINE_3 );
//  587 #endif //ZLL_HW_LED_LAMP
//  588     }
//  589   }
//  590 }
//  591 
//  592 #else //ZCL_COLOR_CTRL
//  593 //for this file to be included ZCL_LEVEL_CTRL most be defined and if
//  594 //ZCL_COLOR_CTRL is not defined then we are only controller a dimmable light
//  595 #ifdef ZCL_LEVEL_CTRL
//  596 /*********************************************************************
//  597  * @fn      hwLight_UpdateLevel
//  598  *
//  599  * @brief   Update light output according to level argument
//  600  *
//  601  * @param   level
//  602  *
//  603  * @return  none
//  604  */
//  605 static void hwLight_UpdateLevel( uint8 level )
//  606 {
//  607 #ifdef ZLL_HW_LED_LAMP
//  608 
//  609   hwLight_UpdateLampLevel( level );
//  610 
//  611 #else //ZLL_HW_LED_LAMP #else
//  612 
//  613   HalLcdWriteStringValue( "Level:", zclLevel_CurrentLevel, 10, HAL_LCD_LINE_1 );
//  614 
//  615 #endif //ZLL_HW_LED_LAMP
//  616 }
//  617 
//  618 #ifdef ZLL_HW_LED_LAMP
//  619 /*********************************************************************
//  620  * @fn      hwLight_UpdateLampLevel
//  621  *
//  622  * @brief   Update lamp level output with gamma compensation
//  623  *
//  624  * @param   level
//  625  *
//  626  * @return  none
//  627  */
//  628 void hwLight_UpdateLampLevel( uint8 level )
//  629 {
//  630   uint16 gammaCorrectedLevel;
//  631 
//  632   //gamma correct the level
//  633   gammaCorrectedLevel = pow( ( (float)level / LEVEL_MAX ), (float)GAMMA_VALUE ) * (float)LEVEL_MAX;
//  634 
//  635   halTimer1SetChannelDuty (WHITE_LED, (uint16)(((uint32)gammaCorrectedLevel*PWM_FULL_DUTY_CYCLE)/LEVEL_MAX) );
//  636 }
//  637 #endif //ZLL_HW_LED_LAMP
//  638 #endif //ZCL_LEVEL_CTRL
//  639 #endif //ZCL_COLOR_CTRL
//  640 
//  641 /*********************************************************************
//  642  * @fn      hwLight_UpdateOnOff
//  643  *
//  644  * @brief   Update light output according to On/Off argument
//  645  *
//  646  * @param   state - LIGHT_ON or LIGHT_OFF
//  647  *
//  648  * @return  none
//  649  */

        RSEG BANKED_CODE:CODE:NOROOT(0)
//  650 void hwLight_UpdateOnOff( uint8 state )
hwLight_UpdateOnOff:
          CFI Block cfiBlock99 Using cfiCommon0
          CFI Function hwLight_UpdateOnOff
        CODE
//  651 {
        ; Saved register size: 0
        ; Auto size: 0
//  652   if ( state == LIGHT_ON )
        MOV     A,#0x1
        XRL     A,R1
        JNZ     ??hwLight_UpdateOnOff_0
//  653   {
//  654 #ifdef ZLL_HW_LED_LAMP
//  655     ENABLE_LAMP;
        ORL     0xf3,#0x78
        SJMP    ??hwLight_UpdateOnOff_1
//  656 #else
//  657     // On default platform, we use LED4 to simulate the Light
//  658     HalLedSet( HAL_LED_4, HAL_LED_MODE_ON );
//  659 #endif
//  660   }
//  661   else
//  662   {
//  663 #ifdef ZLL_HW_LED_LAMP
//  664     DISABLE_LAMP;
??hwLight_UpdateOnOff_0:
        ANL     0xf3,#0x87
        ANL     0x80,#0x87
//  665 #else
//  666     HalLedSet( HAL_LED_4, HAL_LED_MODE_OFF );
//  667     HalLedSet( HAL_LED_2, HAL_LED_MODE_OFF );
//  668 #endif
//  669   }
//  670 }
??hwLight_UpdateOnOff_1:
        LJMP    ?BRET
          CFI EndBlock cfiBlock99
        REQUIRE P0SEL
        REQUIRE _A_P0
//  671 
//  672 /*********************************************************************
//  673  * @fn      hwLight_ApplyUpdate
//  674  *
//  675  * @brief
//  676  *
//  677  * @param   pCurrentVal - pointer to current 8bit attr (i.e. zclColor_CurrentHue) value
//  678  * @param   pCurrentVal_256  - pointer to current attr value at hi resolution (x256)
//  679  * @param   pStepVal_256 - pointer to the required step value of CurrentVal_256
//  680  * @param   pRemainingTime - pointer to the time remaining,  in 100ms,  to get to the target value
//  681  * @param   minLevel - Minimun val of attr
//  682  * @param   maxLevel - Maximun val of attr
//  683  *
//  684  * @return  none
//  685  */

        RSEG BANKED_CODE:CODE:NOROOT(0)
//  686 void hwLight_ApplyUpdate( uint8 *pCurrentVal, uint16 *pCurrentVal_256, int32 *pStepVal_256, uint16 *pRemainingTime, uint8 minLevel, uint8 maxLevel, bool wrap )
hwLight_ApplyUpdate:
          CFI Block cfiBlock100 Using cfiCommon0
          CFI Function hwLight_ApplyUpdate
        CODE
//  687 {
        FUNCALL hwLight_ApplyUpdate, hwLight_Refresh
        LOCFRAME ISTACK, 0, STACK
        LOCFRAME PSTACK, 0, STACK
        LOCFRAME XSTACK, 29, STACK
        LOCFRAME IOVERLAY, 0, STATIC
        LOCFRAME DOVERLAY, 0, STATIC
        ARGFRAME ISTACK, 0, STACK
        ARGFRAME PSTACK, 0, STACK
        ARGFRAME XSTACK, 29, STACK
        ARGFRAME IOVERLAY, 0, STATIC
        ARGFRAME DOVERLAY, 0, STATIC
        MOV     A,#-0x18
        LCALL   ?BANKED_ENTER_XDATA
          CFI DPH0 load(1, XDATA, add(CFA_XSP16, literal(-1)))
          CFI DPL0 load(1, XDATA, add(CFA_XSP16, literal(-2)))
          CFI ?BRET_EXT load(1, XDATA, add(CFA_XSP16, literal(-3)))
          CFI ?RET_HIGH load(1, XDATA, add(CFA_XSP16, literal(-4)))
          CFI ?RET_LOW load(1, XDATA, add(CFA_XSP16, literal(-5)))
          CFI R7 load(1, XDATA, add(CFA_XSP16, literal(-6)))
          CFI V15 load(1, XDATA, add(CFA_XSP16, literal(-7)))
          CFI V14 load(1, XDATA, add(CFA_XSP16, literal(-8)))
          CFI V13 load(1, XDATA, add(CFA_XSP16, literal(-9)))
          CFI V12 load(1, XDATA, add(CFA_XSP16, literal(-10)))
          CFI V11 load(1, XDATA, add(CFA_XSP16, literal(-11)))
          CFI V10 load(1, XDATA, add(CFA_XSP16, literal(-12)))
          CFI V9 load(1, XDATA, add(CFA_XSP16, literal(-13)))
          CFI V8 load(1, XDATA, add(CFA_XSP16, literal(-14)))
          CFI V7 load(1, XDATA, add(CFA_XSP16, literal(-15)))
          CFI V6 load(1, XDATA, add(CFA_XSP16, literal(-16)))
          CFI V5 load(1, XDATA, add(CFA_XSP16, literal(-17)))
          CFI V4 load(1, XDATA, add(CFA_XSP16, literal(-18)))
          CFI V3 load(1, XDATA, add(CFA_XSP16, literal(-19)))
          CFI V2 load(1, XDATA, add(CFA_XSP16, literal(-20)))
          CFI V1 load(1, XDATA, add(CFA_XSP16, literal(-21)))
          CFI V0 load(1, XDATA, add(CFA_XSP16, literal(-22)))
          CFI VB load(1, XDATA, add(CFA_XSP16, literal(-23)))
          CFI R6 load(1, XDATA, add(CFA_XSP16, literal(-24)))
          CFI CFA_SP SP+0
          CFI CFA_XSP16 add(XSP16, 24)
        ; Saved register size: 24
        ; Auto size: 5
        MOV     A,#-0x5
        LCALL   ?ALLOC_XSTACK8
          CFI CFA_XSP16 add(XSP16, 29)
        MOV     A,#0x3
        LCALL   ?XSTACK_DISP0_8
        LCALL   ?Subroutine18 & 0xFFFF
??CrossCallReturnLabel_25:
        LCALL   ?XSTACK_DISP0_8
        MOV     A,R1
        MOVX    @DPTR,A
//  688   if( (*pStepVal_256 > 0) && ((((int32)*pCurrentVal_256 + *pStepVal_256)/256) > maxLevel) )
        MOV     R6,A
        MOV     R4,A
        CLR     A
        XCH     A,R4
        MOV     R5,A
        MOV     A,#0x21
        LCALL   ?XSTACK_DISP0_8
        MOVX    A,@DPTR
        MOV     DPL,A
        MOV     R2,DPL
        MOV     A,#0x1d
        LCALL   ?XSTACK_DISP0_8
        LCALL   ?Subroutine26 & 0xFFFF
??CrossCallReturnLabel_38:
        MOV     A,#0x1d
        LCALL   ?XSTACK_DISP0_8
        MOV     A,R0
        LCALL   ??Subroutine37_0 & 0xFFFF
??CrossCallReturnLabel_71:
        MOV     A,#0x1d
        LCALL   ?XSTACK_DISP0_8
        LCALL   ??Subroutine35_0 & 0xFFFF
??CrossCallReturnLabel_65:
        LCALL   ?L_MOV_X
        MOV     DPTR,#__Constant_1
        MOV     R0,#?V0 + 0
        LCALL   ?SL_GE_X
        JNC     ??hwLight_ApplyUpdate_0
        LCALL   ?Subroutine3 & 0xFFFF
??CrossCallReturnLabel_85:
        MOV     R6,A
        INC     DPTR
        MOVX    A,@DPTR
        MOV     R7,A
        MOV     ?V0 + 8,R6
        MOV     ?V0 + 9,R7
        CLR     A
        MOV     ?V0 + 10,A
        MOV     ?V0 + 11,A
        MOV     R0,#?V0 + 8
        MOV     R1,#?V0 + 0
        LCALL   ?L_ADD
        MOV     DPTR,#__Constant_100
        MOV     R0,#?V0 + 4
        LCALL   ?L_MOV_X
        MOV     R0,#?V0 + 8
        MOV     R1,#?V0 + 4
        LCALL   ?L_DIV_MOD
        MOV     ?V0 + 4,R2
        CLR     A
        MOV     ?V0 + 5,A
        MOV     ?V0 + 6,A
        MOV     ?V0 + 7,A
        MOV     R0,#?V0 + 8
        MOV     R1,#?V0 + 4
        LCALL   ?SL_GT
        JC      $+5
        LJMP    ??hwLight_ApplyUpdate_1 & 0xFFFF
//  689   {
//  690     if(wrap)
        MOV     A,R2
        MOV     R3,A
        MOV     A,#0x22
        LCALL   ?XSTACK_DISP0_8
        MOVX    A,@DPTR
        JZ      ??hwLight_ApplyUpdate_2
//  691     {
//  692       *pCurrentVal_256 = (uint16)minLevel*256 + ( ( *pCurrentVal_256 + *pStepVal_256 ) - (uint16)maxLevel*256 ) - 256;
        CLR     A
        ADD     A,R6
        MOV     R0,A
        MOV     A,R5
        ADDC    A,R7
        MOV     R1,A
        MOV     A,R0
        ADD     A,?V0 + 0
        MOV     R0,A
        MOV     A,R1
        ADDC    A,?V0 + 1
        CLR     C
        SUBB    A,R3
        MOV     R1,A
        DEC     R1
        LCALL   ?Subroutine9 & 0xFFFF
//  693     }
??CrossCallReturnLabel_6:
        MOV     A,R0
        MOVX    @DPTR,A
        INC     DPTR
        MOV     A,R1
        SJMP    ??CrossCallReturnLabel_10
//  694     else
//  695     {
//  696       *pCurrentVal_256 = (uint16)maxLevel*256;
??hwLight_ApplyUpdate_2:
        LCALL   ?Subroutine10 & 0xFFFF
//  697     }
//  698   }
??CrossCallReturnLabel_10:
        MOVX    @DPTR,A
        LJMP    ??hwLight_ApplyUpdate_3 & 0xFFFF
//  699   else if( (*pStepVal_256 < 0) && ((((int32)*pCurrentVal_256 + *pStepVal_256)/256) < minLevel) )
??hwLight_ApplyUpdate_0:
        MOV     DPTR,#__Constant_0
        MOV     R0,#?V0 + 0
        LCALL   ?SL_GE_X
        JNC     $+5
        LJMP    ??hwLight_ApplyUpdate_1 & 0xFFFF
        MOV     A,#0x2
        LCALL   ?XSTACK_DISP0_8
        MOVX    A,@DPTR
        MOV     ?V0 + 12,A
        LCALL   ?Subroutine3 & 0xFFFF
??CrossCallReturnLabel_86:
        LCALL   ?Subroutine15 & 0xFFFF
??CrossCallReturnLabel_19:
        MOV     R1,#?V0 + 0
        LCALL   ?L_ADD
        MOV     DPTR,#__Constant_100
        MOV     R0,#?V0 + 8
        LCALL   ?L_MOV_X
        MOV     R0,#?V0 + 4
        MOV     R1,#?V0 + 8
        LCALL   ?L_DIV_MOD
        MOV     ?V0 + 8,?V0 + 12
        MOV     ?V0 + 9,R4
        MOV     ?V0 + 10,R4
        MOV     ?V0 + 11,R4
        MOV     R0,#?V0 + 8
        MOV     R1,#?V0 + 4
        LCALL   ?SL_GT
        JNC     ??hwLight_ApplyUpdate_1
//  700   {
//  701     if(wrap)
        MOV     A,#0x22
        LCALL   ?XSTACK_DISP0_8
        MOVX    A,@DPTR
        JZ      ??hwLight_ApplyUpdate_4
//  702     {
//  703       *pCurrentVal_256 = (uint16)maxLevel*256 - ( (uint16)minLevel*256 - ((int32)*pCurrentVal_256 + *pStepVal_256) ) + 256 ;
        MOV     A,R2
        CLR     C
        SUBB    A,R6
        MOV     R1,A
        CLR     A
        ADD     A,?V0 + 0
        MOV     R0,A
        MOV     A,R1
        ADDC    A,?V0 + 1
        MOV     R1,A
        INC     R1
        LCALL   ?Subroutine9 & 0xFFFF
//  704     }
??CrossCallReturnLabel_7:
        MOVX    A,@DPTR
        ADD     A,R0
        MOVX    @DPTR,A
        INC     DPTR
        MOVX    A,@DPTR
        ADDC    A,R1
??hwLight_ApplyUpdate_5:
        MOVX    @DPTR,A
//  705     else
//  706     {
//  707       *pCurrentVal_256 = (uint16)minLevel*256;
//  708     }
//  709   }
//  710   else
//  711   {
//  712     *pCurrentVal_256 += *pStepVal_256;
//  713   }
//  714 
//  715   if (*pStepVal_256 > 0)
//  716   {
//  717      //fraction step compensation
//  718     *pCurrentVal = ( *pCurrentVal_256 + 127 ) / 256;
//  719   }
//  720   else
//  721   {
//  722     *pCurrentVal = ( *pCurrentVal_256 / 256 );
??hwLight_ApplyUpdate_6:
        LCALL   ?Subroutine12 & 0xFFFF
//  723   }
??CrossCallReturnLabel_82:
        INC     DPTR
        MOVX    A,@DPTR
??hwLight_ApplyUpdate_7:
        PUSH    A
          CFI CFA_SP SP+-1
        MOV     A,#0x3
        LCALL   ?XSTACK_DISP0_8
        LCALL   ??Subroutine38_0 & 0xFFFF
??CrossCallReturnLabel_76:
        POP     A
          CFI CFA_SP SP+0
        MOVX    @DPTR,A
        MOV     A,#0x1f
        LCALL   ?XSTACK_DISP0_8
        LCALL   ?Subroutine5 & 0xFFFF
//  724 
//  725   if (*pRemainingTime == 0x0)
??CrossCallReturnLabel_1:
        JNZ     ??hwLight_ApplyUpdate_8
//  726   {
//  727     // align variables
//  728     *pCurrentVal_256 = ((uint16)*pCurrentVal)*256 ;
        MOV     A,#0x3
        LCALL   ?XSTACK_DISP0_8
        LCALL   ??Subroutine39_0 & 0xFFFF
??CrossCallReturnLabel_84:
        MOV     R1,A
        LCALL   ?Subroutine9 & 0xFFFF
??CrossCallReturnLabel_8:
        LCALL   ??Subroutine36_0 & 0xFFFF
//  729     *pStepVal_256 = 0;
??CrossCallReturnLabel_72:
        MOV     A,#0x1d
        LCALL   ?XSTACK_DISP0_8
        LCALL   ?Subroutine11 & 0xFFFF
//  730   }
??CrossCallReturnLabel_11:
        MOVX    @DPTR,A
        INC     DPTR
        MOVX    @DPTR,A
        INC     DPTR
        SJMP    ??CrossCallReturnLabel_21
??hwLight_ApplyUpdate_4:
        MOV     DPL,?XSP + 0
        MOV     DPH,?XSP + 1
        LCALL   ?Subroutine11 & 0xFFFF
??CrossCallReturnLabel_12:
        MOV     A,R5
        SJMP    ??hwLight_ApplyUpdate_5
??hwLight_ApplyUpdate_1:
        MOV     ?V0 + 4,?V0 + 0
        MOV     ?V0 + 5,?V0 + 1
        LCALL   ?Subroutine3 & 0xFFFF
??CrossCallReturnLabel_87:
        ADD     A,?V0 + 4
        MOVX    @DPTR,A
        INC     DPTR
        MOVX    A,@DPTR
        ADDC    A,?V0 + 5
        MOVX    @DPTR,A
        MOV     DPTR,#__Constant_1
        MOV     R0,#?V0 + 0
        LCALL   ?SL_GE_X
        JNC     ??hwLight_ApplyUpdate_6
??hwLight_ApplyUpdate_3:
        LCALL   ?Subroutine3 & 0xFFFF
??CrossCallReturnLabel_88:
        ADD     A,#0x7f
        INC     DPTR
        MOVX    A,@DPTR
        ADDC    A,#0x0
        SJMP    ??hwLight_ApplyUpdate_7
//  731   else if (*pRemainingTime != 0xFFFF)
??hwLight_ApplyUpdate_8:
        MOV     A,#-0x1
        XRL     A,R2
        JNZ     ??hwLight_ApplyUpdate_9
        MOV     A,#-0x1
        XRL     A,R3
??hwLight_ApplyUpdate_9:
        JZ      ??hwLight_ApplyUpdate_10
//  732   {
//  733     *pRemainingTime = *pRemainingTime-1;
        LCALL   ?Subroutine16 & 0xFFFF
//  734   }
??CrossCallReturnLabel_21:
        MOVX    @DPTR,A
//  735 
//  736   hwLight_Refresh( REFRESH_AUTO );
??hwLight_ApplyUpdate_10:
        ; Setup parameters for call to function hwLight_Refresh
        MOV     R1,#0x0
        LCALL   ??hwLight_Refresh?relay
//  737 }
        MOV     A,#0x5
        LJMP    ?Subroutine0 & 0xFFFF
          CFI EndBlock cfiBlock100

        RSEG BANKED_CODE:CODE:NOROOT(0)
?Subroutine21:
          CFI Block cfiCond101 Using cfiCommon0
          CFI Function hwLight_UpdateColorMode
          CFI Conditional ??CrossCallReturnLabel_73
          CFI R6 load(1, XDATA, add(CFA_XSP16, literal(-20)))
          CFI VB load(1, XDATA, add(CFA_XSP16, literal(-19)))
          CFI V0 load(1, XDATA, add(CFA_XSP16, literal(-18)))
          CFI V1 load(1, XDATA, add(CFA_XSP16, literal(-17)))
          CFI V2 load(1, XDATA, add(CFA_XSP16, literal(-16)))
          CFI V3 load(1, XDATA, add(CFA_XSP16, literal(-15)))
          CFI V4 load(1, XDATA, add(CFA_XSP16, literal(-14)))
          CFI V5 load(1, XDATA, add(CFA_XSP16, literal(-13)))
          CFI V6 load(1, XDATA, add(CFA_XSP16, literal(-12)))
          CFI V7 load(1, XDATA, add(CFA_XSP16, literal(-11)))
          CFI V8 load(1, XDATA, add(CFA_XSP16, literal(-10)))
          CFI V9 load(1, XDATA, add(CFA_XSP16, literal(-9)))
          CFI V10 load(1, XDATA, add(CFA_XSP16, literal(-8)))
          CFI V11 load(1, XDATA, add(CFA_XSP16, literal(-7)))
          CFI R7 load(1, XDATA, add(CFA_XSP16, literal(-6)))
          CFI ?RET_LOW load(1, XDATA, add(CFA_XSP16, literal(-5)))
          CFI ?RET_HIGH load(1, XDATA, add(CFA_XSP16, literal(-4)))
          CFI ?BRET_EXT load(1, XDATA, add(CFA_XSP16, literal(-3)))
          CFI DPL0 load(1, XDATA, add(CFA_XSP16, literal(-2)))
          CFI DPH0 load(1, XDATA, add(CFA_XSP16, literal(-1)))
          CFI CFA_SP SP+0
          CFI CFA_XSP16 add(XSP16, 20)
          CFI Block cfiCond102 Using cfiCommon0
          CFI (cfiCond102) Function hwLight_Refresh
          CFI (cfiCond102) Conditional ??CrossCallReturnLabel_74
          CFI (cfiCond102) R6 load(1, XDATA, add(CFA_XSP16, literal(-9)))
          CFI (cfiCond102) VB load(1, XDATA, add(CFA_XSP16, literal(-8)))
          CFI (cfiCond102) V0 load(1, XDATA, add(CFA_XSP16, literal(-7)))
          CFI (cfiCond102) R7 load(1, XDATA, add(CFA_XSP16, literal(-6)))
          CFI (cfiCond102) ?RET_LOW load(1, XDATA, add(CFA_XSP16, literal(-5)))
          CFI (cfiCond102) ?RET_HIGH load(1, XDATA, add(CFA_XSP16, literal(-4)))
          CFI (cfiCond102) ?BRET_EXT load(1, XDATA, add(CFA_XSP16, literal(-3)))
          CFI (cfiCond102) DPL0 load(1, XDATA, add(CFA_XSP16, literal(-2)))
          CFI (cfiCond102) DPH0 load(1, XDATA, add(CFA_XSP16, literal(-1)))
          CFI (cfiCond102) CFA_SP SP+0
          CFI (cfiCond102) CFA_XSP16 add(XSP16, 9)
          CFI Block cfiPicker103 Using cfiCommon1
          CFI (cfiPicker103) NoFunction
          CFI (cfiPicker103) Picker
        MOV     R1,A
        MOV     DPTR,#zclColor_EnhancedCurrentHue
          CFI EndBlock cfiCond101
          CFI EndBlock cfiCond102
          CFI EndBlock cfiPicker103
        REQUIRE ??Subroutine36_0
        ; // Fall through to label ??Subroutine36_0

        RSEG BANKED_CODE:CODE:NOROOT(0)
??Subroutine36_0:
          CFI Block cfiCond104 Using cfiCommon0
          CFI Function hwLight_ApplyUpdate
          CFI Conditional ??CrossCallReturnLabel_72
          CFI R6 load(1, XDATA, add(CFA_XSP16, literal(-24)))
          CFI VB load(1, XDATA, add(CFA_XSP16, literal(-23)))
          CFI V0 load(1, XDATA, add(CFA_XSP16, literal(-22)))
          CFI V1 load(1, XDATA, add(CFA_XSP16, literal(-21)))
          CFI V2 load(1, XDATA, add(CFA_XSP16, literal(-20)))
          CFI V3 load(1, XDATA, add(CFA_XSP16, literal(-19)))
          CFI V4 load(1, XDATA, add(CFA_XSP16, literal(-18)))
          CFI V5 load(1, XDATA, add(CFA_XSP16, literal(-17)))
          CFI V6 load(1, XDATA, add(CFA_XSP16, literal(-16)))
          CFI V7 load(1, XDATA, add(CFA_XSP16, literal(-15)))
          CFI V8 load(1, XDATA, add(CFA_XSP16, literal(-14)))
          CFI V9 load(1, XDATA, add(CFA_XSP16, literal(-13)))
          CFI V10 load(1, XDATA, add(CFA_XSP16, literal(-12)))
          CFI V11 load(1, XDATA, add(CFA_XSP16, literal(-11)))
          CFI V12 load(1, XDATA, add(CFA_XSP16, literal(-10)))
          CFI V13 load(1, XDATA, add(CFA_XSP16, literal(-9)))
          CFI V14 load(1, XDATA, add(CFA_XSP16, literal(-8)))
          CFI V15 load(1, XDATA, add(CFA_XSP16, literal(-7)))
          CFI R7 load(1, XDATA, add(CFA_XSP16, literal(-6)))
          CFI ?RET_LOW load(1, XDATA, add(CFA_XSP16, literal(-5)))
          CFI ?RET_HIGH load(1, XDATA, add(CFA_XSP16, literal(-4)))
          CFI ?BRET_EXT load(1, XDATA, add(CFA_XSP16, literal(-3)))
          CFI DPL0 load(1, XDATA, add(CFA_XSP16, literal(-2)))
          CFI DPH0 load(1, XDATA, add(CFA_XSP16, literal(-1)))
          CFI CFA_SP SP+0
          CFI CFA_XSP16 add(XSP16, 29)
          CFI Block cfiCond105 Using cfiCommon0
          CFI (cfiCond105) Function hwLight_UpdateColorMode
          CFI (cfiCond105) Conditional ??CrossCallReturnLabel_73
          CFI (cfiCond105) R6 load(1, XDATA, add(CFA_XSP16, literal(-20)))
          CFI (cfiCond105) VB load(1, XDATA, add(CFA_XSP16, literal(-19)))
          CFI (cfiCond105) V0 load(1, XDATA, add(CFA_XSP16, literal(-18)))
          CFI (cfiCond105) V1 load(1, XDATA, add(CFA_XSP16, literal(-17)))
          CFI (cfiCond105) V2 load(1, XDATA, add(CFA_XSP16, literal(-16)))
          CFI (cfiCond105) V3 load(1, XDATA, add(CFA_XSP16, literal(-15)))
          CFI (cfiCond105) V4 load(1, XDATA, add(CFA_XSP16, literal(-14)))
          CFI (cfiCond105) V5 load(1, XDATA, add(CFA_XSP16, literal(-13)))
          CFI (cfiCond105) V6 load(1, XDATA, add(CFA_XSP16, literal(-12)))
          CFI (cfiCond105) V7 load(1, XDATA, add(CFA_XSP16, literal(-11)))
          CFI (cfiCond105) V8 load(1, XDATA, add(CFA_XSP16, literal(-10)))
          CFI (cfiCond105) V9 load(1, XDATA, add(CFA_XSP16, literal(-9)))
          CFI (cfiCond105) V10 load(1, XDATA, add(CFA_XSP16, literal(-8)))
          CFI (cfiCond105) V11 load(1, XDATA, add(CFA_XSP16, literal(-7)))
          CFI (cfiCond105) R7 load(1, XDATA, add(CFA_XSP16, literal(-6)))
          CFI (cfiCond105) ?RET_LOW load(1, XDATA, add(CFA_XSP16, literal(-5)))
          CFI (cfiCond105) ?RET_HIGH load(1, XDATA, add(CFA_XSP16, literal(-4)))
          CFI (cfiCond105) ?BRET_EXT load(1, XDATA, add(CFA_XSP16, literal(-3)))
          CFI (cfiCond105) DPL0 load(1, XDATA, add(CFA_XSP16, literal(-2)))
          CFI (cfiCond105) DPH0 load(1, XDATA, add(CFA_XSP16, literal(-1)))
          CFI (cfiCond105) CFA_SP SP+0
          CFI (cfiCond105) CFA_XSP16 add(XSP16, 20)
          CFI Block cfiCond106 Using cfiCommon0
          CFI (cfiCond106) Function hwLight_Refresh
          CFI (cfiCond106) Conditional ??CrossCallReturnLabel_74
          CFI (cfiCond106) R6 load(1, XDATA, add(CFA_XSP16, literal(-9)))
          CFI (cfiCond106) VB load(1, XDATA, add(CFA_XSP16, literal(-8)))
          CFI (cfiCond106) V0 load(1, XDATA, add(CFA_XSP16, literal(-7)))
          CFI (cfiCond106) R7 load(1, XDATA, add(CFA_XSP16, literal(-6)))
          CFI (cfiCond106) ?RET_LOW load(1, XDATA, add(CFA_XSP16, literal(-5)))
          CFI (cfiCond106) ?RET_HIGH load(1, XDATA, add(CFA_XSP16, literal(-4)))
          CFI (cfiCond106) ?BRET_EXT load(1, XDATA, add(CFA_XSP16, literal(-3)))
          CFI (cfiCond106) DPL0 load(1, XDATA, add(CFA_XSP16, literal(-2)))
          CFI (cfiCond106) DPH0 load(1, XDATA, add(CFA_XSP16, literal(-1)))
          CFI (cfiCond106) CFA_SP SP+0
          CFI (cfiCond106) CFA_XSP16 add(XSP16, 9)
          CFI Block cfiPicker107 Using cfiCommon1
          CFI (cfiPicker107) NoFunction
          CFI (cfiPicker107) Picker
        CLR     A
          CFI EndBlock cfiCond104
          CFI EndBlock cfiCond105
          CFI EndBlock cfiCond106
          CFI EndBlock cfiPicker107
        REQUIRE ??Subroutine37_0
        ; // Fall through to label ??Subroutine37_0

        RSEG BANKED_CODE:CODE:NOROOT(0)
??Subroutine37_0:
          CFI Block cfiCond108 Using cfiCommon0
          CFI Function hwLight_UpdateLampColorHueSat
          CFI Conditional ??CrossCallReturnLabel_69
          CFI R6 load(1, XDATA, add(CFA_XSP16, literal(-9)))
          CFI VB load(1, XDATA, add(CFA_XSP16, literal(-8)))
          CFI V0 load(1, XDATA, add(CFA_XSP16, literal(-7)))
          CFI R7 load(1, XDATA, add(CFA_XSP16, literal(-6)))
          CFI ?RET_LOW load(1, XDATA, add(CFA_XSP16, literal(-5)))
          CFI ?RET_HIGH load(1, XDATA, add(CFA_XSP16, literal(-4)))
          CFI ?BRET_EXT load(1, XDATA, add(CFA_XSP16, literal(-3)))
          CFI DPL0 load(1, XDATA, add(CFA_XSP16, literal(-2)))
          CFI DPH0 load(1, XDATA, add(CFA_XSP16, literal(-1)))
          CFI CFA_SP SP+0
          CFI CFA_XSP16 add(XSP16, 13)
          CFI Block cfiCond109 Using cfiCommon0
          CFI (cfiCond109) Function hwLight_UpdateColorMode
          CFI (cfiCond109) Conditional ??CrossCallReturnLabel_70
          CFI (cfiCond109) R6 load(1, XDATA, add(CFA_XSP16, literal(-20)))
          CFI (cfiCond109) VB load(1, XDATA, add(CFA_XSP16, literal(-19)))
          CFI (cfiCond109) V0 load(1, XDATA, add(CFA_XSP16, literal(-18)))
          CFI (cfiCond109) V1 load(1, XDATA, add(CFA_XSP16, literal(-17)))
          CFI (cfiCond109) V2 load(1, XDATA, add(CFA_XSP16, literal(-16)))
          CFI (cfiCond109) V3 load(1, XDATA, add(CFA_XSP16, literal(-15)))
          CFI (cfiCond109) V4 load(1, XDATA, add(CFA_XSP16, literal(-14)))
          CFI (cfiCond109) V5 load(1, XDATA, add(CFA_XSP16, literal(-13)))
          CFI (cfiCond109) V6 load(1, XDATA, add(CFA_XSP16, literal(-12)))
          CFI (cfiCond109) V7 load(1, XDATA, add(CFA_XSP16, literal(-11)))
          CFI (cfiCond109) V8 load(1, XDATA, add(CFA_XSP16, literal(-10)))
          CFI (cfiCond109) V9 load(1, XDATA, add(CFA_XSP16, literal(-9)))
          CFI (cfiCond109) V10 load(1, XDATA, add(CFA_XSP16, literal(-8)))
          CFI (cfiCond109) V11 load(1, XDATA, add(CFA_XSP16, literal(-7)))
          CFI (cfiCond109) R7 load(1, XDATA, add(CFA_XSP16, literal(-6)))
          CFI (cfiCond109) ?RET_LOW load(1, XDATA, add(CFA_XSP16, literal(-5)))
          CFI (cfiCond109) ?RET_HIGH load(1, XDATA, add(CFA_XSP16, literal(-4)))
          CFI (cfiCond109) ?BRET_EXT load(1, XDATA, add(CFA_XSP16, literal(-3)))
          CFI (cfiCond109) DPL0 load(1, XDATA, add(CFA_XSP16, literal(-2)))
          CFI (cfiCond109) DPH0 load(1, XDATA, add(CFA_XSP16, literal(-1)))
          CFI (cfiCond109) CFA_SP SP+0
          CFI (cfiCond109) CFA_XSP16 add(XSP16, 20)
          CFI Block cfiCond110 Using cfiCommon0
          CFI (cfiCond110) Function hwLight_ApplyUpdate
          CFI (cfiCond110) Conditional ??CrossCallReturnLabel_71
          CFI (cfiCond110) R6 load(1, XDATA, add(CFA_XSP16, literal(-24)))
          CFI (cfiCond110) VB load(1, XDATA, add(CFA_XSP16, literal(-23)))
          CFI (cfiCond110) V0 load(1, XDATA, add(CFA_XSP16, literal(-22)))
          CFI (cfiCond110) V1 load(1, XDATA, add(CFA_XSP16, literal(-21)))
          CFI (cfiCond110) V2 load(1, XDATA, add(CFA_XSP16, literal(-20)))
          CFI (cfiCond110) V3 load(1, XDATA, add(CFA_XSP16, literal(-19)))
          CFI (cfiCond110) V4 load(1, XDATA, add(CFA_XSP16, literal(-18)))
          CFI (cfiCond110) V5 load(1, XDATA, add(CFA_XSP16, literal(-17)))
          CFI (cfiCond110) V6 load(1, XDATA, add(CFA_XSP16, literal(-16)))
          CFI (cfiCond110) V7 load(1, XDATA, add(CFA_XSP16, literal(-15)))
          CFI (cfiCond110) V8 load(1, XDATA, add(CFA_XSP16, literal(-14)))
          CFI (cfiCond110) V9 load(1, XDATA, add(CFA_XSP16, literal(-13)))
          CFI (cfiCond110) V10 load(1, XDATA, add(CFA_XSP16, literal(-12)))
          CFI (cfiCond110) V11 load(1, XDATA, add(CFA_XSP16, literal(-11)))
          CFI (cfiCond110) V12 load(1, XDATA, add(CFA_XSP16, literal(-10)))
          CFI (cfiCond110) V13 load(1, XDATA, add(CFA_XSP16, literal(-9)))
          CFI (cfiCond110) V14 load(1, XDATA, add(CFA_XSP16, literal(-8)))
          CFI (cfiCond110) V15 load(1, XDATA, add(CFA_XSP16, literal(-7)))
          CFI (cfiCond110) R7 load(1, XDATA, add(CFA_XSP16, literal(-6)))
          CFI (cfiCond110) ?RET_LOW load(1, XDATA, add(CFA_XSP16, literal(-5)))
          CFI (cfiCond110) ?RET_HIGH load(1, XDATA, add(CFA_XSP16, literal(-4)))
          CFI (cfiCond110) ?BRET_EXT load(1, XDATA, add(CFA_XSP16, literal(-3)))
          CFI (cfiCond110) DPL0 load(1, XDATA, add(CFA_XSP16, literal(-2)))
          CFI (cfiCond110) DPH0 load(1, XDATA, add(CFA_XSP16, literal(-1)))
          CFI (cfiCond110) CFA_SP SP+0
          CFI (cfiCond110) CFA_XSP16 add(XSP16, 29)
          CFI Block cfiCond111 Using cfiCommon0
          CFI (cfiCond111) Function hwLight_ApplyUpdate
          CFI (cfiCond111) Conditional ??CrossCallReturnLabel_72
          CFI (cfiCond111) R6 load(1, XDATA, add(CFA_XSP16, literal(-24)))
          CFI (cfiCond111) VB load(1, XDATA, add(CFA_XSP16, literal(-23)))
          CFI (cfiCond111) V0 load(1, XDATA, add(CFA_XSP16, literal(-22)))
          CFI (cfiCond111) V1 load(1, XDATA, add(CFA_XSP16, literal(-21)))
          CFI (cfiCond111) V2 load(1, XDATA, add(CFA_XSP16, literal(-20)))
          CFI (cfiCond111) V3 load(1, XDATA, add(CFA_XSP16, literal(-19)))
          CFI (cfiCond111) V4 load(1, XDATA, add(CFA_XSP16, literal(-18)))
          CFI (cfiCond111) V5 load(1, XDATA, add(CFA_XSP16, literal(-17)))
          CFI (cfiCond111) V6 load(1, XDATA, add(CFA_XSP16, literal(-16)))
          CFI (cfiCond111) V7 load(1, XDATA, add(CFA_XSP16, literal(-15)))
          CFI (cfiCond111) V8 load(1, XDATA, add(CFA_XSP16, literal(-14)))
          CFI (cfiCond111) V9 load(1, XDATA, add(CFA_XSP16, literal(-13)))
          CFI (cfiCond111) V10 load(1, XDATA, add(CFA_XSP16, literal(-12)))
          CFI (cfiCond111) V11 load(1, XDATA, add(CFA_XSP16, literal(-11)))
          CFI (cfiCond111) V12 load(1, XDATA, add(CFA_XSP16, literal(-10)))
          CFI (cfiCond111) V13 load(1, XDATA, add(CFA_XSP16, literal(-9)))
          CFI (cfiCond111) V14 load(1, XDATA, add(CFA_XSP16, literal(-8)))
          CFI (cfiCond111) V15 load(1, XDATA, add(CFA_XSP16, literal(-7)))
          CFI (cfiCond111) R7 load(1, XDATA, add(CFA_XSP16, literal(-6)))
          CFI (cfiCond111) ?RET_LOW load(1, XDATA, add(CFA_XSP16, literal(-5)))
          CFI (cfiCond111) ?RET_HIGH load(1, XDATA, add(CFA_XSP16, literal(-4)))
          CFI (cfiCond111) ?BRET_EXT load(1, XDATA, add(CFA_XSP16, literal(-3)))
          CFI (cfiCond111) DPL0 load(1, XDATA, add(CFA_XSP16, literal(-2)))
          CFI (cfiCond111) DPH0 load(1, XDATA, add(CFA_XSP16, literal(-1)))
          CFI (cfiCond111) CFA_SP SP+0
          CFI (cfiCond111) CFA_XSP16 add(XSP16, 29)
          CFI Block cfiCond112 Using cfiCommon0
          CFI (cfiCond112) Function hwLight_UpdateColorMode
          CFI (cfiCond112) Conditional ??CrossCallReturnLabel_73
          CFI (cfiCond112) R6 load(1, XDATA, add(CFA_XSP16, literal(-20)))
          CFI (cfiCond112) VB load(1, XDATA, add(CFA_XSP16, literal(-19)))
          CFI (cfiCond112) V0 load(1, XDATA, add(CFA_XSP16, literal(-18)))
          CFI (cfiCond112) V1 load(1, XDATA, add(CFA_XSP16, literal(-17)))
          CFI (cfiCond112) V2 load(1, XDATA, add(CFA_XSP16, literal(-16)))
          CFI (cfiCond112) V3 load(1, XDATA, add(CFA_XSP16, literal(-15)))
          CFI (cfiCond112) V4 load(1, XDATA, add(CFA_XSP16, literal(-14)))
          CFI (cfiCond112) V5 load(1, XDATA, add(CFA_XSP16, literal(-13)))
          CFI (cfiCond112) V6 load(1, XDATA, add(CFA_XSP16, literal(-12)))
          CFI (cfiCond112) V7 load(1, XDATA, add(CFA_XSP16, literal(-11)))
          CFI (cfiCond112) V8 load(1, XDATA, add(CFA_XSP16, literal(-10)))
          CFI (cfiCond112) V9 load(1, XDATA, add(CFA_XSP16, literal(-9)))
          CFI (cfiCond112) V10 load(1, XDATA, add(CFA_XSP16, literal(-8)))
          CFI (cfiCond112) V11 load(1, XDATA, add(CFA_XSP16, literal(-7)))
          CFI (cfiCond112) R7 load(1, XDATA, add(CFA_XSP16, literal(-6)))
          CFI (cfiCond112) ?RET_LOW load(1, XDATA, add(CFA_XSP16, literal(-5)))
          CFI (cfiCond112) ?RET_HIGH load(1, XDATA, add(CFA_XSP16, literal(-4)))
          CFI (cfiCond112) ?BRET_EXT load(1, XDATA, add(CFA_XSP16, literal(-3)))
          CFI (cfiCond112) DPL0 load(1, XDATA, add(CFA_XSP16, literal(-2)))
          CFI (cfiCond112) DPH0 load(1, XDATA, add(CFA_XSP16, literal(-1)))
          CFI (cfiCond112) CFA_SP SP+0
          CFI (cfiCond112) CFA_XSP16 add(XSP16, 20)
          CFI Block cfiCond113 Using cfiCommon0
          CFI (cfiCond113) Function hwLight_Refresh
          CFI (cfiCond113) Conditional ??CrossCallReturnLabel_74
          CFI (cfiCond113) R6 load(1, XDATA, add(CFA_XSP16, literal(-9)))
          CFI (cfiCond113) VB load(1, XDATA, add(CFA_XSP16, literal(-8)))
          CFI (cfiCond113) V0 load(1, XDATA, add(CFA_XSP16, literal(-7)))
          CFI (cfiCond113) R7 load(1, XDATA, add(CFA_XSP16, literal(-6)))
          CFI (cfiCond113) ?RET_LOW load(1, XDATA, add(CFA_XSP16, literal(-5)))
          CFI (cfiCond113) ?RET_HIGH load(1, XDATA, add(CFA_XSP16, literal(-4)))
          CFI (cfiCond113) ?BRET_EXT load(1, XDATA, add(CFA_XSP16, literal(-3)))
          CFI (cfiCond113) DPL0 load(1, XDATA, add(CFA_XSP16, literal(-2)))
          CFI (cfiCond113) DPH0 load(1, XDATA, add(CFA_XSP16, literal(-1)))
          CFI (cfiCond113) CFA_SP SP+0
          CFI (cfiCond113) CFA_XSP16 add(XSP16, 9)
          CFI Block cfiPicker114 Using cfiCommon1
          CFI (cfiPicker114) NoFunction
          CFI (cfiPicker114) Picker
        MOVX    @DPTR,A
        INC     DPTR
        MOV     A,R1
        MOVX    @DPTR,A
        RET
          CFI EndBlock cfiCond108
          CFI EndBlock cfiCond109
          CFI EndBlock cfiCond110
          CFI EndBlock cfiCond111
          CFI EndBlock cfiCond112
          CFI EndBlock cfiCond113
          CFI EndBlock cfiPicker114

        RSEG BANKED_CODE:CODE:NOROOT(0)
?Subroutine18:
          CFI Block cfiCond115 Using cfiCommon0
          CFI Function hwLight_ApplyUpdate16b
          CFI Conditional ??CrossCallReturnLabel_24
          CFI R6 load(1, XDATA, add(CFA_XSP16, literal(-24)))
          CFI VB load(1, XDATA, add(CFA_XSP16, literal(-23)))
          CFI V0 load(1, XDATA, add(CFA_XSP16, literal(-22)))
          CFI V1 load(1, XDATA, add(CFA_XSP16, literal(-21)))
          CFI V2 load(1, XDATA, add(CFA_XSP16, literal(-20)))
          CFI V3 load(1, XDATA, add(CFA_XSP16, literal(-19)))
          CFI V4 load(1, XDATA, add(CFA_XSP16, literal(-18)))
          CFI V5 load(1, XDATA, add(CFA_XSP16, literal(-17)))
          CFI V6 load(1, XDATA, add(CFA_XSP16, literal(-16)))
          CFI V7 load(1, XDATA, add(CFA_XSP16, literal(-15)))
          CFI V8 load(1, XDATA, add(CFA_XSP16, literal(-14)))
          CFI V9 load(1, XDATA, add(CFA_XSP16, literal(-13)))
          CFI V10 load(1, XDATA, add(CFA_XSP16, literal(-12)))
          CFI V11 load(1, XDATA, add(CFA_XSP16, literal(-11)))
          CFI V12 load(1, XDATA, add(CFA_XSP16, literal(-10)))
          CFI V13 load(1, XDATA, add(CFA_XSP16, literal(-9)))
          CFI V14 load(1, XDATA, add(CFA_XSP16, literal(-8)))
          CFI V15 load(1, XDATA, add(CFA_XSP16, literal(-7)))
          CFI R7 load(1, XDATA, add(CFA_XSP16, literal(-6)))
          CFI ?RET_LOW load(1, XDATA, add(CFA_XSP16, literal(-5)))
          CFI ?RET_HIGH load(1, XDATA, add(CFA_XSP16, literal(-4)))
          CFI ?BRET_EXT load(1, XDATA, add(CFA_XSP16, literal(-3)))
          CFI DPL0 load(1, XDATA, add(CFA_XSP16, literal(-2)))
          CFI DPH0 load(1, XDATA, add(CFA_XSP16, literal(-1)))
          CFI CFA_SP SP+0
          CFI CFA_XSP16 add(XSP16, 33)
          CFI Block cfiCond116 Using cfiCommon0
          CFI (cfiCond116) Function hwLight_ApplyUpdate
          CFI (cfiCond116) Conditional ??CrossCallReturnLabel_25
          CFI (cfiCond116) R6 load(1, XDATA, add(CFA_XSP16, literal(-24)))
          CFI (cfiCond116) VB load(1, XDATA, add(CFA_XSP16, literal(-23)))
          CFI (cfiCond116) V0 load(1, XDATA, add(CFA_XSP16, literal(-22)))
          CFI (cfiCond116) V1 load(1, XDATA, add(CFA_XSP16, literal(-21)))
          CFI (cfiCond116) V2 load(1, XDATA, add(CFA_XSP16, literal(-20)))
          CFI (cfiCond116) V3 load(1, XDATA, add(CFA_XSP16, literal(-19)))
          CFI (cfiCond116) V4 load(1, XDATA, add(CFA_XSP16, literal(-18)))
          CFI (cfiCond116) V5 load(1, XDATA, add(CFA_XSP16, literal(-17)))
          CFI (cfiCond116) V6 load(1, XDATA, add(CFA_XSP16, literal(-16)))
          CFI (cfiCond116) V7 load(1, XDATA, add(CFA_XSP16, literal(-15)))
          CFI (cfiCond116) V8 load(1, XDATA, add(CFA_XSP16, literal(-14)))
          CFI (cfiCond116) V9 load(1, XDATA, add(CFA_XSP16, literal(-13)))
          CFI (cfiCond116) V10 load(1, XDATA, add(CFA_XSP16, literal(-12)))
          CFI (cfiCond116) V11 load(1, XDATA, add(CFA_XSP16, literal(-11)))
          CFI (cfiCond116) V12 load(1, XDATA, add(CFA_XSP16, literal(-10)))
          CFI (cfiCond116) V13 load(1, XDATA, add(CFA_XSP16, literal(-9)))
          CFI (cfiCond116) V14 load(1, XDATA, add(CFA_XSP16, literal(-8)))
          CFI (cfiCond116) V15 load(1, XDATA, add(CFA_XSP16, literal(-7)))
          CFI (cfiCond116) R7 load(1, XDATA, add(CFA_XSP16, literal(-6)))
          CFI (cfiCond116) ?RET_LOW load(1, XDATA, add(CFA_XSP16, literal(-5)))
          CFI (cfiCond116) ?RET_HIGH load(1, XDATA, add(CFA_XSP16, literal(-4)))
          CFI (cfiCond116) ?BRET_EXT load(1, XDATA, add(CFA_XSP16, literal(-3)))
          CFI (cfiCond116) DPL0 load(1, XDATA, add(CFA_XSP16, literal(-2)))
          CFI (cfiCond116) DPH0 load(1, XDATA, add(CFA_XSP16, literal(-1)))
          CFI (cfiCond116) CFA_SP SP+0
          CFI (cfiCond116) CFA_XSP16 add(XSP16, 29)
          CFI Block cfiPicker117 Using cfiCommon1
          CFI (cfiPicker117) NoFunction
          CFI (cfiPicker117) Picker
        MOV     A,R2
        MOVX    @DPTR,A
        INC     DPTR
        MOV     A,R3
        MOVX    @DPTR,A
        MOV     DPL,?XSP + 0
        MOV     DPH,?XSP + 1
        MOV     A,R4
        MOVX    @DPTR,A
        INC     DPTR
        MOV     A,R5
        MOVX    @DPTR,A
        MOV     A,#0x2
        RET
          CFI EndBlock cfiCond115
          CFI EndBlock cfiCond116
          CFI EndBlock cfiPicker117

        RSEG BANKED_CODE:CODE:NOROOT(0)
?Subroutine16:
          CFI Block cfiCond118 Using cfiCommon0
          CFI Function hwLight_ApplyUpdate16b
          CFI Conditional ??CrossCallReturnLabel_20
          CFI R6 load(1, XDATA, add(CFA_XSP16, literal(-24)))
          CFI VB load(1, XDATA, add(CFA_XSP16, literal(-23)))
          CFI V0 load(1, XDATA, add(CFA_XSP16, literal(-22)))
          CFI V1 load(1, XDATA, add(CFA_XSP16, literal(-21)))
          CFI V2 load(1, XDATA, add(CFA_XSP16, literal(-20)))
          CFI V3 load(1, XDATA, add(CFA_XSP16, literal(-19)))
          CFI V4 load(1, XDATA, add(CFA_XSP16, literal(-18)))
          CFI V5 load(1, XDATA, add(CFA_XSP16, literal(-17)))
          CFI V6 load(1, XDATA, add(CFA_XSP16, literal(-16)))
          CFI V7 load(1, XDATA, add(CFA_XSP16, literal(-15)))
          CFI V8 load(1, XDATA, add(CFA_XSP16, literal(-14)))
          CFI V9 load(1, XDATA, add(CFA_XSP16, literal(-13)))
          CFI V10 load(1, XDATA, add(CFA_XSP16, literal(-12)))
          CFI V11 load(1, XDATA, add(CFA_XSP16, literal(-11)))
          CFI V12 load(1, XDATA, add(CFA_XSP16, literal(-10)))
          CFI V13 load(1, XDATA, add(CFA_XSP16, literal(-9)))
          CFI V14 load(1, XDATA, add(CFA_XSP16, literal(-8)))
          CFI V15 load(1, XDATA, add(CFA_XSP16, literal(-7)))
          CFI R7 load(1, XDATA, add(CFA_XSP16, literal(-6)))
          CFI ?RET_LOW load(1, XDATA, add(CFA_XSP16, literal(-5)))
          CFI ?RET_HIGH load(1, XDATA, add(CFA_XSP16, literal(-4)))
          CFI ?BRET_EXT load(1, XDATA, add(CFA_XSP16, literal(-3)))
          CFI DPL0 load(1, XDATA, add(CFA_XSP16, literal(-2)))
          CFI DPH0 load(1, XDATA, add(CFA_XSP16, literal(-1)))
          CFI CFA_SP SP+0
          CFI CFA_XSP16 add(XSP16, 33)
          CFI Block cfiCond119 Using cfiCommon0
          CFI (cfiCond119) Function hwLight_ApplyUpdate
          CFI (cfiCond119) Conditional ??CrossCallReturnLabel_21
          CFI (cfiCond119) R6 load(1, XDATA, add(CFA_XSP16, literal(-24)))
          CFI (cfiCond119) VB load(1, XDATA, add(CFA_XSP16, literal(-23)))
          CFI (cfiCond119) V0 load(1, XDATA, add(CFA_XSP16, literal(-22)))
          CFI (cfiCond119) V1 load(1, XDATA, add(CFA_XSP16, literal(-21)))
          CFI (cfiCond119) V2 load(1, XDATA, add(CFA_XSP16, literal(-20)))
          CFI (cfiCond119) V3 load(1, XDATA, add(CFA_XSP16, literal(-19)))
          CFI (cfiCond119) V4 load(1, XDATA, add(CFA_XSP16, literal(-18)))
          CFI (cfiCond119) V5 load(1, XDATA, add(CFA_XSP16, literal(-17)))
          CFI (cfiCond119) V6 load(1, XDATA, add(CFA_XSP16, literal(-16)))
          CFI (cfiCond119) V7 load(1, XDATA, add(CFA_XSP16, literal(-15)))
          CFI (cfiCond119) V8 load(1, XDATA, add(CFA_XSP16, literal(-14)))
          CFI (cfiCond119) V9 load(1, XDATA, add(CFA_XSP16, literal(-13)))
          CFI (cfiCond119) V10 load(1, XDATA, add(CFA_XSP16, literal(-12)))
          CFI (cfiCond119) V11 load(1, XDATA, add(CFA_XSP16, literal(-11)))
          CFI (cfiCond119) V12 load(1, XDATA, add(CFA_XSP16, literal(-10)))
          CFI (cfiCond119) V13 load(1, XDATA, add(CFA_XSP16, literal(-9)))
          CFI (cfiCond119) V14 load(1, XDATA, add(CFA_XSP16, literal(-8)))
          CFI (cfiCond119) V15 load(1, XDATA, add(CFA_XSP16, literal(-7)))
          CFI (cfiCond119) R7 load(1, XDATA, add(CFA_XSP16, literal(-6)))
          CFI (cfiCond119) ?RET_LOW load(1, XDATA, add(CFA_XSP16, literal(-5)))
          CFI (cfiCond119) ?RET_HIGH load(1, XDATA, add(CFA_XSP16, literal(-4)))
          CFI (cfiCond119) ?BRET_EXT load(1, XDATA, add(CFA_XSP16, literal(-3)))
          CFI (cfiCond119) DPL0 load(1, XDATA, add(CFA_XSP16, literal(-2)))
          CFI (cfiCond119) DPH0 load(1, XDATA, add(CFA_XSP16, literal(-1)))
          CFI (cfiCond119) CFA_SP SP+0
          CFI (cfiCond119) CFA_XSP16 add(XSP16, 29)
          CFI Block cfiPicker120 Using cfiCommon1
          CFI (cfiPicker120) NoFunction
          CFI (cfiPicker120) Picker
        MOV     DPL,R0
        MOV     DPH,R1
        MOVX    A,@DPTR
        ADD     A,#-0x1
        MOVX    @DPTR,A
        INC     DPTR
        MOVX    A,@DPTR
        ADDC    A,#-0x1
        RET
          CFI EndBlock cfiCond118
          CFI EndBlock cfiCond119
          CFI EndBlock cfiPicker120

        RSEG BANKED_CODE:CODE:NOROOT(0)
?Subroutine15:
          CFI Block cfiCond121 Using cfiCommon0
          CFI Function hwLight_satToXy
          CFI Conditional ??CrossCallReturnLabel_18
          CFI R6 load(1, XDATA, add(CFA_XSP16, literal(-24)))
          CFI VB load(1, XDATA, add(CFA_XSP16, literal(-23)))
          CFI V0 load(1, XDATA, add(CFA_XSP16, literal(-22)))
          CFI V1 load(1, XDATA, add(CFA_XSP16, literal(-21)))
          CFI V2 load(1, XDATA, add(CFA_XSP16, literal(-20)))
          CFI V3 load(1, XDATA, add(CFA_XSP16, literal(-19)))
          CFI V4 load(1, XDATA, add(CFA_XSP16, literal(-18)))
          CFI V5 load(1, XDATA, add(CFA_XSP16, literal(-17)))
          CFI V6 load(1, XDATA, add(CFA_XSP16, literal(-16)))
          CFI V7 load(1, XDATA, add(CFA_XSP16, literal(-15)))
          CFI V8 load(1, XDATA, add(CFA_XSP16, literal(-14)))
          CFI V9 load(1, XDATA, add(CFA_XSP16, literal(-13)))
          CFI V10 load(1, XDATA, add(CFA_XSP16, literal(-12)))
          CFI V11 load(1, XDATA, add(CFA_XSP16, literal(-11)))
          CFI V12 load(1, XDATA, add(CFA_XSP16, literal(-10)))
          CFI V13 load(1, XDATA, add(CFA_XSP16, literal(-9)))
          CFI V14 load(1, XDATA, add(CFA_XSP16, literal(-8)))
          CFI V15 load(1, XDATA, add(CFA_XSP16, literal(-7)))
          CFI R7 load(1, XDATA, add(CFA_XSP16, literal(-6)))
          CFI ?RET_LOW load(1, XDATA, add(CFA_XSP16, literal(-5)))
          CFI ?RET_HIGH load(1, XDATA, add(CFA_XSP16, literal(-4)))
          CFI ?BRET_EXT load(1, XDATA, add(CFA_XSP16, literal(-3)))
          CFI DPL0 load(1, XDATA, add(CFA_XSP16, literal(-2)))
          CFI DPH0 load(1, XDATA, add(CFA_XSP16, literal(-1)))
          CFI CFA_SP SP+0
          CFI CFA_XSP16 add(XSP16, 28)
          CFI Block cfiCond122 Using cfiCommon0
          CFI (cfiCond122) Function hwLight_ApplyUpdate
          CFI (cfiCond122) Conditional ??CrossCallReturnLabel_19
          CFI (cfiCond122) R6 load(1, XDATA, add(CFA_XSP16, literal(-24)))
          CFI (cfiCond122) VB load(1, XDATA, add(CFA_XSP16, literal(-23)))
          CFI (cfiCond122) V0 load(1, XDATA, add(CFA_XSP16, literal(-22)))
          CFI (cfiCond122) V1 load(1, XDATA, add(CFA_XSP16, literal(-21)))
          CFI (cfiCond122) V2 load(1, XDATA, add(CFA_XSP16, literal(-20)))
          CFI (cfiCond122) V3 load(1, XDATA, add(CFA_XSP16, literal(-19)))
          CFI (cfiCond122) V4 load(1, XDATA, add(CFA_XSP16, literal(-18)))
          CFI (cfiCond122) V5 load(1, XDATA, add(CFA_XSP16, literal(-17)))
          CFI (cfiCond122) V6 load(1, XDATA, add(CFA_XSP16, literal(-16)))
          CFI (cfiCond122) V7 load(1, XDATA, add(CFA_XSP16, literal(-15)))
          CFI (cfiCond122) V8 load(1, XDATA, add(CFA_XSP16, literal(-14)))
          CFI (cfiCond122) V9 load(1, XDATA, add(CFA_XSP16, literal(-13)))
          CFI (cfiCond122) V10 load(1, XDATA, add(CFA_XSP16, literal(-12)))
          CFI (cfiCond122) V11 load(1, XDATA, add(CFA_XSP16, literal(-11)))
          CFI (cfiCond122) V12 load(1, XDATA, add(CFA_XSP16, literal(-10)))
          CFI (cfiCond122) V13 load(1, XDATA, add(CFA_XSP16, literal(-9)))
          CFI (cfiCond122) V14 load(1, XDATA, add(CFA_XSP16, literal(-8)))
          CFI (cfiCond122) V15 load(1, XDATA, add(CFA_XSP16, literal(-7)))
          CFI (cfiCond122) R7 load(1, XDATA, add(CFA_XSP16, literal(-6)))
          CFI (cfiCond122) ?RET_LOW load(1, XDATA, add(CFA_XSP16, literal(-5)))
          CFI (cfiCond122) ?RET_HIGH load(1, XDATA, add(CFA_XSP16, literal(-4)))
          CFI (cfiCond122) ?BRET_EXT load(1, XDATA, add(CFA_XSP16, literal(-3)))
          CFI (cfiCond122) DPL0 load(1, XDATA, add(CFA_XSP16, literal(-2)))
          CFI (cfiCond122) DPH0 load(1, XDATA, add(CFA_XSP16, literal(-1)))
          CFI (cfiCond122) CFA_SP SP+0
          CFI (cfiCond122) CFA_XSP16 add(XSP16, 29)
          CFI Block cfiPicker123 Using cfiCommon1
          CFI (cfiPicker123) NoFunction
          CFI (cfiPicker123) Picker
        MOV     ?V0 + 4,A
        INC     DPTR
        MOVX    A,@DPTR
        MOV     ?V0 + 5,A
        CLR     A
        MOV     ?V0 + 6,A
        MOV     ?V0 + 7,A
        MOV     R0,#?V0 + 4
        RET
          CFI EndBlock cfiCond121
          CFI EndBlock cfiCond122
          CFI EndBlock cfiPicker123

        RSEG BANKED_CODE:CODE:NOROOT(0)
?Subroutine12:
          CFI Block cfiCond124 Using cfiCommon0
          CFI Function hwLight_ApplyUpdate16b
          CFI Conditional ??CrossCallReturnLabel_77
          CFI R6 load(1, XDATA, add(CFA_XSP16, literal(-24)))
          CFI VB load(1, XDATA, add(CFA_XSP16, literal(-23)))
          CFI V0 load(1, XDATA, add(CFA_XSP16, literal(-22)))
          CFI V1 load(1, XDATA, add(CFA_XSP16, literal(-21)))
          CFI V2 load(1, XDATA, add(CFA_XSP16, literal(-20)))
          CFI V3 load(1, XDATA, add(CFA_XSP16, literal(-19)))
          CFI V4 load(1, XDATA, add(CFA_XSP16, literal(-18)))
          CFI V5 load(1, XDATA, add(CFA_XSP16, literal(-17)))
          CFI V6 load(1, XDATA, add(CFA_XSP16, literal(-16)))
          CFI V7 load(1, XDATA, add(CFA_XSP16, literal(-15)))
          CFI V8 load(1, XDATA, add(CFA_XSP16, literal(-14)))
          CFI V9 load(1, XDATA, add(CFA_XSP16, literal(-13)))
          CFI V10 load(1, XDATA, add(CFA_XSP16, literal(-12)))
          CFI V11 load(1, XDATA, add(CFA_XSP16, literal(-11)))
          CFI V12 load(1, XDATA, add(CFA_XSP16, literal(-10)))
          CFI V13 load(1, XDATA, add(CFA_XSP16, literal(-9)))
          CFI V14 load(1, XDATA, add(CFA_XSP16, literal(-8)))
          CFI V15 load(1, XDATA, add(CFA_XSP16, literal(-7)))
          CFI R7 load(1, XDATA, add(CFA_XSP16, literal(-6)))
          CFI ?RET_LOW load(1, XDATA, add(CFA_XSP16, literal(-5)))
          CFI ?RET_HIGH load(1, XDATA, add(CFA_XSP16, literal(-4)))
          CFI ?BRET_EXT load(1, XDATA, add(CFA_XSP16, literal(-3)))
          CFI DPL0 load(1, XDATA, add(CFA_XSP16, literal(-2)))
          CFI DPH0 load(1, XDATA, add(CFA_XSP16, literal(-1)))
          CFI CFA_SP SP+0
          CFI CFA_XSP16 add(XSP16, 33)
          CFI Block cfiCond125 Using cfiCommon0
          CFI (cfiCond125) Function hwLight_ApplyUpdate16b
          CFI (cfiCond125) Conditional ??CrossCallReturnLabel_78
          CFI (cfiCond125) R6 load(1, XDATA, add(CFA_XSP16, literal(-24)))
          CFI (cfiCond125) VB load(1, XDATA, add(CFA_XSP16, literal(-23)))
          CFI (cfiCond125) V0 load(1, XDATA, add(CFA_XSP16, literal(-22)))
          CFI (cfiCond125) V1 load(1, XDATA, add(CFA_XSP16, literal(-21)))
          CFI (cfiCond125) V2 load(1, XDATA, add(CFA_XSP16, literal(-20)))
          CFI (cfiCond125) V3 load(1, XDATA, add(CFA_XSP16, literal(-19)))
          CFI (cfiCond125) V4 load(1, XDATA, add(CFA_XSP16, literal(-18)))
          CFI (cfiCond125) V5 load(1, XDATA, add(CFA_XSP16, literal(-17)))
          CFI (cfiCond125) V6 load(1, XDATA, add(CFA_XSP16, literal(-16)))
          CFI (cfiCond125) V7 load(1, XDATA, add(CFA_XSP16, literal(-15)))
          CFI (cfiCond125) V8 load(1, XDATA, add(CFA_XSP16, literal(-14)))
          CFI (cfiCond125) V9 load(1, XDATA, add(CFA_XSP16, literal(-13)))
          CFI (cfiCond125) V10 load(1, XDATA, add(CFA_XSP16, literal(-12)))
          CFI (cfiCond125) V11 load(1, XDATA, add(CFA_XSP16, literal(-11)))
          CFI (cfiCond125) V12 load(1, XDATA, add(CFA_XSP16, literal(-10)))
          CFI (cfiCond125) V13 load(1, XDATA, add(CFA_XSP16, literal(-9)))
          CFI (cfiCond125) V14 load(1, XDATA, add(CFA_XSP16, literal(-8)))
          CFI (cfiCond125) V15 load(1, XDATA, add(CFA_XSP16, literal(-7)))
          CFI (cfiCond125) R7 load(1, XDATA, add(CFA_XSP16, literal(-6)))
          CFI (cfiCond125) ?RET_LOW load(1, XDATA, add(CFA_XSP16, literal(-5)))
          CFI (cfiCond125) ?RET_HIGH load(1, XDATA, add(CFA_XSP16, literal(-4)))
          CFI (cfiCond125) ?BRET_EXT load(1, XDATA, add(CFA_XSP16, literal(-3)))
          CFI (cfiCond125) DPL0 load(1, XDATA, add(CFA_XSP16, literal(-2)))
          CFI (cfiCond125) DPH0 load(1, XDATA, add(CFA_XSP16, literal(-1)))
          CFI (cfiCond125) CFA_SP SP+0
          CFI (cfiCond125) CFA_XSP16 add(XSP16, 33)
          CFI Block cfiCond126 Using cfiCommon0
          CFI (cfiCond126) Function hwLight_ApplyUpdate16b
          CFI (cfiCond126) Conditional ??CrossCallReturnLabel_79
          CFI (cfiCond126) R6 load(1, XDATA, add(CFA_XSP16, literal(-24)))
          CFI (cfiCond126) VB load(1, XDATA, add(CFA_XSP16, literal(-23)))
          CFI (cfiCond126) V0 load(1, XDATA, add(CFA_XSP16, literal(-22)))
          CFI (cfiCond126) V1 load(1, XDATA, add(CFA_XSP16, literal(-21)))
          CFI (cfiCond126) V2 load(1, XDATA, add(CFA_XSP16, literal(-20)))
          CFI (cfiCond126) V3 load(1, XDATA, add(CFA_XSP16, literal(-19)))
          CFI (cfiCond126) V4 load(1, XDATA, add(CFA_XSP16, literal(-18)))
          CFI (cfiCond126) V5 load(1, XDATA, add(CFA_XSP16, literal(-17)))
          CFI (cfiCond126) V6 load(1, XDATA, add(CFA_XSP16, literal(-16)))
          CFI (cfiCond126) V7 load(1, XDATA, add(CFA_XSP16, literal(-15)))
          CFI (cfiCond126) V8 load(1, XDATA, add(CFA_XSP16, literal(-14)))
          CFI (cfiCond126) V9 load(1, XDATA, add(CFA_XSP16, literal(-13)))
          CFI (cfiCond126) V10 load(1, XDATA, add(CFA_XSP16, literal(-12)))
          CFI (cfiCond126) V11 load(1, XDATA, add(CFA_XSP16, literal(-11)))
          CFI (cfiCond126) V12 load(1, XDATA, add(CFA_XSP16, literal(-10)))
          CFI (cfiCond126) V13 load(1, XDATA, add(CFA_XSP16, literal(-9)))
          CFI (cfiCond126) V14 load(1, XDATA, add(CFA_XSP16, literal(-8)))
          CFI (cfiCond126) V15 load(1, XDATA, add(CFA_XSP16, literal(-7)))
          CFI (cfiCond126) R7 load(1, XDATA, add(CFA_XSP16, literal(-6)))
          CFI (cfiCond126) ?RET_LOW load(1, XDATA, add(CFA_XSP16, literal(-5)))
          CFI (cfiCond126) ?RET_HIGH load(1, XDATA, add(CFA_XSP16, literal(-4)))
          CFI (cfiCond126) ?BRET_EXT load(1, XDATA, add(CFA_XSP16, literal(-3)))
          CFI (cfiCond126) DPL0 load(1, XDATA, add(CFA_XSP16, literal(-2)))
          CFI (cfiCond126) DPH0 load(1, XDATA, add(CFA_XSP16, literal(-1)))
          CFI (cfiCond126) CFA_SP SP+0
          CFI (cfiCond126) CFA_XSP16 add(XSP16, 33)
          CFI Block cfiCond127 Using cfiCommon0
          CFI (cfiCond127) Function hwLight_ApplyUpdate16b
          CFI (cfiCond127) Conditional ??CrossCallReturnLabel_80
          CFI (cfiCond127) R6 load(1, XDATA, add(CFA_XSP16, literal(-24)))
          CFI (cfiCond127) VB load(1, XDATA, add(CFA_XSP16, literal(-23)))
          CFI (cfiCond127) V0 load(1, XDATA, add(CFA_XSP16, literal(-22)))
          CFI (cfiCond127) V1 load(1, XDATA, add(CFA_XSP16, literal(-21)))
          CFI (cfiCond127) V2 load(1, XDATA, add(CFA_XSP16, literal(-20)))
          CFI (cfiCond127) V3 load(1, XDATA, add(CFA_XSP16, literal(-19)))
          CFI (cfiCond127) V4 load(1, XDATA, add(CFA_XSP16, literal(-18)))
          CFI (cfiCond127) V5 load(1, XDATA, add(CFA_XSP16, literal(-17)))
          CFI (cfiCond127) V6 load(1, XDATA, add(CFA_XSP16, literal(-16)))
          CFI (cfiCond127) V7 load(1, XDATA, add(CFA_XSP16, literal(-15)))
          CFI (cfiCond127) V8 load(1, XDATA, add(CFA_XSP16, literal(-14)))
          CFI (cfiCond127) V9 load(1, XDATA, add(CFA_XSP16, literal(-13)))
          CFI (cfiCond127) V10 load(1, XDATA, add(CFA_XSP16, literal(-12)))
          CFI (cfiCond127) V11 load(1, XDATA, add(CFA_XSP16, literal(-11)))
          CFI (cfiCond127) V12 load(1, XDATA, add(CFA_XSP16, literal(-10)))
          CFI (cfiCond127) V13 load(1, XDATA, add(CFA_XSP16, literal(-9)))
          CFI (cfiCond127) V14 load(1, XDATA, add(CFA_XSP16, literal(-8)))
          CFI (cfiCond127) V15 load(1, XDATA, add(CFA_XSP16, literal(-7)))
          CFI (cfiCond127) R7 load(1, XDATA, add(CFA_XSP16, literal(-6)))
          CFI (cfiCond127) ?RET_LOW load(1, XDATA, add(CFA_XSP16, literal(-5)))
          CFI (cfiCond127) ?RET_HIGH load(1, XDATA, add(CFA_XSP16, literal(-4)))
          CFI (cfiCond127) ?BRET_EXT load(1, XDATA, add(CFA_XSP16, literal(-3)))
          CFI (cfiCond127) DPL0 load(1, XDATA, add(CFA_XSP16, literal(-2)))
          CFI (cfiCond127) DPH0 load(1, XDATA, add(CFA_XSP16, literal(-1)))
          CFI (cfiCond127) CFA_SP SP+0
          CFI (cfiCond127) CFA_XSP16 add(XSP16, 33)
          CFI Block cfiCond128 Using cfiCommon0
          CFI (cfiCond128) Function hwLight_ApplyUpdate16b
          CFI (cfiCond128) Conditional ??CrossCallReturnLabel_81
          CFI (cfiCond128) R6 load(1, XDATA, add(CFA_XSP16, literal(-24)))
          CFI (cfiCond128) VB load(1, XDATA, add(CFA_XSP16, literal(-23)))
          CFI (cfiCond128) V0 load(1, XDATA, add(CFA_XSP16, literal(-22)))
          CFI (cfiCond128) V1 load(1, XDATA, add(CFA_XSP16, literal(-21)))
          CFI (cfiCond128) V2 load(1, XDATA, add(CFA_XSP16, literal(-20)))
          CFI (cfiCond128) V3 load(1, XDATA, add(CFA_XSP16, literal(-19)))
          CFI (cfiCond128) V4 load(1, XDATA, add(CFA_XSP16, literal(-18)))
          CFI (cfiCond128) V5 load(1, XDATA, add(CFA_XSP16, literal(-17)))
          CFI (cfiCond128) V6 load(1, XDATA, add(CFA_XSP16, literal(-16)))
          CFI (cfiCond128) V7 load(1, XDATA, add(CFA_XSP16, literal(-15)))
          CFI (cfiCond128) V8 load(1, XDATA, add(CFA_XSP16, literal(-14)))
          CFI (cfiCond128) V9 load(1, XDATA, add(CFA_XSP16, literal(-13)))
          CFI (cfiCond128) V10 load(1, XDATA, add(CFA_XSP16, literal(-12)))
          CFI (cfiCond128) V11 load(1, XDATA, add(CFA_XSP16, literal(-11)))
          CFI (cfiCond128) V12 load(1, XDATA, add(CFA_XSP16, literal(-10)))
          CFI (cfiCond128) V13 load(1, XDATA, add(CFA_XSP16, literal(-9)))
          CFI (cfiCond128) V14 load(1, XDATA, add(CFA_XSP16, literal(-8)))
          CFI (cfiCond128) V15 load(1, XDATA, add(CFA_XSP16, literal(-7)))
          CFI (cfiCond128) R7 load(1, XDATA, add(CFA_XSP16, literal(-6)))
          CFI (cfiCond128) ?RET_LOW load(1, XDATA, add(CFA_XSP16, literal(-5)))
          CFI (cfiCond128) ?RET_HIGH load(1, XDATA, add(CFA_XSP16, literal(-4)))
          CFI (cfiCond128) ?BRET_EXT load(1, XDATA, add(CFA_XSP16, literal(-3)))
          CFI (cfiCond128) DPL0 load(1, XDATA, add(CFA_XSP16, literal(-2)))
          CFI (cfiCond128) DPH0 load(1, XDATA, add(CFA_XSP16, literal(-1)))
          CFI (cfiCond128) CFA_SP SP+0
          CFI (cfiCond128) CFA_XSP16 add(XSP16, 33)
          CFI Block cfiCond129 Using cfiCommon0
          CFI (cfiCond129) Function hwLight_ApplyUpdate
          CFI (cfiCond129) Conditional ??CrossCallReturnLabel_82
          CFI (cfiCond129) R6 load(1, XDATA, add(CFA_XSP16, literal(-24)))
          CFI (cfiCond129) VB load(1, XDATA, add(CFA_XSP16, literal(-23)))
          CFI (cfiCond129) V0 load(1, XDATA, add(CFA_XSP16, literal(-22)))
          CFI (cfiCond129) V1 load(1, XDATA, add(CFA_XSP16, literal(-21)))
          CFI (cfiCond129) V2 load(1, XDATA, add(CFA_XSP16, literal(-20)))
          CFI (cfiCond129) V3 load(1, XDATA, add(CFA_XSP16, literal(-19)))
          CFI (cfiCond129) V4 load(1, XDATA, add(CFA_XSP16, literal(-18)))
          CFI (cfiCond129) V5 load(1, XDATA, add(CFA_XSP16, literal(-17)))
          CFI (cfiCond129) V6 load(1, XDATA, add(CFA_XSP16, literal(-16)))
          CFI (cfiCond129) V7 load(1, XDATA, add(CFA_XSP16, literal(-15)))
          CFI (cfiCond129) V8 load(1, XDATA, add(CFA_XSP16, literal(-14)))
          CFI (cfiCond129) V9 load(1, XDATA, add(CFA_XSP16, literal(-13)))
          CFI (cfiCond129) V10 load(1, XDATA, add(CFA_XSP16, literal(-12)))
          CFI (cfiCond129) V11 load(1, XDATA, add(CFA_XSP16, literal(-11)))
          CFI (cfiCond129) V12 load(1, XDATA, add(CFA_XSP16, literal(-10)))
          CFI (cfiCond129) V13 load(1, XDATA, add(CFA_XSP16, literal(-9)))
          CFI (cfiCond129) V14 load(1, XDATA, add(CFA_XSP16, literal(-8)))
          CFI (cfiCond129) V15 load(1, XDATA, add(CFA_XSP16, literal(-7)))
          CFI (cfiCond129) R7 load(1, XDATA, add(CFA_XSP16, literal(-6)))
          CFI (cfiCond129) ?RET_LOW load(1, XDATA, add(CFA_XSP16, literal(-5)))
          CFI (cfiCond129) ?RET_HIGH load(1, XDATA, add(CFA_XSP16, literal(-4)))
          CFI (cfiCond129) ?BRET_EXT load(1, XDATA, add(CFA_XSP16, literal(-3)))
          CFI (cfiCond129) DPL0 load(1, XDATA, add(CFA_XSP16, literal(-2)))
          CFI (cfiCond129) DPH0 load(1, XDATA, add(CFA_XSP16, literal(-1)))
          CFI (cfiCond129) CFA_SP SP+0
          CFI (cfiCond129) CFA_XSP16 add(XSP16, 29)
          CFI Block cfiPicker130 Using cfiCommon1
          CFI (cfiPicker130) NoFunction
          CFI (cfiPicker130) Picker
        MOV     DPL,?XSP + 0
        MOV     DPH,?XSP + 1
          CFI EndBlock cfiCond124
          CFI EndBlock cfiCond125
          CFI EndBlock cfiCond126
          CFI EndBlock cfiCond127
          CFI EndBlock cfiCond128
          CFI EndBlock cfiCond129
          CFI EndBlock cfiPicker130
        REQUIRE ??Subroutine38_0
        ; // Fall through to label ??Subroutine38_0

        RSEG BANKED_CODE:CODE:NOROOT(0)
??Subroutine38_0:
          CFI Block cfiCond131 Using cfiCommon0
          CFI Function hwLight_Convert_xyY_to_RGB
          CFI Conditional ??CrossCallReturnLabel_75
          CFI R6 load(1, XDATA, add(CFA_XSP16, literal(-24)))
          CFI VB load(1, XDATA, add(CFA_XSP16, literal(-23)))
          CFI V0 load(1, XDATA, add(CFA_XSP16, literal(-22)))
          CFI V1 load(1, XDATA, add(CFA_XSP16, literal(-21)))
          CFI V2 load(1, XDATA, add(CFA_XSP16, literal(-20)))
          CFI V3 load(1, XDATA, add(CFA_XSP16, literal(-19)))
          CFI V4 load(1, XDATA, add(CFA_XSP16, literal(-18)))
          CFI V5 load(1, XDATA, add(CFA_XSP16, literal(-17)))
          CFI V6 load(1, XDATA, add(CFA_XSP16, literal(-16)))
          CFI V7 load(1, XDATA, add(CFA_XSP16, literal(-15)))
          CFI V8 load(1, XDATA, add(CFA_XSP16, literal(-14)))
          CFI V9 load(1, XDATA, add(CFA_XSP16, literal(-13)))
          CFI V10 load(1, XDATA, add(CFA_XSP16, literal(-12)))
          CFI V11 load(1, XDATA, add(CFA_XSP16, literal(-11)))
          CFI V12 load(1, XDATA, add(CFA_XSP16, literal(-10)))
          CFI V13 load(1, XDATA, add(CFA_XSP16, literal(-9)))
          CFI V14 load(1, XDATA, add(CFA_XSP16, literal(-8)))
          CFI V15 load(1, XDATA, add(CFA_XSP16, literal(-7)))
          CFI R7 load(1, XDATA, add(CFA_XSP16, literal(-6)))
          CFI ?RET_LOW load(1, XDATA, add(CFA_XSP16, literal(-5)))
          CFI ?RET_HIGH load(1, XDATA, add(CFA_XSP16, literal(-4)))
          CFI ?BRET_EXT load(1, XDATA, add(CFA_XSP16, literal(-3)))
          CFI DPL0 load(1, XDATA, add(CFA_XSP16, literal(-2)))
          CFI DPH0 load(1, XDATA, add(CFA_XSP16, literal(-1)))
          CFI CFA_SP SP+0
          CFI CFA_XSP16 add(XSP16, 40)
          CFI Block cfiCond132 Using cfiCommon0
          CFI (cfiCond132) Function hwLight_ApplyUpdate
          CFI (cfiCond132) Conditional ??CrossCallReturnLabel_76
          CFI (cfiCond132) R6 load(1, XDATA, add(CFA_XSP16, literal(-24)))
          CFI (cfiCond132) VB load(1, XDATA, add(CFA_XSP16, literal(-23)))
          CFI (cfiCond132) V0 load(1, XDATA, add(CFA_XSP16, literal(-22)))
          CFI (cfiCond132) V1 load(1, XDATA, add(CFA_XSP16, literal(-21)))
          CFI (cfiCond132) V2 load(1, XDATA, add(CFA_XSP16, literal(-20)))
          CFI (cfiCond132) V3 load(1, XDATA, add(CFA_XSP16, literal(-19)))
          CFI (cfiCond132) V4 load(1, XDATA, add(CFA_XSP16, literal(-18)))
          CFI (cfiCond132) V5 load(1, XDATA, add(CFA_XSP16, literal(-17)))
          CFI (cfiCond132) V6 load(1, XDATA, add(CFA_XSP16, literal(-16)))
          CFI (cfiCond132) V7 load(1, XDATA, add(CFA_XSP16, literal(-15)))
          CFI (cfiCond132) V8 load(1, XDATA, add(CFA_XSP16, literal(-14)))
          CFI (cfiCond132) V9 load(1, XDATA, add(CFA_XSP16, literal(-13)))
          CFI (cfiCond132) V10 load(1, XDATA, add(CFA_XSP16, literal(-12)))
          CFI (cfiCond132) V11 load(1, XDATA, add(CFA_XSP16, literal(-11)))
          CFI (cfiCond132) V12 load(1, XDATA, add(CFA_XSP16, literal(-10)))
          CFI (cfiCond132) V13 load(1, XDATA, add(CFA_XSP16, literal(-9)))
          CFI (cfiCond132) V14 load(1, XDATA, add(CFA_XSP16, literal(-8)))
          CFI (cfiCond132) V15 load(1, XDATA, add(CFA_XSP16, literal(-7)))
          CFI (cfiCond132) R7 load(1, XDATA, add(CFA_XSP16, literal(-6)))
          CFI (cfiCond132) ?RET_LOW load(1, XDATA, add(CFA_XSP16, literal(-5)))
          CFI (cfiCond132) ?RET_HIGH load(1, XDATA, add(CFA_XSP16, literal(-4)))
          CFI (cfiCond132) ?BRET_EXT load(1, XDATA, add(CFA_XSP16, literal(-3)))
          CFI (cfiCond132) DPL0 load(1, XDATA, add(CFA_XSP16, literal(-2)))
          CFI (cfiCond132) DPH0 load(1, XDATA, add(CFA_XSP16, literal(-1)))
          CFI (cfiCond132) CFA_SP SP+-1
          CFI (cfiCond132) CFA_XSP16 add(XSP16, 29)
          CFI Block cfiCond133 Using cfiCommon0
          CFI (cfiCond133) Function hwLight_ApplyUpdate16b
          CFI (cfiCond133) Conditional ??CrossCallReturnLabel_77
          CFI (cfiCond133) R6 load(1, XDATA, add(CFA_XSP16, literal(-24)))
          CFI (cfiCond133) VB load(1, XDATA, add(CFA_XSP16, literal(-23)))
          CFI (cfiCond133) V0 load(1, XDATA, add(CFA_XSP16, literal(-22)))
          CFI (cfiCond133) V1 load(1, XDATA, add(CFA_XSP16, literal(-21)))
          CFI (cfiCond133) V2 load(1, XDATA, add(CFA_XSP16, literal(-20)))
          CFI (cfiCond133) V3 load(1, XDATA, add(CFA_XSP16, literal(-19)))
          CFI (cfiCond133) V4 load(1, XDATA, add(CFA_XSP16, literal(-18)))
          CFI (cfiCond133) V5 load(1, XDATA, add(CFA_XSP16, literal(-17)))
          CFI (cfiCond133) V6 load(1, XDATA, add(CFA_XSP16, literal(-16)))
          CFI (cfiCond133) V7 load(1, XDATA, add(CFA_XSP16, literal(-15)))
          CFI (cfiCond133) V8 load(1, XDATA, add(CFA_XSP16, literal(-14)))
          CFI (cfiCond133) V9 load(1, XDATA, add(CFA_XSP16, literal(-13)))
          CFI (cfiCond133) V10 load(1, XDATA, add(CFA_XSP16, literal(-12)))
          CFI (cfiCond133) V11 load(1, XDATA, add(CFA_XSP16, literal(-11)))
          CFI (cfiCond133) V12 load(1, XDATA, add(CFA_XSP16, literal(-10)))
          CFI (cfiCond133) V13 load(1, XDATA, add(CFA_XSP16, literal(-9)))
          CFI (cfiCond133) V14 load(1, XDATA, add(CFA_XSP16, literal(-8)))
          CFI (cfiCond133) V15 load(1, XDATA, add(CFA_XSP16, literal(-7)))
          CFI (cfiCond133) R7 load(1, XDATA, add(CFA_XSP16, literal(-6)))
          CFI (cfiCond133) ?RET_LOW load(1, XDATA, add(CFA_XSP16, literal(-5)))
          CFI (cfiCond133) ?RET_HIGH load(1, XDATA, add(CFA_XSP16, literal(-4)))
          CFI (cfiCond133) ?BRET_EXT load(1, XDATA, add(CFA_XSP16, literal(-3)))
          CFI (cfiCond133) DPL0 load(1, XDATA, add(CFA_XSP16, literal(-2)))
          CFI (cfiCond133) DPH0 load(1, XDATA, add(CFA_XSP16, literal(-1)))
          CFI (cfiCond133) CFA_SP SP+0
          CFI (cfiCond133) CFA_XSP16 add(XSP16, 33)
          CFI Block cfiCond134 Using cfiCommon0
          CFI (cfiCond134) Function hwLight_ApplyUpdate16b
          CFI (cfiCond134) Conditional ??CrossCallReturnLabel_78
          CFI (cfiCond134) R6 load(1, XDATA, add(CFA_XSP16, literal(-24)))
          CFI (cfiCond134) VB load(1, XDATA, add(CFA_XSP16, literal(-23)))
          CFI (cfiCond134) V0 load(1, XDATA, add(CFA_XSP16, literal(-22)))
          CFI (cfiCond134) V1 load(1, XDATA, add(CFA_XSP16, literal(-21)))
          CFI (cfiCond134) V2 load(1, XDATA, add(CFA_XSP16, literal(-20)))
          CFI (cfiCond134) V3 load(1, XDATA, add(CFA_XSP16, literal(-19)))
          CFI (cfiCond134) V4 load(1, XDATA, add(CFA_XSP16, literal(-18)))
          CFI (cfiCond134) V5 load(1, XDATA, add(CFA_XSP16, literal(-17)))
          CFI (cfiCond134) V6 load(1, XDATA, add(CFA_XSP16, literal(-16)))
          CFI (cfiCond134) V7 load(1, XDATA, add(CFA_XSP16, literal(-15)))
          CFI (cfiCond134) V8 load(1, XDATA, add(CFA_XSP16, literal(-14)))
          CFI (cfiCond134) V9 load(1, XDATA, add(CFA_XSP16, literal(-13)))
          CFI (cfiCond134) V10 load(1, XDATA, add(CFA_XSP16, literal(-12)))
          CFI (cfiCond134) V11 load(1, XDATA, add(CFA_XSP16, literal(-11)))
          CFI (cfiCond134) V12 load(1, XDATA, add(CFA_XSP16, literal(-10)))
          CFI (cfiCond134) V13 load(1, XDATA, add(CFA_XSP16, literal(-9)))
          CFI (cfiCond134) V14 load(1, XDATA, add(CFA_XSP16, literal(-8)))
          CFI (cfiCond134) V15 load(1, XDATA, add(CFA_XSP16, literal(-7)))
          CFI (cfiCond134) R7 load(1, XDATA, add(CFA_XSP16, literal(-6)))
          CFI (cfiCond134) ?RET_LOW load(1, XDATA, add(CFA_XSP16, literal(-5)))
          CFI (cfiCond134) ?RET_HIGH load(1, XDATA, add(CFA_XSP16, literal(-4)))
          CFI (cfiCond134) ?BRET_EXT load(1, XDATA, add(CFA_XSP16, literal(-3)))
          CFI (cfiCond134) DPL0 load(1, XDATA, add(CFA_XSP16, literal(-2)))
          CFI (cfiCond134) DPH0 load(1, XDATA, add(CFA_XSP16, literal(-1)))
          CFI (cfiCond134) CFA_SP SP+0
          CFI (cfiCond134) CFA_XSP16 add(XSP16, 33)
          CFI Block cfiCond135 Using cfiCommon0
          CFI (cfiCond135) Function hwLight_ApplyUpdate16b
          CFI (cfiCond135) Conditional ??CrossCallReturnLabel_79
          CFI (cfiCond135) R6 load(1, XDATA, add(CFA_XSP16, literal(-24)))
          CFI (cfiCond135) VB load(1, XDATA, add(CFA_XSP16, literal(-23)))
          CFI (cfiCond135) V0 load(1, XDATA, add(CFA_XSP16, literal(-22)))
          CFI (cfiCond135) V1 load(1, XDATA, add(CFA_XSP16, literal(-21)))
          CFI (cfiCond135) V2 load(1, XDATA, add(CFA_XSP16, literal(-20)))
          CFI (cfiCond135) V3 load(1, XDATA, add(CFA_XSP16, literal(-19)))
          CFI (cfiCond135) V4 load(1, XDATA, add(CFA_XSP16, literal(-18)))
          CFI (cfiCond135) V5 load(1, XDATA, add(CFA_XSP16, literal(-17)))
          CFI (cfiCond135) V6 load(1, XDATA, add(CFA_XSP16, literal(-16)))
          CFI (cfiCond135) V7 load(1, XDATA, add(CFA_XSP16, literal(-15)))
          CFI (cfiCond135) V8 load(1, XDATA, add(CFA_XSP16, literal(-14)))
          CFI (cfiCond135) V9 load(1, XDATA, add(CFA_XSP16, literal(-13)))
          CFI (cfiCond135) V10 load(1, XDATA, add(CFA_XSP16, literal(-12)))
          CFI (cfiCond135) V11 load(1, XDATA, add(CFA_XSP16, literal(-11)))
          CFI (cfiCond135) V12 load(1, XDATA, add(CFA_XSP16, literal(-10)))
          CFI (cfiCond135) V13 load(1, XDATA, add(CFA_XSP16, literal(-9)))
          CFI (cfiCond135) V14 load(1, XDATA, add(CFA_XSP16, literal(-8)))
          CFI (cfiCond135) V15 load(1, XDATA, add(CFA_XSP16, literal(-7)))
          CFI (cfiCond135) R7 load(1, XDATA, add(CFA_XSP16, literal(-6)))
          CFI (cfiCond135) ?RET_LOW load(1, XDATA, add(CFA_XSP16, literal(-5)))
          CFI (cfiCond135) ?RET_HIGH load(1, XDATA, add(CFA_XSP16, literal(-4)))
          CFI (cfiCond135) ?BRET_EXT load(1, XDATA, add(CFA_XSP16, literal(-3)))
          CFI (cfiCond135) DPL0 load(1, XDATA, add(CFA_XSP16, literal(-2)))
          CFI (cfiCond135) DPH0 load(1, XDATA, add(CFA_XSP16, literal(-1)))
          CFI (cfiCond135) CFA_SP SP+0
          CFI (cfiCond135) CFA_XSP16 add(XSP16, 33)
          CFI Block cfiCond136 Using cfiCommon0
          CFI (cfiCond136) Function hwLight_ApplyUpdate16b
          CFI (cfiCond136) Conditional ??CrossCallReturnLabel_80
          CFI (cfiCond136) R6 load(1, XDATA, add(CFA_XSP16, literal(-24)))
          CFI (cfiCond136) VB load(1, XDATA, add(CFA_XSP16, literal(-23)))
          CFI (cfiCond136) V0 load(1, XDATA, add(CFA_XSP16, literal(-22)))
          CFI (cfiCond136) V1 load(1, XDATA, add(CFA_XSP16, literal(-21)))
          CFI (cfiCond136) V2 load(1, XDATA, add(CFA_XSP16, literal(-20)))
          CFI (cfiCond136) V3 load(1, XDATA, add(CFA_XSP16, literal(-19)))
          CFI (cfiCond136) V4 load(1, XDATA, add(CFA_XSP16, literal(-18)))
          CFI (cfiCond136) V5 load(1, XDATA, add(CFA_XSP16, literal(-17)))
          CFI (cfiCond136) V6 load(1, XDATA, add(CFA_XSP16, literal(-16)))
          CFI (cfiCond136) V7 load(1, XDATA, add(CFA_XSP16, literal(-15)))
          CFI (cfiCond136) V8 load(1, XDATA, add(CFA_XSP16, literal(-14)))
          CFI (cfiCond136) V9 load(1, XDATA, add(CFA_XSP16, literal(-13)))
          CFI (cfiCond136) V10 load(1, XDATA, add(CFA_XSP16, literal(-12)))
          CFI (cfiCond136) V11 load(1, XDATA, add(CFA_XSP16, literal(-11)))
          CFI (cfiCond136) V12 load(1, XDATA, add(CFA_XSP16, literal(-10)))
          CFI (cfiCond136) V13 load(1, XDATA, add(CFA_XSP16, literal(-9)))
          CFI (cfiCond136) V14 load(1, XDATA, add(CFA_XSP16, literal(-8)))
          CFI (cfiCond136) V15 load(1, XDATA, add(CFA_XSP16, literal(-7)))
          CFI (cfiCond136) R7 load(1, XDATA, add(CFA_XSP16, literal(-6)))
          CFI (cfiCond136) ?RET_LOW load(1, XDATA, add(CFA_XSP16, literal(-5)))
          CFI (cfiCond136) ?RET_HIGH load(1, XDATA, add(CFA_XSP16, literal(-4)))
          CFI (cfiCond136) ?BRET_EXT load(1, XDATA, add(CFA_XSP16, literal(-3)))
          CFI (cfiCond136) DPL0 load(1, XDATA, add(CFA_XSP16, literal(-2)))
          CFI (cfiCond136) DPH0 load(1, XDATA, add(CFA_XSP16, literal(-1)))
          CFI (cfiCond136) CFA_SP SP+0
          CFI (cfiCond136) CFA_XSP16 add(XSP16, 33)
          CFI Block cfiCond137 Using cfiCommon0
          CFI (cfiCond137) Function hwLight_ApplyUpdate16b
          CFI (cfiCond137) Conditional ??CrossCallReturnLabel_81
          CFI (cfiCond137) R6 load(1, XDATA, add(CFA_XSP16, literal(-24)))
          CFI (cfiCond137) VB load(1, XDATA, add(CFA_XSP16, literal(-23)))
          CFI (cfiCond137) V0 load(1, XDATA, add(CFA_XSP16, literal(-22)))
          CFI (cfiCond137) V1 load(1, XDATA, add(CFA_XSP16, literal(-21)))
          CFI (cfiCond137) V2 load(1, XDATA, add(CFA_XSP16, literal(-20)))
          CFI (cfiCond137) V3 load(1, XDATA, add(CFA_XSP16, literal(-19)))
          CFI (cfiCond137) V4 load(1, XDATA, add(CFA_XSP16, literal(-18)))
          CFI (cfiCond137) V5 load(1, XDATA, add(CFA_XSP16, literal(-17)))
          CFI (cfiCond137) V6 load(1, XDATA, add(CFA_XSP16, literal(-16)))
          CFI (cfiCond137) V7 load(1, XDATA, add(CFA_XSP16, literal(-15)))
          CFI (cfiCond137) V8 load(1, XDATA, add(CFA_XSP16, literal(-14)))
          CFI (cfiCond137) V9 load(1, XDATA, add(CFA_XSP16, literal(-13)))
          CFI (cfiCond137) V10 load(1, XDATA, add(CFA_XSP16, literal(-12)))
          CFI (cfiCond137) V11 load(1, XDATA, add(CFA_XSP16, literal(-11)))
          CFI (cfiCond137) V12 load(1, XDATA, add(CFA_XSP16, literal(-10)))
          CFI (cfiCond137) V13 load(1, XDATA, add(CFA_XSP16, literal(-9)))
          CFI (cfiCond137) V14 load(1, XDATA, add(CFA_XSP16, literal(-8)))
          CFI (cfiCond137) V15 load(1, XDATA, add(CFA_XSP16, literal(-7)))
          CFI (cfiCond137) R7 load(1, XDATA, add(CFA_XSP16, literal(-6)))
          CFI (cfiCond137) ?RET_LOW load(1, XDATA, add(CFA_XSP16, literal(-5)))
          CFI (cfiCond137) ?RET_HIGH load(1, XDATA, add(CFA_XSP16, literal(-4)))
          CFI (cfiCond137) ?BRET_EXT load(1, XDATA, add(CFA_XSP16, literal(-3)))
          CFI (cfiCond137) DPL0 load(1, XDATA, add(CFA_XSP16, literal(-2)))
          CFI (cfiCond137) DPH0 load(1, XDATA, add(CFA_XSP16, literal(-1)))
          CFI (cfiCond137) CFA_SP SP+0
          CFI (cfiCond137) CFA_XSP16 add(XSP16, 33)
          CFI Block cfiCond138 Using cfiCommon0
          CFI (cfiCond138) Function hwLight_ApplyUpdate
          CFI (cfiCond138) Conditional ??CrossCallReturnLabel_82
          CFI (cfiCond138) R6 load(1, XDATA, add(CFA_XSP16, literal(-24)))
          CFI (cfiCond138) VB load(1, XDATA, add(CFA_XSP16, literal(-23)))
          CFI (cfiCond138) V0 load(1, XDATA, add(CFA_XSP16, literal(-22)))
          CFI (cfiCond138) V1 load(1, XDATA, add(CFA_XSP16, literal(-21)))
          CFI (cfiCond138) V2 load(1, XDATA, add(CFA_XSP16, literal(-20)))
          CFI (cfiCond138) V3 load(1, XDATA, add(CFA_XSP16, literal(-19)))
          CFI (cfiCond138) V4 load(1, XDATA, add(CFA_XSP16, literal(-18)))
          CFI (cfiCond138) V5 load(1, XDATA, add(CFA_XSP16, literal(-17)))
          CFI (cfiCond138) V6 load(1, XDATA, add(CFA_XSP16, literal(-16)))
          CFI (cfiCond138) V7 load(1, XDATA, add(CFA_XSP16, literal(-15)))
          CFI (cfiCond138) V8 load(1, XDATA, add(CFA_XSP16, literal(-14)))
          CFI (cfiCond138) V9 load(1, XDATA, add(CFA_XSP16, literal(-13)))
          CFI (cfiCond138) V10 load(1, XDATA, add(CFA_XSP16, literal(-12)))
          CFI (cfiCond138) V11 load(1, XDATA, add(CFA_XSP16, literal(-11)))
          CFI (cfiCond138) V12 load(1, XDATA, add(CFA_XSP16, literal(-10)))
          CFI (cfiCond138) V13 load(1, XDATA, add(CFA_XSP16, literal(-9)))
          CFI (cfiCond138) V14 load(1, XDATA, add(CFA_XSP16, literal(-8)))
          CFI (cfiCond138) V15 load(1, XDATA, add(CFA_XSP16, literal(-7)))
          CFI (cfiCond138) R7 load(1, XDATA, add(CFA_XSP16, literal(-6)))
          CFI (cfiCond138) ?RET_LOW load(1, XDATA, add(CFA_XSP16, literal(-5)))
          CFI (cfiCond138) ?RET_HIGH load(1, XDATA, add(CFA_XSP16, literal(-4)))
          CFI (cfiCond138) ?BRET_EXT load(1, XDATA, add(CFA_XSP16, literal(-3)))
          CFI (cfiCond138) DPL0 load(1, XDATA, add(CFA_XSP16, literal(-2)))
          CFI (cfiCond138) DPH0 load(1, XDATA, add(CFA_XSP16, literal(-1)))
          CFI (cfiCond138) CFA_SP SP+0
          CFI (cfiCond138) CFA_XSP16 add(XSP16, 29)
          CFI Block cfiPicker139 Using cfiCommon1
          CFI (cfiPicker139) NoFunction
          CFI (cfiPicker139) Picker
        LCALL   ?Subroutine28 & 0xFFFF
??CrossCallReturnLabel_91:
        RET
          CFI EndBlock cfiCond131
          CFI EndBlock cfiCond132
          CFI EndBlock cfiCond133
          CFI EndBlock cfiCond134
          CFI EndBlock cfiCond135
          CFI EndBlock cfiCond136
          CFI EndBlock cfiCond137
          CFI EndBlock cfiCond138
          CFI EndBlock cfiPicker139

        RSEG BANKED_CODE:CODE:NOROOT(0)
?Subroutine28:
          CFI Block cfiCond140 Using cfiCommon0
          CFI Function hwLight_Convert_xyY_to_RGB
          CFI Conditional ??CrossCallReturnLabel_89, ??CrossCallReturnLabel_4
          CFI R6 load(1, XDATA, add(CFA_XSP16, literal(-24)))
          CFI VB load(1, XDATA, add(CFA_XSP16, literal(-23)))
          CFI V0 load(1, XDATA, add(CFA_XSP16, literal(-22)))
          CFI V1 load(1, XDATA, add(CFA_XSP16, literal(-21)))
          CFI V2 load(1, XDATA, add(CFA_XSP16, literal(-20)))
          CFI V3 load(1, XDATA, add(CFA_XSP16, literal(-19)))
          CFI V4 load(1, XDATA, add(CFA_XSP16, literal(-18)))
          CFI V5 load(1, XDATA, add(CFA_XSP16, literal(-17)))
          CFI V6 load(1, XDATA, add(CFA_XSP16, literal(-16)))
          CFI V7 load(1, XDATA, add(CFA_XSP16, literal(-15)))
          CFI V8 load(1, XDATA, add(CFA_XSP16, literal(-14)))
          CFI V9 load(1, XDATA, add(CFA_XSP16, literal(-13)))
          CFI V10 load(1, XDATA, add(CFA_XSP16, literal(-12)))
          CFI V11 load(1, XDATA, add(CFA_XSP16, literal(-11)))
          CFI V12 load(1, XDATA, add(CFA_XSP16, literal(-10)))
          CFI V13 load(1, XDATA, add(CFA_XSP16, literal(-9)))
          CFI V14 load(1, XDATA, add(CFA_XSP16, literal(-8)))
          CFI V15 load(1, XDATA, add(CFA_XSP16, literal(-7)))
          CFI R7 load(1, XDATA, add(CFA_XSP16, literal(-6)))
          CFI ?RET_LOW load(1, XDATA, add(CFA_XSP16, literal(-5)))
          CFI ?RET_HIGH load(1, XDATA, add(CFA_XSP16, literal(-4)))
          CFI ?BRET_EXT load(1, XDATA, add(CFA_XSP16, literal(-3)))
          CFI DPL0 load(1, XDATA, add(CFA_XSP16, literal(-2)))
          CFI DPH0 load(1, XDATA, add(CFA_XSP16, literal(-1)))
          CFI CFA_SP SP+0
          CFI CFA_XSP16 add(XSP16, 40)
          CFI Block cfiCond141 Using cfiCommon0
          CFI (cfiCond141) Function hwLight_ApplyUpdate16b
          CFI (cfiCond141) Conditional ??CrossCallReturnLabel_89, ??CrossCallReturnLabel_5
          CFI (cfiCond141) R6 load(1, XDATA, add(CFA_XSP16, literal(-24)))
          CFI (cfiCond141) VB load(1, XDATA, add(CFA_XSP16, literal(-23)))
          CFI (cfiCond141) V0 load(1, XDATA, add(CFA_XSP16, literal(-22)))
          CFI (cfiCond141) V1 load(1, XDATA, add(CFA_XSP16, literal(-21)))
          CFI (cfiCond141) V2 load(1, XDATA, add(CFA_XSP16, literal(-20)))
          CFI (cfiCond141) V3 load(1, XDATA, add(CFA_XSP16, literal(-19)))
          CFI (cfiCond141) V4 load(1, XDATA, add(CFA_XSP16, literal(-18)))
          CFI (cfiCond141) V5 load(1, XDATA, add(CFA_XSP16, literal(-17)))
          CFI (cfiCond141) V6 load(1, XDATA, add(CFA_XSP16, literal(-16)))
          CFI (cfiCond141) V7 load(1, XDATA, add(CFA_XSP16, literal(-15)))
          CFI (cfiCond141) V8 load(1, XDATA, add(CFA_XSP16, literal(-14)))
          CFI (cfiCond141) V9 load(1, XDATA, add(CFA_XSP16, literal(-13)))
          CFI (cfiCond141) V10 load(1, XDATA, add(CFA_XSP16, literal(-12)))
          CFI (cfiCond141) V11 load(1, XDATA, add(CFA_XSP16, literal(-11)))
          CFI (cfiCond141) V12 load(1, XDATA, add(CFA_XSP16, literal(-10)))
          CFI (cfiCond141) V13 load(1, XDATA, add(CFA_XSP16, literal(-9)))
          CFI (cfiCond141) V14 load(1, XDATA, add(CFA_XSP16, literal(-8)))
          CFI (cfiCond141) V15 load(1, XDATA, add(CFA_XSP16, literal(-7)))
          CFI (cfiCond141) R7 load(1, XDATA, add(CFA_XSP16, literal(-6)))
          CFI (cfiCond141) ?RET_LOW load(1, XDATA, add(CFA_XSP16, literal(-5)))
          CFI (cfiCond141) ?RET_HIGH load(1, XDATA, add(CFA_XSP16, literal(-4)))
          CFI (cfiCond141) ?BRET_EXT load(1, XDATA, add(CFA_XSP16, literal(-3)))
          CFI (cfiCond141) DPL0 load(1, XDATA, add(CFA_XSP16, literal(-2)))
          CFI (cfiCond141) DPH0 load(1, XDATA, add(CFA_XSP16, literal(-1)))
          CFI (cfiCond141) CFA_SP SP+0
          CFI (cfiCond141) CFA_XSP16 add(XSP16, 33)
          CFI Block cfiCond142 Using cfiCommon0
          CFI (cfiCond142) Function hwLight_ApplyUpdate16b
          CFI (cfiCond142) Conditional ??CrossCallReturnLabel_90, ??CrossCallReturnLabel_66
          CFI (cfiCond142) R6 load(1, XDATA, add(CFA_XSP16, literal(-24)))
          CFI (cfiCond142) VB load(1, XDATA, add(CFA_XSP16, literal(-23)))
          CFI (cfiCond142) V0 load(1, XDATA, add(CFA_XSP16, literal(-22)))
          CFI (cfiCond142) V1 load(1, XDATA, add(CFA_XSP16, literal(-21)))
          CFI (cfiCond142) V2 load(1, XDATA, add(CFA_XSP16, literal(-20)))
          CFI (cfiCond142) V3 load(1, XDATA, add(CFA_XSP16, literal(-19)))
          CFI (cfiCond142) V4 load(1, XDATA, add(CFA_XSP16, literal(-18)))
          CFI (cfiCond142) V5 load(1, XDATA, add(CFA_XSP16, literal(-17)))
          CFI (cfiCond142) V6 load(1, XDATA, add(CFA_XSP16, literal(-16)))
          CFI (cfiCond142) V7 load(1, XDATA, add(CFA_XSP16, literal(-15)))
          CFI (cfiCond142) V8 load(1, XDATA, add(CFA_XSP16, literal(-14)))
          CFI (cfiCond142) V9 load(1, XDATA, add(CFA_XSP16, literal(-13)))
          CFI (cfiCond142) V10 load(1, XDATA, add(CFA_XSP16, literal(-12)))
          CFI (cfiCond142) V11 load(1, XDATA, add(CFA_XSP16, literal(-11)))
          CFI (cfiCond142) V12 load(1, XDATA, add(CFA_XSP16, literal(-10)))
          CFI (cfiCond142) V13 load(1, XDATA, add(CFA_XSP16, literal(-9)))
          CFI (cfiCond142) V14 load(1, XDATA, add(CFA_XSP16, literal(-8)))
          CFI (cfiCond142) V15 load(1, XDATA, add(CFA_XSP16, literal(-7)))
          CFI (cfiCond142) R7 load(1, XDATA, add(CFA_XSP16, literal(-6)))
          CFI (cfiCond142) ?RET_LOW load(1, XDATA, add(CFA_XSP16, literal(-5)))
          CFI (cfiCond142) ?RET_HIGH load(1, XDATA, add(CFA_XSP16, literal(-4)))
          CFI (cfiCond142) ?BRET_EXT load(1, XDATA, add(CFA_XSP16, literal(-3)))
          CFI (cfiCond142) DPL0 load(1, XDATA, add(CFA_XSP16, literal(-2)))
          CFI (cfiCond142) DPH0 load(1, XDATA, add(CFA_XSP16, literal(-1)))
          CFI (cfiCond142) CFA_SP SP+0
          CFI (cfiCond142) CFA_XSP16 add(XSP16, 33)
          CFI Block cfiCond143 Using cfiCommon0
          CFI (cfiCond143) Function hwLight_ApplyUpdate16b
          CFI (cfiCond143) Conditional ??CrossCallReturnLabel_90, ??CrossCallReturnLabel_67
          CFI (cfiCond143) R6 load(1, XDATA, add(CFA_XSP16, literal(-24)))
          CFI (cfiCond143) VB load(1, XDATA, add(CFA_XSP16, literal(-23)))
          CFI (cfiCond143) V0 load(1, XDATA, add(CFA_XSP16, literal(-22)))
          CFI (cfiCond143) V1 load(1, XDATA, add(CFA_XSP16, literal(-21)))
          CFI (cfiCond143) V2 load(1, XDATA, add(CFA_XSP16, literal(-20)))
          CFI (cfiCond143) V3 load(1, XDATA, add(CFA_XSP16, literal(-19)))
          CFI (cfiCond143) V4 load(1, XDATA, add(CFA_XSP16, literal(-18)))
          CFI (cfiCond143) V5 load(1, XDATA, add(CFA_XSP16, literal(-17)))
          CFI (cfiCond143) V6 load(1, XDATA, add(CFA_XSP16, literal(-16)))
          CFI (cfiCond143) V7 load(1, XDATA, add(CFA_XSP16, literal(-15)))
          CFI (cfiCond143) V8 load(1, XDATA, add(CFA_XSP16, literal(-14)))
          CFI (cfiCond143) V9 load(1, XDATA, add(CFA_XSP16, literal(-13)))
          CFI (cfiCond143) V10 load(1, XDATA, add(CFA_XSP16, literal(-12)))
          CFI (cfiCond143) V11 load(1, XDATA, add(CFA_XSP16, literal(-11)))
          CFI (cfiCond143) V12 load(1, XDATA, add(CFA_XSP16, literal(-10)))
          CFI (cfiCond143) V13 load(1, XDATA, add(CFA_XSP16, literal(-9)))
          CFI (cfiCond143) V14 load(1, XDATA, add(CFA_XSP16, literal(-8)))
          CFI (cfiCond143) V15 load(1, XDATA, add(CFA_XSP16, literal(-7)))
          CFI (cfiCond143) R7 load(1, XDATA, add(CFA_XSP16, literal(-6)))
          CFI (cfiCond143) ?RET_LOW load(1, XDATA, add(CFA_XSP16, literal(-5)))
          CFI (cfiCond143) ?RET_HIGH load(1, XDATA, add(CFA_XSP16, literal(-4)))
          CFI (cfiCond143) ?BRET_EXT load(1, XDATA, add(CFA_XSP16, literal(-3)))
          CFI (cfiCond143) DPL0 load(1, XDATA, add(CFA_XSP16, literal(-2)))
          CFI (cfiCond143) DPH0 load(1, XDATA, add(CFA_XSP16, literal(-1)))
          CFI (cfiCond143) CFA_SP SP+0
          CFI (cfiCond143) CFA_XSP16 add(XSP16, 33)
          CFI Block cfiCond144 Using cfiCommon0
          CFI (cfiCond144) Function hwLight_ApplyUpdate16b
          CFI (cfiCond144) Conditional ??CrossCallReturnLabel_90, ??CrossCallReturnLabel_68
          CFI (cfiCond144) R6 load(1, XDATA, add(CFA_XSP16, literal(-24)))
          CFI (cfiCond144) VB load(1, XDATA, add(CFA_XSP16, literal(-23)))
          CFI (cfiCond144) V0 load(1, XDATA, add(CFA_XSP16, literal(-22)))
          CFI (cfiCond144) V1 load(1, XDATA, add(CFA_XSP16, literal(-21)))
          CFI (cfiCond144) V2 load(1, XDATA, add(CFA_XSP16, literal(-20)))
          CFI (cfiCond144) V3 load(1, XDATA, add(CFA_XSP16, literal(-19)))
          CFI (cfiCond144) V4 load(1, XDATA, add(CFA_XSP16, literal(-18)))
          CFI (cfiCond144) V5 load(1, XDATA, add(CFA_XSP16, literal(-17)))
          CFI (cfiCond144) V6 load(1, XDATA, add(CFA_XSP16, literal(-16)))
          CFI (cfiCond144) V7 load(1, XDATA, add(CFA_XSP16, literal(-15)))
          CFI (cfiCond144) V8 load(1, XDATA, add(CFA_XSP16, literal(-14)))
          CFI (cfiCond144) V9 load(1, XDATA, add(CFA_XSP16, literal(-13)))
          CFI (cfiCond144) V10 load(1, XDATA, add(CFA_XSP16, literal(-12)))
          CFI (cfiCond144) V11 load(1, XDATA, add(CFA_XSP16, literal(-11)))
          CFI (cfiCond144) V12 load(1, XDATA, add(CFA_XSP16, literal(-10)))
          CFI (cfiCond144) V13 load(1, XDATA, add(CFA_XSP16, literal(-9)))
          CFI (cfiCond144) V14 load(1, XDATA, add(CFA_XSP16, literal(-8)))
          CFI (cfiCond144) V15 load(1, XDATA, add(CFA_XSP16, literal(-7)))
          CFI (cfiCond144) R7 load(1, XDATA, add(CFA_XSP16, literal(-6)))
          CFI (cfiCond144) ?RET_LOW load(1, XDATA, add(CFA_XSP16, literal(-5)))
          CFI (cfiCond144) ?RET_HIGH load(1, XDATA, add(CFA_XSP16, literal(-4)))
          CFI (cfiCond144) ?BRET_EXT load(1, XDATA, add(CFA_XSP16, literal(-3)))
          CFI (cfiCond144) DPL0 load(1, XDATA, add(CFA_XSP16, literal(-2)))
          CFI (cfiCond144) DPH0 load(1, XDATA, add(CFA_XSP16, literal(-1)))
          CFI (cfiCond144) CFA_SP SP+0
          CFI (cfiCond144) CFA_XSP16 add(XSP16, 33)
          CFI Block cfiCond145 Using cfiCommon0
          CFI (cfiCond145) Function hwLight_ApplyUpdate
          CFI (cfiCond145) Conditional ??CrossCallReturnLabel_90, ??CrossCallReturnLabel_65
          CFI (cfiCond145) R6 load(1, XDATA, add(CFA_XSP16, literal(-24)))
          CFI (cfiCond145) VB load(1, XDATA, add(CFA_XSP16, literal(-23)))
          CFI (cfiCond145) V0 load(1, XDATA, add(CFA_XSP16, literal(-22)))
          CFI (cfiCond145) V1 load(1, XDATA, add(CFA_XSP16, literal(-21)))
          CFI (cfiCond145) V2 load(1, XDATA, add(CFA_XSP16, literal(-20)))
          CFI (cfiCond145) V3 load(1, XDATA, add(CFA_XSP16, literal(-19)))
          CFI (cfiCond145) V4 load(1, XDATA, add(CFA_XSP16, literal(-18)))
          CFI (cfiCond145) V5 load(1, XDATA, add(CFA_XSP16, literal(-17)))
          CFI (cfiCond145) V6 load(1, XDATA, add(CFA_XSP16, literal(-16)))
          CFI (cfiCond145) V7 load(1, XDATA, add(CFA_XSP16, literal(-15)))
          CFI (cfiCond145) V8 load(1, XDATA, add(CFA_XSP16, literal(-14)))
          CFI (cfiCond145) V9 load(1, XDATA, add(CFA_XSP16, literal(-13)))
          CFI (cfiCond145) V10 load(1, XDATA, add(CFA_XSP16, literal(-12)))
          CFI (cfiCond145) V11 load(1, XDATA, add(CFA_XSP16, literal(-11)))
          CFI (cfiCond145) V12 load(1, XDATA, add(CFA_XSP16, literal(-10)))
          CFI (cfiCond145) V13 load(1, XDATA, add(CFA_XSP16, literal(-9)))
          CFI (cfiCond145) V14 load(1, XDATA, add(CFA_XSP16, literal(-8)))
          CFI (cfiCond145) V15 load(1, XDATA, add(CFA_XSP16, literal(-7)))
          CFI (cfiCond145) R7 load(1, XDATA, add(CFA_XSP16, literal(-6)))
          CFI (cfiCond145) ?RET_LOW load(1, XDATA, add(CFA_XSP16, literal(-5)))
          CFI (cfiCond145) ?RET_HIGH load(1, XDATA, add(CFA_XSP16, literal(-4)))
          CFI (cfiCond145) ?BRET_EXT load(1, XDATA, add(CFA_XSP16, literal(-3)))
          CFI (cfiCond145) DPL0 load(1, XDATA, add(CFA_XSP16, literal(-2)))
          CFI (cfiCond145) DPH0 load(1, XDATA, add(CFA_XSP16, literal(-1)))
          CFI (cfiCond145) CFA_SP SP+0
          CFI (cfiCond145) CFA_XSP16 add(XSP16, 29)
          CFI Block cfiCond146 Using cfiCommon0
          CFI (cfiCond146) Function hwLight_ApplyUpdate16b
          CFI (cfiCond146) Conditional ??CrossCallReturnLabel_91, ??CrossCallReturnLabel_77
          CFI (cfiCond146) R6 load(1, XDATA, add(CFA_XSP16, literal(-24)))
          CFI (cfiCond146) VB load(1, XDATA, add(CFA_XSP16, literal(-23)))
          CFI (cfiCond146) V0 load(1, XDATA, add(CFA_XSP16, literal(-22)))
          CFI (cfiCond146) V1 load(1, XDATA, add(CFA_XSP16, literal(-21)))
          CFI (cfiCond146) V2 load(1, XDATA, add(CFA_XSP16, literal(-20)))
          CFI (cfiCond146) V3 load(1, XDATA, add(CFA_XSP16, literal(-19)))
          CFI (cfiCond146) V4 load(1, XDATA, add(CFA_XSP16, literal(-18)))
          CFI (cfiCond146) V5 load(1, XDATA, add(CFA_XSP16, literal(-17)))
          CFI (cfiCond146) V6 load(1, XDATA, add(CFA_XSP16, literal(-16)))
          CFI (cfiCond146) V7 load(1, XDATA, add(CFA_XSP16, literal(-15)))
          CFI (cfiCond146) V8 load(1, XDATA, add(CFA_XSP16, literal(-14)))
          CFI (cfiCond146) V9 load(1, XDATA, add(CFA_XSP16, literal(-13)))
          CFI (cfiCond146) V10 load(1, XDATA, add(CFA_XSP16, literal(-12)))
          CFI (cfiCond146) V11 load(1, XDATA, add(CFA_XSP16, literal(-11)))
          CFI (cfiCond146) V12 load(1, XDATA, add(CFA_XSP16, literal(-10)))
          CFI (cfiCond146) V13 load(1, XDATA, add(CFA_XSP16, literal(-9)))
          CFI (cfiCond146) V14 load(1, XDATA, add(CFA_XSP16, literal(-8)))
          CFI (cfiCond146) V15 load(1, XDATA, add(CFA_XSP16, literal(-7)))
          CFI (cfiCond146) R7 load(1, XDATA, add(CFA_XSP16, literal(-6)))
          CFI (cfiCond146) ?RET_LOW load(1, XDATA, add(CFA_XSP16, literal(-5)))
          CFI (cfiCond146) ?RET_HIGH load(1, XDATA, add(CFA_XSP16, literal(-4)))
          CFI (cfiCond146) ?BRET_EXT load(1, XDATA, add(CFA_XSP16, literal(-3)))
          CFI (cfiCond146) DPL0 load(1, XDATA, add(CFA_XSP16, literal(-2)))
          CFI (cfiCond146) DPH0 load(1, XDATA, add(CFA_XSP16, literal(-1)))
          CFI (cfiCond146) CFA_SP SP+0
          CFI (cfiCond146) CFA_XSP16 add(XSP16, 33)
          CFI Block cfiCond147 Using cfiCommon0
          CFI (cfiCond147) Function hwLight_ApplyUpdate16b
          CFI (cfiCond147) Conditional ??CrossCallReturnLabel_91, ??CrossCallReturnLabel_78
          CFI (cfiCond147) R6 load(1, XDATA, add(CFA_XSP16, literal(-24)))
          CFI (cfiCond147) VB load(1, XDATA, add(CFA_XSP16, literal(-23)))
          CFI (cfiCond147) V0 load(1, XDATA, add(CFA_XSP16, literal(-22)))
          CFI (cfiCond147) V1 load(1, XDATA, add(CFA_XSP16, literal(-21)))
          CFI (cfiCond147) V2 load(1, XDATA, add(CFA_XSP16, literal(-20)))
          CFI (cfiCond147) V3 load(1, XDATA, add(CFA_XSP16, literal(-19)))
          CFI (cfiCond147) V4 load(1, XDATA, add(CFA_XSP16, literal(-18)))
          CFI (cfiCond147) V5 load(1, XDATA, add(CFA_XSP16, literal(-17)))
          CFI (cfiCond147) V6 load(1, XDATA, add(CFA_XSP16, literal(-16)))
          CFI (cfiCond147) V7 load(1, XDATA, add(CFA_XSP16, literal(-15)))
          CFI (cfiCond147) V8 load(1, XDATA, add(CFA_XSP16, literal(-14)))
          CFI (cfiCond147) V9 load(1, XDATA, add(CFA_XSP16, literal(-13)))
          CFI (cfiCond147) V10 load(1, XDATA, add(CFA_XSP16, literal(-12)))
          CFI (cfiCond147) V11 load(1, XDATA, add(CFA_XSP16, literal(-11)))
          CFI (cfiCond147) V12 load(1, XDATA, add(CFA_XSP16, literal(-10)))
          CFI (cfiCond147) V13 load(1, XDATA, add(CFA_XSP16, literal(-9)))
          CFI (cfiCond147) V14 load(1, XDATA, add(CFA_XSP16, literal(-8)))
          CFI (cfiCond147) V15 load(1, XDATA, add(CFA_XSP16, literal(-7)))
          CFI (cfiCond147) R7 load(1, XDATA, add(CFA_XSP16, literal(-6)))
          CFI (cfiCond147) ?RET_LOW load(1, XDATA, add(CFA_XSP16, literal(-5)))
          CFI (cfiCond147) ?RET_HIGH load(1, XDATA, add(CFA_XSP16, literal(-4)))
          CFI (cfiCond147) ?BRET_EXT load(1, XDATA, add(CFA_XSP16, literal(-3)))
          CFI (cfiCond147) DPL0 load(1, XDATA, add(CFA_XSP16, literal(-2)))
          CFI (cfiCond147) DPH0 load(1, XDATA, add(CFA_XSP16, literal(-1)))
          CFI (cfiCond147) CFA_SP SP+0
          CFI (cfiCond147) CFA_XSP16 add(XSP16, 33)
          CFI Block cfiCond148 Using cfiCommon0
          CFI (cfiCond148) Function hwLight_ApplyUpdate16b
          CFI (cfiCond148) Conditional ??CrossCallReturnLabel_91, ??CrossCallReturnLabel_79
          CFI (cfiCond148) R6 load(1, XDATA, add(CFA_XSP16, literal(-24)))
          CFI (cfiCond148) VB load(1, XDATA, add(CFA_XSP16, literal(-23)))
          CFI (cfiCond148) V0 load(1, XDATA, add(CFA_XSP16, literal(-22)))
          CFI (cfiCond148) V1 load(1, XDATA, add(CFA_XSP16, literal(-21)))
          CFI (cfiCond148) V2 load(1, XDATA, add(CFA_XSP16, literal(-20)))
          CFI (cfiCond148) V3 load(1, XDATA, add(CFA_XSP16, literal(-19)))
          CFI (cfiCond148) V4 load(1, XDATA, add(CFA_XSP16, literal(-18)))
          CFI (cfiCond148) V5 load(1, XDATA, add(CFA_XSP16, literal(-17)))
          CFI (cfiCond148) V6 load(1, XDATA, add(CFA_XSP16, literal(-16)))
          CFI (cfiCond148) V7 load(1, XDATA, add(CFA_XSP16, literal(-15)))
          CFI (cfiCond148) V8 load(1, XDATA, add(CFA_XSP16, literal(-14)))
          CFI (cfiCond148) V9 load(1, XDATA, add(CFA_XSP16, literal(-13)))
          CFI (cfiCond148) V10 load(1, XDATA, add(CFA_XSP16, literal(-12)))
          CFI (cfiCond148) V11 load(1, XDATA, add(CFA_XSP16, literal(-11)))
          CFI (cfiCond148) V12 load(1, XDATA, add(CFA_XSP16, literal(-10)))
          CFI (cfiCond148) V13 load(1, XDATA, add(CFA_XSP16, literal(-9)))
          CFI (cfiCond148) V14 load(1, XDATA, add(CFA_XSP16, literal(-8)))
          CFI (cfiCond148) V15 load(1, XDATA, add(CFA_XSP16, literal(-7)))
          CFI (cfiCond148) R7 load(1, XDATA, add(CFA_XSP16, literal(-6)))
          CFI (cfiCond148) ?RET_LOW load(1, XDATA, add(CFA_XSP16, literal(-5)))
          CFI (cfiCond148) ?RET_HIGH load(1, XDATA, add(CFA_XSP16, literal(-4)))
          CFI (cfiCond148) ?BRET_EXT load(1, XDATA, add(CFA_XSP16, literal(-3)))
          CFI (cfiCond148) DPL0 load(1, XDATA, add(CFA_XSP16, literal(-2)))
          CFI (cfiCond148) DPH0 load(1, XDATA, add(CFA_XSP16, literal(-1)))
          CFI (cfiCond148) CFA_SP SP+0
          CFI (cfiCond148) CFA_XSP16 add(XSP16, 33)
          CFI Block cfiCond149 Using cfiCommon0
          CFI (cfiCond149) Function hwLight_ApplyUpdate16b
          CFI (cfiCond149) Conditional ??CrossCallReturnLabel_91, ??CrossCallReturnLabel_80
          CFI (cfiCond149) R6 load(1, XDATA, add(CFA_XSP16, literal(-24)))
          CFI (cfiCond149) VB load(1, XDATA, add(CFA_XSP16, literal(-23)))
          CFI (cfiCond149) V0 load(1, XDATA, add(CFA_XSP16, literal(-22)))
          CFI (cfiCond149) V1 load(1, XDATA, add(CFA_XSP16, literal(-21)))
          CFI (cfiCond149) V2 load(1, XDATA, add(CFA_XSP16, literal(-20)))
          CFI (cfiCond149) V3 load(1, XDATA, add(CFA_XSP16, literal(-19)))
          CFI (cfiCond149) V4 load(1, XDATA, add(CFA_XSP16, literal(-18)))
          CFI (cfiCond149) V5 load(1, XDATA, add(CFA_XSP16, literal(-17)))
          CFI (cfiCond149) V6 load(1, XDATA, add(CFA_XSP16, literal(-16)))
          CFI (cfiCond149) V7 load(1, XDATA, add(CFA_XSP16, literal(-15)))
          CFI (cfiCond149) V8 load(1, XDATA, add(CFA_XSP16, literal(-14)))
          CFI (cfiCond149) V9 load(1, XDATA, add(CFA_XSP16, literal(-13)))
          CFI (cfiCond149) V10 load(1, XDATA, add(CFA_XSP16, literal(-12)))
          CFI (cfiCond149) V11 load(1, XDATA, add(CFA_XSP16, literal(-11)))
          CFI (cfiCond149) V12 load(1, XDATA, add(CFA_XSP16, literal(-10)))
          CFI (cfiCond149) V13 load(1, XDATA, add(CFA_XSP16, literal(-9)))
          CFI (cfiCond149) V14 load(1, XDATA, add(CFA_XSP16, literal(-8)))
          CFI (cfiCond149) V15 load(1, XDATA, add(CFA_XSP16, literal(-7)))
          CFI (cfiCond149) R7 load(1, XDATA, add(CFA_XSP16, literal(-6)))
          CFI (cfiCond149) ?RET_LOW load(1, XDATA, add(CFA_XSP16, literal(-5)))
          CFI (cfiCond149) ?RET_HIGH load(1, XDATA, add(CFA_XSP16, literal(-4)))
          CFI (cfiCond149) ?BRET_EXT load(1, XDATA, add(CFA_XSP16, literal(-3)))
          CFI (cfiCond149) DPL0 load(1, XDATA, add(CFA_XSP16, literal(-2)))
          CFI (cfiCond149) DPH0 load(1, XDATA, add(CFA_XSP16, literal(-1)))
          CFI (cfiCond149) CFA_SP SP+0
          CFI (cfiCond149) CFA_XSP16 add(XSP16, 33)
          CFI Block cfiCond150 Using cfiCommon0
          CFI (cfiCond150) Function hwLight_ApplyUpdate16b
          CFI (cfiCond150) Conditional ??CrossCallReturnLabel_91, ??CrossCallReturnLabel_81
          CFI (cfiCond150) R6 load(1, XDATA, add(CFA_XSP16, literal(-24)))
          CFI (cfiCond150) VB load(1, XDATA, add(CFA_XSP16, literal(-23)))
          CFI (cfiCond150) V0 load(1, XDATA, add(CFA_XSP16, literal(-22)))
          CFI (cfiCond150) V1 load(1, XDATA, add(CFA_XSP16, literal(-21)))
          CFI (cfiCond150) V2 load(1, XDATA, add(CFA_XSP16, literal(-20)))
          CFI (cfiCond150) V3 load(1, XDATA, add(CFA_XSP16, literal(-19)))
          CFI (cfiCond150) V4 load(1, XDATA, add(CFA_XSP16, literal(-18)))
          CFI (cfiCond150) V5 load(1, XDATA, add(CFA_XSP16, literal(-17)))
          CFI (cfiCond150) V6 load(1, XDATA, add(CFA_XSP16, literal(-16)))
          CFI (cfiCond150) V7 load(1, XDATA, add(CFA_XSP16, literal(-15)))
          CFI (cfiCond150) V8 load(1, XDATA, add(CFA_XSP16, literal(-14)))
          CFI (cfiCond150) V9 load(1, XDATA, add(CFA_XSP16, literal(-13)))
          CFI (cfiCond150) V10 load(1, XDATA, add(CFA_XSP16, literal(-12)))
          CFI (cfiCond150) V11 load(1, XDATA, add(CFA_XSP16, literal(-11)))
          CFI (cfiCond150) V12 load(1, XDATA, add(CFA_XSP16, literal(-10)))
          CFI (cfiCond150) V13 load(1, XDATA, add(CFA_XSP16, literal(-9)))
          CFI (cfiCond150) V14 load(1, XDATA, add(CFA_XSP16, literal(-8)))
          CFI (cfiCond150) V15 load(1, XDATA, add(CFA_XSP16, literal(-7)))
          CFI (cfiCond150) R7 load(1, XDATA, add(CFA_XSP16, literal(-6)))
          CFI (cfiCond150) ?RET_LOW load(1, XDATA, add(CFA_XSP16, literal(-5)))
          CFI (cfiCond150) ?RET_HIGH load(1, XDATA, add(CFA_XSP16, literal(-4)))
          CFI (cfiCond150) ?BRET_EXT load(1, XDATA, add(CFA_XSP16, literal(-3)))
          CFI (cfiCond150) DPL0 load(1, XDATA, add(CFA_XSP16, literal(-2)))
          CFI (cfiCond150) DPH0 load(1, XDATA, add(CFA_XSP16, literal(-1)))
          CFI (cfiCond150) CFA_SP SP+0
          CFI (cfiCond150) CFA_XSP16 add(XSP16, 33)
          CFI Block cfiCond151 Using cfiCommon0
          CFI (cfiCond151) Function hwLight_ApplyUpdate
          CFI (cfiCond151) Conditional ??CrossCallReturnLabel_91, ??CrossCallReturnLabel_82
          CFI (cfiCond151) R6 load(1, XDATA, add(CFA_XSP16, literal(-24)))
          CFI (cfiCond151) VB load(1, XDATA, add(CFA_XSP16, literal(-23)))
          CFI (cfiCond151) V0 load(1, XDATA, add(CFA_XSP16, literal(-22)))
          CFI (cfiCond151) V1 load(1, XDATA, add(CFA_XSP16, literal(-21)))
          CFI (cfiCond151) V2 load(1, XDATA, add(CFA_XSP16, literal(-20)))
          CFI (cfiCond151) V3 load(1, XDATA, add(CFA_XSP16, literal(-19)))
          CFI (cfiCond151) V4 load(1, XDATA, add(CFA_XSP16, literal(-18)))
          CFI (cfiCond151) V5 load(1, XDATA, add(CFA_XSP16, literal(-17)))
          CFI (cfiCond151) V6 load(1, XDATA, add(CFA_XSP16, literal(-16)))
          CFI (cfiCond151) V7 load(1, XDATA, add(CFA_XSP16, literal(-15)))
          CFI (cfiCond151) V8 load(1, XDATA, add(CFA_XSP16, literal(-14)))
          CFI (cfiCond151) V9 load(1, XDATA, add(CFA_XSP16, literal(-13)))
          CFI (cfiCond151) V10 load(1, XDATA, add(CFA_XSP16, literal(-12)))
          CFI (cfiCond151) V11 load(1, XDATA, add(CFA_XSP16, literal(-11)))
          CFI (cfiCond151) V12 load(1, XDATA, add(CFA_XSP16, literal(-10)))
          CFI (cfiCond151) V13 load(1, XDATA, add(CFA_XSP16, literal(-9)))
          CFI (cfiCond151) V14 load(1, XDATA, add(CFA_XSP16, literal(-8)))
          CFI (cfiCond151) V15 load(1, XDATA, add(CFA_XSP16, literal(-7)))
          CFI (cfiCond151) R7 load(1, XDATA, add(CFA_XSP16, literal(-6)))
          CFI (cfiCond151) ?RET_LOW load(1, XDATA, add(CFA_XSP16, literal(-5)))
          CFI (cfiCond151) ?RET_HIGH load(1, XDATA, add(CFA_XSP16, literal(-4)))
          CFI (cfiCond151) ?BRET_EXT load(1, XDATA, add(CFA_XSP16, literal(-3)))
          CFI (cfiCond151) DPL0 load(1, XDATA, add(CFA_XSP16, literal(-2)))
          CFI (cfiCond151) DPH0 load(1, XDATA, add(CFA_XSP16, literal(-1)))
          CFI (cfiCond151) CFA_SP SP+0
          CFI (cfiCond151) CFA_XSP16 add(XSP16, 29)
          CFI Block cfiCond152 Using cfiCommon0
          CFI (cfiCond152) Function hwLight_Convert_xyY_to_RGB
          CFI (cfiCond152) Conditional ??CrossCallReturnLabel_91, ??CrossCallReturnLabel_75
          CFI (cfiCond152) R6 load(1, XDATA, add(CFA_XSP16, literal(-24)))
          CFI (cfiCond152) VB load(1, XDATA, add(CFA_XSP16, literal(-23)))
          CFI (cfiCond152) V0 load(1, XDATA, add(CFA_XSP16, literal(-22)))
          CFI (cfiCond152) V1 load(1, XDATA, add(CFA_XSP16, literal(-21)))
          CFI (cfiCond152) V2 load(1, XDATA, add(CFA_XSP16, literal(-20)))
          CFI (cfiCond152) V3 load(1, XDATA, add(CFA_XSP16, literal(-19)))
          CFI (cfiCond152) V4 load(1, XDATA, add(CFA_XSP16, literal(-18)))
          CFI (cfiCond152) V5 load(1, XDATA, add(CFA_XSP16, literal(-17)))
          CFI (cfiCond152) V6 load(1, XDATA, add(CFA_XSP16, literal(-16)))
          CFI (cfiCond152) V7 load(1, XDATA, add(CFA_XSP16, literal(-15)))
          CFI (cfiCond152) V8 load(1, XDATA, add(CFA_XSP16, literal(-14)))
          CFI (cfiCond152) V9 load(1, XDATA, add(CFA_XSP16, literal(-13)))
          CFI (cfiCond152) V10 load(1, XDATA, add(CFA_XSP16, literal(-12)))
          CFI (cfiCond152) V11 load(1, XDATA, add(CFA_XSP16, literal(-11)))
          CFI (cfiCond152) V12 load(1, XDATA, add(CFA_XSP16, literal(-10)))
          CFI (cfiCond152) V13 load(1, XDATA, add(CFA_XSP16, literal(-9)))
          CFI (cfiCond152) V14 load(1, XDATA, add(CFA_XSP16, literal(-8)))
          CFI (cfiCond152) V15 load(1, XDATA, add(CFA_XSP16, literal(-7)))
          CFI (cfiCond152) R7 load(1, XDATA, add(CFA_XSP16, literal(-6)))
          CFI (cfiCond152) ?RET_LOW load(1, XDATA, add(CFA_XSP16, literal(-5)))
          CFI (cfiCond152) ?RET_HIGH load(1, XDATA, add(CFA_XSP16, literal(-4)))
          CFI (cfiCond152) ?BRET_EXT load(1, XDATA, add(CFA_XSP16, literal(-3)))
          CFI (cfiCond152) DPL0 load(1, XDATA, add(CFA_XSP16, literal(-2)))
          CFI (cfiCond152) DPH0 load(1, XDATA, add(CFA_XSP16, literal(-1)))
          CFI (cfiCond152) CFA_SP SP+0
          CFI (cfiCond152) CFA_XSP16 add(XSP16, 40)
          CFI Block cfiCond153 Using cfiCommon0
          CFI (cfiCond153) Function hwLight_ApplyUpdate
          CFI (cfiCond153) Conditional ??CrossCallReturnLabel_91, ??CrossCallReturnLabel_76
          CFI (cfiCond153) R6 load(1, XDATA, add(CFA_XSP16, literal(-24)))
          CFI (cfiCond153) VB load(1, XDATA, add(CFA_XSP16, literal(-23)))
          CFI (cfiCond153) V0 load(1, XDATA, add(CFA_XSP16, literal(-22)))
          CFI (cfiCond153) V1 load(1, XDATA, add(CFA_XSP16, literal(-21)))
          CFI (cfiCond153) V2 load(1, XDATA, add(CFA_XSP16, literal(-20)))
          CFI (cfiCond153) V3 load(1, XDATA, add(CFA_XSP16, literal(-19)))
          CFI (cfiCond153) V4 load(1, XDATA, add(CFA_XSP16, literal(-18)))
          CFI (cfiCond153) V5 load(1, XDATA, add(CFA_XSP16, literal(-17)))
          CFI (cfiCond153) V6 load(1, XDATA, add(CFA_XSP16, literal(-16)))
          CFI (cfiCond153) V7 load(1, XDATA, add(CFA_XSP16, literal(-15)))
          CFI (cfiCond153) V8 load(1, XDATA, add(CFA_XSP16, literal(-14)))
          CFI (cfiCond153) V9 load(1, XDATA, add(CFA_XSP16, literal(-13)))
          CFI (cfiCond153) V10 load(1, XDATA, add(CFA_XSP16, literal(-12)))
          CFI (cfiCond153) V11 load(1, XDATA, add(CFA_XSP16, literal(-11)))
          CFI (cfiCond153) V12 load(1, XDATA, add(CFA_XSP16, literal(-10)))
          CFI (cfiCond153) V13 load(1, XDATA, add(CFA_XSP16, literal(-9)))
          CFI (cfiCond153) V14 load(1, XDATA, add(CFA_XSP16, literal(-8)))
          CFI (cfiCond153) V15 load(1, XDATA, add(CFA_XSP16, literal(-7)))
          CFI (cfiCond153) R7 load(1, XDATA, add(CFA_XSP16, literal(-6)))
          CFI (cfiCond153) ?RET_LOW load(1, XDATA, add(CFA_XSP16, literal(-5)))
          CFI (cfiCond153) ?RET_HIGH load(1, XDATA, add(CFA_XSP16, literal(-4)))
          CFI (cfiCond153) ?BRET_EXT load(1, XDATA, add(CFA_XSP16, literal(-3)))
          CFI (cfiCond153) DPL0 load(1, XDATA, add(CFA_XSP16, literal(-2)))
          CFI (cfiCond153) DPH0 load(1, XDATA, add(CFA_XSP16, literal(-1)))
          CFI (cfiCond153) CFA_SP SP+-1
          CFI (cfiCond153) CFA_XSP16 add(XSP16, 29)
          CFI Block cfiCond154 Using cfiCommon0
          CFI (cfiCond154) Function hwLight_ApplyUpdate
          CFI (cfiCond154) Conditional ??CrossCallReturnLabel_92, ??CrossCallReturnLabel_85
          CFI (cfiCond154) R6 load(1, XDATA, add(CFA_XSP16, literal(-24)))
          CFI (cfiCond154) VB load(1, XDATA, add(CFA_XSP16, literal(-23)))
          CFI (cfiCond154) V0 load(1, XDATA, add(CFA_XSP16, literal(-22)))
          CFI (cfiCond154) V1 load(1, XDATA, add(CFA_XSP16, literal(-21)))
          CFI (cfiCond154) V2 load(1, XDATA, add(CFA_XSP16, literal(-20)))
          CFI (cfiCond154) V3 load(1, XDATA, add(CFA_XSP16, literal(-19)))
          CFI (cfiCond154) V4 load(1, XDATA, add(CFA_XSP16, literal(-18)))
          CFI (cfiCond154) V5 load(1, XDATA, add(CFA_XSP16, literal(-17)))
          CFI (cfiCond154) V6 load(1, XDATA, add(CFA_XSP16, literal(-16)))
          CFI (cfiCond154) V7 load(1, XDATA, add(CFA_XSP16, literal(-15)))
          CFI (cfiCond154) V8 load(1, XDATA, add(CFA_XSP16, literal(-14)))
          CFI (cfiCond154) V9 load(1, XDATA, add(CFA_XSP16, literal(-13)))
          CFI (cfiCond154) V10 load(1, XDATA, add(CFA_XSP16, literal(-12)))
          CFI (cfiCond154) V11 load(1, XDATA, add(CFA_XSP16, literal(-11)))
          CFI (cfiCond154) V12 load(1, XDATA, add(CFA_XSP16, literal(-10)))
          CFI (cfiCond154) V13 load(1, XDATA, add(CFA_XSP16, literal(-9)))
          CFI (cfiCond154) V14 load(1, XDATA, add(CFA_XSP16, literal(-8)))
          CFI (cfiCond154) V15 load(1, XDATA, add(CFA_XSP16, literal(-7)))
          CFI (cfiCond154) R7 load(1, XDATA, add(CFA_XSP16, literal(-6)))
          CFI (cfiCond154) ?RET_LOW load(1, XDATA, add(CFA_XSP16, literal(-5)))
          CFI (cfiCond154) ?RET_HIGH load(1, XDATA, add(CFA_XSP16, literal(-4)))
          CFI (cfiCond154) ?BRET_EXT load(1, XDATA, add(CFA_XSP16, literal(-3)))
          CFI (cfiCond154) DPL0 load(1, XDATA, add(CFA_XSP16, literal(-2)))
          CFI (cfiCond154) DPH0 load(1, XDATA, add(CFA_XSP16, literal(-1)))
          CFI (cfiCond154) CFA_SP SP+0
          CFI (cfiCond154) CFA_XSP16 add(XSP16, 29)
          CFI Block cfiCond155 Using cfiCommon0
          CFI (cfiCond155) Function hwLight_ApplyUpdate
          CFI (cfiCond155) Conditional ??CrossCallReturnLabel_92, ??CrossCallReturnLabel_86
          CFI (cfiCond155) R6 load(1, XDATA, add(CFA_XSP16, literal(-24)))
          CFI (cfiCond155) VB load(1, XDATA, add(CFA_XSP16, literal(-23)))
          CFI (cfiCond155) V0 load(1, XDATA, add(CFA_XSP16, literal(-22)))
          CFI (cfiCond155) V1 load(1, XDATA, add(CFA_XSP16, literal(-21)))
          CFI (cfiCond155) V2 load(1, XDATA, add(CFA_XSP16, literal(-20)))
          CFI (cfiCond155) V3 load(1, XDATA, add(CFA_XSP16, literal(-19)))
          CFI (cfiCond155) V4 load(1, XDATA, add(CFA_XSP16, literal(-18)))
          CFI (cfiCond155) V5 load(1, XDATA, add(CFA_XSP16, literal(-17)))
          CFI (cfiCond155) V6 load(1, XDATA, add(CFA_XSP16, literal(-16)))
          CFI (cfiCond155) V7 load(1, XDATA, add(CFA_XSP16, literal(-15)))
          CFI (cfiCond155) V8 load(1, XDATA, add(CFA_XSP16, literal(-14)))
          CFI (cfiCond155) V9 load(1, XDATA, add(CFA_XSP16, literal(-13)))
          CFI (cfiCond155) V10 load(1, XDATA, add(CFA_XSP16, literal(-12)))
          CFI (cfiCond155) V11 load(1, XDATA, add(CFA_XSP16, literal(-11)))
          CFI (cfiCond155) V12 load(1, XDATA, add(CFA_XSP16, literal(-10)))
          CFI (cfiCond155) V13 load(1, XDATA, add(CFA_XSP16, literal(-9)))
          CFI (cfiCond155) V14 load(1, XDATA, add(CFA_XSP16, literal(-8)))
          CFI (cfiCond155) V15 load(1, XDATA, add(CFA_XSP16, literal(-7)))
          CFI (cfiCond155) R7 load(1, XDATA, add(CFA_XSP16, literal(-6)))
          CFI (cfiCond155) ?RET_LOW load(1, XDATA, add(CFA_XSP16, literal(-5)))
          CFI (cfiCond155) ?RET_HIGH load(1, XDATA, add(CFA_XSP16, literal(-4)))
          CFI (cfiCond155) ?BRET_EXT load(1, XDATA, add(CFA_XSP16, literal(-3)))
          CFI (cfiCond155) DPL0 load(1, XDATA, add(CFA_XSP16, literal(-2)))
          CFI (cfiCond155) DPH0 load(1, XDATA, add(CFA_XSP16, literal(-1)))
          CFI (cfiCond155) CFA_SP SP+0
          CFI (cfiCond155) CFA_XSP16 add(XSP16, 29)
          CFI Block cfiCond156 Using cfiCommon0
          CFI (cfiCond156) Function hwLight_ApplyUpdate
          CFI (cfiCond156) Conditional ??CrossCallReturnLabel_92, ??CrossCallReturnLabel_87
          CFI (cfiCond156) R6 load(1, XDATA, add(CFA_XSP16, literal(-24)))
          CFI (cfiCond156) VB load(1, XDATA, add(CFA_XSP16, literal(-23)))
          CFI (cfiCond156) V0 load(1, XDATA, add(CFA_XSP16, literal(-22)))
          CFI (cfiCond156) V1 load(1, XDATA, add(CFA_XSP16, literal(-21)))
          CFI (cfiCond156) V2 load(1, XDATA, add(CFA_XSP16, literal(-20)))
          CFI (cfiCond156) V3 load(1, XDATA, add(CFA_XSP16, literal(-19)))
          CFI (cfiCond156) V4 load(1, XDATA, add(CFA_XSP16, literal(-18)))
          CFI (cfiCond156) V5 load(1, XDATA, add(CFA_XSP16, literal(-17)))
          CFI (cfiCond156) V6 load(1, XDATA, add(CFA_XSP16, literal(-16)))
          CFI (cfiCond156) V7 load(1, XDATA, add(CFA_XSP16, literal(-15)))
          CFI (cfiCond156) V8 load(1, XDATA, add(CFA_XSP16, literal(-14)))
          CFI (cfiCond156) V9 load(1, XDATA, add(CFA_XSP16, literal(-13)))
          CFI (cfiCond156) V10 load(1, XDATA, add(CFA_XSP16, literal(-12)))
          CFI (cfiCond156) V11 load(1, XDATA, add(CFA_XSP16, literal(-11)))
          CFI (cfiCond156) V12 load(1, XDATA, add(CFA_XSP16, literal(-10)))
          CFI (cfiCond156) V13 load(1, XDATA, add(CFA_XSP16, literal(-9)))
          CFI (cfiCond156) V14 load(1, XDATA, add(CFA_XSP16, literal(-8)))
          CFI (cfiCond156) V15 load(1, XDATA, add(CFA_XSP16, literal(-7)))
          CFI (cfiCond156) R7 load(1, XDATA, add(CFA_XSP16, literal(-6)))
          CFI (cfiCond156) ?RET_LOW load(1, XDATA, add(CFA_XSP16, literal(-5)))
          CFI (cfiCond156) ?RET_HIGH load(1, XDATA, add(CFA_XSP16, literal(-4)))
          CFI (cfiCond156) ?BRET_EXT load(1, XDATA, add(CFA_XSP16, literal(-3)))
          CFI (cfiCond156) DPL0 load(1, XDATA, add(CFA_XSP16, literal(-2)))
          CFI (cfiCond156) DPH0 load(1, XDATA, add(CFA_XSP16, literal(-1)))
          CFI (cfiCond156) CFA_SP SP+0
          CFI (cfiCond156) CFA_XSP16 add(XSP16, 29)
          CFI Block cfiCond157 Using cfiCommon0
          CFI (cfiCond157) Function hwLight_ApplyUpdate
          CFI (cfiCond157) Conditional ??CrossCallReturnLabel_92, ??CrossCallReturnLabel_88
          CFI (cfiCond157) R6 load(1, XDATA, add(CFA_XSP16, literal(-24)))
          CFI (cfiCond157) VB load(1, XDATA, add(CFA_XSP16, literal(-23)))
          CFI (cfiCond157) V0 load(1, XDATA, add(CFA_XSP16, literal(-22)))
          CFI (cfiCond157) V1 load(1, XDATA, add(CFA_XSP16, literal(-21)))
          CFI (cfiCond157) V2 load(1, XDATA, add(CFA_XSP16, literal(-20)))
          CFI (cfiCond157) V3 load(1, XDATA, add(CFA_XSP16, literal(-19)))
          CFI (cfiCond157) V4 load(1, XDATA, add(CFA_XSP16, literal(-18)))
          CFI (cfiCond157) V5 load(1, XDATA, add(CFA_XSP16, literal(-17)))
          CFI (cfiCond157) V6 load(1, XDATA, add(CFA_XSP16, literal(-16)))
          CFI (cfiCond157) V7 load(1, XDATA, add(CFA_XSP16, literal(-15)))
          CFI (cfiCond157) V8 load(1, XDATA, add(CFA_XSP16, literal(-14)))
          CFI (cfiCond157) V9 load(1, XDATA, add(CFA_XSP16, literal(-13)))
          CFI (cfiCond157) V10 load(1, XDATA, add(CFA_XSP16, literal(-12)))
          CFI (cfiCond157) V11 load(1, XDATA, add(CFA_XSP16, literal(-11)))
          CFI (cfiCond157) V12 load(1, XDATA, add(CFA_XSP16, literal(-10)))
          CFI (cfiCond157) V13 load(1, XDATA, add(CFA_XSP16, literal(-9)))
          CFI (cfiCond157) V14 load(1, XDATA, add(CFA_XSP16, literal(-8)))
          CFI (cfiCond157) V15 load(1, XDATA, add(CFA_XSP16, literal(-7)))
          CFI (cfiCond157) R7 load(1, XDATA, add(CFA_XSP16, literal(-6)))
          CFI (cfiCond157) ?RET_LOW load(1, XDATA, add(CFA_XSP16, literal(-5)))
          CFI (cfiCond157) ?RET_HIGH load(1, XDATA, add(CFA_XSP16, literal(-4)))
          CFI (cfiCond157) ?BRET_EXT load(1, XDATA, add(CFA_XSP16, literal(-3)))
          CFI (cfiCond157) DPL0 load(1, XDATA, add(CFA_XSP16, literal(-2)))
          CFI (cfiCond157) DPH0 load(1, XDATA, add(CFA_XSP16, literal(-1)))
          CFI (cfiCond157) CFA_SP SP+0
          CFI (cfiCond157) CFA_XSP16 add(XSP16, 29)
          CFI Block cfiCond158 Using cfiCommon0
          CFI (cfiCond158) Function hwLight_ApplyUpdate16b
          CFI (cfiCond158) Conditional ??CrossCallReturnLabel_92, ??CrossCallReturnLabel_83
          CFI (cfiCond158) R6 load(1, XDATA, add(CFA_XSP16, literal(-24)))
          CFI (cfiCond158) VB load(1, XDATA, add(CFA_XSP16, literal(-23)))
          CFI (cfiCond158) V0 load(1, XDATA, add(CFA_XSP16, literal(-22)))
          CFI (cfiCond158) V1 load(1, XDATA, add(CFA_XSP16, literal(-21)))
          CFI (cfiCond158) V2 load(1, XDATA, add(CFA_XSP16, literal(-20)))
          CFI (cfiCond158) V3 load(1, XDATA, add(CFA_XSP16, literal(-19)))
          CFI (cfiCond158) V4 load(1, XDATA, add(CFA_XSP16, literal(-18)))
          CFI (cfiCond158) V5 load(1, XDATA, add(CFA_XSP16, literal(-17)))
          CFI (cfiCond158) V6 load(1, XDATA, add(CFA_XSP16, literal(-16)))
          CFI (cfiCond158) V7 load(1, XDATA, add(CFA_XSP16, literal(-15)))
          CFI (cfiCond158) V8 load(1, XDATA, add(CFA_XSP16, literal(-14)))
          CFI (cfiCond158) V9 load(1, XDATA, add(CFA_XSP16, literal(-13)))
          CFI (cfiCond158) V10 load(1, XDATA, add(CFA_XSP16, literal(-12)))
          CFI (cfiCond158) V11 load(1, XDATA, add(CFA_XSP16, literal(-11)))
          CFI (cfiCond158) V12 load(1, XDATA, add(CFA_XSP16, literal(-10)))
          CFI (cfiCond158) V13 load(1, XDATA, add(CFA_XSP16, literal(-9)))
          CFI (cfiCond158) V14 load(1, XDATA, add(CFA_XSP16, literal(-8)))
          CFI (cfiCond158) V15 load(1, XDATA, add(CFA_XSP16, literal(-7)))
          CFI (cfiCond158) R7 load(1, XDATA, add(CFA_XSP16, literal(-6)))
          CFI (cfiCond158) ?RET_LOW load(1, XDATA, add(CFA_XSP16, literal(-5)))
          CFI (cfiCond158) ?RET_HIGH load(1, XDATA, add(CFA_XSP16, literal(-4)))
          CFI (cfiCond158) ?BRET_EXT load(1, XDATA, add(CFA_XSP16, literal(-3)))
          CFI (cfiCond158) DPL0 load(1, XDATA, add(CFA_XSP16, literal(-2)))
          CFI (cfiCond158) DPH0 load(1, XDATA, add(CFA_XSP16, literal(-1)))
          CFI (cfiCond158) CFA_SP SP+0
          CFI (cfiCond158) CFA_XSP16 add(XSP16, 33)
          CFI Block cfiCond159 Using cfiCommon0
          CFI (cfiCond159) Function hwLight_ApplyUpdate
          CFI (cfiCond159) Conditional ??CrossCallReturnLabel_92, ??CrossCallReturnLabel_84
          CFI (cfiCond159) R6 load(1, XDATA, add(CFA_XSP16, literal(-24)))
          CFI (cfiCond159) VB load(1, XDATA, add(CFA_XSP16, literal(-23)))
          CFI (cfiCond159) V0 load(1, XDATA, add(CFA_XSP16, literal(-22)))
          CFI (cfiCond159) V1 load(1, XDATA, add(CFA_XSP16, literal(-21)))
          CFI (cfiCond159) V2 load(1, XDATA, add(CFA_XSP16, literal(-20)))
          CFI (cfiCond159) V3 load(1, XDATA, add(CFA_XSP16, literal(-19)))
          CFI (cfiCond159) V4 load(1, XDATA, add(CFA_XSP16, literal(-18)))
          CFI (cfiCond159) V5 load(1, XDATA, add(CFA_XSP16, literal(-17)))
          CFI (cfiCond159) V6 load(1, XDATA, add(CFA_XSP16, literal(-16)))
          CFI (cfiCond159) V7 load(1, XDATA, add(CFA_XSP16, literal(-15)))
          CFI (cfiCond159) V8 load(1, XDATA, add(CFA_XSP16, literal(-14)))
          CFI (cfiCond159) V9 load(1, XDATA, add(CFA_XSP16, literal(-13)))
          CFI (cfiCond159) V10 load(1, XDATA, add(CFA_XSP16, literal(-12)))
          CFI (cfiCond159) V11 load(1, XDATA, add(CFA_XSP16, literal(-11)))
          CFI (cfiCond159) V12 load(1, XDATA, add(CFA_XSP16, literal(-10)))
          CFI (cfiCond159) V13 load(1, XDATA, add(CFA_XSP16, literal(-9)))
          CFI (cfiCond159) V14 load(1, XDATA, add(CFA_XSP16, literal(-8)))
          CFI (cfiCond159) V15 load(1, XDATA, add(CFA_XSP16, literal(-7)))
          CFI (cfiCond159) R7 load(1, XDATA, add(CFA_XSP16, literal(-6)))
          CFI (cfiCond159) ?RET_LOW load(1, XDATA, add(CFA_XSP16, literal(-5)))
          CFI (cfiCond159) ?RET_HIGH load(1, XDATA, add(CFA_XSP16, literal(-4)))
          CFI (cfiCond159) ?BRET_EXT load(1, XDATA, add(CFA_XSP16, literal(-3)))
          CFI (cfiCond159) DPL0 load(1, XDATA, add(CFA_XSP16, literal(-2)))
          CFI (cfiCond159) DPH0 load(1, XDATA, add(CFA_XSP16, literal(-1)))
          CFI (cfiCond159) CFA_SP SP+0
          CFI (cfiCond159) CFA_XSP16 add(XSP16, 29)
          CFI Block cfiPicker160 Using cfiCommon1
          CFI (cfiPicker160) NoFunction
          CFI (cfiPicker160) Picker
        LCALL   ?Subroutine32 & 0xFFFF
??CrossCallReturnLabel_94:
        RET
          CFI EndBlock cfiCond140
          CFI EndBlock cfiCond141
          CFI EndBlock cfiCond142
          CFI EndBlock cfiCond143
          CFI EndBlock cfiCond144
          CFI EndBlock cfiCond145
          CFI EndBlock cfiCond146
          CFI EndBlock cfiCond147
          CFI EndBlock cfiCond148
          CFI EndBlock cfiCond149
          CFI EndBlock cfiCond150
          CFI EndBlock cfiCond151
          CFI EndBlock cfiCond152
          CFI EndBlock cfiCond153
          CFI EndBlock cfiCond154
          CFI EndBlock cfiCond155
          CFI EndBlock cfiCond156
          CFI EndBlock cfiCond157
          CFI EndBlock cfiCond158
          CFI EndBlock cfiCond159
          CFI EndBlock cfiPicker160

        RSEG BANKED_CODE:CODE:NOROOT(0)
?Subroutine32:
          CFI Block cfiCond161 Using cfiCommon0
          CFI Function hwLight_Convert_xyY_to_RGB
          CFI Conditional ??CrossCallReturnLabel_94, ??CrossCallReturnLabel_89, ??CrossCallReturnLabel_4
          CFI R6 load(1, XDATA, add(CFA_XSP16, literal(-24)))
          CFI VB load(1, XDATA, add(CFA_XSP16, literal(-23)))
          CFI V0 load(1, XDATA, add(CFA_XSP16, literal(-22)))
          CFI V1 load(1, XDATA, add(CFA_XSP16, literal(-21)))
          CFI V2 load(1, XDATA, add(CFA_XSP16, literal(-20)))
          CFI V3 load(1, XDATA, add(CFA_XSP16, literal(-19)))
          CFI V4 load(1, XDATA, add(CFA_XSP16, literal(-18)))
          CFI V5 load(1, XDATA, add(CFA_XSP16, literal(-17)))
          CFI V6 load(1, XDATA, add(CFA_XSP16, literal(-16)))
          CFI V7 load(1, XDATA, add(CFA_XSP16, literal(-15)))
          CFI V8 load(1, XDATA, add(CFA_XSP16, literal(-14)))
          CFI V9 load(1, XDATA, add(CFA_XSP16, literal(-13)))
          CFI V10 load(1, XDATA, add(CFA_XSP16, literal(-12)))
          CFI V11 load(1, XDATA, add(CFA_XSP16, literal(-11)))
          CFI V12 load(1, XDATA, add(CFA_XSP16, literal(-10)))
          CFI V13 load(1, XDATA, add(CFA_XSP16, literal(-9)))
          CFI V14 load(1, XDATA, add(CFA_XSP16, literal(-8)))
          CFI V15 load(1, XDATA, add(CFA_XSP16, literal(-7)))
          CFI R7 load(1, XDATA, add(CFA_XSP16, literal(-6)))
          CFI ?RET_LOW load(1, XDATA, add(CFA_XSP16, literal(-5)))
          CFI ?RET_HIGH load(1, XDATA, add(CFA_XSP16, literal(-4)))
          CFI ?BRET_EXT load(1, XDATA, add(CFA_XSP16, literal(-3)))
          CFI DPL0 load(1, XDATA, add(CFA_XSP16, literal(-2)))
          CFI DPH0 load(1, XDATA, add(CFA_XSP16, literal(-1)))
          CFI CFA_SP SP+0
          CFI CFA_XSP16 add(XSP16, 40)
          CFI Block cfiCond162 Using cfiCommon0
          CFI (cfiCond162) Function hwLight_ApplyUpdate16b
          CFI (cfiCond162) Conditional ??CrossCallReturnLabel_94, ??CrossCallReturnLabel_89, ??CrossCallReturnLabel_5
          CFI (cfiCond162) R6 load(1, XDATA, add(CFA_XSP16, literal(-24)))
          CFI (cfiCond162) VB load(1, XDATA, add(CFA_XSP16, literal(-23)))
          CFI (cfiCond162) V0 load(1, XDATA, add(CFA_XSP16, literal(-22)))
          CFI (cfiCond162) V1 load(1, XDATA, add(CFA_XSP16, literal(-21)))
          CFI (cfiCond162) V2 load(1, XDATA, add(CFA_XSP16, literal(-20)))
          CFI (cfiCond162) V3 load(1, XDATA, add(CFA_XSP16, literal(-19)))
          CFI (cfiCond162) V4 load(1, XDATA, add(CFA_XSP16, literal(-18)))
          CFI (cfiCond162) V5 load(1, XDATA, add(CFA_XSP16, literal(-17)))
          CFI (cfiCond162) V6 load(1, XDATA, add(CFA_XSP16, literal(-16)))
          CFI (cfiCond162) V7 load(1, XDATA, add(CFA_XSP16, literal(-15)))
          CFI (cfiCond162) V8 load(1, XDATA, add(CFA_XSP16, literal(-14)))
          CFI (cfiCond162) V9 load(1, XDATA, add(CFA_XSP16, literal(-13)))
          CFI (cfiCond162) V10 load(1, XDATA, add(CFA_XSP16, literal(-12)))
          CFI (cfiCond162) V11 load(1, XDATA, add(CFA_XSP16, literal(-11)))
          CFI (cfiCond162) V12 load(1, XDATA, add(CFA_XSP16, literal(-10)))
          CFI (cfiCond162) V13 load(1, XDATA, add(CFA_XSP16, literal(-9)))
          CFI (cfiCond162) V14 load(1, XDATA, add(CFA_XSP16, literal(-8)))
          CFI (cfiCond162) V15 load(1, XDATA, add(CFA_XSP16, literal(-7)))
          CFI (cfiCond162) R7 load(1, XDATA, add(CFA_XSP16, literal(-6)))
          CFI (cfiCond162) ?RET_LOW load(1, XDATA, add(CFA_XSP16, literal(-5)))
          CFI (cfiCond162) ?RET_HIGH load(1, XDATA, add(CFA_XSP16, literal(-4)))
          CFI (cfiCond162) ?BRET_EXT load(1, XDATA, add(CFA_XSP16, literal(-3)))
          CFI (cfiCond162) DPL0 load(1, XDATA, add(CFA_XSP16, literal(-2)))
          CFI (cfiCond162) DPH0 load(1, XDATA, add(CFA_XSP16, literal(-1)))
          CFI (cfiCond162) CFA_SP SP+0
          CFI (cfiCond162) CFA_XSP16 add(XSP16, 33)
          CFI Block cfiCond163 Using cfiCommon0
          CFI (cfiCond163) Function hwLight_ApplyUpdate16b
          CFI (cfiCond163) Conditional ??CrossCallReturnLabel_94, ??CrossCallReturnLabel_90, ??CrossCallReturnLabel_66
          CFI (cfiCond163) R6 load(1, XDATA, add(CFA_XSP16, literal(-24)))
          CFI (cfiCond163) VB load(1, XDATA, add(CFA_XSP16, literal(-23)))
          CFI (cfiCond163) V0 load(1, XDATA, add(CFA_XSP16, literal(-22)))
          CFI (cfiCond163) V1 load(1, XDATA, add(CFA_XSP16, literal(-21)))
          CFI (cfiCond163) V2 load(1, XDATA, add(CFA_XSP16, literal(-20)))
          CFI (cfiCond163) V3 load(1, XDATA, add(CFA_XSP16, literal(-19)))
          CFI (cfiCond163) V4 load(1, XDATA, add(CFA_XSP16, literal(-18)))
          CFI (cfiCond163) V5 load(1, XDATA, add(CFA_XSP16, literal(-17)))
          CFI (cfiCond163) V6 load(1, XDATA, add(CFA_XSP16, literal(-16)))
          CFI (cfiCond163) V7 load(1, XDATA, add(CFA_XSP16, literal(-15)))
          CFI (cfiCond163) V8 load(1, XDATA, add(CFA_XSP16, literal(-14)))
          CFI (cfiCond163) V9 load(1, XDATA, add(CFA_XSP16, literal(-13)))
          CFI (cfiCond163) V10 load(1, XDATA, add(CFA_XSP16, literal(-12)))
          CFI (cfiCond163) V11 load(1, XDATA, add(CFA_XSP16, literal(-11)))
          CFI (cfiCond163) V12 load(1, XDATA, add(CFA_XSP16, literal(-10)))
          CFI (cfiCond163) V13 load(1, XDATA, add(CFA_XSP16, literal(-9)))
          CFI (cfiCond163) V14 load(1, XDATA, add(CFA_XSP16, literal(-8)))
          CFI (cfiCond163) V15 load(1, XDATA, add(CFA_XSP16, literal(-7)))
          CFI (cfiCond163) R7 load(1, XDATA, add(CFA_XSP16, literal(-6)))
          CFI (cfiCond163) ?RET_LOW load(1, XDATA, add(CFA_XSP16, literal(-5)))
          CFI (cfiCond163) ?RET_HIGH load(1, XDATA, add(CFA_XSP16, literal(-4)))
          CFI (cfiCond163) ?BRET_EXT load(1, XDATA, add(CFA_XSP16, literal(-3)))
          CFI (cfiCond163) DPL0 load(1, XDATA, add(CFA_XSP16, literal(-2)))
          CFI (cfiCond163) DPH0 load(1, XDATA, add(CFA_XSP16, literal(-1)))
          CFI (cfiCond163) CFA_SP SP+0
          CFI (cfiCond163) CFA_XSP16 add(XSP16, 33)
          CFI Block cfiCond164 Using cfiCommon0
          CFI (cfiCond164) Function hwLight_ApplyUpdate16b
          CFI (cfiCond164) Conditional ??CrossCallReturnLabel_94, ??CrossCallReturnLabel_90, ??CrossCallReturnLabel_67
          CFI (cfiCond164) R6 load(1, XDATA, add(CFA_XSP16, literal(-24)))
          CFI (cfiCond164) VB load(1, XDATA, add(CFA_XSP16, literal(-23)))
          CFI (cfiCond164) V0 load(1, XDATA, add(CFA_XSP16, literal(-22)))
          CFI (cfiCond164) V1 load(1, XDATA, add(CFA_XSP16, literal(-21)))
          CFI (cfiCond164) V2 load(1, XDATA, add(CFA_XSP16, literal(-20)))
          CFI (cfiCond164) V3 load(1, XDATA, add(CFA_XSP16, literal(-19)))
          CFI (cfiCond164) V4 load(1, XDATA, add(CFA_XSP16, literal(-18)))
          CFI (cfiCond164) V5 load(1, XDATA, add(CFA_XSP16, literal(-17)))
          CFI (cfiCond164) V6 load(1, XDATA, add(CFA_XSP16, literal(-16)))
          CFI (cfiCond164) V7 load(1, XDATA, add(CFA_XSP16, literal(-15)))
          CFI (cfiCond164) V8 load(1, XDATA, add(CFA_XSP16, literal(-14)))
          CFI (cfiCond164) V9 load(1, XDATA, add(CFA_XSP16, literal(-13)))
          CFI (cfiCond164) V10 load(1, XDATA, add(CFA_XSP16, literal(-12)))
          CFI (cfiCond164) V11 load(1, XDATA, add(CFA_XSP16, literal(-11)))
          CFI (cfiCond164) V12 load(1, XDATA, add(CFA_XSP16, literal(-10)))
          CFI (cfiCond164) V13 load(1, XDATA, add(CFA_XSP16, literal(-9)))
          CFI (cfiCond164) V14 load(1, XDATA, add(CFA_XSP16, literal(-8)))
          CFI (cfiCond164) V15 load(1, XDATA, add(CFA_XSP16, literal(-7)))
          CFI (cfiCond164) R7 load(1, XDATA, add(CFA_XSP16, literal(-6)))
          CFI (cfiCond164) ?RET_LOW load(1, XDATA, add(CFA_XSP16, literal(-5)))
          CFI (cfiCond164) ?RET_HIGH load(1, XDATA, add(CFA_XSP16, literal(-4)))
          CFI (cfiCond164) ?BRET_EXT load(1, XDATA, add(CFA_XSP16, literal(-3)))
          CFI (cfiCond164) DPL0 load(1, XDATA, add(CFA_XSP16, literal(-2)))
          CFI (cfiCond164) DPH0 load(1, XDATA, add(CFA_XSP16, literal(-1)))
          CFI (cfiCond164) CFA_SP SP+0
          CFI (cfiCond164) CFA_XSP16 add(XSP16, 33)
          CFI Block cfiCond165 Using cfiCommon0
          CFI (cfiCond165) Function hwLight_ApplyUpdate16b
          CFI (cfiCond165) Conditional ??CrossCallReturnLabel_94, ??CrossCallReturnLabel_90, ??CrossCallReturnLabel_68
          CFI (cfiCond165) R6 load(1, XDATA, add(CFA_XSP16, literal(-24)))
          CFI (cfiCond165) VB load(1, XDATA, add(CFA_XSP16, literal(-23)))
          CFI (cfiCond165) V0 load(1, XDATA, add(CFA_XSP16, literal(-22)))
          CFI (cfiCond165) V1 load(1, XDATA, add(CFA_XSP16, literal(-21)))
          CFI (cfiCond165) V2 load(1, XDATA, add(CFA_XSP16, literal(-20)))
          CFI (cfiCond165) V3 load(1, XDATA, add(CFA_XSP16, literal(-19)))
          CFI (cfiCond165) V4 load(1, XDATA, add(CFA_XSP16, literal(-18)))
          CFI (cfiCond165) V5 load(1, XDATA, add(CFA_XSP16, literal(-17)))
          CFI (cfiCond165) V6 load(1, XDATA, add(CFA_XSP16, literal(-16)))
          CFI (cfiCond165) V7 load(1, XDATA, add(CFA_XSP16, literal(-15)))
          CFI (cfiCond165) V8 load(1, XDATA, add(CFA_XSP16, literal(-14)))
          CFI (cfiCond165) V9 load(1, XDATA, add(CFA_XSP16, literal(-13)))
          CFI (cfiCond165) V10 load(1, XDATA, add(CFA_XSP16, literal(-12)))
          CFI (cfiCond165) V11 load(1, XDATA, add(CFA_XSP16, literal(-11)))
          CFI (cfiCond165) V12 load(1, XDATA, add(CFA_XSP16, literal(-10)))
          CFI (cfiCond165) V13 load(1, XDATA, add(CFA_XSP16, literal(-9)))
          CFI (cfiCond165) V14 load(1, XDATA, add(CFA_XSP16, literal(-8)))
          CFI (cfiCond165) V15 load(1, XDATA, add(CFA_XSP16, literal(-7)))
          CFI (cfiCond165) R7 load(1, XDATA, add(CFA_XSP16, literal(-6)))
          CFI (cfiCond165) ?RET_LOW load(1, XDATA, add(CFA_XSP16, literal(-5)))
          CFI (cfiCond165) ?RET_HIGH load(1, XDATA, add(CFA_XSP16, literal(-4)))
          CFI (cfiCond165) ?BRET_EXT load(1, XDATA, add(CFA_XSP16, literal(-3)))
          CFI (cfiCond165) DPL0 load(1, XDATA, add(CFA_XSP16, literal(-2)))
          CFI (cfiCond165) DPH0 load(1, XDATA, add(CFA_XSP16, literal(-1)))
          CFI (cfiCond165) CFA_SP SP+0
          CFI (cfiCond165) CFA_XSP16 add(XSP16, 33)
          CFI Block cfiCond166 Using cfiCommon0
          CFI (cfiCond166) Function hwLight_ApplyUpdate
          CFI (cfiCond166) Conditional ??CrossCallReturnLabel_94, ??CrossCallReturnLabel_90, ??CrossCallReturnLabel_65
          CFI (cfiCond166) R6 load(1, XDATA, add(CFA_XSP16, literal(-24)))
          CFI (cfiCond166) VB load(1, XDATA, add(CFA_XSP16, literal(-23)))
          CFI (cfiCond166) V0 load(1, XDATA, add(CFA_XSP16, literal(-22)))
          CFI (cfiCond166) V1 load(1, XDATA, add(CFA_XSP16, literal(-21)))
          CFI (cfiCond166) V2 load(1, XDATA, add(CFA_XSP16, literal(-20)))
          CFI (cfiCond166) V3 load(1, XDATA, add(CFA_XSP16, literal(-19)))
          CFI (cfiCond166) V4 load(1, XDATA, add(CFA_XSP16, literal(-18)))
          CFI (cfiCond166) V5 load(1, XDATA, add(CFA_XSP16, literal(-17)))
          CFI (cfiCond166) V6 load(1, XDATA, add(CFA_XSP16, literal(-16)))
          CFI (cfiCond166) V7 load(1, XDATA, add(CFA_XSP16, literal(-15)))
          CFI (cfiCond166) V8 load(1, XDATA, add(CFA_XSP16, literal(-14)))
          CFI (cfiCond166) V9 load(1, XDATA, add(CFA_XSP16, literal(-13)))
          CFI (cfiCond166) V10 load(1, XDATA, add(CFA_XSP16, literal(-12)))
          CFI (cfiCond166) V11 load(1, XDATA, add(CFA_XSP16, literal(-11)))
          CFI (cfiCond166) V12 load(1, XDATA, add(CFA_XSP16, literal(-10)))
          CFI (cfiCond166) V13 load(1, XDATA, add(CFA_XSP16, literal(-9)))
          CFI (cfiCond166) V14 load(1, XDATA, add(CFA_XSP16, literal(-8)))
          CFI (cfiCond166) V15 load(1, XDATA, add(CFA_XSP16, literal(-7)))
          CFI (cfiCond166) R7 load(1, XDATA, add(CFA_XSP16, literal(-6)))
          CFI (cfiCond166) ?RET_LOW load(1, XDATA, add(CFA_XSP16, literal(-5)))
          CFI (cfiCond166) ?RET_HIGH load(1, XDATA, add(CFA_XSP16, literal(-4)))
          CFI (cfiCond166) ?BRET_EXT load(1, XDATA, add(CFA_XSP16, literal(-3)))
          CFI (cfiCond166) DPL0 load(1, XDATA, add(CFA_XSP16, literal(-2)))
          CFI (cfiCond166) DPH0 load(1, XDATA, add(CFA_XSP16, literal(-1)))
          CFI (cfiCond166) CFA_SP SP+0
          CFI (cfiCond166) CFA_XSP16 add(XSP16, 29)
          CFI Block cfiCond167 Using cfiCommon0
          CFI (cfiCond167) Function hwLight_ApplyUpdate16b
          CFI (cfiCond167) Conditional ??CrossCallReturnLabel_94, ??CrossCallReturnLabel_91, ??CrossCallReturnLabel_77
          CFI (cfiCond167) R6 load(1, XDATA, add(CFA_XSP16, literal(-24)))
          CFI (cfiCond167) VB load(1, XDATA, add(CFA_XSP16, literal(-23)))
          CFI (cfiCond167) V0 load(1, XDATA, add(CFA_XSP16, literal(-22)))
          CFI (cfiCond167) V1 load(1, XDATA, add(CFA_XSP16, literal(-21)))
          CFI (cfiCond167) V2 load(1, XDATA, add(CFA_XSP16, literal(-20)))
          CFI (cfiCond167) V3 load(1, XDATA, add(CFA_XSP16, literal(-19)))
          CFI (cfiCond167) V4 load(1, XDATA, add(CFA_XSP16, literal(-18)))
          CFI (cfiCond167) V5 load(1, XDATA, add(CFA_XSP16, literal(-17)))
          CFI (cfiCond167) V6 load(1, XDATA, add(CFA_XSP16, literal(-16)))
          CFI (cfiCond167) V7 load(1, XDATA, add(CFA_XSP16, literal(-15)))
          CFI (cfiCond167) V8 load(1, XDATA, add(CFA_XSP16, literal(-14)))
          CFI (cfiCond167) V9 load(1, XDATA, add(CFA_XSP16, literal(-13)))
          CFI (cfiCond167) V10 load(1, XDATA, add(CFA_XSP16, literal(-12)))
          CFI (cfiCond167) V11 load(1, XDATA, add(CFA_XSP16, literal(-11)))
          CFI (cfiCond167) V12 load(1, XDATA, add(CFA_XSP16, literal(-10)))
          CFI (cfiCond167) V13 load(1, XDATA, add(CFA_XSP16, literal(-9)))
          CFI (cfiCond167) V14 load(1, XDATA, add(CFA_XSP16, literal(-8)))
          CFI (cfiCond167) V15 load(1, XDATA, add(CFA_XSP16, literal(-7)))
          CFI (cfiCond167) R7 load(1, XDATA, add(CFA_XSP16, literal(-6)))
          CFI (cfiCond167) ?RET_LOW load(1, XDATA, add(CFA_XSP16, literal(-5)))
          CFI (cfiCond167) ?RET_HIGH load(1, XDATA, add(CFA_XSP16, literal(-4)))
          CFI (cfiCond167) ?BRET_EXT load(1, XDATA, add(CFA_XSP16, literal(-3)))
          CFI (cfiCond167) DPL0 load(1, XDATA, add(CFA_XSP16, literal(-2)))
          CFI (cfiCond167) DPH0 load(1, XDATA, add(CFA_XSP16, literal(-1)))
          CFI (cfiCond167) CFA_SP SP+0
          CFI (cfiCond167) CFA_XSP16 add(XSP16, 33)
          CFI Block cfiCond168 Using cfiCommon0
          CFI (cfiCond168) Function hwLight_ApplyUpdate16b
          CFI (cfiCond168) Conditional ??CrossCallReturnLabel_94, ??CrossCallReturnLabel_91, ??CrossCallReturnLabel_78
          CFI (cfiCond168) R6 load(1, XDATA, add(CFA_XSP16, literal(-24)))
          CFI (cfiCond168) VB load(1, XDATA, add(CFA_XSP16, literal(-23)))
          CFI (cfiCond168) V0 load(1, XDATA, add(CFA_XSP16, literal(-22)))
          CFI (cfiCond168) V1 load(1, XDATA, add(CFA_XSP16, literal(-21)))
          CFI (cfiCond168) V2 load(1, XDATA, add(CFA_XSP16, literal(-20)))
          CFI (cfiCond168) V3 load(1, XDATA, add(CFA_XSP16, literal(-19)))
          CFI (cfiCond168) V4 load(1, XDATA, add(CFA_XSP16, literal(-18)))
          CFI (cfiCond168) V5 load(1, XDATA, add(CFA_XSP16, literal(-17)))
          CFI (cfiCond168) V6 load(1, XDATA, add(CFA_XSP16, literal(-16)))
          CFI (cfiCond168) V7 load(1, XDATA, add(CFA_XSP16, literal(-15)))
          CFI (cfiCond168) V8 load(1, XDATA, add(CFA_XSP16, literal(-14)))
          CFI (cfiCond168) V9 load(1, XDATA, add(CFA_XSP16, literal(-13)))
          CFI (cfiCond168) V10 load(1, XDATA, add(CFA_XSP16, literal(-12)))
          CFI (cfiCond168) V11 load(1, XDATA, add(CFA_XSP16, literal(-11)))
          CFI (cfiCond168) V12 load(1, XDATA, add(CFA_XSP16, literal(-10)))
          CFI (cfiCond168) V13 load(1, XDATA, add(CFA_XSP16, literal(-9)))
          CFI (cfiCond168) V14 load(1, XDATA, add(CFA_XSP16, literal(-8)))
          CFI (cfiCond168) V15 load(1, XDATA, add(CFA_XSP16, literal(-7)))
          CFI (cfiCond168) R7 load(1, XDATA, add(CFA_XSP16, literal(-6)))
          CFI (cfiCond168) ?RET_LOW load(1, XDATA, add(CFA_XSP16, literal(-5)))
          CFI (cfiCond168) ?RET_HIGH load(1, XDATA, add(CFA_XSP16, literal(-4)))
          CFI (cfiCond168) ?BRET_EXT load(1, XDATA, add(CFA_XSP16, literal(-3)))
          CFI (cfiCond168) DPL0 load(1, XDATA, add(CFA_XSP16, literal(-2)))
          CFI (cfiCond168) DPH0 load(1, XDATA, add(CFA_XSP16, literal(-1)))
          CFI (cfiCond168) CFA_SP SP+0
          CFI (cfiCond168) CFA_XSP16 add(XSP16, 33)
          CFI Block cfiCond169 Using cfiCommon0
          CFI (cfiCond169) Function hwLight_ApplyUpdate16b
          CFI (cfiCond169) Conditional ??CrossCallReturnLabel_94, ??CrossCallReturnLabel_91, ??CrossCallReturnLabel_79
          CFI (cfiCond169) R6 load(1, XDATA, add(CFA_XSP16, literal(-24)))
          CFI (cfiCond169) VB load(1, XDATA, add(CFA_XSP16, literal(-23)))
          CFI (cfiCond169) V0 load(1, XDATA, add(CFA_XSP16, literal(-22)))
          CFI (cfiCond169) V1 load(1, XDATA, add(CFA_XSP16, literal(-21)))
          CFI (cfiCond169) V2 load(1, XDATA, add(CFA_XSP16, literal(-20)))
          CFI (cfiCond169) V3 load(1, XDATA, add(CFA_XSP16, literal(-19)))
          CFI (cfiCond169) V4 load(1, XDATA, add(CFA_XSP16, literal(-18)))
          CFI (cfiCond169) V5 load(1, XDATA, add(CFA_XSP16, literal(-17)))
          CFI (cfiCond169) V6 load(1, XDATA, add(CFA_XSP16, literal(-16)))
          CFI (cfiCond169) V7 load(1, XDATA, add(CFA_XSP16, literal(-15)))
          CFI (cfiCond169) V8 load(1, XDATA, add(CFA_XSP16, literal(-14)))
          CFI (cfiCond169) V9 load(1, XDATA, add(CFA_XSP16, literal(-13)))
          CFI (cfiCond169) V10 load(1, XDATA, add(CFA_XSP16, literal(-12)))
          CFI (cfiCond169) V11 load(1, XDATA, add(CFA_XSP16, literal(-11)))
          CFI (cfiCond169) V12 load(1, XDATA, add(CFA_XSP16, literal(-10)))
          CFI (cfiCond169) V13 load(1, XDATA, add(CFA_XSP16, literal(-9)))
          CFI (cfiCond169) V14 load(1, XDATA, add(CFA_XSP16, literal(-8)))
          CFI (cfiCond169) V15 load(1, XDATA, add(CFA_XSP16, literal(-7)))
          CFI (cfiCond169) R7 load(1, XDATA, add(CFA_XSP16, literal(-6)))
          CFI (cfiCond169) ?RET_LOW load(1, XDATA, add(CFA_XSP16, literal(-5)))
          CFI (cfiCond169) ?RET_HIGH load(1, XDATA, add(CFA_XSP16, literal(-4)))
          CFI (cfiCond169) ?BRET_EXT load(1, XDATA, add(CFA_XSP16, literal(-3)))
          CFI (cfiCond169) DPL0 load(1, XDATA, add(CFA_XSP16, literal(-2)))
          CFI (cfiCond169) DPH0 load(1, XDATA, add(CFA_XSP16, literal(-1)))
          CFI (cfiCond169) CFA_SP SP+0
          CFI (cfiCond169) CFA_XSP16 add(XSP16, 33)
          CFI Block cfiCond170 Using cfiCommon0
          CFI (cfiCond170) Function hwLight_ApplyUpdate16b
          CFI (cfiCond170) Conditional ??CrossCallReturnLabel_94, ??CrossCallReturnLabel_91, ??CrossCallReturnLabel_80
          CFI (cfiCond170) R6 load(1, XDATA, add(CFA_XSP16, literal(-24)))
          CFI (cfiCond170) VB load(1, XDATA, add(CFA_XSP16, literal(-23)))
          CFI (cfiCond170) V0 load(1, XDATA, add(CFA_XSP16, literal(-22)))
          CFI (cfiCond170) V1 load(1, XDATA, add(CFA_XSP16, literal(-21)))
          CFI (cfiCond170) V2 load(1, XDATA, add(CFA_XSP16, literal(-20)))
          CFI (cfiCond170) V3 load(1, XDATA, add(CFA_XSP16, literal(-19)))
          CFI (cfiCond170) V4 load(1, XDATA, add(CFA_XSP16, literal(-18)))
          CFI (cfiCond170) V5 load(1, XDATA, add(CFA_XSP16, literal(-17)))
          CFI (cfiCond170) V6 load(1, XDATA, add(CFA_XSP16, literal(-16)))
          CFI (cfiCond170) V7 load(1, XDATA, add(CFA_XSP16, literal(-15)))
          CFI (cfiCond170) V8 load(1, XDATA, add(CFA_XSP16, literal(-14)))
          CFI (cfiCond170) V9 load(1, XDATA, add(CFA_XSP16, literal(-13)))
          CFI (cfiCond170) V10 load(1, XDATA, add(CFA_XSP16, literal(-12)))
          CFI (cfiCond170) V11 load(1, XDATA, add(CFA_XSP16, literal(-11)))
          CFI (cfiCond170) V12 load(1, XDATA, add(CFA_XSP16, literal(-10)))
          CFI (cfiCond170) V13 load(1, XDATA, add(CFA_XSP16, literal(-9)))
          CFI (cfiCond170) V14 load(1, XDATA, add(CFA_XSP16, literal(-8)))
          CFI (cfiCond170) V15 load(1, XDATA, add(CFA_XSP16, literal(-7)))
          CFI (cfiCond170) R7 load(1, XDATA, add(CFA_XSP16, literal(-6)))
          CFI (cfiCond170) ?RET_LOW load(1, XDATA, add(CFA_XSP16, literal(-5)))
          CFI (cfiCond170) ?RET_HIGH load(1, XDATA, add(CFA_XSP16, literal(-4)))
          CFI (cfiCond170) ?BRET_EXT load(1, XDATA, add(CFA_XSP16, literal(-3)))
          CFI (cfiCond170) DPL0 load(1, XDATA, add(CFA_XSP16, literal(-2)))
          CFI (cfiCond170) DPH0 load(1, XDATA, add(CFA_XSP16, literal(-1)))
          CFI (cfiCond170) CFA_SP SP+0
          CFI (cfiCond170) CFA_XSP16 add(XSP16, 33)
          CFI Block cfiCond171 Using cfiCommon0
          CFI (cfiCond171) Function hwLight_ApplyUpdate16b
          CFI (cfiCond171) Conditional ??CrossCallReturnLabel_94, ??CrossCallReturnLabel_91, ??CrossCallReturnLabel_81
          CFI (cfiCond171) R6 load(1, XDATA, add(CFA_XSP16, literal(-24)))
          CFI (cfiCond171) VB load(1, XDATA, add(CFA_XSP16, literal(-23)))
          CFI (cfiCond171) V0 load(1, XDATA, add(CFA_XSP16, literal(-22)))
          CFI (cfiCond171) V1 load(1, XDATA, add(CFA_XSP16, literal(-21)))
          CFI (cfiCond171) V2 load(1, XDATA, add(CFA_XSP16, literal(-20)))
          CFI (cfiCond171) V3 load(1, XDATA, add(CFA_XSP16, literal(-19)))
          CFI (cfiCond171) V4 load(1, XDATA, add(CFA_XSP16, literal(-18)))
          CFI (cfiCond171) V5 load(1, XDATA, add(CFA_XSP16, literal(-17)))
          CFI (cfiCond171) V6 load(1, XDATA, add(CFA_XSP16, literal(-16)))
          CFI (cfiCond171) V7 load(1, XDATA, add(CFA_XSP16, literal(-15)))
          CFI (cfiCond171) V8 load(1, XDATA, add(CFA_XSP16, literal(-14)))
          CFI (cfiCond171) V9 load(1, XDATA, add(CFA_XSP16, literal(-13)))
          CFI (cfiCond171) V10 load(1, XDATA, add(CFA_XSP16, literal(-12)))
          CFI (cfiCond171) V11 load(1, XDATA, add(CFA_XSP16, literal(-11)))
          CFI (cfiCond171) V12 load(1, XDATA, add(CFA_XSP16, literal(-10)))
          CFI (cfiCond171) V13 load(1, XDATA, add(CFA_XSP16, literal(-9)))
          CFI (cfiCond171) V14 load(1, XDATA, add(CFA_XSP16, literal(-8)))
          CFI (cfiCond171) V15 load(1, XDATA, add(CFA_XSP16, literal(-7)))
          CFI (cfiCond171) R7 load(1, XDATA, add(CFA_XSP16, literal(-6)))
          CFI (cfiCond171) ?RET_LOW load(1, XDATA, add(CFA_XSP16, literal(-5)))
          CFI (cfiCond171) ?RET_HIGH load(1, XDATA, add(CFA_XSP16, literal(-4)))
          CFI (cfiCond171) ?BRET_EXT load(1, XDATA, add(CFA_XSP16, literal(-3)))
          CFI (cfiCond171) DPL0 load(1, XDATA, add(CFA_XSP16, literal(-2)))
          CFI (cfiCond171) DPH0 load(1, XDATA, add(CFA_XSP16, literal(-1)))
          CFI (cfiCond171) CFA_SP SP+0
          CFI (cfiCond171) CFA_XSP16 add(XSP16, 33)
          CFI Block cfiCond172 Using cfiCommon0
          CFI (cfiCond172) Function hwLight_ApplyUpdate
          CFI (cfiCond172) Conditional ??CrossCallReturnLabel_94, ??CrossCallReturnLabel_91, ??CrossCallReturnLabel_82
          CFI (cfiCond172) R6 load(1, XDATA, add(CFA_XSP16, literal(-24)))
          CFI (cfiCond172) VB load(1, XDATA, add(CFA_XSP16, literal(-23)))
          CFI (cfiCond172) V0 load(1, XDATA, add(CFA_XSP16, literal(-22)))
          CFI (cfiCond172) V1 load(1, XDATA, add(CFA_XSP16, literal(-21)))
          CFI (cfiCond172) V2 load(1, XDATA, add(CFA_XSP16, literal(-20)))
          CFI (cfiCond172) V3 load(1, XDATA, add(CFA_XSP16, literal(-19)))
          CFI (cfiCond172) V4 load(1, XDATA, add(CFA_XSP16, literal(-18)))
          CFI (cfiCond172) V5 load(1, XDATA, add(CFA_XSP16, literal(-17)))
          CFI (cfiCond172) V6 load(1, XDATA, add(CFA_XSP16, literal(-16)))
          CFI (cfiCond172) V7 load(1, XDATA, add(CFA_XSP16, literal(-15)))
          CFI (cfiCond172) V8 load(1, XDATA, add(CFA_XSP16, literal(-14)))
          CFI (cfiCond172) V9 load(1, XDATA, add(CFA_XSP16, literal(-13)))
          CFI (cfiCond172) V10 load(1, XDATA, add(CFA_XSP16, literal(-12)))
          CFI (cfiCond172) V11 load(1, XDATA, add(CFA_XSP16, literal(-11)))
          CFI (cfiCond172) V12 load(1, XDATA, add(CFA_XSP16, literal(-10)))
          CFI (cfiCond172) V13 load(1, XDATA, add(CFA_XSP16, literal(-9)))
          CFI (cfiCond172) V14 load(1, XDATA, add(CFA_XSP16, literal(-8)))
          CFI (cfiCond172) V15 load(1, XDATA, add(CFA_XSP16, literal(-7)))
          CFI (cfiCond172) R7 load(1, XDATA, add(CFA_XSP16, literal(-6)))
          CFI (cfiCond172) ?RET_LOW load(1, XDATA, add(CFA_XSP16, literal(-5)))
          CFI (cfiCond172) ?RET_HIGH load(1, XDATA, add(CFA_XSP16, literal(-4)))
          CFI (cfiCond172) ?BRET_EXT load(1, XDATA, add(CFA_XSP16, literal(-3)))
          CFI (cfiCond172) DPL0 load(1, XDATA, add(CFA_XSP16, literal(-2)))
          CFI (cfiCond172) DPH0 load(1, XDATA, add(CFA_XSP16, literal(-1)))
          CFI (cfiCond172) CFA_SP SP+0
          CFI (cfiCond172) CFA_XSP16 add(XSP16, 29)
          CFI Block cfiCond173 Using cfiCommon0
          CFI (cfiCond173) Function hwLight_Convert_xyY_to_RGB
          CFI (cfiCond173) Conditional ??CrossCallReturnLabel_94, ??CrossCallReturnLabel_91, ??CrossCallReturnLabel_75
          CFI (cfiCond173) R6 load(1, XDATA, add(CFA_XSP16, literal(-24)))
          CFI (cfiCond173) VB load(1, XDATA, add(CFA_XSP16, literal(-23)))
          CFI (cfiCond173) V0 load(1, XDATA, add(CFA_XSP16, literal(-22)))
          CFI (cfiCond173) V1 load(1, XDATA, add(CFA_XSP16, literal(-21)))
          CFI (cfiCond173) V2 load(1, XDATA, add(CFA_XSP16, literal(-20)))
          CFI (cfiCond173) V3 load(1, XDATA, add(CFA_XSP16, literal(-19)))
          CFI (cfiCond173) V4 load(1, XDATA, add(CFA_XSP16, literal(-18)))
          CFI (cfiCond173) V5 load(1, XDATA, add(CFA_XSP16, literal(-17)))
          CFI (cfiCond173) V6 load(1, XDATA, add(CFA_XSP16, literal(-16)))
          CFI (cfiCond173) V7 load(1, XDATA, add(CFA_XSP16, literal(-15)))
          CFI (cfiCond173) V8 load(1, XDATA, add(CFA_XSP16, literal(-14)))
          CFI (cfiCond173) V9 load(1, XDATA, add(CFA_XSP16, literal(-13)))
          CFI (cfiCond173) V10 load(1, XDATA, add(CFA_XSP16, literal(-12)))
          CFI (cfiCond173) V11 load(1, XDATA, add(CFA_XSP16, literal(-11)))
          CFI (cfiCond173) V12 load(1, XDATA, add(CFA_XSP16, literal(-10)))
          CFI (cfiCond173) V13 load(1, XDATA, add(CFA_XSP16, literal(-9)))
          CFI (cfiCond173) V14 load(1, XDATA, add(CFA_XSP16, literal(-8)))
          CFI (cfiCond173) V15 load(1, XDATA, add(CFA_XSP16, literal(-7)))
          CFI (cfiCond173) R7 load(1, XDATA, add(CFA_XSP16, literal(-6)))
          CFI (cfiCond173) ?RET_LOW load(1, XDATA, add(CFA_XSP16, literal(-5)))
          CFI (cfiCond173) ?RET_HIGH load(1, XDATA, add(CFA_XSP16, literal(-4)))
          CFI (cfiCond173) ?BRET_EXT load(1, XDATA, add(CFA_XSP16, literal(-3)))
          CFI (cfiCond173) DPL0 load(1, XDATA, add(CFA_XSP16, literal(-2)))
          CFI (cfiCond173) DPH0 load(1, XDATA, add(CFA_XSP16, literal(-1)))
          CFI (cfiCond173) CFA_SP SP+0
          CFI (cfiCond173) CFA_XSP16 add(XSP16, 40)
          CFI Block cfiCond174 Using cfiCommon0
          CFI (cfiCond174) Function hwLight_ApplyUpdate
          CFI (cfiCond174) Conditional ??CrossCallReturnLabel_94, ??CrossCallReturnLabel_91, ??CrossCallReturnLabel_76
          CFI (cfiCond174) R6 load(1, XDATA, add(CFA_XSP16, literal(-24)))
          CFI (cfiCond174) VB load(1, XDATA, add(CFA_XSP16, literal(-23)))
          CFI (cfiCond174) V0 load(1, XDATA, add(CFA_XSP16, literal(-22)))
          CFI (cfiCond174) V1 load(1, XDATA, add(CFA_XSP16, literal(-21)))
          CFI (cfiCond174) V2 load(1, XDATA, add(CFA_XSP16, literal(-20)))
          CFI (cfiCond174) V3 load(1, XDATA, add(CFA_XSP16, literal(-19)))
          CFI (cfiCond174) V4 load(1, XDATA, add(CFA_XSP16, literal(-18)))
          CFI (cfiCond174) V5 load(1, XDATA, add(CFA_XSP16, literal(-17)))
          CFI (cfiCond174) V6 load(1, XDATA, add(CFA_XSP16, literal(-16)))
          CFI (cfiCond174) V7 load(1, XDATA, add(CFA_XSP16, literal(-15)))
          CFI (cfiCond174) V8 load(1, XDATA, add(CFA_XSP16, literal(-14)))
          CFI (cfiCond174) V9 load(1, XDATA, add(CFA_XSP16, literal(-13)))
          CFI (cfiCond174) V10 load(1, XDATA, add(CFA_XSP16, literal(-12)))
          CFI (cfiCond174) V11 load(1, XDATA, add(CFA_XSP16, literal(-11)))
          CFI (cfiCond174) V12 load(1, XDATA, add(CFA_XSP16, literal(-10)))
          CFI (cfiCond174) V13 load(1, XDATA, add(CFA_XSP16, literal(-9)))
          CFI (cfiCond174) V14 load(1, XDATA, add(CFA_XSP16, literal(-8)))
          CFI (cfiCond174) V15 load(1, XDATA, add(CFA_XSP16, literal(-7)))
          CFI (cfiCond174) R7 load(1, XDATA, add(CFA_XSP16, literal(-6)))
          CFI (cfiCond174) ?RET_LOW load(1, XDATA, add(CFA_XSP16, literal(-5)))
          CFI (cfiCond174) ?RET_HIGH load(1, XDATA, add(CFA_XSP16, literal(-4)))
          CFI (cfiCond174) ?BRET_EXT load(1, XDATA, add(CFA_XSP16, literal(-3)))
          CFI (cfiCond174) DPL0 load(1, XDATA, add(CFA_XSP16, literal(-2)))
          CFI (cfiCond174) DPH0 load(1, XDATA, add(CFA_XSP16, literal(-1)))
          CFI (cfiCond174) CFA_SP SP+-1
          CFI (cfiCond174) CFA_XSP16 add(XSP16, 29)
          CFI Block cfiCond175 Using cfiCommon0
          CFI (cfiCond175) Function hwLight_ApplyUpdate
          CFI (cfiCond175) Conditional ??CrossCallReturnLabel_94, ??CrossCallReturnLabel_92, ??CrossCallReturnLabel_85
          CFI (cfiCond175) R6 load(1, XDATA, add(CFA_XSP16, literal(-24)))
          CFI (cfiCond175) VB load(1, XDATA, add(CFA_XSP16, literal(-23)))
          CFI (cfiCond175) V0 load(1, XDATA, add(CFA_XSP16, literal(-22)))
          CFI (cfiCond175) V1 load(1, XDATA, add(CFA_XSP16, literal(-21)))
          CFI (cfiCond175) V2 load(1, XDATA, add(CFA_XSP16, literal(-20)))
          CFI (cfiCond175) V3 load(1, XDATA, add(CFA_XSP16, literal(-19)))
          CFI (cfiCond175) V4 load(1, XDATA, add(CFA_XSP16, literal(-18)))
          CFI (cfiCond175) V5 load(1, XDATA, add(CFA_XSP16, literal(-17)))
          CFI (cfiCond175) V6 load(1, XDATA, add(CFA_XSP16, literal(-16)))
          CFI (cfiCond175) V7 load(1, XDATA, add(CFA_XSP16, literal(-15)))
          CFI (cfiCond175) V8 load(1, XDATA, add(CFA_XSP16, literal(-14)))
          CFI (cfiCond175) V9 load(1, XDATA, add(CFA_XSP16, literal(-13)))
          CFI (cfiCond175) V10 load(1, XDATA, add(CFA_XSP16, literal(-12)))
          CFI (cfiCond175) V11 load(1, XDATA, add(CFA_XSP16, literal(-11)))
          CFI (cfiCond175) V12 load(1, XDATA, add(CFA_XSP16, literal(-10)))
          CFI (cfiCond175) V13 load(1, XDATA, add(CFA_XSP16, literal(-9)))
          CFI (cfiCond175) V14 load(1, XDATA, add(CFA_XSP16, literal(-8)))
          CFI (cfiCond175) V15 load(1, XDATA, add(CFA_XSP16, literal(-7)))
          CFI (cfiCond175) R7 load(1, XDATA, add(CFA_XSP16, literal(-6)))
          CFI (cfiCond175) ?RET_LOW load(1, XDATA, add(CFA_XSP16, literal(-5)))
          CFI (cfiCond175) ?RET_HIGH load(1, XDATA, add(CFA_XSP16, literal(-4)))
          CFI (cfiCond175) ?BRET_EXT load(1, XDATA, add(CFA_XSP16, literal(-3)))
          CFI (cfiCond175) DPL0 load(1, XDATA, add(CFA_XSP16, literal(-2)))
          CFI (cfiCond175) DPH0 load(1, XDATA, add(CFA_XSP16, literal(-1)))
          CFI (cfiCond175) CFA_SP SP+0
          CFI (cfiCond175) CFA_XSP16 add(XSP16, 29)
          CFI Block cfiCond176 Using cfiCommon0
          CFI (cfiCond176) Function hwLight_ApplyUpdate
          CFI (cfiCond176) Conditional ??CrossCallReturnLabel_94, ??CrossCallReturnLabel_92, ??CrossCallReturnLabel_86
          CFI (cfiCond176) R6 load(1, XDATA, add(CFA_XSP16, literal(-24)))
          CFI (cfiCond176) VB load(1, XDATA, add(CFA_XSP16, literal(-23)))
          CFI (cfiCond176) V0 load(1, XDATA, add(CFA_XSP16, literal(-22)))
          CFI (cfiCond176) V1 load(1, XDATA, add(CFA_XSP16, literal(-21)))
          CFI (cfiCond176) V2 load(1, XDATA, add(CFA_XSP16, literal(-20)))
          CFI (cfiCond176) V3 load(1, XDATA, add(CFA_XSP16, literal(-19)))
          CFI (cfiCond176) V4 load(1, XDATA, add(CFA_XSP16, literal(-18)))
          CFI (cfiCond176) V5 load(1, XDATA, add(CFA_XSP16, literal(-17)))
          CFI (cfiCond176) V6 load(1, XDATA, add(CFA_XSP16, literal(-16)))
          CFI (cfiCond176) V7 load(1, XDATA, add(CFA_XSP16, literal(-15)))
          CFI (cfiCond176) V8 load(1, XDATA, add(CFA_XSP16, literal(-14)))
          CFI (cfiCond176) V9 load(1, XDATA, add(CFA_XSP16, literal(-13)))
          CFI (cfiCond176) V10 load(1, XDATA, add(CFA_XSP16, literal(-12)))
          CFI (cfiCond176) V11 load(1, XDATA, add(CFA_XSP16, literal(-11)))
          CFI (cfiCond176) V12 load(1, XDATA, add(CFA_XSP16, literal(-10)))
          CFI (cfiCond176) V13 load(1, XDATA, add(CFA_XSP16, literal(-9)))
          CFI (cfiCond176) V14 load(1, XDATA, add(CFA_XSP16, literal(-8)))
          CFI (cfiCond176) V15 load(1, XDATA, add(CFA_XSP16, literal(-7)))
          CFI (cfiCond176) R7 load(1, XDATA, add(CFA_XSP16, literal(-6)))
          CFI (cfiCond176) ?RET_LOW load(1, XDATA, add(CFA_XSP16, literal(-5)))
          CFI (cfiCond176) ?RET_HIGH load(1, XDATA, add(CFA_XSP16, literal(-4)))
          CFI (cfiCond176) ?BRET_EXT load(1, XDATA, add(CFA_XSP16, literal(-3)))
          CFI (cfiCond176) DPL0 load(1, XDATA, add(CFA_XSP16, literal(-2)))
          CFI (cfiCond176) DPH0 load(1, XDATA, add(CFA_XSP16, literal(-1)))
          CFI (cfiCond176) CFA_SP SP+0
          CFI (cfiCond176) CFA_XSP16 add(XSP16, 29)
          CFI Block cfiCond177 Using cfiCommon0
          CFI (cfiCond177) Function hwLight_ApplyUpdate
          CFI (cfiCond177) Conditional ??CrossCallReturnLabel_94, ??CrossCallReturnLabel_92, ??CrossCallReturnLabel_87
          CFI (cfiCond177) R6 load(1, XDATA, add(CFA_XSP16, literal(-24)))
          CFI (cfiCond177) VB load(1, XDATA, add(CFA_XSP16, literal(-23)))
          CFI (cfiCond177) V0 load(1, XDATA, add(CFA_XSP16, literal(-22)))
          CFI (cfiCond177) V1 load(1, XDATA, add(CFA_XSP16, literal(-21)))
          CFI (cfiCond177) V2 load(1, XDATA, add(CFA_XSP16, literal(-20)))
          CFI (cfiCond177) V3 load(1, XDATA, add(CFA_XSP16, literal(-19)))
          CFI (cfiCond177) V4 load(1, XDATA, add(CFA_XSP16, literal(-18)))
          CFI (cfiCond177) V5 load(1, XDATA, add(CFA_XSP16, literal(-17)))
          CFI (cfiCond177) V6 load(1, XDATA, add(CFA_XSP16, literal(-16)))
          CFI (cfiCond177) V7 load(1, XDATA, add(CFA_XSP16, literal(-15)))
          CFI (cfiCond177) V8 load(1, XDATA, add(CFA_XSP16, literal(-14)))
          CFI (cfiCond177) V9 load(1, XDATA, add(CFA_XSP16, literal(-13)))
          CFI (cfiCond177) V10 load(1, XDATA, add(CFA_XSP16, literal(-12)))
          CFI (cfiCond177) V11 load(1, XDATA, add(CFA_XSP16, literal(-11)))
          CFI (cfiCond177) V12 load(1, XDATA, add(CFA_XSP16, literal(-10)))
          CFI (cfiCond177) V13 load(1, XDATA, add(CFA_XSP16, literal(-9)))
          CFI (cfiCond177) V14 load(1, XDATA, add(CFA_XSP16, literal(-8)))
          CFI (cfiCond177) V15 load(1, XDATA, add(CFA_XSP16, literal(-7)))
          CFI (cfiCond177) R7 load(1, XDATA, add(CFA_XSP16, literal(-6)))
          CFI (cfiCond177) ?RET_LOW load(1, XDATA, add(CFA_XSP16, literal(-5)))
          CFI (cfiCond177) ?RET_HIGH load(1, XDATA, add(CFA_XSP16, literal(-4)))
          CFI (cfiCond177) ?BRET_EXT load(1, XDATA, add(CFA_XSP16, literal(-3)))
          CFI (cfiCond177) DPL0 load(1, XDATA, add(CFA_XSP16, literal(-2)))
          CFI (cfiCond177) DPH0 load(1, XDATA, add(CFA_XSP16, literal(-1)))
          CFI (cfiCond177) CFA_SP SP+0
          CFI (cfiCond177) CFA_XSP16 add(XSP16, 29)
          CFI Block cfiCond178 Using cfiCommon0
          CFI (cfiCond178) Function hwLight_ApplyUpdate
          CFI (cfiCond178) Conditional ??CrossCallReturnLabel_94, ??CrossCallReturnLabel_92, ??CrossCallReturnLabel_88
          CFI (cfiCond178) R6 load(1, XDATA, add(CFA_XSP16, literal(-24)))
          CFI (cfiCond178) VB load(1, XDATA, add(CFA_XSP16, literal(-23)))
          CFI (cfiCond178) V0 load(1, XDATA, add(CFA_XSP16, literal(-22)))
          CFI (cfiCond178) V1 load(1, XDATA, add(CFA_XSP16, literal(-21)))
          CFI (cfiCond178) V2 load(1, XDATA, add(CFA_XSP16, literal(-20)))
          CFI (cfiCond178) V3 load(1, XDATA, add(CFA_XSP16, literal(-19)))
          CFI (cfiCond178) V4 load(1, XDATA, add(CFA_XSP16, literal(-18)))
          CFI (cfiCond178) V5 load(1, XDATA, add(CFA_XSP16, literal(-17)))
          CFI (cfiCond178) V6 load(1, XDATA, add(CFA_XSP16, literal(-16)))
          CFI (cfiCond178) V7 load(1, XDATA, add(CFA_XSP16, literal(-15)))
          CFI (cfiCond178) V8 load(1, XDATA, add(CFA_XSP16, literal(-14)))
          CFI (cfiCond178) V9 load(1, XDATA, add(CFA_XSP16, literal(-13)))
          CFI (cfiCond178) V10 load(1, XDATA, add(CFA_XSP16, literal(-12)))
          CFI (cfiCond178) V11 load(1, XDATA, add(CFA_XSP16, literal(-11)))
          CFI (cfiCond178) V12 load(1, XDATA, add(CFA_XSP16, literal(-10)))
          CFI (cfiCond178) V13 load(1, XDATA, add(CFA_XSP16, literal(-9)))
          CFI (cfiCond178) V14 load(1, XDATA, add(CFA_XSP16, literal(-8)))
          CFI (cfiCond178) V15 load(1, XDATA, add(CFA_XSP16, literal(-7)))
          CFI (cfiCond178) R7 load(1, XDATA, add(CFA_XSP16, literal(-6)))
          CFI (cfiCond178) ?RET_LOW load(1, XDATA, add(CFA_XSP16, literal(-5)))
          CFI (cfiCond178) ?RET_HIGH load(1, XDATA, add(CFA_XSP16, literal(-4)))
          CFI (cfiCond178) ?BRET_EXT load(1, XDATA, add(CFA_XSP16, literal(-3)))
          CFI (cfiCond178) DPL0 load(1, XDATA, add(CFA_XSP16, literal(-2)))
          CFI (cfiCond178) DPH0 load(1, XDATA, add(CFA_XSP16, literal(-1)))
          CFI (cfiCond178) CFA_SP SP+0
          CFI (cfiCond178) CFA_XSP16 add(XSP16, 29)
          CFI Block cfiCond179 Using cfiCommon0
          CFI (cfiCond179) Function hwLight_ApplyUpdate16b
          CFI (cfiCond179) Conditional ??CrossCallReturnLabel_94, ??CrossCallReturnLabel_92, ??CrossCallReturnLabel_83
          CFI (cfiCond179) R6 load(1, XDATA, add(CFA_XSP16, literal(-24)))
          CFI (cfiCond179) VB load(1, XDATA, add(CFA_XSP16, literal(-23)))
          CFI (cfiCond179) V0 load(1, XDATA, add(CFA_XSP16, literal(-22)))
          CFI (cfiCond179) V1 load(1, XDATA, add(CFA_XSP16, literal(-21)))
          CFI (cfiCond179) V2 load(1, XDATA, add(CFA_XSP16, literal(-20)))
          CFI (cfiCond179) V3 load(1, XDATA, add(CFA_XSP16, literal(-19)))
          CFI (cfiCond179) V4 load(1, XDATA, add(CFA_XSP16, literal(-18)))
          CFI (cfiCond179) V5 load(1, XDATA, add(CFA_XSP16, literal(-17)))
          CFI (cfiCond179) V6 load(1, XDATA, add(CFA_XSP16, literal(-16)))
          CFI (cfiCond179) V7 load(1, XDATA, add(CFA_XSP16, literal(-15)))
          CFI (cfiCond179) V8 load(1, XDATA, add(CFA_XSP16, literal(-14)))
          CFI (cfiCond179) V9 load(1, XDATA, add(CFA_XSP16, literal(-13)))
          CFI (cfiCond179) V10 load(1, XDATA, add(CFA_XSP16, literal(-12)))
          CFI (cfiCond179) V11 load(1, XDATA, add(CFA_XSP16, literal(-11)))
          CFI (cfiCond179) V12 load(1, XDATA, add(CFA_XSP16, literal(-10)))
          CFI (cfiCond179) V13 load(1, XDATA, add(CFA_XSP16, literal(-9)))
          CFI (cfiCond179) V14 load(1, XDATA, add(CFA_XSP16, literal(-8)))
          CFI (cfiCond179) V15 load(1, XDATA, add(CFA_XSP16, literal(-7)))
          CFI (cfiCond179) R7 load(1, XDATA, add(CFA_XSP16, literal(-6)))
          CFI (cfiCond179) ?RET_LOW load(1, XDATA, add(CFA_XSP16, literal(-5)))
          CFI (cfiCond179) ?RET_HIGH load(1, XDATA, add(CFA_XSP16, literal(-4)))
          CFI (cfiCond179) ?BRET_EXT load(1, XDATA, add(CFA_XSP16, literal(-3)))
          CFI (cfiCond179) DPL0 load(1, XDATA, add(CFA_XSP16, literal(-2)))
          CFI (cfiCond179) DPH0 load(1, XDATA, add(CFA_XSP16, literal(-1)))
          CFI (cfiCond179) CFA_SP SP+0
          CFI (cfiCond179) CFA_XSP16 add(XSP16, 33)
          CFI Block cfiCond180 Using cfiCommon0
          CFI (cfiCond180) Function hwLight_ApplyUpdate
          CFI (cfiCond180) Conditional ??CrossCallReturnLabel_94, ??CrossCallReturnLabel_92, ??CrossCallReturnLabel_84
          CFI (cfiCond180) R6 load(1, XDATA, add(CFA_XSP16, literal(-24)))
          CFI (cfiCond180) VB load(1, XDATA, add(CFA_XSP16, literal(-23)))
          CFI (cfiCond180) V0 load(1, XDATA, add(CFA_XSP16, literal(-22)))
          CFI (cfiCond180) V1 load(1, XDATA, add(CFA_XSP16, literal(-21)))
          CFI (cfiCond180) V2 load(1, XDATA, add(CFA_XSP16, literal(-20)))
          CFI (cfiCond180) V3 load(1, XDATA, add(CFA_XSP16, literal(-19)))
          CFI (cfiCond180) V4 load(1, XDATA, add(CFA_XSP16, literal(-18)))
          CFI (cfiCond180) V5 load(1, XDATA, add(CFA_XSP16, literal(-17)))
          CFI (cfiCond180) V6 load(1, XDATA, add(CFA_XSP16, literal(-16)))
          CFI (cfiCond180) V7 load(1, XDATA, add(CFA_XSP16, literal(-15)))
          CFI (cfiCond180) V8 load(1, XDATA, add(CFA_XSP16, literal(-14)))
          CFI (cfiCond180) V9 load(1, XDATA, add(CFA_XSP16, literal(-13)))
          CFI (cfiCond180) V10 load(1, XDATA, add(CFA_XSP16, literal(-12)))
          CFI (cfiCond180) V11 load(1, XDATA, add(CFA_XSP16, literal(-11)))
          CFI (cfiCond180) V12 load(1, XDATA, add(CFA_XSP16, literal(-10)))
          CFI (cfiCond180) V13 load(1, XDATA, add(CFA_XSP16, literal(-9)))
          CFI (cfiCond180) V14 load(1, XDATA, add(CFA_XSP16, literal(-8)))
          CFI (cfiCond180) V15 load(1, XDATA, add(CFA_XSP16, literal(-7)))
          CFI (cfiCond180) R7 load(1, XDATA, add(CFA_XSP16, literal(-6)))
          CFI (cfiCond180) ?RET_LOW load(1, XDATA, add(CFA_XSP16, literal(-5)))
          CFI (cfiCond180) ?RET_HIGH load(1, XDATA, add(CFA_XSP16, literal(-4)))
          CFI (cfiCond180) ?BRET_EXT load(1, XDATA, add(CFA_XSP16, literal(-3)))
          CFI (cfiCond180) DPL0 load(1, XDATA, add(CFA_XSP16, literal(-2)))
          CFI (cfiCond180) DPH0 load(1, XDATA, add(CFA_XSP16, literal(-1)))
          CFI (cfiCond180) CFA_SP SP+0
          CFI (cfiCond180) CFA_XSP16 add(XSP16, 29)
          CFI Block cfiCond181 Using cfiCommon0
          CFI (cfiCond181) Function hwLight_ApplyUpdate
          CFI (cfiCond181) Conditional ??CrossCallReturnLabel_93, ??CrossCallReturnLabel_43, ??CrossCallReturnLabel_11
          CFI (cfiCond181) R6 load(1, XDATA, add(CFA_XSP16, literal(-24)))
          CFI (cfiCond181) VB load(1, XDATA, add(CFA_XSP16, literal(-23)))
          CFI (cfiCond181) V0 load(1, XDATA, add(CFA_XSP16, literal(-22)))
          CFI (cfiCond181) V1 load(1, XDATA, add(CFA_XSP16, literal(-21)))
          CFI (cfiCond181) V2 load(1, XDATA, add(CFA_XSP16, literal(-20)))
          CFI (cfiCond181) V3 load(1, XDATA, add(CFA_XSP16, literal(-19)))
          CFI (cfiCond181) V4 load(1, XDATA, add(CFA_XSP16, literal(-18)))
          CFI (cfiCond181) V5 load(1, XDATA, add(CFA_XSP16, literal(-17)))
          CFI (cfiCond181) V6 load(1, XDATA, add(CFA_XSP16, literal(-16)))
          CFI (cfiCond181) V7 load(1, XDATA, add(CFA_XSP16, literal(-15)))
          CFI (cfiCond181) V8 load(1, XDATA, add(CFA_XSP16, literal(-14)))
          CFI (cfiCond181) V9 load(1, XDATA, add(CFA_XSP16, literal(-13)))
          CFI (cfiCond181) V10 load(1, XDATA, add(CFA_XSP16, literal(-12)))
          CFI (cfiCond181) V11 load(1, XDATA, add(CFA_XSP16, literal(-11)))
          CFI (cfiCond181) V12 load(1, XDATA, add(CFA_XSP16, literal(-10)))
          CFI (cfiCond181) V13 load(1, XDATA, add(CFA_XSP16, literal(-9)))
          CFI (cfiCond181) V14 load(1, XDATA, add(CFA_XSP16, literal(-8)))
          CFI (cfiCond181) V15 load(1, XDATA, add(CFA_XSP16, literal(-7)))
          CFI (cfiCond181) R7 load(1, XDATA, add(CFA_XSP16, literal(-6)))
          CFI (cfiCond181) ?RET_LOW load(1, XDATA, add(CFA_XSP16, literal(-5)))
          CFI (cfiCond181) ?RET_HIGH load(1, XDATA, add(CFA_XSP16, literal(-4)))
          CFI (cfiCond181) ?BRET_EXT load(1, XDATA, add(CFA_XSP16, literal(-3)))
          CFI (cfiCond181) DPL0 load(1, XDATA, add(CFA_XSP16, literal(-2)))
          CFI (cfiCond181) DPH0 load(1, XDATA, add(CFA_XSP16, literal(-1)))
          CFI (cfiCond181) CFA_SP SP+0
          CFI (cfiCond181) CFA_XSP16 add(XSP16, 29)
          CFI Block cfiCond182 Using cfiCommon0
          CFI (cfiCond182) Function hwLight_ApplyUpdate
          CFI (cfiCond182) Conditional ??CrossCallReturnLabel_93, ??CrossCallReturnLabel_43, ??CrossCallReturnLabel_12
          CFI (cfiCond182) R6 load(1, XDATA, add(CFA_XSP16, literal(-24)))
          CFI (cfiCond182) VB load(1, XDATA, add(CFA_XSP16, literal(-23)))
          CFI (cfiCond182) V0 load(1, XDATA, add(CFA_XSP16, literal(-22)))
          CFI (cfiCond182) V1 load(1, XDATA, add(CFA_XSP16, literal(-21)))
          CFI (cfiCond182) V2 load(1, XDATA, add(CFA_XSP16, literal(-20)))
          CFI (cfiCond182) V3 load(1, XDATA, add(CFA_XSP16, literal(-19)))
          CFI (cfiCond182) V4 load(1, XDATA, add(CFA_XSP16, literal(-18)))
          CFI (cfiCond182) V5 load(1, XDATA, add(CFA_XSP16, literal(-17)))
          CFI (cfiCond182) V6 load(1, XDATA, add(CFA_XSP16, literal(-16)))
          CFI (cfiCond182) V7 load(1, XDATA, add(CFA_XSP16, literal(-15)))
          CFI (cfiCond182) V8 load(1, XDATA, add(CFA_XSP16, literal(-14)))
          CFI (cfiCond182) V9 load(1, XDATA, add(CFA_XSP16, literal(-13)))
          CFI (cfiCond182) V10 load(1, XDATA, add(CFA_XSP16, literal(-12)))
          CFI (cfiCond182) V11 load(1, XDATA, add(CFA_XSP16, literal(-11)))
          CFI (cfiCond182) V12 load(1, XDATA, add(CFA_XSP16, literal(-10)))
          CFI (cfiCond182) V13 load(1, XDATA, add(CFA_XSP16, literal(-9)))
          CFI (cfiCond182) V14 load(1, XDATA, add(CFA_XSP16, literal(-8)))
          CFI (cfiCond182) V15 load(1, XDATA, add(CFA_XSP16, literal(-7)))
          CFI (cfiCond182) R7 load(1, XDATA, add(CFA_XSP16, literal(-6)))
          CFI (cfiCond182) ?RET_LOW load(1, XDATA, add(CFA_XSP16, literal(-5)))
          CFI (cfiCond182) ?RET_HIGH load(1, XDATA, add(CFA_XSP16, literal(-4)))
          CFI (cfiCond182) ?BRET_EXT load(1, XDATA, add(CFA_XSP16, literal(-3)))
          CFI (cfiCond182) DPL0 load(1, XDATA, add(CFA_XSP16, literal(-2)))
          CFI (cfiCond182) DPH0 load(1, XDATA, add(CFA_XSP16, literal(-1)))
          CFI (cfiCond182) CFA_SP SP+0
          CFI (cfiCond182) CFA_XSP16 add(XSP16, 29)
          CFI Block cfiCond183 Using cfiCommon0
          CFI (cfiCond183) Function hwLight_ApplyUpdate16b
          CFI (cfiCond183) Conditional ??CrossCallReturnLabel_93, ??CrossCallReturnLabel_42, ??CrossCallReturnLabel_9
          CFI (cfiCond183) R6 load(1, XDATA, add(CFA_XSP16, literal(-24)))
          CFI (cfiCond183) VB load(1, XDATA, add(CFA_XSP16, literal(-23)))
          CFI (cfiCond183) V0 load(1, XDATA, add(CFA_XSP16, literal(-22)))
          CFI (cfiCond183) V1 load(1, XDATA, add(CFA_XSP16, literal(-21)))
          CFI (cfiCond183) V2 load(1, XDATA, add(CFA_XSP16, literal(-20)))
          CFI (cfiCond183) V3 load(1, XDATA, add(CFA_XSP16, literal(-19)))
          CFI (cfiCond183) V4 load(1, XDATA, add(CFA_XSP16, literal(-18)))
          CFI (cfiCond183) V5 load(1, XDATA, add(CFA_XSP16, literal(-17)))
          CFI (cfiCond183) V6 load(1, XDATA, add(CFA_XSP16, literal(-16)))
          CFI (cfiCond183) V7 load(1, XDATA, add(CFA_XSP16, literal(-15)))
          CFI (cfiCond183) V8 load(1, XDATA, add(CFA_XSP16, literal(-14)))
          CFI (cfiCond183) V9 load(1, XDATA, add(CFA_XSP16, literal(-13)))
          CFI (cfiCond183) V10 load(1, XDATA, add(CFA_XSP16, literal(-12)))
          CFI (cfiCond183) V11 load(1, XDATA, add(CFA_XSP16, literal(-11)))
          CFI (cfiCond183) V12 load(1, XDATA, add(CFA_XSP16, literal(-10)))
          CFI (cfiCond183) V13 load(1, XDATA, add(CFA_XSP16, literal(-9)))
          CFI (cfiCond183) V14 load(1, XDATA, add(CFA_XSP16, literal(-8)))
          CFI (cfiCond183) V15 load(1, XDATA, add(CFA_XSP16, literal(-7)))
          CFI (cfiCond183) R7 load(1, XDATA, add(CFA_XSP16, literal(-6)))
          CFI (cfiCond183) ?RET_LOW load(1, XDATA, add(CFA_XSP16, literal(-5)))
          CFI (cfiCond183) ?RET_HIGH load(1, XDATA, add(CFA_XSP16, literal(-4)))
          CFI (cfiCond183) ?BRET_EXT load(1, XDATA, add(CFA_XSP16, literal(-3)))
          CFI (cfiCond183) DPL0 load(1, XDATA, add(CFA_XSP16, literal(-2)))
          CFI (cfiCond183) DPH0 load(1, XDATA, add(CFA_XSP16, literal(-1)))
          CFI (cfiCond183) CFA_SP SP+0
          CFI (cfiCond183) CFA_XSP16 add(XSP16, 33)
          CFI Block cfiCond184 Using cfiCommon0
          CFI (cfiCond184) Function hwLight_ApplyUpdate
          CFI (cfiCond184) Conditional ??CrossCallReturnLabel_93, ??CrossCallReturnLabel_42, ??CrossCallReturnLabel_10
          CFI (cfiCond184) R6 load(1, XDATA, add(CFA_XSP16, literal(-24)))
          CFI (cfiCond184) VB load(1, XDATA, add(CFA_XSP16, literal(-23)))
          CFI (cfiCond184) V0 load(1, XDATA, add(CFA_XSP16, literal(-22)))
          CFI (cfiCond184) V1 load(1, XDATA, add(CFA_XSP16, literal(-21)))
          CFI (cfiCond184) V2 load(1, XDATA, add(CFA_XSP16, literal(-20)))
          CFI (cfiCond184) V3 load(1, XDATA, add(CFA_XSP16, literal(-19)))
          CFI (cfiCond184) V4 load(1, XDATA, add(CFA_XSP16, literal(-18)))
          CFI (cfiCond184) V5 load(1, XDATA, add(CFA_XSP16, literal(-17)))
          CFI (cfiCond184) V6 load(1, XDATA, add(CFA_XSP16, literal(-16)))
          CFI (cfiCond184) V7 load(1, XDATA, add(CFA_XSP16, literal(-15)))
          CFI (cfiCond184) V8 load(1, XDATA, add(CFA_XSP16, literal(-14)))
          CFI (cfiCond184) V9 load(1, XDATA, add(CFA_XSP16, literal(-13)))
          CFI (cfiCond184) V10 load(1, XDATA, add(CFA_XSP16, literal(-12)))
          CFI (cfiCond184) V11 load(1, XDATA, add(CFA_XSP16, literal(-11)))
          CFI (cfiCond184) V12 load(1, XDATA, add(CFA_XSP16, literal(-10)))
          CFI (cfiCond184) V13 load(1, XDATA, add(CFA_XSP16, literal(-9)))
          CFI (cfiCond184) V14 load(1, XDATA, add(CFA_XSP16, literal(-8)))
          CFI (cfiCond184) V15 load(1, XDATA, add(CFA_XSP16, literal(-7)))
          CFI (cfiCond184) R7 load(1, XDATA, add(CFA_XSP16, literal(-6)))
          CFI (cfiCond184) ?RET_LOW load(1, XDATA, add(CFA_XSP16, literal(-5)))
          CFI (cfiCond184) ?RET_HIGH load(1, XDATA, add(CFA_XSP16, literal(-4)))
          CFI (cfiCond184) ?BRET_EXT load(1, XDATA, add(CFA_XSP16, literal(-3)))
          CFI (cfiCond184) DPL0 load(1, XDATA, add(CFA_XSP16, literal(-2)))
          CFI (cfiCond184) DPH0 load(1, XDATA, add(CFA_XSP16, literal(-1)))
          CFI (cfiCond184) CFA_SP SP+0
          CFI (cfiCond184) CFA_XSP16 add(XSP16, 29)
          CFI Block cfiPicker185 Using cfiCommon1
          CFI (cfiPicker185) NoFunction
          CFI (cfiPicker185) Picker
        MOVX    A,@DPTR
        MOV     R0,A
        INC     DPTR
        MOVX    A,@DPTR
        MOV     DPH,A
        MOV     DPL,R0
        RET
          CFI EndBlock cfiCond161
          CFI EndBlock cfiCond162
          CFI EndBlock cfiCond163
          CFI EndBlock cfiCond164
          CFI EndBlock cfiCond165
          CFI EndBlock cfiCond166
          CFI EndBlock cfiCond167
          CFI EndBlock cfiCond168
          CFI EndBlock cfiCond169
          CFI EndBlock cfiCond170
          CFI EndBlock cfiCond171
          CFI EndBlock cfiCond172
          CFI EndBlock cfiCond173
          CFI EndBlock cfiCond174
          CFI EndBlock cfiCond175
          CFI EndBlock cfiCond176
          CFI EndBlock cfiCond177
          CFI EndBlock cfiCond178
          CFI EndBlock cfiCond179
          CFI EndBlock cfiCond180
          CFI EndBlock cfiCond181
          CFI EndBlock cfiCond182
          CFI EndBlock cfiCond183
          CFI EndBlock cfiCond184
          CFI EndBlock cfiPicker185

        RSEG BANKED_CODE:CODE:NOROOT(0)
?Subroutine11:
          CFI Block cfiCond186 Using cfiCommon0
          CFI Function hwLight_ApplyUpdate
          CFI Conditional ??CrossCallReturnLabel_11
          CFI R6 load(1, XDATA, add(CFA_XSP16, literal(-24)))
          CFI VB load(1, XDATA, add(CFA_XSP16, literal(-23)))
          CFI V0 load(1, XDATA, add(CFA_XSP16, literal(-22)))
          CFI V1 load(1, XDATA, add(CFA_XSP16, literal(-21)))
          CFI V2 load(1, XDATA, add(CFA_XSP16, literal(-20)))
          CFI V3 load(1, XDATA, add(CFA_XSP16, literal(-19)))
          CFI V4 load(1, XDATA, add(CFA_XSP16, literal(-18)))
          CFI V5 load(1, XDATA, add(CFA_XSP16, literal(-17)))
          CFI V6 load(1, XDATA, add(CFA_XSP16, literal(-16)))
          CFI V7 load(1, XDATA, add(CFA_XSP16, literal(-15)))
          CFI V8 load(1, XDATA, add(CFA_XSP16, literal(-14)))
          CFI V9 load(1, XDATA, add(CFA_XSP16, literal(-13)))
          CFI V10 load(1, XDATA, add(CFA_XSP16, literal(-12)))
          CFI V11 load(1, XDATA, add(CFA_XSP16, literal(-11)))
          CFI V12 load(1, XDATA, add(CFA_XSP16, literal(-10)))
          CFI V13 load(1, XDATA, add(CFA_XSP16, literal(-9)))
          CFI V14 load(1, XDATA, add(CFA_XSP16, literal(-8)))
          CFI V15 load(1, XDATA, add(CFA_XSP16, literal(-7)))
          CFI R7 load(1, XDATA, add(CFA_XSP16, literal(-6)))
          CFI ?RET_LOW load(1, XDATA, add(CFA_XSP16, literal(-5)))
          CFI ?RET_HIGH load(1, XDATA, add(CFA_XSP16, literal(-4)))
          CFI ?BRET_EXT load(1, XDATA, add(CFA_XSP16, literal(-3)))
          CFI DPL0 load(1, XDATA, add(CFA_XSP16, literal(-2)))
          CFI DPH0 load(1, XDATA, add(CFA_XSP16, literal(-1)))
          CFI CFA_SP SP+0
          CFI CFA_XSP16 add(XSP16, 29)
          CFI Block cfiCond187 Using cfiCommon0
          CFI (cfiCond187) Function hwLight_ApplyUpdate
          CFI (cfiCond187) Conditional ??CrossCallReturnLabel_12
          CFI (cfiCond187) R6 load(1, XDATA, add(CFA_XSP16, literal(-24)))
          CFI (cfiCond187) VB load(1, XDATA, add(CFA_XSP16, literal(-23)))
          CFI (cfiCond187) V0 load(1, XDATA, add(CFA_XSP16, literal(-22)))
          CFI (cfiCond187) V1 load(1, XDATA, add(CFA_XSP16, literal(-21)))
          CFI (cfiCond187) V2 load(1, XDATA, add(CFA_XSP16, literal(-20)))
          CFI (cfiCond187) V3 load(1, XDATA, add(CFA_XSP16, literal(-19)))
          CFI (cfiCond187) V4 load(1, XDATA, add(CFA_XSP16, literal(-18)))
          CFI (cfiCond187) V5 load(1, XDATA, add(CFA_XSP16, literal(-17)))
          CFI (cfiCond187) V6 load(1, XDATA, add(CFA_XSP16, literal(-16)))
          CFI (cfiCond187) V7 load(1, XDATA, add(CFA_XSP16, literal(-15)))
          CFI (cfiCond187) V8 load(1, XDATA, add(CFA_XSP16, literal(-14)))
          CFI (cfiCond187) V9 load(1, XDATA, add(CFA_XSP16, literal(-13)))
          CFI (cfiCond187) V10 load(1, XDATA, add(CFA_XSP16, literal(-12)))
          CFI (cfiCond187) V11 load(1, XDATA, add(CFA_XSP16, literal(-11)))
          CFI (cfiCond187) V12 load(1, XDATA, add(CFA_XSP16, literal(-10)))
          CFI (cfiCond187) V13 load(1, XDATA, add(CFA_XSP16, literal(-9)))
          CFI (cfiCond187) V14 load(1, XDATA, add(CFA_XSP16, literal(-8)))
          CFI (cfiCond187) V15 load(1, XDATA, add(CFA_XSP16, literal(-7)))
          CFI (cfiCond187) R7 load(1, XDATA, add(CFA_XSP16, literal(-6)))
          CFI (cfiCond187) ?RET_LOW load(1, XDATA, add(CFA_XSP16, literal(-5)))
          CFI (cfiCond187) ?RET_HIGH load(1, XDATA, add(CFA_XSP16, literal(-4)))
          CFI (cfiCond187) ?BRET_EXT load(1, XDATA, add(CFA_XSP16, literal(-3)))
          CFI (cfiCond187) DPL0 load(1, XDATA, add(CFA_XSP16, literal(-2)))
          CFI (cfiCond187) DPH0 load(1, XDATA, add(CFA_XSP16, literal(-1)))
          CFI (cfiCond187) CFA_SP SP+0
          CFI (cfiCond187) CFA_XSP16 add(XSP16, 29)
          CFI Block cfiPicker188 Using cfiCommon1
          CFI (cfiPicker188) NoFunction
          CFI (cfiPicker188) Picker
        LCALL   ?Subroutine27 & 0xFFFF
??CrossCallReturnLabel_43:
        RET
          CFI EndBlock cfiCond186
          CFI EndBlock cfiCond187
          CFI EndBlock cfiPicker188

        RSEG BANKED_CODE:CODE:NOROOT(0)
?Subroutine27:
          CFI Block cfiCond189 Using cfiCommon0
          CFI Function hwLight_ApplyUpdate
          CFI Conditional ??CrossCallReturnLabel_43, ??CrossCallReturnLabel_11
          CFI R6 load(1, XDATA, add(CFA_XSP16, literal(-24)))
          CFI VB load(1, XDATA, add(CFA_XSP16, literal(-23)))
          CFI V0 load(1, XDATA, add(CFA_XSP16, literal(-22)))
          CFI V1 load(1, XDATA, add(CFA_XSP16, literal(-21)))
          CFI V2 load(1, XDATA, add(CFA_XSP16, literal(-20)))
          CFI V3 load(1, XDATA, add(CFA_XSP16, literal(-19)))
          CFI V4 load(1, XDATA, add(CFA_XSP16, literal(-18)))
          CFI V5 load(1, XDATA, add(CFA_XSP16, literal(-17)))
          CFI V6 load(1, XDATA, add(CFA_XSP16, literal(-16)))
          CFI V7 load(1, XDATA, add(CFA_XSP16, literal(-15)))
          CFI V8 load(1, XDATA, add(CFA_XSP16, literal(-14)))
          CFI V9 load(1, XDATA, add(CFA_XSP16, literal(-13)))
          CFI V10 load(1, XDATA, add(CFA_XSP16, literal(-12)))
          CFI V11 load(1, XDATA, add(CFA_XSP16, literal(-11)))
          CFI V12 load(1, XDATA, add(CFA_XSP16, literal(-10)))
          CFI V13 load(1, XDATA, add(CFA_XSP16, literal(-9)))
          CFI V14 load(1, XDATA, add(CFA_XSP16, literal(-8)))
          CFI V15 load(1, XDATA, add(CFA_XSP16, literal(-7)))
          CFI R7 load(1, XDATA, add(CFA_XSP16, literal(-6)))
          CFI ?RET_LOW load(1, XDATA, add(CFA_XSP16, literal(-5)))
          CFI ?RET_HIGH load(1, XDATA, add(CFA_XSP16, literal(-4)))
          CFI ?BRET_EXT load(1, XDATA, add(CFA_XSP16, literal(-3)))
          CFI DPL0 load(1, XDATA, add(CFA_XSP16, literal(-2)))
          CFI DPH0 load(1, XDATA, add(CFA_XSP16, literal(-1)))
          CFI CFA_SP SP+0
          CFI CFA_XSP16 add(XSP16, 29)
          CFI Block cfiCond190 Using cfiCommon0
          CFI (cfiCond190) Function hwLight_ApplyUpdate
          CFI (cfiCond190) Conditional ??CrossCallReturnLabel_43, ??CrossCallReturnLabel_12
          CFI (cfiCond190) R6 load(1, XDATA, add(CFA_XSP16, literal(-24)))
          CFI (cfiCond190) VB load(1, XDATA, add(CFA_XSP16, literal(-23)))
          CFI (cfiCond190) V0 load(1, XDATA, add(CFA_XSP16, literal(-22)))
          CFI (cfiCond190) V1 load(1, XDATA, add(CFA_XSP16, literal(-21)))
          CFI (cfiCond190) V2 load(1, XDATA, add(CFA_XSP16, literal(-20)))
          CFI (cfiCond190) V3 load(1, XDATA, add(CFA_XSP16, literal(-19)))
          CFI (cfiCond190) V4 load(1, XDATA, add(CFA_XSP16, literal(-18)))
          CFI (cfiCond190) V5 load(1, XDATA, add(CFA_XSP16, literal(-17)))
          CFI (cfiCond190) V6 load(1, XDATA, add(CFA_XSP16, literal(-16)))
          CFI (cfiCond190) V7 load(1, XDATA, add(CFA_XSP16, literal(-15)))
          CFI (cfiCond190) V8 load(1, XDATA, add(CFA_XSP16, literal(-14)))
          CFI (cfiCond190) V9 load(1, XDATA, add(CFA_XSP16, literal(-13)))
          CFI (cfiCond190) V10 load(1, XDATA, add(CFA_XSP16, literal(-12)))
          CFI (cfiCond190) V11 load(1, XDATA, add(CFA_XSP16, literal(-11)))
          CFI (cfiCond190) V12 load(1, XDATA, add(CFA_XSP16, literal(-10)))
          CFI (cfiCond190) V13 load(1, XDATA, add(CFA_XSP16, literal(-9)))
          CFI (cfiCond190) V14 load(1, XDATA, add(CFA_XSP16, literal(-8)))
          CFI (cfiCond190) V15 load(1, XDATA, add(CFA_XSP16, literal(-7)))
          CFI (cfiCond190) R7 load(1, XDATA, add(CFA_XSP16, literal(-6)))
          CFI (cfiCond190) ?RET_LOW load(1, XDATA, add(CFA_XSP16, literal(-5)))
          CFI (cfiCond190) ?RET_HIGH load(1, XDATA, add(CFA_XSP16, literal(-4)))
          CFI (cfiCond190) ?BRET_EXT load(1, XDATA, add(CFA_XSP16, literal(-3)))
          CFI (cfiCond190) DPL0 load(1, XDATA, add(CFA_XSP16, literal(-2)))
          CFI (cfiCond190) DPH0 load(1, XDATA, add(CFA_XSP16, literal(-1)))
          CFI (cfiCond190) CFA_SP SP+0
          CFI (cfiCond190) CFA_XSP16 add(XSP16, 29)
          CFI Block cfiCond191 Using cfiCommon0
          CFI (cfiCond191) Function hwLight_ApplyUpdate16b
          CFI (cfiCond191) Conditional ??CrossCallReturnLabel_42, ??CrossCallReturnLabel_9
          CFI (cfiCond191) R6 load(1, XDATA, add(CFA_XSP16, literal(-24)))
          CFI (cfiCond191) VB load(1, XDATA, add(CFA_XSP16, literal(-23)))
          CFI (cfiCond191) V0 load(1, XDATA, add(CFA_XSP16, literal(-22)))
          CFI (cfiCond191) V1 load(1, XDATA, add(CFA_XSP16, literal(-21)))
          CFI (cfiCond191) V2 load(1, XDATA, add(CFA_XSP16, literal(-20)))
          CFI (cfiCond191) V3 load(1, XDATA, add(CFA_XSP16, literal(-19)))
          CFI (cfiCond191) V4 load(1, XDATA, add(CFA_XSP16, literal(-18)))
          CFI (cfiCond191) V5 load(1, XDATA, add(CFA_XSP16, literal(-17)))
          CFI (cfiCond191) V6 load(1, XDATA, add(CFA_XSP16, literal(-16)))
          CFI (cfiCond191) V7 load(1, XDATA, add(CFA_XSP16, literal(-15)))
          CFI (cfiCond191) V8 load(1, XDATA, add(CFA_XSP16, literal(-14)))
          CFI (cfiCond191) V9 load(1, XDATA, add(CFA_XSP16, literal(-13)))
          CFI (cfiCond191) V10 load(1, XDATA, add(CFA_XSP16, literal(-12)))
          CFI (cfiCond191) V11 load(1, XDATA, add(CFA_XSP16, literal(-11)))
          CFI (cfiCond191) V12 load(1, XDATA, add(CFA_XSP16, literal(-10)))
          CFI (cfiCond191) V13 load(1, XDATA, add(CFA_XSP16, literal(-9)))
          CFI (cfiCond191) V14 load(1, XDATA, add(CFA_XSP16, literal(-8)))
          CFI (cfiCond191) V15 load(1, XDATA, add(CFA_XSP16, literal(-7)))
          CFI (cfiCond191) R7 load(1, XDATA, add(CFA_XSP16, literal(-6)))
          CFI (cfiCond191) ?RET_LOW load(1, XDATA, add(CFA_XSP16, literal(-5)))
          CFI (cfiCond191) ?RET_HIGH load(1, XDATA, add(CFA_XSP16, literal(-4)))
          CFI (cfiCond191) ?BRET_EXT load(1, XDATA, add(CFA_XSP16, literal(-3)))
          CFI (cfiCond191) DPL0 load(1, XDATA, add(CFA_XSP16, literal(-2)))
          CFI (cfiCond191) DPH0 load(1, XDATA, add(CFA_XSP16, literal(-1)))
          CFI (cfiCond191) CFA_SP SP+0
          CFI (cfiCond191) CFA_XSP16 add(XSP16, 33)
          CFI Block cfiCond192 Using cfiCommon0
          CFI (cfiCond192) Function hwLight_ApplyUpdate
          CFI (cfiCond192) Conditional ??CrossCallReturnLabel_42, ??CrossCallReturnLabel_10
          CFI (cfiCond192) R6 load(1, XDATA, add(CFA_XSP16, literal(-24)))
          CFI (cfiCond192) VB load(1, XDATA, add(CFA_XSP16, literal(-23)))
          CFI (cfiCond192) V0 load(1, XDATA, add(CFA_XSP16, literal(-22)))
          CFI (cfiCond192) V1 load(1, XDATA, add(CFA_XSP16, literal(-21)))
          CFI (cfiCond192) V2 load(1, XDATA, add(CFA_XSP16, literal(-20)))
          CFI (cfiCond192) V3 load(1, XDATA, add(CFA_XSP16, literal(-19)))
          CFI (cfiCond192) V4 load(1, XDATA, add(CFA_XSP16, literal(-18)))
          CFI (cfiCond192) V5 load(1, XDATA, add(CFA_XSP16, literal(-17)))
          CFI (cfiCond192) V6 load(1, XDATA, add(CFA_XSP16, literal(-16)))
          CFI (cfiCond192) V7 load(1, XDATA, add(CFA_XSP16, literal(-15)))
          CFI (cfiCond192) V8 load(1, XDATA, add(CFA_XSP16, literal(-14)))
          CFI (cfiCond192) V9 load(1, XDATA, add(CFA_XSP16, literal(-13)))
          CFI (cfiCond192) V10 load(1, XDATA, add(CFA_XSP16, literal(-12)))
          CFI (cfiCond192) V11 load(1, XDATA, add(CFA_XSP16, literal(-11)))
          CFI (cfiCond192) V12 load(1, XDATA, add(CFA_XSP16, literal(-10)))
          CFI (cfiCond192) V13 load(1, XDATA, add(CFA_XSP16, literal(-9)))
          CFI (cfiCond192) V14 load(1, XDATA, add(CFA_XSP16, literal(-8)))
          CFI (cfiCond192) V15 load(1, XDATA, add(CFA_XSP16, literal(-7)))
          CFI (cfiCond192) R7 load(1, XDATA, add(CFA_XSP16, literal(-6)))
          CFI (cfiCond192) ?RET_LOW load(1, XDATA, add(CFA_XSP16, literal(-5)))
          CFI (cfiCond192) ?RET_HIGH load(1, XDATA, add(CFA_XSP16, literal(-4)))
          CFI (cfiCond192) ?BRET_EXT load(1, XDATA, add(CFA_XSP16, literal(-3)))
          CFI (cfiCond192) DPL0 load(1, XDATA, add(CFA_XSP16, literal(-2)))
          CFI (cfiCond192) DPH0 load(1, XDATA, add(CFA_XSP16, literal(-1)))
          CFI (cfiCond192) CFA_SP SP+0
          CFI (cfiCond192) CFA_XSP16 add(XSP16, 29)
          CFI Block cfiPicker193 Using cfiCommon1
          CFI (cfiPicker193) NoFunction
          CFI (cfiPicker193) Picker
        LCALL   ?Subroutine32 & 0xFFFF
??CrossCallReturnLabel_93:
        CLR     A
        MOVX    @DPTR,A
        INC     DPTR
        RET
          CFI EndBlock cfiCond189
          CFI EndBlock cfiCond190
          CFI EndBlock cfiCond191
          CFI EndBlock cfiCond192
          CFI EndBlock cfiPicker193

        RSEG BANKED_CODE:CODE:NOROOT(0)
?Subroutine10:
          CFI Block cfiCond194 Using cfiCommon0
          CFI Function hwLight_ApplyUpdate16b
          CFI Conditional ??CrossCallReturnLabel_9
          CFI R6 load(1, XDATA, add(CFA_XSP16, literal(-24)))
          CFI VB load(1, XDATA, add(CFA_XSP16, literal(-23)))
          CFI V0 load(1, XDATA, add(CFA_XSP16, literal(-22)))
          CFI V1 load(1, XDATA, add(CFA_XSP16, literal(-21)))
          CFI V2 load(1, XDATA, add(CFA_XSP16, literal(-20)))
          CFI V3 load(1, XDATA, add(CFA_XSP16, literal(-19)))
          CFI V4 load(1, XDATA, add(CFA_XSP16, literal(-18)))
          CFI V5 load(1, XDATA, add(CFA_XSP16, literal(-17)))
          CFI V6 load(1, XDATA, add(CFA_XSP16, literal(-16)))
          CFI V7 load(1, XDATA, add(CFA_XSP16, literal(-15)))
          CFI V8 load(1, XDATA, add(CFA_XSP16, literal(-14)))
          CFI V9 load(1, XDATA, add(CFA_XSP16, literal(-13)))
          CFI V10 load(1, XDATA, add(CFA_XSP16, literal(-12)))
          CFI V11 load(1, XDATA, add(CFA_XSP16, literal(-11)))
          CFI V12 load(1, XDATA, add(CFA_XSP16, literal(-10)))
          CFI V13 load(1, XDATA, add(CFA_XSP16, literal(-9)))
          CFI V14 load(1, XDATA, add(CFA_XSP16, literal(-8)))
          CFI V15 load(1, XDATA, add(CFA_XSP16, literal(-7)))
          CFI R7 load(1, XDATA, add(CFA_XSP16, literal(-6)))
          CFI ?RET_LOW load(1, XDATA, add(CFA_XSP16, literal(-5)))
          CFI ?RET_HIGH load(1, XDATA, add(CFA_XSP16, literal(-4)))
          CFI ?BRET_EXT load(1, XDATA, add(CFA_XSP16, literal(-3)))
          CFI DPL0 load(1, XDATA, add(CFA_XSP16, literal(-2)))
          CFI DPH0 load(1, XDATA, add(CFA_XSP16, literal(-1)))
          CFI CFA_SP SP+0
          CFI CFA_XSP16 add(XSP16, 33)
          CFI Block cfiCond195 Using cfiCommon0
          CFI (cfiCond195) Function hwLight_ApplyUpdate
          CFI (cfiCond195) Conditional ??CrossCallReturnLabel_10
          CFI (cfiCond195) R6 load(1, XDATA, add(CFA_XSP16, literal(-24)))
          CFI (cfiCond195) VB load(1, XDATA, add(CFA_XSP16, literal(-23)))
          CFI (cfiCond195) V0 load(1, XDATA, add(CFA_XSP16, literal(-22)))
          CFI (cfiCond195) V1 load(1, XDATA, add(CFA_XSP16, literal(-21)))
          CFI (cfiCond195) V2 load(1, XDATA, add(CFA_XSP16, literal(-20)))
          CFI (cfiCond195) V3 load(1, XDATA, add(CFA_XSP16, literal(-19)))
          CFI (cfiCond195) V4 load(1, XDATA, add(CFA_XSP16, literal(-18)))
          CFI (cfiCond195) V5 load(1, XDATA, add(CFA_XSP16, literal(-17)))
          CFI (cfiCond195) V6 load(1, XDATA, add(CFA_XSP16, literal(-16)))
          CFI (cfiCond195) V7 load(1, XDATA, add(CFA_XSP16, literal(-15)))
          CFI (cfiCond195) V8 load(1, XDATA, add(CFA_XSP16, literal(-14)))
          CFI (cfiCond195) V9 load(1, XDATA, add(CFA_XSP16, literal(-13)))
          CFI (cfiCond195) V10 load(1, XDATA, add(CFA_XSP16, literal(-12)))
          CFI (cfiCond195) V11 load(1, XDATA, add(CFA_XSP16, literal(-11)))
          CFI (cfiCond195) V12 load(1, XDATA, add(CFA_XSP16, literal(-10)))
          CFI (cfiCond195) V13 load(1, XDATA, add(CFA_XSP16, literal(-9)))
          CFI (cfiCond195) V14 load(1, XDATA, add(CFA_XSP16, literal(-8)))
          CFI (cfiCond195) V15 load(1, XDATA, add(CFA_XSP16, literal(-7)))
          CFI (cfiCond195) R7 load(1, XDATA, add(CFA_XSP16, literal(-6)))
          CFI (cfiCond195) ?RET_LOW load(1, XDATA, add(CFA_XSP16, literal(-5)))
          CFI (cfiCond195) ?RET_HIGH load(1, XDATA, add(CFA_XSP16, literal(-4)))
          CFI (cfiCond195) ?BRET_EXT load(1, XDATA, add(CFA_XSP16, literal(-3)))
          CFI (cfiCond195) DPL0 load(1, XDATA, add(CFA_XSP16, literal(-2)))
          CFI (cfiCond195) DPH0 load(1, XDATA, add(CFA_XSP16, literal(-1)))
          CFI (cfiCond195) CFA_SP SP+0
          CFI (cfiCond195) CFA_XSP16 add(XSP16, 29)
          CFI Block cfiPicker196 Using cfiCommon1
          CFI (cfiPicker196) NoFunction
          CFI (cfiPicker196) Picker
        MOV     DPL,?XSP + 0
        MOV     DPH,?XSP + 1
        LCALL   ?Subroutine27 & 0xFFFF
??CrossCallReturnLabel_42:
        MOV     A,R3
        RET
          CFI EndBlock cfiCond194
          CFI EndBlock cfiCond195
          CFI EndBlock cfiPicker196

        RSEG BANKED_CODE:CODE:NOROOT(0)
?Subroutine9:
          CFI Block cfiCond197 Using cfiCommon0
          CFI Function hwLight_ApplyUpdate
          CFI Conditional ??CrossCallReturnLabel_6
          CFI R6 load(1, XDATA, add(CFA_XSP16, literal(-24)))
          CFI VB load(1, XDATA, add(CFA_XSP16, literal(-23)))
          CFI V0 load(1, XDATA, add(CFA_XSP16, literal(-22)))
          CFI V1 load(1, XDATA, add(CFA_XSP16, literal(-21)))
          CFI V2 load(1, XDATA, add(CFA_XSP16, literal(-20)))
          CFI V3 load(1, XDATA, add(CFA_XSP16, literal(-19)))
          CFI V4 load(1, XDATA, add(CFA_XSP16, literal(-18)))
          CFI V5 load(1, XDATA, add(CFA_XSP16, literal(-17)))
          CFI V6 load(1, XDATA, add(CFA_XSP16, literal(-16)))
          CFI V7 load(1, XDATA, add(CFA_XSP16, literal(-15)))
          CFI V8 load(1, XDATA, add(CFA_XSP16, literal(-14)))
          CFI V9 load(1, XDATA, add(CFA_XSP16, literal(-13)))
          CFI V10 load(1, XDATA, add(CFA_XSP16, literal(-12)))
          CFI V11 load(1, XDATA, add(CFA_XSP16, literal(-11)))
          CFI V12 load(1, XDATA, add(CFA_XSP16, literal(-10)))
          CFI V13 load(1, XDATA, add(CFA_XSP16, literal(-9)))
          CFI V14 load(1, XDATA, add(CFA_XSP16, literal(-8)))
          CFI V15 load(1, XDATA, add(CFA_XSP16, literal(-7)))
          CFI R7 load(1, XDATA, add(CFA_XSP16, literal(-6)))
          CFI ?RET_LOW load(1, XDATA, add(CFA_XSP16, literal(-5)))
          CFI ?RET_HIGH load(1, XDATA, add(CFA_XSP16, literal(-4)))
          CFI ?BRET_EXT load(1, XDATA, add(CFA_XSP16, literal(-3)))
          CFI DPL0 load(1, XDATA, add(CFA_XSP16, literal(-2)))
          CFI DPH0 load(1, XDATA, add(CFA_XSP16, literal(-1)))
          CFI CFA_SP SP+0
          CFI CFA_XSP16 add(XSP16, 29)
          CFI Block cfiCond198 Using cfiCommon0
          CFI (cfiCond198) Function hwLight_ApplyUpdate
          CFI (cfiCond198) Conditional ??CrossCallReturnLabel_7
          CFI (cfiCond198) R6 load(1, XDATA, add(CFA_XSP16, literal(-24)))
          CFI (cfiCond198) VB load(1, XDATA, add(CFA_XSP16, literal(-23)))
          CFI (cfiCond198) V0 load(1, XDATA, add(CFA_XSP16, literal(-22)))
          CFI (cfiCond198) V1 load(1, XDATA, add(CFA_XSP16, literal(-21)))
          CFI (cfiCond198) V2 load(1, XDATA, add(CFA_XSP16, literal(-20)))
          CFI (cfiCond198) V3 load(1, XDATA, add(CFA_XSP16, literal(-19)))
          CFI (cfiCond198) V4 load(1, XDATA, add(CFA_XSP16, literal(-18)))
          CFI (cfiCond198) V5 load(1, XDATA, add(CFA_XSP16, literal(-17)))
          CFI (cfiCond198) V6 load(1, XDATA, add(CFA_XSP16, literal(-16)))
          CFI (cfiCond198) V7 load(1, XDATA, add(CFA_XSP16, literal(-15)))
          CFI (cfiCond198) V8 load(1, XDATA, add(CFA_XSP16, literal(-14)))
          CFI (cfiCond198) V9 load(1, XDATA, add(CFA_XSP16, literal(-13)))
          CFI (cfiCond198) V10 load(1, XDATA, add(CFA_XSP16, literal(-12)))
          CFI (cfiCond198) V11 load(1, XDATA, add(CFA_XSP16, literal(-11)))
          CFI (cfiCond198) V12 load(1, XDATA, add(CFA_XSP16, literal(-10)))
          CFI (cfiCond198) V13 load(1, XDATA, add(CFA_XSP16, literal(-9)))
          CFI (cfiCond198) V14 load(1, XDATA, add(CFA_XSP16, literal(-8)))
          CFI (cfiCond198) V15 load(1, XDATA, add(CFA_XSP16, literal(-7)))
          CFI (cfiCond198) R7 load(1, XDATA, add(CFA_XSP16, literal(-6)))
          CFI (cfiCond198) ?RET_LOW load(1, XDATA, add(CFA_XSP16, literal(-5)))
          CFI (cfiCond198) ?RET_HIGH load(1, XDATA, add(CFA_XSP16, literal(-4)))
          CFI (cfiCond198) ?BRET_EXT load(1, XDATA, add(CFA_XSP16, literal(-3)))
          CFI (cfiCond198) DPL0 load(1, XDATA, add(CFA_XSP16, literal(-2)))
          CFI (cfiCond198) DPH0 load(1, XDATA, add(CFA_XSP16, literal(-1)))
          CFI (cfiCond198) CFA_SP SP+0
          CFI (cfiCond198) CFA_XSP16 add(XSP16, 29)
          CFI Block cfiCond199 Using cfiCommon0
          CFI (cfiCond199) Function hwLight_ApplyUpdate
          CFI (cfiCond199) Conditional ??CrossCallReturnLabel_8
          CFI (cfiCond199) R6 load(1, XDATA, add(CFA_XSP16, literal(-24)))
          CFI (cfiCond199) VB load(1, XDATA, add(CFA_XSP16, literal(-23)))
          CFI (cfiCond199) V0 load(1, XDATA, add(CFA_XSP16, literal(-22)))
          CFI (cfiCond199) V1 load(1, XDATA, add(CFA_XSP16, literal(-21)))
          CFI (cfiCond199) V2 load(1, XDATA, add(CFA_XSP16, literal(-20)))
          CFI (cfiCond199) V3 load(1, XDATA, add(CFA_XSP16, literal(-19)))
          CFI (cfiCond199) V4 load(1, XDATA, add(CFA_XSP16, literal(-18)))
          CFI (cfiCond199) V5 load(1, XDATA, add(CFA_XSP16, literal(-17)))
          CFI (cfiCond199) V6 load(1, XDATA, add(CFA_XSP16, literal(-16)))
          CFI (cfiCond199) V7 load(1, XDATA, add(CFA_XSP16, literal(-15)))
          CFI (cfiCond199) V8 load(1, XDATA, add(CFA_XSP16, literal(-14)))
          CFI (cfiCond199) V9 load(1, XDATA, add(CFA_XSP16, literal(-13)))
          CFI (cfiCond199) V10 load(1, XDATA, add(CFA_XSP16, literal(-12)))
          CFI (cfiCond199) V11 load(1, XDATA, add(CFA_XSP16, literal(-11)))
          CFI (cfiCond199) V12 load(1, XDATA, add(CFA_XSP16, literal(-10)))
          CFI (cfiCond199) V13 load(1, XDATA, add(CFA_XSP16, literal(-9)))
          CFI (cfiCond199) V14 load(1, XDATA, add(CFA_XSP16, literal(-8)))
          CFI (cfiCond199) V15 load(1, XDATA, add(CFA_XSP16, literal(-7)))
          CFI (cfiCond199) R7 load(1, XDATA, add(CFA_XSP16, literal(-6)))
          CFI (cfiCond199) ?RET_LOW load(1, XDATA, add(CFA_XSP16, literal(-5)))
          CFI (cfiCond199) ?RET_HIGH load(1, XDATA, add(CFA_XSP16, literal(-4)))
          CFI (cfiCond199) ?BRET_EXT load(1, XDATA, add(CFA_XSP16, literal(-3)))
          CFI (cfiCond199) DPL0 load(1, XDATA, add(CFA_XSP16, literal(-2)))
          CFI (cfiCond199) DPH0 load(1, XDATA, add(CFA_XSP16, literal(-1)))
          CFI (cfiCond199) CFA_SP SP+0
          CFI (cfiCond199) CFA_XSP16 add(XSP16, 29)
          CFI Block cfiPicker200 Using cfiCommon1
          CFI (cfiPicker200) NoFunction
          CFI (cfiPicker200) Picker
        MOV     DPL,?XSP + 0
        MOV     DPH,?XSP + 1
        MOVX    A,@DPTR
        MOV     R2,A
        INC     DPTR
        MOVX    A,@DPTR
        MOV     DPH,A
        MOV     DPL,R2
        RET
          CFI EndBlock cfiCond197
          CFI EndBlock cfiCond198
          CFI EndBlock cfiCond199
          CFI EndBlock cfiPicker200

        RSEG BANKED_CODE:CODE:NOROOT(0)
?Subroutine5:
          CFI Block cfiCond201 Using cfiCommon0
          CFI Function hwLight_ApplyUpdate16b
          CFI Conditional ??CrossCallReturnLabel_0
          CFI R6 load(1, XDATA, add(CFA_XSP16, literal(-24)))
          CFI VB load(1, XDATA, add(CFA_XSP16, literal(-23)))
          CFI V0 load(1, XDATA, add(CFA_XSP16, literal(-22)))
          CFI V1 load(1, XDATA, add(CFA_XSP16, literal(-21)))
          CFI V2 load(1, XDATA, add(CFA_XSP16, literal(-20)))
          CFI V3 load(1, XDATA, add(CFA_XSP16, literal(-19)))
          CFI V4 load(1, XDATA, add(CFA_XSP16, literal(-18)))
          CFI V5 load(1, XDATA, add(CFA_XSP16, literal(-17)))
          CFI V6 load(1, XDATA, add(CFA_XSP16, literal(-16)))
          CFI V7 load(1, XDATA, add(CFA_XSP16, literal(-15)))
          CFI V8 load(1, XDATA, add(CFA_XSP16, literal(-14)))
          CFI V9 load(1, XDATA, add(CFA_XSP16, literal(-13)))
          CFI V10 load(1, XDATA, add(CFA_XSP16, literal(-12)))
          CFI V11 load(1, XDATA, add(CFA_XSP16, literal(-11)))
          CFI V12 load(1, XDATA, add(CFA_XSP16, literal(-10)))
          CFI V13 load(1, XDATA, add(CFA_XSP16, literal(-9)))
          CFI V14 load(1, XDATA, add(CFA_XSP16, literal(-8)))
          CFI V15 load(1, XDATA, add(CFA_XSP16, literal(-7)))
          CFI R7 load(1, XDATA, add(CFA_XSP16, literal(-6)))
          CFI ?RET_LOW load(1, XDATA, add(CFA_XSP16, literal(-5)))
          CFI ?RET_HIGH load(1, XDATA, add(CFA_XSP16, literal(-4)))
          CFI ?BRET_EXT load(1, XDATA, add(CFA_XSP16, literal(-3)))
          CFI DPL0 load(1, XDATA, add(CFA_XSP16, literal(-2)))
          CFI DPH0 load(1, XDATA, add(CFA_XSP16, literal(-1)))
          CFI CFA_SP SP+0
          CFI CFA_XSP16 add(XSP16, 33)
          CFI Block cfiCond202 Using cfiCommon0
          CFI (cfiCond202) Function hwLight_ApplyUpdate
          CFI (cfiCond202) Conditional ??CrossCallReturnLabel_1
          CFI (cfiCond202) R6 load(1, XDATA, add(CFA_XSP16, literal(-24)))
          CFI (cfiCond202) VB load(1, XDATA, add(CFA_XSP16, literal(-23)))
          CFI (cfiCond202) V0 load(1, XDATA, add(CFA_XSP16, literal(-22)))
          CFI (cfiCond202) V1 load(1, XDATA, add(CFA_XSP16, literal(-21)))
          CFI (cfiCond202) V2 load(1, XDATA, add(CFA_XSP16, literal(-20)))
          CFI (cfiCond202) V3 load(1, XDATA, add(CFA_XSP16, literal(-19)))
          CFI (cfiCond202) V4 load(1, XDATA, add(CFA_XSP16, literal(-18)))
          CFI (cfiCond202) V5 load(1, XDATA, add(CFA_XSP16, literal(-17)))
          CFI (cfiCond202) V6 load(1, XDATA, add(CFA_XSP16, literal(-16)))
          CFI (cfiCond202) V7 load(1, XDATA, add(CFA_XSP16, literal(-15)))
          CFI (cfiCond202) V8 load(1, XDATA, add(CFA_XSP16, literal(-14)))
          CFI (cfiCond202) V9 load(1, XDATA, add(CFA_XSP16, literal(-13)))
          CFI (cfiCond202) V10 load(1, XDATA, add(CFA_XSP16, literal(-12)))
          CFI (cfiCond202) V11 load(1, XDATA, add(CFA_XSP16, literal(-11)))
          CFI (cfiCond202) V12 load(1, XDATA, add(CFA_XSP16, literal(-10)))
          CFI (cfiCond202) V13 load(1, XDATA, add(CFA_XSP16, literal(-9)))
          CFI (cfiCond202) V14 load(1, XDATA, add(CFA_XSP16, literal(-8)))
          CFI (cfiCond202) V15 load(1, XDATA, add(CFA_XSP16, literal(-7)))
          CFI (cfiCond202) R7 load(1, XDATA, add(CFA_XSP16, literal(-6)))
          CFI (cfiCond202) ?RET_LOW load(1, XDATA, add(CFA_XSP16, literal(-5)))
          CFI (cfiCond202) ?RET_HIGH load(1, XDATA, add(CFA_XSP16, literal(-4)))
          CFI (cfiCond202) ?BRET_EXT load(1, XDATA, add(CFA_XSP16, literal(-3)))
          CFI (cfiCond202) DPL0 load(1, XDATA, add(CFA_XSP16, literal(-2)))
          CFI (cfiCond202) DPH0 load(1, XDATA, add(CFA_XSP16, literal(-1)))
          CFI (cfiCond202) CFA_SP SP+0
          CFI (cfiCond202) CFA_XSP16 add(XSP16, 29)
          CFI Block cfiPicker203 Using cfiCommon1
          CFI (cfiPicker203) NoFunction
          CFI (cfiPicker203) Picker
        LCALL   ?Subroutine26 & 0xFFFF
??CrossCallReturnLabel_39:
        MOV     DPL,R0
        MOV     DPH,R1
        MOVX    A,@DPTR
        MOV     R2,A
        INC     DPTR
        MOVX    A,@DPTR
        MOV     R3,A
        MOV     A,R2
        ORL     A,R3
        RET
          CFI EndBlock cfiCond201
          CFI EndBlock cfiCond202
          CFI EndBlock cfiPicker203

        RSEG BANKED_CODE:CODE:NOROOT(0)
?Subroutine3:
          CFI Block cfiCond204 Using cfiCommon0
          CFI Function hwLight_ApplyUpdate
          CFI Conditional ??CrossCallReturnLabel_85
          CFI R6 load(1, XDATA, add(CFA_XSP16, literal(-24)))
          CFI VB load(1, XDATA, add(CFA_XSP16, literal(-23)))
          CFI V0 load(1, XDATA, add(CFA_XSP16, literal(-22)))
          CFI V1 load(1, XDATA, add(CFA_XSP16, literal(-21)))
          CFI V2 load(1, XDATA, add(CFA_XSP16, literal(-20)))
          CFI V3 load(1, XDATA, add(CFA_XSP16, literal(-19)))
          CFI V4 load(1, XDATA, add(CFA_XSP16, literal(-18)))
          CFI V5 load(1, XDATA, add(CFA_XSP16, literal(-17)))
          CFI V6 load(1, XDATA, add(CFA_XSP16, literal(-16)))
          CFI V7 load(1, XDATA, add(CFA_XSP16, literal(-15)))
          CFI V8 load(1, XDATA, add(CFA_XSP16, literal(-14)))
          CFI V9 load(1, XDATA, add(CFA_XSP16, literal(-13)))
          CFI V10 load(1, XDATA, add(CFA_XSP16, literal(-12)))
          CFI V11 load(1, XDATA, add(CFA_XSP16, literal(-11)))
          CFI V12 load(1, XDATA, add(CFA_XSP16, literal(-10)))
          CFI V13 load(1, XDATA, add(CFA_XSP16, literal(-9)))
          CFI V14 load(1, XDATA, add(CFA_XSP16, literal(-8)))
          CFI V15 load(1, XDATA, add(CFA_XSP16, literal(-7)))
          CFI R7 load(1, XDATA, add(CFA_XSP16, literal(-6)))
          CFI ?RET_LOW load(1, XDATA, add(CFA_XSP16, literal(-5)))
          CFI ?RET_HIGH load(1, XDATA, add(CFA_XSP16, literal(-4)))
          CFI ?BRET_EXT load(1, XDATA, add(CFA_XSP16, literal(-3)))
          CFI DPL0 load(1, XDATA, add(CFA_XSP16, literal(-2)))
          CFI DPH0 load(1, XDATA, add(CFA_XSP16, literal(-1)))
          CFI CFA_SP SP+0
          CFI CFA_XSP16 add(XSP16, 29)
          CFI Block cfiCond205 Using cfiCommon0
          CFI (cfiCond205) Function hwLight_ApplyUpdate
          CFI (cfiCond205) Conditional ??CrossCallReturnLabel_86
          CFI (cfiCond205) R6 load(1, XDATA, add(CFA_XSP16, literal(-24)))
          CFI (cfiCond205) VB load(1, XDATA, add(CFA_XSP16, literal(-23)))
          CFI (cfiCond205) V0 load(1, XDATA, add(CFA_XSP16, literal(-22)))
          CFI (cfiCond205) V1 load(1, XDATA, add(CFA_XSP16, literal(-21)))
          CFI (cfiCond205) V2 load(1, XDATA, add(CFA_XSP16, literal(-20)))
          CFI (cfiCond205) V3 load(1, XDATA, add(CFA_XSP16, literal(-19)))
          CFI (cfiCond205) V4 load(1, XDATA, add(CFA_XSP16, literal(-18)))
          CFI (cfiCond205) V5 load(1, XDATA, add(CFA_XSP16, literal(-17)))
          CFI (cfiCond205) V6 load(1, XDATA, add(CFA_XSP16, literal(-16)))
          CFI (cfiCond205) V7 load(1, XDATA, add(CFA_XSP16, literal(-15)))
          CFI (cfiCond205) V8 load(1, XDATA, add(CFA_XSP16, literal(-14)))
          CFI (cfiCond205) V9 load(1, XDATA, add(CFA_XSP16, literal(-13)))
          CFI (cfiCond205) V10 load(1, XDATA, add(CFA_XSP16, literal(-12)))
          CFI (cfiCond205) V11 load(1, XDATA, add(CFA_XSP16, literal(-11)))
          CFI (cfiCond205) V12 load(1, XDATA, add(CFA_XSP16, literal(-10)))
          CFI (cfiCond205) V13 load(1, XDATA, add(CFA_XSP16, literal(-9)))
          CFI (cfiCond205) V14 load(1, XDATA, add(CFA_XSP16, literal(-8)))
          CFI (cfiCond205) V15 load(1, XDATA, add(CFA_XSP16, literal(-7)))
          CFI (cfiCond205) R7 load(1, XDATA, add(CFA_XSP16, literal(-6)))
          CFI (cfiCond205) ?RET_LOW load(1, XDATA, add(CFA_XSP16, literal(-5)))
          CFI (cfiCond205) ?RET_HIGH load(1, XDATA, add(CFA_XSP16, literal(-4)))
          CFI (cfiCond205) ?BRET_EXT load(1, XDATA, add(CFA_XSP16, literal(-3)))
          CFI (cfiCond205) DPL0 load(1, XDATA, add(CFA_XSP16, literal(-2)))
          CFI (cfiCond205) DPH0 load(1, XDATA, add(CFA_XSP16, literal(-1)))
          CFI (cfiCond205) CFA_SP SP+0
          CFI (cfiCond205) CFA_XSP16 add(XSP16, 29)
          CFI Block cfiCond206 Using cfiCommon0
          CFI (cfiCond206) Function hwLight_ApplyUpdate
          CFI (cfiCond206) Conditional ??CrossCallReturnLabel_87
          CFI (cfiCond206) R6 load(1, XDATA, add(CFA_XSP16, literal(-24)))
          CFI (cfiCond206) VB load(1, XDATA, add(CFA_XSP16, literal(-23)))
          CFI (cfiCond206) V0 load(1, XDATA, add(CFA_XSP16, literal(-22)))
          CFI (cfiCond206) V1 load(1, XDATA, add(CFA_XSP16, literal(-21)))
          CFI (cfiCond206) V2 load(1, XDATA, add(CFA_XSP16, literal(-20)))
          CFI (cfiCond206) V3 load(1, XDATA, add(CFA_XSP16, literal(-19)))
          CFI (cfiCond206) V4 load(1, XDATA, add(CFA_XSP16, literal(-18)))
          CFI (cfiCond206) V5 load(1, XDATA, add(CFA_XSP16, literal(-17)))
          CFI (cfiCond206) V6 load(1, XDATA, add(CFA_XSP16, literal(-16)))
          CFI (cfiCond206) V7 load(1, XDATA, add(CFA_XSP16, literal(-15)))
          CFI (cfiCond206) V8 load(1, XDATA, add(CFA_XSP16, literal(-14)))
          CFI (cfiCond206) V9 load(1, XDATA, add(CFA_XSP16, literal(-13)))
          CFI (cfiCond206) V10 load(1, XDATA, add(CFA_XSP16, literal(-12)))
          CFI (cfiCond206) V11 load(1, XDATA, add(CFA_XSP16, literal(-11)))
          CFI (cfiCond206) V12 load(1, XDATA, add(CFA_XSP16, literal(-10)))
          CFI (cfiCond206) V13 load(1, XDATA, add(CFA_XSP16, literal(-9)))
          CFI (cfiCond206) V14 load(1, XDATA, add(CFA_XSP16, literal(-8)))
          CFI (cfiCond206) V15 load(1, XDATA, add(CFA_XSP16, literal(-7)))
          CFI (cfiCond206) R7 load(1, XDATA, add(CFA_XSP16, literal(-6)))
          CFI (cfiCond206) ?RET_LOW load(1, XDATA, add(CFA_XSP16, literal(-5)))
          CFI (cfiCond206) ?RET_HIGH load(1, XDATA, add(CFA_XSP16, literal(-4)))
          CFI (cfiCond206) ?BRET_EXT load(1, XDATA, add(CFA_XSP16, literal(-3)))
          CFI (cfiCond206) DPL0 load(1, XDATA, add(CFA_XSP16, literal(-2)))
          CFI (cfiCond206) DPH0 load(1, XDATA, add(CFA_XSP16, literal(-1)))
          CFI (cfiCond206) CFA_SP SP+0
          CFI (cfiCond206) CFA_XSP16 add(XSP16, 29)
          CFI Block cfiCond207 Using cfiCommon0
          CFI (cfiCond207) Function hwLight_ApplyUpdate
          CFI (cfiCond207) Conditional ??CrossCallReturnLabel_88
          CFI (cfiCond207) R6 load(1, XDATA, add(CFA_XSP16, literal(-24)))
          CFI (cfiCond207) VB load(1, XDATA, add(CFA_XSP16, literal(-23)))
          CFI (cfiCond207) V0 load(1, XDATA, add(CFA_XSP16, literal(-22)))
          CFI (cfiCond207) V1 load(1, XDATA, add(CFA_XSP16, literal(-21)))
          CFI (cfiCond207) V2 load(1, XDATA, add(CFA_XSP16, literal(-20)))
          CFI (cfiCond207) V3 load(1, XDATA, add(CFA_XSP16, literal(-19)))
          CFI (cfiCond207) V4 load(1, XDATA, add(CFA_XSP16, literal(-18)))
          CFI (cfiCond207) V5 load(1, XDATA, add(CFA_XSP16, literal(-17)))
          CFI (cfiCond207) V6 load(1, XDATA, add(CFA_XSP16, literal(-16)))
          CFI (cfiCond207) V7 load(1, XDATA, add(CFA_XSP16, literal(-15)))
          CFI (cfiCond207) V8 load(1, XDATA, add(CFA_XSP16, literal(-14)))
          CFI (cfiCond207) V9 load(1, XDATA, add(CFA_XSP16, literal(-13)))
          CFI (cfiCond207) V10 load(1, XDATA, add(CFA_XSP16, literal(-12)))
          CFI (cfiCond207) V11 load(1, XDATA, add(CFA_XSP16, literal(-11)))
          CFI (cfiCond207) V12 load(1, XDATA, add(CFA_XSP16, literal(-10)))
          CFI (cfiCond207) V13 load(1, XDATA, add(CFA_XSP16, literal(-9)))
          CFI (cfiCond207) V14 load(1, XDATA, add(CFA_XSP16, literal(-8)))
          CFI (cfiCond207) V15 load(1, XDATA, add(CFA_XSP16, literal(-7)))
          CFI (cfiCond207) R7 load(1, XDATA, add(CFA_XSP16, literal(-6)))
          CFI (cfiCond207) ?RET_LOW load(1, XDATA, add(CFA_XSP16, literal(-5)))
          CFI (cfiCond207) ?RET_HIGH load(1, XDATA, add(CFA_XSP16, literal(-4)))
          CFI (cfiCond207) ?BRET_EXT load(1, XDATA, add(CFA_XSP16, literal(-3)))
          CFI (cfiCond207) DPL0 load(1, XDATA, add(CFA_XSP16, literal(-2)))
          CFI (cfiCond207) DPH0 load(1, XDATA, add(CFA_XSP16, literal(-1)))
          CFI (cfiCond207) CFA_SP SP+0
          CFI (cfiCond207) CFA_XSP16 add(XSP16, 29)
          CFI Block cfiPicker208 Using cfiCommon1
          CFI (cfiPicker208) NoFunction
          CFI (cfiPicker208) Picker
        MOV     DPL,?XSP + 0
        MOV     DPH,?XSP + 1
          CFI EndBlock cfiCond204
          CFI EndBlock cfiCond205
          CFI EndBlock cfiCond206
          CFI EndBlock cfiCond207
          CFI EndBlock cfiPicker208
        REQUIRE ??Subroutine39_0
        ; // Fall through to label ??Subroutine39_0

        RSEG BANKED_CODE:CODE:NOROOT(0)
??Subroutine39_0:
          CFI Block cfiCond209 Using cfiCommon0
          CFI Function hwLight_ApplyUpdate16b
          CFI Conditional ??CrossCallReturnLabel_83
          CFI R6 load(1, XDATA, add(CFA_XSP16, literal(-24)))
          CFI VB load(1, XDATA, add(CFA_XSP16, literal(-23)))
          CFI V0 load(1, XDATA, add(CFA_XSP16, literal(-22)))
          CFI V1 load(1, XDATA, add(CFA_XSP16, literal(-21)))
          CFI V2 load(1, XDATA, add(CFA_XSP16, literal(-20)))
          CFI V3 load(1, XDATA, add(CFA_XSP16, literal(-19)))
          CFI V4 load(1, XDATA, add(CFA_XSP16, literal(-18)))
          CFI V5 load(1, XDATA, add(CFA_XSP16, literal(-17)))
          CFI V6 load(1, XDATA, add(CFA_XSP16, literal(-16)))
          CFI V7 load(1, XDATA, add(CFA_XSP16, literal(-15)))
          CFI V8 load(1, XDATA, add(CFA_XSP16, literal(-14)))
          CFI V9 load(1, XDATA, add(CFA_XSP16, literal(-13)))
          CFI V10 load(1, XDATA, add(CFA_XSP16, literal(-12)))
          CFI V11 load(1, XDATA, add(CFA_XSP16, literal(-11)))
          CFI V12 load(1, XDATA, add(CFA_XSP16, literal(-10)))
          CFI V13 load(1, XDATA, add(CFA_XSP16, literal(-9)))
          CFI V14 load(1, XDATA, add(CFA_XSP16, literal(-8)))
          CFI V15 load(1, XDATA, add(CFA_XSP16, literal(-7)))
          CFI R7 load(1, XDATA, add(CFA_XSP16, literal(-6)))
          CFI ?RET_LOW load(1, XDATA, add(CFA_XSP16, literal(-5)))
          CFI ?RET_HIGH load(1, XDATA, add(CFA_XSP16, literal(-4)))
          CFI ?BRET_EXT load(1, XDATA, add(CFA_XSP16, literal(-3)))
          CFI DPL0 load(1, XDATA, add(CFA_XSP16, literal(-2)))
          CFI DPH0 load(1, XDATA, add(CFA_XSP16, literal(-1)))
          CFI CFA_SP SP+0
          CFI CFA_XSP16 add(XSP16, 33)
          CFI Block cfiCond210 Using cfiCommon0
          CFI (cfiCond210) Function hwLight_ApplyUpdate
          CFI (cfiCond210) Conditional ??CrossCallReturnLabel_84
          CFI (cfiCond210) R6 load(1, XDATA, add(CFA_XSP16, literal(-24)))
          CFI (cfiCond210) VB load(1, XDATA, add(CFA_XSP16, literal(-23)))
          CFI (cfiCond210) V0 load(1, XDATA, add(CFA_XSP16, literal(-22)))
          CFI (cfiCond210) V1 load(1, XDATA, add(CFA_XSP16, literal(-21)))
          CFI (cfiCond210) V2 load(1, XDATA, add(CFA_XSP16, literal(-20)))
          CFI (cfiCond210) V3 load(1, XDATA, add(CFA_XSP16, literal(-19)))
          CFI (cfiCond210) V4 load(1, XDATA, add(CFA_XSP16, literal(-18)))
          CFI (cfiCond210) V5 load(1, XDATA, add(CFA_XSP16, literal(-17)))
          CFI (cfiCond210) V6 load(1, XDATA, add(CFA_XSP16, literal(-16)))
          CFI (cfiCond210) V7 load(1, XDATA, add(CFA_XSP16, literal(-15)))
          CFI (cfiCond210) V8 load(1, XDATA, add(CFA_XSP16, literal(-14)))
          CFI (cfiCond210) V9 load(1, XDATA, add(CFA_XSP16, literal(-13)))
          CFI (cfiCond210) V10 load(1, XDATA, add(CFA_XSP16, literal(-12)))
          CFI (cfiCond210) V11 load(1, XDATA, add(CFA_XSP16, literal(-11)))
          CFI (cfiCond210) V12 load(1, XDATA, add(CFA_XSP16, literal(-10)))
          CFI (cfiCond210) V13 load(1, XDATA, add(CFA_XSP16, literal(-9)))
          CFI (cfiCond210) V14 load(1, XDATA, add(CFA_XSP16, literal(-8)))
          CFI (cfiCond210) V15 load(1, XDATA, add(CFA_XSP16, literal(-7)))
          CFI (cfiCond210) R7 load(1, XDATA, add(CFA_XSP16, literal(-6)))
          CFI (cfiCond210) ?RET_LOW load(1, XDATA, add(CFA_XSP16, literal(-5)))
          CFI (cfiCond210) ?RET_HIGH load(1, XDATA, add(CFA_XSP16, literal(-4)))
          CFI (cfiCond210) ?BRET_EXT load(1, XDATA, add(CFA_XSP16, literal(-3)))
          CFI (cfiCond210) DPL0 load(1, XDATA, add(CFA_XSP16, literal(-2)))
          CFI (cfiCond210) DPH0 load(1, XDATA, add(CFA_XSP16, literal(-1)))
          CFI (cfiCond210) CFA_SP SP+0
          CFI (cfiCond210) CFA_XSP16 add(XSP16, 29)
          CFI Block cfiCond211 Using cfiCommon0
          CFI (cfiCond211) Function hwLight_ApplyUpdate
          CFI (cfiCond211) Conditional ??CrossCallReturnLabel_85
          CFI (cfiCond211) R6 load(1, XDATA, add(CFA_XSP16, literal(-24)))
          CFI (cfiCond211) VB load(1, XDATA, add(CFA_XSP16, literal(-23)))
          CFI (cfiCond211) V0 load(1, XDATA, add(CFA_XSP16, literal(-22)))
          CFI (cfiCond211) V1 load(1, XDATA, add(CFA_XSP16, literal(-21)))
          CFI (cfiCond211) V2 load(1, XDATA, add(CFA_XSP16, literal(-20)))
          CFI (cfiCond211) V3 load(1, XDATA, add(CFA_XSP16, literal(-19)))
          CFI (cfiCond211) V4 load(1, XDATA, add(CFA_XSP16, literal(-18)))
          CFI (cfiCond211) V5 load(1, XDATA, add(CFA_XSP16, literal(-17)))
          CFI (cfiCond211) V6 load(1, XDATA, add(CFA_XSP16, literal(-16)))
          CFI (cfiCond211) V7 load(1, XDATA, add(CFA_XSP16, literal(-15)))
          CFI (cfiCond211) V8 load(1, XDATA, add(CFA_XSP16, literal(-14)))
          CFI (cfiCond211) V9 load(1, XDATA, add(CFA_XSP16, literal(-13)))
          CFI (cfiCond211) V10 load(1, XDATA, add(CFA_XSP16, literal(-12)))
          CFI (cfiCond211) V11 load(1, XDATA, add(CFA_XSP16, literal(-11)))
          CFI (cfiCond211) V12 load(1, XDATA, add(CFA_XSP16, literal(-10)))
          CFI (cfiCond211) V13 load(1, XDATA, add(CFA_XSP16, literal(-9)))
          CFI (cfiCond211) V14 load(1, XDATA, add(CFA_XSP16, literal(-8)))
          CFI (cfiCond211) V15 load(1, XDATA, add(CFA_XSP16, literal(-7)))
          CFI (cfiCond211) R7 load(1, XDATA, add(CFA_XSP16, literal(-6)))
          CFI (cfiCond211) ?RET_LOW load(1, XDATA, add(CFA_XSP16, literal(-5)))
          CFI (cfiCond211) ?RET_HIGH load(1, XDATA, add(CFA_XSP16, literal(-4)))
          CFI (cfiCond211) ?BRET_EXT load(1, XDATA, add(CFA_XSP16, literal(-3)))
          CFI (cfiCond211) DPL0 load(1, XDATA, add(CFA_XSP16, literal(-2)))
          CFI (cfiCond211) DPH0 load(1, XDATA, add(CFA_XSP16, literal(-1)))
          CFI (cfiCond211) CFA_SP SP+0
          CFI (cfiCond211) CFA_XSP16 add(XSP16, 29)
          CFI Block cfiCond212 Using cfiCommon0
          CFI (cfiCond212) Function hwLight_ApplyUpdate
          CFI (cfiCond212) Conditional ??CrossCallReturnLabel_86
          CFI (cfiCond212) R6 load(1, XDATA, add(CFA_XSP16, literal(-24)))
          CFI (cfiCond212) VB load(1, XDATA, add(CFA_XSP16, literal(-23)))
          CFI (cfiCond212) V0 load(1, XDATA, add(CFA_XSP16, literal(-22)))
          CFI (cfiCond212) V1 load(1, XDATA, add(CFA_XSP16, literal(-21)))
          CFI (cfiCond212) V2 load(1, XDATA, add(CFA_XSP16, literal(-20)))
          CFI (cfiCond212) V3 load(1, XDATA, add(CFA_XSP16, literal(-19)))
          CFI (cfiCond212) V4 load(1, XDATA, add(CFA_XSP16, literal(-18)))
          CFI (cfiCond212) V5 load(1, XDATA, add(CFA_XSP16, literal(-17)))
          CFI (cfiCond212) V6 load(1, XDATA, add(CFA_XSP16, literal(-16)))
          CFI (cfiCond212) V7 load(1, XDATA, add(CFA_XSP16, literal(-15)))
          CFI (cfiCond212) V8 load(1, XDATA, add(CFA_XSP16, literal(-14)))
          CFI (cfiCond212) V9 load(1, XDATA, add(CFA_XSP16, literal(-13)))
          CFI (cfiCond212) V10 load(1, XDATA, add(CFA_XSP16, literal(-12)))
          CFI (cfiCond212) V11 load(1, XDATA, add(CFA_XSP16, literal(-11)))
          CFI (cfiCond212) V12 load(1, XDATA, add(CFA_XSP16, literal(-10)))
          CFI (cfiCond212) V13 load(1, XDATA, add(CFA_XSP16, literal(-9)))
          CFI (cfiCond212) V14 load(1, XDATA, add(CFA_XSP16, literal(-8)))
          CFI (cfiCond212) V15 load(1, XDATA, add(CFA_XSP16, literal(-7)))
          CFI (cfiCond212) R7 load(1, XDATA, add(CFA_XSP16, literal(-6)))
          CFI (cfiCond212) ?RET_LOW load(1, XDATA, add(CFA_XSP16, literal(-5)))
          CFI (cfiCond212) ?RET_HIGH load(1, XDATA, add(CFA_XSP16, literal(-4)))
          CFI (cfiCond212) ?BRET_EXT load(1, XDATA, add(CFA_XSP16, literal(-3)))
          CFI (cfiCond212) DPL0 load(1, XDATA, add(CFA_XSP16, literal(-2)))
          CFI (cfiCond212) DPH0 load(1, XDATA, add(CFA_XSP16, literal(-1)))
          CFI (cfiCond212) CFA_SP SP+0
          CFI (cfiCond212) CFA_XSP16 add(XSP16, 29)
          CFI Block cfiCond213 Using cfiCommon0
          CFI (cfiCond213) Function hwLight_ApplyUpdate
          CFI (cfiCond213) Conditional ??CrossCallReturnLabel_87
          CFI (cfiCond213) R6 load(1, XDATA, add(CFA_XSP16, literal(-24)))
          CFI (cfiCond213) VB load(1, XDATA, add(CFA_XSP16, literal(-23)))
          CFI (cfiCond213) V0 load(1, XDATA, add(CFA_XSP16, literal(-22)))
          CFI (cfiCond213) V1 load(1, XDATA, add(CFA_XSP16, literal(-21)))
          CFI (cfiCond213) V2 load(1, XDATA, add(CFA_XSP16, literal(-20)))
          CFI (cfiCond213) V3 load(1, XDATA, add(CFA_XSP16, literal(-19)))
          CFI (cfiCond213) V4 load(1, XDATA, add(CFA_XSP16, literal(-18)))
          CFI (cfiCond213) V5 load(1, XDATA, add(CFA_XSP16, literal(-17)))
          CFI (cfiCond213) V6 load(1, XDATA, add(CFA_XSP16, literal(-16)))
          CFI (cfiCond213) V7 load(1, XDATA, add(CFA_XSP16, literal(-15)))
          CFI (cfiCond213) V8 load(1, XDATA, add(CFA_XSP16, literal(-14)))
          CFI (cfiCond213) V9 load(1, XDATA, add(CFA_XSP16, literal(-13)))
          CFI (cfiCond213) V10 load(1, XDATA, add(CFA_XSP16, literal(-12)))
          CFI (cfiCond213) V11 load(1, XDATA, add(CFA_XSP16, literal(-11)))
          CFI (cfiCond213) V12 load(1, XDATA, add(CFA_XSP16, literal(-10)))
          CFI (cfiCond213) V13 load(1, XDATA, add(CFA_XSP16, literal(-9)))
          CFI (cfiCond213) V14 load(1, XDATA, add(CFA_XSP16, literal(-8)))
          CFI (cfiCond213) V15 load(1, XDATA, add(CFA_XSP16, literal(-7)))
          CFI (cfiCond213) R7 load(1, XDATA, add(CFA_XSP16, literal(-6)))
          CFI (cfiCond213) ?RET_LOW load(1, XDATA, add(CFA_XSP16, literal(-5)))
          CFI (cfiCond213) ?RET_HIGH load(1, XDATA, add(CFA_XSP16, literal(-4)))
          CFI (cfiCond213) ?BRET_EXT load(1, XDATA, add(CFA_XSP16, literal(-3)))
          CFI (cfiCond213) DPL0 load(1, XDATA, add(CFA_XSP16, literal(-2)))
          CFI (cfiCond213) DPH0 load(1, XDATA, add(CFA_XSP16, literal(-1)))
          CFI (cfiCond213) CFA_SP SP+0
          CFI (cfiCond213) CFA_XSP16 add(XSP16, 29)
          CFI Block cfiCond214 Using cfiCommon0
          CFI (cfiCond214) Function hwLight_ApplyUpdate
          CFI (cfiCond214) Conditional ??CrossCallReturnLabel_88
          CFI (cfiCond214) R6 load(1, XDATA, add(CFA_XSP16, literal(-24)))
          CFI (cfiCond214) VB load(1, XDATA, add(CFA_XSP16, literal(-23)))
          CFI (cfiCond214) V0 load(1, XDATA, add(CFA_XSP16, literal(-22)))
          CFI (cfiCond214) V1 load(1, XDATA, add(CFA_XSP16, literal(-21)))
          CFI (cfiCond214) V2 load(1, XDATA, add(CFA_XSP16, literal(-20)))
          CFI (cfiCond214) V3 load(1, XDATA, add(CFA_XSP16, literal(-19)))
          CFI (cfiCond214) V4 load(1, XDATA, add(CFA_XSP16, literal(-18)))
          CFI (cfiCond214) V5 load(1, XDATA, add(CFA_XSP16, literal(-17)))
          CFI (cfiCond214) V6 load(1, XDATA, add(CFA_XSP16, literal(-16)))
          CFI (cfiCond214) V7 load(1, XDATA, add(CFA_XSP16, literal(-15)))
          CFI (cfiCond214) V8 load(1, XDATA, add(CFA_XSP16, literal(-14)))
          CFI (cfiCond214) V9 load(1, XDATA, add(CFA_XSP16, literal(-13)))
          CFI (cfiCond214) V10 load(1, XDATA, add(CFA_XSP16, literal(-12)))
          CFI (cfiCond214) V11 load(1, XDATA, add(CFA_XSP16, literal(-11)))
          CFI (cfiCond214) V12 load(1, XDATA, add(CFA_XSP16, literal(-10)))
          CFI (cfiCond214) V13 load(1, XDATA, add(CFA_XSP16, literal(-9)))
          CFI (cfiCond214) V14 load(1, XDATA, add(CFA_XSP16, literal(-8)))
          CFI (cfiCond214) V15 load(1, XDATA, add(CFA_XSP16, literal(-7)))
          CFI (cfiCond214) R7 load(1, XDATA, add(CFA_XSP16, literal(-6)))
          CFI (cfiCond214) ?RET_LOW load(1, XDATA, add(CFA_XSP16, literal(-5)))
          CFI (cfiCond214) ?RET_HIGH load(1, XDATA, add(CFA_XSP16, literal(-4)))
          CFI (cfiCond214) ?BRET_EXT load(1, XDATA, add(CFA_XSP16, literal(-3)))
          CFI (cfiCond214) DPL0 load(1, XDATA, add(CFA_XSP16, literal(-2)))
          CFI (cfiCond214) DPH0 load(1, XDATA, add(CFA_XSP16, literal(-1)))
          CFI (cfiCond214) CFA_SP SP+0
          CFI (cfiCond214) CFA_XSP16 add(XSP16, 29)
          CFI Block cfiPicker215 Using cfiCommon1
          CFI (cfiPicker215) NoFunction
          CFI (cfiPicker215) Picker
        LCALL   ?Subroutine28 & 0xFFFF
??CrossCallReturnLabel_92:
        MOVX    A,@DPTR
        RET
          CFI EndBlock cfiCond209
          CFI EndBlock cfiCond210
          CFI EndBlock cfiCond211
          CFI EndBlock cfiCond212
          CFI EndBlock cfiCond213
          CFI EndBlock cfiCond214
          CFI EndBlock cfiPicker215
//  738 
//  739 /*********************************************************************
//  740  * @fn      hwLight_Refresh
//  741  *
//  742  * @brief   Refresh the light output with the updated attributes values.
//  743  *          Could be set to be bypassed, to allow temporary output manipulation
//  744  *          by effects.
//  745  *
//  746  * @param   refreshState - REFRESH_AUTO, REFRESH_BYPASS or REFRESH_RESUME
//  747  *
//  748  * @return  none
//  749  */

        RSEG BANKED_CODE:CODE:NOROOT(0)
//  750 void hwLight_Refresh( uint8 refreshState )
hwLight_Refresh:
          CFI Block cfiBlock216 Using cfiCommon0
          CFI Function hwLight_Refresh
        CODE
//  751 {
        FUNCALL hwLight_Refresh, hwLight_UpdateColorMode
        LOCFRAME ISTACK, 0, STACK
        LOCFRAME PSTACK, 0, STACK
        LOCFRAME XSTACK, 9, STACK
        LOCFRAME IOVERLAY, 0, STATIC
        LOCFRAME DOVERLAY, 0, STATIC
        ARGFRAME ISTACK, 0, STACK
        ARGFRAME PSTACK, 0, STACK
        ARGFRAME XSTACK, 9, STACK
        ARGFRAME IOVERLAY, 0, STATIC
        ARGFRAME DOVERLAY, 0, STATIC
        FUNCALL hwLight_Refresh, hwLight_UpdateColorMode
        LOCFRAME ISTACK, 0, STACK
        LOCFRAME PSTACK, 0, STACK
        LOCFRAME XSTACK, 9, STACK
        LOCFRAME IOVERLAY, 0, STATIC
        LOCFRAME DOVERLAY, 0, STATIC
        ARGFRAME ISTACK, 0, STACK
        ARGFRAME PSTACK, 0, STACK
        ARGFRAME XSTACK, 9, STACK
        ARGFRAME IOVERLAY, 0, STATIC
        ARGFRAME DOVERLAY, 0, STATIC
        FUNCALL hwLight_Refresh, hwLight_UpdateLampColor
        LOCFRAME ISTACK, 0, STACK
        LOCFRAME PSTACK, 0, STACK
        LOCFRAME XSTACK, 9, STACK
        LOCFRAME IOVERLAY, 0, STATIC
        LOCFRAME DOVERLAY, 0, STATIC
        ARGFRAME ISTACK, 0, STACK
        ARGFRAME PSTACK, 0, STACK
        ARGFRAME XSTACK, 9, STACK
        ARGFRAME IOVERLAY, 0, STATIC
        ARGFRAME DOVERLAY, 0, STATIC
        FUNCALL hwLight_Refresh, hwLight_UpdateLampColorHueSat
        LOCFRAME ISTACK, 0, STACK
        LOCFRAME PSTACK, 0, STACK
        LOCFRAME XSTACK, 9, STACK
        LOCFRAME IOVERLAY, 0, STATIC
        LOCFRAME DOVERLAY, 0, STATIC
        ARGFRAME ISTACK, 0, STACK
        ARGFRAME PSTACK, 0, STACK
        ARGFRAME XSTACK, 9, STACK
        ARGFRAME IOVERLAY, 0, STATIC
        ARGFRAME DOVERLAY, 0, STATIC
        FUNCALL hwLight_Refresh, hwLight_UpdateLampColorHueSat
        LOCFRAME ISTACK, 0, STACK
        LOCFRAME PSTACK, 0, STACK
        LOCFRAME XSTACK, 9, STACK
        LOCFRAME IOVERLAY, 0, STATIC
        LOCFRAME DOVERLAY, 0, STATIC
        ARGFRAME ISTACK, 0, STACK
        ARGFRAME PSTACK, 0, STACK
        ARGFRAME XSTACK, 9, STACK
        ARGFRAME IOVERLAY, 0, STATIC
        ARGFRAME DOVERLAY, 0, STATIC
        FUNCALL hwLight_Refresh, hwLight_UpdateOnOff
        LOCFRAME ISTACK, 0, STACK
        LOCFRAME PSTACK, 0, STACK
        LOCFRAME XSTACK, 9, STACK
        LOCFRAME IOVERLAY, 0, STATIC
        LOCFRAME DOVERLAY, 0, STATIC
        ARGFRAME ISTACK, 0, STACK
        ARGFRAME PSTACK, 0, STACK
        ARGFRAME XSTACK, 9, STACK
        ARGFRAME IOVERLAY, 0, STATIC
        ARGFRAME DOVERLAY, 0, STATIC
        MOV     A,#-0x9
        LCALL   ?BANKED_ENTER_XDATA
          CFI DPH0 load(1, XDATA, add(CFA_XSP16, literal(-1)))
          CFI DPL0 load(1, XDATA, add(CFA_XSP16, literal(-2)))
          CFI ?BRET_EXT load(1, XDATA, add(CFA_XSP16, literal(-3)))
          CFI ?RET_HIGH load(1, XDATA, add(CFA_XSP16, literal(-4)))
          CFI ?RET_LOW load(1, XDATA, add(CFA_XSP16, literal(-5)))
          CFI R7 load(1, XDATA, add(CFA_XSP16, literal(-6)))
          CFI V0 load(1, XDATA, add(CFA_XSP16, literal(-7)))
          CFI VB load(1, XDATA, add(CFA_XSP16, literal(-8)))
          CFI R6 load(1, XDATA, add(CFA_XSP16, literal(-9)))
          CFI CFA_SP SP+0
          CFI CFA_XSP16 add(XSP16, 9)
        ; Saved register size: 9
        ; Auto size: 0
        MOV     A,R1
        MOV     R6,A
//  752   static bool dont_refresh = FALSE;
//  753   if ( refreshState == REFRESH_BYPASS )
        MOV     A,#0x1
        XRL     A,R6
        JNZ     ??hwLight_Refresh_0
//  754   {
//  755     dont_refresh = TRUE;
        MOV     DPTR,#??dont_refresh
        MOV     A,#0x1
        MOVX    @DPTR,A
        SJMP    ??hwLight_Refresh_1
//  756   }
//  757   else if ( refreshState == REFRESH_RESUME )
??hwLight_Refresh_0:
        MOV     A,#0x2
        XRL     A,R6
        MOV     DPTR,#??dont_refresh
        JNZ     ??hwLight_Refresh_2
//  758   {
//  759     dont_refresh = FALSE;
        CLR     A
        MOVX    @DPTR,A
        SJMP    ??hwLight_Refresh_3
//  760   }
//  761   if ( dont_refresh )
??hwLight_Refresh_2:
        MOVX    A,@DPTR
        JNZ     ??hwLight_Refresh_1
//  762   {
//  763     return;
//  764   }
//  765 #ifdef ZCL_COLOR_CTRL
//  766   //Update the xy/color attribute. Even though we are not using the color mode
//  767   //the attr needs to be correct
//  768   if(zclColor_ColorMode == COLOR_MODE_CURRENT_X_Y)
??hwLight_Refresh_3:
        MOV     DPTR,#zclColor_ColorMode
        MOVX    A,@DPTR
        XRL     A,#0x1
        JNZ     ??hwLight_Refresh_4
//  769   {
//  770     hwLight_UpdateColorMode(COLOR_MODE_CURRENT_HUE_SATURATION);
        ; Setup parameters for call to function hwLight_UpdateColorMode
        MOV     R1,#0x0
        SJMP    ??hwLight_Refresh_5
//  771   }
//  772   else
//  773   {
//  774     hwLight_UpdateColorMode(COLOR_MODE_CURRENT_X_Y);
??hwLight_Refresh_4:
        ; Setup parameters for call to function hwLight_UpdateColorMode
        MOV     R1,#0x1
??hwLight_Refresh_5:
        LCALL   ??hwLight_UpdateColorMode?relay
//  775   }
//  776   hwLight_UpdateColor();
        MOV     DPTR,#zclColor_ColorMode
        MOVX    A,@DPTR
        XRL     A,#0x1
        JNZ     ??hwLight_Refresh_6
        ; Setup parameters for call to function hwLight_UpdateLampColor
        MOV     DPTR,#zclLevel_CurrentLevel
        MOVX    A,@DPTR
        MOV     R1,A
        LCALL   ?Subroutine6 & 0xFFFF
??CrossCallReturnLabel_64:
        LCALL   ??hwLight_UpdateLampColor?relay
        SJMP    ??hwLight_Refresh_7
??hwLight_Refresh_6:
        MOV     DPTR,#zclColor_EnhancedColorMode
        MOVX    A,@DPTR
        XRL     A,#0x3
        JNZ     ??hwLight_Refresh_8
        MOV     DPTR,#zclColor_EnhancedCurrentHue + 1
        MOVX    A,@DPTR
        MOV     DPTR,#zclColor_CurrentHue
        MOVX    @DPTR,A
        CPL     A
        JNZ     ??hwLight_Refresh_9
        MOV     A,#-0x2
        MOVX    @DPTR,A
??hwLight_Refresh_9:
        ; Setup parameters for call to function hwLight_UpdateLampColorHueSat
        MOV     DPTR,#zclLevel_CurrentLevel
        MOVX    A,@DPTR
        MOV     R3,A
        MOV     DPTR,#zclColor_CurrentSaturation
        MOVX    A,@DPTR
        MOV     R2,A
        MOV     DPTR,#zclColor_CurrentHue
        MOVX    A,@DPTR
        MOV     R1,A
        SJMP    ??hwLight_Refresh_10
??hwLight_Refresh_8:
        MOV     DPTR,#zclColor_CurrentHue
        MOVX    A,@DPTR
        LCALL   ?Subroutine21 & 0xFFFF
??CrossCallReturnLabel_74:
        ; Setup parameters for call to function hwLight_UpdateLampColorHueSat
        MOV     DPTR,#zclLevel_CurrentLevel
        MOVX    A,@DPTR
        MOV     R3,A
        MOV     DPTR,#zclColor_CurrentSaturation
        MOVX    A,@DPTR
        MOV     R2,A
??hwLight_Refresh_10:
        LCALL   ??hwLight_UpdateLampColorHueSat?relay
//  777 #else //ZCL_COLOR_CTRL
//  778 #ifdef ZCL_LEVEL_CTRL
//  779   hwLight_UpdateLevel( zclLevel_CurrentLevel );
//  780 #endif //ZCL_LEVEL_CTRL
//  781 #endif //ZCL_COLOR_CTRL
//  782   hwLight_UpdateOnOff( zllSampleLight_OnOff );
??hwLight_Refresh_7:
        ; Setup parameters for call to function hwLight_UpdateOnOff
        MOV     DPTR,#zllSampleLight_OnOff
        MOVX    A,@DPTR
        MOV     R1,A
        LCALL   ??hwLight_UpdateOnOff?relay
//  783 }
??hwLight_Refresh_1:
        LJMP    ?Subroutine1 & 0xFFFF
          CFI EndBlock cfiBlock216

        RSEG XDATA_Z:XDATA:NOROOT(0)
        DATA8
??dont_refresh:
        DS 1
        REQUIRE __INIT_XDATA_Z

        RSEG XDATA_ROM_C:CONST:REORDER:NOROOT(0)
        DATA32
__Constant_3ec8c8c9:
        DD 3EC8C8C9H

        RSEG XDATA_ROM_C:CONST:REORDER:NOROOT(0)
        DATA32
__Constant_477fff00:
        DD 477FFF00H

        RSEG XDATA_ROM_C:CONST:REORDER:NOROOT(0)
        DATA32
__Constant_437e0000:
        DD 437E0000H

        RSEG XDATA_ROM_C:CONST:REORDER:NOROOT(0)
        DATA32
__Constant_0:
        DD 0H

        RSEG XDATA_ROM_C:CONST:REORDER:NOROOT(0)
        DATA32
__Constant_42be1811:
        DD 42BE1811H

        RSEG XDATA_ROM_C:CONST:REORDER:NOROOT(0)
        DATA32
__Constant_42d9c41a:
        DD 42D9C41AH

        RSEG XDATA_ROM_C:CONST:REORDER:NOROOT(0)
        DATA32
__Constant_bf800000:
        DD 0BF800000H

        RSEG XDATA_ROM_C:CONST:REORDER:NOROOT(0)
        DATA32
__Constant_42c80000:
        DD 42C80000H

        RSEG XDATA_ROM_C:CONST:REORDER:NOROOT(0)
        DATA32
__Constant_42c80001:
        DD 42C80001H

        RSEG XDATA_ROM_C:CONST:REORDER:NOROOT(0)
        DATA32
__Constant_404f65fe:
        DD 404F65FEH

        RSEG XDATA_ROM_C:CONST:REORDER:NOROOT(0)
        DATA32
__Constant_bfc4c2f8:
        DD 0BFC4C2F8H

        RSEG XDATA_ROM_C:CONST:REORDER:NOROOT(0)
        DATA32
__Constant_beff4880:
        DD 0BEFF4880H

        RSEG XDATA_ROM_C:CONST:REORDER:NOROOT(0)
        DATA32
__Constant_bf7809d5:
        DD 0BF7809D5H

        RSEG XDATA_ROM_C:CONST:REORDER:NOROOT(0)
        DATA32
__Constant_3ff01a37:
        DD 3FF01A37H

        RSEG XDATA_ROM_C:CONST:REORDER:NOROOT(0)
        DATA32
__Constant_3d29fbe7:
        DD 3D29FBE7H

        RSEG XDATA_ROM_C:CONST:REORDER:NOROOT(0)
        DATA32
__Constant_3d6425af:
        DD 3D6425AFH

        RSEG XDATA_ROM_C:CONST:REORDER:NOROOT(0)
        DATA32
__Constant_be50e560:
        DD 0BE50E560H

        RSEG XDATA_ROM_C:CONST:REORDER:NOROOT(0)
        DATA32
__Constant_3f874bc7:
        DD 3F874BC7H

        RSEG XDATA_ROM_C:CONST:REORDER:NOROOT(0)
        DATA32
__Constant_3b449ba7:
        DD 3B449BA7H

        RSEG XDATA_ROM_C:CONST:REORDER:NOROOT(0)
        DATA32
__Constant_3f2aaaab:
        DD 3F2AAAABH

        RSEG XDATA_ROM_C:CONST:REORDER:NOROOT(0)
        DATA32
__Constant_3f9c28f6:
        DD 3F9C28F6H

        RSEG XDATA_ROM_C:CONST:REORDER:NOROOT(0)
        DATA32
__Constant_bd23d70a:
        DD 0BD23D70AH

        RSEG XDATA_ROM_C:CONST:REORDER:NOROOT(0)
        DATA32
__Constant_3f8b851f:
        DD 3F8B851FH

        RSEG XDATA_ROM_C:CONST:REORDER:NOROOT(0)
        DATA32
__Constant_bd4ccccd:
        DD 0BD4CCCCDH

        RSEG XDATA_ROM_C:CONST:REORDER:NOROOT(0)
        DATA32
__Constant_3f800001:
        DD 3F800001H

        RSEG XDATA_ROM_C:CONST:REORDER:NOROOT(0)
        DATA32
__Constant_447a0000:
        DD 447A0000H

        RSEG XDATA_ROM_C:CONST:REORDER:NOROOT(0)
        DATA32
__Constant_ffffaaab:
        DD -21845

        RSEG XDATA_ROM_C:CONST:REORDER:NOROOT(0)
        DATA32
__Constant_ffffb000:
        DD -20480

        RSEG XDATA_ROM_C:CONST:REORDER:NOROOT(0)
        DATA32
__Constant_437f0000:
        DD 437F0000H

        RSEG XDATA_ROM_C:CONST:REORDER:NOROOT(0)
        DATA32
__Constant_fe:
        DD 254

        RSEG XDATA_ROM_C:CONST:REORDER:NOROOT(0)
        DATA32
__Constant_1:
        DD 1

        RSEG XDATA_ROM_C:CONST:REORDER:NOROOT(0)
        DATA32
__Constant_100:
        DD 256

        RSEG XDATA_ROM_C:CONST:REORDER:NOROOT(0)
        DATA32
__Constant_ffffff00:
        DD 4294967040

        RSEG XDATA_ROM_C:CONST:REORDER:NOROOT(0)
        DATA32
__Constant_7f:
        DD 127

        RSEG BANK_RELAYS:CODE:REORDER:NOROOT(0)
??hwLight_UpdateLampColor?relay:
        CODE
        LCALL   ?BDISPATCH
        DATA24
        DC24    hwLight_UpdateLampColor

        RSEG BANK_RELAYS:CODE:REORDER:NOROOT(0)
??hwLight_Convert_xyY_to_RGB?relay:
        CODE
        LCALL   ?BDISPATCH
        DATA24
        DC24    hwLight_Convert_xyY_to_RGB

        RSEG BANK_RELAYS:CODE:REORDER:NOROOT(0)
??hwLight_RGB_to_RGBW?relay:
        CODE
        LCALL   ?BDISPATCH
        DATA24
        DC24    hwLight_RGB_to_RGBW

        RSEG BANK_RELAYS:CODE:REORDER:NOROOT(0)
??hwLight_UpdateLampColorHueSat?relay:
        CODE
        LCALL   ?BDISPATCH
        DATA24
        DC24    hwLight_UpdateLampColorHueSat

        RSEG BANK_RELAYS:CODE:REORDER:NOROOT(0)
??hwLight_satToXy?relay:
        CODE
        LCALL   ?BDISPATCH
        DATA24
        DC24    hwLight_satToXy

        RSEG BANK_RELAYS:CODE:REORDER:NOROOT(0)
??hwLight_XyToSat?relay:
        CODE
        LCALL   ?BDISPATCH
        DATA24
        DC24    hwLight_XyToSat

        RSEG BANK_RELAYS:CODE:REORDER:NOROOT(0)
??hwLight_UpdateColorMode?relay:
        CODE
        LCALL   ?BDISPATCH
        DATA24
        DC24    hwLight_UpdateColorMode

        RSEG BANK_RELAYS:CODE:REORDER:NOROOT(0)
??hwLight_ApplyUpdate16b?relay:
        CODE
        LCALL   ?BDISPATCH
        DATA24
        DC24    hwLight_ApplyUpdate16b

        RSEG BANK_RELAYS:CODE:REORDER:NOROOT(0)
??hwLight_UpdateOnOff?relay:
        CODE
        LCALL   ?BDISPATCH
        DATA24
        DC24    hwLight_UpdateOnOff

        RSEG BANK_RELAYS:CODE:REORDER:NOROOT(0)
??hwLight_ApplyUpdate?relay:
        CODE
        LCALL   ?BDISPATCH
        DATA24
        DC24    hwLight_ApplyUpdate

        RSEG BANK_RELAYS:CODE:REORDER:NOROOT(0)
??hwLight_Refresh?relay:
        CODE
        LCALL   ?BDISPATCH
        DATA24
        DC24    hwLight_Refresh

        END
//  784 
//  785 /****************************************************************************
//  786 ****************************************************************************/
//  787 
//  788 
// 
// 4 558 bytes in segment BANKED_CODE
//    66 bytes in segment BANK_RELAYS
// 1 024 bytes in segment CODE_C
//     2 bytes in segment SFR_AN
//   136 bytes in segment XDATA_ROM_C
//     1 byte  in segment XDATA_Z
// 
// 5 648 bytes of CODE  memory
//     0 bytes of CONST memory (+ 136 bytes shared)
//     0 bytes of DATA  memory (+   2 bytes shared)
//     1 byte  of XDATA memory
//
//Errors: none
//Warnings: none
