///////////////////////////////////////////////////////////////////////////////
//                                                                            /
// IAR C/C++ Compiler V8.20.2.41139 for 8051            27/May/2014  19:14:21 /
// Copyright 2004-2013 IAR Systems AB.                                        /
//                                                                            /
//    Core               =  plain                                             /
//    Code model         =  banked                                            /
//    Data model         =  large                                             /
//    Calling convention =  xdata reentrant                                   /
//    Constant location  =  data_rom                                          /
//    Dptr setup         =  1,16                                              /
//                                                                            /
//    Source file        =  D:\Texas Instruments\Z-Stack Lighting             /
//                          1.0.2\Projects\zstack\ZLL\SampleApp\Source\Light\ /
//                          zcl_color_ctrl.c                                  /
//    Command line       =  -f "D:\Texas Instruments\Z-Stack Lighting         /
//                          1.0.2\Projects\zstack\ZLL\SampleApp\CC253x\..\..\ /
//                          ..\Tools\CC2530DB\f8wRouter.cfg" (-DCPU32MHZ      /
//                          -DROOT=__near_func -DMAC_CFG_APP_PENDING_QUEUE=TR /
//                          UE -DMAC_CFG_TX_DATA_MAX=5 -DMAC_CFG_TX_MAX=8     /
//                          -DMAC_CFG_RX_MAX=5 -DRTR_NWK) -f "D:\Texas        /
//                          Instruments\Z-Stack Lighting                      /
//                          1.0.2\Projects\zstack\ZLL\SampleApp\CC253x\..\..\ /
//                          ..\Tools\CC2530DB\f8wConfig.cfg" (-DZIGBEEPRO     /
//                          -DSECURE=1 -DZG_SECURE_DYNAMIC=0 -DREFLECTOR      /
//                          -DDEFAULT_CHANLIST=0x00000800                     /
//                          -DZDAPP_CONFIG_PAN_ID=0xFFFF                      /
//                          -DNWK_START_DELAY=100 -DEXTENDED_JOINING_RANDOM_M /
//                          ASK=0x007F -DBEACON_REQUEST_DELAY=100             /
//                          -DBEACON_REQ_DELAY_MASK=0x00FF                    /
//                          -DLINK_STATUS_JITTER_MASK=0x007F                  /
//                          -DROUTE_EXPIRY_TIME=30 -DAPSC_ACK_WAIT_DURATION_P /
//                          OLLED=3000 -DNWK_INDIRECT_MSG_TIMEOUT=7           /
//                          -DMAX_RREQ_ENTRIES=8 -DAPSC_MAX_FRAME_RETRIES=3   /
//                          -DNWK_MAX_DATA_RETRIES=2                          /
//                          -DMAX_POLL_FAILURE_RETRIES=2 -DMAX_BCAST=9        /
//                          -DAPS_MAX_GROUPS=16 -DMAX_RTG_ENTRIES=40          /
//                          -DNWK_MAX_BINDING_ENTRIES=4                       /
//                          -DMAX_BINDING_CLUSTER_IDS=4                       /
//                          "-DDEFAULT_KEY={0x01, 0x03, 0x05, 0x07, 0x09,     /
//                          0x0B, 0x0D, 0x0F, 0x00, 0x02, 0x04, 0x06, 0x08,   /
//                          0x0A, 0x0C, 0x0D}" -DMAC_MAX_FRAME_SIZE=116       /
//                          -DZDNWKMGR_MIN_TRANSMISSIONS=20 "-DCONST=const    /
//                          __code" -DGENERIC=__generic                       /
//                          -DRFD_RCVC_ALWAYS_ON=FALSE -DPOLL_RATE=1000       /
//                          -DQUEUED_POLL_RATE=100 -DRESPONSE_POLL_RATE=100   /
//                          -DREJOIN_POLL_RATE=440) -f "D:\Texas              /
//                          Instruments\Z-Stack Lighting                      /
//                          1.0.2\Projects\zstack\ZLL\SampleApp\CC253x\..\..\ /
//                          ..\Tools\CC2530DB\f8wZCL.cfg" "D:\Texas           /
//                          Instruments\Z-Stack Lighting                      /
//                          1.0.2\Projects\zstack\ZLL\SampleApp\Source\Light\ /
//                          zcl_color_ctrl.c" -D FEATURE_GREEN_POWER -D       /
//                          SECURE=1 -D TC_LINKKEY_JOIN -D                    /
//                          ZDSECMGR_TC_DEVICE_MAX=2 -D NV_RESTORE -D         /
//                          HOLD_AUTO_START -D INTER_PAN -D                   /
//                          LCD_SUPPORTED=DEBUG -D ZCL_BASIC -D ZCL_READ -D   /
//                          ZCL_WRITE -D ZCL_IDENTIFY -D ZCL_ON_OFF -D        /
//                          ZCL_SCENES -D ZCL_GROUPS -D                       /
//                          ZCL_LIGHT_LINK_ENHANCE -D ZCL_LEVEL_CTRL -D       /
//                          ZCL_COLOR_CTRL -D MAX_CHANNELS_24GHZ=0x02108800   /
//                          -D xPWM_ALT2 -D xTHERMAL_SHUTDOWN -D              /
//                          ZLL_1_0_HUB_COMPATIBILITY -D DALI_LIGHT -lC       /
//                          "D:\Texas Instruments\Z-Stack Lighting            /
//                          1.0.2\Projects\zstack\ZLL\SampleApp\CC253x\Zlight /
//                           - Router\List\" -lA "D:\Texas                    /
//                          Instruments\Z-Stack Lighting                      /
//                          1.0.2\Projects\zstack\ZLL\SampleApp\CC253x\Zlight /
//                           - Router\List\" --diag_suppress Pe001,Pa010 -o   /
//                          "D:\Texas Instruments\Z-Stack Lighting            /
//                          1.0.2\Projects\zstack\ZLL\SampleApp\CC253x\Zlight /
//                           - Router\Obj\" -e --debug --core=plain           /
//                          --dptr=16,1 --data_model=large                    /
//                          --code_model=banked --calling_convention=xdata_re /
//                          entrant --place_constants=data_rom                /
//                          --nr_virtual_regs 16 -I "D:\Texas                 /
//                          Instruments\Z-Stack Lighting                      /
//                          1.0.2\Projects\zstack\ZLL\SampleApp\CC253x\" -I   /
//                          "D:\Texas Instruments\Z-Stack Lighting            /
//                          1.0.2\Projects\zstack\ZLL\SampleApp\CC253x\..\Sou /
//                          rce\" -I "D:\Texas Instruments\Z-Stack Lighting   /
//                          1.0.2\Projects\zstack\ZLL\SampleApp\CC253x\..\..\ /
//                          Source\" -I "D:\Texas Instruments\Z-Stack         /
//                          Lighting 1.0.2\Projects\zstack\ZLL\SampleApp\CC25 /
//                          3x\..\..\..\HomeAutomation\Source\" -I "D:\Texas  /
//                          Instruments\Z-Stack Lighting                      /
//                          1.0.2\Projects\zstack\ZLL\SampleApp\CC253x\..\..\ /
//                          ..\HomeAutomation\SampleLight\Source\" -I         /
//                          "D:\Texas Instruments\Z-Stack Lighting            /
//                          1.0.2\Projects\zstack\ZLL\SampleApp\CC253x\..\..\ /
//                          ..\ZMain\TI2530DB\" -I "D:\Texas                  /
//                          Instruments\Z-Stack Lighting                      /
//                          1.0.2\Projects\zstack\ZLL\SampleApp\CC253x\..\..\ /
//                          ..\..\..\Components\hal\include\" -I "D:\Texas    /
//                          Instruments\Z-Stack Lighting                      /
//                          1.0.2\Projects\zstack\ZLL\SampleApp\CC253x\..\..\ /
//                          ..\..\..\Components\hal\target\CC2530PMP4712\"    /
//                          -I "D:\Texas Instruments\Z-Stack Lighting         /
//                          1.0.2\Projects\zstack\ZLL\SampleApp\CC253x\..\..\ /
//                          ..\..\..\Components\mac\include\" -I "D:\Texas    /
//                          Instruments\Z-Stack Lighting                      /
//                          1.0.2\Projects\zstack\ZLL\SampleApp\CC253x\..\..\ /
//                          ..\..\..\Components\mac\high_level\" -I           /
//                          "D:\Texas Instruments\Z-Stack Lighting            /
//                          1.0.2\Projects\zstack\ZLL\SampleApp\CC253x\..\..\ /
//                          ..\..\..\Components\mac\low_level\srf04\" -I      /
//                          "D:\Texas Instruments\Z-Stack Lighting            /
//                          1.0.2\Projects\zstack\ZLL\SampleApp\CC253x\..\..\ /
//                          ..\..\..\Components\mac\low_level\srf04\single_ch /
//                          ip\" -I "D:\Texas Instruments\Z-Stack Lighting    /
//                          1.0.2\Projects\zstack\ZLL\SampleApp\CC253x\..\..\ /
//                          ..\..\..\Components\mt\" -I "D:\Texas             /
//                          Instruments\Z-Stack Lighting                      /
//                          1.0.2\Projects\zstack\ZLL\SampleApp\CC253x\..\..\ /
//                          ..\..\..\Components\osal\include\" -I "D:\Texas   /
//                          Instruments\Z-Stack Lighting                      /
//                          1.0.2\Projects\zstack\ZLL\SampleApp\CC253x\..\..\ /
//                          ..\..\..\Components\services\saddr\" -I           /
//                          "D:\Texas Instruments\Z-Stack Lighting            /
//                          1.0.2\Projects\zstack\ZLL\SampleApp\CC253x\..\..\ /
//                          ..\..\..\Components\services\sdata\" -I           /
//                          "D:\Texas Instruments\Z-Stack Lighting            /
//                          1.0.2\Projects\zstack\ZLL\SampleApp\CC253x\..\..\ /
//                          ..\..\..\Components\stack\af\" -I "D:\Texas       /
//                          Instruments\Z-Stack Lighting                      /
//                          1.0.2\Projects\zstack\ZLL\SampleApp\CC253x\..\..\ /
//                          ..\..\..\Components\stack\nwk\" -I "D:\Texas      /
//                          Instruments\Z-Stack Lighting                      /
//                          1.0.2\Projects\zstack\ZLL\SampleApp\CC253x\..\..\ /
//                          ..\..\..\Components\stack\sapi\" -I "D:\Texas     /
//                          Instruments\Z-Stack Lighting                      /
//                          1.0.2\Projects\zstack\ZLL\SampleApp\CC253x\..\..\ /
//                          ..\..\..\Components\stack\sec\" -I "D:\Texas      /
//                          Instruments\Z-Stack Lighting                      /
//                          1.0.2\Projects\zstack\ZLL\SampleApp\CC253x\..\..\ /
//                          ..\..\..\Components\stack\sys\" -I "D:\Texas      /
//                          Instruments\Z-Stack Lighting                      /
//                          1.0.2\Projects\zstack\ZLL\SampleApp\CC253x\..\..\ /
//                          ..\..\..\Components\stack\zcl\" -I "D:\Texas      /
//                          Instruments\Z-Stack Lighting                      /
//                          1.0.2\Projects\zstack\ZLL\SampleApp\CC253x\..\..\ /
//                          ..\..\..\Components\stack\zdo\" -I "D:\Texas      /
//                          Instruments\Z-Stack Lighting                      /
//                          1.0.2\Projects\zstack\ZLL\SampleApp\CC253x\..\..\ /
//                          ..\..\..\Components\zmac\" -I "D:\Texas           /
//                          Instruments\Z-Stack Lighting                      /
//                          1.0.2\Projects\zstack\ZLL\SampleApp\CC253x\..\..\ /
//                          ..\..\..\Components\zmac\f8w\" -Ohz               /
//                          --require_prototypes                              /
//    List file          =  D:\Texas Instruments\Z-Stack Lighting             /
//                          1.0.2\Projects\zstack\ZLL\SampleApp\CC253x\Zlight /
//                           - Router\List\zcl_color_ctrl.s51                 /
//                                                                            /
//                                                                            /
///////////////////////////////////////////////////////////////////////////////

        NAME zcl_color_ctrl

        RTMODEL "__SystemLibrary", "CLib"
        RTMODEL "__calling_convention", "xdata_reentrant"
        RTMODEL "__code_model", "banked"
        RTMODEL "__core", "plain"
        RTMODEL "__data_model", "large"
        RTMODEL "__dptr_size", "16"
        RTMODEL "__extended_stack", "disabled"
        RTMODEL "__location_for_constants", "data"
        RTMODEL "__number_of_dptrs", "1"
        RTMODEL "__rt_version", "1"

        RSEG DOVERLAY:DATA:NOROOT(0)
        RSEG IOVERLAY:IDATA:NOROOT(0)
        RSEG ISTACK:IDATA:NOROOT(0)
        RSEG PSTACK:XDATA:NOROOT(0)
        RSEG XSTACK:XDATA:NOROOT(0)

        EXTERN ?ALLOC_XSTACK8
        EXTERN ?BANKED_ENTER_XDATA
        EXTERN ?BANKED_LEAVE_XDATA
        EXTERN ?BDISPATCH
        EXTERN ?BRET
        EXTERN ?DEALLOC_XSTACK8
        EXTERN ?L_ADD_X
        EXTERN ?L_DIV_MOD
        EXTERN ?L_MOV_TO_X
        EXTERN ?L_MOV_X
        EXTERN ?L_NEG
        EXTERN ?L_SHL
        EXTERN ?L_SUB
        EXTERN ?PUSH_XSTACK8_X_FOUR
        EXTERN ?PUSH_XSTACK_I_ONE
        EXTERN ?PUSH_XSTACK_I_TWO
        EXTERN ?SL_GE_X
        EXTERN ?US_DIV_MOD
        EXTERN ?V0
        EXTERN ?XSP
        EXTERN ?XSTACK_DISP0_8
        EXTERN __INIT_XDATA_Z

        PUBLIC ??zclColor_EnhMoveToHueCB?relay
        FUNCTION ??zclColor_EnhMoveToHueCB?relay,0203H
        PUBLIC ??zclColor_MoveColorCB?relay
        FUNCTION ??zclColor_MoveColorCB?relay,0203H
        PUBLIC ??zclColor_MoveEnhHueCB?relay
        FUNCTION ??zclColor_MoveEnhHueCB?relay,0203H
        PUBLIC ??zclColor_MoveHueCB?relay
        FUNCTION ??zclColor_MoveHueCB?relay,0203H
        PUBLIC ??zclColor_MoveSaturationCB?relay
        FUNCTION ??zclColor_MoveSaturationCB?relay,0203H
        PUBLIC ??zclColor_MoveToColorCB?relay
        FUNCTION ??zclColor_MoveToColorCB?relay,0203H
        PUBLIC ??zclColor_MoveToEnhHueAndSaturationCB?relay
        FUNCTION ??zclColor_MoveToEnhHueAndSaturationCB?relay,0203H
        PUBLIC ??zclColor_MoveToHueAndSaturationCB?relay
        FUNCTION ??zclColor_MoveToHueAndSaturationCB?relay,0203H
        PUBLIC ??zclColor_MoveToHueCB?relay
        FUNCTION ??zclColor_MoveToHueCB?relay,0203H
        PUBLIC ??zclColor_MoveToSaturationCB?relay
        FUNCTION ??zclColor_MoveToSaturationCB?relay,0203H
        PUBLIC ??zclColor_SetColorLoopCB?relay
        FUNCTION ??zclColor_SetColorLoopCB?relay,0203H
        PUBLIC ??zclColor_StepColorCB?relay
        FUNCTION ??zclColor_StepColorCB?relay,0203H
        PUBLIC ??zclColor_StepEnhHueCB?relay
        FUNCTION ??zclColor_StepEnhHueCB?relay,0203H
        PUBLIC ??zclColor_StepHueCB?relay
        FUNCTION ??zclColor_StepHueCB?relay,0203H
        PUBLIC ??zclColor_StepSaturationCB?relay
        FUNCTION ??zclColor_StepSaturationCB?relay,0203H
        PUBLIC ??zclColor_StopCB?relay
        FUNCTION ??zclColor_StopCB?relay,0203H
        PUBLIC ??zclColor_init?relay
        FUNCTION ??zclColor_init?relay,0203H
        PUBLIC ??zclColor_process?relay
        FUNCTION ??zclColor_process?relay,0203H
        PUBLIC ??zclColor_processColorLoop?relay
        FUNCTION ??zclColor_processColorLoop?relay,0203H
        PUBWEAK __Constant_0
        PUBWEAK __Constant_1
        PUBWEAK __Constant_64
        PUBWEAK __Constant_a
        PUBWEAK __Constant_ffff
        PUBWEAK __Constant_ffff0001
        PUBLIC zclColor_EnhMoveToHueCB
        FUNCTION zclColor_EnhMoveToHueCB,021203H
        ARGFRAME XSTACK, 18, STACK
        ARGFRAME IOVERLAY, 0, STATIC
        ARGFRAME DOVERLAY, 0, STATIC
        LOCFRAME XSTACK, 24, STACK
        PUBLIC zclColor_MoveColorCB
        FUNCTION zclColor_MoveColorCB,021203H
        ARGFRAME XSTACK, 0, STACK
        LOCFRAME XSTACK, 24, STACK
        PUBLIC zclColor_MoveEnhHueCB
        FUNCTION zclColor_MoveEnhHueCB,021203H
        ARGFRAME XSTACK, 0, STACK
        LOCFRAME XSTACK, 24, STACK
        PUBLIC zclColor_MoveHueCB
        FUNCTION zclColor_MoveHueCB,021203H
        ARGFRAME XSTACK, 0, STACK
        LOCFRAME XSTACK, 22, STACK
        PUBLIC zclColor_MoveSaturationCB
        FUNCTION zclColor_MoveSaturationCB,021203H
        ARGFRAME XSTACK, 0, STACK
        LOCFRAME XSTACK, 22, STACK
        PUBLIC zclColor_MoveToColorCB
        FUNCTION zclColor_MoveToColorCB,021203H
        ARGFRAME XSTACK, 0, STACK
        LOCFRAME XSTACK, 32, STACK
        PUBLIC zclColor_MoveToEnhHueAndSaturationCB
        FUNCTION zclColor_MoveToEnhHueAndSaturationCB,021203H
        ARGFRAME XSTACK, 0, STACK
        LOCFRAME ISTACK, 1, STACK
        LOCFRAME XSTACK, 18, STACK
        PUBLIC zclColor_MoveToHueAndSaturationCB
        FUNCTION zclColor_MoveToHueAndSaturationCB,021203H
        ARGFRAME XSTACK, 0, STACK
        LOCFRAME ISTACK, 1, STACK
        LOCFRAME XSTACK, 17, STACK
        PUBLIC zclColor_MoveToHueCB
        FUNCTION zclColor_MoveToHueCB,021203H
        ARGFRAME XSTACK, 17, STACK
        ARGFRAME IOVERLAY, 0, STATIC
        ARGFRAME DOVERLAY, 0, STATIC
        LOCFRAME XSTACK, 22, STACK
        PUBLIC zclColor_MoveToSaturationCB
        FUNCTION zclColor_MoveToSaturationCB,021203H
        ARGFRAME XSTACK, 18, STACK
        ARGFRAME IOVERLAY, 0, STATIC
        ARGFRAME DOVERLAY, 0, STATIC
        LOCFRAME XSTACK, 22, STACK
        PUBLIC zclColor_SetColorLoopCB
        FUNCTION zclColor_SetColorLoopCB,021203H
        ARGFRAME XSTACK, 0, STACK
        LOCFRAME ISTACK, 2, STACK
        LOCFRAME XSTACK, 4, STACK
        PUBLIC zclColor_StepColorCB
        FUNCTION zclColor_StepColorCB,021203H
        ARGFRAME XSTACK, 0, STACK
        LOCFRAME XSTACK, 28, STACK
        PUBLIC zclColor_StepEnhHueCB
        FUNCTION zclColor_StepEnhHueCB,021203H
        ARGFRAME XSTACK, 0, STACK
        LOCFRAME XSTACK, 24, STACK
        PUBLIC zclColor_StepHueCB
        FUNCTION zclColor_StepHueCB,021203H
        ARGFRAME XSTACK, 0, STACK
        LOCFRAME XSTACK, 18, STACK
        PUBLIC zclColor_StepSaturationCB
        FUNCTION zclColor_StepSaturationCB,021203H
        ARGFRAME XSTACK, 0, STACK
        LOCFRAME XSTACK, 18, STACK
        PUBLIC zclColor_StopCB
        FUNCTION zclColor_StopCB,0203H
        ARGFRAME XSTACK, 0, STACK
        LOCFRAME ISTACK, 2, STACK
        PUBLIC zclColor_init
        FUNCTION zclColor_init,021203H
        ARGFRAME XSTACK, 0, STACK
        LOCFRAME XSTACK, 16, STACK
        PUBLIC zclColor_process
        FUNCTION zclColor_process,021203H
        ARGFRAME XSTACK, 0, STACK
        LOCFRAME XSTACK, 18, STACK
        PUBLIC zclColor_processColorLoop
        FUNCTION zclColor_processColorLoop,021203H
        ARGFRAME XSTACK, 0, STACK
        LOCFRAME XSTACK, 26, STACK
        
          CFI Names cfiNames0
          CFI StackFrame CFA_SP SP IDATA
          CFI StackFrame CFA_PSP16 PSP16 XDATA
          CFI StackFrame CFA_XSP16 XSP16 XDATA
          CFI StaticOverlayFrame CFA_IOVERLAY IOVERLAY
          CFI StaticOverlayFrame CFA_DOVERLAY DOVERLAY
          CFI Resource `PSW.CY`:1, `B.BR0`:1, `B.BR1`:1, `B.BR2`:1, `B.BR3`:1
          CFI Resource `B.BR4`:1, `B.BR5`:1, `B.BR6`:1, `B.BR7`:1, `VB.BR8`:1
          CFI Resource `VB.BR9`:1, `VB.BR10`:1, `VB.BR11`:1, `VB.BR12`:1
          CFI Resource `VB.BR13`:1, `VB.BR14`:1, `VB.BR15`:1, VB:8, B:8, A:8
          CFI Resource PSW:8, DPL0:8, DPH0:8, R0:8, R1:8, R2:8, R3:8, R4:8, R5:8
          CFI Resource R6:8, R7:8, V0:8, V1:8, V2:8, V3:8, V4:8, V5:8, V6:8, V7:8
          CFI Resource V8:8, V9:8, V10:8, V11:8, V12:8, V13:8, V14:8, V15:8, SP:8
          CFI Resource PSPH:8, PSPL:8, PSP16:16, XSPH:8, XSPL:8, XSP16:16
          CFI VirtualResource ?RET:24
          CFI Resource ?BRET_EXT:8
          CFI VirtualResource ?RET_HIGH:8, ?RET_LOW:8
          CFI ResourceParts PSP16 PSPH, PSPL
          CFI ResourceParts XSP16 XSPH, XSPL
          CFI ResourceParts ?RET ?BRET_EXT, ?RET_HIGH, ?RET_LOW
          CFI EndNames cfiNames0
        
          CFI Common cfiCommon0 Using cfiNames0
          CFI CodeAlign 1
          CFI DataAlign -1
          CFI ReturnAddress ?RET CODE
          CFI CFA_DOVERLAY Used
          CFI CFA_IOVERLAY Used
          CFI CFA_SP SP+-3
          CFI CFA_PSP16 PSP16+0
          CFI CFA_XSP16 XSP16+0
          CFI `PSW.CY` SameValue
          CFI `B.BR0` SameValue
          CFI `B.BR1` SameValue
          CFI `B.BR2` SameValue
          CFI `B.BR3` SameValue
          CFI `B.BR4` SameValue
          CFI `B.BR5` SameValue
          CFI `B.BR6` SameValue
          CFI `B.BR7` SameValue
          CFI `VB.BR8` SameValue
          CFI `VB.BR9` SameValue
          CFI `VB.BR10` SameValue
          CFI `VB.BR11` SameValue
          CFI `VB.BR12` SameValue
          CFI `VB.BR13` SameValue
          CFI `VB.BR14` SameValue
          CFI `VB.BR15` SameValue
          CFI VB SameValue
          CFI B Undefined
          CFI A Undefined
          CFI PSW SameValue
          CFI DPL0 SameValue
          CFI DPH0 SameValue
          CFI R0 Undefined
          CFI R1 Undefined
          CFI R2 Undefined
          CFI R3 Undefined
          CFI R4 Undefined
          CFI R5 Undefined
          CFI R6 SameValue
          CFI R7 SameValue
          CFI V0 SameValue
          CFI V1 SameValue
          CFI V2 SameValue
          CFI V3 SameValue
          CFI V4 SameValue
          CFI V5 SameValue
          CFI V6 SameValue
          CFI V7 SameValue
          CFI V8 SameValue
          CFI V9 SameValue
          CFI V10 SameValue
          CFI V11 SameValue
          CFI V12 SameValue
          CFI V13 SameValue
          CFI V14 SameValue
          CFI V15 SameValue
          CFI PSPH Undefined
          CFI PSPL Undefined
          CFI XSPH Undefined
          CFI XSPL Undefined
          CFI ?RET Concat
          CFI ?BRET_EXT Frame(CFA_SP, 3)
          CFI ?RET_HIGH Frame(CFA_SP, 2)
          CFI ?RET_LOW Frame(CFA_SP, 1)
          CFI EndCommon cfiCommon0
        
        
          CFI Common cfiCommon1 Using cfiNames0
          CFI CodeAlign 1
          CFI DataAlign -1
          CFI ReturnAddress ?RET CODE
          CFI CFA_DOVERLAY Used
          CFI CFA_IOVERLAY Used
          CFI CFA_SP SP+-2
          CFI CFA_PSP16 PSP16+0
          CFI CFA_XSP16 XSP16+0
          CFI `PSW.CY` SameValue
          CFI `B.BR0` SameValue
          CFI `B.BR1` SameValue
          CFI `B.BR2` SameValue
          CFI `B.BR3` SameValue
          CFI `B.BR4` SameValue
          CFI `B.BR5` SameValue
          CFI `B.BR6` SameValue
          CFI `B.BR7` SameValue
          CFI `VB.BR8` SameValue
          CFI `VB.BR9` SameValue
          CFI `VB.BR10` SameValue
          CFI `VB.BR11` SameValue
          CFI `VB.BR12` SameValue
          CFI `VB.BR13` SameValue
          CFI `VB.BR14` SameValue
          CFI `VB.BR15` SameValue
          CFI VB SameValue
          CFI B SameValue
          CFI A SameValue
          CFI PSW SameValue
          CFI DPL0 SameValue
          CFI DPH0 SameValue
          CFI R0 SameValue
          CFI R1 SameValue
          CFI R2 SameValue
          CFI R3 SameValue
          CFI R4 SameValue
          CFI R5 SameValue
          CFI R6 SameValue
          CFI R7 SameValue
          CFI V0 SameValue
          CFI V1 SameValue
          CFI V2 SameValue
          CFI V3 SameValue
          CFI V4 SameValue
          CFI V5 SameValue
          CFI V6 SameValue
          CFI V7 SameValue
          CFI V8 SameValue
          CFI V9 SameValue
          CFI V10 SameValue
          CFI V11 SameValue
          CFI V12 SameValue
          CFI V13 SameValue
          CFI V14 SameValue
          CFI V15 SameValue
          CFI PSPH Undefined
          CFI PSPL Undefined
          CFI XSPH Undefined
          CFI XSPL Undefined
          CFI ?RET Concat
          CFI ?BRET_EXT SameValue
          CFI ?RET_HIGH Frame(CFA_SP, 2)
          CFI ?RET_LOW Frame(CFA_SP, 1)
          CFI EndCommon cfiCommon1
        
hwLight_ApplyUpdate16b SYMBOL "hwLight_ApplyUpdate16b"
??hwLight_ApplyUpdate16b?relay SYMBOL "?relay", hwLight_ApplyUpdate16b
hwLight_ApplyUpdate SYMBOL "hwLight_ApplyUpdate"
??hwLight_ApplyUpdate?relay SYMBOL "?relay", hwLight_ApplyUpdate
hwLight_UpdateColorMode SYMBOL "hwLight_UpdateColorMode"
??hwLight_UpdateColorMode?relay SYMBOL "?relay", hwLight_UpdateColorMode
osal_start_timerEx  SYMBOL "osal_start_timerEx"
??osal_start_timerEx?relay SYMBOL "?relay", osal_start_timerEx
osal_stop_timerEx   SYMBOL "osal_stop_timerEx"
??osal_stop_timerEx?relay SYMBOL "?relay", osal_stop_timerEx
zclColor_EnhMoveToHueCB SYMBOL "zclColor_EnhMoveToHueCB"
??zclColor_EnhMoveToHueCB?relay SYMBOL "?relay", zclColor_EnhMoveToHueCB
zclColor_MoveColorCB SYMBOL "zclColor_MoveColorCB"
??zclColor_MoveColorCB?relay SYMBOL "?relay", zclColor_MoveColorCB
zclColor_MoveEnhHueCB SYMBOL "zclColor_MoveEnhHueCB"
??zclColor_MoveEnhHueCB?relay SYMBOL "?relay", zclColor_MoveEnhHueCB
zclColor_MoveHueCB  SYMBOL "zclColor_MoveHueCB"
??zclColor_MoveHueCB?relay SYMBOL "?relay", zclColor_MoveHueCB
zclColor_MoveSaturationCB SYMBOL "zclColor_MoveSaturationCB"
??zclColor_MoveSaturationCB?relay SYMBOL "?relay", zclColor_MoveSaturationCB
zclColor_MoveToColorCB SYMBOL "zclColor_MoveToColorCB"
??zclColor_MoveToColorCB?relay SYMBOL "?relay", zclColor_MoveToColorCB
zclColor_MoveToEnhHueAndSaturationCB SYMBOL "zclColor_MoveToEnhHueAndSaturationCB"
??zclColor_MoveToEnhHueAndSaturationCB?relay SYMBOL "?relay", zclColor_MoveToEnhHueAndSaturationCB
zclColor_MoveToHueAndSaturationCB SYMBOL "zclColor_MoveToHueAndSaturationCB"
??zclColor_MoveToHueAndSaturationCB?relay SYMBOL "?relay", zclColor_MoveToHueAndSaturationCB
zclColor_MoveToHueCB SYMBOL "zclColor_MoveToHueCB"
??zclColor_MoveToHueCB?relay SYMBOL "?relay", zclColor_MoveToHueCB
zclColor_MoveToSaturationCB SYMBOL "zclColor_MoveToSaturationCB"
??zclColor_MoveToSaturationCB?relay SYMBOL "?relay", zclColor_MoveToSaturationCB
zclColor_SetColorLoopCB SYMBOL "zclColor_SetColorLoopCB"
??zclColor_SetColorLoopCB?relay SYMBOL "?relay", zclColor_SetColorLoopCB
zclColor_StepColorCB SYMBOL "zclColor_StepColorCB"
??zclColor_StepColorCB?relay SYMBOL "?relay", zclColor_StepColorCB
zclColor_StepEnhHueCB SYMBOL "zclColor_StepEnhHueCB"
??zclColor_StepEnhHueCB?relay SYMBOL "?relay", zclColor_StepEnhHueCB
zclColor_StepHueCB  SYMBOL "zclColor_StepHueCB"
??zclColor_StepHueCB?relay SYMBOL "?relay", zclColor_StepHueCB
zclColor_StepSaturationCB SYMBOL "zclColor_StepSaturationCB"
??zclColor_StepSaturationCB?relay SYMBOL "?relay", zclColor_StepSaturationCB
zclColor_StopCB     SYMBOL "zclColor_StopCB"
??zclColor_StopCB?relay SYMBOL "?relay", zclColor_StopCB
zclColor_init       SYMBOL "zclColor_init"
??zclColor_init?relay SYMBOL "?relay", zclColor_init
zclColor_process    SYMBOL "zclColor_process"
??zclColor_process?relay SYMBOL "?relay", zclColor_process
zclColor_processColorLoop SYMBOL "zclColor_processColorLoop"
??zclColor_processColorLoop?relay SYMBOL "?relay", zclColor_processColorLoop

        EXTERN ??hwLight_ApplyUpdate16b?relay
        FUNCTION ??hwLight_ApplyUpdate16b?relay,00H
        EXTERN ??hwLight_ApplyUpdate?relay
        FUNCTION ??hwLight_ApplyUpdate?relay,00H
        EXTERN ??hwLight_UpdateColorMode?relay
        FUNCTION ??hwLight_UpdateColorMode?relay,00H
        EXTERN ??osal_start_timerEx?relay
        FUNCTION ??osal_start_timerEx?relay,00H
        EXTERN ??osal_stop_timerEx?relay
        FUNCTION ??osal_stop_timerEx?relay,00H
        EXTERN hwLight_ApplyUpdate
        FUNCTION hwLight_ApplyUpdate,0202H
        ARGFRAME ISTACK, 0, STACK
        ARGFRAME PSTACK, 0, STACK
        ARGFRAME XSTACK, 22, STACK
        ARGFRAME IOVERLAY, 0, STATIC
        ARGFRAME DOVERLAY, 0, STATIC
        EXTERN hwLight_ApplyUpdate16b
        FUNCTION hwLight_ApplyUpdate16b,0202H
        ARGFRAME ISTACK, 0, STACK
        ARGFRAME PSTACK, 0, STACK
        ARGFRAME XSTACK, 32, STACK
        ARGFRAME IOVERLAY, 0, STATIC
        ARGFRAME DOVERLAY, 0, STATIC
        EXTERN hwLight_UpdateColorMode
        FUNCTION hwLight_UpdateColorMode,0202H
        ARGFRAME ISTACK, 0, STACK
        ARGFRAME PSTACK, 0, STACK
        ARGFRAME XSTACK, 24, STACK
        ARGFRAME IOVERLAY, 0, STATIC
        ARGFRAME DOVERLAY, 0, STATIC
        EXTERN osal_start_timerEx
        FUNCTION osal_start_timerEx,0202H
        ARGFRAME ISTACK, 2, STACK
        ARGFRAME PSTACK, 0, STACK
        ARGFRAME XSTACK, 28, STACK
        ARGFRAME IOVERLAY, 0, STATIC
        ARGFRAME DOVERLAY, 0, STATIC
        EXTERN osal_stop_timerEx
        FUNCTION osal_stop_timerEx,0202H
        ARGFRAME ISTACK, 2, STACK
        ARGFRAME PSTACK, 0, STACK
        ARGFRAME XSTACK, 0, STACK
        ARGFRAME IOVERLAY, 0, STATIC
        ARGFRAME DOVERLAY, 0, STATIC
        EXTERN zclColor_ColorLoopActive
        EXTERN zclColor_ColorLoopDirection
        EXTERN zclColor_ColorLoopStartEnhancedHue
        EXTERN zclColor_ColorLoopStoredEnhancedHue
        EXTERN zclColor_ColorLoopTime
        EXTERN zclColor_ColorMode
        EXTERN zclColor_ColorRemainingTime
        EXTERN zclColor_CurrentHue
        EXTERN zclColor_CurrentSaturation
        EXTERN zclColor_CurrentX
        EXTERN zclColor_CurrentY
        EXTERN zclColor_EnhancedColorMode
        EXTERN zclColor_EnhancedCurrentHue

// D:\Texas Instruments\Z-Stack Lighting 1.0.2\Projects\zstack\ZLL\SampleApp\Source\Light\zcl_color_ctrl.c
//    1 /**************************************************************************************************
//    2   Filename:       zcl_color_ctrl.c
//    3   Revised:        $Date: 2013-08-08 18:23:54 -0700 (Thu, 08 Aug 2013) $
//    4   Revision:       $Revision: 34927 $
//    5 
//    6   Description:    This file contains the Zigbee Cluster Library Color Control
//    7                   application callbacks code.
//    8 
//    9 
//   10   Copyright 2010-2013 Texas Instruments Incorporated. All rights reserved.
//   11 
//   12   IMPORTANT: Your use of this Software is limited to those specific rights
//   13   granted under the terms of a software license agreement between the user
//   14   who downloaded the software, his/her employer (which must be your employer)
//   15   and Texas Instruments Incorporated (the "License").  You may not use this
//   16   Software unless you agree to abide by the terms of the License. The License
//   17   limits your use, and you acknowledge, that the Software may not be modified,
//   18   copied or distributed unless embedded on a Texas Instruments microcontroller
//   19   or used solely and exclusively in conjunction with a Texas Instruments radio
//   20   frequency transceiver, which is integrated into your product.  Other than for
//   21   the foregoing purpose, you may not use, reproduce, copy, prepare derivative
//   22   works of, modify, distribute, perform, display or sell this Software and/or
//   23   its documentation for any purpose.
//   24 
//   25   YOU FURTHER ACKNOWLEDGE AND AGREE THAT THE SOFTWARE AND DOCUMENTATION ARE
//   26   PROVIDED “AS IS” WITHOUT WARRANTY OF ANY KIND, EITHER EXPRESS OR IMPLIED,
//   27   INCLUDING WITHOUT LIMITATION, ANY WARRANTY OF MERCHANTABILITY, TITLE,
//   28   NON-INFRINGEMENT AND FITNESS FOR A PARTICULAR PURPOSE. IN NO EVENT SHALL
//   29   TEXAS INSTRUMENTS OR ITS LICENSORS BE LIABLE OR OBLIGATED UNDER CONTRACT,
//   30   NEGLIGENCE, STRICT LIABILITY, CONTRIBUTION, BREACH OF WARRANTY, OR OTHER
//   31   LEGAL EQUITABLE THEORY ANY DIRECT OR INDIRECT DAMAGES OR EXPENSES
//   32   INCLUDING BUT NOT LIMITED TO ANY INCIDENTAL, SPECIAL, INDIRECT, PUNITIVE
//   33   OR CONSEQUENTIAL DAMAGES, LOST PROFITS OR LOST DATA, COST OF PROCUREMENT
//   34   OF SUBSTITUTE GOODS, TECHNOLOGY, SERVICES, OR ANY CLAIMS BY THIRD PARTIES
//   35   (INCLUDING BUT NOT LIMITED TO ANY DEFENSE THEREOF), OR OTHER SIMILAR COSTS.
//   36 
//   37   Should you have any questions regarding your right to use this Software,
//   38   contact Texas Instruments Incorporated at www.TI.com.
//   39 **************************************************************************************************/
//   40 
//   41 /*********************************************************************
//   42   This device will be like a Light device.  This application is not
//   43   intended to be a Light device, but will use the device description
//   44   to implement this sample code.
//   45 *********************************************************************/
//   46 
//   47 #ifdef ZCL_COLOR_CTRL
//   48 /*********************************************************************
//   49  * INCLUDES
//   50  */
//   51 #include "onboard.h"
//   52 #include "zcl_color_ctrl.h"
//   53 
//   54 /*********************************************************************
//   55  * MACROS
//   56  */
//   57 
//   58 /*********************************************************************
//   59  * CONSTANTS
//   60  */
//   61 /*********************************************************************
//   62  * TYPEDEFS
//   63  */
//   64 
//   65 /*********************************************************************
//   66  * GLOBAL VARIABLES
//   67  */
//   68 
//   69 /*********************************************************************
//   70  * GLOBAL FUNCTIONS
//   71  */
//   72 
//   73 /*********************************************************************
//   74  * LOCAL VARIABLES
//   75  */
//   76 

        RSEG XDATA_Z:XDATA:NOROOT(0)
        DATA32
//   77 static int32 zclColor_StepSaturation_256 = 0;
zclColor_StepSaturation_256:
        DS 4
        REQUIRE __INIT_XDATA_Z

        RSEG XDATA_Z:XDATA:NOROOT(0)
        DATA16
//   78 static uint16 zclColor_SaturationRemainingTime = 0;
zclColor_SaturationRemainingTime:
        DS 2
        REQUIRE __INIT_XDATA_Z

        RSEG XDATA_Z:XDATA:NOROOT(0)
        DATA16
//   79 static uint16 zclColor_CurrentSaturation_256 = 0;
zclColor_CurrentSaturation_256:
        DS 2
        REQUIRE __INIT_XDATA_Z
//   80 

        RSEG XDATA_Z:XDATA:NOROOT(0)
        DATA32
//   81 static int32 zclColor_StepHue_256 = 0;
zclColor_StepHue_256:
        DS 4
        REQUIRE __INIT_XDATA_Z

        RSEG XDATA_Z:XDATA:NOROOT(0)
        DATA16
//   82 static uint16 zclColor_HueRemainingTime = 0;
zclColor_HueRemainingTime:
        DS 2
        REQUIRE __INIT_XDATA_Z

        RSEG XDATA_Z:XDATA:NOROOT(0)
        DATA16
//   83 static uint16 zclColor_CurrentHue_256 = 0;
zclColor_CurrentHue_256:
        DS 2
        REQUIRE __INIT_XDATA_Z
//   84 

        RSEG XDATA_Z:XDATA:NOROOT(0)
        DATA32
//   85 static int32 zclColor_StepEnhancedHue_256 = 0;
zclColor_StepEnhancedHue_256:
        DS 4
        REQUIRE __INIT_XDATA_Z

        RSEG XDATA_Z:XDATA:NOROOT(0)
        DATA16
//   86 static uint16 zclColor_EnhancedHueRemainingTime = 0;
zclColor_EnhancedHueRemainingTime:
        DS 2
        REQUIRE __INIT_XDATA_Z

        RSEG XDATA_Z:XDATA:NOROOT(0)
        DATA32
//   87 static uint32 zclColor_EnhancedCurrentHue_256 = 0;
zclColor_EnhancedCurrentHue_256:
        DS 4
        REQUIRE __INIT_XDATA_Z
//   88 

        RSEG XDATA_Z:XDATA:NOROOT(0)
        DATA32
//   89 static int32 zclColor_StepColorX_256 = 0;
zclColor_StepColorX_256:
        DS 4
        REQUIRE __INIT_XDATA_Z

        RSEG XDATA_Z:XDATA:NOROOT(0)
        DATA32
//   90 static int32 zclColor_StepColorY_256 = 0;
zclColor_StepColorY_256:
        DS 4
        REQUIRE __INIT_XDATA_Z

        RSEG XDATA_Z:XDATA:NOROOT(0)
        DATA32
//   91 static uint32 zclColor_CurrentX_256 = 0;
zclColor_CurrentX_256:
        DS 4
        REQUIRE __INIT_XDATA_Z

        RSEG XDATA_Z:XDATA:NOROOT(0)
        DATA32
//   92 static uint32 zclColor_CurrentY_256 = 0;
zclColor_CurrentY_256:
        DS 4
        REQUIRE __INIT_XDATA_Z
//   93 

        RSEG XDATA_Z:XDATA:NOROOT(0)
        DATA8
//   94 static byte zclLight_TaskID;
zclLight_TaskID:
        DS 1
        REQUIRE __INIT_XDATA_Z
//   95 
//   96 /*********************************************************************
//   97  * LOCAL FUNCTIONS
//   98  */
//   99 
//  100 /*********************************************************************
//  101  * @fn          zclLevel_init
//  102  *
//  103  * @brief
//  104  *
//  105  * @param       none
//  106  *
//  107  * @return      none
//  108  */

        RSEG BANKED_CODE:CODE:NOROOT(0)
//  109 void zclColor_init( byte taskID )
zclColor_init:
          CFI Block cfiBlock0 Using cfiCommon0
          CFI Function zclColor_init
        CODE
//  110 {
        FUNCALL zclColor_init, hwLight_ApplyUpdate
        LOCFRAME ISTACK, 0, STACK
        LOCFRAME PSTACK, 0, STACK
        LOCFRAME XSTACK, 16, STACK
        LOCFRAME IOVERLAY, 0, STATIC
        LOCFRAME DOVERLAY, 0, STATIC
        ARGFRAME ISTACK, 0, STACK
        ARGFRAME PSTACK, 0, STACK
        ARGFRAME XSTACK, 16, STACK
        ARGFRAME IOVERLAY, 0, STATIC
        ARGFRAME DOVERLAY, 0, STATIC
        FUNCALL zclColor_init, hwLight_ApplyUpdate
        LOCFRAME ISTACK, 0, STACK
        LOCFRAME PSTACK, 0, STACK
        LOCFRAME XSTACK, 16, STACK
        LOCFRAME IOVERLAY, 0, STATIC
        LOCFRAME DOVERLAY, 0, STATIC
        ARGFRAME ISTACK, 0, STACK
        ARGFRAME PSTACK, 0, STACK
        ARGFRAME XSTACK, 16, STACK
        ARGFRAME IOVERLAY, 0, STATIC
        ARGFRAME DOVERLAY, 0, STATIC
        MOV     A,#-0xa
        LCALL   ?BANKED_ENTER_XDATA
          CFI DPH0 load(1, XDATA, add(CFA_XSP16, literal(-1)))
          CFI DPL0 load(1, XDATA, add(CFA_XSP16, literal(-2)))
          CFI ?BRET_EXT load(1, XDATA, add(CFA_XSP16, literal(-3)))
          CFI ?RET_HIGH load(1, XDATA, add(CFA_XSP16, literal(-4)))
          CFI ?RET_LOW load(1, XDATA, add(CFA_XSP16, literal(-5)))
          CFI R7 load(1, XDATA, add(CFA_XSP16, literal(-6)))
          CFI V1 load(1, XDATA, add(CFA_XSP16, literal(-7)))
          CFI V0 load(1, XDATA, add(CFA_XSP16, literal(-8)))
          CFI VB load(1, XDATA, add(CFA_XSP16, literal(-9)))
          CFI R6 load(1, XDATA, add(CFA_XSP16, literal(-10)))
          CFI CFA_SP SP+0
          CFI CFA_XSP16 add(XSP16, 10)
        ; Saved register size: 10
        ; Auto size: 0
        MOV     A,R1
//  111   zclLight_TaskID = taskID;
        MOV     DPTR,#zclLight_TaskID
        MOVX    @DPTR,A
//  112 
//  113   //Move to default color
//  114   zclColor_HueRemainingTime = 0;
        MOV     DPTR,#zclColor_HueRemainingTime
        CLR     A
        LCALL   ?Subroutine20 & 0xFFFF
//  115   hwLight_ApplyUpdate( &zclColor_CurrentHue,
//  116                        &zclColor_CurrentHue_256,
//  117                        &zclColor_StepHue_256,
//  118                        &zclColor_HueRemainingTime,
//  119                        COLOR_HUE_MIN, COLOR_HUE_MAX, TRUE );
??CrossCallReturnLabel_37:
        LCALL   ?PUSH_XSTACK_I_ONE
          CFI CFA_XSP16 add(XSP16, 11)
        MOV     ?V0 + 0,#-0x2
        MOV     R0,#?V0 + 0
        LCALL   ?PUSH_XSTACK_I_ONE
          CFI CFA_XSP16 add(XSP16, 12)
        MOV     ?V0 + 0,#zclColor_HueRemainingTime & 0xff
        MOV     ?V0 + 1,#(zclColor_HueRemainingTime >> 8) & 0xff
        MOV     R0,#?V0 + 0
        LCALL   ?PUSH_XSTACK_I_TWO
          CFI CFA_XSP16 add(XSP16, 14)
        MOV     ?V0 + 0,#zclColor_StepHue_256 & 0xff
        MOV     ?V0 + 1,#(zclColor_StepHue_256 >> 8) & 0xff
        MOV     R0,#?V0 + 0
        LCALL   ?PUSH_XSTACK_I_TWO
          CFI CFA_XSP16 add(XSP16, 16)
        MOV     R1,#0x0
        MOV     R4,#zclColor_CurrentHue_256 & 0xff
        MOV     R5,#(zclColor_CurrentHue_256 >> 8) & 0xff
        MOV     R2,#zclColor_CurrentHue & 0xff
        MOV     R3,#(zclColor_CurrentHue >> 8) & 0xff
        LCALL   ??hwLight_ApplyUpdate?relay
        MOV     A,#0x6
        LCALL   ?DEALLOC_XSTACK8
          CFI CFA_XSP16 add(XSP16, 10)
//  120 
//  121   zclColor_SaturationRemainingTime = 0;
        MOV     DPTR,#zclColor_SaturationRemainingTime
        CLR     A
        MOVX    @DPTR,A
        INC     DPTR
        MOVX    @DPTR,A
//  122   hwLight_ApplyUpdate( &zclColor_CurrentSaturation,
//  123                        &zclColor_CurrentSaturation_256,
//  124                        &zclColor_StepSaturation_256,
//  125                        &zclColor_SaturationRemainingTime,
//  126                        COLOR_SAT_MIN, COLOR_SAT_MAX, FALSE );
        ; Setup parameters for call to function hwLight_ApplyUpdate
        MOV     ?V0 + 0,A
        MOV     R0,#?V0 + 0
        LCALL   ?PUSH_XSTACK_I_ONE
          CFI CFA_XSP16 add(XSP16, 11)
        MOV     ?V0 + 0,#-0x2
        MOV     R0,#?V0 + 0
        LCALL   ?PUSH_XSTACK_I_ONE
          CFI CFA_XSP16 add(XSP16, 12)
        MOV     ?V0 + 0,#zclColor_SaturationRemainingTime & 0xff
        MOV     ?V0 + 1,#(zclColor_SaturationRemainingTime >> 8) & 0xff
        MOV     R0,#?V0 + 0
        LCALL   ?PUSH_XSTACK_I_TWO
          CFI CFA_XSP16 add(XSP16, 14)
        MOV     ?V0 + 0,#zclColor_StepSaturation_256 & 0xff
        MOV     ?V0 + 1,#(zclColor_StepSaturation_256 >> 8) & 0xff
        MOV     R0,#?V0 + 0
        LCALL   ?PUSH_XSTACK_I_TWO
          CFI CFA_XSP16 add(XSP16, 16)
        MOV     R1,#0x0
        MOV     R4,#zclColor_CurrentSaturation_256 & 0xff
        MOV     R5,#(zclColor_CurrentSaturation_256 >> 8) & 0xff
        MOV     R2,#zclColor_CurrentSaturation & 0xff
        MOV     R3,#(zclColor_CurrentSaturation >> 8) & 0xff
        LCALL   ??hwLight_ApplyUpdate?relay
        MOV     A,#0x6
        LJMP    ?Subroutine0 & 0xFFFF
          CFI EndBlock cfiBlock0
//  127 }
//  128 
//  129 /*********************************************************************
//  130  * @fn          zclColor_process_color_event
//  131  *
//  132  * @brief       color Event Processor for zclLighting.
//  133  *
//  134  * @param       events
//  135  *
//  136  * @return      none
//  137  */

        RSEG BANKED_CODE:CODE:NOROOT(0)
//  138 void zclColor_process( uint16 *events )
zclColor_process:
          CFI Block cfiBlock1 Using cfiCommon0
          CFI Function zclColor_process
        CODE
//  139 {
        FUNCALL zclColor_process, hwLight_ApplyUpdate
        LOCFRAME ISTACK, 0, STACK
        LOCFRAME PSTACK, 0, STACK
        LOCFRAME XSTACK, 16, STACK
        LOCFRAME IOVERLAY, 0, STATIC
        LOCFRAME DOVERLAY, 0, STATIC
        ARGFRAME ISTACK, 0, STACK
        ARGFRAME PSTACK, 0, STACK
        ARGFRAME XSTACK, 16, STACK
        ARGFRAME IOVERLAY, 0, STATIC
        ARGFRAME DOVERLAY, 0, STATIC
        FUNCALL zclColor_process, hwLight_ApplyUpdate
        LOCFRAME ISTACK, 0, STACK
        LOCFRAME PSTACK, 0, STACK
        LOCFRAME XSTACK, 16, STACK
        LOCFRAME IOVERLAY, 0, STATIC
        LOCFRAME DOVERLAY, 0, STATIC
        ARGFRAME ISTACK, 0, STACK
        ARGFRAME PSTACK, 0, STACK
        ARGFRAME XSTACK, 16, STACK
        ARGFRAME IOVERLAY, 0, STATIC
        ARGFRAME DOVERLAY, 0, STATIC
        FUNCALL zclColor_process, hwLight_ApplyUpdate16b
        LOCFRAME ISTACK, 0, STACK
        LOCFRAME PSTACK, 0, STACK
        LOCFRAME XSTACK, 18, STACK
        LOCFRAME IOVERLAY, 0, STATIC
        LOCFRAME DOVERLAY, 0, STATIC
        ARGFRAME ISTACK, 0, STACK
        ARGFRAME PSTACK, 0, STACK
        ARGFRAME XSTACK, 18, STACK
        ARGFRAME IOVERLAY, 0, STATIC
        ARGFRAME DOVERLAY, 0, STATIC
        FUNCALL zclColor_process, hwLight_ApplyUpdate16b
        LOCFRAME ISTACK, 0, STACK
        LOCFRAME PSTACK, 0, STACK
        LOCFRAME XSTACK, 18, STACK
        LOCFRAME IOVERLAY, 0, STATIC
        LOCFRAME DOVERLAY, 0, STATIC
        ARGFRAME ISTACK, 0, STACK
        ARGFRAME PSTACK, 0, STACK
        ARGFRAME XSTACK, 18, STACK
        ARGFRAME IOVERLAY, 0, STATIC
        ARGFRAME DOVERLAY, 0, STATIC
        FUNCALL zclColor_process, hwLight_ApplyUpdate16b
        LOCFRAME ISTACK, 0, STACK
        LOCFRAME PSTACK, 0, STACK
        LOCFRAME XSTACK, 18, STACK
        LOCFRAME IOVERLAY, 0, STATIC
        LOCFRAME DOVERLAY, 0, STATIC
        ARGFRAME ISTACK, 0, STACK
        ARGFRAME PSTACK, 0, STACK
        ARGFRAME XSTACK, 18, STACK
        ARGFRAME IOVERLAY, 0, STATIC
        ARGFRAME DOVERLAY, 0, STATIC
        FUNCALL zclColor_process, osal_start_timerEx
        LOCFRAME ISTACK, 0, STACK
        LOCFRAME PSTACK, 0, STACK
        LOCFRAME XSTACK, 14, STACK
        LOCFRAME IOVERLAY, 0, STATIC
        LOCFRAME DOVERLAY, 0, STATIC
        ARGFRAME ISTACK, 0, STACK
        ARGFRAME PSTACK, 0, STACK
        ARGFRAME XSTACK, 14, STACK
        ARGFRAME IOVERLAY, 0, STATIC
        ARGFRAME DOVERLAY, 0, STATIC
        MOV     A,#-0xa
        LCALL   ?BANKED_ENTER_XDATA
          CFI DPH0 load(1, XDATA, add(CFA_XSP16, literal(-1)))
          CFI DPL0 load(1, XDATA, add(CFA_XSP16, literal(-2)))
          CFI ?BRET_EXT load(1, XDATA, add(CFA_XSP16, literal(-3)))
          CFI ?RET_HIGH load(1, XDATA, add(CFA_XSP16, literal(-4)))
          CFI ?RET_LOW load(1, XDATA, add(CFA_XSP16, literal(-5)))
          CFI R7 load(1, XDATA, add(CFA_XSP16, literal(-6)))
          CFI V1 load(1, XDATA, add(CFA_XSP16, literal(-7)))
          CFI V0 load(1, XDATA, add(CFA_XSP16, literal(-8)))
          CFI VB load(1, XDATA, add(CFA_XSP16, literal(-9)))
          CFI R6 load(1, XDATA, add(CFA_XSP16, literal(-10)))
          CFI CFA_SP SP+0
          CFI CFA_XSP16 add(XSP16, 10)
        ; Saved register size: 10
        ; Auto size: 0
        MOV     A,R2
        MOV     R6,A
        MOV     A,R3
        MOV     R7,A
//  140   if ( *events & COLOR_PROCESS_EVT )
        MOV     DPL,R6
        MOV     DPH,R7
        MOVX    A,@DPTR
        ANL     A,#0x10
        JNZ     $+5
        LJMP    ??zclColor_process_0 & 0xFFFF
//  141   {
//  142     //update the satruation if mode is hue and saturation
//  143     if( (zclColor_EnhancedColorMode == COLOR_MODE_CURRENT_HUE_SATURATION) ||
//  144         (zclColor_EnhancedColorMode == ENHANCED_COLOR_MODE_ENHANCED_CURRENT_HUE_SATURATION) )
        MOV     DPTR,#zclColor_EnhancedColorMode
        MOVX    A,@DPTR
        JZ      ??zclColor_process_1
        XRL     A,#0x3
        JZ      $+5
        LJMP    ??zclColor_process_2 & 0xFFFF
//  145     {
//  146       if( zclColor_SaturationRemainingTime )
??zclColor_process_1:
        LCALL   ?Subroutine21 & 0xFFFF
??CrossCallReturnLabel_110:
        JZ      ??zclColor_process_3
//  147       {
//  148         hwLight_ApplyUpdate( &zclColor_CurrentSaturation,
//  149                              &zclColor_CurrentSaturation_256,
//  150                              &zclColor_StepSaturation_256,
//  151                              &zclColor_SaturationRemainingTime,
//  152                              COLOR_SAT_MIN, COLOR_SAT_MAX, FALSE );
        ; Setup parameters for call to function hwLight_ApplyUpdate
        MOV     ?V0 + 0,#0x0
        MOV     R0,#?V0 + 0
        LCALL   ?PUSH_XSTACK_I_ONE
          CFI CFA_XSP16 add(XSP16, 11)
        MOV     ?V0 + 0,#-0x2
        MOV     R0,#?V0 + 0
        LCALL   ?PUSH_XSTACK_I_ONE
          CFI CFA_XSP16 add(XSP16, 12)
        MOV     ?V0 + 0,#zclColor_SaturationRemainingTime & 0xff
        MOV     ?V0 + 1,#(zclColor_SaturationRemainingTime >> 8) & 0xff
        MOV     R0,#?V0 + 0
        LCALL   ?PUSH_XSTACK_I_TWO
          CFI CFA_XSP16 add(XSP16, 14)
        MOV     ?V0 + 0,#zclColor_StepSaturation_256 & 0xff
        MOV     ?V0 + 1,#(zclColor_StepSaturation_256 >> 8) & 0xff
        MOV     R0,#?V0 + 0
        LCALL   ?PUSH_XSTACK_I_TWO
          CFI CFA_XSP16 add(XSP16, 16)
        MOV     R1,#0x0
        MOV     R4,#zclColor_CurrentSaturation_256 & 0xff
        MOV     R5,#(zclColor_CurrentSaturation_256 >> 8) & 0xff
        MOV     R2,#zclColor_CurrentSaturation & 0xff
        MOV     R3,#(zclColor_CurrentSaturation >> 8) & 0xff
        LCALL   ??hwLight_ApplyUpdate?relay
        MOV     A,#0x6
        LCALL   ?DEALLOC_XSTACK8
          CFI CFA_XSP16 add(XSP16, 10)
//  153       }
//  154       //update the Hue if mode is hue and saturation
//  155       if( zclColor_HueRemainingTime )
??zclColor_process_3:
        MOV     DPTR,#zclColor_HueRemainingTime
        LCALL   ??Subroutine51_0 & 0xFFFF
??CrossCallReturnLabel_92:
        JZ      ??zclColor_process_4
//  156       {
//  157         hwLight_ApplyUpdate( &zclColor_CurrentHue,
//  158                              &zclColor_CurrentHue_256,
//  159                              &zclColor_StepHue_256,
//  160                              &zclColor_HueRemainingTime,
//  161                              COLOR_HUE_MIN, COLOR_HUE_MAX, TRUE );
        ; Setup parameters for call to function hwLight_ApplyUpdate
        MOV     ?V0 + 0,#0x1
        MOV     R0,#?V0 + 0
        LCALL   ?PUSH_XSTACK_I_ONE
          CFI CFA_XSP16 add(XSP16, 11)
        MOV     ?V0 + 0,#-0x2
        MOV     R0,#?V0 + 0
        LCALL   ?PUSH_XSTACK_I_ONE
          CFI CFA_XSP16 add(XSP16, 12)
        MOV     ?V0 + 0,#zclColor_HueRemainingTime & 0xff
        MOV     ?V0 + 1,#(zclColor_HueRemainingTime >> 8) & 0xff
        MOV     R0,#?V0 + 0
        LCALL   ?PUSH_XSTACK_I_TWO
          CFI CFA_XSP16 add(XSP16, 14)
        MOV     ?V0 + 0,#zclColor_StepHue_256 & 0xff
        MOV     ?V0 + 1,#(zclColor_StepHue_256 >> 8) & 0xff
        MOV     R0,#?V0 + 0
        LCALL   ?PUSH_XSTACK_I_TWO
          CFI CFA_XSP16 add(XSP16, 16)
        MOV     R1,#0x0
        MOV     R4,#zclColor_CurrentHue_256 & 0xff
        MOV     R5,#(zclColor_CurrentHue_256 >> 8) & 0xff
        MOV     R2,#zclColor_CurrentHue & 0xff
        MOV     R3,#(zclColor_CurrentHue >> 8) & 0xff
        LCALL   ??hwLight_ApplyUpdate?relay
        MOV     A,#0x6
        LCALL   ?DEALLOC_XSTACK8
          CFI CFA_XSP16 add(XSP16, 10)
//  162       }
//  163 
//  164       //update the Enhanced Hue if mode is hue and saturation
//  165       if(zclColor_EnhancedHueRemainingTime)
??zclColor_process_4:
        MOV     DPTR,#zclColor_EnhancedHueRemainingTime
        LCALL   ??Subroutine51_0 & 0xFFFF
??CrossCallReturnLabel_93:
        JNZ     $+5
        LJMP    ??zclColor_process_5 & 0xFFFF
//  166       {
//  167         hwLight_ApplyUpdate16b( &zclColor_EnhancedCurrentHue,
//  168                                 &zclColor_EnhancedCurrentHue_256,
//  169                                 &zclColor_StepEnhancedHue_256,
//  170                                 &zclColor_EnhancedHueRemainingTime,
//  171                                 COLOR_ENH_HUE_MIN, COLOR_ENH_HUE_MAX, TRUE );
        ; Setup parameters for call to function hwLight_ApplyUpdate16b
        MOV     ?V0 + 0,#-0x1
        MOV     ?V0 + 1,#-0x1
        MOV     R0,#?V0 + 0
        LCALL   ?PUSH_XSTACK_I_TWO
          CFI CFA_XSP16 add(XSP16, 12)
        CLR     A
        MOV     ?V0 + 0,A
        MOV     ?V0 + 1,A
        MOV     R0,#?V0 + 0
        LCALL   ?PUSH_XSTACK_I_TWO
          CFI CFA_XSP16 add(XSP16, 14)
        MOV     ?V0 + 0,#zclColor_EnhancedHueRemainingTime & 0xff
        MOV     ?V0 + 1,#(zclColor_EnhancedHueRemainingTime >> 8) & 0xff
        MOV     R0,#?V0 + 0
        LCALL   ?PUSH_XSTACK_I_TWO
          CFI CFA_XSP16 add(XSP16, 16)
        MOV     ?V0 + 0,#zclColor_StepEnhancedHue_256 & 0xff
        MOV     ?V0 + 1,#(zclColor_StepEnhancedHue_256 >> 8) & 0xff
        MOV     R0,#?V0 + 0
        LCALL   ?PUSH_XSTACK_I_TWO
          CFI CFA_XSP16 add(XSP16, 18)
        MOV     R1,#0x1
        MOV     R4,#zclColor_EnhancedCurrentHue_256 & 0xff
        MOV     R5,#(zclColor_EnhancedCurrentHue_256 >> 8) & 0xff
        MOV     R2,#zclColor_EnhancedCurrentHue & 0xff
        MOV     R3,#(zclColor_EnhancedCurrentHue >> 8) & 0xff
        LJMP    ??zclColor_process_6 & 0xFFFF
          CFI CFA_XSP16 add(XSP16, 10)
//  172       }
//  173     }
//  174     else if(zclColor_EnhancedColorMode == COLOR_MODE_CURRENT_X_Y)
??zclColor_process_2:
        MOVX    A,@DPTR
        XRL     A,#0x1
        JZ      $+5
        LJMP    ??zclColor_process_5 & 0xFFFF
//  175     {
//  176       if(zclColor_ColorRemainingTime)
        MOV     DPTR,#zclColor_ColorRemainingTime
        LCALL   ??Subroutine51_0 & 0xFFFF
??CrossCallReturnLabel_94:
        JNZ     $+5
        LJMP    ??zclColor_process_7 & 0xFFFF
//  177       {
//  178           hwLight_ApplyUpdate16b( &zclColor_CurrentX,
//  179                                   &zclColor_CurrentX_256,
//  180                                   &zclColor_StepColorX_256,
//  181                                   &zclColor_ColorRemainingTime,
//  182                                   COLOR_XY_MIN, COLOR_XY_MAX, FALSE );
        ; Setup parameters for call to function hwLight_ApplyUpdate16b
        MOV     ?V0 + 0,#-0x1
        MOV     ?V0 + 1,#-0x2
        MOV     R0,#?V0 + 0
        LCALL   ?PUSH_XSTACK_I_TWO
          CFI CFA_XSP16 add(XSP16, 12)
        CLR     A
        MOV     ?V0 + 0,A
        MOV     ?V0 + 1,A
        MOV     R0,#?V0 + 0
        LCALL   ?PUSH_XSTACK_I_TWO
          CFI CFA_XSP16 add(XSP16, 14)
        MOV     ?V0 + 0,#zclColor_ColorRemainingTime & 0xff
        MOV     ?V0 + 1,#(zclColor_ColorRemainingTime >> 8) & 0xff
        MOV     R0,#?V0 + 0
        LCALL   ?PUSH_XSTACK_I_TWO
          CFI CFA_XSP16 add(XSP16, 16)
        MOV     ?V0 + 0,#zclColor_StepColorX_256 & 0xff
        MOV     ?V0 + 1,#(zclColor_StepColorX_256 >> 8) & 0xff
        MOV     R0,#?V0 + 0
        LCALL   ?PUSH_XSTACK_I_TWO
          CFI CFA_XSP16 add(XSP16, 18)
        MOV     R1,#0x0
        MOV     R4,#zclColor_CurrentX_256 & 0xff
        MOV     R5,#(zclColor_CurrentX_256 >> 8) & 0xff
        MOV     R2,#zclColor_CurrentX & 0xff
        MOV     R3,#(zclColor_CurrentX >> 8) & 0xff
        LCALL   ??hwLight_ApplyUpdate16b?relay
        MOV     A,#0x8
        LCALL   ?DEALLOC_XSTACK8
          CFI CFA_XSP16 add(XSP16, 10)
//  183           if(zclColor_ColorRemainingTime != 0xFFFF)
        MOV     DPTR,#zclColor_ColorRemainingTime
        MOVX    A,@DPTR
        CPL     A
        JNZ     ??zclColor_process_8
        INC     DPTR
        MOVX    A,@DPTR
        CPL     A
??zclColor_process_8:
        JZ      ??CrossCallReturnLabel_32
//  184           {
//  185             zclColor_ColorRemainingTime++; //hwLight_ApplyUpdate16b decrements each time.
        LCALL   ?Subroutine18 & 0xFFFF
//  186           }
//  187           hwLight_ApplyUpdate16b( &zclColor_CurrentY,
//  188                                   &zclColor_CurrentY_256,
//  189                                   &zclColor_StepColorY_256,
//  190                                   &zclColor_ColorRemainingTime,
//  191                                   COLOR_XY_MIN, COLOR_XY_MAX, FALSE );
??CrossCallReturnLabel_32:
        ; Setup parameters for call to function hwLight_ApplyUpdate16b
        MOV     ?V0 + 0,#-0x1
        MOV     ?V0 + 1,#-0x2
        MOV     R0,#?V0 + 0
        LCALL   ?PUSH_XSTACK_I_TWO
          CFI CFA_XSP16 add(XSP16, 12)
        CLR     A
        MOV     ?V0 + 0,A
        MOV     ?V0 + 1,A
        MOV     R0,#?V0 + 0
        LCALL   ?PUSH_XSTACK_I_TWO
          CFI CFA_XSP16 add(XSP16, 14)
        MOV     ?V0 + 0,#zclColor_ColorRemainingTime & 0xff
        MOV     ?V0 + 1,#(zclColor_ColorRemainingTime >> 8) & 0xff
        MOV     R0,#?V0 + 0
        LCALL   ?PUSH_XSTACK_I_TWO
          CFI CFA_XSP16 add(XSP16, 16)
        MOV     ?V0 + 0,#zclColor_StepColorY_256 & 0xff
        MOV     ?V0 + 1,#(zclColor_StepColorY_256 >> 8) & 0xff
        MOV     R0,#?V0 + 0
        LCALL   ?PUSH_XSTACK_I_TWO
          CFI CFA_XSP16 add(XSP16, 18)
        MOV     R1,#0x0
        MOV     R4,#zclColor_CurrentY_256 & 0xff
        MOV     R5,#(zclColor_CurrentY_256 >> 8) & 0xff
        MOV     R2,#zclColor_CurrentY & 0xff
        MOV     R3,#(zclColor_CurrentY >> 8) & 0xff
??zclColor_process_6:
        LCALL   ??hwLight_ApplyUpdate16b?relay
        MOV     A,#0x8
        LCALL   ?DEALLOC_XSTACK8
          CFI CFA_XSP16 add(XSP16, 10)
//  192       }
//  193     }
//  194 
//  195     if ( zclColor_ColorRemainingTime || zclColor_SaturationRemainingTime || zclColor_HueRemainingTime || zclColor_EnhancedHueRemainingTime )
??zclColor_process_5:
        MOV     DPTR,#zclColor_ColorRemainingTime
        LCALL   ??Subroutine51_0 & 0xFFFF
??CrossCallReturnLabel_95:
        JNZ     ??zclColor_process_9
??zclColor_process_7:
        LCALL   ?Subroutine21 & 0xFFFF
??CrossCallReturnLabel_111:
        JNZ     ??zclColor_process_9
        MOV     DPTR,#zclColor_HueRemainingTime
        LCALL   ??Subroutine51_0 & 0xFFFF
??CrossCallReturnLabel_96:
        JNZ     ??zclColor_process_9
        MOV     DPTR,#zclColor_EnhancedHueRemainingTime
        LCALL   ??Subroutine51_0 & 0xFFFF
??CrossCallReturnLabel_97:
        JZ      ??zclColor_process_10
//  196     {
//  197       //set a timer to make the change over 100ms
//  198       osal_start_timerEx( zclLight_TaskID, COLOR_PROCESS_EVT, 100 );
??zclColor_process_9:
        ; Setup parameters for call to function osal_start_timerEx
        MOV     DPTR,#__Constant_64
        LCALL   ?PUSH_XSTACK8_X_FOUR
          CFI CFA_XSP16 add(XSP16, 14)
        MOV     R2,#0x10
        MOV     R3,#0x0
        MOV     DPTR,#zclLight_TaskID
        MOVX    A,@DPTR
        MOV     R1,A
        LCALL   ??osal_start_timerEx?relay
        MOV     A,#0x4
        LCALL   ?DEALLOC_XSTACK8
          CFI CFA_XSP16 add(XSP16, 10)
//  199     }
//  200 
//  201     *events = *events ^ COLOR_PROCESS_EVT;
??zclColor_process_10:
        MOV     DPL,R6
        MOV     DPH,R7
        MOVX    A,@DPTR
        XRL     A,#0x10
        MOVX    @DPTR,A
//  202   }
//  203 
//  204   return;
??zclColor_process_0:
        LJMP    ??Subroutine54_0 & 0xFFFF
          CFI EndBlock cfiBlock1
//  205 }
//  206 
//  207 /*********************************************************************
//  208  * @fn          zclColor_process_color_loop_event
//  209  *
//  210  * @brief       color loop Event Processor for zclLighting.
//  211  *              Move the hue according to the required direction and cycle time attributes,
//  212  *              in steps of 100ms.
//  213  *
//  214  * @param       events vector
//  215  *
//  216  * @return      none
//  217  */

        RSEG BANKED_CODE:CODE:NOROOT(0)
//  218 void zclColor_processColorLoop( uint16 *events )
zclColor_processColorLoop:
          CFI Block cfiBlock2 Using cfiCommon0
          CFI Function zclColor_processColorLoop
        CODE
//  219 {
        FUNCALL zclColor_processColorLoop, hwLight_UpdateColorMode
        LOCFRAME ISTACK, 0, STACK
        LOCFRAME PSTACK, 0, STACK
        LOCFRAME XSTACK, 18, STACK
        LOCFRAME IOVERLAY, 0, STATIC
        LOCFRAME DOVERLAY, 0, STATIC
        ARGFRAME ISTACK, 0, STACK
        ARGFRAME PSTACK, 0, STACK
        ARGFRAME XSTACK, 18, STACK
        ARGFRAME IOVERLAY, 0, STATIC
        ARGFRAME DOVERLAY, 0, STATIC
        FUNCALL zclColor_processColorLoop, hwLight_ApplyUpdate16b
        LOCFRAME ISTACK, 0, STACK
        LOCFRAME PSTACK, 0, STACK
        LOCFRAME XSTACK, 26, STACK
        LOCFRAME IOVERLAY, 0, STATIC
        LOCFRAME DOVERLAY, 0, STATIC
        ARGFRAME ISTACK, 0, STACK
        ARGFRAME PSTACK, 0, STACK
        ARGFRAME XSTACK, 26, STACK
        ARGFRAME IOVERLAY, 0, STATIC
        ARGFRAME DOVERLAY, 0, STATIC
        FUNCALL zclColor_processColorLoop, osal_start_timerEx
        LOCFRAME ISTACK, 0, STACK
        LOCFRAME PSTACK, 0, STACK
        LOCFRAME XSTACK, 22, STACK
        LOCFRAME IOVERLAY, 0, STATIC
        LOCFRAME DOVERLAY, 0, STATIC
        ARGFRAME ISTACK, 0, STACK
        ARGFRAME PSTACK, 0, STACK
        ARGFRAME XSTACK, 22, STACK
        ARGFRAME IOVERLAY, 0, STATIC
        ARGFRAME DOVERLAY, 0, STATIC
        MOV     A,#-0x10
        LCALL   ?BANKED_ENTER_XDATA
          CFI DPH0 load(1, XDATA, add(CFA_XSP16, literal(-1)))
          CFI DPL0 load(1, XDATA, add(CFA_XSP16, literal(-2)))
          CFI ?BRET_EXT load(1, XDATA, add(CFA_XSP16, literal(-3)))
          CFI ?RET_HIGH load(1, XDATA, add(CFA_XSP16, literal(-4)))
          CFI ?RET_LOW load(1, XDATA, add(CFA_XSP16, literal(-5)))
          CFI R7 load(1, XDATA, add(CFA_XSP16, literal(-6)))
          CFI V7 load(1, XDATA, add(CFA_XSP16, literal(-7)))
          CFI V6 load(1, XDATA, add(CFA_XSP16, literal(-8)))
          CFI V5 load(1, XDATA, add(CFA_XSP16, literal(-9)))
          CFI V4 load(1, XDATA, add(CFA_XSP16, literal(-10)))
          CFI V3 load(1, XDATA, add(CFA_XSP16, literal(-11)))
          CFI V2 load(1, XDATA, add(CFA_XSP16, literal(-12)))
          CFI V1 load(1, XDATA, add(CFA_XSP16, literal(-13)))
          CFI V0 load(1, XDATA, add(CFA_XSP16, literal(-14)))
          CFI VB load(1, XDATA, add(CFA_XSP16, literal(-15)))
          CFI R6 load(1, XDATA, add(CFA_XSP16, literal(-16)))
          CFI CFA_SP SP+0
          CFI CFA_XSP16 add(XSP16, 16)
        ; Saved register size: 16
        ; Auto size: 2
        MOV     A,#-0x2
        LCALL   ?ALLOC_XSTACK8
          CFI CFA_XSP16 add(XSP16, 18)
        MOV     A,R2
        MOV     R6,A
        MOV     A,R3
        MOV     R7,A
//  220   if ( *events & COLOR_LOOP_PROCESS_EVT )
        MOV     DPL,R6
        MOV     DPH,R7
        MOVX    A,@DPTR
        ANL     A,#0x20
        JNZ     $+5
        LJMP    ??zclColor_processColorLoop_0 & 0xFFFF
//  221   {
//  222     if ( zclColor_ColorLoopActive )
        MOV     DPTR,#zclColor_ColorLoopActive
        MOVX    A,@DPTR
        JNZ     $+5
        LJMP    ??zclColor_processColorLoop_1 & 0xFFFF
//  223     {
//  224       uint16 indefiniteRemainingTime = 0xFFFF;
        MOV     DPL,?XSP + 0
        MOV     DPH,?XSP + 1
        MOV     A,#-0x1
        MOVX    @DPTR,A
        INC     DPTR
        MOVX    @DPTR,A
//  225 
//  226       hwLight_UpdateColorMode(COLOR_MODE_CURRENT_HUE_SATURATION);
        ; Setup parameters for call to function hwLight_UpdateColorMode
        MOV     R1,#0x0
        LCALL   ??hwLight_UpdateColorMode?relay
//  227       zclColor_EnhancedCurrentHue_256 = (uint32)zclColor_EnhancedCurrentHue<<8;
        MOV     DPTR,#zclColor_EnhancedCurrentHue
        LCALL   ?Subroutine31 & 0xFFFF
??CrossCallReturnLabel_55:
        MOV     R4,#0x0
        CLR     A
        XCH     A,R2
        LCALL   ?Subroutine6 & 0xFFFF
//  228       zclColor_ColorMode=COLOR_MODE_CURRENT_HUE_SATURATION;
//  229       zclColor_EnhancedColorMode=ENHANCED_COLOR_MODE_ENHANCED_CURRENT_HUE_SATURATION;
//  230 
//  231       zclColor_StepEnhancedHue_256 = ((int32)COLOR_ENH_HUE_MAX<<8) / ( 10 * zclColor_ColorLoopTime );
??CrossCallReturnLabel_4:
        MOV     ?V0 + 4,R2
        MOV     ?V0 + 5,#-0x1
        MOV     ?V0 + 6,#-0x1
        MOV     ?V0 + 7,R2
        MOV     DPTR,#zclColor_ColorLoopTime
        LCALL   ?Subroutine48 & 0xFFFF
??CrossCallReturnLabel_122:
        MOV     A,?V0 + 0
        MOV     B,#0xa
        MUL     AB
        MOV     ?V0 + 0,A
        MOV     R0,B
        MOV     B,#0xa
        MOV     A,?V0 + 1
        MUL     AB
        ADD     A,R0
        MOV     ?V0 + 1,A
        CLR     A
        MOV     ?V0 + 2,A
        MOV     ?V0 + 3,A
        MOV     R0,#?V0 + 4
        MOV     R1,#?V0 + 0
        LCALL   ?L_DIV_MOD
        MOV     DPTR,#zclColor_StepEnhancedHue_256
        MOV     R0,#?V0 + 4
        LCALL   ?L_MOV_TO_X
//  232       if ( zclColor_ColorLoopDirection == LIGHTING_COLOR_LOOP_DIRECTION_DECREMENT )
        MOV     DPTR,#zclColor_ColorLoopDirection
        MOVX    A,@DPTR
        JNZ     ??zclColor_processColorLoop_2
//  233       {
//  234         zclColor_StepEnhancedHue_256 = -zclColor_StepEnhancedHue_256;
        MOV     DPTR,#zclColor_StepEnhancedHue_256
        MOV     R0,#?V0 + 0
        LCALL   ?L_MOV_X
        MOV     R0,#?V0 + 0
        LCALL   ?L_NEG
        MOV     DPTR,#zclColor_StepEnhancedHue_256
        MOV     R0,#?V0 + 0
        LCALL   ?L_MOV_TO_X
//  235       }
//  236 
//  237       hwLight_ApplyUpdate16b( &zclColor_EnhancedCurrentHue,
//  238                               &zclColor_EnhancedCurrentHue_256,
//  239                               &zclColor_StepEnhancedHue_256,
//  240                               &indefiniteRemainingTime,
//  241                               COLOR_ENH_HUE_MIN, COLOR_ENH_HUE_MAX, TRUE);
??zclColor_processColorLoop_2:
        ; Setup parameters for call to function hwLight_ApplyUpdate16b
        MOV     ?V0 + 0,#-0x1
        MOV     ?V0 + 1,#-0x1
        MOV     R0,#?V0 + 0
        LCALL   ?PUSH_XSTACK_I_TWO
          CFI CFA_XSP16 add(XSP16, 20)
        CLR     A
        MOV     ?V0 + 0,A
        MOV     ?V0 + 1,A
        MOV     R0,#?V0 + 0
        LCALL   ?PUSH_XSTACK_I_TWO
          CFI CFA_XSP16 add(XSP16, 22)
        MOV     A,#0x4
        LCALL   ?XSTACK_DISP0_8
        MOV     ?V0 + 0,DPL
        MOV     ?V0 + 1,DPH
        MOV     R0,#?V0 + 0
        LCALL   ?PUSH_XSTACK_I_TWO
          CFI CFA_XSP16 add(XSP16, 24)
        MOV     ?V0 + 0,#zclColor_StepEnhancedHue_256 & 0xff
        MOV     ?V0 + 1,#(zclColor_StepEnhancedHue_256 >> 8) & 0xff
        MOV     R0,#?V0 + 0
        LCALL   ?PUSH_XSTACK_I_TWO
          CFI CFA_XSP16 add(XSP16, 26)
        MOV     R1,#0x1
        MOV     R4,#zclColor_EnhancedCurrentHue_256 & 0xff
        MOV     R5,#(zclColor_EnhancedCurrentHue_256 >> 8) & 0xff
        MOV     R2,#zclColor_EnhancedCurrentHue & 0xff
        MOV     R3,#(zclColor_EnhancedCurrentHue >> 8) & 0xff
        LCALL   ??hwLight_ApplyUpdate16b?relay
        MOV     A,#0x8
        LCALL   ?DEALLOC_XSTACK8
          CFI CFA_XSP16 add(XSP16, 18)
//  242 
//  243       //set a timer to make the change over 100ms
//  244       osal_start_timerEx( zclLight_TaskID, COLOR_LOOP_PROCESS_EVT , 100 );
        ; Setup parameters for call to function osal_start_timerEx
        MOV     DPTR,#__Constant_64
        LCALL   ?PUSH_XSTACK8_X_FOUR
          CFI CFA_XSP16 add(XSP16, 22)
        MOV     R2,#0x20
        MOV     R3,#0x0
        MOV     DPTR,#zclLight_TaskID
        MOVX    A,@DPTR
        MOV     R1,A
        LCALL   ??osal_start_timerEx?relay
        MOV     A,#0x4
        LCALL   ?DEALLOC_XSTACK8
          CFI CFA_XSP16 add(XSP16, 18)
//  245     }
//  246     *events = *events ^ COLOR_LOOP_PROCESS_EVT;
??zclColor_processColorLoop_1:
        MOV     DPL,R6
        MOV     DPH,R7
        MOVX    A,@DPTR
        XRL     A,#0x20
        MOVX    @DPTR,A
//  247   }
//  248 
//  249   return;
??zclColor_processColorLoop_0:
        MOV     A,#0x2
        LCALL   ?DEALLOC_XSTACK8
          CFI CFA_XSP16 add(XSP16, 16)
        LJMP    ?Subroutine1 & 0xFFFF
          CFI EndBlock cfiBlock2
//  250 }
//  251 
//  252 /*********************************************************************
//  253  * @fn      zclColor_MoveToColorCB
//  254  *
//  255  * @brief   This callback is called to process a move to color
//  256  *          Request command.
//  257  *
//  258  * @param   pCmd - command
//  259  *
//  260  * @return  status
//  261  */

        RSEG BANKED_CODE:CODE:NOROOT(0)
//  262 ZStatus_t zclColor_MoveToColorCB( zclCCMoveToColor_t *pCmd )
zclColor_MoveToColorCB:
          CFI Block cfiBlock3 Using cfiCommon0
          CFI Function zclColor_MoveToColorCB
        CODE
//  263 {
        FUNCALL zclColor_MoveToColorCB, hwLight_UpdateColorMode
        LOCFRAME ISTACK, 0, STACK
        LOCFRAME PSTACK, 0, STACK
        LOCFRAME XSTACK, 24, STACK
        LOCFRAME IOVERLAY, 0, STATIC
        LOCFRAME DOVERLAY, 0, STATIC
        ARGFRAME ISTACK, 0, STACK
        ARGFRAME PSTACK, 0, STACK
        ARGFRAME XSTACK, 24, STACK
        ARGFRAME IOVERLAY, 0, STATIC
        ARGFRAME DOVERLAY, 0, STATIC
        FUNCALL zclColor_MoveToColorCB, hwLight_ApplyUpdate16b
        LOCFRAME ISTACK, 0, STACK
        LOCFRAME PSTACK, 0, STACK
        LOCFRAME XSTACK, 32, STACK
        LOCFRAME IOVERLAY, 0, STATIC
        LOCFRAME DOVERLAY, 0, STATIC
        ARGFRAME ISTACK, 0, STACK
        ARGFRAME PSTACK, 0, STACK
        ARGFRAME XSTACK, 32, STACK
        ARGFRAME IOVERLAY, 0, STATIC
        ARGFRAME DOVERLAY, 0, STATIC
        FUNCALL zclColor_MoveToColorCB, hwLight_ApplyUpdate16b
        LOCFRAME ISTACK, 0, STACK
        LOCFRAME PSTACK, 0, STACK
        LOCFRAME XSTACK, 32, STACK
        LOCFRAME IOVERLAY, 0, STATIC
        LOCFRAME DOVERLAY, 0, STATIC
        ARGFRAME ISTACK, 0, STACK
        ARGFRAME PSTACK, 0, STACK
        ARGFRAME XSTACK, 32, STACK
        ARGFRAME IOVERLAY, 0, STATIC
        ARGFRAME DOVERLAY, 0, STATIC
        FUNCALL zclColor_MoveToColorCB, osal_start_timerEx
        LOCFRAME ISTACK, 0, STACK
        LOCFRAME PSTACK, 0, STACK
        LOCFRAME XSTACK, 28, STACK
        LOCFRAME IOVERLAY, 0, STATIC
        LOCFRAME DOVERLAY, 0, STATIC
        ARGFRAME ISTACK, 0, STACK
        ARGFRAME PSTACK, 0, STACK
        ARGFRAME XSTACK, 28, STACK
        ARGFRAME IOVERLAY, 0, STATIC
        ARGFRAME DOVERLAY, 0, STATIC
        MOV     A,#-0x18
        LCALL   ?BANKED_ENTER_XDATA
          CFI DPH0 load(1, XDATA, add(CFA_XSP16, literal(-1)))
          CFI DPL0 load(1, XDATA, add(CFA_XSP16, literal(-2)))
          CFI ?BRET_EXT load(1, XDATA, add(CFA_XSP16, literal(-3)))
          CFI ?RET_HIGH load(1, XDATA, add(CFA_XSP16, literal(-4)))
          CFI ?RET_LOW load(1, XDATA, add(CFA_XSP16, literal(-5)))
          CFI R7 load(1, XDATA, add(CFA_XSP16, literal(-6)))
          CFI V15 load(1, XDATA, add(CFA_XSP16, literal(-7)))
          CFI V14 load(1, XDATA, add(CFA_XSP16, literal(-8)))
          CFI V13 load(1, XDATA, add(CFA_XSP16, literal(-9)))
          CFI V12 load(1, XDATA, add(CFA_XSP16, literal(-10)))
          CFI V11 load(1, XDATA, add(CFA_XSP16, literal(-11)))
          CFI V10 load(1, XDATA, add(CFA_XSP16, literal(-12)))
          CFI V9 load(1, XDATA, add(CFA_XSP16, literal(-13)))
          CFI V8 load(1, XDATA, add(CFA_XSP16, literal(-14)))
          CFI V7 load(1, XDATA, add(CFA_XSP16, literal(-15)))
          CFI V6 load(1, XDATA, add(CFA_XSP16, literal(-16)))
          CFI V5 load(1, XDATA, add(CFA_XSP16, literal(-17)))
          CFI V4 load(1, XDATA, add(CFA_XSP16, literal(-18)))
          CFI V3 load(1, XDATA, add(CFA_XSP16, literal(-19)))
          CFI V2 load(1, XDATA, add(CFA_XSP16, literal(-20)))
          CFI V1 load(1, XDATA, add(CFA_XSP16, literal(-21)))
          CFI V0 load(1, XDATA, add(CFA_XSP16, literal(-22)))
          CFI VB load(1, XDATA, add(CFA_XSP16, literal(-23)))
          CFI R6 load(1, XDATA, add(CFA_XSP16, literal(-24)))
          CFI CFA_SP SP+0
          CFI CFA_XSP16 add(XSP16, 24)
        ; Saved register size: 24
        ; Auto size: 0
        MOV     A,R2
        MOV     R6,A
        MOV     A,R3
        MOV     R7,A
//  264   hwLight_UpdateColorMode(COLOR_MODE_CURRENT_X_Y);
        ; Setup parameters for call to function hwLight_UpdateColorMode
        MOV     R1,#0x1
        LCALL   ??hwLight_UpdateColorMode?relay
//  265   zclColor_CurrentX_256 = ((int32)zclColor_CurrentX)<<8;
        MOV     DPTR,#zclColor_CurrentX
        LCALL   ??Subroutine52_0 & 0xFFFF
??CrossCallReturnLabel_115:
        MOV     R3,?V0 + 1
        MOV     R4,A
        MOV     A,?V0 + 0
        LCALL   ?Subroutine11 & 0xFFFF
//  266   zclColor_CurrentY_256 = ((int32)zclColor_CurrentY)<<8;
??CrossCallReturnLabel_12:
        MOV     ?V0 + 4,A
        INC     DPTR
        MOVX    A,@DPTR
        MOV     ?V0 + 5,A
        CLR     A
        MOV     ?V0 + 6,A
        MOV     ?V0 + 7,A
        MOV     R3,?V0 + 5
        MOV     R4,A
        MOV     A,?V0 + 4
        LCALL   ?Subroutine4 & 0xFFFF
//  267   zclColor_ColorMode=COLOR_MODE_CURRENT_X_Y;
//  268   zclColor_EnhancedColorMode=COLOR_MODE_CURRENT_X_Y;
//  269 
//  270   //if transition time = 0 then do immediately
//  271   if ( pCmd->transitionTime == 0 )
??CrossCallReturnLabel_0:
        JNZ     ??zclColor_MoveToColorCB_0
//  272   {
//  273       zclColor_ColorRemainingTime = 1;
        MOV     A,#0x1
        MOVX    @DPTR,A
        INC     DPTR
        CLR     A
        SJMP    ??zclColor_MoveToColorCB_1
//  274   }
//  275   else
//  276   {
//  277     zclColor_ColorRemainingTime = pCmd->transitionTime;
??zclColor_MoveToColorCB_0:
        MOV     A,R0
        MOVX    @DPTR,A
        INC     DPTR
        MOV     A,R1
??zclColor_MoveToColorCB_1:
        MOVX    @DPTR,A
//  278   }
//  279 
//  280   zclColor_StepColorX_256 = ((int32)pCmd->colorX - zclColor_CurrentX)<<8;
//  281   zclColor_StepColorX_256 /= (int32)zclColor_ColorRemainingTime;
        MOV     DPTR,#zclColor_ColorRemainingTime
        MOVX    A,@DPTR
        MOV     ?V0 + 8,A
        INC     DPTR
        MOVX    A,@DPTR
        MOV     ?V0 + 9,A
        CLR     A
        MOV     ?V0 + 10,A
        MOV     ?V0 + 11,A
        MOV     DPL,R6
        MOV     DPH,R7
        MOVX    A,@DPTR
        MOV     ?V0 + 12,A
        INC     DPTR
        MOVX    A,@DPTR
        MOV     ?V0 + 13,A
        CLR     A
        MOV     ?V0 + 14,A
        MOV     ?V0 + 15,A
        MOV     R0,#?V0 + 12
        MOV     R1,#?V0 + 0
        LCALL   ?L_SUB
        MOV     A,#0x8
        MOV     R0,#?V0 + 12
        LCALL   ?L_SHL
        MOV     ?V0 + 0,?V0 + 8
        MOV     ?V0 + 1,?V0 + 9
        MOV     R0,#?V0 + 12
        MOV     R1,#?V0 + 0
        LCALL   ?L_DIV_MOD
        MOV     DPTR,#zclColor_StepColorX_256
        MOV     R0,#?V0 + 12
        LCALL   ?L_MOV_TO_X
//  282   zclColor_StepColorY_256 = ((int32)pCmd->colorY - zclColor_CurrentY)<<8;
//  283   zclColor_StepColorY_256 /= (int32)zclColor_ColorRemainingTime;
        MOV     DPL,R6
        MOV     DPH,R7
        INC     DPTR
        LCALL   ?Subroutine25 & 0xFFFF
??CrossCallReturnLabel_45:
        MOV     R1,#?V0 + 4
        LCALL   ?L_SUB
        MOV     A,#0x8
        MOV     R0,#?V0 + 0
        LCALL   ?L_SHL
        MOV     R0,#?V0 + 0
        MOV     R1,#?V0 + 8
        LCALL   ?L_DIV_MOD
        MOV     DPTR,#zclColor_StepColorY_256
        MOV     R0,#?V0 + 0
        LCALL   ?L_MOV_TO_X
//  284 
//  285   hwLight_ApplyUpdate16b( &zclColor_CurrentX,
//  286                           &zclColor_CurrentX_256,
//  287                           &zclColor_StepColorX_256,
//  288                           &zclColor_ColorRemainingTime,
//  289                           COLOR_XY_MIN, COLOR_XY_MAX, FALSE );
        ; Setup parameters for call to function hwLight_ApplyUpdate16b
        MOV     ?V0 + 0,#-0x1
        MOV     ?V0 + 1,#-0x2
        MOV     R0,#?V0 + 0
        LCALL   ?PUSH_XSTACK_I_TWO
          CFI CFA_XSP16 add(XSP16, 26)
        CLR     A
        MOV     ?V0 + 0,A
        MOV     ?V0 + 1,A
        MOV     R0,#?V0 + 0
        LCALL   ?PUSH_XSTACK_I_TWO
          CFI CFA_XSP16 add(XSP16, 28)
        MOV     ?V0 + 0,#zclColor_ColorRemainingTime & 0xff
        MOV     ?V0 + 1,#(zclColor_ColorRemainingTime >> 8) & 0xff
        MOV     R0,#?V0 + 0
        LCALL   ?PUSH_XSTACK_I_TWO
          CFI CFA_XSP16 add(XSP16, 30)
        MOV     ?V0 + 0,#zclColor_StepColorX_256 & 0xff
        MOV     ?V0 + 1,#(zclColor_StepColorX_256 >> 8) & 0xff
        MOV     R0,#?V0 + 0
        LCALL   ?PUSH_XSTACK_I_TWO
          CFI CFA_XSP16 add(XSP16, 32)
        MOV     R1,#0x0
        MOV     R4,#zclColor_CurrentX_256 & 0xff
        MOV     R5,#(zclColor_CurrentX_256 >> 8) & 0xff
        MOV     R2,#zclColor_CurrentX & 0xff
        MOV     R3,#(zclColor_CurrentX >> 8) & 0xff
        LCALL   ??hwLight_ApplyUpdate16b?relay
        MOV     A,#0x8
        LCALL   ?DEALLOC_XSTACK8
          CFI CFA_XSP16 add(XSP16, 24)
//  290   if ( zclColor_ColorRemainingTime != 0xFFFF )
        MOV     DPTR,#zclColor_ColorRemainingTime
        MOVX    A,@DPTR
        CPL     A
        JNZ     ??zclColor_MoveToColorCB_2
        INC     DPTR
        MOVX    A,@DPTR
        CPL     A
??zclColor_MoveToColorCB_2:
        JZ      ??CrossCallReturnLabel_33
//  291   {
//  292     zclColor_ColorRemainingTime++;
        LCALL   ?Subroutine18 & 0xFFFF
//  293   }
//  294   hwLight_ApplyUpdate16b( &zclColor_CurrentY,
//  295                           &zclColor_CurrentY_256,
//  296                           &zclColor_StepColorY_256,
//  297                           &zclColor_ColorRemainingTime,
//  298                           COLOR_XY_MIN, COLOR_XY_MAX, FALSE );
??CrossCallReturnLabel_33:
        ; Setup parameters for call to function hwLight_ApplyUpdate16b
        MOV     ?V0 + 0,#-0x1
        MOV     ?V0 + 1,#-0x2
        MOV     R0,#?V0 + 0
        LCALL   ?PUSH_XSTACK_I_TWO
          CFI CFA_XSP16 add(XSP16, 26)
        CLR     A
        MOV     ?V0 + 0,A
        MOV     ?V0 + 1,A
        MOV     R0,#?V0 + 0
        LCALL   ?PUSH_XSTACK_I_TWO
          CFI CFA_XSP16 add(XSP16, 28)
        MOV     ?V0 + 0,#zclColor_ColorRemainingTime & 0xff
        MOV     ?V0 + 1,#(zclColor_ColorRemainingTime >> 8) & 0xff
        MOV     R0,#?V0 + 0
        LCALL   ?PUSH_XSTACK_I_TWO
          CFI CFA_XSP16 add(XSP16, 30)
        MOV     ?V0 + 0,#zclColor_StepColorY_256 & 0xff
        MOV     ?V0 + 1,#(zclColor_StepColorY_256 >> 8) & 0xff
        MOV     R0,#?V0 + 0
        LCALL   ?PUSH_XSTACK_I_TWO
          CFI CFA_XSP16 add(XSP16, 32)
        MOV     R1,#0x0
        MOV     R4,#zclColor_CurrentY_256 & 0xff
        MOV     R5,#(zclColor_CurrentY_256 >> 8) & 0xff
        MOV     R2,#zclColor_CurrentY & 0xff
        MOV     R3,#(zclColor_CurrentY >> 8) & 0xff
        LCALL   ??hwLight_ApplyUpdate16b?relay
        MOV     A,#0x8
        LCALL   ?DEALLOC_XSTACK8
          CFI CFA_XSP16 add(XSP16, 24)
//  299 
//  300   if ( zclColor_ColorRemainingTime )
        MOV     DPTR,#zclColor_ColorRemainingTime
        LCALL   ??Subroutine51_0 & 0xFFFF
??CrossCallReturnLabel_98:
        JZ      ??zclColor_MoveToColorCB_3
//  301   {
//  302     //set a timer to make the change over 100ms
//  303     osal_start_timerEx( zclLight_TaskID, COLOR_PROCESS_EVT , 100 );
        ; Setup parameters for call to function osal_start_timerEx
        MOV     DPTR,#__Constant_64
        LCALL   ?PUSH_XSTACK8_X_FOUR
          CFI CFA_XSP16 add(XSP16, 28)
        MOV     R2,#0x10
        MOV     R3,#0x0
        MOV     DPTR,#zclLight_TaskID
        MOVX    A,@DPTR
        MOV     R1,A
        LCALL   ??osal_start_timerEx?relay
        MOV     A,#0x4
        LCALL   ?DEALLOC_XSTACK8
          CFI CFA_XSP16 add(XSP16, 24)
//  304   }
//  305 
//  306   return ( ZSuccess );
??zclColor_MoveToColorCB_3:
        MOV     R1,#0x0
        MOV     R7,#0x10
        LJMP    ?BANKED_LEAVE_XDATA
          CFI EndBlock cfiBlock3
//  307 }

        RSEG BANKED_CODE:CODE:NOROOT(0)
?Subroutine18:
          CFI Block cfiCond4 Using cfiCommon0
          CFI Function zclColor_process
          CFI Conditional ??CrossCallReturnLabel_32
          CFI R6 load(1, XDATA, add(CFA_XSP16, literal(-10)))
          CFI VB load(1, XDATA, add(CFA_XSP16, literal(-9)))
          CFI V0 load(1, XDATA, add(CFA_XSP16, literal(-8)))
          CFI V1 load(1, XDATA, add(CFA_XSP16, literal(-7)))
          CFI R7 load(1, XDATA, add(CFA_XSP16, literal(-6)))
          CFI ?RET_LOW load(1, XDATA, add(CFA_XSP16, literal(-5)))
          CFI ?RET_HIGH load(1, XDATA, add(CFA_XSP16, literal(-4)))
          CFI ?BRET_EXT load(1, XDATA, add(CFA_XSP16, literal(-3)))
          CFI DPL0 load(1, XDATA, add(CFA_XSP16, literal(-2)))
          CFI DPH0 load(1, XDATA, add(CFA_XSP16, literal(-1)))
          CFI CFA_SP SP+0
          CFI CFA_XSP16 add(XSP16, 10)
          CFI Block cfiCond5 Using cfiCommon0
          CFI (cfiCond5) Function zclColor_MoveToColorCB
          CFI (cfiCond5) Conditional ??CrossCallReturnLabel_33
          CFI (cfiCond5) R6 load(1, XDATA, add(CFA_XSP16, literal(-24)))
          CFI (cfiCond5) VB load(1, XDATA, add(CFA_XSP16, literal(-23)))
          CFI (cfiCond5) V0 load(1, XDATA, add(CFA_XSP16, literal(-22)))
          CFI (cfiCond5) V1 load(1, XDATA, add(CFA_XSP16, literal(-21)))
          CFI (cfiCond5) V2 load(1, XDATA, add(CFA_XSP16, literal(-20)))
          CFI (cfiCond5) V3 load(1, XDATA, add(CFA_XSP16, literal(-19)))
          CFI (cfiCond5) V4 load(1, XDATA, add(CFA_XSP16, literal(-18)))
          CFI (cfiCond5) V5 load(1, XDATA, add(CFA_XSP16, literal(-17)))
          CFI (cfiCond5) V6 load(1, XDATA, add(CFA_XSP16, literal(-16)))
          CFI (cfiCond5) V7 load(1, XDATA, add(CFA_XSP16, literal(-15)))
          CFI (cfiCond5) V8 load(1, XDATA, add(CFA_XSP16, literal(-14)))
          CFI (cfiCond5) V9 load(1, XDATA, add(CFA_XSP16, literal(-13)))
          CFI (cfiCond5) V10 load(1, XDATA, add(CFA_XSP16, literal(-12)))
          CFI (cfiCond5) V11 load(1, XDATA, add(CFA_XSP16, literal(-11)))
          CFI (cfiCond5) V12 load(1, XDATA, add(CFA_XSP16, literal(-10)))
          CFI (cfiCond5) V13 load(1, XDATA, add(CFA_XSP16, literal(-9)))
          CFI (cfiCond5) V14 load(1, XDATA, add(CFA_XSP16, literal(-8)))
          CFI (cfiCond5) V15 load(1, XDATA, add(CFA_XSP16, literal(-7)))
          CFI (cfiCond5) R7 load(1, XDATA, add(CFA_XSP16, literal(-6)))
          CFI (cfiCond5) ?RET_LOW load(1, XDATA, add(CFA_XSP16, literal(-5)))
          CFI (cfiCond5) ?RET_HIGH load(1, XDATA, add(CFA_XSP16, literal(-4)))
          CFI (cfiCond5) ?BRET_EXT load(1, XDATA, add(CFA_XSP16, literal(-3)))
          CFI (cfiCond5) DPL0 load(1, XDATA, add(CFA_XSP16, literal(-2)))
          CFI (cfiCond5) DPH0 load(1, XDATA, add(CFA_XSP16, literal(-1)))
          CFI (cfiCond5) CFA_SP SP+0
          CFI (cfiCond5) CFA_XSP16 add(XSP16, 24)
          CFI Block cfiCond6 Using cfiCommon0
          CFI (cfiCond6) Function zclColor_StepColorCB
          CFI (cfiCond6) Conditional ??CrossCallReturnLabel_34
          CFI (cfiCond6) R6 load(1, XDATA, add(CFA_XSP16, literal(-20)))
          CFI (cfiCond6) VB load(1, XDATA, add(CFA_XSP16, literal(-19)))
          CFI (cfiCond6) V0 load(1, XDATA, add(CFA_XSP16, literal(-18)))
          CFI (cfiCond6) V1 load(1, XDATA, add(CFA_XSP16, literal(-17)))
          CFI (cfiCond6) V2 load(1, XDATA, add(CFA_XSP16, literal(-16)))
          CFI (cfiCond6) V3 load(1, XDATA, add(CFA_XSP16, literal(-15)))
          CFI (cfiCond6) V4 load(1, XDATA, add(CFA_XSP16, literal(-14)))
          CFI (cfiCond6) V5 load(1, XDATA, add(CFA_XSP16, literal(-13)))
          CFI (cfiCond6) V6 load(1, XDATA, add(CFA_XSP16, literal(-12)))
          CFI (cfiCond6) V7 load(1, XDATA, add(CFA_XSP16, literal(-11)))
          CFI (cfiCond6) V8 load(1, XDATA, add(CFA_XSP16, literal(-10)))
          CFI (cfiCond6) V9 load(1, XDATA, add(CFA_XSP16, literal(-9)))
          CFI (cfiCond6) V10 load(1, XDATA, add(CFA_XSP16, literal(-8)))
          CFI (cfiCond6) V11 load(1, XDATA, add(CFA_XSP16, literal(-7)))
          CFI (cfiCond6) R7 load(1, XDATA, add(CFA_XSP16, literal(-6)))
          CFI (cfiCond6) ?RET_LOW load(1, XDATA, add(CFA_XSP16, literal(-5)))
          CFI (cfiCond6) ?RET_HIGH load(1, XDATA, add(CFA_XSP16, literal(-4)))
          CFI (cfiCond6) ?BRET_EXT load(1, XDATA, add(CFA_XSP16, literal(-3)))
          CFI (cfiCond6) DPL0 load(1, XDATA, add(CFA_XSP16, literal(-2)))
          CFI (cfiCond6) DPH0 load(1, XDATA, add(CFA_XSP16, literal(-1)))
          CFI (cfiCond6) CFA_SP SP+0
          CFI (cfiCond6) CFA_XSP16 add(XSP16, 20)
          CFI Block cfiPicker7 Using cfiCommon1
          CFI (cfiPicker7) NoFunction
          CFI (cfiPicker7) Picker
        MOV     DPTR,#zclColor_ColorRemainingTime
        MOVX    A,@DPTR
        ADD     A,#0x1
        MOVX    @DPTR,A
        INC     DPTR
        MOVX    A,@DPTR
        ADDC    A,#0x0
        MOVX    @DPTR,A
        RET
          CFI EndBlock cfiCond4
          CFI EndBlock cfiCond5
          CFI EndBlock cfiCond6
          CFI EndBlock cfiPicker7
//  308 
//  309 /*********************************************************************
//  310  * @fn      zclColor_MoveColorCB
//  311  *
//  312  * @brief   Callback from the ZCL Lighting Cluster Library when
//  313  *          it received a Color Control - Move Color Command for
//  314  *          this application.
//  315  *
//  316  * @param   rateX - the movement in steps per second for x, where step is a
//  317  *                 change in the device's x of one unit
//  318  * @param   rateY - the movement in steps per second for y, where step is a
//  319  *                 change in the device's y of one unit
//  320  *
//  321  * @return  none
//  322  */

        RSEG BANKED_CODE:CODE:NOROOT(0)
//  323 void zclColor_MoveColorCB( zclCCMoveColor_t *pCmd )
zclColor_MoveColorCB:
          CFI Block cfiBlock8 Using cfiCommon0
          CFI Function zclColor_MoveColorCB
        CODE
//  324 {
        FUNCALL zclColor_MoveColorCB, hwLight_UpdateColorMode
        LOCFRAME ISTACK, 0, STACK
        LOCFRAME PSTACK, 0, STACK
        LOCFRAME XSTACK, 16, STACK
        LOCFRAME IOVERLAY, 0, STATIC
        LOCFRAME DOVERLAY, 0, STATIC
        ARGFRAME ISTACK, 0, STACK
        ARGFRAME PSTACK, 0, STACK
        ARGFRAME XSTACK, 16, STACK
        ARGFRAME IOVERLAY, 0, STATIC
        ARGFRAME DOVERLAY, 0, STATIC
        FUNCALL zclColor_MoveColorCB, hwLight_ApplyUpdate16b
        LOCFRAME ISTACK, 0, STACK
        LOCFRAME PSTACK, 0, STACK
        LOCFRAME XSTACK, 24, STACK
        LOCFRAME IOVERLAY, 0, STATIC
        LOCFRAME DOVERLAY, 0, STATIC
        ARGFRAME ISTACK, 0, STACK
        ARGFRAME PSTACK, 0, STACK
        ARGFRAME XSTACK, 24, STACK
        ARGFRAME IOVERLAY, 0, STATIC
        ARGFRAME DOVERLAY, 0, STATIC
        FUNCALL zclColor_MoveColorCB, hwLight_ApplyUpdate16b
        LOCFRAME ISTACK, 0, STACK
        LOCFRAME PSTACK, 0, STACK
        LOCFRAME XSTACK, 24, STACK
        LOCFRAME IOVERLAY, 0, STATIC
        LOCFRAME DOVERLAY, 0, STATIC
        ARGFRAME ISTACK, 0, STACK
        ARGFRAME PSTACK, 0, STACK
        ARGFRAME XSTACK, 24, STACK
        ARGFRAME IOVERLAY, 0, STATIC
        ARGFRAME DOVERLAY, 0, STATIC
        FUNCALL zclColor_MoveColorCB, osal_start_timerEx
        LOCFRAME ISTACK, 0, STACK
        LOCFRAME PSTACK, 0, STACK
        LOCFRAME XSTACK, 20, STACK
        LOCFRAME IOVERLAY, 0, STATIC
        LOCFRAME DOVERLAY, 0, STATIC
        ARGFRAME ISTACK, 0, STACK
        ARGFRAME PSTACK, 0, STACK
        ARGFRAME XSTACK, 20, STACK
        ARGFRAME IOVERLAY, 0, STATIC
        ARGFRAME DOVERLAY, 0, STATIC
        MOV     A,#-0x10
        LCALL   ?BANKED_ENTER_XDATA
          CFI DPH0 load(1, XDATA, add(CFA_XSP16, literal(-1)))
          CFI DPL0 load(1, XDATA, add(CFA_XSP16, literal(-2)))
          CFI ?BRET_EXT load(1, XDATA, add(CFA_XSP16, literal(-3)))
          CFI ?RET_HIGH load(1, XDATA, add(CFA_XSP16, literal(-4)))
          CFI ?RET_LOW load(1, XDATA, add(CFA_XSP16, literal(-5)))
          CFI R7 load(1, XDATA, add(CFA_XSP16, literal(-6)))
          CFI V7 load(1, XDATA, add(CFA_XSP16, literal(-7)))
          CFI V6 load(1, XDATA, add(CFA_XSP16, literal(-8)))
          CFI V5 load(1, XDATA, add(CFA_XSP16, literal(-9)))
          CFI V4 load(1, XDATA, add(CFA_XSP16, literal(-10)))
          CFI V3 load(1, XDATA, add(CFA_XSP16, literal(-11)))
          CFI V2 load(1, XDATA, add(CFA_XSP16, literal(-12)))
          CFI V1 load(1, XDATA, add(CFA_XSP16, literal(-13)))
          CFI V0 load(1, XDATA, add(CFA_XSP16, literal(-14)))
          CFI VB load(1, XDATA, add(CFA_XSP16, literal(-15)))
          CFI R6 load(1, XDATA, add(CFA_XSP16, literal(-16)))
          CFI CFA_SP SP+0
          CFI CFA_XSP16 add(XSP16, 16)
        ; Saved register size: 16
        ; Auto size: 0
//  325   zclColor_StepColorX_256 = (((int32)pCmd->rateX)<<8)/10;
        MOV     DPL,R2
        MOV     DPH,R3
        LCALL   ?Subroutine22 & 0xFFFF
??CrossCallReturnLabel_39:
        LCALL   ?L_SHL
        MOV     DPTR,#__Constant_a
        MOV     R0,#?V0 + 4
        LCALL   ?L_MOV_X
        MOV     R0,#?V0 + 0
        MOV     R1,#?V0 + 4
        LCALL   ?L_DIV_MOD
        MOV     DPTR,#zclColor_StepColorX_256
        MOV     R0,#?V0 + 0
        LCALL   ?L_MOV_TO_X
//  326   zclColor_StepColorY_256 = (((int32)pCmd->rateY)<<8)/10;
        MOV     DPL,R2
        MOV     DPH,R3
        INC     DPTR
        INC     DPTR
        LCALL   ?Subroutine22 & 0xFFFF
??CrossCallReturnLabel_40:
        LCALL   ?L_SHL
        MOV     DPTR,#__Constant_a
        MOV     R0,#?V0 + 4
        LCALL   ?L_MOV_X
        MOV     R0,#?V0 + 0
        MOV     R1,#?V0 + 4
        LCALL   ?L_DIV_MOD
        MOV     DPTR,#zclColor_StepColorY_256
        MOV     R0,#?V0 + 0
        LCALL   ?L_MOV_TO_X
//  327 
//  328   hwLight_UpdateColorMode(COLOR_MODE_CURRENT_X_Y);
        ; Setup parameters for call to function hwLight_UpdateColorMode
        MOV     R1,#0x1
        LCALL   ??hwLight_UpdateColorMode?relay
//  329   zclColor_CurrentX_256 = ((int32)zclColor_CurrentX)<<8;
        MOV     DPTR,#zclColor_CurrentX
        LCALL   ?Subroutine28 & 0xFFFF
??CrossCallReturnLabel_49:
        MOV     DPTR,#zclColor_CurrentX_256
        LCALL   ?Subroutine17 & 0xFFFF
//  330   zclColor_CurrentY_256 = ((int32)zclColor_CurrentY)<<8;
??CrossCallReturnLabel_30:
        MOV     DPTR,#zclColor_CurrentY
        LCALL   ?Subroutine28 & 0xFFFF
??CrossCallReturnLabel_50:
        MOV     DPTR,#zclColor_CurrentY_256
        LCALL   ?Subroutine17 & 0xFFFF
//  331   zclColor_ColorMode=COLOR_MODE_CURRENT_X_Y;
??CrossCallReturnLabel_31:
        MOV     DPTR,#zclColor_ColorMode
        INC     A
        MOVX    @DPTR,A
//  332   zclColor_EnhancedColorMode=COLOR_MODE_CURRENT_X_Y;
        MOV     DPTR,#zclColor_EnhancedColorMode
        MOVX    @DPTR,A
//  333 
//  334   //Change for ever - level stop call back will stop this command
//  335   zclColor_ColorRemainingTime = 0xFFFF;
        MOV     DPTR,#zclColor_ColorRemainingTime
        MOV     A,#-0x1
        MOVX    @DPTR,A
        INC     DPTR
        MOVX    @DPTR,A
//  336 
//  337   hwLight_ApplyUpdate16b( &zclColor_CurrentX,
//  338                           &zclColor_CurrentX_256,
//  339                           &zclColor_StepColorX_256,
//  340                           &zclColor_ColorRemainingTime,
//  341                           COLOR_XY_MIN, COLOR_XY_MAX, FALSE );
        ; Setup parameters for call to function hwLight_ApplyUpdate16b
        MOV     ?V0 + 0,A
        MOV     ?V0 + 1,#-0x2
        MOV     R0,#?V0 + 0
        LCALL   ?PUSH_XSTACK_I_TWO
          CFI CFA_XSP16 add(XSP16, 18)
        CLR     A
        MOV     ?V0 + 0,A
        MOV     ?V0 + 1,A
        MOV     R0,#?V0 + 0
        LCALL   ?PUSH_XSTACK_I_TWO
          CFI CFA_XSP16 add(XSP16, 20)
        MOV     ?V0 + 0,#zclColor_ColorRemainingTime & 0xff
        MOV     ?V0 + 1,#(zclColor_ColorRemainingTime >> 8) & 0xff
        MOV     R0,#?V0 + 0
        LCALL   ?PUSH_XSTACK_I_TWO
          CFI CFA_XSP16 add(XSP16, 22)
        MOV     ?V0 + 0,#zclColor_StepColorX_256 & 0xff
        MOV     ?V0 + 1,#(zclColor_StepColorX_256 >> 8) & 0xff
        MOV     R0,#?V0 + 0
        LCALL   ?PUSH_XSTACK_I_TWO
          CFI CFA_XSP16 add(XSP16, 24)
        MOV     R1,#0x0
        MOV     R4,#zclColor_CurrentX_256 & 0xff
        MOV     R5,#(zclColor_CurrentX_256 >> 8) & 0xff
        MOV     R2,#zclColor_CurrentX & 0xff
        MOV     R3,#(zclColor_CurrentX >> 8) & 0xff
        LCALL   ??hwLight_ApplyUpdate16b?relay
        MOV     A,#0x8
        LCALL   ?DEALLOC_XSTACK8
          CFI CFA_XSP16 add(XSP16, 16)
//  342   hwLight_ApplyUpdate16b( &zclColor_CurrentY,
//  343                           &zclColor_CurrentY_256,
//  344                           &zclColor_StepColorY_256,
//  345                           &zclColor_ColorRemainingTime,
//  346                           COLOR_XY_MIN, COLOR_XY_MAX, FALSE );
        ; Setup parameters for call to function hwLight_ApplyUpdate16b
        MOV     ?V0 + 0,#-0x1
        MOV     ?V0 + 1,#-0x2
        MOV     R0,#?V0 + 0
        LCALL   ?PUSH_XSTACK_I_TWO
          CFI CFA_XSP16 add(XSP16, 18)
        CLR     A
        MOV     ?V0 + 0,A
        MOV     ?V0 + 1,A
        MOV     R0,#?V0 + 0
        LCALL   ?PUSH_XSTACK_I_TWO
          CFI CFA_XSP16 add(XSP16, 20)
        MOV     ?V0 + 0,#zclColor_ColorRemainingTime & 0xff
        MOV     ?V0 + 1,#(zclColor_ColorRemainingTime >> 8) & 0xff
        MOV     R0,#?V0 + 0
        LCALL   ?PUSH_XSTACK_I_TWO
          CFI CFA_XSP16 add(XSP16, 22)
        MOV     ?V0 + 0,#zclColor_StepColorY_256 & 0xff
        MOV     ?V0 + 1,#(zclColor_StepColorY_256 >> 8) & 0xff
        MOV     R0,#?V0 + 0
        LCALL   ?PUSH_XSTACK_I_TWO
          CFI CFA_XSP16 add(XSP16, 24)
        MOV     R1,#0x0
        MOV     R4,#zclColor_CurrentY_256 & 0xff
        MOV     R5,#(zclColor_CurrentY_256 >> 8) & 0xff
        MOV     R2,#zclColor_CurrentY & 0xff
        MOV     R3,#(zclColor_CurrentY >> 8) & 0xff
        LCALL   ??hwLight_ApplyUpdate16b?relay
        MOV     A,#0x8
        LCALL   ?DEALLOC_XSTACK8
          CFI CFA_XSP16 add(XSP16, 16)
//  347 
//  348   if ( zclColor_ColorRemainingTime )
        MOV     DPTR,#zclColor_ColorRemainingTime
        LCALL   ??Subroutine51_0 & 0xFFFF
??CrossCallReturnLabel_99:
        JZ      ??zclColor_MoveColorCB_0
//  349   {
//  350     //set a timer to make the change over 100ms
//  351     osal_start_timerEx( zclLight_TaskID, COLOR_PROCESS_EVT , 100 );
        ; Setup parameters for call to function osal_start_timerEx
        MOV     DPTR,#__Constant_64
        LCALL   ?PUSH_XSTACK8_X_FOUR
          CFI CFA_XSP16 add(XSP16, 20)
        MOV     R2,#0x10
        MOV     R3,#0x0
        MOV     DPTR,#zclLight_TaskID
        MOVX    A,@DPTR
        MOV     R1,A
        LCALL   ??osal_start_timerEx?relay
        MOV     A,#0x4
        LCALL   ?DEALLOC_XSTACK8
          CFI CFA_XSP16 add(XSP16, 16)
//  352   }
//  353 
//  354   return;
??zclColor_MoveColorCB_0:
        LJMP    ?Subroutine1 & 0xFFFF
          CFI EndBlock cfiBlock8
//  355 }

        RSEG BANKED_CODE:CODE:NOROOT(0)
?Subroutine28:
          CFI Block cfiCond9 Using cfiCommon0
          CFI Function zclColor_MoveColorCB
          CFI Conditional ??CrossCallReturnLabel_49
          CFI R6 load(1, XDATA, add(CFA_XSP16, literal(-16)))
          CFI VB load(1, XDATA, add(CFA_XSP16, literal(-15)))
          CFI V0 load(1, XDATA, add(CFA_XSP16, literal(-14)))
          CFI V1 load(1, XDATA, add(CFA_XSP16, literal(-13)))
          CFI V2 load(1, XDATA, add(CFA_XSP16, literal(-12)))
          CFI V3 load(1, XDATA, add(CFA_XSP16, literal(-11)))
          CFI V4 load(1, XDATA, add(CFA_XSP16, literal(-10)))
          CFI V5 load(1, XDATA, add(CFA_XSP16, literal(-9)))
          CFI V6 load(1, XDATA, add(CFA_XSP16, literal(-8)))
          CFI V7 load(1, XDATA, add(CFA_XSP16, literal(-7)))
          CFI R7 load(1, XDATA, add(CFA_XSP16, literal(-6)))
          CFI ?RET_LOW load(1, XDATA, add(CFA_XSP16, literal(-5)))
          CFI ?RET_HIGH load(1, XDATA, add(CFA_XSP16, literal(-4)))
          CFI ?BRET_EXT load(1, XDATA, add(CFA_XSP16, literal(-3)))
          CFI DPL0 load(1, XDATA, add(CFA_XSP16, literal(-2)))
          CFI DPH0 load(1, XDATA, add(CFA_XSP16, literal(-1)))
          CFI CFA_SP SP+0
          CFI CFA_XSP16 add(XSP16, 16)
          CFI Block cfiCond10 Using cfiCommon0
          CFI (cfiCond10) Function zclColor_MoveColorCB
          CFI (cfiCond10) Conditional ??CrossCallReturnLabel_50
          CFI (cfiCond10) R6 load(1, XDATA, add(CFA_XSP16, literal(-16)))
          CFI (cfiCond10) VB load(1, XDATA, add(CFA_XSP16, literal(-15)))
          CFI (cfiCond10) V0 load(1, XDATA, add(CFA_XSP16, literal(-14)))
          CFI (cfiCond10) V1 load(1, XDATA, add(CFA_XSP16, literal(-13)))
          CFI (cfiCond10) V2 load(1, XDATA, add(CFA_XSP16, literal(-12)))
          CFI (cfiCond10) V3 load(1, XDATA, add(CFA_XSP16, literal(-11)))
          CFI (cfiCond10) V4 load(1, XDATA, add(CFA_XSP16, literal(-10)))
          CFI (cfiCond10) V5 load(1, XDATA, add(CFA_XSP16, literal(-9)))
          CFI (cfiCond10) V6 load(1, XDATA, add(CFA_XSP16, literal(-8)))
          CFI (cfiCond10) V7 load(1, XDATA, add(CFA_XSP16, literal(-7)))
          CFI (cfiCond10) R7 load(1, XDATA, add(CFA_XSP16, literal(-6)))
          CFI (cfiCond10) ?RET_LOW load(1, XDATA, add(CFA_XSP16, literal(-5)))
          CFI (cfiCond10) ?RET_HIGH load(1, XDATA, add(CFA_XSP16, literal(-4)))
          CFI (cfiCond10) ?BRET_EXT load(1, XDATA, add(CFA_XSP16, literal(-3)))
          CFI (cfiCond10) DPL0 load(1, XDATA, add(CFA_XSP16, literal(-2)))
          CFI (cfiCond10) DPH0 load(1, XDATA, add(CFA_XSP16, literal(-1)))
          CFI (cfiCond10) CFA_SP SP+0
          CFI (cfiCond10) CFA_XSP16 add(XSP16, 16)
          CFI Block cfiPicker11 Using cfiCommon1
          CFI (cfiPicker11) NoFunction
          CFI (cfiPicker11) Picker
        MOVX    A,@DPTR
        MOV     R4,A
        INC     DPTR
        MOVX    A,@DPTR
        MOV     R5,A
        MOV     R6,#0x0
        MOV     A,R4
        XCH     A,R5
        XCH     A,R6
        RET
          CFI EndBlock cfiCond9
          CFI EndBlock cfiCond10
          CFI EndBlock cfiPicker11

        RSEG BANKED_CODE:CODE:NOROOT(0)
?Subroutine22:
          CFI Block cfiCond12 Using cfiCommon0
          CFI Function zclColor_MoveColorCB
          CFI Conditional ??CrossCallReturnLabel_39
          CFI R6 load(1, XDATA, add(CFA_XSP16, literal(-16)))
          CFI VB load(1, XDATA, add(CFA_XSP16, literal(-15)))
          CFI V0 load(1, XDATA, add(CFA_XSP16, literal(-14)))
          CFI V1 load(1, XDATA, add(CFA_XSP16, literal(-13)))
          CFI V2 load(1, XDATA, add(CFA_XSP16, literal(-12)))
          CFI V3 load(1, XDATA, add(CFA_XSP16, literal(-11)))
          CFI V4 load(1, XDATA, add(CFA_XSP16, literal(-10)))
          CFI V5 load(1, XDATA, add(CFA_XSP16, literal(-9)))
          CFI V6 load(1, XDATA, add(CFA_XSP16, literal(-8)))
          CFI V7 load(1, XDATA, add(CFA_XSP16, literal(-7)))
          CFI R7 load(1, XDATA, add(CFA_XSP16, literal(-6)))
          CFI ?RET_LOW load(1, XDATA, add(CFA_XSP16, literal(-5)))
          CFI ?RET_HIGH load(1, XDATA, add(CFA_XSP16, literal(-4)))
          CFI ?BRET_EXT load(1, XDATA, add(CFA_XSP16, literal(-3)))
          CFI DPL0 load(1, XDATA, add(CFA_XSP16, literal(-2)))
          CFI DPH0 load(1, XDATA, add(CFA_XSP16, literal(-1)))
          CFI CFA_SP SP+0
          CFI CFA_XSP16 add(XSP16, 16)
          CFI Block cfiCond13 Using cfiCommon0
          CFI (cfiCond13) Function zclColor_MoveColorCB
          CFI (cfiCond13) Conditional ??CrossCallReturnLabel_40
          CFI (cfiCond13) R6 load(1, XDATA, add(CFA_XSP16, literal(-16)))
          CFI (cfiCond13) VB load(1, XDATA, add(CFA_XSP16, literal(-15)))
          CFI (cfiCond13) V0 load(1, XDATA, add(CFA_XSP16, literal(-14)))
          CFI (cfiCond13) V1 load(1, XDATA, add(CFA_XSP16, literal(-13)))
          CFI (cfiCond13) V2 load(1, XDATA, add(CFA_XSP16, literal(-12)))
          CFI (cfiCond13) V3 load(1, XDATA, add(CFA_XSP16, literal(-11)))
          CFI (cfiCond13) V4 load(1, XDATA, add(CFA_XSP16, literal(-10)))
          CFI (cfiCond13) V5 load(1, XDATA, add(CFA_XSP16, literal(-9)))
          CFI (cfiCond13) V6 load(1, XDATA, add(CFA_XSP16, literal(-8)))
          CFI (cfiCond13) V7 load(1, XDATA, add(CFA_XSP16, literal(-7)))
          CFI (cfiCond13) R7 load(1, XDATA, add(CFA_XSP16, literal(-6)))
          CFI (cfiCond13) ?RET_LOW load(1, XDATA, add(CFA_XSP16, literal(-5)))
          CFI (cfiCond13) ?RET_HIGH load(1, XDATA, add(CFA_XSP16, literal(-4)))
          CFI (cfiCond13) ?BRET_EXT load(1, XDATA, add(CFA_XSP16, literal(-3)))
          CFI (cfiCond13) DPL0 load(1, XDATA, add(CFA_XSP16, literal(-2)))
          CFI (cfiCond13) DPH0 load(1, XDATA, add(CFA_XSP16, literal(-1)))
          CFI (cfiCond13) CFA_SP SP+0
          CFI (cfiCond13) CFA_XSP16 add(XSP16, 16)
          CFI Block cfiPicker14 Using cfiCommon1
          CFI (cfiPicker14) NoFunction
          CFI (cfiPicker14) Picker
        LCALL   ?Subroutine48 & 0xFFFF
??CrossCallReturnLabel_123:
        RLC     A
        SUBB    A,0xE0 /* A   */
        MOV     ?V0 + 2,A
        MOV     ?V0 + 3,A
        MOV     A,#0x8
        MOV     R0,#?V0 + 0
        RET
          CFI EndBlock cfiCond12
          CFI EndBlock cfiCond13
          CFI EndBlock cfiPicker14

        RSEG BANKED_CODE:CODE:NOROOT(0)
?Subroutine48:
          CFI Block cfiCond15 Using cfiCommon0
          CFI Function zclColor_processColorLoop
          CFI Conditional ??CrossCallReturnLabel_122
          CFI R6 load(1, XDATA, add(CFA_XSP16, literal(-16)))
          CFI VB load(1, XDATA, add(CFA_XSP16, literal(-15)))
          CFI V0 load(1, XDATA, add(CFA_XSP16, literal(-14)))
          CFI V1 load(1, XDATA, add(CFA_XSP16, literal(-13)))
          CFI V2 load(1, XDATA, add(CFA_XSP16, literal(-12)))
          CFI V3 load(1, XDATA, add(CFA_XSP16, literal(-11)))
          CFI V4 load(1, XDATA, add(CFA_XSP16, literal(-10)))
          CFI V5 load(1, XDATA, add(CFA_XSP16, literal(-9)))
          CFI V6 load(1, XDATA, add(CFA_XSP16, literal(-8)))
          CFI V7 load(1, XDATA, add(CFA_XSP16, literal(-7)))
          CFI R7 load(1, XDATA, add(CFA_XSP16, literal(-6)))
          CFI ?RET_LOW load(1, XDATA, add(CFA_XSP16, literal(-5)))
          CFI ?RET_HIGH load(1, XDATA, add(CFA_XSP16, literal(-4)))
          CFI ?BRET_EXT load(1, XDATA, add(CFA_XSP16, literal(-3)))
          CFI DPL0 load(1, XDATA, add(CFA_XSP16, literal(-2)))
          CFI DPH0 load(1, XDATA, add(CFA_XSP16, literal(-1)))
          CFI CFA_SP SP+0
          CFI CFA_XSP16 add(XSP16, 18)
          CFI Block cfiCond16 Using cfiCommon0
          CFI (cfiCond16) Function zclColor_MoveColorCB
          CFI (cfiCond16) Conditional ??CrossCallReturnLabel_123, ??CrossCallReturnLabel_39
          CFI (cfiCond16) R6 load(1, XDATA, add(CFA_XSP16, literal(-16)))
          CFI (cfiCond16) VB load(1, XDATA, add(CFA_XSP16, literal(-15)))
          CFI (cfiCond16) V0 load(1, XDATA, add(CFA_XSP16, literal(-14)))
          CFI (cfiCond16) V1 load(1, XDATA, add(CFA_XSP16, literal(-13)))
          CFI (cfiCond16) V2 load(1, XDATA, add(CFA_XSP16, literal(-12)))
          CFI (cfiCond16) V3 load(1, XDATA, add(CFA_XSP16, literal(-11)))
          CFI (cfiCond16) V4 load(1, XDATA, add(CFA_XSP16, literal(-10)))
          CFI (cfiCond16) V5 load(1, XDATA, add(CFA_XSP16, literal(-9)))
          CFI (cfiCond16) V6 load(1, XDATA, add(CFA_XSP16, literal(-8)))
          CFI (cfiCond16) V7 load(1, XDATA, add(CFA_XSP16, literal(-7)))
          CFI (cfiCond16) R7 load(1, XDATA, add(CFA_XSP16, literal(-6)))
          CFI (cfiCond16) ?RET_LOW load(1, XDATA, add(CFA_XSP16, literal(-5)))
          CFI (cfiCond16) ?RET_HIGH load(1, XDATA, add(CFA_XSP16, literal(-4)))
          CFI (cfiCond16) ?BRET_EXT load(1, XDATA, add(CFA_XSP16, literal(-3)))
          CFI (cfiCond16) DPL0 load(1, XDATA, add(CFA_XSP16, literal(-2)))
          CFI (cfiCond16) DPH0 load(1, XDATA, add(CFA_XSP16, literal(-1)))
          CFI (cfiCond16) CFA_SP SP+0
          CFI (cfiCond16) CFA_XSP16 add(XSP16, 16)
          CFI Block cfiCond17 Using cfiCommon0
          CFI (cfiCond17) Function zclColor_MoveColorCB
          CFI (cfiCond17) Conditional ??CrossCallReturnLabel_123, ??CrossCallReturnLabel_40
          CFI (cfiCond17) R6 load(1, XDATA, add(CFA_XSP16, literal(-16)))
          CFI (cfiCond17) VB load(1, XDATA, add(CFA_XSP16, literal(-15)))
          CFI (cfiCond17) V0 load(1, XDATA, add(CFA_XSP16, literal(-14)))
          CFI (cfiCond17) V1 load(1, XDATA, add(CFA_XSP16, literal(-13)))
          CFI (cfiCond17) V2 load(1, XDATA, add(CFA_XSP16, literal(-12)))
          CFI (cfiCond17) V3 load(1, XDATA, add(CFA_XSP16, literal(-11)))
          CFI (cfiCond17) V4 load(1, XDATA, add(CFA_XSP16, literal(-10)))
          CFI (cfiCond17) V5 load(1, XDATA, add(CFA_XSP16, literal(-9)))
          CFI (cfiCond17) V6 load(1, XDATA, add(CFA_XSP16, literal(-8)))
          CFI (cfiCond17) V7 load(1, XDATA, add(CFA_XSP16, literal(-7)))
          CFI (cfiCond17) R7 load(1, XDATA, add(CFA_XSP16, literal(-6)))
          CFI (cfiCond17) ?RET_LOW load(1, XDATA, add(CFA_XSP16, literal(-5)))
          CFI (cfiCond17) ?RET_HIGH load(1, XDATA, add(CFA_XSP16, literal(-4)))
          CFI (cfiCond17) ?BRET_EXT load(1, XDATA, add(CFA_XSP16, literal(-3)))
          CFI (cfiCond17) DPL0 load(1, XDATA, add(CFA_XSP16, literal(-2)))
          CFI (cfiCond17) DPH0 load(1, XDATA, add(CFA_XSP16, literal(-1)))
          CFI (cfiCond17) CFA_SP SP+0
          CFI (cfiCond17) CFA_XSP16 add(XSP16, 16)
          CFI Block cfiCond18 Using cfiCommon0
          CFI (cfiCond18) Function zclColor_MoveToSaturationCB
          CFI (cfiCond18) Conditional ??CrossCallReturnLabel_124, ??CrossCallReturnLabel_119, ??CrossCallReturnLabel_41
          CFI (cfiCond18) R6 load(1, XDATA, add(CFA_XSP16, literal(-16)))
          CFI (cfiCond18) VB load(1, XDATA, add(CFA_XSP16, literal(-15)))
          CFI (cfiCond18) V0 load(1, XDATA, add(CFA_XSP16, literal(-14)))
          CFI (cfiCond18) V1 load(1, XDATA, add(CFA_XSP16, literal(-13)))
          CFI (cfiCond18) V2 load(1, XDATA, add(CFA_XSP16, literal(-12)))
          CFI (cfiCond18) V3 load(1, XDATA, add(CFA_XSP16, literal(-11)))
          CFI (cfiCond18) V4 load(1, XDATA, add(CFA_XSP16, literal(-10)))
          CFI (cfiCond18) V5 load(1, XDATA, add(CFA_XSP16, literal(-9)))
          CFI (cfiCond18) V6 load(1, XDATA, add(CFA_XSP16, literal(-8)))
          CFI (cfiCond18) V7 load(1, XDATA, add(CFA_XSP16, literal(-7)))
          CFI (cfiCond18) R7 load(1, XDATA, add(CFA_XSP16, literal(-6)))
          CFI (cfiCond18) ?RET_LOW load(1, XDATA, add(CFA_XSP16, literal(-5)))
          CFI (cfiCond18) ?RET_HIGH load(1, XDATA, add(CFA_XSP16, literal(-4)))
          CFI (cfiCond18) ?BRET_EXT load(1, XDATA, add(CFA_XSP16, literal(-3)))
          CFI (cfiCond18) DPL0 load(1, XDATA, add(CFA_XSP16, literal(-2)))
          CFI (cfiCond18) DPH0 load(1, XDATA, add(CFA_XSP16, literal(-1)))
          CFI (cfiCond18) CFA_SP SP+0
          CFI (cfiCond18) CFA_XSP16 add(XSP16, 16)
          CFI Block cfiCond19 Using cfiCommon0
          CFI (cfiCond19) Function zclColor_MoveToHueCB
          CFI (cfiCond19) Conditional ??CrossCallReturnLabel_124, ??CrossCallReturnLabel_119, ??CrossCallReturnLabel_42
          CFI (cfiCond19) R6 load(1, XDATA, add(CFA_XSP16, literal(-16)))
          CFI (cfiCond19) VB load(1, XDATA, add(CFA_XSP16, literal(-15)))
          CFI (cfiCond19) V0 load(1, XDATA, add(CFA_XSP16, literal(-14)))
          CFI (cfiCond19) V1 load(1, XDATA, add(CFA_XSP16, literal(-13)))
          CFI (cfiCond19) V2 load(1, XDATA, add(CFA_XSP16, literal(-12)))
          CFI (cfiCond19) V3 load(1, XDATA, add(CFA_XSP16, literal(-11)))
          CFI (cfiCond19) V4 load(1, XDATA, add(CFA_XSP16, literal(-10)))
          CFI (cfiCond19) V5 load(1, XDATA, add(CFA_XSP16, literal(-9)))
          CFI (cfiCond19) V6 load(1, XDATA, add(CFA_XSP16, literal(-8)))
          CFI (cfiCond19) V7 load(1, XDATA, add(CFA_XSP16, literal(-7)))
          CFI (cfiCond19) R7 load(1, XDATA, add(CFA_XSP16, literal(-6)))
          CFI (cfiCond19) ?RET_LOW load(1, XDATA, add(CFA_XSP16, literal(-5)))
          CFI (cfiCond19) ?RET_HIGH load(1, XDATA, add(CFA_XSP16, literal(-4)))
          CFI (cfiCond19) ?BRET_EXT load(1, XDATA, add(CFA_XSP16, literal(-3)))
          CFI (cfiCond19) DPL0 load(1, XDATA, add(CFA_XSP16, literal(-2)))
          CFI (cfiCond19) DPH0 load(1, XDATA, add(CFA_XSP16, literal(-1)))
          CFI (cfiCond19) CFA_SP SP+0
          CFI (cfiCond19) CFA_XSP16 add(XSP16, 16)
          CFI Block cfiCond20 Using cfiCommon0
          CFI (cfiCond20) Function zclColor_MoveEnhHueCB
          CFI (cfiCond20) Conditional ??CrossCallReturnLabel_124, ??CrossCallReturnLabel_121, ??CrossCallReturnLabel_117
          CFI (cfiCond20) R6 load(1, XDATA, add(CFA_XSP16, literal(-16)))
          CFI (cfiCond20) VB load(1, XDATA, add(CFA_XSP16, literal(-15)))
          CFI (cfiCond20) V0 load(1, XDATA, add(CFA_XSP16, literal(-14)))
          CFI (cfiCond20) V1 load(1, XDATA, add(CFA_XSP16, literal(-13)))
          CFI (cfiCond20) V2 load(1, XDATA, add(CFA_XSP16, literal(-12)))
          CFI (cfiCond20) V3 load(1, XDATA, add(CFA_XSP16, literal(-11)))
          CFI (cfiCond20) V4 load(1, XDATA, add(CFA_XSP16, literal(-10)))
          CFI (cfiCond20) V5 load(1, XDATA, add(CFA_XSP16, literal(-9)))
          CFI (cfiCond20) V6 load(1, XDATA, add(CFA_XSP16, literal(-8)))
          CFI (cfiCond20) V7 load(1, XDATA, add(CFA_XSP16, literal(-7)))
          CFI (cfiCond20) R7 load(1, XDATA, add(CFA_XSP16, literal(-6)))
          CFI (cfiCond20) ?RET_LOW load(1, XDATA, add(CFA_XSP16, literal(-5)))
          CFI (cfiCond20) ?RET_HIGH load(1, XDATA, add(CFA_XSP16, literal(-4)))
          CFI (cfiCond20) ?BRET_EXT load(1, XDATA, add(CFA_XSP16, literal(-3)))
          CFI (cfiCond20) DPL0 load(1, XDATA, add(CFA_XSP16, literal(-2)))
          CFI (cfiCond20) DPH0 load(1, XDATA, add(CFA_XSP16, literal(-1)))
          CFI (cfiCond20) CFA_SP SP+0
          CFI (cfiCond20) CFA_XSP16 add(XSP16, 16)
          CFI Block cfiCond21 Using cfiCommon0
          CFI (cfiCond21) Function zclColor_StepEnhHueCB
          CFI (cfiCond21) Conditional ??CrossCallReturnLabel_124, ??CrossCallReturnLabel_121, ??CrossCallReturnLabel_118
          CFI (cfiCond21) R6 load(1, XDATA, add(CFA_XSP16, literal(-16)))
          CFI (cfiCond21) VB load(1, XDATA, add(CFA_XSP16, literal(-15)))
          CFI (cfiCond21) V0 load(1, XDATA, add(CFA_XSP16, literal(-14)))
          CFI (cfiCond21) V1 load(1, XDATA, add(CFA_XSP16, literal(-13)))
          CFI (cfiCond21) V2 load(1, XDATA, add(CFA_XSP16, literal(-12)))
          CFI (cfiCond21) V3 load(1, XDATA, add(CFA_XSP16, literal(-11)))
          CFI (cfiCond21) V4 load(1, XDATA, add(CFA_XSP16, literal(-10)))
          CFI (cfiCond21) V5 load(1, XDATA, add(CFA_XSP16, literal(-9)))
          CFI (cfiCond21) V6 load(1, XDATA, add(CFA_XSP16, literal(-8)))
          CFI (cfiCond21) V7 load(1, XDATA, add(CFA_XSP16, literal(-7)))
          CFI (cfiCond21) R7 load(1, XDATA, add(CFA_XSP16, literal(-6)))
          CFI (cfiCond21) ?RET_LOW load(1, XDATA, add(CFA_XSP16, literal(-5)))
          CFI (cfiCond21) ?RET_HIGH load(1, XDATA, add(CFA_XSP16, literal(-4)))
          CFI (cfiCond21) ?BRET_EXT load(1, XDATA, add(CFA_XSP16, literal(-3)))
          CFI (cfiCond21) DPL0 load(1, XDATA, add(CFA_XSP16, literal(-2)))
          CFI (cfiCond21) DPH0 load(1, XDATA, add(CFA_XSP16, literal(-1)))
          CFI (cfiCond21) CFA_SP SP+0
          CFI (cfiCond21) CFA_XSP16 add(XSP16, 16)
          CFI Block cfiCond22 Using cfiCommon0
          CFI (cfiCond22) Function zclColor_MoveToColorCB
          CFI (cfiCond22) Conditional ??CrossCallReturnLabel_124, ??CrossCallReturnLabel_121, ??CrossCallReturnLabel_115
          CFI (cfiCond22) R6 load(1, XDATA, add(CFA_XSP16, literal(-24)))
          CFI (cfiCond22) VB load(1, XDATA, add(CFA_XSP16, literal(-23)))
          CFI (cfiCond22) V0 load(1, XDATA, add(CFA_XSP16, literal(-22)))
          CFI (cfiCond22) V1 load(1, XDATA, add(CFA_XSP16, literal(-21)))
          CFI (cfiCond22) V2 load(1, XDATA, add(CFA_XSP16, literal(-20)))
          CFI (cfiCond22) V3 load(1, XDATA, add(CFA_XSP16, literal(-19)))
          CFI (cfiCond22) V4 load(1, XDATA, add(CFA_XSP16, literal(-18)))
          CFI (cfiCond22) V5 load(1, XDATA, add(CFA_XSP16, literal(-17)))
          CFI (cfiCond22) V6 load(1, XDATA, add(CFA_XSP16, literal(-16)))
          CFI (cfiCond22) V7 load(1, XDATA, add(CFA_XSP16, literal(-15)))
          CFI (cfiCond22) V8 load(1, XDATA, add(CFA_XSP16, literal(-14)))
          CFI (cfiCond22) V9 load(1, XDATA, add(CFA_XSP16, literal(-13)))
          CFI (cfiCond22) V10 load(1, XDATA, add(CFA_XSP16, literal(-12)))
          CFI (cfiCond22) V11 load(1, XDATA, add(CFA_XSP16, literal(-11)))
          CFI (cfiCond22) V12 load(1, XDATA, add(CFA_XSP16, literal(-10)))
          CFI (cfiCond22) V13 load(1, XDATA, add(CFA_XSP16, literal(-9)))
          CFI (cfiCond22) V14 load(1, XDATA, add(CFA_XSP16, literal(-8)))
          CFI (cfiCond22) V15 load(1, XDATA, add(CFA_XSP16, literal(-7)))
          CFI (cfiCond22) R7 load(1, XDATA, add(CFA_XSP16, literal(-6)))
          CFI (cfiCond22) ?RET_LOW load(1, XDATA, add(CFA_XSP16, literal(-5)))
          CFI (cfiCond22) ?RET_HIGH load(1, XDATA, add(CFA_XSP16, literal(-4)))
          CFI (cfiCond22) ?BRET_EXT load(1, XDATA, add(CFA_XSP16, literal(-3)))
          CFI (cfiCond22) DPL0 load(1, XDATA, add(CFA_XSP16, literal(-2)))
          CFI (cfiCond22) DPH0 load(1, XDATA, add(CFA_XSP16, literal(-1)))
          CFI (cfiCond22) CFA_SP SP+0
          CFI (cfiCond22) CFA_XSP16 add(XSP16, 24)
          CFI Block cfiCond23 Using cfiCommon0
          CFI (cfiCond23) Function zclColor_StepColorCB
          CFI (cfiCond23) Conditional ??CrossCallReturnLabel_124, ??CrossCallReturnLabel_121, ??CrossCallReturnLabel_116
          CFI (cfiCond23) R6 load(1, XDATA, add(CFA_XSP16, literal(-20)))
          CFI (cfiCond23) VB load(1, XDATA, add(CFA_XSP16, literal(-19)))
          CFI (cfiCond23) V0 load(1, XDATA, add(CFA_XSP16, literal(-18)))
          CFI (cfiCond23) V1 load(1, XDATA, add(CFA_XSP16, literal(-17)))
          CFI (cfiCond23) V2 load(1, XDATA, add(CFA_XSP16, literal(-16)))
          CFI (cfiCond23) V3 load(1, XDATA, add(CFA_XSP16, literal(-15)))
          CFI (cfiCond23) V4 load(1, XDATA, add(CFA_XSP16, literal(-14)))
          CFI (cfiCond23) V5 load(1, XDATA, add(CFA_XSP16, literal(-13)))
          CFI (cfiCond23) V6 load(1, XDATA, add(CFA_XSP16, literal(-12)))
          CFI (cfiCond23) V7 load(1, XDATA, add(CFA_XSP16, literal(-11)))
          CFI (cfiCond23) V8 load(1, XDATA, add(CFA_XSP16, literal(-10)))
          CFI (cfiCond23) V9 load(1, XDATA, add(CFA_XSP16, literal(-9)))
          CFI (cfiCond23) V10 load(1, XDATA, add(CFA_XSP16, literal(-8)))
          CFI (cfiCond23) V11 load(1, XDATA, add(CFA_XSP16, literal(-7)))
          CFI (cfiCond23) R7 load(1, XDATA, add(CFA_XSP16, literal(-6)))
          CFI (cfiCond23) ?RET_LOW load(1, XDATA, add(CFA_XSP16, literal(-5)))
          CFI (cfiCond23) ?RET_HIGH load(1, XDATA, add(CFA_XSP16, literal(-4)))
          CFI (cfiCond23) ?BRET_EXT load(1, XDATA, add(CFA_XSP16, literal(-3)))
          CFI (cfiCond23) DPL0 load(1, XDATA, add(CFA_XSP16, literal(-2)))
          CFI (cfiCond23) DPH0 load(1, XDATA, add(CFA_XSP16, literal(-1)))
          CFI (cfiCond23) CFA_SP SP+0
          CFI (cfiCond23) CFA_XSP16 add(XSP16, 20)
          CFI Block cfiCond24 Using cfiCommon0
          CFI (cfiCond24) Function zclColor_MoveToColorCB
          CFI (cfiCond24) Conditional ??CrossCallReturnLabel_124, ??CrossCallReturnLabel_120, ??CrossCallReturnLabel_45
          CFI (cfiCond24) R6 load(1, XDATA, add(CFA_XSP16, literal(-24)))
          CFI (cfiCond24) VB load(1, XDATA, add(CFA_XSP16, literal(-23)))
          CFI (cfiCond24) V0 load(1, XDATA, add(CFA_XSP16, literal(-22)))
          CFI (cfiCond24) V1 load(1, XDATA, add(CFA_XSP16, literal(-21)))
          CFI (cfiCond24) V2 load(1, XDATA, add(CFA_XSP16, literal(-20)))
          CFI (cfiCond24) V3 load(1, XDATA, add(CFA_XSP16, literal(-19)))
          CFI (cfiCond24) V4 load(1, XDATA, add(CFA_XSP16, literal(-18)))
          CFI (cfiCond24) V5 load(1, XDATA, add(CFA_XSP16, literal(-17)))
          CFI (cfiCond24) V6 load(1, XDATA, add(CFA_XSP16, literal(-16)))
          CFI (cfiCond24) V7 load(1, XDATA, add(CFA_XSP16, literal(-15)))
          CFI (cfiCond24) V8 load(1, XDATA, add(CFA_XSP16, literal(-14)))
          CFI (cfiCond24) V9 load(1, XDATA, add(CFA_XSP16, literal(-13)))
          CFI (cfiCond24) V10 load(1, XDATA, add(CFA_XSP16, literal(-12)))
          CFI (cfiCond24) V11 load(1, XDATA, add(CFA_XSP16, literal(-11)))
          CFI (cfiCond24) V12 load(1, XDATA, add(CFA_XSP16, literal(-10)))
          CFI (cfiCond24) V13 load(1, XDATA, add(CFA_XSP16, literal(-9)))
          CFI (cfiCond24) V14 load(1, XDATA, add(CFA_XSP16, literal(-8)))
          CFI (cfiCond24) V15 load(1, XDATA, add(CFA_XSP16, literal(-7)))
          CFI (cfiCond24) R7 load(1, XDATA, add(CFA_XSP16, literal(-6)))
          CFI (cfiCond24) ?RET_LOW load(1, XDATA, add(CFA_XSP16, literal(-5)))
          CFI (cfiCond24) ?RET_HIGH load(1, XDATA, add(CFA_XSP16, literal(-4)))
          CFI (cfiCond24) ?BRET_EXT load(1, XDATA, add(CFA_XSP16, literal(-3)))
          CFI (cfiCond24) DPL0 load(1, XDATA, add(CFA_XSP16, literal(-2)))
          CFI (cfiCond24) DPH0 load(1, XDATA, add(CFA_XSP16, literal(-1)))
          CFI (cfiCond24) CFA_SP SP+0
          CFI (cfiCond24) CFA_XSP16 add(XSP16, 24)
          CFI Block cfiCond25 Using cfiCommon0
          CFI (cfiCond25) Function zclColor_MoveEnhHueCB
          CFI (cfiCond25) Conditional ??CrossCallReturnLabel_124, ??CrossCallReturnLabel_120, ??CrossCallReturnLabel_46
          CFI (cfiCond25) R6 load(1, XDATA, add(CFA_XSP16, literal(-16)))
          CFI (cfiCond25) VB load(1, XDATA, add(CFA_XSP16, literal(-15)))
          CFI (cfiCond25) V0 load(1, XDATA, add(CFA_XSP16, literal(-14)))
          CFI (cfiCond25) V1 load(1, XDATA, add(CFA_XSP16, literal(-13)))
          CFI (cfiCond25) V2 load(1, XDATA, add(CFA_XSP16, literal(-12)))
          CFI (cfiCond25) V3 load(1, XDATA, add(CFA_XSP16, literal(-11)))
          CFI (cfiCond25) V4 load(1, XDATA, add(CFA_XSP16, literal(-10)))
          CFI (cfiCond25) V5 load(1, XDATA, add(CFA_XSP16, literal(-9)))
          CFI (cfiCond25) V6 load(1, XDATA, add(CFA_XSP16, literal(-8)))
          CFI (cfiCond25) V7 load(1, XDATA, add(CFA_XSP16, literal(-7)))
          CFI (cfiCond25) R7 load(1, XDATA, add(CFA_XSP16, literal(-6)))
          CFI (cfiCond25) ?RET_LOW load(1, XDATA, add(CFA_XSP16, literal(-5)))
          CFI (cfiCond25) ?RET_HIGH load(1, XDATA, add(CFA_XSP16, literal(-4)))
          CFI (cfiCond25) ?BRET_EXT load(1, XDATA, add(CFA_XSP16, literal(-3)))
          CFI (cfiCond25) DPL0 load(1, XDATA, add(CFA_XSP16, literal(-2)))
          CFI (cfiCond25) DPH0 load(1, XDATA, add(CFA_XSP16, literal(-1)))
          CFI (cfiCond25) CFA_SP SP+0
          CFI (cfiCond25) CFA_XSP16 add(XSP16, 16)
          CFI Block cfiPicker26 Using cfiCommon1
          CFI (cfiPicker26) NoFunction
          CFI (cfiPicker26) Picker
        MOVX    A,@DPTR
        MOV     ?V0 + 0,A
        INC     DPTR
        MOVX    A,@DPTR
        MOV     ?V0 + 1,A
        RET
          CFI EndBlock cfiCond15
          CFI EndBlock cfiCond16
          CFI EndBlock cfiCond17
          CFI EndBlock cfiCond18
          CFI EndBlock cfiCond19
          CFI EndBlock cfiCond20
          CFI EndBlock cfiCond21
          CFI EndBlock cfiCond22
          CFI EndBlock cfiCond23
          CFI EndBlock cfiCond24
          CFI EndBlock cfiCond25
          CFI EndBlock cfiPicker26

        RSEG BANKED_CODE:CODE:NOROOT(0)
?Subroutine17:
          CFI Block cfiCond27 Using cfiCommon0
          CFI Function zclColor_MoveColorCB
          CFI Conditional ??CrossCallReturnLabel_30
          CFI R6 load(1, XDATA, add(CFA_XSP16, literal(-16)))
          CFI VB load(1, XDATA, add(CFA_XSP16, literal(-15)))
          CFI V0 load(1, XDATA, add(CFA_XSP16, literal(-14)))
          CFI V1 load(1, XDATA, add(CFA_XSP16, literal(-13)))
          CFI V2 load(1, XDATA, add(CFA_XSP16, literal(-12)))
          CFI V3 load(1, XDATA, add(CFA_XSP16, literal(-11)))
          CFI V4 load(1, XDATA, add(CFA_XSP16, literal(-10)))
          CFI V5 load(1, XDATA, add(CFA_XSP16, literal(-9)))
          CFI V6 load(1, XDATA, add(CFA_XSP16, literal(-8)))
          CFI V7 load(1, XDATA, add(CFA_XSP16, literal(-7)))
          CFI R7 load(1, XDATA, add(CFA_XSP16, literal(-6)))
          CFI ?RET_LOW load(1, XDATA, add(CFA_XSP16, literal(-5)))
          CFI ?RET_HIGH load(1, XDATA, add(CFA_XSP16, literal(-4)))
          CFI ?BRET_EXT load(1, XDATA, add(CFA_XSP16, literal(-3)))
          CFI DPL0 load(1, XDATA, add(CFA_XSP16, literal(-2)))
          CFI DPH0 load(1, XDATA, add(CFA_XSP16, literal(-1)))
          CFI CFA_SP SP+0
          CFI CFA_XSP16 add(XSP16, 16)
          CFI Block cfiCond28 Using cfiCommon0
          CFI (cfiCond28) Function zclColor_MoveColorCB
          CFI (cfiCond28) Conditional ??CrossCallReturnLabel_31
          CFI (cfiCond28) R6 load(1, XDATA, add(CFA_XSP16, literal(-16)))
          CFI (cfiCond28) VB load(1, XDATA, add(CFA_XSP16, literal(-15)))
          CFI (cfiCond28) V0 load(1, XDATA, add(CFA_XSP16, literal(-14)))
          CFI (cfiCond28) V1 load(1, XDATA, add(CFA_XSP16, literal(-13)))
          CFI (cfiCond28) V2 load(1, XDATA, add(CFA_XSP16, literal(-12)))
          CFI (cfiCond28) V3 load(1, XDATA, add(CFA_XSP16, literal(-11)))
          CFI (cfiCond28) V4 load(1, XDATA, add(CFA_XSP16, literal(-10)))
          CFI (cfiCond28) V5 load(1, XDATA, add(CFA_XSP16, literal(-9)))
          CFI (cfiCond28) V6 load(1, XDATA, add(CFA_XSP16, literal(-8)))
          CFI (cfiCond28) V7 load(1, XDATA, add(CFA_XSP16, literal(-7)))
          CFI (cfiCond28) R7 load(1, XDATA, add(CFA_XSP16, literal(-6)))
          CFI (cfiCond28) ?RET_LOW load(1, XDATA, add(CFA_XSP16, literal(-5)))
          CFI (cfiCond28) ?RET_HIGH load(1, XDATA, add(CFA_XSP16, literal(-4)))
          CFI (cfiCond28) ?BRET_EXT load(1, XDATA, add(CFA_XSP16, literal(-3)))
          CFI (cfiCond28) DPL0 load(1, XDATA, add(CFA_XSP16, literal(-2)))
          CFI (cfiCond28) DPH0 load(1, XDATA, add(CFA_XSP16, literal(-1)))
          CFI (cfiCond28) CFA_SP SP+0
          CFI (cfiCond28) CFA_XSP16 add(XSP16, 16)
          CFI Block cfiPicker29 Using cfiCommon1
          CFI (cfiPicker29) NoFunction
          CFI (cfiPicker29) Picker
        MOVX    @DPTR,A
        INC     DPTR
        MOV     A,R5
        MOVX    @DPTR,A
        INC     DPTR
        MOV     A,R6
        MOVX    @DPTR,A
        INC     DPTR
        CLR     A
        MOVX    @DPTR,A
        RET
          CFI EndBlock cfiCond27
          CFI EndBlock cfiCond28
          CFI EndBlock cfiPicker29
//  356 
//  357 /*********************************************************************
//  358  * @fn      zclColor_StepColorCB
//  359  *
//  360  * @brief   Callback from the ZCL Lighting Cluster Library when
//  361  *          it received a Color Control -  Step Color Command for
//  362  *          this application.
//  363  *
//  364  * @param   stepX          - X step size
//  365  * @param   stepY          - Y step size
//  366  * @param   transitionTime - time to perform a single step in 1/10 of second
//  367  *
//  368  * @return  status
//  369  */

        RSEG BANKED_CODE:CODE:NOROOT(0)
//  370 ZStatus_t zclColor_StepColorCB( zclCCStepColor_t *pCmd )
zclColor_StepColorCB:
          CFI Block cfiBlock30 Using cfiCommon0
          CFI Function zclColor_StepColorCB
        CODE
//  371 {
        FUNCALL zclColor_StepColorCB, hwLight_UpdateColorMode
        LOCFRAME ISTACK, 0, STACK
        LOCFRAME PSTACK, 0, STACK
        LOCFRAME XSTACK, 20, STACK
        LOCFRAME IOVERLAY, 0, STATIC
        LOCFRAME DOVERLAY, 0, STATIC
        ARGFRAME ISTACK, 0, STACK
        ARGFRAME PSTACK, 0, STACK
        ARGFRAME XSTACK, 20, STACK
        ARGFRAME IOVERLAY, 0, STATIC
        ARGFRAME DOVERLAY, 0, STATIC
        FUNCALL zclColor_StepColorCB, hwLight_ApplyUpdate16b
        LOCFRAME ISTACK, 0, STACK
        LOCFRAME PSTACK, 0, STACK
        LOCFRAME XSTACK, 28, STACK
        LOCFRAME IOVERLAY, 0, STATIC
        LOCFRAME DOVERLAY, 0, STATIC
        ARGFRAME ISTACK, 0, STACK
        ARGFRAME PSTACK, 0, STACK
        ARGFRAME XSTACK, 28, STACK
        ARGFRAME IOVERLAY, 0, STATIC
        ARGFRAME DOVERLAY, 0, STATIC
        FUNCALL zclColor_StepColorCB, hwLight_ApplyUpdate16b
        LOCFRAME ISTACK, 0, STACK
        LOCFRAME PSTACK, 0, STACK
        LOCFRAME XSTACK, 28, STACK
        LOCFRAME IOVERLAY, 0, STATIC
        LOCFRAME DOVERLAY, 0, STATIC
        ARGFRAME ISTACK, 0, STACK
        ARGFRAME PSTACK, 0, STACK
        ARGFRAME XSTACK, 28, STACK
        ARGFRAME IOVERLAY, 0, STATIC
        ARGFRAME DOVERLAY, 0, STATIC
        FUNCALL zclColor_StepColorCB, osal_start_timerEx
        LOCFRAME ISTACK, 0, STACK
        LOCFRAME PSTACK, 0, STACK
        LOCFRAME XSTACK, 24, STACK
        LOCFRAME IOVERLAY, 0, STATIC
        LOCFRAME DOVERLAY, 0, STATIC
        ARGFRAME ISTACK, 0, STACK
        ARGFRAME PSTACK, 0, STACK
        ARGFRAME XSTACK, 24, STACK
        ARGFRAME IOVERLAY, 0, STATIC
        ARGFRAME DOVERLAY, 0, STATIC
        MOV     A,#-0x14
        LCALL   ?BANKED_ENTER_XDATA
          CFI DPH0 load(1, XDATA, add(CFA_XSP16, literal(-1)))
          CFI DPL0 load(1, XDATA, add(CFA_XSP16, literal(-2)))
          CFI ?BRET_EXT load(1, XDATA, add(CFA_XSP16, literal(-3)))
          CFI ?RET_HIGH load(1, XDATA, add(CFA_XSP16, literal(-4)))
          CFI ?RET_LOW load(1, XDATA, add(CFA_XSP16, literal(-5)))
          CFI R7 load(1, XDATA, add(CFA_XSP16, literal(-6)))
          CFI V11 load(1, XDATA, add(CFA_XSP16, literal(-7)))
          CFI V10 load(1, XDATA, add(CFA_XSP16, literal(-8)))
          CFI V9 load(1, XDATA, add(CFA_XSP16, literal(-9)))
          CFI V8 load(1, XDATA, add(CFA_XSP16, literal(-10)))
          CFI V7 load(1, XDATA, add(CFA_XSP16, literal(-11)))
          CFI V6 load(1, XDATA, add(CFA_XSP16, literal(-12)))
          CFI V5 load(1, XDATA, add(CFA_XSP16, literal(-13)))
          CFI V4 load(1, XDATA, add(CFA_XSP16, literal(-14)))
          CFI V3 load(1, XDATA, add(CFA_XSP16, literal(-15)))
          CFI V2 load(1, XDATA, add(CFA_XSP16, literal(-16)))
          CFI V1 load(1, XDATA, add(CFA_XSP16, literal(-17)))
          CFI V0 load(1, XDATA, add(CFA_XSP16, literal(-18)))
          CFI VB load(1, XDATA, add(CFA_XSP16, literal(-19)))
          CFI R6 load(1, XDATA, add(CFA_XSP16, literal(-20)))
          CFI CFA_SP SP+0
          CFI CFA_XSP16 add(XSP16, 20)
        ; Saved register size: 20
        ; Auto size: 0
        MOV     A,R2
        MOV     R6,A
        MOV     A,R3
        MOV     R7,A
//  372   hwLight_UpdateColorMode(COLOR_MODE_CURRENT_X_Y);
        ; Setup parameters for call to function hwLight_UpdateColorMode
        MOV     R1,#0x1
        LCALL   ??hwLight_UpdateColorMode?relay
//  373   zclColor_CurrentX_256 = ((int32)zclColor_CurrentX)<<8;
        MOV     DPTR,#zclColor_CurrentX
        LCALL   ?Subroutine30 & 0xFFFF
??CrossCallReturnLabel_53:
        LCALL   ?Subroutine11 & 0xFFFF
//  374   zclColor_CurrentY_256 = ((int32)zclColor_CurrentY)<<8;
??CrossCallReturnLabel_13:
        MOV     R2,A
        INC     DPTR
        MOVX    A,@DPTR
        MOV     R3,A
        MOV     R4,#0x0
        MOV     A,R2
        LCALL   ?Subroutine4 & 0xFFFF
//  375   zclColor_ColorMode=COLOR_MODE_CURRENT_X_Y;
//  376   zclColor_EnhancedColorMode=COLOR_MODE_CURRENT_X_Y;
//  377 
//  378   if ( pCmd->transitionTime == 0 )
??CrossCallReturnLabel_1:
        JNZ     ??zclColor_StepColorCB_0
//  379   {
//  380     zclColor_ColorRemainingTime = 1;
        MOV     A,#0x1
        MOVX    @DPTR,A
        INC     DPTR
        CLR     A
        SJMP    ??zclColor_StepColorCB_1
//  381   }
//  382   else
//  383   {
//  384     zclColor_ColorRemainingTime = pCmd->transitionTime;
??zclColor_StepColorCB_0:
        MOV     A,R0
        MOVX    @DPTR,A
        INC     DPTR
        MOV     A,R1
??zclColor_StepColorCB_1:
        MOVX    @DPTR,A
//  385   }
//  386 
//  387   zclColor_StepColorX_256 = ((((int32)pCmd->stepX)<<8) / zclColor_ColorRemainingTime);
        MOV     DPTR,#zclColor_ColorRemainingTime
        LCALL   ??Subroutine52_0 & 0xFFFF
??CrossCallReturnLabel_116:
        MOV     DPL,R6
        MOV     DPH,R7
        LCALL   ?Subroutine43 & 0xFFFF
??CrossCallReturnLabel_72:
        MOV     ?V0 + 8,?V0 + 4
        MOV     ?V0 + 9,A
        RLC     A
        SUBB    A,0xE0 /* A   */
        MOV     ?V0 + 10,A
        MOV     ?V0 + 11,A
        MOV     A,#0x8
        MOV     R0,#?V0 + 8
        LCALL   ?L_SHL
        MOV     ?V0 + 4,?V0 + 0
        MOV     ?V0 + 5,?V0 + 1
        MOV     ?V0 + 6,A
        MOV     ?V0 + 7,A
        MOV     R0,#?V0 + 8
        MOV     R1,#?V0 + 4
        LCALL   ?L_DIV_MOD
        MOV     DPTR,#zclColor_StepColorX_256
        MOV     R0,#?V0 + 8
        LCALL   ?L_MOV_TO_X
//  388   zclColor_StepColorY_256 = ((((int32)pCmd->stepY)<<8) / zclColor_ColorRemainingTime);
        MOV     DPL,R6
        MOV     DPH,R7
        INC     DPTR
        INC     DPTR
        LCALL   ?Subroutine43 & 0xFFFF
??CrossCallReturnLabel_73:
        LCALL   ?Subroutine35 & 0xFFFF
??CrossCallReturnLabel_83:
        LCALL   ?L_SHL
        MOV     R0,#?V0 + 4
        MOV     R1,#?V0 + 0
        LCALL   ?L_DIV_MOD
        MOV     DPTR,#zclColor_StepColorY_256
        MOV     R0,#?V0 + 4
        LCALL   ?L_MOV_TO_X
//  389 
//  390   hwLight_ApplyUpdate16b( &zclColor_CurrentX,
//  391                           &zclColor_CurrentX_256,
//  392                           &zclColor_StepColorX_256,
//  393                           &zclColor_ColorRemainingTime,
//  394                           COLOR_XY_MIN, COLOR_XY_MAX, FALSE );
        ; Setup parameters for call to function hwLight_ApplyUpdate16b
        MOV     ?V0 + 0,#-0x1
        MOV     ?V0 + 1,#-0x2
        MOV     R0,#?V0 + 0
        LCALL   ?PUSH_XSTACK_I_TWO
          CFI CFA_XSP16 add(XSP16, 22)
        CLR     A
        MOV     ?V0 + 0,A
        MOV     ?V0 + 1,A
        MOV     R0,#?V0 + 0
        LCALL   ?PUSH_XSTACK_I_TWO
          CFI CFA_XSP16 add(XSP16, 24)
        MOV     ?V0 + 0,#zclColor_ColorRemainingTime & 0xff
        MOV     ?V0 + 1,#(zclColor_ColorRemainingTime >> 8) & 0xff
        MOV     R0,#?V0 + 0
        LCALL   ?PUSH_XSTACK_I_TWO
          CFI CFA_XSP16 add(XSP16, 26)
        MOV     ?V0 + 0,#zclColor_StepColorX_256 & 0xff
        MOV     ?V0 + 1,#(zclColor_StepColorX_256 >> 8) & 0xff
        MOV     R0,#?V0 + 0
        LCALL   ?PUSH_XSTACK_I_TWO
          CFI CFA_XSP16 add(XSP16, 28)
        MOV     R1,#0x0
        MOV     R4,#zclColor_CurrentX_256 & 0xff
        MOV     R5,#(zclColor_CurrentX_256 >> 8) & 0xff
        MOV     R2,#zclColor_CurrentX & 0xff
        MOV     R3,#(zclColor_CurrentX >> 8) & 0xff
        LCALL   ??hwLight_ApplyUpdate16b?relay
        MOV     A,#0x8
        LCALL   ?DEALLOC_XSTACK8
          CFI CFA_XSP16 add(XSP16, 20)
//  395   if ( zclColor_ColorRemainingTime != 0xFFFF )
        MOV     DPTR,#zclColor_ColorRemainingTime
        MOVX    A,@DPTR
        CPL     A
        JNZ     ??zclColor_StepColorCB_2
        INC     DPTR
        MOVX    A,@DPTR
        CPL     A
??zclColor_StepColorCB_2:
        JZ      ??CrossCallReturnLabel_34
//  396   {
//  397     zclColor_ColorRemainingTime++;
        LCALL   ?Subroutine18 & 0xFFFF
//  398   }
//  399   hwLight_ApplyUpdate16b( &zclColor_CurrentY,
//  400                           &zclColor_CurrentY_256,
//  401                           &zclColor_StepColorY_256,
//  402                           &zclColor_ColorRemainingTime,
//  403                           COLOR_XY_MIN, COLOR_XY_MAX, FALSE );
??CrossCallReturnLabel_34:
        ; Setup parameters for call to function hwLight_ApplyUpdate16b
        MOV     ?V0 + 0,#-0x1
        MOV     ?V0 + 1,#-0x2
        MOV     R0,#?V0 + 0
        LCALL   ?PUSH_XSTACK_I_TWO
          CFI CFA_XSP16 add(XSP16, 22)
        CLR     A
        MOV     ?V0 + 0,A
        MOV     ?V0 + 1,A
        MOV     R0,#?V0 + 0
        LCALL   ?PUSH_XSTACK_I_TWO
          CFI CFA_XSP16 add(XSP16, 24)
        MOV     ?V0 + 0,#zclColor_ColorRemainingTime & 0xff
        MOV     ?V0 + 1,#(zclColor_ColorRemainingTime >> 8) & 0xff
        MOV     R0,#?V0 + 0
        LCALL   ?PUSH_XSTACK_I_TWO
          CFI CFA_XSP16 add(XSP16, 26)
        MOV     ?V0 + 0,#zclColor_StepColorY_256 & 0xff
        MOV     ?V0 + 1,#(zclColor_StepColorY_256 >> 8) & 0xff
        MOV     R0,#?V0 + 0
        LCALL   ?PUSH_XSTACK_I_TWO
          CFI CFA_XSP16 add(XSP16, 28)
        MOV     R1,#0x0
        MOV     R4,#zclColor_CurrentY_256 & 0xff
        MOV     R5,#(zclColor_CurrentY_256 >> 8) & 0xff
        MOV     R2,#zclColor_CurrentY & 0xff
        MOV     R3,#(zclColor_CurrentY >> 8) & 0xff
        LCALL   ??hwLight_ApplyUpdate16b?relay
        MOV     A,#0x8
        LCALL   ?DEALLOC_XSTACK8
          CFI CFA_XSP16 add(XSP16, 20)
//  404 
//  405   if ( zclColor_ColorRemainingTime )
        MOV     DPTR,#zclColor_ColorRemainingTime
        LCALL   ??Subroutine51_0 & 0xFFFF
??CrossCallReturnLabel_100:
        JZ      ??zclColor_StepColorCB_3
//  406   {
//  407     //set a timer to make the change over 100ms
//  408     osal_start_timerEx( zclLight_TaskID, COLOR_PROCESS_EVT , 100 );
        ; Setup parameters for call to function osal_start_timerEx
        MOV     DPTR,#__Constant_64
        LCALL   ?PUSH_XSTACK8_X_FOUR
          CFI CFA_XSP16 add(XSP16, 24)
        MOV     R2,#0x10
        MOV     R3,#0x0
        MOV     DPTR,#zclLight_TaskID
        MOVX    A,@DPTR
        MOV     R1,A
        LCALL   ??osal_start_timerEx?relay
        MOV     A,#0x4
        LCALL   ?DEALLOC_XSTACK8
          CFI CFA_XSP16 add(XSP16, 20)
//  409   }
//  410 
//  411   return ( ZSuccess );
??zclColor_StepColorCB_3:
        MOV     R1,#0x0
        MOV     R7,#0xc
        LJMP    ?BANKED_LEAVE_XDATA
          CFI EndBlock cfiBlock30
//  412 }

        RSEG BANKED_CODE:CODE:NOROOT(0)
?Subroutine35:
          CFI Block cfiCond31 Using cfiCommon0
          CFI Function zclColor_StepColorCB
          CFI Conditional ??CrossCallReturnLabel_83
          CFI R6 load(1, XDATA, add(CFA_XSP16, literal(-20)))
          CFI VB load(1, XDATA, add(CFA_XSP16, literal(-19)))
          CFI V0 load(1, XDATA, add(CFA_XSP16, literal(-18)))
          CFI V1 load(1, XDATA, add(CFA_XSP16, literal(-17)))
          CFI V2 load(1, XDATA, add(CFA_XSP16, literal(-16)))
          CFI V3 load(1, XDATA, add(CFA_XSP16, literal(-15)))
          CFI V4 load(1, XDATA, add(CFA_XSP16, literal(-14)))
          CFI V5 load(1, XDATA, add(CFA_XSP16, literal(-13)))
          CFI V6 load(1, XDATA, add(CFA_XSP16, literal(-12)))
          CFI V7 load(1, XDATA, add(CFA_XSP16, literal(-11)))
          CFI V8 load(1, XDATA, add(CFA_XSP16, literal(-10)))
          CFI V9 load(1, XDATA, add(CFA_XSP16, literal(-9)))
          CFI V10 load(1, XDATA, add(CFA_XSP16, literal(-8)))
          CFI V11 load(1, XDATA, add(CFA_XSP16, literal(-7)))
          CFI R7 load(1, XDATA, add(CFA_XSP16, literal(-6)))
          CFI ?RET_LOW load(1, XDATA, add(CFA_XSP16, literal(-5)))
          CFI ?RET_HIGH load(1, XDATA, add(CFA_XSP16, literal(-4)))
          CFI ?BRET_EXT load(1, XDATA, add(CFA_XSP16, literal(-3)))
          CFI DPL0 load(1, XDATA, add(CFA_XSP16, literal(-2)))
          CFI DPH0 load(1, XDATA, add(CFA_XSP16, literal(-1)))
          CFI CFA_SP SP+0
          CFI CFA_XSP16 add(XSP16, 20)
          CFI Block cfiCond32 Using cfiCommon0
          CFI (cfiCond32) Function zclColor_MoveToHueCB
          CFI (cfiCond32) Conditional ??CrossCallReturnLabel_84
          CFI (cfiCond32) R6 load(1, XDATA, add(CFA_XSP16, literal(-16)))
          CFI (cfiCond32) VB load(1, XDATA, add(CFA_XSP16, literal(-15)))
          CFI (cfiCond32) V0 load(1, XDATA, add(CFA_XSP16, literal(-14)))
          CFI (cfiCond32) V1 load(1, XDATA, add(CFA_XSP16, literal(-13)))
          CFI (cfiCond32) V2 load(1, XDATA, add(CFA_XSP16, literal(-12)))
          CFI (cfiCond32) V3 load(1, XDATA, add(CFA_XSP16, literal(-11)))
          CFI (cfiCond32) V4 load(1, XDATA, add(CFA_XSP16, literal(-10)))
          CFI (cfiCond32) V5 load(1, XDATA, add(CFA_XSP16, literal(-9)))
          CFI (cfiCond32) V6 load(1, XDATA, add(CFA_XSP16, literal(-8)))
          CFI (cfiCond32) V7 load(1, XDATA, add(CFA_XSP16, literal(-7)))
          CFI (cfiCond32) R7 load(1, XDATA, add(CFA_XSP16, literal(-6)))
          CFI (cfiCond32) ?RET_LOW load(1, XDATA, add(CFA_XSP16, literal(-5)))
          CFI (cfiCond32) ?RET_HIGH load(1, XDATA, add(CFA_XSP16, literal(-4)))
          CFI (cfiCond32) ?BRET_EXT load(1, XDATA, add(CFA_XSP16, literal(-3)))
          CFI (cfiCond32) DPL0 load(1, XDATA, add(CFA_XSP16, literal(-2)))
          CFI (cfiCond32) DPH0 load(1, XDATA, add(CFA_XSP16, literal(-1)))
          CFI (cfiCond32) CFA_SP SP+0
          CFI (cfiCond32) CFA_XSP16 add(XSP16, 16)
          CFI Block cfiPicker33 Using cfiCommon1
          CFI (cfiPicker33) NoFunction
          CFI (cfiPicker33) Picker
        MOV     ?V0 + 5,A
        RLC     A
          CFI EndBlock cfiCond31
          CFI EndBlock cfiCond32
          CFI EndBlock cfiPicker33
        REQUIRE ??Subroutine49_0
        ; // Fall through to label ??Subroutine49_0

        RSEG BANKED_CODE:CODE:NOROOT(0)
??Subroutine49_0:
          CFI Block cfiCond34 Using cfiCommon0
          CFI Function zclColor_MoveToSaturationCB
          CFI Conditional ??CrossCallReturnLabel_82
          CFI R6 load(1, XDATA, add(CFA_XSP16, literal(-16)))
          CFI VB load(1, XDATA, add(CFA_XSP16, literal(-15)))
          CFI V0 load(1, XDATA, add(CFA_XSP16, literal(-14)))
          CFI V1 load(1, XDATA, add(CFA_XSP16, literal(-13)))
          CFI V2 load(1, XDATA, add(CFA_XSP16, literal(-12)))
          CFI V3 load(1, XDATA, add(CFA_XSP16, literal(-11)))
          CFI V4 load(1, XDATA, add(CFA_XSP16, literal(-10)))
          CFI V5 load(1, XDATA, add(CFA_XSP16, literal(-9)))
          CFI V6 load(1, XDATA, add(CFA_XSP16, literal(-8)))
          CFI V7 load(1, XDATA, add(CFA_XSP16, literal(-7)))
          CFI R7 load(1, XDATA, add(CFA_XSP16, literal(-6)))
          CFI ?RET_LOW load(1, XDATA, add(CFA_XSP16, literal(-5)))
          CFI ?RET_HIGH load(1, XDATA, add(CFA_XSP16, literal(-4)))
          CFI ?BRET_EXT load(1, XDATA, add(CFA_XSP16, literal(-3)))
          CFI DPL0 load(1, XDATA, add(CFA_XSP16, literal(-2)))
          CFI DPH0 load(1, XDATA, add(CFA_XSP16, literal(-1)))
          CFI CFA_SP SP+0
          CFI CFA_XSP16 add(XSP16, 16)
          CFI Block cfiCond35 Using cfiCommon0
          CFI (cfiCond35) Function zclColor_StepColorCB
          CFI (cfiCond35) Conditional ??CrossCallReturnLabel_83
          CFI (cfiCond35) R6 load(1, XDATA, add(CFA_XSP16, literal(-20)))
          CFI (cfiCond35) VB load(1, XDATA, add(CFA_XSP16, literal(-19)))
          CFI (cfiCond35) V0 load(1, XDATA, add(CFA_XSP16, literal(-18)))
          CFI (cfiCond35) V1 load(1, XDATA, add(CFA_XSP16, literal(-17)))
          CFI (cfiCond35) V2 load(1, XDATA, add(CFA_XSP16, literal(-16)))
          CFI (cfiCond35) V3 load(1, XDATA, add(CFA_XSP16, literal(-15)))
          CFI (cfiCond35) V4 load(1, XDATA, add(CFA_XSP16, literal(-14)))
          CFI (cfiCond35) V5 load(1, XDATA, add(CFA_XSP16, literal(-13)))
          CFI (cfiCond35) V6 load(1, XDATA, add(CFA_XSP16, literal(-12)))
          CFI (cfiCond35) V7 load(1, XDATA, add(CFA_XSP16, literal(-11)))
          CFI (cfiCond35) V8 load(1, XDATA, add(CFA_XSP16, literal(-10)))
          CFI (cfiCond35) V9 load(1, XDATA, add(CFA_XSP16, literal(-9)))
          CFI (cfiCond35) V10 load(1, XDATA, add(CFA_XSP16, literal(-8)))
          CFI (cfiCond35) V11 load(1, XDATA, add(CFA_XSP16, literal(-7)))
          CFI (cfiCond35) R7 load(1, XDATA, add(CFA_XSP16, literal(-6)))
          CFI (cfiCond35) ?RET_LOW load(1, XDATA, add(CFA_XSP16, literal(-5)))
          CFI (cfiCond35) ?RET_HIGH load(1, XDATA, add(CFA_XSP16, literal(-4)))
          CFI (cfiCond35) ?BRET_EXT load(1, XDATA, add(CFA_XSP16, literal(-3)))
          CFI (cfiCond35) DPL0 load(1, XDATA, add(CFA_XSP16, literal(-2)))
          CFI (cfiCond35) DPH0 load(1, XDATA, add(CFA_XSP16, literal(-1)))
          CFI (cfiCond35) CFA_SP SP+0
          CFI (cfiCond35) CFA_XSP16 add(XSP16, 20)
          CFI Block cfiCond36 Using cfiCommon0
          CFI (cfiCond36) Function zclColor_MoveToHueCB
          CFI (cfiCond36) Conditional ??CrossCallReturnLabel_84
          CFI (cfiCond36) R6 load(1, XDATA, add(CFA_XSP16, literal(-16)))
          CFI (cfiCond36) VB load(1, XDATA, add(CFA_XSP16, literal(-15)))
          CFI (cfiCond36) V0 load(1, XDATA, add(CFA_XSP16, literal(-14)))
          CFI (cfiCond36) V1 load(1, XDATA, add(CFA_XSP16, literal(-13)))
          CFI (cfiCond36) V2 load(1, XDATA, add(CFA_XSP16, literal(-12)))
          CFI (cfiCond36) V3 load(1, XDATA, add(CFA_XSP16, literal(-11)))
          CFI (cfiCond36) V4 load(1, XDATA, add(CFA_XSP16, literal(-10)))
          CFI (cfiCond36) V5 load(1, XDATA, add(CFA_XSP16, literal(-9)))
          CFI (cfiCond36) V6 load(1, XDATA, add(CFA_XSP16, literal(-8)))
          CFI (cfiCond36) V7 load(1, XDATA, add(CFA_XSP16, literal(-7)))
          CFI (cfiCond36) R7 load(1, XDATA, add(CFA_XSP16, literal(-6)))
          CFI (cfiCond36) ?RET_LOW load(1, XDATA, add(CFA_XSP16, literal(-5)))
          CFI (cfiCond36) ?RET_HIGH load(1, XDATA, add(CFA_XSP16, literal(-4)))
          CFI (cfiCond36) ?BRET_EXT load(1, XDATA, add(CFA_XSP16, literal(-3)))
          CFI (cfiCond36) DPL0 load(1, XDATA, add(CFA_XSP16, literal(-2)))
          CFI (cfiCond36) DPH0 load(1, XDATA, add(CFA_XSP16, literal(-1)))
          CFI (cfiCond36) CFA_SP SP+0
          CFI (cfiCond36) CFA_XSP16 add(XSP16, 16)
          CFI Block cfiPicker37 Using cfiCommon1
          CFI (cfiPicker37) NoFunction
          CFI (cfiPicker37) Picker
        SUBB    A,0xE0 /* A   */
        MOV     ?V0 + 6,A
        MOV     ?V0 + 7,A
        MOV     A,#0x8
        MOV     R0,#?V0 + 4
        RET
          CFI EndBlock cfiCond34
          CFI EndBlock cfiCond35
          CFI EndBlock cfiCond36
          CFI EndBlock cfiPicker37

        RSEG BANKED_CODE:CODE:NOROOT(0)
?Subroutine11:
          CFI Block cfiCond38 Using cfiCommon0
          CFI Function zclColor_MoveToColorCB
          CFI Conditional ??CrossCallReturnLabel_12
          CFI R6 load(1, XDATA, add(CFA_XSP16, literal(-24)))
          CFI VB load(1, XDATA, add(CFA_XSP16, literal(-23)))
          CFI V0 load(1, XDATA, add(CFA_XSP16, literal(-22)))
          CFI V1 load(1, XDATA, add(CFA_XSP16, literal(-21)))
          CFI V2 load(1, XDATA, add(CFA_XSP16, literal(-20)))
          CFI V3 load(1, XDATA, add(CFA_XSP16, literal(-19)))
          CFI V4 load(1, XDATA, add(CFA_XSP16, literal(-18)))
          CFI V5 load(1, XDATA, add(CFA_XSP16, literal(-17)))
          CFI V6 load(1, XDATA, add(CFA_XSP16, literal(-16)))
          CFI V7 load(1, XDATA, add(CFA_XSP16, literal(-15)))
          CFI V8 load(1, XDATA, add(CFA_XSP16, literal(-14)))
          CFI V9 load(1, XDATA, add(CFA_XSP16, literal(-13)))
          CFI V10 load(1, XDATA, add(CFA_XSP16, literal(-12)))
          CFI V11 load(1, XDATA, add(CFA_XSP16, literal(-11)))
          CFI V12 load(1, XDATA, add(CFA_XSP16, literal(-10)))
          CFI V13 load(1, XDATA, add(CFA_XSP16, literal(-9)))
          CFI V14 load(1, XDATA, add(CFA_XSP16, literal(-8)))
          CFI V15 load(1, XDATA, add(CFA_XSP16, literal(-7)))
          CFI R7 load(1, XDATA, add(CFA_XSP16, literal(-6)))
          CFI ?RET_LOW load(1, XDATA, add(CFA_XSP16, literal(-5)))
          CFI ?RET_HIGH load(1, XDATA, add(CFA_XSP16, literal(-4)))
          CFI ?BRET_EXT load(1, XDATA, add(CFA_XSP16, literal(-3)))
          CFI DPL0 load(1, XDATA, add(CFA_XSP16, literal(-2)))
          CFI DPH0 load(1, XDATA, add(CFA_XSP16, literal(-1)))
          CFI CFA_SP SP+0
          CFI CFA_XSP16 add(XSP16, 24)
          CFI Block cfiCond39 Using cfiCommon0
          CFI (cfiCond39) Function zclColor_StepColorCB
          CFI (cfiCond39) Conditional ??CrossCallReturnLabel_13
          CFI (cfiCond39) R6 load(1, XDATA, add(CFA_XSP16, literal(-20)))
          CFI (cfiCond39) VB load(1, XDATA, add(CFA_XSP16, literal(-19)))
          CFI (cfiCond39) V0 load(1, XDATA, add(CFA_XSP16, literal(-18)))
          CFI (cfiCond39) V1 load(1, XDATA, add(CFA_XSP16, literal(-17)))
          CFI (cfiCond39) V2 load(1, XDATA, add(CFA_XSP16, literal(-16)))
          CFI (cfiCond39) V3 load(1, XDATA, add(CFA_XSP16, literal(-15)))
          CFI (cfiCond39) V4 load(1, XDATA, add(CFA_XSP16, literal(-14)))
          CFI (cfiCond39) V5 load(1, XDATA, add(CFA_XSP16, literal(-13)))
          CFI (cfiCond39) V6 load(1, XDATA, add(CFA_XSP16, literal(-12)))
          CFI (cfiCond39) V7 load(1, XDATA, add(CFA_XSP16, literal(-11)))
          CFI (cfiCond39) V8 load(1, XDATA, add(CFA_XSP16, literal(-10)))
          CFI (cfiCond39) V9 load(1, XDATA, add(CFA_XSP16, literal(-9)))
          CFI (cfiCond39) V10 load(1, XDATA, add(CFA_XSP16, literal(-8)))
          CFI (cfiCond39) V11 load(1, XDATA, add(CFA_XSP16, literal(-7)))
          CFI (cfiCond39) R7 load(1, XDATA, add(CFA_XSP16, literal(-6)))
          CFI (cfiCond39) ?RET_LOW load(1, XDATA, add(CFA_XSP16, literal(-5)))
          CFI (cfiCond39) ?RET_HIGH load(1, XDATA, add(CFA_XSP16, literal(-4)))
          CFI (cfiCond39) ?BRET_EXT load(1, XDATA, add(CFA_XSP16, literal(-3)))
          CFI (cfiCond39) DPL0 load(1, XDATA, add(CFA_XSP16, literal(-2)))
          CFI (cfiCond39) DPH0 load(1, XDATA, add(CFA_XSP16, literal(-1)))
          CFI (cfiCond39) CFA_SP SP+0
          CFI (cfiCond39) CFA_XSP16 add(XSP16, 20)
          CFI Block cfiPicker40 Using cfiCommon1
          CFI (cfiPicker40) NoFunction
          CFI (cfiPicker40) Picker
        XCH     A,R3
        XCH     A,R4
        MOV     DPTR,#zclColor_CurrentX_256
        LCALL   ?Subroutine39 & 0xFFFF
??CrossCallReturnLabel_71:
        MOV     DPTR,#zclColor_CurrentY
        MOVX    A,@DPTR
        RET
          CFI EndBlock cfiCond38
          CFI EndBlock cfiCond39
          CFI EndBlock cfiPicker40

        RSEG BANKED_CODE:CODE:NOROOT(0)
?Subroutine4:
          CFI Block cfiCond41 Using cfiCommon0
          CFI Function zclColor_MoveToColorCB
          CFI Conditional ??CrossCallReturnLabel_0
          CFI R6 load(1, XDATA, add(CFA_XSP16, literal(-24)))
          CFI VB load(1, XDATA, add(CFA_XSP16, literal(-23)))
          CFI V0 load(1, XDATA, add(CFA_XSP16, literal(-22)))
          CFI V1 load(1, XDATA, add(CFA_XSP16, literal(-21)))
          CFI V2 load(1, XDATA, add(CFA_XSP16, literal(-20)))
          CFI V3 load(1, XDATA, add(CFA_XSP16, literal(-19)))
          CFI V4 load(1, XDATA, add(CFA_XSP16, literal(-18)))
          CFI V5 load(1, XDATA, add(CFA_XSP16, literal(-17)))
          CFI V6 load(1, XDATA, add(CFA_XSP16, literal(-16)))
          CFI V7 load(1, XDATA, add(CFA_XSP16, literal(-15)))
          CFI V8 load(1, XDATA, add(CFA_XSP16, literal(-14)))
          CFI V9 load(1, XDATA, add(CFA_XSP16, literal(-13)))
          CFI V10 load(1, XDATA, add(CFA_XSP16, literal(-12)))
          CFI V11 load(1, XDATA, add(CFA_XSP16, literal(-11)))
          CFI V12 load(1, XDATA, add(CFA_XSP16, literal(-10)))
          CFI V13 load(1, XDATA, add(CFA_XSP16, literal(-9)))
          CFI V14 load(1, XDATA, add(CFA_XSP16, literal(-8)))
          CFI V15 load(1, XDATA, add(CFA_XSP16, literal(-7)))
          CFI R7 load(1, XDATA, add(CFA_XSP16, literal(-6)))
          CFI ?RET_LOW load(1, XDATA, add(CFA_XSP16, literal(-5)))
          CFI ?RET_HIGH load(1, XDATA, add(CFA_XSP16, literal(-4)))
          CFI ?BRET_EXT load(1, XDATA, add(CFA_XSP16, literal(-3)))
          CFI DPL0 load(1, XDATA, add(CFA_XSP16, literal(-2)))
          CFI DPH0 load(1, XDATA, add(CFA_XSP16, literal(-1)))
          CFI CFA_SP SP+0
          CFI CFA_XSP16 add(XSP16, 24)
          CFI Block cfiCond42 Using cfiCommon0
          CFI (cfiCond42) Function zclColor_StepColorCB
          CFI (cfiCond42) Conditional ??CrossCallReturnLabel_1
          CFI (cfiCond42) R6 load(1, XDATA, add(CFA_XSP16, literal(-20)))
          CFI (cfiCond42) VB load(1, XDATA, add(CFA_XSP16, literal(-19)))
          CFI (cfiCond42) V0 load(1, XDATA, add(CFA_XSP16, literal(-18)))
          CFI (cfiCond42) V1 load(1, XDATA, add(CFA_XSP16, literal(-17)))
          CFI (cfiCond42) V2 load(1, XDATA, add(CFA_XSP16, literal(-16)))
          CFI (cfiCond42) V3 load(1, XDATA, add(CFA_XSP16, literal(-15)))
          CFI (cfiCond42) V4 load(1, XDATA, add(CFA_XSP16, literal(-14)))
          CFI (cfiCond42) V5 load(1, XDATA, add(CFA_XSP16, literal(-13)))
          CFI (cfiCond42) V6 load(1, XDATA, add(CFA_XSP16, literal(-12)))
          CFI (cfiCond42) V7 load(1, XDATA, add(CFA_XSP16, literal(-11)))
          CFI (cfiCond42) V8 load(1, XDATA, add(CFA_XSP16, literal(-10)))
          CFI (cfiCond42) V9 load(1, XDATA, add(CFA_XSP16, literal(-9)))
          CFI (cfiCond42) V10 load(1, XDATA, add(CFA_XSP16, literal(-8)))
          CFI (cfiCond42) V11 load(1, XDATA, add(CFA_XSP16, literal(-7)))
          CFI (cfiCond42) R7 load(1, XDATA, add(CFA_XSP16, literal(-6)))
          CFI (cfiCond42) ?RET_LOW load(1, XDATA, add(CFA_XSP16, literal(-5)))
          CFI (cfiCond42) ?RET_HIGH load(1, XDATA, add(CFA_XSP16, literal(-4)))
          CFI (cfiCond42) ?BRET_EXT load(1, XDATA, add(CFA_XSP16, literal(-3)))
          CFI (cfiCond42) DPL0 load(1, XDATA, add(CFA_XSP16, literal(-2)))
          CFI (cfiCond42) DPH0 load(1, XDATA, add(CFA_XSP16, literal(-1)))
          CFI (cfiCond42) CFA_SP SP+0
          CFI (cfiCond42) CFA_XSP16 add(XSP16, 20)
          CFI Block cfiPicker43 Using cfiCommon1
          CFI (cfiPicker43) NoFunction
          CFI (cfiPicker43) Picker
        XCH     A,R3
        XCH     A,R4
        MOV     DPTR,#zclColor_CurrentY_256
        LCALL   ?Subroutine39 & 0xFFFF
??CrossCallReturnLabel_70:
        MOV     DPTR,#zclColor_ColorMode
        INC     A
        MOVX    @DPTR,A
        MOV     DPTR,#zclColor_EnhancedColorMode
        LCALL   ?Subroutine47 & 0xFFFF
??CrossCallReturnLabel_88:
        INC     DPTR
        INC     DPTR
        INC     DPTR
        INC     DPTR
        LCALL   ?Subroutine42 & 0xFFFF
??CrossCallReturnLabel_135:
        MOV     A,R0
        ORL     A,R1
        MOV     DPTR,#zclColor_ColorRemainingTime
        RET
          CFI EndBlock cfiCond41
          CFI EndBlock cfiCond42
          CFI EndBlock cfiPicker43

        RSEG BANKED_CODE:CODE:NOROOT(0)
?Subroutine39:
          CFI Block cfiCond44 Using cfiCommon0
          CFI Function zclColor_MoveToColorCB
          CFI Conditional ??CrossCallReturnLabel_71, ??CrossCallReturnLabel_12
          CFI R6 load(1, XDATA, add(CFA_XSP16, literal(-24)))
          CFI VB load(1, XDATA, add(CFA_XSP16, literal(-23)))
          CFI V0 load(1, XDATA, add(CFA_XSP16, literal(-22)))
          CFI V1 load(1, XDATA, add(CFA_XSP16, literal(-21)))
          CFI V2 load(1, XDATA, add(CFA_XSP16, literal(-20)))
          CFI V3 load(1, XDATA, add(CFA_XSP16, literal(-19)))
          CFI V4 load(1, XDATA, add(CFA_XSP16, literal(-18)))
          CFI V5 load(1, XDATA, add(CFA_XSP16, literal(-17)))
          CFI V6 load(1, XDATA, add(CFA_XSP16, literal(-16)))
          CFI V7 load(1, XDATA, add(CFA_XSP16, literal(-15)))
          CFI V8 load(1, XDATA, add(CFA_XSP16, literal(-14)))
          CFI V9 load(1, XDATA, add(CFA_XSP16, literal(-13)))
          CFI V10 load(1, XDATA, add(CFA_XSP16, literal(-12)))
          CFI V11 load(1, XDATA, add(CFA_XSP16, literal(-11)))
          CFI V12 load(1, XDATA, add(CFA_XSP16, literal(-10)))
          CFI V13 load(1, XDATA, add(CFA_XSP16, literal(-9)))
          CFI V14 load(1, XDATA, add(CFA_XSP16, literal(-8)))
          CFI V15 load(1, XDATA, add(CFA_XSP16, literal(-7)))
          CFI R7 load(1, XDATA, add(CFA_XSP16, literal(-6)))
          CFI ?RET_LOW load(1, XDATA, add(CFA_XSP16, literal(-5)))
          CFI ?RET_HIGH load(1, XDATA, add(CFA_XSP16, literal(-4)))
          CFI ?BRET_EXT load(1, XDATA, add(CFA_XSP16, literal(-3)))
          CFI DPL0 load(1, XDATA, add(CFA_XSP16, literal(-2)))
          CFI DPH0 load(1, XDATA, add(CFA_XSP16, literal(-1)))
          CFI CFA_SP SP+0
          CFI CFA_XSP16 add(XSP16, 24)
          CFI Block cfiCond45 Using cfiCommon0
          CFI (cfiCond45) Function zclColor_StepColorCB
          CFI (cfiCond45) Conditional ??CrossCallReturnLabel_71, ??CrossCallReturnLabel_13
          CFI (cfiCond45) R6 load(1, XDATA, add(CFA_XSP16, literal(-20)))
          CFI (cfiCond45) VB load(1, XDATA, add(CFA_XSP16, literal(-19)))
          CFI (cfiCond45) V0 load(1, XDATA, add(CFA_XSP16, literal(-18)))
          CFI (cfiCond45) V1 load(1, XDATA, add(CFA_XSP16, literal(-17)))
          CFI (cfiCond45) V2 load(1, XDATA, add(CFA_XSP16, literal(-16)))
          CFI (cfiCond45) V3 load(1, XDATA, add(CFA_XSP16, literal(-15)))
          CFI (cfiCond45) V4 load(1, XDATA, add(CFA_XSP16, literal(-14)))
          CFI (cfiCond45) V5 load(1, XDATA, add(CFA_XSP16, literal(-13)))
          CFI (cfiCond45) V6 load(1, XDATA, add(CFA_XSP16, literal(-12)))
          CFI (cfiCond45) V7 load(1, XDATA, add(CFA_XSP16, literal(-11)))
          CFI (cfiCond45) V8 load(1, XDATA, add(CFA_XSP16, literal(-10)))
          CFI (cfiCond45) V9 load(1, XDATA, add(CFA_XSP16, literal(-9)))
          CFI (cfiCond45) V10 load(1, XDATA, add(CFA_XSP16, literal(-8)))
          CFI (cfiCond45) V11 load(1, XDATA, add(CFA_XSP16, literal(-7)))
          CFI (cfiCond45) R7 load(1, XDATA, add(CFA_XSP16, literal(-6)))
          CFI (cfiCond45) ?RET_LOW load(1, XDATA, add(CFA_XSP16, literal(-5)))
          CFI (cfiCond45) ?RET_HIGH load(1, XDATA, add(CFA_XSP16, literal(-4)))
          CFI (cfiCond45) ?BRET_EXT load(1, XDATA, add(CFA_XSP16, literal(-3)))
          CFI (cfiCond45) DPL0 load(1, XDATA, add(CFA_XSP16, literal(-2)))
          CFI (cfiCond45) DPH0 load(1, XDATA, add(CFA_XSP16, literal(-1)))
          CFI (cfiCond45) CFA_SP SP+0
          CFI (cfiCond45) CFA_XSP16 add(XSP16, 20)
          CFI Block cfiCond46 Using cfiCommon0
          CFI (cfiCond46) Function zclColor_MoveToColorCB
          CFI (cfiCond46) Conditional ??CrossCallReturnLabel_70, ??CrossCallReturnLabel_0
          CFI (cfiCond46) R6 load(1, XDATA, add(CFA_XSP16, literal(-24)))
          CFI (cfiCond46) VB load(1, XDATA, add(CFA_XSP16, literal(-23)))
          CFI (cfiCond46) V0 load(1, XDATA, add(CFA_XSP16, literal(-22)))
          CFI (cfiCond46) V1 load(1, XDATA, add(CFA_XSP16, literal(-21)))
          CFI (cfiCond46) V2 load(1, XDATA, add(CFA_XSP16, literal(-20)))
          CFI (cfiCond46) V3 load(1, XDATA, add(CFA_XSP16, literal(-19)))
          CFI (cfiCond46) V4 load(1, XDATA, add(CFA_XSP16, literal(-18)))
          CFI (cfiCond46) V5 load(1, XDATA, add(CFA_XSP16, literal(-17)))
          CFI (cfiCond46) V6 load(1, XDATA, add(CFA_XSP16, literal(-16)))
          CFI (cfiCond46) V7 load(1, XDATA, add(CFA_XSP16, literal(-15)))
          CFI (cfiCond46) V8 load(1, XDATA, add(CFA_XSP16, literal(-14)))
          CFI (cfiCond46) V9 load(1, XDATA, add(CFA_XSP16, literal(-13)))
          CFI (cfiCond46) V10 load(1, XDATA, add(CFA_XSP16, literal(-12)))
          CFI (cfiCond46) V11 load(1, XDATA, add(CFA_XSP16, literal(-11)))
          CFI (cfiCond46) V12 load(1, XDATA, add(CFA_XSP16, literal(-10)))
          CFI (cfiCond46) V13 load(1, XDATA, add(CFA_XSP16, literal(-9)))
          CFI (cfiCond46) V14 load(1, XDATA, add(CFA_XSP16, literal(-8)))
          CFI (cfiCond46) V15 load(1, XDATA, add(CFA_XSP16, literal(-7)))
          CFI (cfiCond46) R7 load(1, XDATA, add(CFA_XSP16, literal(-6)))
          CFI (cfiCond46) ?RET_LOW load(1, XDATA, add(CFA_XSP16, literal(-5)))
          CFI (cfiCond46) ?RET_HIGH load(1, XDATA, add(CFA_XSP16, literal(-4)))
          CFI (cfiCond46) ?BRET_EXT load(1, XDATA, add(CFA_XSP16, literal(-3)))
          CFI (cfiCond46) DPL0 load(1, XDATA, add(CFA_XSP16, literal(-2)))
          CFI (cfiCond46) DPH0 load(1, XDATA, add(CFA_XSP16, literal(-1)))
          CFI (cfiCond46) CFA_SP SP+0
          CFI (cfiCond46) CFA_XSP16 add(XSP16, 24)
          CFI Block cfiCond47 Using cfiCommon0
          CFI (cfiCond47) Function zclColor_StepColorCB
          CFI (cfiCond47) Conditional ??CrossCallReturnLabel_70, ??CrossCallReturnLabel_1
          CFI (cfiCond47) R6 load(1, XDATA, add(CFA_XSP16, literal(-20)))
          CFI (cfiCond47) VB load(1, XDATA, add(CFA_XSP16, literal(-19)))
          CFI (cfiCond47) V0 load(1, XDATA, add(CFA_XSP16, literal(-18)))
          CFI (cfiCond47) V1 load(1, XDATA, add(CFA_XSP16, literal(-17)))
          CFI (cfiCond47) V2 load(1, XDATA, add(CFA_XSP16, literal(-16)))
          CFI (cfiCond47) V3 load(1, XDATA, add(CFA_XSP16, literal(-15)))
          CFI (cfiCond47) V4 load(1, XDATA, add(CFA_XSP16, literal(-14)))
          CFI (cfiCond47) V5 load(1, XDATA, add(CFA_XSP16, literal(-13)))
          CFI (cfiCond47) V6 load(1, XDATA, add(CFA_XSP16, literal(-12)))
          CFI (cfiCond47) V7 load(1, XDATA, add(CFA_XSP16, literal(-11)))
          CFI (cfiCond47) V8 load(1, XDATA, add(CFA_XSP16, literal(-10)))
          CFI (cfiCond47) V9 load(1, XDATA, add(CFA_XSP16, literal(-9)))
          CFI (cfiCond47) V10 load(1, XDATA, add(CFA_XSP16, literal(-8)))
          CFI (cfiCond47) V11 load(1, XDATA, add(CFA_XSP16, literal(-7)))
          CFI (cfiCond47) R7 load(1, XDATA, add(CFA_XSP16, literal(-6)))
          CFI (cfiCond47) ?RET_LOW load(1, XDATA, add(CFA_XSP16, literal(-5)))
          CFI (cfiCond47) ?RET_HIGH load(1, XDATA, add(CFA_XSP16, literal(-4)))
          CFI (cfiCond47) ?BRET_EXT load(1, XDATA, add(CFA_XSP16, literal(-3)))
          CFI (cfiCond47) DPL0 load(1, XDATA, add(CFA_XSP16, literal(-2)))
          CFI (cfiCond47) DPH0 load(1, XDATA, add(CFA_XSP16, literal(-1)))
          CFI (cfiCond47) CFA_SP SP+0
          CFI (cfiCond47) CFA_XSP16 add(XSP16, 20)
          CFI Block cfiPicker48 Using cfiCommon1
          CFI (cfiPicker48) NoFunction
          CFI (cfiPicker48) Picker
        LCALL   ?Subroutine46 & 0xFFFF
??CrossCallReturnLabel_81:
        RET
          CFI EndBlock cfiCond44
          CFI EndBlock cfiCond45
          CFI EndBlock cfiCond46
          CFI EndBlock cfiCond47
          CFI EndBlock cfiPicker48

        RSEG BANKED_CODE:CODE:NOROOT(0)
?Subroutine46:
          CFI Block cfiCond49 Using cfiCommon0
          CFI Function zclColor_MoveToColorCB
          CFI Conditional ??CrossCallReturnLabel_81, ??CrossCallReturnLabel_71, ??CrossCallReturnLabel_12
          CFI R6 load(1, XDATA, add(CFA_XSP16, literal(-24)))
          CFI VB load(1, XDATA, add(CFA_XSP16, literal(-23)))
          CFI V0 load(1, XDATA, add(CFA_XSP16, literal(-22)))
          CFI V1 load(1, XDATA, add(CFA_XSP16, literal(-21)))
          CFI V2 load(1, XDATA, add(CFA_XSP16, literal(-20)))
          CFI V3 load(1, XDATA, add(CFA_XSP16, literal(-19)))
          CFI V4 load(1, XDATA, add(CFA_XSP16, literal(-18)))
          CFI V5 load(1, XDATA, add(CFA_XSP16, literal(-17)))
          CFI V6 load(1, XDATA, add(CFA_XSP16, literal(-16)))
          CFI V7 load(1, XDATA, add(CFA_XSP16, literal(-15)))
          CFI V8 load(1, XDATA, add(CFA_XSP16, literal(-14)))
          CFI V9 load(1, XDATA, add(CFA_XSP16, literal(-13)))
          CFI V10 load(1, XDATA, add(CFA_XSP16, literal(-12)))
          CFI V11 load(1, XDATA, add(CFA_XSP16, literal(-11)))
          CFI V12 load(1, XDATA, add(CFA_XSP16, literal(-10)))
          CFI V13 load(1, XDATA, add(CFA_XSP16, literal(-9)))
          CFI V14 load(1, XDATA, add(CFA_XSP16, literal(-8)))
          CFI V15 load(1, XDATA, add(CFA_XSP16, literal(-7)))
          CFI R7 load(1, XDATA, add(CFA_XSP16, literal(-6)))
          CFI ?RET_LOW load(1, XDATA, add(CFA_XSP16, literal(-5)))
          CFI ?RET_HIGH load(1, XDATA, add(CFA_XSP16, literal(-4)))
          CFI ?BRET_EXT load(1, XDATA, add(CFA_XSP16, literal(-3)))
          CFI DPL0 load(1, XDATA, add(CFA_XSP16, literal(-2)))
          CFI DPH0 load(1, XDATA, add(CFA_XSP16, literal(-1)))
          CFI CFA_SP SP+0
          CFI CFA_XSP16 add(XSP16, 24)
          CFI Block cfiCond50 Using cfiCommon0
          CFI (cfiCond50) Function zclColor_StepColorCB
          CFI (cfiCond50) Conditional ??CrossCallReturnLabel_81, ??CrossCallReturnLabel_71, ??CrossCallReturnLabel_13
          CFI (cfiCond50) R6 load(1, XDATA, add(CFA_XSP16, literal(-20)))
          CFI (cfiCond50) VB load(1, XDATA, add(CFA_XSP16, literal(-19)))
          CFI (cfiCond50) V0 load(1, XDATA, add(CFA_XSP16, literal(-18)))
          CFI (cfiCond50) V1 load(1, XDATA, add(CFA_XSP16, literal(-17)))
          CFI (cfiCond50) V2 load(1, XDATA, add(CFA_XSP16, literal(-16)))
          CFI (cfiCond50) V3 load(1, XDATA, add(CFA_XSP16, literal(-15)))
          CFI (cfiCond50) V4 load(1, XDATA, add(CFA_XSP16, literal(-14)))
          CFI (cfiCond50) V5 load(1, XDATA, add(CFA_XSP16, literal(-13)))
          CFI (cfiCond50) V6 load(1, XDATA, add(CFA_XSP16, literal(-12)))
          CFI (cfiCond50) V7 load(1, XDATA, add(CFA_XSP16, literal(-11)))
          CFI (cfiCond50) V8 load(1, XDATA, add(CFA_XSP16, literal(-10)))
          CFI (cfiCond50) V9 load(1, XDATA, add(CFA_XSP16, literal(-9)))
          CFI (cfiCond50) V10 load(1, XDATA, add(CFA_XSP16, literal(-8)))
          CFI (cfiCond50) V11 load(1, XDATA, add(CFA_XSP16, literal(-7)))
          CFI (cfiCond50) R7 load(1, XDATA, add(CFA_XSP16, literal(-6)))
          CFI (cfiCond50) ?RET_LOW load(1, XDATA, add(CFA_XSP16, literal(-5)))
          CFI (cfiCond50) ?RET_HIGH load(1, XDATA, add(CFA_XSP16, literal(-4)))
          CFI (cfiCond50) ?BRET_EXT load(1, XDATA, add(CFA_XSP16, literal(-3)))
          CFI (cfiCond50) DPL0 load(1, XDATA, add(CFA_XSP16, literal(-2)))
          CFI (cfiCond50) DPH0 load(1, XDATA, add(CFA_XSP16, literal(-1)))
          CFI (cfiCond50) CFA_SP SP+0
          CFI (cfiCond50) CFA_XSP16 add(XSP16, 20)
          CFI Block cfiCond51 Using cfiCommon0
          CFI (cfiCond51) Function zclColor_MoveToColorCB
          CFI (cfiCond51) Conditional ??CrossCallReturnLabel_81, ??CrossCallReturnLabel_70, ??CrossCallReturnLabel_0
          CFI (cfiCond51) R6 load(1, XDATA, add(CFA_XSP16, literal(-24)))
          CFI (cfiCond51) VB load(1, XDATA, add(CFA_XSP16, literal(-23)))
          CFI (cfiCond51) V0 load(1, XDATA, add(CFA_XSP16, literal(-22)))
          CFI (cfiCond51) V1 load(1, XDATA, add(CFA_XSP16, literal(-21)))
          CFI (cfiCond51) V2 load(1, XDATA, add(CFA_XSP16, literal(-20)))
          CFI (cfiCond51) V3 load(1, XDATA, add(CFA_XSP16, literal(-19)))
          CFI (cfiCond51) V4 load(1, XDATA, add(CFA_XSP16, literal(-18)))
          CFI (cfiCond51) V5 load(1, XDATA, add(CFA_XSP16, literal(-17)))
          CFI (cfiCond51) V6 load(1, XDATA, add(CFA_XSP16, literal(-16)))
          CFI (cfiCond51) V7 load(1, XDATA, add(CFA_XSP16, literal(-15)))
          CFI (cfiCond51) V8 load(1, XDATA, add(CFA_XSP16, literal(-14)))
          CFI (cfiCond51) V9 load(1, XDATA, add(CFA_XSP16, literal(-13)))
          CFI (cfiCond51) V10 load(1, XDATA, add(CFA_XSP16, literal(-12)))
          CFI (cfiCond51) V11 load(1, XDATA, add(CFA_XSP16, literal(-11)))
          CFI (cfiCond51) V12 load(1, XDATA, add(CFA_XSP16, literal(-10)))
          CFI (cfiCond51) V13 load(1, XDATA, add(CFA_XSP16, literal(-9)))
          CFI (cfiCond51) V14 load(1, XDATA, add(CFA_XSP16, literal(-8)))
          CFI (cfiCond51) V15 load(1, XDATA, add(CFA_XSP16, literal(-7)))
          CFI (cfiCond51) R7 load(1, XDATA, add(CFA_XSP16, literal(-6)))
          CFI (cfiCond51) ?RET_LOW load(1, XDATA, add(CFA_XSP16, literal(-5)))
          CFI (cfiCond51) ?RET_HIGH load(1, XDATA, add(CFA_XSP16, literal(-4)))
          CFI (cfiCond51) ?BRET_EXT load(1, XDATA, add(CFA_XSP16, literal(-3)))
          CFI (cfiCond51) DPL0 load(1, XDATA, add(CFA_XSP16, literal(-2)))
          CFI (cfiCond51) DPH0 load(1, XDATA, add(CFA_XSP16, literal(-1)))
          CFI (cfiCond51) CFA_SP SP+0
          CFI (cfiCond51) CFA_XSP16 add(XSP16, 24)
          CFI Block cfiCond52 Using cfiCommon0
          CFI (cfiCond52) Function zclColor_StepColorCB
          CFI (cfiCond52) Conditional ??CrossCallReturnLabel_81, ??CrossCallReturnLabel_70, ??CrossCallReturnLabel_1
          CFI (cfiCond52) R6 load(1, XDATA, add(CFA_XSP16, literal(-20)))
          CFI (cfiCond52) VB load(1, XDATA, add(CFA_XSP16, literal(-19)))
          CFI (cfiCond52) V0 load(1, XDATA, add(CFA_XSP16, literal(-18)))
          CFI (cfiCond52) V1 load(1, XDATA, add(CFA_XSP16, literal(-17)))
          CFI (cfiCond52) V2 load(1, XDATA, add(CFA_XSP16, literal(-16)))
          CFI (cfiCond52) V3 load(1, XDATA, add(CFA_XSP16, literal(-15)))
          CFI (cfiCond52) V4 load(1, XDATA, add(CFA_XSP16, literal(-14)))
          CFI (cfiCond52) V5 load(1, XDATA, add(CFA_XSP16, literal(-13)))
          CFI (cfiCond52) V6 load(1, XDATA, add(CFA_XSP16, literal(-12)))
          CFI (cfiCond52) V7 load(1, XDATA, add(CFA_XSP16, literal(-11)))
          CFI (cfiCond52) V8 load(1, XDATA, add(CFA_XSP16, literal(-10)))
          CFI (cfiCond52) V9 load(1, XDATA, add(CFA_XSP16, literal(-9)))
          CFI (cfiCond52) V10 load(1, XDATA, add(CFA_XSP16, literal(-8)))
          CFI (cfiCond52) V11 load(1, XDATA, add(CFA_XSP16, literal(-7)))
          CFI (cfiCond52) R7 load(1, XDATA, add(CFA_XSP16, literal(-6)))
          CFI (cfiCond52) ?RET_LOW load(1, XDATA, add(CFA_XSP16, literal(-5)))
          CFI (cfiCond52) ?RET_HIGH load(1, XDATA, add(CFA_XSP16, literal(-4)))
          CFI (cfiCond52) ?BRET_EXT load(1, XDATA, add(CFA_XSP16, literal(-3)))
          CFI (cfiCond52) DPL0 load(1, XDATA, add(CFA_XSP16, literal(-2)))
          CFI (cfiCond52) DPH0 load(1, XDATA, add(CFA_XSP16, literal(-1)))
          CFI (cfiCond52) CFA_SP SP+0
          CFI (cfiCond52) CFA_XSP16 add(XSP16, 20)
          CFI Block cfiCond53 Using cfiCommon0
          CFI (cfiCond53) Function zclColor_EnhMoveToHueCB
          CFI (cfiCond53) Conditional ??CrossCallReturnLabel_80, ??CrossCallReturnLabel_66, ??CrossCallReturnLabel_2
          CFI (cfiCond53) R6 load(1, XDATA, add(CFA_XSP16, literal(-16)))
          CFI (cfiCond53) VB load(1, XDATA, add(CFA_XSP16, literal(-15)))
          CFI (cfiCond53) V0 load(1, XDATA, add(CFA_XSP16, literal(-14)))
          CFI (cfiCond53) V1 load(1, XDATA, add(CFA_XSP16, literal(-13)))
          CFI (cfiCond53) V2 load(1, XDATA, add(CFA_XSP16, literal(-12)))
          CFI (cfiCond53) V3 load(1, XDATA, add(CFA_XSP16, literal(-11)))
          CFI (cfiCond53) V4 load(1, XDATA, add(CFA_XSP16, literal(-10)))
          CFI (cfiCond53) V5 load(1, XDATA, add(CFA_XSP16, literal(-9)))
          CFI (cfiCond53) V6 load(1, XDATA, add(CFA_XSP16, literal(-8)))
          CFI (cfiCond53) V7 load(1, XDATA, add(CFA_XSP16, literal(-7)))
          CFI (cfiCond53) R7 load(1, XDATA, add(CFA_XSP16, literal(-6)))
          CFI (cfiCond53) ?RET_LOW load(1, XDATA, add(CFA_XSP16, literal(-5)))
          CFI (cfiCond53) ?RET_HIGH load(1, XDATA, add(CFA_XSP16, literal(-4)))
          CFI (cfiCond53) ?BRET_EXT load(1, XDATA, add(CFA_XSP16, literal(-3)))
          CFI (cfiCond53) DPL0 load(1, XDATA, add(CFA_XSP16, literal(-2)))
          CFI (cfiCond53) DPH0 load(1, XDATA, add(CFA_XSP16, literal(-1)))
          CFI (cfiCond53) CFA_SP SP+0
          CFI (cfiCond53) CFA_XSP16 add(XSP16, 16)
          CFI Block cfiCond54 Using cfiCommon0
          CFI (cfiCond54) Function zclColor_MoveEnhHueCB
          CFI (cfiCond54) Conditional ??CrossCallReturnLabel_80, ??CrossCallReturnLabel_66, ??CrossCallReturnLabel_3
          CFI (cfiCond54) R6 load(1, XDATA, add(CFA_XSP16, literal(-16)))
          CFI (cfiCond54) VB load(1, XDATA, add(CFA_XSP16, literal(-15)))
          CFI (cfiCond54) V0 load(1, XDATA, add(CFA_XSP16, literal(-14)))
          CFI (cfiCond54) V1 load(1, XDATA, add(CFA_XSP16, literal(-13)))
          CFI (cfiCond54) V2 load(1, XDATA, add(CFA_XSP16, literal(-12)))
          CFI (cfiCond54) V3 load(1, XDATA, add(CFA_XSP16, literal(-11)))
          CFI (cfiCond54) V4 load(1, XDATA, add(CFA_XSP16, literal(-10)))
          CFI (cfiCond54) V5 load(1, XDATA, add(CFA_XSP16, literal(-9)))
          CFI (cfiCond54) V6 load(1, XDATA, add(CFA_XSP16, literal(-8)))
          CFI (cfiCond54) V7 load(1, XDATA, add(CFA_XSP16, literal(-7)))
          CFI (cfiCond54) R7 load(1, XDATA, add(CFA_XSP16, literal(-6)))
          CFI (cfiCond54) ?RET_LOW load(1, XDATA, add(CFA_XSP16, literal(-5)))
          CFI (cfiCond54) ?RET_HIGH load(1, XDATA, add(CFA_XSP16, literal(-4)))
          CFI (cfiCond54) ?BRET_EXT load(1, XDATA, add(CFA_XSP16, literal(-3)))
          CFI (cfiCond54) DPL0 load(1, XDATA, add(CFA_XSP16, literal(-2)))
          CFI (cfiCond54) DPH0 load(1, XDATA, add(CFA_XSP16, literal(-1)))
          CFI (cfiCond54) CFA_SP SP+0
          CFI (cfiCond54) CFA_XSP16 add(XSP16, 16)
          CFI Block cfiCond55 Using cfiCommon0
          CFI (cfiCond55) Function zclColor_processColorLoop
          CFI (cfiCond55) Conditional ??CrossCallReturnLabel_80, ??CrossCallReturnLabel_67, ??CrossCallReturnLabel_4
          CFI (cfiCond55) R6 load(1, XDATA, add(CFA_XSP16, literal(-16)))
          CFI (cfiCond55) VB load(1, XDATA, add(CFA_XSP16, literal(-15)))
          CFI (cfiCond55) V0 load(1, XDATA, add(CFA_XSP16, literal(-14)))
          CFI (cfiCond55) V1 load(1, XDATA, add(CFA_XSP16, literal(-13)))
          CFI (cfiCond55) V2 load(1, XDATA, add(CFA_XSP16, literal(-12)))
          CFI (cfiCond55) V3 load(1, XDATA, add(CFA_XSP16, literal(-11)))
          CFI (cfiCond55) V4 load(1, XDATA, add(CFA_XSP16, literal(-10)))
          CFI (cfiCond55) V5 load(1, XDATA, add(CFA_XSP16, literal(-9)))
          CFI (cfiCond55) V6 load(1, XDATA, add(CFA_XSP16, literal(-8)))
          CFI (cfiCond55) V7 load(1, XDATA, add(CFA_XSP16, literal(-7)))
          CFI (cfiCond55) R7 load(1, XDATA, add(CFA_XSP16, literal(-6)))
          CFI (cfiCond55) ?RET_LOW load(1, XDATA, add(CFA_XSP16, literal(-5)))
          CFI (cfiCond55) ?RET_HIGH load(1, XDATA, add(CFA_XSP16, literal(-4)))
          CFI (cfiCond55) ?BRET_EXT load(1, XDATA, add(CFA_XSP16, literal(-3)))
          CFI (cfiCond55) DPL0 load(1, XDATA, add(CFA_XSP16, literal(-2)))
          CFI (cfiCond55) DPH0 load(1, XDATA, add(CFA_XSP16, literal(-1)))
          CFI (cfiCond55) CFA_SP SP+0
          CFI (cfiCond55) CFA_XSP16 add(XSP16, 18)
          CFI Block cfiCond56 Using cfiCommon0
          CFI (cfiCond56) Function zclColor_StepEnhHueCB
          CFI (cfiCond56) Conditional ??CrossCallReturnLabel_80, ??CrossCallReturnLabel_67, ??CrossCallReturnLabel_5
          CFI (cfiCond56) R6 load(1, XDATA, add(CFA_XSP16, literal(-16)))
          CFI (cfiCond56) VB load(1, XDATA, add(CFA_XSP16, literal(-15)))
          CFI (cfiCond56) V0 load(1, XDATA, add(CFA_XSP16, literal(-14)))
          CFI (cfiCond56) V1 load(1, XDATA, add(CFA_XSP16, literal(-13)))
          CFI (cfiCond56) V2 load(1, XDATA, add(CFA_XSP16, literal(-12)))
          CFI (cfiCond56) V3 load(1, XDATA, add(CFA_XSP16, literal(-11)))
          CFI (cfiCond56) V4 load(1, XDATA, add(CFA_XSP16, literal(-10)))
          CFI (cfiCond56) V5 load(1, XDATA, add(CFA_XSP16, literal(-9)))
          CFI (cfiCond56) V6 load(1, XDATA, add(CFA_XSP16, literal(-8)))
          CFI (cfiCond56) V7 load(1, XDATA, add(CFA_XSP16, literal(-7)))
          CFI (cfiCond56) R7 load(1, XDATA, add(CFA_XSP16, literal(-6)))
          CFI (cfiCond56) ?RET_LOW load(1, XDATA, add(CFA_XSP16, literal(-5)))
          CFI (cfiCond56) ?RET_HIGH load(1, XDATA, add(CFA_XSP16, literal(-4)))
          CFI (cfiCond56) ?BRET_EXT load(1, XDATA, add(CFA_XSP16, literal(-3)))
          CFI (cfiCond56) DPL0 load(1, XDATA, add(CFA_XSP16, literal(-2)))
          CFI (cfiCond56) DPH0 load(1, XDATA, add(CFA_XSP16, literal(-1)))
          CFI (cfiCond56) CFA_SP SP+0
          CFI (cfiCond56) CFA_XSP16 add(XSP16, 16)
          CFI Block cfiPicker57 Using cfiCommon1
          CFI (cfiPicker57) NoFunction
          CFI (cfiPicker57) Picker
        MOVX    @DPTR,A
        INC     DPTR
        MOV     A,R3
        MOVX    @DPTR,A
        INC     DPTR
        MOV     A,R4
        MOVX    @DPTR,A
        INC     DPTR
        CLR     A
        MOVX    @DPTR,A
        RET
          CFI EndBlock cfiCond49
          CFI EndBlock cfiCond50
          CFI EndBlock cfiCond51
          CFI EndBlock cfiCond52
          CFI EndBlock cfiCond53
          CFI EndBlock cfiCond54
          CFI EndBlock cfiCond55
          CFI EndBlock cfiCond56
          CFI EndBlock cfiPicker57
//  413 
//  414 /*********************************************************************
//  415  * @fn      zclColor_MoveToSaturationCB
//  416  *
//  417  * @brief   Callback from the ZCL Lighting Cluster Library when
//  418  *          it received a Color Control - Move to Hue Command for
//  419  *          this application.
//  420  *
//  421  * @param   hue - target hue value
//  422  * @param   direction
//  423  * @param   transitionTime - in seconds
//  424  *
//  425  * @return  status
//  426  */

        RSEG BANKED_CODE:CODE:NOROOT(0)
//  427 ZStatus_t zclColor_MoveToSaturationCB( zclCCMoveToSaturation_t *pCmd )
zclColor_MoveToSaturationCB:
          CFI Block cfiBlock58 Using cfiCommon0
          CFI Function zclColor_MoveToSaturationCB
        CODE
//  428 {
        FUNCALL zclColor_MoveToSaturationCB, hwLight_UpdateColorMode
        LOCFRAME ISTACK, 0, STACK
        LOCFRAME PSTACK, 0, STACK
        LOCFRAME XSTACK, 16, STACK
        LOCFRAME IOVERLAY, 0, STATIC
        LOCFRAME DOVERLAY, 0, STATIC
        ARGFRAME ISTACK, 0, STACK
        ARGFRAME PSTACK, 0, STACK
        ARGFRAME XSTACK, 16, STACK
        ARGFRAME IOVERLAY, 0, STATIC
        ARGFRAME DOVERLAY, 0, STATIC
        FUNCALL zclColor_MoveToSaturationCB, hwLight_ApplyUpdate
        LOCFRAME ISTACK, 0, STACK
        LOCFRAME PSTACK, 0, STACK
        LOCFRAME XSTACK, 22, STACK
        LOCFRAME IOVERLAY, 0, STATIC
        LOCFRAME DOVERLAY, 0, STATIC
        ARGFRAME ISTACK, 0, STACK
        ARGFRAME PSTACK, 0, STACK
        ARGFRAME XSTACK, 22, STACK
        ARGFRAME IOVERLAY, 0, STATIC
        ARGFRAME DOVERLAY, 0, STATIC
        FUNCALL zclColor_MoveToSaturationCB, osal_start_timerEx
        LOCFRAME ISTACK, 0, STACK
        LOCFRAME PSTACK, 0, STACK
        LOCFRAME XSTACK, 20, STACK
        LOCFRAME IOVERLAY, 0, STATIC
        LOCFRAME DOVERLAY, 0, STATIC
        ARGFRAME ISTACK, 0, STACK
        ARGFRAME PSTACK, 0, STACK
        ARGFRAME XSTACK, 20, STACK
        ARGFRAME IOVERLAY, 0, STATIC
        ARGFRAME DOVERLAY, 0, STATIC
        MOV     A,#-0x10
        LCALL   ?BANKED_ENTER_XDATA
          CFI DPH0 load(1, XDATA, add(CFA_XSP16, literal(-1)))
          CFI DPL0 load(1, XDATA, add(CFA_XSP16, literal(-2)))
          CFI ?BRET_EXT load(1, XDATA, add(CFA_XSP16, literal(-3)))
          CFI ?RET_HIGH load(1, XDATA, add(CFA_XSP16, literal(-4)))
          CFI ?RET_LOW load(1, XDATA, add(CFA_XSP16, literal(-5)))
          CFI R7 load(1, XDATA, add(CFA_XSP16, literal(-6)))
          CFI V7 load(1, XDATA, add(CFA_XSP16, literal(-7)))
          CFI V6 load(1, XDATA, add(CFA_XSP16, literal(-8)))
          CFI V5 load(1, XDATA, add(CFA_XSP16, literal(-9)))
          CFI V4 load(1, XDATA, add(CFA_XSP16, literal(-10)))
          CFI V3 load(1, XDATA, add(CFA_XSP16, literal(-11)))
          CFI V2 load(1, XDATA, add(CFA_XSP16, literal(-12)))
          CFI V1 load(1, XDATA, add(CFA_XSP16, literal(-13)))
          CFI V0 load(1, XDATA, add(CFA_XSP16, literal(-14)))
          CFI VB load(1, XDATA, add(CFA_XSP16, literal(-15)))
          CFI R6 load(1, XDATA, add(CFA_XSP16, literal(-16)))
          CFI CFA_SP SP+0
          CFI CFA_XSP16 add(XSP16, 16)
        ; Saved register size: 16
        ; Auto size: 0
        MOV     A,R2
        MOV     R6,A
        MOV     A,R3
        MOV     R7,A
//  429   hwLight_UpdateColorMode(COLOR_MODE_CURRENT_HUE_SATURATION);
        ; Setup parameters for call to function hwLight_UpdateColorMode
        MOV     R1,#0x0
        LCALL   ??hwLight_UpdateColorMode?relay
//  430   zclColor_CurrentSaturation_256 = (uint16)zclColor_CurrentSaturation<<8;
        MOV     DPTR,#zclColor_CurrentSaturation
        MOVX    A,@DPTR
        MOV     R1,A
        MOV     DPTR,#zclColor_CurrentSaturation_256
        LCALL   ?Subroutine14 & 0xFFFF
//  431   zclColor_ColorMode=COLOR_MODE_CURRENT_HUE_SATURATION;
//  432   zclColor_EnhancedColorMode=COLOR_MODE_CURRENT_HUE_SATURATION;
//  433 
//  434   //if transition time = 0 then do immediately
//  435   if( pCmd->transitionTime == 0)
??CrossCallReturnLabel_18:
        MOV     DPL,R6
        MOV     DPH,R7
        INC     DPTR
        LCALL   ??Subroutine51_0 & 0xFFFF
??CrossCallReturnLabel_101:
        MOV     DPTR,#zclColor_SaturationRemainingTime
        JNZ     ??zclColor_MoveToSaturationCB_0
//  436   {
//  437     zclColor_SaturationRemainingTime = 1;
        MOV     A,#0x1
        MOVX    @DPTR,A
        INC     DPTR
        CLR     A
        SJMP    ??zclColor_MoveToSaturationCB_1
//  438   }
//  439   else
//  440   {
//  441     zclColor_SaturationRemainingTime = pCmd->transitionTime;
??zclColor_MoveToSaturationCB_0:
        MOV     A,R0
        MOVX    @DPTR,A
        INC     DPTR
        MOV     A,R1
//  442   }
??zclColor_MoveToSaturationCB_1:
        LCALL   ??Subroutine50_0 & 0xFFFF
//  443 
//  444   zclColor_StepSaturation_256 = ((int32)(pCmd->saturation - zclColor_CurrentSaturation))<<8;
//  445   zclColor_StepSaturation_256 /= (int32)zclColor_SaturationRemainingTime;
??CrossCallReturnLabel_87:
        MOV     R0,A
        MOV     DPTR,#zclColor_CurrentSaturation
        MOVX    A,@DPTR
        MOV     R2,A
        MOV     A,R0
        CLR     C
        SUBB    A,R2
        MOV     ?V0 + 0,A
        SUBB    A,0xE0 /* A   */
        MOV     ?V0 + 4,?V0 + 0
        MOV     ?V0 + 5,A
        LCALL   ??Subroutine49_0 & 0xFFFF
??CrossCallReturnLabel_82:
        LCALL   ?L_SHL
        MOV     DPTR,#zclColor_SaturationRemainingTime
        LCALL   ?Subroutine23 & 0xFFFF
??CrossCallReturnLabel_41:
        LCALL   ?L_DIV_MOD
        MOV     DPTR,#zclColor_StepSaturation_256
        MOV     R0,#?V0 + 4
        LCALL   ?L_MOV_TO_X
//  446 
//  447   hwLight_ApplyUpdate( &zclColor_CurrentSaturation,
//  448                        &zclColor_CurrentSaturation_256,
//  449                        &zclColor_StepSaturation_256,
//  450                        &zclColor_SaturationRemainingTime,
//  451                        COLOR_SAT_MIN, COLOR_SAT_MAX, FALSE );
        ; Setup parameters for call to function hwLight_ApplyUpdate
        MOV     ?V0 + 0,#0x0
        MOV     R0,#?V0 + 0
        LCALL   ?PUSH_XSTACK_I_ONE
          CFI CFA_XSP16 add(XSP16, 17)
        MOV     ?V0 + 0,#-0x2
        MOV     R0,#?V0 + 0
        LCALL   ?PUSH_XSTACK_I_ONE
          CFI CFA_XSP16 add(XSP16, 18)
        MOV     ?V0 + 0,#zclColor_SaturationRemainingTime & 0xff
        MOV     ?V0 + 1,#(zclColor_SaturationRemainingTime >> 8) & 0xff
        MOV     R0,#?V0 + 0
        LCALL   ?PUSH_XSTACK_I_TWO
          CFI CFA_XSP16 add(XSP16, 20)
        MOV     ?V0 + 0,#zclColor_StepSaturation_256 & 0xff
        MOV     ?V0 + 1,#(zclColor_StepSaturation_256 >> 8) & 0xff
        MOV     R0,#?V0 + 0
        LCALL   ?PUSH_XSTACK_I_TWO
          CFI CFA_XSP16 add(XSP16, 22)
        MOV     R1,#0x0
        MOV     R4,#zclColor_CurrentSaturation_256 & 0xff
        MOV     R5,#(zclColor_CurrentSaturation_256 >> 8) & 0xff
        MOV     R2,#zclColor_CurrentSaturation & 0xff
        MOV     R3,#(zclColor_CurrentSaturation >> 8) & 0xff
        LCALL   ??hwLight_ApplyUpdate?relay
        MOV     A,#0x6
        LCALL   ?DEALLOC_XSTACK8
          CFI CFA_XSP16 add(XSP16, 16)
//  452 
//  453   if ( zclColor_SaturationRemainingTime )
        LCALL   ?Subroutine21 & 0xFFFF
??CrossCallReturnLabel_112:
        JZ      ??zclColor_MoveToSaturationCB_2
//  454   {
//  455     //set a timer to make the change over 100ms
//  456     osal_start_timerEx( zclLight_TaskID, COLOR_PROCESS_EVT , 100 );
        ; Setup parameters for call to function osal_start_timerEx
        MOV     DPTR,#__Constant_64
        LCALL   ?PUSH_XSTACK8_X_FOUR
          CFI CFA_XSP16 add(XSP16, 20)
        MOV     R2,#0x10
        MOV     R3,#0x0
        MOV     DPTR,#zclLight_TaskID
        MOVX    A,@DPTR
        MOV     R1,A
        LCALL   ??osal_start_timerEx?relay
        MOV     A,#0x4
        LCALL   ?DEALLOC_XSTACK8
          CFI CFA_XSP16 add(XSP16, 16)
//  457   }
//  458 
//  459   return ( ZSuccess );
??zclColor_MoveToSaturationCB_2:
        MOV     R1,#0x0
          CFI EndBlock cfiBlock58
        REQUIRE ?Subroutine1
        ; // Fall through to label ?Subroutine1
//  460 }

        RSEG BANKED_CODE:CODE:NOROOT(0)
?Subroutine1:
          CFI Block cfiBlock59 Using cfiCommon0
          CFI NoFunction
          CFI CFA_SP SP+0
          CFI CFA_XSP16 add(XSP16, 16)
          CFI VB load(1, XDATA, add(CFA_XSP16, literal(-15)))
          CFI DPL0 load(1, XDATA, add(CFA_XSP16, literal(-2)))
          CFI DPH0 load(1, XDATA, add(CFA_XSP16, literal(-1)))
          CFI R6 load(1, XDATA, add(CFA_XSP16, literal(-16)))
          CFI R7 load(1, XDATA, add(CFA_XSP16, literal(-6)))
          CFI V0 load(1, XDATA, add(CFA_XSP16, literal(-14)))
          CFI V1 load(1, XDATA, add(CFA_XSP16, literal(-13)))
          CFI V2 load(1, XDATA, add(CFA_XSP16, literal(-12)))
          CFI V3 load(1, XDATA, add(CFA_XSP16, literal(-11)))
          CFI V4 load(1, XDATA, add(CFA_XSP16, literal(-10)))
          CFI V5 load(1, XDATA, add(CFA_XSP16, literal(-9)))
          CFI V6 load(1, XDATA, add(CFA_XSP16, literal(-8)))
          CFI V7 load(1, XDATA, add(CFA_XSP16, literal(-7)))
          CFI ?BRET_EXT load(1, XDATA, add(CFA_XSP16, literal(-3)))
          CFI ?RET_HIGH load(1, XDATA, add(CFA_XSP16, literal(-4)))
          CFI ?RET_LOW load(1, XDATA, add(CFA_XSP16, literal(-5)))
        MOV     R7,#0x8
        LJMP    ?BANKED_LEAVE_XDATA
          CFI EndBlock cfiBlock59
//  461 
//  462 /*********************************************************************
//  463  * @fn      zclColor_MoveSaturationCB
//  464  *
//  465  * @brief   Callback from the ZCL Lighting Cluster Library when
//  466  *          it received a Color Control - Move Hue Command for
//  467  *          this application.
//  468  *
//  469  * @param   moveMode - LIGHTING_MOVE_HUE_STOP, LIGHTING_MOVE_HUE_UP, or
//  470  *                     LIGHTING_MOVE_HUE_DOWN
//  471  * @param   rate - the movement in steps per second, where step is a
//  472  *                 change in the device's hue of one unit
//  473  *
//  474  * @return  status
//  475  */

        RSEG BANKED_CODE:CODE:NOROOT(0)
//  476 ZStatus_t zclColor_MoveSaturationCB( zclCCMoveSaturation_t *pCmd )
zclColor_MoveSaturationCB:
          CFI Block cfiBlock60 Using cfiCommon0
          CFI Function zclColor_MoveSaturationCB
        CODE
//  477 {
        FUNCALL zclColor_MoveSaturationCB, hwLight_UpdateColorMode
        LOCFRAME ISTACK, 0, STACK
        LOCFRAME PSTACK, 0, STACK
        LOCFRAME XSTACK, 16, STACK
        LOCFRAME IOVERLAY, 0, STATIC
        LOCFRAME DOVERLAY, 0, STATIC
        ARGFRAME ISTACK, 0, STACK
        ARGFRAME PSTACK, 0, STACK
        ARGFRAME XSTACK, 16, STACK
        ARGFRAME IOVERLAY, 0, STATIC
        ARGFRAME DOVERLAY, 0, STATIC
        FUNCALL zclColor_MoveSaturationCB, hwLight_ApplyUpdate
        LOCFRAME ISTACK, 0, STACK
        LOCFRAME PSTACK, 0, STACK
        LOCFRAME XSTACK, 22, STACK
        LOCFRAME IOVERLAY, 0, STATIC
        LOCFRAME DOVERLAY, 0, STATIC
        ARGFRAME ISTACK, 0, STACK
        ARGFRAME PSTACK, 0, STACK
        ARGFRAME XSTACK, 22, STACK
        ARGFRAME IOVERLAY, 0, STATIC
        ARGFRAME DOVERLAY, 0, STATIC
        FUNCALL zclColor_MoveSaturationCB, osal_start_timerEx
        LOCFRAME ISTACK, 0, STACK
        LOCFRAME PSTACK, 0, STACK
        LOCFRAME XSTACK, 20, STACK
        LOCFRAME IOVERLAY, 0, STATIC
        LOCFRAME DOVERLAY, 0, STATIC
        ARGFRAME ISTACK, 0, STACK
        ARGFRAME PSTACK, 0, STACK
        ARGFRAME XSTACK, 20, STACK
        ARGFRAME IOVERLAY, 0, STATIC
        ARGFRAME DOVERLAY, 0, STATIC
        MOV     A,#-0x10
        LCALL   ?BANKED_ENTER_XDATA
          CFI DPH0 load(1, XDATA, add(CFA_XSP16, literal(-1)))
          CFI DPL0 load(1, XDATA, add(CFA_XSP16, literal(-2)))
          CFI ?BRET_EXT load(1, XDATA, add(CFA_XSP16, literal(-3)))
          CFI ?RET_HIGH load(1, XDATA, add(CFA_XSP16, literal(-4)))
          CFI ?RET_LOW load(1, XDATA, add(CFA_XSP16, literal(-5)))
          CFI R7 load(1, XDATA, add(CFA_XSP16, literal(-6)))
          CFI V7 load(1, XDATA, add(CFA_XSP16, literal(-7)))
          CFI V6 load(1, XDATA, add(CFA_XSP16, literal(-8)))
          CFI V5 load(1, XDATA, add(CFA_XSP16, literal(-9)))
          CFI V4 load(1, XDATA, add(CFA_XSP16, literal(-10)))
          CFI V3 load(1, XDATA, add(CFA_XSP16, literal(-11)))
          CFI V2 load(1, XDATA, add(CFA_XSP16, literal(-12)))
          CFI V1 load(1, XDATA, add(CFA_XSP16, literal(-13)))
          CFI V0 load(1, XDATA, add(CFA_XSP16, literal(-14)))
          CFI VB load(1, XDATA, add(CFA_XSP16, literal(-15)))
          CFI R6 load(1, XDATA, add(CFA_XSP16, literal(-16)))
          CFI CFA_SP SP+0
          CFI CFA_XSP16 add(XSP16, 16)
        ; Saved register size: 16
        ; Auto size: 0
        MOV     A,R2
        MOV     R6,A
        MOV     A,R3
        MOV     R7,A
//  478   hwLight_UpdateColorMode(COLOR_MODE_CURRENT_HUE_SATURATION);
        ; Setup parameters for call to function hwLight_UpdateColorMode
        MOV     R1,#0x0
        LCALL   ??hwLight_UpdateColorMode?relay
//  479   zclColor_CurrentSaturation_256 = (uint16)zclColor_CurrentSaturation<<8;
        MOV     DPTR,#zclColor_CurrentSaturation
        MOVX    A,@DPTR
        MOV     R1,A
        MOV     DPTR,#zclColor_CurrentSaturation_256
        LCALL   ?Subroutine10 & 0xFFFF
//  480   zclColor_ColorMode=COLOR_MODE_CURRENT_HUE_SATURATION;
//  481   zclColor_EnhancedColorMode=COLOR_MODE_CURRENT_HUE_SATURATION;
//  482 
//  483   switch (pCmd->moveMode)
??CrossCallReturnLabel_10:
        JNZ     $+5
        LJMP    ??zclColor_MoveSaturationCB_0 & 0xFFFF
        DEC     A
        JZ      ??zclColor_MoveSaturationCB_1
        ADD     A,#-0x2
        JZ      ??zclColor_MoveSaturationCB_2
        LJMP    ??zclColor_MoveSaturationCB_3 & 0xFFFF
//  484   {
//  485     case LIGHTING_MOVE_SATURATION_UP:
//  486       zclColor_StepSaturation_256 = (((int32)pCmd->rate)<<8)/10;
??zclColor_MoveSaturationCB_1:
        LCALL   ?Subroutine29 & 0xFFFF
??CrossCallReturnLabel_51:
        LCALL   ?US_DIV_MOD
        MOV     A,R0
        MOV     R4,A
        MOV     A,R1
        MOV     R5,A
        MOV     DPTR,#zclColor_StepSaturation_256
        LCALL   ?Subroutine19 & 0xFFFF
//  487       //Change for ever - stop mode stop this command
//  488       zclColor_SaturationRemainingTime = 0xFFFF;
??CrossCallReturnLabel_35:
        MOV     DPTR,#zclColor_SaturationRemainingTime
        MOV     A,#-0x1
??zclColor_MoveSaturationCB_4:
        MOVX    @DPTR,A
        INC     DPTR
        MOVX    @DPTR,A
//  489       break;
//  490     case LIGHTING_MOVE_SATURATION_DOWN:
//  491       zclColor_StepSaturation_256 = ((-(int32)pCmd->rate)<<8)/10;
//  492       //Change for ever - stop mode stop this command
//  493       zclColor_SaturationRemainingTime = 0xFFFF;
//  494       break;
//  495     case LIGHTING_MOVE_SATURATION_STOP:
//  496       zclColor_StepSaturation_256 = 0;
//  497       zclColor_SaturationRemainingTime = 0x0;
//  498       break;
//  499    default:
//  500      return ( ZCL_STATUS_INVALID_FIELD );
//  501   }
//  502 
//  503   hwLight_ApplyUpdate( &zclColor_CurrentSaturation,
//  504                        &zclColor_CurrentSaturation_256,
//  505                        &zclColor_StepSaturation_256,
//  506                        &zclColor_SaturationRemainingTime,
//  507                        COLOR_SAT_MIN, COLOR_SAT_MAX, FALSE );
        ; Setup parameters for call to function hwLight_ApplyUpdate
        MOV     ?V0 + 0,#0x0
        MOV     R0,#?V0 + 0
        LCALL   ?PUSH_XSTACK_I_ONE
          CFI CFA_XSP16 add(XSP16, 17)
        MOV     ?V0 + 0,#-0x2
        MOV     R0,#?V0 + 0
        LCALL   ?PUSH_XSTACK_I_ONE
          CFI CFA_XSP16 add(XSP16, 18)
        MOV     ?V0 + 0,#zclColor_SaturationRemainingTime & 0xff
        MOV     ?V0 + 1,#(zclColor_SaturationRemainingTime >> 8) & 0xff
        MOV     R0,#?V0 + 0
        LCALL   ?PUSH_XSTACK_I_TWO
          CFI CFA_XSP16 add(XSP16, 20)
        MOV     ?V0 + 0,#zclColor_StepSaturation_256 & 0xff
        MOV     ?V0 + 1,#(zclColor_StepSaturation_256 >> 8) & 0xff
        MOV     R0,#?V0 + 0
        LCALL   ?PUSH_XSTACK_I_TWO
          CFI CFA_XSP16 add(XSP16, 22)
        MOV     R1,#0x0
        MOV     R4,#zclColor_CurrentSaturation_256 & 0xff
        MOV     R5,#(zclColor_CurrentSaturation_256 >> 8) & 0xff
        MOV     R2,#zclColor_CurrentSaturation & 0xff
        MOV     R3,#(zclColor_CurrentSaturation >> 8) & 0xff
        LCALL   ??hwLight_ApplyUpdate?relay
        MOV     A,#0x6
        LCALL   ?DEALLOC_XSTACK8
          CFI CFA_XSP16 add(XSP16, 16)
//  508 
//  509 
//  510   if ( zclColor_SaturationRemainingTime )
        LCALL   ?Subroutine21 & 0xFFFF
??CrossCallReturnLabel_113:
        JZ      ??zclColor_MoveSaturationCB_5
//  511   {
//  512     //set a timer to make the change over 100ms
//  513     osal_start_timerEx( zclLight_TaskID, COLOR_PROCESS_EVT , 100 );
        ; Setup parameters for call to function osal_start_timerEx
        MOV     DPTR,#__Constant_64
        LCALL   ?PUSH_XSTACK8_X_FOUR
          CFI CFA_XSP16 add(XSP16, 20)
        MOV     R2,#0x10
        MOV     R3,#0x0
        MOV     DPTR,#zclLight_TaskID
        MOVX    A,@DPTR
        MOV     R1,A
        LCALL   ??osal_start_timerEx?relay
        MOV     A,#0x4
        LCALL   ?DEALLOC_XSTACK8
          CFI CFA_XSP16 add(XSP16, 16)
//  514   }
//  515 
//  516   return ( ZSuccess );
??zclColor_MoveSaturationCB_5:
        MOV     R1,#0x0
??zclColor_MoveSaturationCB_6:
        LJMP    ?Subroutine1 & 0xFFFF
??zclColor_MoveSaturationCB_2:
        LCALL   ?Subroutine27 & 0xFFFF
??CrossCallReturnLabel_47:
        LCALL   ?L_NEG
        MOV     A,#0x8
        MOV     R0,#?V0 + 0
        LCALL   ?L_SHL
        MOV     DPTR,#__Constant_a
        MOV     R0,#?V0 + 4
        LCALL   ?L_MOV_X
        MOV     R0,#?V0 + 0
        MOV     R1,#?V0 + 4
        LCALL   ?L_DIV_MOD
        MOV     DPTR,#zclColor_StepSaturation_256
        MOV     R0,#?V0 + 0
        LCALL   ?L_MOV_TO_X
        LJMP    ??CrossCallReturnLabel_35 & 0xFFFF
??zclColor_MoveSaturationCB_0:
        MOV     DPTR,#zclColor_StepSaturation_256
        LCALL   ?Subroutine8 & 0xFFFF
??CrossCallReturnLabel_127:
        MOV     DPTR,#zclColor_SaturationRemainingTime
        LJMP    ??zclColor_MoveSaturationCB_4 & 0xFFFF
??zclColor_MoveSaturationCB_3:
        MOV     R1,#-0x7b
        SJMP    ??zclColor_MoveSaturationCB_6
          CFI EndBlock cfiBlock60
//  517 }
//  518 
//  519 /*********************************************************************
//  520  * @fn      zclColor_StepSaturationCB
//  521  *
//  522  * @brief   Callback from the ZCL Lighting Cluster Library when
//  523  *          it received a Color Control -  Step Saturation Command for
//  524  *          this application.
//  525  *
//  526  * @param   stepMode - LIGHTING_STEP_SATURATION_UP,
//  527  *                     LIGHTING_STEP_SATURATION_DOWN
//  528  * @param   transitionTime - time to perform a single step in 1/10 of second
//  529  *
//  530  * @return  status
//  531  */

        RSEG BANKED_CODE:CODE:NOROOT(0)
//  532 ZStatus_t zclColor_StepSaturationCB( zclCCStepSaturation_t *pCmd )
zclColor_StepSaturationCB:
          CFI Block cfiBlock61 Using cfiCommon0
          CFI Function zclColor_StepSaturationCB
        CODE
//  533 {
        FUNCALL zclColor_StepSaturationCB, hwLight_UpdateColorMode
        LOCFRAME ISTACK, 0, STACK
        LOCFRAME PSTACK, 0, STACK
        LOCFRAME XSTACK, 12, STACK
        LOCFRAME IOVERLAY, 0, STATIC
        LOCFRAME DOVERLAY, 0, STATIC
        ARGFRAME ISTACK, 0, STACK
        ARGFRAME PSTACK, 0, STACK
        ARGFRAME XSTACK, 12, STACK
        ARGFRAME IOVERLAY, 0, STATIC
        ARGFRAME DOVERLAY, 0, STATIC
        FUNCALL zclColor_StepSaturationCB, hwLight_ApplyUpdate
        LOCFRAME ISTACK, 0, STACK
        LOCFRAME PSTACK, 0, STACK
        LOCFRAME XSTACK, 18, STACK
        LOCFRAME IOVERLAY, 0, STATIC
        LOCFRAME DOVERLAY, 0, STATIC
        ARGFRAME ISTACK, 0, STACK
        ARGFRAME PSTACK, 0, STACK
        ARGFRAME XSTACK, 18, STACK
        ARGFRAME IOVERLAY, 0, STATIC
        ARGFRAME DOVERLAY, 0, STATIC
        FUNCALL zclColor_StepSaturationCB, osal_start_timerEx
        LOCFRAME ISTACK, 0, STACK
        LOCFRAME PSTACK, 0, STACK
        LOCFRAME XSTACK, 16, STACK
        LOCFRAME IOVERLAY, 0, STATIC
        LOCFRAME DOVERLAY, 0, STATIC
        ARGFRAME ISTACK, 0, STACK
        ARGFRAME PSTACK, 0, STACK
        ARGFRAME XSTACK, 16, STACK
        ARGFRAME IOVERLAY, 0, STATIC
        ARGFRAME DOVERLAY, 0, STATIC
        MOV     A,#-0xc
        LCALL   ?BANKED_ENTER_XDATA
          CFI DPH0 load(1, XDATA, add(CFA_XSP16, literal(-1)))
          CFI DPL0 load(1, XDATA, add(CFA_XSP16, literal(-2)))
          CFI ?BRET_EXT load(1, XDATA, add(CFA_XSP16, literal(-3)))
          CFI ?RET_HIGH load(1, XDATA, add(CFA_XSP16, literal(-4)))
          CFI ?RET_LOW load(1, XDATA, add(CFA_XSP16, literal(-5)))
          CFI R7 load(1, XDATA, add(CFA_XSP16, literal(-6)))
          CFI V3 load(1, XDATA, add(CFA_XSP16, literal(-7)))
          CFI V2 load(1, XDATA, add(CFA_XSP16, literal(-8)))
          CFI V1 load(1, XDATA, add(CFA_XSP16, literal(-9)))
          CFI V0 load(1, XDATA, add(CFA_XSP16, literal(-10)))
          CFI VB load(1, XDATA, add(CFA_XSP16, literal(-11)))
          CFI R6 load(1, XDATA, add(CFA_XSP16, literal(-12)))
          CFI CFA_SP SP+0
          CFI CFA_XSP16 add(XSP16, 12)
        ; Saved register size: 12
        ; Auto size: 0
        MOV     A,R2
        MOV     R6,A
        MOV     A,R3
        MOV     R7,A
//  534   hwLight_UpdateColorMode(COLOR_MODE_CURRENT_HUE_SATURATION);
        ; Setup parameters for call to function hwLight_UpdateColorMode
        MOV     R1,#0x0
        LCALL   ??hwLight_UpdateColorMode?relay
//  535   zclColor_CurrentSaturation_256 = (uint16)zclColor_CurrentSaturation<<8;
        MOV     DPTR,#zclColor_CurrentSaturation
        MOVX    A,@DPTR
        MOV     R1,A
        MOV     DPTR,#zclColor_CurrentSaturation_256
        LCALL   ?Subroutine7 & 0xFFFF
//  536   zclColor_ColorMode=COLOR_MODE_CURRENT_HUE_SATURATION;
//  537   zclColor_EnhancedColorMode=COLOR_MODE_CURRENT_HUE_SATURATION;
//  538 
//  539   if ( pCmd->transitionTime == 0 )
??CrossCallReturnLabel_6:
        MOV     DPTR,#zclColor_SaturationRemainingTime
        JNZ     ??zclColor_StepSaturationCB_0
//  540   {
//  541     zclColor_SaturationRemainingTime = 1;
        MOV     A,#0x1
//  542   }
//  543   else
//  544   {
//  545     zclColor_SaturationRemainingTime = pCmd->transitionTime;
??zclColor_StepSaturationCB_0:
        LCALL   ?Subroutine12 & 0xFFFF
//  546   }
//  547 
//  548   zclColor_StepSaturation_256 = ((((int32)pCmd->stepSize)<<8) / zclColor_SaturationRemainingTime);
??CrossCallReturnLabel_14:
        MOV     DPTR,#zclColor_SaturationRemainingTime
        LCALL   ?Subroutine31 & 0xFFFF
??CrossCallReturnLabel_56:
        LCALL   ?US_DIV_MOD
        MOV     A,R0
        MOV     R2,A
        MOV     A,R1
        MOV     R3,A
        MOV     DPTR,#zclColor_StepSaturation_256
        LCALL   ?Subroutine9 & 0xFFFF
//  549 
//  550   if ( pCmd->stepMode == LIGHTING_STEP_SATURATION_DOWN )
??CrossCallReturnLabel_8:
        JNZ     ??zclColor_StepSaturationCB_1
//  551   {
//  552     zclColor_StepSaturation_256 = -zclColor_StepSaturation_256;
        MOV     DPTR,#zclColor_StepSaturation_256
        MOV     R0,#?V0 + 0
        LCALL   ?L_MOV_X
        MOV     R0,#?V0 + 0
        LCALL   ?L_NEG
        MOV     DPTR,#zclColor_StepSaturation_256
        MOV     R0,#?V0 + 0
        LCALL   ?L_MOV_TO_X
//  553   }
//  554   else if ( pCmd->stepMode != LIGHTING_STEP_SATURATION_UP )
//  555   {
//  556     return ( ZCL_STATUS_INVALID_FIELD );
//  557   }
//  558 
//  559 
//  560   hwLight_ApplyUpdate( &zclColor_CurrentSaturation,
//  561                        &zclColor_CurrentSaturation_256,
//  562                        &zclColor_StepSaturation_256,
//  563                        &zclColor_SaturationRemainingTime,
//  564                        COLOR_SAT_MIN, COLOR_SAT_MAX, FALSE );
??zclColor_StepSaturationCB_2:
        ; Setup parameters for call to function hwLight_ApplyUpdate
        MOV     ?V0 + 0,#0x0
        MOV     R0,#?V0 + 0
        LCALL   ?PUSH_XSTACK_I_ONE
          CFI CFA_XSP16 add(XSP16, 13)
        MOV     ?V0 + 0,#-0x2
        MOV     R0,#?V0 + 0
        LCALL   ?PUSH_XSTACK_I_ONE
          CFI CFA_XSP16 add(XSP16, 14)
        MOV     ?V0 + 0,#zclColor_SaturationRemainingTime & 0xff
        MOV     ?V0 + 1,#(zclColor_SaturationRemainingTime >> 8) & 0xff
        MOV     R0,#?V0 + 0
        LCALL   ?PUSH_XSTACK_I_TWO
          CFI CFA_XSP16 add(XSP16, 16)
        MOV     ?V0 + 0,#zclColor_StepSaturation_256 & 0xff
        MOV     ?V0 + 1,#(zclColor_StepSaturation_256 >> 8) & 0xff
        MOV     R0,#?V0 + 0
        LCALL   ?PUSH_XSTACK_I_TWO
          CFI CFA_XSP16 add(XSP16, 18)
        MOV     R1,#0x0
        MOV     R4,#zclColor_CurrentSaturation_256 & 0xff
        MOV     R5,#(zclColor_CurrentSaturation_256 >> 8) & 0xff
        MOV     R2,#zclColor_CurrentSaturation & 0xff
        MOV     R3,#(zclColor_CurrentSaturation >> 8) & 0xff
        LCALL   ??hwLight_ApplyUpdate?relay
        MOV     A,#0x6
        LCALL   ?DEALLOC_XSTACK8
          CFI CFA_XSP16 add(XSP16, 12)
//  565 
//  566   if ( zclColor_SaturationRemainingTime )
        LCALL   ?Subroutine21 & 0xFFFF
??CrossCallReturnLabel_114:
        JZ      ??zclColor_StepSaturationCB_3
//  567   {
//  568     //set a timer to make the change over 100ms
//  569     osal_start_timerEx( zclLight_TaskID, COLOR_PROCESS_EVT , 100 );
        ; Setup parameters for call to function osal_start_timerEx
        MOV     DPTR,#__Constant_64
        LCALL   ?PUSH_XSTACK8_X_FOUR
          CFI CFA_XSP16 add(XSP16, 16)
        MOV     R2,#0x10
        MOV     R3,#0x0
        MOV     DPTR,#zclLight_TaskID
        MOVX    A,@DPTR
        MOV     R1,A
        LCALL   ??osal_start_timerEx?relay
        MOV     A,#0x4
        LCALL   ?DEALLOC_XSTACK8
          CFI CFA_XSP16 add(XSP16, 12)
//  570   }
//  571 
//  572   return ( ZSuccess );
??zclColor_StepSaturationCB_3:
        MOV     R1,#0x0
??zclColor_StepSaturationCB_4:
        SJMP    ?Subroutine2
??zclColor_StepSaturationCB_1:
        MOV     A,#0x1
        XRL     A,R0
        JZ      ??zclColor_StepSaturationCB_2
        MOV     R1,#-0x7b
        SJMP    ??zclColor_StepSaturationCB_4
          CFI EndBlock cfiBlock61
//  573 
//  574 }

        RSEG BANKED_CODE:CODE:NOROOT(0)
?Subroutine2:
          CFI Block cfiBlock62 Using cfiCommon0
          CFI NoFunction
          CFI CFA_SP SP+0
          CFI CFA_XSP16 add(XSP16, 12)
          CFI VB load(1, XDATA, add(CFA_XSP16, literal(-11)))
          CFI DPL0 load(1, XDATA, add(CFA_XSP16, literal(-2)))
          CFI DPH0 load(1, XDATA, add(CFA_XSP16, literal(-1)))
          CFI R6 load(1, XDATA, add(CFA_XSP16, literal(-12)))
          CFI R7 load(1, XDATA, add(CFA_XSP16, literal(-6)))
          CFI V0 load(1, XDATA, add(CFA_XSP16, literal(-10)))
          CFI V1 load(1, XDATA, add(CFA_XSP16, literal(-9)))
          CFI V2 load(1, XDATA, add(CFA_XSP16, literal(-8)))
          CFI V3 load(1, XDATA, add(CFA_XSP16, literal(-7)))
          CFI ?BRET_EXT load(1, XDATA, add(CFA_XSP16, literal(-3)))
          CFI ?RET_HIGH load(1, XDATA, add(CFA_XSP16, literal(-4)))
          CFI ?RET_LOW load(1, XDATA, add(CFA_XSP16, literal(-5)))
        MOV     R7,#0x4
        LJMP    ?BANKED_LEAVE_XDATA
          CFI EndBlock cfiBlock62
//  575 
//  576 /*********************************************************************
//  577  * @fn      zclTestApp_ColorControlMoveToHueCB
//  578  *
//  579  * @brief   Callback from the ZCL Lighting Cluster Library when
//  580  *          it received a Color Control - Move to Hue Command for
//  581  *          this application.
//  582  *
//  583  * @param   hue - target hue value
//  584  * @param   direction
//  585  * @param   transitionTime - in seconds
//  586  *
//  587  * @return  status
//  588  */

        RSEG BANKED_CODE:CODE:NOROOT(0)
//  589 ZStatus_t zclColor_MoveToHueCB( zclCCMoveToHue_t *pCmd )
zclColor_MoveToHueCB:
          CFI Block cfiBlock63 Using cfiCommon0
          CFI Function zclColor_MoveToHueCB
        CODE
//  590 {
        FUNCALL zclColor_MoveToHueCB, hwLight_UpdateColorMode
        LOCFRAME ISTACK, 0, STACK
        LOCFRAME PSTACK, 0, STACK
        LOCFRAME XSTACK, 16, STACK
        LOCFRAME IOVERLAY, 0, STATIC
        LOCFRAME DOVERLAY, 0, STATIC
        ARGFRAME ISTACK, 0, STACK
        ARGFRAME PSTACK, 0, STACK
        ARGFRAME XSTACK, 16, STACK
        ARGFRAME IOVERLAY, 0, STATIC
        ARGFRAME DOVERLAY, 0, STATIC
        FUNCALL zclColor_MoveToHueCB, hwLight_ApplyUpdate
        LOCFRAME ISTACK, 0, STACK
        LOCFRAME PSTACK, 0, STACK
        LOCFRAME XSTACK, 22, STACK
        LOCFRAME IOVERLAY, 0, STATIC
        LOCFRAME DOVERLAY, 0, STATIC
        ARGFRAME ISTACK, 0, STACK
        ARGFRAME PSTACK, 0, STACK
        ARGFRAME XSTACK, 22, STACK
        ARGFRAME IOVERLAY, 0, STATIC
        ARGFRAME DOVERLAY, 0, STATIC
        FUNCALL zclColor_MoveToHueCB, osal_start_timerEx
        LOCFRAME ISTACK, 0, STACK
        LOCFRAME PSTACK, 0, STACK
        LOCFRAME XSTACK, 20, STACK
        LOCFRAME IOVERLAY, 0, STATIC
        LOCFRAME DOVERLAY, 0, STATIC
        ARGFRAME ISTACK, 0, STACK
        ARGFRAME PSTACK, 0, STACK
        ARGFRAME XSTACK, 20, STACK
        ARGFRAME IOVERLAY, 0, STATIC
        ARGFRAME DOVERLAY, 0, STATIC
        MOV     A,#-0x10
        LCALL   ?BANKED_ENTER_XDATA
          CFI DPH0 load(1, XDATA, add(CFA_XSP16, literal(-1)))
          CFI DPL0 load(1, XDATA, add(CFA_XSP16, literal(-2)))
          CFI ?BRET_EXT load(1, XDATA, add(CFA_XSP16, literal(-3)))
          CFI ?RET_HIGH load(1, XDATA, add(CFA_XSP16, literal(-4)))
          CFI ?RET_LOW load(1, XDATA, add(CFA_XSP16, literal(-5)))
          CFI R7 load(1, XDATA, add(CFA_XSP16, literal(-6)))
          CFI V7 load(1, XDATA, add(CFA_XSP16, literal(-7)))
          CFI V6 load(1, XDATA, add(CFA_XSP16, literal(-8)))
          CFI V5 load(1, XDATA, add(CFA_XSP16, literal(-9)))
          CFI V4 load(1, XDATA, add(CFA_XSP16, literal(-10)))
          CFI V3 load(1, XDATA, add(CFA_XSP16, literal(-11)))
          CFI V2 load(1, XDATA, add(CFA_XSP16, literal(-12)))
          CFI V1 load(1, XDATA, add(CFA_XSP16, literal(-13)))
          CFI V0 load(1, XDATA, add(CFA_XSP16, literal(-14)))
          CFI VB load(1, XDATA, add(CFA_XSP16, literal(-15)))
          CFI R6 load(1, XDATA, add(CFA_XSP16, literal(-16)))
          CFI CFA_SP SP+0
          CFI CFA_XSP16 add(XSP16, 16)
        ; Saved register size: 16
        ; Auto size: 0
        MOV     A,R2
        MOV     R6,A
        MOV     A,R3
        MOV     R7,A
//  591   int16 hueDiff;
//  592   hwLight_UpdateColorMode(COLOR_MODE_CURRENT_HUE_SATURATION);
        ; Setup parameters for call to function hwLight_UpdateColorMode
        MOV     R1,#0x0
        LCALL   ??hwLight_UpdateColorMode?relay
//  593   zclColor_CurrentHue_256 = (uint16)zclColor_CurrentHue<<8;
        MOV     DPTR,#zclColor_CurrentHue
        MOVX    A,@DPTR
        MOV     R1,A
        MOV     DPTR,#zclColor_CurrentHue_256
        LCALL   ?Subroutine10 & 0xFFFF
//  594   zclColor_ColorMode=COLOR_MODE_CURRENT_HUE_SATURATION;
//  595   zclColor_EnhancedColorMode=COLOR_MODE_CURRENT_HUE_SATURATION;
//  596 
//  597   hueDiff = (int16)pCmd->hue - zclColor_CurrentHue;
??CrossCallReturnLabel_11:
        MOV     R0,A
        MOV     DPTR,#zclColor_CurrentHue
        MOVX    A,@DPTR
        MOV     R2,A
        MOV     A,R0
        CLR     C
        SUBB    A,R2
        MOV     R0,A
        SUBB    A,0xE0 /* A   */
        MOV     R1,A
//  598   // adjust direction
//  599   switch ( pCmd->direction )
        MOV     DPL,R6
        MOV     DPH,R7
        INC     DPTR
        MOVX    A,@DPTR
        JZ      ??zclColor_MoveToHueCB_0
        DEC     A
        JZ      ??zclColor_MoveToHueCB_1
        DEC     A
        JZ      ??zclColor_MoveToHueCB_2
        DEC     A
        JZ      ??zclColor_MoveToHueCB_3
        SJMP    ??zclColor_MoveToHueCB_4
//  600   {
//  601     case LIGHTING_MOVE_TO_HUE_DIRECTION_SHORTEST_DISTANCE:
//  602       if  ( hueDiff > COLOR_HUE_MAX/2 )
??zclColor_MoveToHueCB_0:
        CLR     C
        MOV     A,R0
        SUBB    A,#-0x80
        LCALL   ?Subroutine36 & 0xFFFF
??CrossCallReturnLabel_63:
        JNC     ??zclColor_MoveToHueCB_5
//  603       {
//  604         hueDiff -= ( COLOR_HUE_MAX + 1 ); // extra step to wrap
//  605       }
//  606       else if ( hueDiff < -COLOR_HUE_MAX/2 )
        CLR     C
        MOV     A,R0
        SUBB    A,#-0x7f
        MOV     A,R1
        SUBB    A,#-0x1
        MOV     C,0xD0 /* PSW */.2
        XRL     A,PSW
        RLC     A
        JC      ??zclColor_MoveToHueCB_6
//  607       {
//  608         hueDiff += COLOR_HUE_MAX + 1; // extra step to wrap
//  609       }
//  610       break;
//  611     case LIGHTING_MOVE_TO_HUE_DIRECTION_LONGEST_DISTANCE:
//  612       if ( ( hueDiff > 0 ) && ( hueDiff < COLOR_HUE_MAX/2 ) )
//  613       {
//  614         hueDiff -= ( COLOR_HUE_MAX + 1 ); // extra step to wrap
//  615       }
//  616       else if ( ( hueDiff < 0 ) && ( hueDiff > -COLOR_HUE_MAX/2 ) )
//  617       {
//  618         hueDiff += COLOR_HUE_MAX + 1; // extra step to wrap
//  619       }
//  620       break;
//  621     case LIGHTING_MOVE_TO_HUE_DIRECTION_UP:
//  622       if ( hueDiff < 0 )
//  623       {
//  624         hueDiff += COLOR_HUE_MAX;
//  625       }
//  626       break;
//  627     case LIGHTING_MOVE_TO_HUE_DIRECTION_DOWN:
//  628       if ( hueDiff > 0 )
//  629       {
//  630         hueDiff -= COLOR_HUE_MAX;
//  631       }
//  632       break;
//  633     default:
//  634       return ( ZCL_STATUS_INVALID_FIELD );
//  635   }
//  636 
//  637   //if transition time = 0 then do immediately
//  638   if ( pCmd->transitionTime == 0 )
??zclColor_MoveToHueCB_7:
        MOV     DPL,R6
        MOV     DPH,R7
        INC     DPTR
        INC     DPTR
        LCALL   ?Subroutine31 & 0xFFFF
??CrossCallReturnLabel_57:
        MOV     A,R2
        ORL     A,R3
        MOV     DPTR,#zclColor_HueRemainingTime
        JNZ     ??zclColor_MoveToHueCB_8
//  639   {
//  640       zclColor_HueRemainingTime = 1;
        MOV     A,#0x1
        MOVX    @DPTR,A
        INC     DPTR
        CLR     A
        SJMP    ??zclColor_MoveToHueCB_9
//  641   }
??zclColor_MoveToHueCB_1:
        MOV     A,R0
        ADD     A,#-0x1
        MOV     R2,A
        MOV     A,R1
        ADDC    A,#-0x1
        MOV     R3,A
        CLR     C
        MOV     A,R2
        SUBB    A,#0x7e
        MOV     A,R3
        SUBB    A,#0x0
        JNC     ??zclColor_MoveToHueCB_10
??zclColor_MoveToHueCB_5:
        MOV     A,R0
        ADD     A,#0x1
        INC     R0
??zclColor_MoveToHueCB_11:
        MOV     A,R1
        ADDC    A,#-0x1
??zclColor_MoveToHueCB_12:
        MOV     R1,A
        SJMP    ??zclColor_MoveToHueCB_7
??zclColor_MoveToHueCB_10:
        MOV     A,R0
        ADD     A,#0x7e
        MOV     R2,A
        MOV     A,R1
        ADDC    A,#0x0
        MOV     R3,A
        CLR     C
        MOV     A,R2
        SUBB    A,#0x7e
        MOV     A,R3
        SUBB    A,#0x0
        JNC     ??zclColor_MoveToHueCB_7
??zclColor_MoveToHueCB_6:
        MOV     A,R0
        ADD     A,#-0x1
        DEC     R0
??zclColor_MoveToHueCB_13:
        MOV     A,R1
        ADDC    A,#0x0
        SJMP    ??zclColor_MoveToHueCB_12
??zclColor_MoveToHueCB_2:
        CLR     C
        LCALL   ?Subroutine36 & 0xFFFF
??CrossCallReturnLabel_64:
        JNC     ??zclColor_MoveToHueCB_7
        MOV     A,R0
        ADD     A,#-0x2
        MOV     R0,A
        SJMP    ??zclColor_MoveToHueCB_13
??zclColor_MoveToHueCB_3:
        CLR     C
        MOV     A,R0
        SUBB    A,#0x1
        LCALL   ?Subroutine36 & 0xFFFF
??CrossCallReturnLabel_65:
        JC      ??zclColor_MoveToHueCB_7
        MOV     A,R0
        ADD     A,#0x2
        MOV     R0,A
        SJMP    ??zclColor_MoveToHueCB_11
??zclColor_MoveToHueCB_4:
        MOV     R1,#-0x7b
        SJMP    ??zclColor_MoveToHueCB_14
//  642   else
//  643   {
//  644     zclColor_HueRemainingTime = pCmd->transitionTime;
??zclColor_MoveToHueCB_8:
        MOV     A,R2
        MOVX    @DPTR,A
        INC     DPTR
        MOV     A,R3
??zclColor_MoveToHueCB_9:
        MOVX    @DPTR,A
//  645   }
//  646 
//  647   zclColor_StepHue_256 = ((int32)(hueDiff))<<8;
//  648   zclColor_StepHue_256 /= (int32)zclColor_HueRemainingTime;
        MOV     ?V0 + 4,R0
        MOV     A,R1
        LCALL   ?Subroutine35 & 0xFFFF
??CrossCallReturnLabel_84:
        LCALL   ?L_SHL
        MOV     DPTR,#zclColor_HueRemainingTime
        LCALL   ?Subroutine23 & 0xFFFF
??CrossCallReturnLabel_42:
        LCALL   ?L_DIV_MOD
        MOV     DPTR,#zclColor_StepHue_256
        MOV     R0,#?V0 + 4
        LCALL   ?L_MOV_TO_X
//  649 
//  650   hwLight_ApplyUpdate( &zclColor_CurrentHue,
//  651                        &zclColor_CurrentHue_256,
//  652                        &zclColor_StepHue_256,
//  653                        &zclColor_HueRemainingTime,
//  654                        COLOR_HUE_MIN, COLOR_HUE_MAX, TRUE );
        ; Setup parameters for call to function hwLight_ApplyUpdate
        MOV     ?V0 + 0,#0x1
        MOV     R0,#?V0 + 0
        LCALL   ?PUSH_XSTACK_I_ONE
          CFI CFA_XSP16 add(XSP16, 17)
        MOV     ?V0 + 0,#-0x2
        MOV     R0,#?V0 + 0
        LCALL   ?PUSH_XSTACK_I_ONE
          CFI CFA_XSP16 add(XSP16, 18)
        MOV     ?V0 + 0,#zclColor_HueRemainingTime & 0xff
        MOV     ?V0 + 1,#(zclColor_HueRemainingTime >> 8) & 0xff
        MOV     R0,#?V0 + 0
        LCALL   ?PUSH_XSTACK_I_TWO
          CFI CFA_XSP16 add(XSP16, 20)
        MOV     ?V0 + 0,#zclColor_StepHue_256 & 0xff
        MOV     ?V0 + 1,#(zclColor_StepHue_256 >> 8) & 0xff
        MOV     R0,#?V0 + 0
        LCALL   ?PUSH_XSTACK_I_TWO
          CFI CFA_XSP16 add(XSP16, 22)
        MOV     R1,#0x0
        MOV     R4,#zclColor_CurrentHue_256 & 0xff
        MOV     R5,#(zclColor_CurrentHue_256 >> 8) & 0xff
        MOV     R2,#zclColor_CurrentHue & 0xff
        MOV     R3,#(zclColor_CurrentHue >> 8) & 0xff
        LCALL   ??hwLight_ApplyUpdate?relay
        MOV     A,#0x6
        LCALL   ?DEALLOC_XSTACK8
          CFI CFA_XSP16 add(XSP16, 16)
//  655 
//  656   if ( zclColor_HueRemainingTime )
        MOV     DPTR,#zclColor_HueRemainingTime
        LCALL   ??Subroutine51_0 & 0xFFFF
??CrossCallReturnLabel_102:
        JZ      ??zclColor_MoveToHueCB_15
//  657   {
//  658     //set a timer to make the change over 100ms
//  659     osal_start_timerEx( zclLight_TaskID, COLOR_PROCESS_EVT , 100 );
        ; Setup parameters for call to function osal_start_timerEx
        MOV     DPTR,#__Constant_64
        LCALL   ?PUSH_XSTACK8_X_FOUR
          CFI CFA_XSP16 add(XSP16, 20)
        MOV     R2,#0x10
        MOV     R3,#0x0
        MOV     DPTR,#zclLight_TaskID
        MOVX    A,@DPTR
        MOV     R1,A
        LCALL   ??osal_start_timerEx?relay
        MOV     A,#0x4
        LCALL   ?DEALLOC_XSTACK8
          CFI CFA_XSP16 add(XSP16, 16)
//  660   }
//  661 
//  662   return ( ZSuccess );
??zclColor_MoveToHueCB_15:
        MOV     R1,#0x0
??zclColor_MoveToHueCB_14:
        LJMP    ?Subroutine1 & 0xFFFF
          CFI EndBlock cfiBlock63
//  663 }

        RSEG BANKED_CODE:CODE:NOROOT(0)
?Subroutine36:
          CFI Block cfiCond64 Using cfiCommon0
          CFI Function zclColor_MoveToHueCB
          CFI Conditional ??CrossCallReturnLabel_63
          CFI R6 load(1, XDATA, add(CFA_XSP16, literal(-16)))
          CFI VB load(1, XDATA, add(CFA_XSP16, literal(-15)))
          CFI V0 load(1, XDATA, add(CFA_XSP16, literal(-14)))
          CFI V1 load(1, XDATA, add(CFA_XSP16, literal(-13)))
          CFI V2 load(1, XDATA, add(CFA_XSP16, literal(-12)))
          CFI V3 load(1, XDATA, add(CFA_XSP16, literal(-11)))
          CFI V4 load(1, XDATA, add(CFA_XSP16, literal(-10)))
          CFI V5 load(1, XDATA, add(CFA_XSP16, literal(-9)))
          CFI V6 load(1, XDATA, add(CFA_XSP16, literal(-8)))
          CFI V7 load(1, XDATA, add(CFA_XSP16, literal(-7)))
          CFI R7 load(1, XDATA, add(CFA_XSP16, literal(-6)))
          CFI ?RET_LOW load(1, XDATA, add(CFA_XSP16, literal(-5)))
          CFI ?RET_HIGH load(1, XDATA, add(CFA_XSP16, literal(-4)))
          CFI ?BRET_EXT load(1, XDATA, add(CFA_XSP16, literal(-3)))
          CFI DPL0 load(1, XDATA, add(CFA_XSP16, literal(-2)))
          CFI DPH0 load(1, XDATA, add(CFA_XSP16, literal(-1)))
          CFI CFA_SP SP+0
          CFI CFA_XSP16 add(XSP16, 16)
          CFI Block cfiCond65 Using cfiCommon0
          CFI (cfiCond65) Function zclColor_MoveToHueCB
          CFI (cfiCond65) Conditional ??CrossCallReturnLabel_64
          CFI (cfiCond65) R6 load(1, XDATA, add(CFA_XSP16, literal(-16)))
          CFI (cfiCond65) VB load(1, XDATA, add(CFA_XSP16, literal(-15)))
          CFI (cfiCond65) V0 load(1, XDATA, add(CFA_XSP16, literal(-14)))
          CFI (cfiCond65) V1 load(1, XDATA, add(CFA_XSP16, literal(-13)))
          CFI (cfiCond65) V2 load(1, XDATA, add(CFA_XSP16, literal(-12)))
          CFI (cfiCond65) V3 load(1, XDATA, add(CFA_XSP16, literal(-11)))
          CFI (cfiCond65) V4 load(1, XDATA, add(CFA_XSP16, literal(-10)))
          CFI (cfiCond65) V5 load(1, XDATA, add(CFA_XSP16, literal(-9)))
          CFI (cfiCond65) V6 load(1, XDATA, add(CFA_XSP16, literal(-8)))
          CFI (cfiCond65) V7 load(1, XDATA, add(CFA_XSP16, literal(-7)))
          CFI (cfiCond65) R7 load(1, XDATA, add(CFA_XSP16, literal(-6)))
          CFI (cfiCond65) ?RET_LOW load(1, XDATA, add(CFA_XSP16, literal(-5)))
          CFI (cfiCond65) ?RET_HIGH load(1, XDATA, add(CFA_XSP16, literal(-4)))
          CFI (cfiCond65) ?BRET_EXT load(1, XDATA, add(CFA_XSP16, literal(-3)))
          CFI (cfiCond65) DPL0 load(1, XDATA, add(CFA_XSP16, literal(-2)))
          CFI (cfiCond65) DPH0 load(1, XDATA, add(CFA_XSP16, literal(-1)))
          CFI (cfiCond65) CFA_SP SP+0
          CFI (cfiCond65) CFA_XSP16 add(XSP16, 16)
          CFI Block cfiCond66 Using cfiCommon0
          CFI (cfiCond66) Function zclColor_MoveToHueCB
          CFI (cfiCond66) Conditional ??CrossCallReturnLabel_65
          CFI (cfiCond66) R6 load(1, XDATA, add(CFA_XSP16, literal(-16)))
          CFI (cfiCond66) VB load(1, XDATA, add(CFA_XSP16, literal(-15)))
          CFI (cfiCond66) V0 load(1, XDATA, add(CFA_XSP16, literal(-14)))
          CFI (cfiCond66) V1 load(1, XDATA, add(CFA_XSP16, literal(-13)))
          CFI (cfiCond66) V2 load(1, XDATA, add(CFA_XSP16, literal(-12)))
          CFI (cfiCond66) V3 load(1, XDATA, add(CFA_XSP16, literal(-11)))
          CFI (cfiCond66) V4 load(1, XDATA, add(CFA_XSP16, literal(-10)))
          CFI (cfiCond66) V5 load(1, XDATA, add(CFA_XSP16, literal(-9)))
          CFI (cfiCond66) V6 load(1, XDATA, add(CFA_XSP16, literal(-8)))
          CFI (cfiCond66) V7 load(1, XDATA, add(CFA_XSP16, literal(-7)))
          CFI (cfiCond66) R7 load(1, XDATA, add(CFA_XSP16, literal(-6)))
          CFI (cfiCond66) ?RET_LOW load(1, XDATA, add(CFA_XSP16, literal(-5)))
          CFI (cfiCond66) ?RET_HIGH load(1, XDATA, add(CFA_XSP16, literal(-4)))
          CFI (cfiCond66) ?BRET_EXT load(1, XDATA, add(CFA_XSP16, literal(-3)))
          CFI (cfiCond66) DPL0 load(1, XDATA, add(CFA_XSP16, literal(-2)))
          CFI (cfiCond66) DPH0 load(1, XDATA, add(CFA_XSP16, literal(-1)))
          CFI (cfiCond66) CFA_SP SP+0
          CFI (cfiCond66) CFA_XSP16 add(XSP16, 16)
          CFI Block cfiPicker67 Using cfiCommon1
          CFI (cfiPicker67) NoFunction
          CFI (cfiPicker67) Picker
        MOV     A,R1
        SUBB    A,#0x0
        MOV     C,0xD0 /* PSW */.2
        XRL     A,PSW
        RLC     A
        RET
          CFI EndBlock cfiCond64
          CFI EndBlock cfiCond65
          CFI EndBlock cfiCond66
          CFI EndBlock cfiPicker67

        RSEG BANKED_CODE:CODE:NOROOT(0)
?Subroutine31:
          CFI Block cfiCond68 Using cfiCommon0
          CFI Function zclColor_processColorLoop
          CFI Conditional ??CrossCallReturnLabel_55
          CFI R6 load(1, XDATA, add(CFA_XSP16, literal(-16)))
          CFI VB load(1, XDATA, add(CFA_XSP16, literal(-15)))
          CFI V0 load(1, XDATA, add(CFA_XSP16, literal(-14)))
          CFI V1 load(1, XDATA, add(CFA_XSP16, literal(-13)))
          CFI V2 load(1, XDATA, add(CFA_XSP16, literal(-12)))
          CFI V3 load(1, XDATA, add(CFA_XSP16, literal(-11)))
          CFI V4 load(1, XDATA, add(CFA_XSP16, literal(-10)))
          CFI V5 load(1, XDATA, add(CFA_XSP16, literal(-9)))
          CFI V6 load(1, XDATA, add(CFA_XSP16, literal(-8)))
          CFI V7 load(1, XDATA, add(CFA_XSP16, literal(-7)))
          CFI R7 load(1, XDATA, add(CFA_XSP16, literal(-6)))
          CFI ?RET_LOW load(1, XDATA, add(CFA_XSP16, literal(-5)))
          CFI ?RET_HIGH load(1, XDATA, add(CFA_XSP16, literal(-4)))
          CFI ?BRET_EXT load(1, XDATA, add(CFA_XSP16, literal(-3)))
          CFI DPL0 load(1, XDATA, add(CFA_XSP16, literal(-2)))
          CFI DPH0 load(1, XDATA, add(CFA_XSP16, literal(-1)))
          CFI CFA_SP SP+0
          CFI CFA_XSP16 add(XSP16, 18)
          CFI Block cfiCond69 Using cfiCommon0
          CFI (cfiCond69) Function zclColor_StepSaturationCB
          CFI (cfiCond69) Conditional ??CrossCallReturnLabel_56
          CFI (cfiCond69) R6 load(1, XDATA, add(CFA_XSP16, literal(-12)))
          CFI (cfiCond69) VB load(1, XDATA, add(CFA_XSP16, literal(-11)))
          CFI (cfiCond69) V0 load(1, XDATA, add(CFA_XSP16, literal(-10)))
          CFI (cfiCond69) V1 load(1, XDATA, add(CFA_XSP16, literal(-9)))
          CFI (cfiCond69) V2 load(1, XDATA, add(CFA_XSP16, literal(-8)))
          CFI (cfiCond69) V3 load(1, XDATA, add(CFA_XSP16, literal(-7)))
          CFI (cfiCond69) R7 load(1, XDATA, add(CFA_XSP16, literal(-6)))
          CFI (cfiCond69) ?RET_LOW load(1, XDATA, add(CFA_XSP16, literal(-5)))
          CFI (cfiCond69) ?RET_HIGH load(1, XDATA, add(CFA_XSP16, literal(-4)))
          CFI (cfiCond69) ?BRET_EXT load(1, XDATA, add(CFA_XSP16, literal(-3)))
          CFI (cfiCond69) DPL0 load(1, XDATA, add(CFA_XSP16, literal(-2)))
          CFI (cfiCond69) DPH0 load(1, XDATA, add(CFA_XSP16, literal(-1)))
          CFI (cfiCond69) CFA_SP SP+0
          CFI (cfiCond69) CFA_XSP16 add(XSP16, 12)
          CFI Block cfiCond70 Using cfiCommon0
          CFI (cfiCond70) Function zclColor_MoveToHueCB
          CFI (cfiCond70) Conditional ??CrossCallReturnLabel_57
          CFI (cfiCond70) R6 load(1, XDATA, add(CFA_XSP16, literal(-16)))
          CFI (cfiCond70) VB load(1, XDATA, add(CFA_XSP16, literal(-15)))
          CFI (cfiCond70) V0 load(1, XDATA, add(CFA_XSP16, literal(-14)))
          CFI (cfiCond70) V1 load(1, XDATA, add(CFA_XSP16, literal(-13)))
          CFI (cfiCond70) V2 load(1, XDATA, add(CFA_XSP16, literal(-12)))
          CFI (cfiCond70) V3 load(1, XDATA, add(CFA_XSP16, literal(-11)))
          CFI (cfiCond70) V4 load(1, XDATA, add(CFA_XSP16, literal(-10)))
          CFI (cfiCond70) V5 load(1, XDATA, add(CFA_XSP16, literal(-9)))
          CFI (cfiCond70) V6 load(1, XDATA, add(CFA_XSP16, literal(-8)))
          CFI (cfiCond70) V7 load(1, XDATA, add(CFA_XSP16, literal(-7)))
          CFI (cfiCond70) R7 load(1, XDATA, add(CFA_XSP16, literal(-6)))
          CFI (cfiCond70) ?RET_LOW load(1, XDATA, add(CFA_XSP16, literal(-5)))
          CFI (cfiCond70) ?RET_HIGH load(1, XDATA, add(CFA_XSP16, literal(-4)))
          CFI (cfiCond70) ?BRET_EXT load(1, XDATA, add(CFA_XSP16, literal(-3)))
          CFI (cfiCond70) DPL0 load(1, XDATA, add(CFA_XSP16, literal(-2)))
          CFI (cfiCond70) DPH0 load(1, XDATA, add(CFA_XSP16, literal(-1)))
          CFI (cfiCond70) CFA_SP SP+0
          CFI (cfiCond70) CFA_XSP16 add(XSP16, 16)
          CFI Block cfiCond71 Using cfiCommon0
          CFI (cfiCond71) Function zclColor_StepHueCB
          CFI (cfiCond71) Conditional ??CrossCallReturnLabel_58
          CFI (cfiCond71) R6 load(1, XDATA, add(CFA_XSP16, literal(-12)))
          CFI (cfiCond71) VB load(1, XDATA, add(CFA_XSP16, literal(-11)))
          CFI (cfiCond71) V0 load(1, XDATA, add(CFA_XSP16, literal(-10)))
          CFI (cfiCond71) V1 load(1, XDATA, add(CFA_XSP16, literal(-9)))
          CFI (cfiCond71) V2 load(1, XDATA, add(CFA_XSP16, literal(-8)))
          CFI (cfiCond71) V3 load(1, XDATA, add(CFA_XSP16, literal(-7)))
          CFI (cfiCond71) R7 load(1, XDATA, add(CFA_XSP16, literal(-6)))
          CFI (cfiCond71) ?RET_LOW load(1, XDATA, add(CFA_XSP16, literal(-5)))
          CFI (cfiCond71) ?RET_HIGH load(1, XDATA, add(CFA_XSP16, literal(-4)))
          CFI (cfiCond71) ?BRET_EXT load(1, XDATA, add(CFA_XSP16, literal(-3)))
          CFI (cfiCond71) DPL0 load(1, XDATA, add(CFA_XSP16, literal(-2)))
          CFI (cfiCond71) DPH0 load(1, XDATA, add(CFA_XSP16, literal(-1)))
          CFI (cfiCond71) CFA_SP SP+0
          CFI (cfiCond71) CFA_XSP16 add(XSP16, 12)
          CFI Block cfiPicker72 Using cfiCommon1
          CFI (cfiPicker72) NoFunction
          CFI (cfiPicker72) Picker
        MOVX    A,@DPTR
        MOV     R2,A
        INC     DPTR
        MOVX    A,@DPTR
        MOV     R3,A
        RET
          CFI EndBlock cfiCond68
          CFI EndBlock cfiCond69
          CFI EndBlock cfiCond70
          CFI EndBlock cfiCond71
          CFI EndBlock cfiPicker72

        RSEG BANKED_CODE:CODE:NOROOT(0)
?Subroutine23:
          CFI Block cfiCond73 Using cfiCommon0
          CFI Function zclColor_MoveToSaturationCB
          CFI Conditional ??CrossCallReturnLabel_41
          CFI R6 load(1, XDATA, add(CFA_XSP16, literal(-16)))
          CFI VB load(1, XDATA, add(CFA_XSP16, literal(-15)))
          CFI V0 load(1, XDATA, add(CFA_XSP16, literal(-14)))
          CFI V1 load(1, XDATA, add(CFA_XSP16, literal(-13)))
          CFI V2 load(1, XDATA, add(CFA_XSP16, literal(-12)))
          CFI V3 load(1, XDATA, add(CFA_XSP16, literal(-11)))
          CFI V4 load(1, XDATA, add(CFA_XSP16, literal(-10)))
          CFI V5 load(1, XDATA, add(CFA_XSP16, literal(-9)))
          CFI V6 load(1, XDATA, add(CFA_XSP16, literal(-8)))
          CFI V7 load(1, XDATA, add(CFA_XSP16, literal(-7)))
          CFI R7 load(1, XDATA, add(CFA_XSP16, literal(-6)))
          CFI ?RET_LOW load(1, XDATA, add(CFA_XSP16, literal(-5)))
          CFI ?RET_HIGH load(1, XDATA, add(CFA_XSP16, literal(-4)))
          CFI ?BRET_EXT load(1, XDATA, add(CFA_XSP16, literal(-3)))
          CFI DPL0 load(1, XDATA, add(CFA_XSP16, literal(-2)))
          CFI DPH0 load(1, XDATA, add(CFA_XSP16, literal(-1)))
          CFI CFA_SP SP+0
          CFI CFA_XSP16 add(XSP16, 16)
          CFI Block cfiCond74 Using cfiCommon0
          CFI (cfiCond74) Function zclColor_MoveToHueCB
          CFI (cfiCond74) Conditional ??CrossCallReturnLabel_42
          CFI (cfiCond74) R6 load(1, XDATA, add(CFA_XSP16, literal(-16)))
          CFI (cfiCond74) VB load(1, XDATA, add(CFA_XSP16, literal(-15)))
          CFI (cfiCond74) V0 load(1, XDATA, add(CFA_XSP16, literal(-14)))
          CFI (cfiCond74) V1 load(1, XDATA, add(CFA_XSP16, literal(-13)))
          CFI (cfiCond74) V2 load(1, XDATA, add(CFA_XSP16, literal(-12)))
          CFI (cfiCond74) V3 load(1, XDATA, add(CFA_XSP16, literal(-11)))
          CFI (cfiCond74) V4 load(1, XDATA, add(CFA_XSP16, literal(-10)))
          CFI (cfiCond74) V5 load(1, XDATA, add(CFA_XSP16, literal(-9)))
          CFI (cfiCond74) V6 load(1, XDATA, add(CFA_XSP16, literal(-8)))
          CFI (cfiCond74) V7 load(1, XDATA, add(CFA_XSP16, literal(-7)))
          CFI (cfiCond74) R7 load(1, XDATA, add(CFA_XSP16, literal(-6)))
          CFI (cfiCond74) ?RET_LOW load(1, XDATA, add(CFA_XSP16, literal(-5)))
          CFI (cfiCond74) ?RET_HIGH load(1, XDATA, add(CFA_XSP16, literal(-4)))
          CFI (cfiCond74) ?BRET_EXT load(1, XDATA, add(CFA_XSP16, literal(-3)))
          CFI (cfiCond74) DPL0 load(1, XDATA, add(CFA_XSP16, literal(-2)))
          CFI (cfiCond74) DPH0 load(1, XDATA, add(CFA_XSP16, literal(-1)))
          CFI (cfiCond74) CFA_SP SP+0
          CFI (cfiCond74) CFA_XSP16 add(XSP16, 16)
          CFI Block cfiPicker75 Using cfiCommon1
          CFI (cfiPicker75) NoFunction
          CFI (cfiPicker75) Picker
        LCALL   ?Subroutine41 & 0xFFFF
??CrossCallReturnLabel_119:
        MOV     R0,#?V0 + 4
        MOV     R1,#?V0 + 0
        RET
          CFI EndBlock cfiCond73
          CFI EndBlock cfiCond74
          CFI EndBlock cfiPicker75

        RSEG BANKED_CODE:CODE:NOROOT(0)
?Subroutine10:
          CFI Block cfiCond76 Using cfiCommon0
          CFI Function zclColor_MoveSaturationCB
          CFI Conditional ??CrossCallReturnLabel_10
          CFI R6 load(1, XDATA, add(CFA_XSP16, literal(-16)))
          CFI VB load(1, XDATA, add(CFA_XSP16, literal(-15)))
          CFI V0 load(1, XDATA, add(CFA_XSP16, literal(-14)))
          CFI V1 load(1, XDATA, add(CFA_XSP16, literal(-13)))
          CFI V2 load(1, XDATA, add(CFA_XSP16, literal(-12)))
          CFI V3 load(1, XDATA, add(CFA_XSP16, literal(-11)))
          CFI V4 load(1, XDATA, add(CFA_XSP16, literal(-10)))
          CFI V5 load(1, XDATA, add(CFA_XSP16, literal(-9)))
          CFI V6 load(1, XDATA, add(CFA_XSP16, literal(-8)))
          CFI V7 load(1, XDATA, add(CFA_XSP16, literal(-7)))
          CFI R7 load(1, XDATA, add(CFA_XSP16, literal(-6)))
          CFI ?RET_LOW load(1, XDATA, add(CFA_XSP16, literal(-5)))
          CFI ?RET_HIGH load(1, XDATA, add(CFA_XSP16, literal(-4)))
          CFI ?BRET_EXT load(1, XDATA, add(CFA_XSP16, literal(-3)))
          CFI DPL0 load(1, XDATA, add(CFA_XSP16, literal(-2)))
          CFI DPH0 load(1, XDATA, add(CFA_XSP16, literal(-1)))
          CFI CFA_SP SP+0
          CFI CFA_XSP16 add(XSP16, 16)
          CFI Block cfiCond77 Using cfiCommon0
          CFI (cfiCond77) Function zclColor_MoveToHueCB
          CFI (cfiCond77) Conditional ??CrossCallReturnLabel_11
          CFI (cfiCond77) R6 load(1, XDATA, add(CFA_XSP16, literal(-16)))
          CFI (cfiCond77) VB load(1, XDATA, add(CFA_XSP16, literal(-15)))
          CFI (cfiCond77) V0 load(1, XDATA, add(CFA_XSP16, literal(-14)))
          CFI (cfiCond77) V1 load(1, XDATA, add(CFA_XSP16, literal(-13)))
          CFI (cfiCond77) V2 load(1, XDATA, add(CFA_XSP16, literal(-12)))
          CFI (cfiCond77) V3 load(1, XDATA, add(CFA_XSP16, literal(-11)))
          CFI (cfiCond77) V4 load(1, XDATA, add(CFA_XSP16, literal(-10)))
          CFI (cfiCond77) V5 load(1, XDATA, add(CFA_XSP16, literal(-9)))
          CFI (cfiCond77) V6 load(1, XDATA, add(CFA_XSP16, literal(-8)))
          CFI (cfiCond77) V7 load(1, XDATA, add(CFA_XSP16, literal(-7)))
          CFI (cfiCond77) R7 load(1, XDATA, add(CFA_XSP16, literal(-6)))
          CFI (cfiCond77) ?RET_LOW load(1, XDATA, add(CFA_XSP16, literal(-5)))
          CFI (cfiCond77) ?RET_HIGH load(1, XDATA, add(CFA_XSP16, literal(-4)))
          CFI (cfiCond77) ?BRET_EXT load(1, XDATA, add(CFA_XSP16, literal(-3)))
          CFI (cfiCond77) DPL0 load(1, XDATA, add(CFA_XSP16, literal(-2)))
          CFI (cfiCond77) DPH0 load(1, XDATA, add(CFA_XSP16, literal(-1)))
          CFI (cfiCond77) CFA_SP SP+0
          CFI (cfiCond77) CFA_XSP16 add(XSP16, 16)
          CFI Block cfiPicker78 Using cfiCommon1
          CFI (cfiPicker78) NoFunction
          CFI (cfiPicker78) Picker
        LCALL   ?Subroutine38 & 0xFFFF
??CrossCallReturnLabel_68:
        MOVX    A,@DPTR
        RET
          CFI EndBlock cfiCond76
          CFI EndBlock cfiCond77
          CFI EndBlock cfiPicker78
//  664 
//  665 /*********************************************************************
//  666  * @fn      zclColor_MoveHueCB
//  667  *
//  668  * @brief   Callback from the ZCL Lighting Cluster Library when
//  669  *          it received a Color Control - Move Hue Command for
//  670  *          this application.
//  671  *
//  672  * @param   moveMode - LIGHTING_MOVE_HUE_STOP, LIGHTING_MOVE_HUE_UP, or
//  673  *                     LIGHTING_MOVE_HUE_DOWN
//  674  * @param   rate - the movement in steps per second, where step is a
//  675  *                 change in the device's hue of one unit
//  676  *
//  677  * @return  status
//  678  */

        RSEG BANKED_CODE:CODE:NOROOT(0)
//  679 ZStatus_t zclColor_MoveHueCB( zclCCMoveHue_t *pCmd )
zclColor_MoveHueCB:
          CFI Block cfiBlock79 Using cfiCommon0
          CFI Function zclColor_MoveHueCB
        CODE
//  680 {
        FUNCALL zclColor_MoveHueCB, hwLight_UpdateColorMode
        LOCFRAME ISTACK, 0, STACK
        LOCFRAME PSTACK, 0, STACK
        LOCFRAME XSTACK, 16, STACK
        LOCFRAME IOVERLAY, 0, STATIC
        LOCFRAME DOVERLAY, 0, STATIC
        ARGFRAME ISTACK, 0, STACK
        ARGFRAME PSTACK, 0, STACK
        ARGFRAME XSTACK, 16, STACK
        ARGFRAME IOVERLAY, 0, STATIC
        ARGFRAME DOVERLAY, 0, STATIC
        FUNCALL zclColor_MoveHueCB, hwLight_ApplyUpdate
        LOCFRAME ISTACK, 0, STACK
        LOCFRAME PSTACK, 0, STACK
        LOCFRAME XSTACK, 22, STACK
        LOCFRAME IOVERLAY, 0, STATIC
        LOCFRAME DOVERLAY, 0, STATIC
        ARGFRAME ISTACK, 0, STACK
        ARGFRAME PSTACK, 0, STACK
        ARGFRAME XSTACK, 22, STACK
        ARGFRAME IOVERLAY, 0, STATIC
        ARGFRAME DOVERLAY, 0, STATIC
        FUNCALL zclColor_MoveHueCB, osal_start_timerEx
        LOCFRAME ISTACK, 0, STACK
        LOCFRAME PSTACK, 0, STACK
        LOCFRAME XSTACK, 20, STACK
        LOCFRAME IOVERLAY, 0, STATIC
        LOCFRAME DOVERLAY, 0, STATIC
        ARGFRAME ISTACK, 0, STACK
        ARGFRAME PSTACK, 0, STACK
        ARGFRAME XSTACK, 20, STACK
        ARGFRAME IOVERLAY, 0, STATIC
        ARGFRAME DOVERLAY, 0, STATIC
        MOV     A,#-0x10
        LCALL   ?BANKED_ENTER_XDATA
          CFI DPH0 load(1, XDATA, add(CFA_XSP16, literal(-1)))
          CFI DPL0 load(1, XDATA, add(CFA_XSP16, literal(-2)))
          CFI ?BRET_EXT load(1, XDATA, add(CFA_XSP16, literal(-3)))
          CFI ?RET_HIGH load(1, XDATA, add(CFA_XSP16, literal(-4)))
          CFI ?RET_LOW load(1, XDATA, add(CFA_XSP16, literal(-5)))
          CFI R7 load(1, XDATA, add(CFA_XSP16, literal(-6)))
          CFI V7 load(1, XDATA, add(CFA_XSP16, literal(-7)))
          CFI V6 load(1, XDATA, add(CFA_XSP16, literal(-8)))
          CFI V5 load(1, XDATA, add(CFA_XSP16, literal(-9)))
          CFI V4 load(1, XDATA, add(CFA_XSP16, literal(-10)))
          CFI V3 load(1, XDATA, add(CFA_XSP16, literal(-11)))
          CFI V2 load(1, XDATA, add(CFA_XSP16, literal(-12)))
          CFI V1 load(1, XDATA, add(CFA_XSP16, literal(-13)))
          CFI V0 load(1, XDATA, add(CFA_XSP16, literal(-14)))
          CFI VB load(1, XDATA, add(CFA_XSP16, literal(-15)))
          CFI R6 load(1, XDATA, add(CFA_XSP16, literal(-16)))
          CFI CFA_SP SP+0
          CFI CFA_XSP16 add(XSP16, 16)
        ; Saved register size: 16
        ; Auto size: 0
        MOV     A,R2
        MOV     R6,A
        MOV     A,R3
        MOV     R7,A
//  681   hwLight_UpdateColorMode(COLOR_MODE_CURRENT_HUE_SATURATION);
        ; Setup parameters for call to function hwLight_UpdateColorMode
        MOV     R1,#0x0
        LCALL   ??hwLight_UpdateColorMode?relay
//  682   zclColor_CurrentHue_256 = (uint16)zclColor_CurrentHue<<8;
        MOV     DPTR,#zclColor_CurrentHue
        MOVX    A,@DPTR
        MOV     R1,A
        MOV     DPTR,#zclColor_CurrentHue_256
        LCALL   ?Subroutine14 & 0xFFFF
//  683   zclColor_ColorMode=COLOR_MODE_CURRENT_HUE_SATURATION;
//  684   zclColor_EnhancedColorMode=COLOR_MODE_CURRENT_HUE_SATURATION;
//  685   zclColor_EnhancedHueRemainingTime = 0x0;
??CrossCallReturnLabel_19:
        MOV     DPTR,#zclColor_EnhancedHueRemainingTime
        LCALL   ?Subroutine40 & 0xFFFF
//  686 
//  687   switch (pCmd->moveMode)
??CrossCallReturnLabel_85:
        JNZ     $+5
        LJMP    ??zclColor_MoveHueCB_0 & 0xFFFF
        DEC     A
        JZ      ??zclColor_MoveHueCB_1
        ADD     A,#-0x2
        JZ      ??zclColor_MoveHueCB_2
        LJMP    ??zclColor_MoveHueCB_3 & 0xFFFF
//  688   {
//  689     case LIGHTING_MOVE_HUE_UP:
//  690       zclColor_StepHue_256 = (((int32)pCmd->rate)<<8)/10;
??zclColor_MoveHueCB_1:
        LCALL   ?Subroutine29 & 0xFFFF
??CrossCallReturnLabel_52:
        LCALL   ?US_DIV_MOD
        MOV     A,R0
        MOV     R4,A
        MOV     A,R1
        MOV     R5,A
        MOV     DPTR,#zclColor_StepHue_256
        LCALL   ?Subroutine19 & 0xFFFF
//  691       //Change for ever - stop mode stop this command
//  692       zclColor_HueRemainingTime = 0xFFFF;
??CrossCallReturnLabel_36:
        MOV     DPTR,#zclColor_HueRemainingTime
        MOV     A,#-0x1
??zclColor_MoveHueCB_4:
        LCALL   ?Subroutine20 & 0xFFFF
//  693       break;
//  694     case LIGHTING_MOVE_HUE_DOWN:
//  695       zclColor_StepHue_256 = ((-(int32)pCmd->rate)<<8)/10;
//  696       //Change for ever - stop mode stop this command
//  697       zclColor_HueRemainingTime = 0xFFFF;
//  698       break;
//  699     case LIGHTING_MOVE_HUE_STOP:
//  700       zclColor_StepHue_256 = 0;
//  701       zclColor_StepEnhancedHue_256 = 0;
//  702       zclColor_HueRemainingTime = 0x0;
//  703       break;
//  704     default:
//  705       return ( ZCL_STATUS_INVALID_FIELD );
//  706   }
//  707 
//  708   hwLight_ApplyUpdate( &zclColor_CurrentHue,
//  709                        &zclColor_CurrentHue_256,
//  710                        &zclColor_StepHue_256,
//  711                        &zclColor_HueRemainingTime,
//  712                        COLOR_HUE_MIN, COLOR_HUE_MAX, TRUE );
??CrossCallReturnLabel_38:
        LCALL   ?PUSH_XSTACK_I_ONE
          CFI CFA_XSP16 add(XSP16, 17)
        MOV     ?V0 + 0,#-0x2
        MOV     R0,#?V0 + 0
        LCALL   ?PUSH_XSTACK_I_ONE
          CFI CFA_XSP16 add(XSP16, 18)
        MOV     ?V0 + 0,#zclColor_HueRemainingTime & 0xff
        MOV     ?V0 + 1,#(zclColor_HueRemainingTime >> 8) & 0xff
        MOV     R0,#?V0 + 0
        LCALL   ?PUSH_XSTACK_I_TWO
          CFI CFA_XSP16 add(XSP16, 20)
        MOV     ?V0 + 0,#zclColor_StepHue_256 & 0xff
        MOV     ?V0 + 1,#(zclColor_StepHue_256 >> 8) & 0xff
        MOV     R0,#?V0 + 0
        LCALL   ?PUSH_XSTACK_I_TWO
          CFI CFA_XSP16 add(XSP16, 22)
        MOV     R1,#0x0
        MOV     R4,#zclColor_CurrentHue_256 & 0xff
        MOV     R5,#(zclColor_CurrentHue_256 >> 8) & 0xff
        MOV     R2,#zclColor_CurrentHue & 0xff
        MOV     R3,#(zclColor_CurrentHue >> 8) & 0xff
        LCALL   ??hwLight_ApplyUpdate?relay
        MOV     A,#0x6
        LCALL   ?DEALLOC_XSTACK8
          CFI CFA_XSP16 add(XSP16, 16)
//  713 
//  714   if ( zclColor_HueRemainingTime )
        MOV     DPTR,#zclColor_HueRemainingTime
        LCALL   ??Subroutine51_0 & 0xFFFF
??CrossCallReturnLabel_103:
        JZ      ??zclColor_MoveHueCB_5
//  715   {
//  716     //set a timer to make the change over 100ms
//  717     osal_start_timerEx( zclLight_TaskID, COLOR_PROCESS_EVT , 100 );
        ; Setup parameters for call to function osal_start_timerEx
        MOV     DPTR,#__Constant_64
        LCALL   ?PUSH_XSTACK8_X_FOUR
          CFI CFA_XSP16 add(XSP16, 20)
        MOV     R2,#0x10
        MOV     R3,#0x0
        MOV     DPTR,#zclLight_TaskID
        MOVX    A,@DPTR
        MOV     R1,A
        LCALL   ??osal_start_timerEx?relay
        MOV     A,#0x4
        LCALL   ?DEALLOC_XSTACK8
          CFI CFA_XSP16 add(XSP16, 16)
//  718   }
//  719 
//  720   return ( ZSuccess );
??zclColor_MoveHueCB_5:
        MOV     R1,#0x0
??zclColor_MoveHueCB_6:
        LJMP    ?Subroutine1 & 0xFFFF
??zclColor_MoveHueCB_2:
        LCALL   ?Subroutine27 & 0xFFFF
??CrossCallReturnLabel_48:
        LCALL   ?L_NEG
        MOV     A,#0x8
        MOV     R0,#?V0 + 0
        LCALL   ?L_SHL
        MOV     DPTR,#__Constant_a
        MOV     R0,#?V0 + 4
        LCALL   ?L_MOV_X
        MOV     R0,#?V0 + 0
        MOV     R1,#?V0 + 4
        LCALL   ?L_DIV_MOD
        MOV     DPTR,#zclColor_StepHue_256
        MOV     R0,#?V0 + 0
        LCALL   ?L_MOV_TO_X
        LJMP    ??CrossCallReturnLabel_36 & 0xFFFF
??zclColor_MoveHueCB_0:
        MOV     DPTR,#zclColor_StepHue_256
        LCALL   ?Subroutine8 & 0xFFFF
??CrossCallReturnLabel_128:
        MOV     DPTR,#zclColor_StepEnhancedHue_256
        LCALL   ??Subroutine53_0 & 0xFFFF
??CrossCallReturnLabel_125:
        MOV     DPTR,#zclColor_HueRemainingTime
        LJMP    ??zclColor_MoveHueCB_4 & 0xFFFF
??zclColor_MoveHueCB_3:
        MOV     R1,#-0x7b
        SJMP    ??zclColor_MoveHueCB_6
          CFI EndBlock cfiBlock79
//  721 }

        RSEG BANKED_CODE:CODE:NOROOT(0)
?Subroutine40:
          CFI Block cfiCond80 Using cfiCommon0
          CFI Function zclColor_MoveHueCB
          CFI Conditional ??CrossCallReturnLabel_85
          CFI R6 load(1, XDATA, add(CFA_XSP16, literal(-16)))
          CFI VB load(1, XDATA, add(CFA_XSP16, literal(-15)))
          CFI V0 load(1, XDATA, add(CFA_XSP16, literal(-14)))
          CFI V1 load(1, XDATA, add(CFA_XSP16, literal(-13)))
          CFI V2 load(1, XDATA, add(CFA_XSP16, literal(-12)))
          CFI V3 load(1, XDATA, add(CFA_XSP16, literal(-11)))
          CFI V4 load(1, XDATA, add(CFA_XSP16, literal(-10)))
          CFI V5 load(1, XDATA, add(CFA_XSP16, literal(-9)))
          CFI V6 load(1, XDATA, add(CFA_XSP16, literal(-8)))
          CFI V7 load(1, XDATA, add(CFA_XSP16, literal(-7)))
          CFI R7 load(1, XDATA, add(CFA_XSP16, literal(-6)))
          CFI ?RET_LOW load(1, XDATA, add(CFA_XSP16, literal(-5)))
          CFI ?RET_HIGH load(1, XDATA, add(CFA_XSP16, literal(-4)))
          CFI ?BRET_EXT load(1, XDATA, add(CFA_XSP16, literal(-3)))
          CFI DPL0 load(1, XDATA, add(CFA_XSP16, literal(-2)))
          CFI DPH0 load(1, XDATA, add(CFA_XSP16, literal(-1)))
          CFI CFA_SP SP+0
          CFI CFA_XSP16 add(XSP16, 16)
          CFI Block cfiCond81 Using cfiCommon0
          CFI (cfiCond81) Function zclColor_StepSaturationCB
          CFI (cfiCond81) Conditional ??CrossCallReturnLabel_86, ??CrossCallReturnLabel_8
          CFI (cfiCond81) R6 load(1, XDATA, add(CFA_XSP16, literal(-12)))
          CFI (cfiCond81) VB load(1, XDATA, add(CFA_XSP16, literal(-11)))
          CFI (cfiCond81) V0 load(1, XDATA, add(CFA_XSP16, literal(-10)))
          CFI (cfiCond81) V1 load(1, XDATA, add(CFA_XSP16, literal(-9)))
          CFI (cfiCond81) V2 load(1, XDATA, add(CFA_XSP16, literal(-8)))
          CFI (cfiCond81) V3 load(1, XDATA, add(CFA_XSP16, literal(-7)))
          CFI (cfiCond81) R7 load(1, XDATA, add(CFA_XSP16, literal(-6)))
          CFI (cfiCond81) ?RET_LOW load(1, XDATA, add(CFA_XSP16, literal(-5)))
          CFI (cfiCond81) ?RET_HIGH load(1, XDATA, add(CFA_XSP16, literal(-4)))
          CFI (cfiCond81) ?BRET_EXT load(1, XDATA, add(CFA_XSP16, literal(-3)))
          CFI (cfiCond81) DPL0 load(1, XDATA, add(CFA_XSP16, literal(-2)))
          CFI (cfiCond81) DPH0 load(1, XDATA, add(CFA_XSP16, literal(-1)))
          CFI (cfiCond81) CFA_SP SP+0
          CFI (cfiCond81) CFA_XSP16 add(XSP16, 12)
          CFI Block cfiCond82 Using cfiCommon0
          CFI (cfiCond82) Function zclColor_StepHueCB
          CFI (cfiCond82) Conditional ??CrossCallReturnLabel_86, ??CrossCallReturnLabel_9
          CFI (cfiCond82) R6 load(1, XDATA, add(CFA_XSP16, literal(-12)))
          CFI (cfiCond82) VB load(1, XDATA, add(CFA_XSP16, literal(-11)))
          CFI (cfiCond82) V0 load(1, XDATA, add(CFA_XSP16, literal(-10)))
          CFI (cfiCond82) V1 load(1, XDATA, add(CFA_XSP16, literal(-9)))
          CFI (cfiCond82) V2 load(1, XDATA, add(CFA_XSP16, literal(-8)))
          CFI (cfiCond82) V3 load(1, XDATA, add(CFA_XSP16, literal(-7)))
          CFI (cfiCond82) R7 load(1, XDATA, add(CFA_XSP16, literal(-6)))
          CFI (cfiCond82) ?RET_LOW load(1, XDATA, add(CFA_XSP16, literal(-5)))
          CFI (cfiCond82) ?RET_HIGH load(1, XDATA, add(CFA_XSP16, literal(-4)))
          CFI (cfiCond82) ?BRET_EXT load(1, XDATA, add(CFA_XSP16, literal(-3)))
          CFI (cfiCond82) DPL0 load(1, XDATA, add(CFA_XSP16, literal(-2)))
          CFI (cfiCond82) DPH0 load(1, XDATA, add(CFA_XSP16, literal(-1)))
          CFI (cfiCond82) CFA_SP SP+0
          CFI (cfiCond82) CFA_XSP16 add(XSP16, 12)
          CFI Block cfiPicker83 Using cfiCommon1
          CFI (cfiPicker83) NoFunction
          CFI (cfiPicker83) Picker
        MOVX    @DPTR,A
        INC     DPTR
          CFI EndBlock cfiCond80
          CFI EndBlock cfiCond81
          CFI EndBlock cfiCond82
          CFI EndBlock cfiPicker83
        REQUIRE ??Subroutine50_0
        ; // Fall through to label ??Subroutine50_0

        RSEG BANKED_CODE:CODE:NOROOT(0)
??Subroutine50_0:
          CFI Block cfiCond84 Using cfiCommon0
          CFI Function zclColor_MoveToSaturationCB
          CFI Conditional ??CrossCallReturnLabel_87
          CFI R6 load(1, XDATA, add(CFA_XSP16, literal(-16)))
          CFI VB load(1, XDATA, add(CFA_XSP16, literal(-15)))
          CFI V0 load(1, XDATA, add(CFA_XSP16, literal(-14)))
          CFI V1 load(1, XDATA, add(CFA_XSP16, literal(-13)))
          CFI V2 load(1, XDATA, add(CFA_XSP16, literal(-12)))
          CFI V3 load(1, XDATA, add(CFA_XSP16, literal(-11)))
          CFI V4 load(1, XDATA, add(CFA_XSP16, literal(-10)))
          CFI V5 load(1, XDATA, add(CFA_XSP16, literal(-9)))
          CFI V6 load(1, XDATA, add(CFA_XSP16, literal(-8)))
          CFI V7 load(1, XDATA, add(CFA_XSP16, literal(-7)))
          CFI R7 load(1, XDATA, add(CFA_XSP16, literal(-6)))
          CFI ?RET_LOW load(1, XDATA, add(CFA_XSP16, literal(-5)))
          CFI ?RET_HIGH load(1, XDATA, add(CFA_XSP16, literal(-4)))
          CFI ?BRET_EXT load(1, XDATA, add(CFA_XSP16, literal(-3)))
          CFI DPL0 load(1, XDATA, add(CFA_XSP16, literal(-2)))
          CFI DPH0 load(1, XDATA, add(CFA_XSP16, literal(-1)))
          CFI CFA_SP SP+0
          CFI CFA_XSP16 add(XSP16, 16)
          CFI Block cfiCond85 Using cfiCommon0
          CFI (cfiCond85) Function zclColor_MoveHueCB
          CFI (cfiCond85) Conditional ??CrossCallReturnLabel_85
          CFI (cfiCond85) R6 load(1, XDATA, add(CFA_XSP16, literal(-16)))
          CFI (cfiCond85) VB load(1, XDATA, add(CFA_XSP16, literal(-15)))
          CFI (cfiCond85) V0 load(1, XDATA, add(CFA_XSP16, literal(-14)))
          CFI (cfiCond85) V1 load(1, XDATA, add(CFA_XSP16, literal(-13)))
          CFI (cfiCond85) V2 load(1, XDATA, add(CFA_XSP16, literal(-12)))
          CFI (cfiCond85) V3 load(1, XDATA, add(CFA_XSP16, literal(-11)))
          CFI (cfiCond85) V4 load(1, XDATA, add(CFA_XSP16, literal(-10)))
          CFI (cfiCond85) V5 load(1, XDATA, add(CFA_XSP16, literal(-9)))
          CFI (cfiCond85) V6 load(1, XDATA, add(CFA_XSP16, literal(-8)))
          CFI (cfiCond85) V7 load(1, XDATA, add(CFA_XSP16, literal(-7)))
          CFI (cfiCond85) R7 load(1, XDATA, add(CFA_XSP16, literal(-6)))
          CFI (cfiCond85) ?RET_LOW load(1, XDATA, add(CFA_XSP16, literal(-5)))
          CFI (cfiCond85) ?RET_HIGH load(1, XDATA, add(CFA_XSP16, literal(-4)))
          CFI (cfiCond85) ?BRET_EXT load(1, XDATA, add(CFA_XSP16, literal(-3)))
          CFI (cfiCond85) DPL0 load(1, XDATA, add(CFA_XSP16, literal(-2)))
          CFI (cfiCond85) DPH0 load(1, XDATA, add(CFA_XSP16, literal(-1)))
          CFI (cfiCond85) CFA_SP SP+0
          CFI (cfiCond85) CFA_XSP16 add(XSP16, 16)
          CFI Block cfiCond86 Using cfiCommon0
          CFI (cfiCond86) Function zclColor_StepSaturationCB
          CFI (cfiCond86) Conditional ??CrossCallReturnLabel_86, ??CrossCallReturnLabel_8
          CFI (cfiCond86) R6 load(1, XDATA, add(CFA_XSP16, literal(-12)))
          CFI (cfiCond86) VB load(1, XDATA, add(CFA_XSP16, literal(-11)))
          CFI (cfiCond86) V0 load(1, XDATA, add(CFA_XSP16, literal(-10)))
          CFI (cfiCond86) V1 load(1, XDATA, add(CFA_XSP16, literal(-9)))
          CFI (cfiCond86) V2 load(1, XDATA, add(CFA_XSP16, literal(-8)))
          CFI (cfiCond86) V3 load(1, XDATA, add(CFA_XSP16, literal(-7)))
          CFI (cfiCond86) R7 load(1, XDATA, add(CFA_XSP16, literal(-6)))
          CFI (cfiCond86) ?RET_LOW load(1, XDATA, add(CFA_XSP16, literal(-5)))
          CFI (cfiCond86) ?RET_HIGH load(1, XDATA, add(CFA_XSP16, literal(-4)))
          CFI (cfiCond86) ?BRET_EXT load(1, XDATA, add(CFA_XSP16, literal(-3)))
          CFI (cfiCond86) DPL0 load(1, XDATA, add(CFA_XSP16, literal(-2)))
          CFI (cfiCond86) DPH0 load(1, XDATA, add(CFA_XSP16, literal(-1)))
          CFI (cfiCond86) CFA_SP SP+0
          CFI (cfiCond86) CFA_XSP16 add(XSP16, 12)
          CFI Block cfiCond87 Using cfiCommon0
          CFI (cfiCond87) Function zclColor_StepHueCB
          CFI (cfiCond87) Conditional ??CrossCallReturnLabel_86, ??CrossCallReturnLabel_9
          CFI (cfiCond87) R6 load(1, XDATA, add(CFA_XSP16, literal(-12)))
          CFI (cfiCond87) VB load(1, XDATA, add(CFA_XSP16, literal(-11)))
          CFI (cfiCond87) V0 load(1, XDATA, add(CFA_XSP16, literal(-10)))
          CFI (cfiCond87) V1 load(1, XDATA, add(CFA_XSP16, literal(-9)))
          CFI (cfiCond87) V2 load(1, XDATA, add(CFA_XSP16, literal(-8)))
          CFI (cfiCond87) V3 load(1, XDATA, add(CFA_XSP16, literal(-7)))
          CFI (cfiCond87) R7 load(1, XDATA, add(CFA_XSP16, literal(-6)))
          CFI (cfiCond87) ?RET_LOW load(1, XDATA, add(CFA_XSP16, literal(-5)))
          CFI (cfiCond87) ?RET_HIGH load(1, XDATA, add(CFA_XSP16, literal(-4)))
          CFI (cfiCond87) ?BRET_EXT load(1, XDATA, add(CFA_XSP16, literal(-3)))
          CFI (cfiCond87) DPL0 load(1, XDATA, add(CFA_XSP16, literal(-2)))
          CFI (cfiCond87) DPH0 load(1, XDATA, add(CFA_XSP16, literal(-1)))
          CFI (cfiCond87) CFA_SP SP+0
          CFI (cfiCond87) CFA_XSP16 add(XSP16, 12)
          CFI Block cfiPicker88 Using cfiCommon1
          CFI (cfiPicker88) NoFunction
          CFI (cfiPicker88) Picker
        LCALL   ?Subroutine47 & 0xFFFF
??CrossCallReturnLabel_89:
        MOVX    A,@DPTR
        RET
          CFI EndBlock cfiCond84
          CFI EndBlock cfiCond85
          CFI EndBlock cfiCond86
          CFI EndBlock cfiCond87
          CFI EndBlock cfiPicker88

        RSEG BANKED_CODE:CODE:NOROOT(0)
?Subroutine29:
          CFI Block cfiCond89 Using cfiCommon0
          CFI Function zclColor_MoveSaturationCB
          CFI Conditional ??CrossCallReturnLabel_51
          CFI R6 load(1, XDATA, add(CFA_XSP16, literal(-16)))
          CFI VB load(1, XDATA, add(CFA_XSP16, literal(-15)))
          CFI V0 load(1, XDATA, add(CFA_XSP16, literal(-14)))
          CFI V1 load(1, XDATA, add(CFA_XSP16, literal(-13)))
          CFI V2 load(1, XDATA, add(CFA_XSP16, literal(-12)))
          CFI V3 load(1, XDATA, add(CFA_XSP16, literal(-11)))
          CFI V4 load(1, XDATA, add(CFA_XSP16, literal(-10)))
          CFI V5 load(1, XDATA, add(CFA_XSP16, literal(-9)))
          CFI V6 load(1, XDATA, add(CFA_XSP16, literal(-8)))
          CFI V7 load(1, XDATA, add(CFA_XSP16, literal(-7)))
          CFI R7 load(1, XDATA, add(CFA_XSP16, literal(-6)))
          CFI ?RET_LOW load(1, XDATA, add(CFA_XSP16, literal(-5)))
          CFI ?RET_HIGH load(1, XDATA, add(CFA_XSP16, literal(-4)))
          CFI ?BRET_EXT load(1, XDATA, add(CFA_XSP16, literal(-3)))
          CFI DPL0 load(1, XDATA, add(CFA_XSP16, literal(-2)))
          CFI DPH0 load(1, XDATA, add(CFA_XSP16, literal(-1)))
          CFI CFA_SP SP+0
          CFI CFA_XSP16 add(XSP16, 16)
          CFI Block cfiCond90 Using cfiCommon0
          CFI (cfiCond90) Function zclColor_MoveHueCB
          CFI (cfiCond90) Conditional ??CrossCallReturnLabel_52
          CFI (cfiCond90) R6 load(1, XDATA, add(CFA_XSP16, literal(-16)))
          CFI (cfiCond90) VB load(1, XDATA, add(CFA_XSP16, literal(-15)))
          CFI (cfiCond90) V0 load(1, XDATA, add(CFA_XSP16, literal(-14)))
          CFI (cfiCond90) V1 load(1, XDATA, add(CFA_XSP16, literal(-13)))
          CFI (cfiCond90) V2 load(1, XDATA, add(CFA_XSP16, literal(-12)))
          CFI (cfiCond90) V3 load(1, XDATA, add(CFA_XSP16, literal(-11)))
          CFI (cfiCond90) V4 load(1, XDATA, add(CFA_XSP16, literal(-10)))
          CFI (cfiCond90) V5 load(1, XDATA, add(CFA_XSP16, literal(-9)))
          CFI (cfiCond90) V6 load(1, XDATA, add(CFA_XSP16, literal(-8)))
          CFI (cfiCond90) V7 load(1, XDATA, add(CFA_XSP16, literal(-7)))
          CFI (cfiCond90) R7 load(1, XDATA, add(CFA_XSP16, literal(-6)))
          CFI (cfiCond90) ?RET_LOW load(1, XDATA, add(CFA_XSP16, literal(-5)))
          CFI (cfiCond90) ?RET_HIGH load(1, XDATA, add(CFA_XSP16, literal(-4)))
          CFI (cfiCond90) ?BRET_EXT load(1, XDATA, add(CFA_XSP16, literal(-3)))
          CFI (cfiCond90) DPL0 load(1, XDATA, add(CFA_XSP16, literal(-2)))
          CFI (cfiCond90) DPH0 load(1, XDATA, add(CFA_XSP16, literal(-1)))
          CFI (cfiCond90) CFA_SP SP+0
          CFI (cfiCond90) CFA_XSP16 add(XSP16, 16)
          CFI Block cfiPicker91 Using cfiCommon1
          CFI (cfiPicker91) NoFunction
          CFI (cfiPicker91) Picker
        INC     DPTR
        MOVX    A,@DPTR
        MOV     R0,A
        CLR     A
        XCH     A,R0
        MOV     R1,A
        MOV     R2,#0xa
        MOV     R3,#0x0
        RET
          CFI EndBlock cfiCond89
          CFI EndBlock cfiCond90
          CFI EndBlock cfiPicker91

        RSEG BANKED_CODE:CODE:NOROOT(0)
?Subroutine27:
          CFI Block cfiCond92 Using cfiCommon0
          CFI Function zclColor_MoveSaturationCB
          CFI Conditional ??CrossCallReturnLabel_47
          CFI R6 load(1, XDATA, add(CFA_XSP16, literal(-16)))
          CFI VB load(1, XDATA, add(CFA_XSP16, literal(-15)))
          CFI V0 load(1, XDATA, add(CFA_XSP16, literal(-14)))
          CFI V1 load(1, XDATA, add(CFA_XSP16, literal(-13)))
          CFI V2 load(1, XDATA, add(CFA_XSP16, literal(-12)))
          CFI V3 load(1, XDATA, add(CFA_XSP16, literal(-11)))
          CFI V4 load(1, XDATA, add(CFA_XSP16, literal(-10)))
          CFI V5 load(1, XDATA, add(CFA_XSP16, literal(-9)))
          CFI V6 load(1, XDATA, add(CFA_XSP16, literal(-8)))
          CFI V7 load(1, XDATA, add(CFA_XSP16, literal(-7)))
          CFI R7 load(1, XDATA, add(CFA_XSP16, literal(-6)))
