///////////////////////////////////////////////////////////////////////////////
//                                                                            /
// IAR C/C++ Compiler V8.20.2.41139 for 8051            27/May/2014  19:22:23 /
// Copyright 2004-2013 IAR Systems AB.                                        /
//                                                                            /
//    Core               =  plain                                             /
//    Code model         =  banked                                            /
//    Data model         =  large                                             /
//    Calling convention =  xdata reentrant                                   /
//    Constant location  =  data_rom                                          /
//    Dptr setup         =  1,16                                              /
//                                                                            /
//    Source file        =  D:\Texas Instruments\Z-Stack Lighting             /
//                          1.0.2\Components\stack\zcl\zcl_ll.c               /
//    Command line       =  -f "D:\Texas Instruments\Z-Stack Lighting         /
//                          1.0.2\Projects\zstack\ZLL\SampleApp\CC253x\..\..\ /
//                          ..\Tools\CC2530DB\f8wRouter.cfg" (-DCPU32MHZ      /
//                          -DROOT=__near_func -DMAC_CFG_APP_PENDING_QUEUE=TR /
//                          UE -DMAC_CFG_TX_DATA_MAX=5 -DMAC_CFG_TX_MAX=8     /
//                          -DMAC_CFG_RX_MAX=5 -DRTR_NWK) -f "D:\Texas        /
//                          Instruments\Z-Stack Lighting                      /
//                          1.0.2\Projects\zstack\ZLL\SampleApp\CC253x\..\..\ /
//                          ..\Tools\CC2530DB\f8wConfig.cfg" (-DZIGBEEPRO     /
//                          -DSECURE=1 -DZG_SECURE_DYNAMIC=0 -DREFLECTOR      /
//                          -DDEFAULT_CHANLIST=0x00000800                     /
//                          -DZDAPP_CONFIG_PAN_ID=0xFFFF                      /
//                          -DNWK_START_DELAY=100 -DEXTENDED_JOINING_RANDOM_M /
//                          ASK=0x007F -DBEACON_REQUEST_DELAY=100             /
//                          -DBEACON_REQ_DELAY_MASK=0x00FF                    /
//                          -DLINK_STATUS_JITTER_MASK=0x007F                  /
//                          -DROUTE_EXPIRY_TIME=30 -DAPSC_ACK_WAIT_DURATION_P /
//                          OLLED=3000 -DNWK_INDIRECT_MSG_TIMEOUT=7           /
//                          -DMAX_RREQ_ENTRIES=8 -DAPSC_MAX_FRAME_RETRIES=3   /
//                          -DNWK_MAX_DATA_RETRIES=2                          /
//                          -DMAX_POLL_FAILURE_RETRIES=2 -DMAX_BCAST=9        /
//                          -DAPS_MAX_GROUPS=16 -DMAX_RTG_ENTRIES=40          /
//                          -DNWK_MAX_BINDING_ENTRIES=4                       /
//                          -DMAX_BINDING_CLUSTER_IDS=4                       /
//                          "-DDEFAULT_KEY={0x01, 0x03, 0x05, 0x07, 0x09,     /
//                          0x0B, 0x0D, 0x0F, 0x00, 0x02, 0x04, 0x06, 0x08,   /
//                          0x0A, 0x0C, 0x0D}" -DMAC_MAX_FRAME_SIZE=116       /
//                          -DZDNWKMGR_MIN_TRANSMISSIONS=20 "-DCONST=const    /
//                          __code" -DGENERIC=__generic                       /
//                          -DRFD_RCVC_ALWAYS_ON=FALSE -DPOLL_RATE=1000       /
//                          -DQUEUED_POLL_RATE=100 -DRESPONSE_POLL_RATE=100   /
//                          -DREJOIN_POLL_RATE=440) -f "D:\Texas              /
//                          Instruments\Z-Stack Lighting                      /
//                          1.0.2\Projects\zstack\ZLL\SampleApp\CC253x\..\..\ /
//                          ..\Tools\CC2530DB\f8wZCL.cfg" "D:\Texas           /
//                          Instruments\Z-Stack Lighting                      /
//                          1.0.2\Components\stack\zcl\zcl_ll.c" -D           /
//                          FEATURE_GREEN_POWER -D SECURE=1 -D                /
//                          TC_LINKKEY_JOIN -D ZDSECMGR_TC_DEVICE_MAX=2 -D    /
//                          NV_RESTORE -D HOLD_AUTO_START -D INTER_PAN -D     /
//                          LCD_SUPPORTED=DEBUG -D ZCL_BASIC -D ZCL_READ -D   /
//                          ZCL_WRITE -D ZCL_IDENTIFY -D ZCL_ON_OFF -D        /
//                          ZCL_SCENES -D ZCL_GROUPS -D                       /
//                          ZCL_LIGHT_LINK_ENHANCE -D ZCL_LEVEL_CTRL -D       /
//                          ZCL_COLOR_CTRL -D MAX_CHANNELS_24GHZ=0x02108800   /
//                          -D xPWM_ALT2 -D xTHERMAL_SHUTDOWN -D              /
//                          ZLL_1_0_HUB_COMPATIBILITY -D DALI_LIGHT -lC       /
//                          "D:\Texas Instruments\Z-Stack Lighting            /
//                          1.0.2\Projects\zstack\ZLL\SampleApp\CC253x\Zlight /
//                           - Router\List\" -lA "D:\Texas                    /
//                          Instruments\Z-Stack Lighting                      /
//                          1.0.2\Projects\zstack\ZLL\SampleApp\CC253x\Zlight /
//                           - Router\List\" --diag_suppress Pe001,Pa010 -o   /
//                          "D:\Texas Instruments\Z-Stack Lighting            /
//                          1.0.2\Projects\zstack\ZLL\SampleApp\CC253x\Zlight /
//                           - Router\Obj\" -e --debug --core=plain           /
//                          --dptr=16,1 --data_model=large                    /
//                          --code_model=banked --calling_convention=xdata_re /
//                          entrant --place_constants=data_rom                /
//                          --nr_virtual_regs 16 -I "D:\Texas                 /
//                          Instruments\Z-Stack Lighting                      /
//                          1.0.2\Projects\zstack\ZLL\SampleApp\CC253x\" -I   /
//                          "D:\Texas Instruments\Z-Stack Lighting            /
//                          1.0.2\Projects\zstack\ZLL\SampleApp\CC253x\..\Sou /
//                          rce\" -I "D:\Texas Instruments\Z-Stack Lighting   /
//                          1.0.2\Projects\zstack\ZLL\SampleApp\CC253x\..\..\ /
//                          Source\" -I "D:\Texas Instruments\Z-Stack         /
//                          Lighting 1.0.2\Projects\zstack\ZLL\SampleApp\CC25 /
//                          3x\..\..\..\HomeAutomation\Source\" -I "D:\Texas  /
//                          Instruments\Z-Stack Lighting                      /
//                          1.0.2\Projects\zstack\ZLL\SampleApp\CC253x\..\..\ /
//                          ..\HomeAutomation\SampleLight\Source\" -I         /
//                          "D:\Texas Instruments\Z-Stack Lighting            /
//                          1.0.2\Projects\zstack\ZLL\SampleApp\CC253x\..\..\ /
//                          ..\ZMain\TI2530DB\" -I "D:\Texas                  /
//                          Instruments\Z-Stack Lighting                      /
//                          1.0.2\Projects\zstack\ZLL\SampleApp\CC253x\..\..\ /
//                          ..\..\..\Components\hal\include\" -I "D:\Texas    /
//                          Instruments\Z-Stack Lighting                      /
//                          1.0.2\Projects\zstack\ZLL\SampleApp\CC253x\..\..\ /
//                          ..\..\..\Components\hal\target\CC2530PMP4712\"    /
//                          -I "D:\Texas Instruments\Z-Stack Lighting         /
//                          1.0.2\Projects\zstack\ZLL\SampleApp\CC253x\..\..\ /
//                          ..\..\..\Components\mac\include\" -I "D:\Texas    /
//                          Instruments\Z-Stack Lighting                      /
//                          1.0.2\Projects\zstack\ZLL\SampleApp\CC253x\..\..\ /
//                          ..\..\..\Components\mac\high_level\" -I           /
//                          "D:\Texas Instruments\Z-Stack Lighting            /
//                          1.0.2\Projects\zstack\ZLL\SampleApp\CC253x\..\..\ /
//                          ..\..\..\Components\mac\low_level\srf04\" -I      /
//                          "D:\Texas Instruments\Z-Stack Lighting            /
//                          1.0.2\Projects\zstack\ZLL\SampleApp\CC253x\..\..\ /
//                          ..\..\..\Components\mac\low_level\srf04\single_ch /
//                          ip\" -I "D:\Texas Instruments\Z-Stack Lighting    /
//                          1.0.2\Projects\zstack\ZLL\SampleApp\CC253x\..\..\ /
//                          ..\..\..\Components\mt\" -I "D:\Texas             /
//                          Instruments\Z-Stack Lighting                      /
//                          1.0.2\Projects\zstack\ZLL\SampleApp\CC253x\..\..\ /
//                          ..\..\..\Components\osal\include\" -I "D:\Texas   /
//                          Instruments\Z-Stack Lighting                      /
//                          1.0.2\Projects\zstack\ZLL\SampleApp\CC253x\..\..\ /
//                          ..\..\..\Components\services\saddr\" -I           /
//                          "D:\Texas Instruments\Z-Stack Lighting            /
//                          1.0.2\Projects\zstack\ZLL\SampleApp\CC253x\..\..\ /
//                          ..\..\..\Components\services\sdata\" -I           /
//                          "D:\Texas Instruments\Z-Stack Lighting            /
//                          1.0.2\Projects\zstack\ZLL\SampleApp\CC253x\..\..\ /
//                          ..\..\..\Components\stack\af\" -I "D:\Texas       /
//                          Instruments\Z-Stack Lighting                      /
//                          1.0.2\Projects\zstack\ZLL\SampleApp\CC253x\..\..\ /
//                          ..\..\..\Components\stack\nwk\" -I "D:\Texas      /
//                          Instruments\Z-Stack Lighting                      /
//                          1.0.2\Projects\zstack\ZLL\SampleApp\CC253x\..\..\ /
//                          ..\..\..\Components\stack\sapi\" -I "D:\Texas     /
//                          Instruments\Z-Stack Lighting                      /
//                          1.0.2\Projects\zstack\ZLL\SampleApp\CC253x\..\..\ /
//                          ..\..\..\Components\stack\sec\" -I "D:\Texas      /
//                          Instruments\Z-Stack Lighting                      /
//                          1.0.2\Projects\zstack\ZLL\SampleApp\CC253x\..\..\ /
//                          ..\..\..\Components\stack\sys\" -I "D:\Texas      /
//                          Instruments\Z-Stack Lighting                      /
//                          1.0.2\Projects\zstack\ZLL\SampleApp\CC253x\..\..\ /
//                          ..\..\..\Components\stack\zcl\" -I "D:\Texas      /
//                          Instruments\Z-Stack Lighting                      /
//                          1.0.2\Projects\zstack\ZLL\SampleApp\CC253x\..\..\ /
//                          ..\..\..\Components\stack\zdo\" -I "D:\Texas      /
//                          Instruments\Z-Stack Lighting                      /
//                          1.0.2\Projects\zstack\ZLL\SampleApp\CC253x\..\..\ /
//                          ..\..\..\Components\zmac\" -I "D:\Texas           /
//                          Instruments\Z-Stack Lighting                      /
//                          1.0.2\Projects\zstack\ZLL\SampleApp\CC253x\..\..\ /
//                          ..\..\..\Components\zmac\f8w\" -Ohz               /
//                          --require_prototypes                              /
//    List file          =  D:\Texas Instruments\Z-Stack Lighting             /
//                          1.0.2\Projects\zstack\ZLL\SampleApp\CC253x\Zlight /
//                           - Router\List\zcl_ll.s51                         /
//                                                                            /
//                                                                            /
///////////////////////////////////////////////////////////////////////////////

        NAME zcl_ll

        RTMODEL "__SystemLibrary", "CLib"
        RTMODEL "__calling_convention", "xdata_reentrant"
        RTMODEL "__code_model", "banked"
        RTMODEL "__core", "plain"
        RTMODEL "__data_model", "large"
        RTMODEL "__dptr_size", "16"
        RTMODEL "__extended_stack", "disabled"
        RTMODEL "__location_for_constants", "data"
        RTMODEL "__number_of_dptrs", "1"
        RTMODEL "__rt_version", "1"

        RSEG DOVERLAY:DATA:NOROOT(0)
        RSEG IOVERLAY:IDATA:NOROOT(0)
        RSEG ISTACK:IDATA:NOROOT(0)
        RSEG PSTACK:XDATA:NOROOT(0)
        RSEG XSTACK:XDATA:NOROOT(0)

        EXTERN ?ALLOC_XSTACK8
        EXTERN ?BANKED_ENTER_XDATA
        EXTERN ?BANKED_LEAVE_XDATA
        EXTERN ?BDISPATCH
        EXTERN ?BRET
        EXTERN ?CALL_IND
        EXTERN ?DEALLOC_XSTACK8
        EXTERN ?PUSH_XSTACK8_X_FOUR
        EXTERN ?PUSH_XSTACK_I_ONE
        EXTERN ?PUSH_XSTACK_I_THREE
        EXTERN ?PUSH_XSTACK_I_TWO
        EXTERN ?S_SHL
        EXTERN ?V0
        EXTERN ?XSP
        EXTERN ?XSTACK_DISP0_8
        EXTERN ?XSTORE_R2345
        EXTERN __INIT_XDATA_Z

        FUNCTION ??zclLL_FindCallbacks?relay,0203H
        FUNCTION ??zclLL_HdlIncoming?relay,0203H
        FUNCTION ??zclLL_ParseInCmd_NwkJoinReq?relay,0203H
        FUNCTION ??zclLL_ProcessInCmd_DeviceInfoRsp?relay,0203H
        FUNCTION ??zclLL_ProcessInCmd_EndpointInfo?relay,0203H
        FUNCTION ??zclLL_ProcessInCmd_GetEPListRsp?relay,0203H
        FUNCTION ??zclLL_ProcessInCmd_GetGrpIDsRsp?relay,0203H
        FUNCTION ??zclLL_ProcessInCmd_NwkStartReq?relay,0203H
        FUNCTION ??zclLL_ProcessInCmd_NwkStartRsp?relay,0203H
        FUNCTION ??zclLL_ProcessInCmd_NwkUpdateReq?relay,0203H
        FUNCTION ??zclLL_ProcessInCmd_ScanRsp?relay,0203H
        FUNCTION ??zclLL_ProcessInLLCmds?relay,0203H
        FUNCTION ??zclLL_ProcessInLLInterPANCmds?relay,0203H
        PUBLIC ??zclLL_RegisterCmdCallbacks?relay
        FUNCTION ??zclLL_RegisterCmdCallbacks?relay,0203H
        PUBLIC ??zclLL_RegisterInterPANCmdCallbacks?relay
        FUNCTION ??zclLL_RegisterInterPANCmdCallbacks?relay,0203H
        PUBLIC ??zclLL_SendInterPANCommand?relay
        FUNCTION ??zclLL_SendInterPANCommand?relay,0203H
        PUBLIC ??zclLL_Send_DeviceInfoReq?relay
        FUNCTION ??zclLL_Send_DeviceInfoReq?relay,0203H
        PUBLIC ??zclLL_Send_DeviceInfoRsp?relay
        FUNCTION ??zclLL_Send_DeviceInfoRsp?relay,0203H
        PUBLIC ??zclLL_Send_EndpointInfo?relay
        FUNCTION ??zclLL_Send_EndpointInfo?relay,0203H
        PUBLIC ??zclLL_Send_GetEPListRsp?relay
        FUNCTION ??zclLL_Send_GetEPListRsp?relay,0203H
        PUBLIC ??zclLL_Send_GetGrpIDsRsp?relay
        FUNCTION ??zclLL_Send_GetGrpIDsRsp?relay,0203H
        PUBLIC ??zclLL_Send_IndentifyReq?relay
        FUNCTION ??zclLL_Send_IndentifyReq?relay,0203H
        PUBLIC ??zclLL_Send_NwkJoinReq?relay
        FUNCTION ??zclLL_Send_NwkJoinReq?relay,0203H
        PUBLIC ??zclLL_Send_NwkJoinRsp?relay
        FUNCTION ??zclLL_Send_NwkJoinRsp?relay,0203H
        PUBLIC ??zclLL_Send_NwkStartReq?relay
        FUNCTION ??zclLL_Send_NwkStartReq?relay,0203H
        PUBLIC ??zclLL_Send_NwkStartRsp?relay
        FUNCTION ??zclLL_Send_NwkStartRsp?relay,0203H
        PUBLIC ??zclLL_Send_NwkUpdateReq?relay
        FUNCTION ??zclLL_Send_NwkUpdateReq?relay,0203H
        PUBLIC ??zclLL_Send_ResetToFNReq?relay
        FUNCTION ??zclLL_Send_ResetToFNReq?relay,0203H
        PUBLIC ??zclLL_Send_ScanReq?relay
        FUNCTION ??zclLL_Send_ScanReq?relay,0203H
        PUBLIC ??zclLL_Send_ScanRsp?relay
        FUNCTION ??zclLL_Send_ScanRsp?relay,0203H
        PUBWEAK P0DIR
        PUBWEAK _A_P0
        FUNCTION zclLL_FindCallbacks,0203H
        ARGFRAME XSTACK, 14, STACK
        ARGFRAME IOVERLAY, 0, STATIC
        ARGFRAME DOVERLAY, 0, STATIC
        LOCFRAME ISTACK, 2, STACK
        FUNCTION zclLL_HdlIncoming,021603H
        ARGFRAME XSTACK, 0, STACK
        LOCFRAME XSTACK, 14, STACK
        FUNCTION zclLL_ParseInCmd_NwkJoinReq,021203H
        ARGFRAME XSTACK, 41, STACK
        ARGFRAME IOVERLAY, 0, STATIC
        ARGFRAME DOVERLAY, 0, STATIC
        LOCFRAME ISTACK, 1, STACK
        LOCFRAME XSTACK, 18, STACK
        FUNCTION zclLL_ProcessInCmd_DeviceInfoRsp,021203H
        ARGFRAME XSTACK, 41, STACK
        ARGFRAME IOVERLAY, 0, STATIC
        ARGFRAME DOVERLAY, 0, STATIC
        LOCFRAME ISTACK, 1, STACK
        LOCFRAME XSTACK, 18, STACK
        FUNCTION zclLL_ProcessInCmd_EndpointInfo,021203H
        ARGFRAME XSTACK, 10, STACK
        ARGFRAME IOVERLAY, 0, STATIC
        ARGFRAME DOVERLAY, 0, STATIC
        LOCFRAME ISTACK, 1, STACK
        LOCFRAME XSTACK, 16, STACK
        FUNCTION zclLL_ProcessInCmd_GetEPListRsp,021203H
        ARGFRAME XSTACK, 10, STACK
        ARGFRAME IOVERLAY, 0, STATIC
        ARGFRAME DOVERLAY, 0, STATIC
        LOCFRAME ISTACK, 1, STACK
        LOCFRAME XSTACK, 20, STACK
        FUNCTION zclLL_ProcessInCmd_GetGrpIDsRsp,021203H
        ARGFRAME XSTACK, 10, STACK
        ARGFRAME IOVERLAY, 0, STATIC
        ARGFRAME DOVERLAY, 0, STATIC
        LOCFRAME ISTACK, 1, STACK
        LOCFRAME XSTACK, 18, STACK
        FUNCTION zclLL_ProcessInCmd_NwkStartReq,021203H
        ARGFRAME XSTACK, 41, STACK
        ARGFRAME IOVERLAY, 0, STATIC
        ARGFRAME DOVERLAY, 0, STATIC
        LOCFRAME ISTACK, 1, STACK
        LOCFRAME XSTACK, 18, STACK
        FUNCTION zclLL_ProcessInCmd_NwkStartRsp,021203H
        ARGFRAME XSTACK, 41, STACK
        ARGFRAME IOVERLAY, 0, STATIC
        ARGFRAME DOVERLAY, 0, STATIC
        LOCFRAME ISTACK, 1, STACK
        LOCFRAME XSTACK, 14, STACK
        FUNCTION zclLL_ProcessInCmd_NwkUpdateReq,021203H
        ARGFRAME XSTACK, 41, STACK
        ARGFRAME IOVERLAY, 0, STATIC
        ARGFRAME DOVERLAY, 0, STATIC
        LOCFRAME ISTACK, 1, STACK
        LOCFRAME XSTACK, 14, STACK
        FUNCTION zclLL_ProcessInCmd_ScanRsp,021203H
        ARGFRAME XSTACK, 41, STACK
        ARGFRAME IOVERLAY, 0, STATIC
        ARGFRAME DOVERLAY, 0, STATIC
        LOCFRAME ISTACK, 1, STACK
        LOCFRAME XSTACK, 14, STACK
        FUNCTION zclLL_ProcessInLLCmds,021203H
        ARGFRAME XSTACK, 14, STACK
        ARGFRAME IOVERLAY, 0, STATIC
        ARGFRAME DOVERLAY, 0, STATIC
        LOCFRAME ISTACK, 1, STACK
        LOCFRAME XSTACK, 10, STACK
        FUNCTION zclLL_ProcessInLLInterPANCmds,021203H
        ARGFRAME XSTACK, 14, STACK
        ARGFRAME IOVERLAY, 0, STATIC
        ARGFRAME DOVERLAY, 0, STATIC
        LOCFRAME ISTACK, 1, STACK
        LOCFRAME XSTACK, 41, STACK
        PUBLIC zclLL_RegisterCmdCallbacks
        FUNCTION zclLL_RegisterCmdCallbacks,021203H
        ARGFRAME XSTACK, 0, STACK
        LOCFRAME ISTACK, 1, STACK
        LOCFRAME XSTACK, 14, STACK
        PUBLIC zclLL_RegisterInterPANCmdCallbacks
        FUNCTION zclLL_RegisterInterPANCmdCallbacks,021203H
        ARGFRAME XSTACK, 0, STACK
        LOCFRAME XSTACK, 12, STACK
        PUBLIC zclLL_SendInterPANCommand
        FUNCTION zclLL_SendInterPANCommand,021203H
        ARGFRAME XSTACK, 29, STACK
        ARGFRAME IOVERLAY, 0, STATIC
        ARGFRAME DOVERLAY, 0, STATIC
        LOCFRAME XSTACK, 25, STACK
        PUBLIC zclLL_Send_DeviceInfoReq
        FUNCTION zclLL_Send_DeviceInfoReq,021203H
        ARGFRAME XSTACK, 1, STACK
        LOCFRAME ISTACK, 1, STACK
        LOCFRAME XSTACK, 22, STACK
        PUBLIC zclLL_Send_DeviceInfoRsp
        FUNCTION zclLL_Send_DeviceInfoRsp,021203H
        ARGFRAME XSTACK, 1, STACK
        LOCFRAME ISTACK, 1, STACK
        LOCFRAME XSTACK, 29, STACK
        PUBLIC zclLL_Send_EndpointInfo
        FUNCTION zclLL_Send_EndpointInfo,021203H
        ARGFRAME XSTACK, 2, STACK
        LOCFRAME ISTACK, 1, STACK
        LOCFRAME XSTACK, 29, STACK
        PUBLIC zclLL_Send_GetEPListRsp
        FUNCTION zclLL_Send_GetEPListRsp,021203H
        ARGFRAME XSTACK, 2, STACK
        LOCFRAME ISTACK, 1, STACK
        LOCFRAME XSTACK, 35, STACK
        PUBLIC zclLL_Send_GetGrpIDsRsp
        FUNCTION zclLL_Send_GetGrpIDsRsp,021203H
        ARGFRAME XSTACK, 2, STACK
        LOCFRAME ISTACK, 1, STACK
        LOCFRAME XSTACK, 33, STACK
        PUBLIC zclLL_Send_IndentifyReq
        FUNCTION zclLL_Send_IndentifyReq,021203H
        ARGFRAME XSTACK, 1, STACK
        LOCFRAME ISTACK, 1, STACK
        LOCFRAME XSTACK, 23, STACK
        PUBLIC zclLL_Send_NwkJoinReq
        FUNCTION zclLL_Send_NwkJoinReq,021203H
        ARGFRAME XSTACK, 2, STACK
        LOCFRAME ISTACK, 1, STACK
        LOCFRAME XSTACK, 23, STACK
        PUBLIC zclLL_Send_NwkJoinRsp
        FUNCTION zclLL_Send_NwkJoinRsp,021203H
        ARGFRAME XSTACK, 2, STACK
        LOCFRAME ISTACK, 1, STACK
        LOCFRAME XSTACK, 23, STACK
        PUBLIC zclLL_Send_NwkStartReq
        FUNCTION zclLL_Send_NwkStartReq,021203H
        ARGFRAME XSTACK, 1, STACK
        LOCFRAME ISTACK, 1, STACK
        LOCFRAME XSTACK, 23, STACK
        PUBLIC zclLL_Send_NwkStartRsp
        FUNCTION zclLL_Send_NwkStartRsp,021203H
        ARGFRAME XSTACK, 1, STACK
        LOCFRAME ISTACK, 1, STACK
        LOCFRAME XSTACK, 21, STACK
        PUBLIC zclLL_Send_NwkUpdateReq
        FUNCTION zclLL_Send_NwkUpdateReq,021203H
        ARGFRAME XSTACK, 1, STACK
        LOCFRAME ISTACK, 1, STACK
        LOCFRAME XSTACK, 21, STACK
        PUBLIC zclLL_Send_ResetToFNReq
        FUNCTION zclLL_Send_ResetToFNReq,021203H
        ARGFRAME XSTACK, 1, STACK
        LOCFRAME XSTACK, 21, STACK
        PUBLIC zclLL_Send_ScanReq
        FUNCTION zclLL_Send_ScanReq,021203H
        ARGFRAME XSTACK, 1, STACK
        LOCFRAME ISTACK, 1, STACK
        LOCFRAME XSTACK, 23, STACK
        PUBLIC zclLL_Send_ScanRsp
        FUNCTION zclLL_Send_ScanRsp,021203H
        ARGFRAME XSTACK, 1, STACK
        LOCFRAME ISTACK, 1, STACK
        LOCFRAME XSTACK, 25, STACK
        
          CFI Names cfiNames0
          CFI StackFrame CFA_SP SP IDATA
          CFI StackFrame CFA_PSP16 PSP16 XDATA
          CFI StackFrame CFA_XSP16 XSP16 XDATA
          CFI StaticOverlayFrame CFA_IOVERLAY IOVERLAY
          CFI StaticOverlayFrame CFA_DOVERLAY DOVERLAY
          CFI Resource `PSW.CY`:1, `B.BR0`:1, `B.BR1`:1, `B.BR2`:1, `B.BR3`:1
          CFI Resource `B.BR4`:1, `B.BR5`:1, `B.BR6`:1, `B.BR7`:1, `VB.BR8`:1
          CFI Resource `VB.BR9`:1, `VB.BR10`:1, `VB.BR11`:1, `VB.BR12`:1
          CFI Resource `VB.BR13`:1, `VB.BR14`:1, `VB.BR15`:1, VB:8, B:8, A:8
          CFI Resource PSW:8, DPL0:8, DPH0:8, R0:8, R1:8, R2:8, R3:8, R4:8, R5:8
          CFI Resource R6:8, R7:8, V0:8, V1:8, V2:8, V3:8, V4:8, V5:8, V6:8, V7:8
          CFI Resource V8:8, V9:8, V10:8, V11:8, V12:8, V13:8, V14:8, V15:8, SP:8
          CFI Resource PSPH:8, PSPL:8, PSP16:16, XSPH:8, XSPL:8, XSP16:16
          CFI VirtualResource ?RET:24
          CFI Resource ?BRET_EXT:8
          CFI VirtualResource ?RET_HIGH:8, ?RET_LOW:8
          CFI ResourceParts PSP16 PSPH, PSPL
          CFI ResourceParts XSP16 XSPH, XSPL
          CFI ResourceParts ?RET ?BRET_EXT, ?RET_HIGH, ?RET_LOW
          CFI EndNames cfiNames0
        
          CFI Common cfiCommon0 Using cfiNames0
          CFI CodeAlign 1
          CFI DataAlign -1
          CFI ReturnAddress ?RET CODE
          CFI CFA_DOVERLAY Used
          CFI CFA_IOVERLAY Used
          CFI CFA_SP SP+-3
          CFI CFA_PSP16 PSP16+0
          CFI CFA_XSP16 XSP16+0
          CFI `PSW.CY` SameValue
          CFI `B.BR0` SameValue
          CFI `B.BR1` SameValue
          CFI `B.BR2` SameValue
          CFI `B.BR3` SameValue
          CFI `B.BR4` SameValue
          CFI `B.BR5` SameValue
          CFI `B.BR6` SameValue
          CFI `B.BR7` SameValue
          CFI `VB.BR8` SameValue
          CFI `VB.BR9` SameValue
          CFI `VB.BR10` SameValue
          CFI `VB.BR11` SameValue
          CFI `VB.BR12` SameValue
          CFI `VB.BR13` SameValue
          CFI `VB.BR14` SameValue
          CFI `VB.BR15` SameValue
          CFI VB SameValue
          CFI B Undefined
          CFI A Undefined
          CFI PSW SameValue
          CFI DPL0 SameValue
          CFI DPH0 SameValue
          CFI R0 Undefined
          CFI R1 Undefined
          CFI R2 Undefined
          CFI R3 Undefined
          CFI R4 Undefined
          CFI R5 Undefined
          CFI R6 SameValue
          CFI R7 SameValue
          CFI V0 SameValue
          CFI V1 SameValue
          CFI V2 SameValue
          CFI V3 SameValue
          CFI V4 SameValue
          CFI V5 SameValue
          CFI V6 SameValue
          CFI V7 SameValue
          CFI V8 SameValue
          CFI V9 SameValue
          CFI V10 SameValue
          CFI V11 SameValue
          CFI V12 SameValue
          CFI V13 SameValue
          CFI V14 SameValue
          CFI V15 SameValue
          CFI PSPH Undefined
          CFI PSPL Undefined
          CFI XSPH Undefined
          CFI XSPL Undefined
          CFI ?RET Concat
          CFI ?BRET_EXT Frame(CFA_SP, 3)
          CFI ?RET_HIGH Frame(CFA_SP, 2)
          CFI ?RET_LOW Frame(CFA_SP, 1)
          CFI EndCommon cfiCommon0
        
        
          CFI Common cfiCommon1 Using cfiNames0
          CFI CodeAlign 1
          CFI DataAlign -1
          CFI ReturnAddress ?RET CODE
          CFI CFA_DOVERLAY Used
          CFI CFA_IOVERLAY Used
          CFI CFA_SP SP+-2
          CFI CFA_PSP16 PSP16+0
          CFI CFA_XSP16 XSP16+0
          CFI `PSW.CY` SameValue
          CFI `B.BR0` SameValue
          CFI `B.BR1` SameValue
          CFI `B.BR2` SameValue
          CFI `B.BR3` SameValue
          CFI `B.BR4` SameValue
          CFI `B.BR5` SameValue
          CFI `B.BR6` SameValue
          CFI `B.BR7` SameValue
          CFI `VB.BR8` SameValue
          CFI `VB.BR9` SameValue
          CFI `VB.BR10` SameValue
          CFI `VB.BR11` SameValue
          CFI `VB.BR12` SameValue
          CFI `VB.BR13` SameValue
          CFI `VB.BR14` SameValue
          CFI `VB.BR15` SameValue
          CFI VB SameValue
          CFI B SameValue
          CFI A SameValue
          CFI PSW SameValue
          CFI DPL0 SameValue
          CFI DPH0 SameValue
          CFI R0 SameValue
          CFI R1 SameValue
          CFI R2 SameValue
          CFI R3 SameValue
          CFI R4 SameValue
          CFI R5 SameValue
          CFI R6 SameValue
          CFI R7 SameValue
          CFI V0 SameValue
          CFI V1 SameValue
          CFI V2 SameValue
          CFI V3 SameValue
          CFI V4 SameValue
          CFI V5 SameValue
          CFI V6 SameValue
          CFI V7 SameValue
          CFI V8 SameValue
          CFI V9 SameValue
          CFI V10 SameValue
          CFI V11 SameValue
          CFI V12 SameValue
          CFI V13 SameValue
          CFI V14 SameValue
          CFI V15 SameValue
          CFI PSPH Undefined
          CFI PSPL Undefined
          CFI XSPH Undefined
          CFI XSPL Undefined
          CFI ?RET Concat
          CFI ?BRET_EXT SameValue
          CFI ?RET_HIGH Frame(CFA_SP, 2)
          CFI ?RET_LOW Frame(CFA_SP, 1)
          CFI EndCommon cfiCommon1
        
StubAPS_InterPan    SYMBOL "StubAPS_InterPan"
??StubAPS_InterPan?relay SYMBOL "?relay", StubAPS_InterPan
osal_buffer_uint32  SYMBOL "osal_buffer_uint32"
??osal_buffer_uint32?relay SYMBOL "?relay", osal_buffer_uint32
osal_build_uint32   SYMBOL "osal_build_uint32"
??osal_build_uint32?relay SYMBOL "?relay", osal_build_uint32
osal_mem_alloc      SYMBOL "osal_mem_alloc"
??osal_mem_alloc?relay SYMBOL "?relay", osal_mem_alloc
osal_mem_free       SYMBOL "osal_mem_free"
??osal_mem_free?relay SYMBOL "?relay", osal_mem_free
osal_memcpy         SYMBOL "osal_memcpy"
??osal_memcpy?relay SYMBOL "?relay", osal_memcpy
osal_memset         SYMBOL "osal_memset"
??osal_memset?relay SYMBOL "?relay", osal_memset
sAddrExtCpy         SYMBOL "sAddrExtCpy"
??sAddrExtCpy?relay SYMBOL "?relay", sAddrExtCpy
zcl_SendCommand     SYMBOL "zcl_SendCommand"
??zcl_SendCommand?relay SYMBOL "?relay", zcl_SendCommand
zcl_registerPlugin  SYMBOL "zcl_registerPlugin"
??zcl_registerPlugin?relay SYMBOL "?relay", zcl_registerPlugin
zclLL_RegisterCmdCallbacks SYMBOL "zclLL_RegisterCmdCallbacks"
??zclLL_RegisterCmdCallbacks?relay SYMBOL "?relay", zclLL_RegisterCmdCallbacks
zclLL_RegisterInterPANCmdCallbacks SYMBOL "zclLL_RegisterInterPANCmdCallbacks"
??zclLL_RegisterInterPANCmdCallbacks?relay SYMBOL "?relay", zclLL_RegisterInterPANCmdCallbacks
zclLL_SendInterPANCommand SYMBOL "zclLL_SendInterPANCommand"
??zclLL_SendInterPANCommand?relay SYMBOL "?relay", zclLL_SendInterPANCommand
zclLL_Send_DeviceInfoReq SYMBOL "zclLL_Send_DeviceInfoReq"
??zclLL_Send_DeviceInfoReq?relay SYMBOL "?relay", zclLL_Send_DeviceInfoReq
zclLL_Send_DeviceInfoRsp SYMBOL "zclLL_Send_DeviceInfoRsp"
??zclLL_Send_DeviceInfoRsp?relay SYMBOL "?relay", zclLL_Send_DeviceInfoRsp
zclLL_Send_EndpointInfo SYMBOL "zclLL_Send_EndpointInfo"
??zclLL_Send_EndpointInfo?relay SYMBOL "?relay", zclLL_Send_EndpointInfo
zclLL_Send_GetEPListRsp SYMBOL "zclLL_Send_GetEPListRsp"
??zclLL_Send_GetEPListRsp?relay SYMBOL "?relay", zclLL_Send_GetEPListRsp
zclLL_Send_GetGrpIDsRsp SYMBOL "zclLL_Send_GetGrpIDsRsp"
??zclLL_Send_GetGrpIDsRsp?relay SYMBOL "?relay", zclLL_Send_GetGrpIDsRsp
zclLL_Send_IndentifyReq SYMBOL "zclLL_Send_IndentifyReq"
??zclLL_Send_IndentifyReq?relay SYMBOL "?relay", zclLL_Send_IndentifyReq
zclLL_Send_NwkJoinReq SYMBOL "zclLL_Send_NwkJoinReq"
??zclLL_Send_NwkJoinReq?relay SYMBOL "?relay", zclLL_Send_NwkJoinReq
zclLL_Send_NwkJoinRsp SYMBOL "zclLL_Send_NwkJoinRsp"
??zclLL_Send_NwkJoinRsp?relay SYMBOL "?relay", zclLL_Send_NwkJoinRsp
zclLL_Send_NwkStartReq SYMBOL "zclLL_Send_NwkStartReq"
??zclLL_Send_NwkStartReq?relay SYMBOL "?relay", zclLL_Send_NwkStartReq
zclLL_Send_NwkStartRsp SYMBOL "zclLL_Send_NwkStartRsp"
??zclLL_Send_NwkStartRsp?relay SYMBOL "?relay", zclLL_Send_NwkStartRsp
zclLL_Send_NwkUpdateReq SYMBOL "zclLL_Send_NwkUpdateReq"
??zclLL_Send_NwkUpdateReq?relay SYMBOL "?relay", zclLL_Send_NwkUpdateReq
zclLL_Send_ResetToFNReq SYMBOL "zclLL_Send_ResetToFNReq"
??zclLL_Send_ResetToFNReq?relay SYMBOL "?relay", zclLL_Send_ResetToFNReq
zclLL_Send_ScanReq  SYMBOL "zclLL_Send_ScanReq"
??zclLL_Send_ScanReq?relay SYMBOL "?relay", zclLL_Send_ScanReq
zclLL_Send_ScanRsp  SYMBOL "zclLL_Send_ScanRsp"
??zclLL_Send_ScanRsp?relay SYMBOL "?relay", zclLL_Send_ScanRsp

        EXTERN ??StubAPS_InterPan?relay
        FUNCTION ??StubAPS_InterPan?relay,00H
        EXTERN ??osal_buffer_uint32?relay
        FUNCTION ??osal_buffer_uint32?relay,00H
        EXTERN ??osal_build_uint32?relay
        FUNCTION ??osal_build_uint32?relay,00H
        EXTERN ??osal_mem_alloc?relay
        FUNCTION ??osal_mem_alloc?relay,00H
        EXTERN ??osal_mem_free?relay
        FUNCTION ??osal_mem_free?relay,00H
        EXTERN ??osal_memcpy?relay
        FUNCTION ??osal_memcpy?relay,00H
        EXTERN ??osal_memset?relay
        FUNCTION ??osal_memset?relay,00H
        EXTERN ??sAddrExtCpy?relay
        FUNCTION ??sAddrExtCpy?relay,00H
        EXTERN ??zcl_SendCommand?relay
        FUNCTION ??zcl_SendCommand?relay,00H
        EXTERN ??zcl_registerPlugin?relay
        FUNCTION ??zcl_registerPlugin?relay,00H
        EXTERN StubAPS_InterPan
        FUNCTION StubAPS_InterPan,0202H
        ARGFRAME ISTACK, 0, STACK
        ARGFRAME PSTACK, 0, STACK
        ARGFRAME XSTACK, 14, STACK
        ARGFRAME IOVERLAY, 0, STATIC
        ARGFRAME DOVERLAY, 0, STATIC
        EXTERN osal_buffer_uint32
        FUNCTION osal_buffer_uint32,0202H
        ARGFRAME ISTACK, 0, STACK
        ARGFRAME PSTACK, 0, STACK
        ARGFRAME XSTACK, 28, STACK
        ARGFRAME IOVERLAY, 0, STATIC
        ARGFRAME DOVERLAY, 0, STATIC
        EXTERN osal_build_uint32
        FUNCTION osal_build_uint32,0202H
        ARGFRAME ISTACK, 0, STACK
        ARGFRAME PSTACK, 0, STACK
        ARGFRAME XSTACK, 41, STACK
        ARGFRAME IOVERLAY, 0, STATIC
        ARGFRAME DOVERLAY, 0, STATIC
        EXTERN osal_mem_alloc
        FUNCTION osal_mem_alloc,0202H
        ARGFRAME ISTACK, 0, STACK
        ARGFRAME PSTACK, 0, STACK
        ARGFRAME XSTACK, 41, STACK
        ARGFRAME IOVERLAY, 0, STATIC
        ARGFRAME DOVERLAY, 0, STATIC
        EXTERN osal_mem_free
        FUNCTION osal_mem_free,0202H
        ARGFRAME ISTACK, 0, STACK
        ARGFRAME PSTACK, 0, STACK
        ARGFRAME XSTACK, 41, STACK
        ARGFRAME IOVERLAY, 0, STATIC
        ARGFRAME DOVERLAY, 0, STATIC
        EXTERN osal_memcpy
        FUNCTION osal_memcpy,0202H
        ARGFRAME ISTACK, 0, STACK
        ARGFRAME PSTACK, 0, STACK
        ARGFRAME XSTACK, 21, STACK
        ARGFRAME IOVERLAY, 0, STATIC
        ARGFRAME DOVERLAY, 0, STATIC
        EXTERN osal_memset
        FUNCTION osal_memset,0202H
        ARGFRAME ISTACK, 0, STACK
        ARGFRAME PSTACK, 0, STACK
        ARGFRAME XSTACK, 14, STACK
        ARGFRAME IOVERLAY, 0, STATIC
        ARGFRAME DOVERLAY, 0, STATIC
        EXTERN sAddrExtCpy
        FUNCTION sAddrExtCpy,0202H
        ARGFRAME ISTACK, 0, STACK
        ARGFRAME PSTACK, 0, STACK
        ARGFRAME XSTACK, 24, STACK
        ARGFRAME IOVERLAY, 0, STATIC
        ARGFRAME DOVERLAY, 0, STATIC
        EXTERN zcl_SendCommand
        FUNCTION zcl_SendCommand,0202H
        ARGFRAME ISTACK, 0, STACK
        ARGFRAME PSTACK, 0, STACK
        ARGFRAME XSTACK, 35, STACK
        ARGFRAME IOVERLAY, 0, STATIC
        ARGFRAME DOVERLAY, 0, STATIC
        EXTERN zcl_registerPlugin
        FUNCTION zcl_registerPlugin,0202H
        ARGFRAME ISTACK, 0, STACK
        ARGFRAME PSTACK, 0, STACK
        ARGFRAME XSTACK, 14, STACK
        ARGFRAME IOVERLAY, 0, STATIC
        ARGFRAME DOVERLAY, 0, STATIC

// D:\Texas Instruments\Z-Stack Lighting 1.0.2\Components\stack\zcl\zcl_ll.c
//    1 /**************************************************************************************************
//    2   Filename:       zcl_ll.c
//    3   Revised:        $Date: 2013-09-10 17:57:03 -0700 (Tue, 10 Sep 2013) $
//    4   Revision:       $Revision: 35271 $
//    5 
//    6   Description:    Zigbee Cluster Library - Light Link commissioning cluster.
//    7 
//    8 
//    9   Copyright 2011-2013 Texas Instruments Incorporated. All rights reserved.
//   10 
//   11   IMPORTANT: Your use of this Software is limited to those specific rights
//   12   granted under the terms of a software license agreement between the user
//   13   who downloaded the software, his/her employer (which must be your employer)
//   14   and Texas Instruments Incorporated (the "License").  You may not use this
//   15   Software unless you agree to abide by the terms of the License. The License
//   16   limits your use, and you acknowledge, that the Software may not be modified,
//   17   copied or distributed unless embedded on a Texas Instruments microcontroller
//   18   or used solely and exclusively in conjunction with a Texas Instruments radio
//   19   frequency transceiver, which is integrated into your product.  Other than for
//   20   the foregoing purpose, you may not use, reproduce, copy, prepare derivative
//   21   works of, modify, distribute, perform, display or sell this Software and/or
//   22   its documentation for any purpose.
//   23 
//   24   YOU FURTHER ACKNOWLEDGE AND AGREE THAT THE SOFTWARE AND DOCUMENTATION ARE
//   25   PROVIDED “AS IS” WITHOUT WARRANTY OF ANY KIND, EITHER EXPRESS OR IMPLIED,
//   26   INCLUDING WITHOUT LIMITATION, ANY WARRANTY OF MERCHANTABILITY, TITLE,
//   27   NON-INFRINGEMENT AND FITNESS FOR A PARTICULAR PURPOSE. IN NO EVENT SHALL
//   28   TEXAS INSTRUMENTS OR ITS LICENSORS BE LIABLE OR OBLIGATED UNDER CONTRACT,
//   29   NEGLIGENCE, STRICT LIABILITY, CONTRIBUTION, BREACH OF WARRANTY, OR OTHER
//   30   LEGAL EQUITABLE THEORY ANY DIRECT OR INDIRECT DAMAGES OR EXPENSES
//   31   INCLUDING BUT NOT LIMITED TO ANY INCIDENTAL, SPECIAL, INDIRECT, PUNITIVE
//   32   OR CONSEQUENTIAL DAMAGES, LOST PROFITS OR LOST DATA, COST OF PROCUREMENT
//   33   OF SUBSTITUTE GOODS, TECHNOLOGY, SERVICES, OR ANY CLAIMS BY THIRD PARTIES
//   34   (INCLUDING BUT NOT LIMITED TO ANY DEFENSE THEREOF), OR OTHER SIMILAR COSTS.
//   35 
//   36   Should you have any questions regarding your right to use this Software,
//   37   contact Texas Instruments Incorporated at www.TI.com.
//   38 **************************************************************************************************/
//   39 
//   40 
//   41 /*********************************************************************
//   42  * INCLUDES
//   43  */
//   44 #include "zcl.h"
//   45 #include "zcl_general.h"
//   46 #include "zcl_ll.h"
//   47 
//   48 #if defined ( INTER_PAN )
//   49   #include "stub_aps.h"
//   50 #endif
//   51 
//   52 #include "hal_uart.h"

        ASEGN SFR_AN:DATA:NOROOT,080H
// union <unnamed> volatile __sfr _A_P0
_A_P0:
        DATA8
        DS 1

        ASEGN SFR_AN:DATA:NOROOT,0fdH
// unsigned char volatile __sfr P0DIR
P0DIR:
        DATA8
        DS 1
//   53 #include "MT_UART.h"
//   54 
//   55 /*********************************************************************
//   56  * MACROS
//   57  */
//   58 
//   59 /*********************************************************************
//   60  * CONSTANTS
//   61  */
//   62 
//   63 /*********************************************************************
//   64  * TYPEDEFS
//   65  */
//   66 
//   67 typedef struct zclLLCBRec
//   68 {
//   69   struct zclLLCBRec     *next;
//   70   uint8 endpoint;               // Used to link it into the endpoint descriptor
//   71   zclLL_AppCallbacks_t  *CBs;   // Pointer to Callback function
//   72 } zclLLCBRec_t;
//   73 
//   74 /*********************************************************************
//   75  * GLOBAL VARIABLES
//   76  */
//   77 
//   78 /*********************************************************************
//   79  * GLOBAL FUNCTIONS
//   80  */
//   81 
//   82 /*********************************************************************
//   83  * LOCAL VARIABLES
//   84  */

        RSEG XDATA_Z:XDATA:NOROOT(0)
        DATA16
//   85 static zclLLCBRec_t *zclLLCBs = (zclLLCBRec_t *)NULL;
zclLLCBs:
        DS 2
        REQUIRE __INIT_XDATA_Z

        RSEG XDATA_Z:XDATA:NOROOT(0)
        DATA8
//   86 static uint8 zclLLPluginRegisted = FALSE;
zclLLPluginRegisted:
        DS 1
        REQUIRE __INIT_XDATA_Z
//   87 

        RSEG XDATA_Z:XDATA:NOROOT(0)
        DATA16
//   88 static zclLL_InterPANCallbacks_t *pInterPANCBs = (zclLL_InterPANCallbacks_t *)NULL;
pInterPANCBs:
        DS 2
        REQUIRE __INIT_XDATA_Z
//   89 

        RSEG XDATA_Z:XDATA:NOROOT(0)
        DATA8
//   90 static uint8 flag;
flag:
        DS 1
        REQUIRE __INIT_XDATA_Z
//   91 
//   92 /*********************************************************************
//   93  * LOCAL FUNCTIONS
//   94  */
//   95 static zclLL_AppCallbacks_t *zclLL_FindCallbacks( uint8 endpoint );
//   96 static ZStatus_t zclLL_HdlIncoming( zclIncoming_t *pInMsg );
//   97 static ZStatus_t zclLL_HdlInSpecificCommands( zclIncoming_t *pInMsg );
//   98 static ZStatus_t zclLL_HdlInManuSpecificCommands( zclIncoming_t *pInMsg );//add my own function
//   99 static ZStatus_t zclLL_ProcessInLLCmds( zclIncoming_t *pInMsg, zclLL_AppCallbacks_t *pCBs );
//  100 static ZStatus_t zclLL_ProcessInManuLLCmds( zclIncoming_t *pInMsg, zclLL_AppCallbacks_t *pCBs );//add my own function
//  101 
//  102 static ZStatus_t zclLL_ProcessInCmd_GetGrpIDsReq( zclIncoming_t *pInMsg, zclLL_AppCallbacks_t *pCBs );
//  103 static ZStatus_t zclLL_ProcessInCmd_GetEPListReq( zclIncoming_t *pInMsg, zclLL_AppCallbacks_t *pCBs );
//  104 
//  105 static ZStatus_t zclLL_ProcessInCmd_EndpointInfo( zclIncoming_t *pInMsg, zclLL_AppCallbacks_t *pCBs );
//  106 static ZStatus_t zclLL_ProcessInCmd_GetGrpIDsRsp( zclIncoming_t *pInMsg, zclLL_AppCallbacks_t *pCBs );
//  107 static ZStatus_t zclLL_ProcessInCmd_GetEPListRsp( zclIncoming_t *pInMsg, zclLL_AppCallbacks_t *pCBs );
//  108 
//  109 static ZStatus_t zclLL_HdlInInterPANCommands( zclIncoming_t *pInMsg );
//  110 static ZStatus_t zclLL_ProcessInLLInterPANCmds( zclIncoming_t *pInMsg );
//  111 
//  112 static void zclLL_ParseInCmd_NwkJoinReq( uint8 *pBuf, zclLLNwkJoinReq_t *pReq );
//  113 
//  114 static ZStatus_t zclLL_ProcessInCmd_ScanReq( zclIncoming_t *pInMsg );
//  115 static ZStatus_t zclLL_ProcessInCmd_DeviceInfoReq( zclIncoming_t *pInMsg );
//  116 static ZStatus_t zclLL_ProcessInCmd_IdentifyReq( zclIncoming_t *pInMsg );
//  117 static ZStatus_t zclLL_ProcessInCmd_ResetToFNReq( zclIncoming_t *pInMsg );
//  118 static ZStatus_t zclLL_ProcessInCmd_NwkStartReq( zclIncoming_t *pInMsg );
//  119 static ZStatus_t zclLL_ProcessInCmd_NwkJoinRtrReq( zclIncoming_t *pInMsg );
//  120 static ZStatus_t zclLL_ProcessInCmd_NwkJoinEDReq( zclIncoming_t *pInMsg );
//  121 static ZStatus_t zclLL_ProcessInCmd_NwkUpdateReq( zclIncoming_t *pInMsg );
//  122 
//  123 static ZStatus_t zclLL_ProcessInCmd_ScanRsp( zclIncoming_t *pInMsg );
//  124 static ZStatus_t zclLL_ProcessInCmd_DeviceInfoRsp( zclIncoming_t *pInMsg );
//  125 static ZStatus_t zclLL_ProcessInCmd_NwkStartRsp( zclIncoming_t *pInMsg );
//  126 static ZStatus_t zclLL_ProcessInCmd_NwkJoinRtrRsp( zclIncoming_t *pInMsg );
//  127 static ZStatus_t zclLL_ProcessInCmd_NwkJoinEDRsp( zclIncoming_t *pInMsg );
//  128 
//  129 
//  130 /*********************************************************************
//  131  * @fn      zclLL_RegisterCmdCallbacks
//  132  *
//  133  * @brief   Register an applications command callbacks
//  134  *
//  135  * @param   endpoint - application's endpoint
//  136  * @param   callbacks - pointer to the callback record.
//  137  *
//  138  * @return  ZMemError if not able to allocate
//  139  */

        RSEG BANKED_CODE:CODE:NOROOT(0)
//  140 ZStatus_t zclLL_RegisterCmdCallbacks( uint8 endpoint, zclLL_AppCallbacks_t *callbacks )
zclLL_RegisterCmdCallbacks:
          CFI Block cfiBlock0 Using cfiCommon0
          CFI Function zclLL_RegisterCmdCallbacks
        CODE
//  141 {
        FUNCALL zclLL_RegisterCmdCallbacks, zcl_registerPlugin
        LOCFRAME ISTACK, 0, STACK
        LOCFRAME PSTACK, 0, STACK
        LOCFRAME XSTACK, 14, STACK
        LOCFRAME IOVERLAY, 0, STATIC
        LOCFRAME DOVERLAY, 0, STATIC
        ARGFRAME ISTACK, 0, STACK
        ARGFRAME PSTACK, 0, STACK
        ARGFRAME XSTACK, 14, STACK
        ARGFRAME IOVERLAY, 0, STATIC
        ARGFRAME DOVERLAY, 0, STATIC
        FUNCALL zclLL_RegisterCmdCallbacks, osal_mem_alloc
        LOCFRAME ISTACK, 0, STACK
        LOCFRAME PSTACK, 0, STACK
        LOCFRAME XSTACK, 12, STACK
        LOCFRAME IOVERLAY, 0, STATIC
        LOCFRAME DOVERLAY, 0, STATIC
        ARGFRAME ISTACK, 0, STACK
        ARGFRAME PSTACK, 0, STACK
        ARGFRAME XSTACK, 12, STACK
        ARGFRAME IOVERLAY, 0, STATIC
        ARGFRAME DOVERLAY, 0, STATIC
        MOV     A,#-0xc
        LCALL   ?BANKED_ENTER_XDATA
          CFI DPH0 load(1, XDATA, add(CFA_XSP16, literal(-1)))
          CFI DPL0 load(1, XDATA, add(CFA_XSP16, literal(-2)))
          CFI ?BRET_EXT load(1, XDATA, add(CFA_XSP16, literal(-3)))
          CFI ?RET_HIGH load(1, XDATA, add(CFA_XSP16, literal(-4)))
          CFI ?RET_LOW load(1, XDATA, add(CFA_XSP16, literal(-5)))
          CFI R7 load(1, XDATA, add(CFA_XSP16, literal(-6)))
          CFI V3 load(1, XDATA, add(CFA_XSP16, literal(-7)))
          CFI V2 load(1, XDATA, add(CFA_XSP16, literal(-8)))
          CFI V1 load(1, XDATA, add(CFA_XSP16, literal(-9)))
          CFI V0 load(1, XDATA, add(CFA_XSP16, literal(-10)))
          CFI VB load(1, XDATA, add(CFA_XSP16, literal(-11)))
          CFI R6 load(1, XDATA, add(CFA_XSP16, literal(-12)))
          CFI CFA_SP SP+0
          CFI CFA_XSP16 add(XSP16, 12)
        ; Saved register size: 12
        ; Auto size: 0
        MOV     ?V0 + 0,R1
        MOV     A,R2
        MOV     R6,A
        MOV     A,R3
        MOV     R7,A
//  142   zclLLCBRec_t *pNewItem;
//  143   zclLLCBRec_t *pLoop;
//  144 
//  145   // Register as a ZCL Plugin
//  146   if ( !zclLLPluginRegisted )
        MOV     DPTR,#zclLLPluginRegisted
        MOVX    A,@DPTR
        JNZ     ??zclLL_RegisterCmdCallbacks_0
//  147   {
//  148     zcl_registerPlugin( ZCL_CLUSTER_ID_LIGHT_LINK,
//  149                         ZCL_CLUSTER_ID_LIGHT_LINK,
//  150                         zclLL_HdlIncoming );
        ; Setup parameters for call to function zcl_registerPlugin
        MOV     ?V0 + 2,#??zclLL_HdlIncoming?relay & 0xff
        MOV     ?V0 + 3,#(??zclLL_HdlIncoming?relay >> 8) & 0xff
        MOV     R0,#?V0 + 2
        LCALL   ?PUSH_XSTACK_I_TWO
          CFI CFA_XSP16 add(XSP16, 14)
        MOV     R4,#0x0
        MOV     R5,#0x10
        MOV     R2,#0x0
        MOV     R3,#0x10
        LCALL   ??zcl_registerPlugin?relay
        MOV     A,#0x2
        LCALL   ?DEALLOC_XSTACK8
          CFI CFA_XSP16 add(XSP16, 12)
//  151     zclLLPluginRegisted = TRUE;
        MOV     DPTR,#zclLLPluginRegisted
        MOV     A,#0x1
        MOVX    @DPTR,A
//  152   }
//  153 
//  154   // Fill in the new profile list
//  155   pNewItem = zcl_mem_alloc( sizeof( zclLLCBRec_t ) );
??zclLL_RegisterCmdCallbacks_0:
        ; Setup parameters for call to function osal_mem_alloc
        MOV     R2,#0x5
        MOV     R3,#0x0
        LCALL   ??osal_mem_alloc?relay
        MOV     ?V0 + 2,R2
        MOV     ?V0 + 3,R3
        MOV     R0,?V0 + 2
        MOV     R1,?V0 + 3
//  156   if ( pNewItem == NULL )
        MOV     A,R0
        ORL     A,R1
        JNZ     ??zclLL_RegisterCmdCallbacks_1
//  157     return (ZMemError);
        MOV     R1,#0x10
        SJMP    ??zclLL_RegisterCmdCallbacks_2
//  158 
//  159   pNewItem->next = (zclLLCBRec_t *)NULL;
??zclLL_RegisterCmdCallbacks_1:
        MOV     DPL,R0
        MOV     DPH,R1
        CLR     A
        MOVX    @DPTR,A
        LCALL   ?Subroutine66 & 0xFFFF
//  160   pNewItem->endpoint = endpoint;
??CrossCallReturnLabel_183:
        INC     DPTR
        MOV     A,?V0 + 0
        LCALL   ??Subroutine125_0 & 0xFFFF
//  161   pNewItem->CBs = callbacks;
??CrossCallReturnLabel_184:
        INC     DPTR
        INC     DPTR
        MOV     A,R6
        MOVX    @DPTR,A
        INC     DPTR
        MOV     A,R7
        MOVX    @DPTR,A
//  162 
//  163   // Find spot in list
//  164   if ( zclLLCBs == NULL )
        MOV     DPTR,#zclLLCBs
        LCALL   ?Subroutine42 & 0xFFFF
??CrossCallReturnLabel_61:
        MOV     DPTR,#zclLLCBs
        JZ      ??zclLL_RegisterCmdCallbacks_3
//  165   {
//  166     zclLLCBs = pNewItem;
//  167   }
//  168   else
//  169   {
//  170     // Look for end of list
//  171     pLoop = zclLLCBs;
        MOVX    A,@DPTR
        MOV     R4,A
        INC     DPTR
        MOVX    A,@DPTR
        SJMP    ??zclLL_RegisterCmdCallbacks_4
//  172     while ( pLoop->next != NULL )
//  173       pLoop = pLoop->next;
??zclLL_RegisterCmdCallbacks_5:
        MOV     A,R2
        MOV     R4,A
        MOV     A,R3
??zclLL_RegisterCmdCallbacks_4:
        MOV     R5,A
        MOV     DPL,R4
        MOV     DPH,R5
        LCALL   ?Subroutine42 & 0xFFFF
??CrossCallReturnLabel_62:
        JNZ     ??zclLL_RegisterCmdCallbacks_5
//  174 
//  175     // Put new item at end of list
//  176     pLoop->next = pNewItem;
        MOV     DPL,R4
        MOV     DPH,R5
//  177   }
??zclLL_RegisterCmdCallbacks_3:
        LCALL   ??Subroutine148_0 & 0xFFFF
//  178 
//  179   return ( ZSuccess );
??CrossCallReturnLabel_309:
        MOV     R1,#0x0
??zclLL_RegisterCmdCallbacks_2:
        LJMP    ??Subroutine124_0 & 0xFFFF
          CFI EndBlock cfiBlock0
//  180 }
//  181 
//  182 /*********************************************************************
//  183  * @fn      zclLL_RegisterInterPANCmdCallbacks
//  184  *
//  185  * @brief   Register an applications Inter-PAN command callbacks
//  186  *
//  187  * @param   callbacks - pointer to the callback record.
//  188  *
//  189  * @return  ZSuccess
//  190  */

        RSEG BANKED_CODE:CODE:NOROOT(0)
//  191 ZStatus_t zclLL_RegisterInterPANCmdCallbacks( zclLL_InterPANCallbacks_t *callbacks )
zclLL_RegisterInterPANCmdCallbacks:
          CFI Block cfiBlock1 Using cfiCommon0
          CFI Function zclLL_RegisterInterPANCmdCallbacks
        CODE
//  192 {
        FUNCALL zclLL_RegisterInterPANCmdCallbacks, zcl_registerPlugin
        LOCFRAME ISTACK, 0, STACK
        LOCFRAME PSTACK, 0, STACK
        LOCFRAME XSTACK, 12, STACK
        LOCFRAME IOVERLAY, 0, STATIC
        LOCFRAME DOVERLAY, 0, STATIC
        ARGFRAME ISTACK, 0, STACK
        ARGFRAME PSTACK, 0, STACK
        ARGFRAME XSTACK, 12, STACK
        ARGFRAME IOVERLAY, 0, STATIC
        ARGFRAME DOVERLAY, 0, STATIC
        MOV     A,#-0xa
        LCALL   ?BANKED_ENTER_XDATA
          CFI DPH0 load(1, XDATA, add(CFA_XSP16, literal(-1)))
          CFI DPL0 load(1, XDATA, add(CFA_XSP16, literal(-2)))
          CFI ?BRET_EXT load(1, XDATA, add(CFA_XSP16, literal(-3)))
          CFI ?RET_HIGH load(1, XDATA, add(CFA_XSP16, literal(-4)))
          CFI ?RET_LOW load(1, XDATA, add(CFA_XSP16, literal(-5)))
          CFI R7 load(1, XDATA, add(CFA_XSP16, literal(-6)))
          CFI V1 load(1, XDATA, add(CFA_XSP16, literal(-7)))
          CFI V0 load(1, XDATA, add(CFA_XSP16, literal(-8)))
          CFI VB load(1, XDATA, add(CFA_XSP16, literal(-9)))
          CFI R6 load(1, XDATA, add(CFA_XSP16, literal(-10)))
          CFI CFA_SP SP+0
          CFI CFA_XSP16 add(XSP16, 10)
        ; Saved register size: 10
        ; Auto size: 0
        MOV     A,R2
        MOV     R6,A
        MOV     A,R3
        MOV     R7,A
//  193   // Register as a ZCL Plugin
//  194   if ( !zclLLPluginRegisted )
        MOV     DPTR,#zclLLPluginRegisted
        MOVX    A,@DPTR
        JNZ     ??zclLL_RegisterInterPANCmdCallbacks_0
//  195   {
//  196     zcl_registerPlugin( ZCL_CLUSTER_ID_LIGHT_LINK,
//  197                         ZCL_CLUSTER_ID_LIGHT_LINK,
//  198                         zclLL_HdlIncoming );
        ; Setup parameters for call to function zcl_registerPlugin
        MOV     ?V0 + 0,#??zclLL_HdlIncoming?relay & 0xff
        MOV     ?V0 + 1,#(??zclLL_HdlIncoming?relay >> 8) & 0xff
        MOV     R0,#?V0 + 0
        LCALL   ?PUSH_XSTACK_I_TWO
          CFI CFA_XSP16 add(XSP16, 12)
        MOV     R4,#0x0
        MOV     R5,#0x10
        MOV     R2,#0x0
        MOV     R3,#0x10
        LCALL   ??zcl_registerPlugin?relay
        MOV     A,#0x2
        LCALL   ?DEALLOC_XSTACK8
          CFI CFA_XSP16 add(XSP16, 10)
//  199     zclLLPluginRegisted = TRUE;
        MOV     DPTR,#zclLLPluginRegisted
        MOV     A,#0x1
        MOVX    @DPTR,A
//  200   }
//  201   pInterPANCBs = callbacks;
??zclLL_RegisterInterPANCmdCallbacks_0:
        MOV     DPTR,#pInterPANCBs
        MOV     A,R6
        MOVX    @DPTR,A
        INC     DPTR
        MOV     A,R7
        MOVX    @DPTR,A
//  202 
//  203   return ( ZSuccess );
        MOV     R1,#0x0
        MOV     R7,#0x2
        LJMP    ?BANKED_LEAVE_XDATA
          CFI EndBlock cfiBlock1
//  204 }
//  205 
//  206 /*********************************************************************
//  207  * @fn      zclLL_Send_ScanReq
//  208  *
//  209  * @brief   Call to send out an Scan Request command
//  210  *
//  211  * @param   srcEP - sending application's endpoint
//  212  * @param   dstAddr - where you want the message to go
//  213  * @param   pReq - request parameters
//  214  * @param   seqNum - sequence number
//  215  *
//  216  * @return  ZStatus_t
//  217  */

        RSEG BANKED_CODE:CODE:NOROOT(0)
//  218 ZStatus_t zclLL_Send_ScanReq( uint8 srcEP, afAddrType_t *dstAddr,
zclLL_Send_ScanReq:
          CFI Block cfiBlock2 Using cfiCommon0
          CFI Function zclLL_Send_ScanReq
        CODE
//  219                               zclLLScanReq_t *pReq, uint8 seqNum )
//  220 {
        FUNCALL zclLL_Send_ScanReq, osal_buffer_uint32
        LOCFRAME ISTACK, 0, STACK
        LOCFRAME PSTACK, 0, STACK
        LOCFRAME XSTACK, 22, STACK
        LOCFRAME IOVERLAY, 0, STATIC
        LOCFRAME DOVERLAY, 0, STATIC
        ARGFRAME ISTACK, 0, STACK
        ARGFRAME PSTACK, 0, STACK
        ARGFRAME XSTACK, 22, STACK
        ARGFRAME IOVERLAY, 0, STATIC
        ARGFRAME DOVERLAY, 0, STATIC
        FUNCALL zclLL_Send_ScanReq, zclLL_SendInterPANCommand
        LOCFRAME ISTACK, 0, STACK
        LOCFRAME PSTACK, 0, STACK
        LOCFRAME XSTACK, 23, STACK
        LOCFRAME IOVERLAY, 0, STATIC
        LOCFRAME DOVERLAY, 0, STATIC
        ARGFRAME ISTACK, 0, STACK
        ARGFRAME PSTACK, 0, STACK
        ARGFRAME XSTACK, 23, STACK
        ARGFRAME IOVERLAY, 0, STATIC
        ARGFRAME DOVERLAY, 0, STATIC
        MOV     A,#-0xc
        LCALL   ?BANKED_ENTER_XDATA
          CFI DPH0 load(1, XDATA, add(CFA_XSP16, literal(-1)))
          CFI DPL0 load(1, XDATA, add(CFA_XSP16, literal(-2)))
          CFI ?BRET_EXT load(1, XDATA, add(CFA_XSP16, literal(-3)))
          CFI ?RET_HIGH load(1, XDATA, add(CFA_XSP16, literal(-4)))
          CFI ?RET_LOW load(1, XDATA, add(CFA_XSP16, literal(-5)))
          CFI R7 load(1, XDATA, add(CFA_XSP16, literal(-6)))
          CFI V3 load(1, XDATA, add(CFA_XSP16, literal(-7)))
          CFI V2 load(1, XDATA, add(CFA_XSP16, literal(-8)))
          CFI V1 load(1, XDATA, add(CFA_XSP16, literal(-9)))
          CFI V0 load(1, XDATA, add(CFA_XSP16, literal(-10)))
          CFI VB load(1, XDATA, add(CFA_XSP16, literal(-11)))
          CFI R6 load(1, XDATA, add(CFA_XSP16, literal(-12)))
          CFI CFA_SP SP+0
          CFI CFA_XSP16 add(XSP16, 12)
        ; Saved register size: 12
        ; Auto size: 6
        MOV     A,#-0x6
        LCALL   ?ALLOC_XSTACK8
          CFI CFA_XSP16 add(XSP16, 18)
        MOV     ?V0 + 2,R1
        MOV     A,R2
        MOV     R6,A
        MOV     A,R3
        MOV     R7,A
        MOV     ?V0 + 0,R4
        MOV     ?V0 + 1,R5
        MOV     A,#0x12
        LCALL   ?XSTACK_DISP0_8
        LCALL   ?Subroutine31 & 0xFFFF
//  221   uint8 buf[ZLL_CMDLEN_SCAN_REQ];
//  222 
//  223   VOID zcl_buffer_uint32( buf, pReq->transID );
??CrossCallReturnLabel_39:
        LCALL   ?PUSH_XSTACK8_X_FOUR
          CFI CFA_XSP16 add(XSP16, 22)
        MOV     A,#0x4
        LCALL   ?XSTACK_DISP0_8
        MOV     R2,DPL
        MOV     R3,DPH
        LCALL   ??osal_buffer_uint32?relay
        MOV     A,#0x4
        LCALL   ?DEALLOC_XSTACK8
          CFI CFA_XSP16 add(XSP16, 18)
//  224 
//  225   buf[4] = pReq->zInfo.zInfoByte;
        MOV     DPL,?V0 + 0
        MOV     DPH,?V0 + 1
        INC     DPTR
        INC     DPTR
        INC     DPTR
        INC     DPTR
        MOVX    A,@DPTR
        PUSH    A
          CFI CFA_SP SP+-1
        MOV     A,#0x4
        LCALL   ?XSTACK_DISP0_8
        POP     A
          CFI CFA_SP SP+0
        MOVX    @DPTR,A
//  226   buf[5] = pReq->zllInfo.zllInfoByte;
        MOV     DPL,?V0 + 0
        MOV     DPH,?V0 + 1
        INC     DPTR
        INC     DPTR
        INC     DPTR
        INC     DPTR
        INC     DPTR
        INC     DPTR
        MOVX    A,@DPTR
        PUSH    A
          CFI CFA_SP SP+-1
        MOV     A,#0x5
        LCALL   ?XSTACK_DISP0_8
        POP     A
          CFI CFA_SP SP+0
        LCALL   ?Subroutine52 & 0xFFFF
//  227 
//  228   return zclLL_SendInterPANCommand( srcEP, dstAddr, COMMAND_ZLL_SCAN_REQ,
//  229                                     ZCL_FRAME_CLIENT_SERVER_DIR, seqNum, ZLL_CMDLEN_SCAN_REQ, buf );
??CrossCallReturnLabel_78:
        LCALL   ?PUSH_XSTACK_I_TWO
          CFI CFA_XSP16 add(XSP16, 20)
        MOV     ?V0 + 0,#0x6
        MOV     ?V0 + 1,#0x0
        MOV     R0,#?V0 + 0
        LCALL   ?PUSH_XSTACK_I_TWO
          CFI CFA_XSP16 add(XSP16, 22)
        MOV     A,?V0 + 3
        MOV     ?V0 + 0,A
        MOV     R0,#?V0 + 0
        LCALL   ?PUSH_XSTACK_I_ONE
          CFI CFA_XSP16 add(XSP16, 23)
        MOV     R5,#0x0
        MOV     R4,#0x0
        SJMP    ?Subroutine0
          CFI EndBlock cfiBlock2
//  230 }
//  231 
//  232 /*********************************************************************
//  233  * @fn      zclLL_Send_DeviceInfoReq
//  234  *
//  235  * @brief   Call to send out a Device Information Request command
//  236  *
//  237  * @param   srcEP - sending application's endpoint
//  238  * @param   dstAddr - where you want the message to go
//  239  * @param   pReq - request parameters
//  240  * @param   seqNum - sequence number
//  241  *
//  242  * @return  ZStatus_t
//  243  */

        RSEG BANKED_CODE:CODE:NOROOT(0)
//  244 ZStatus_t zclLL_Send_DeviceInfoReq( uint8 srcEP, afAddrType_t *dstAddr,
zclLL_Send_DeviceInfoReq:
          CFI Block cfiBlock3 Using cfiCommon0
          CFI Function zclLL_Send_DeviceInfoReq
        CODE
//  245                                     zclLLDeviceInfoReq_t *pReq, uint8 seqNum )
//  246 {
        FUNCALL zclLL_Send_DeviceInfoReq, osal_buffer_uint32
        LOCFRAME ISTACK, 0, STACK
        LOCFRAME PSTACK, 0, STACK
        LOCFRAME XSTACK, 21, STACK
        LOCFRAME IOVERLAY, 0, STATIC
        LOCFRAME DOVERLAY, 0, STATIC
        ARGFRAME ISTACK, 0, STACK
        ARGFRAME PSTACK, 0, STACK
        ARGFRAME XSTACK, 21, STACK
        ARGFRAME IOVERLAY, 0, STATIC
        ARGFRAME DOVERLAY, 0, STATIC
        FUNCALL zclLL_Send_DeviceInfoReq, zclLL_SendInterPANCommand
        LOCFRAME ISTACK, 0, STACK
        LOCFRAME PSTACK, 0, STACK
        LOCFRAME XSTACK, 22, STACK
        LOCFRAME IOVERLAY, 0, STATIC
        LOCFRAME DOVERLAY, 0, STATIC
        ARGFRAME ISTACK, 0, STACK
        ARGFRAME PSTACK, 0, STACK
        ARGFRAME XSTACK, 22, STACK
        ARGFRAME IOVERLAY, 0, STATIC
        ARGFRAME DOVERLAY, 0, STATIC
        MOV     A,#-0xc
        LCALL   ?BANKED_ENTER_XDATA
          CFI DPH0 load(1, XDATA, add(CFA_XSP16, literal(-1)))
          CFI DPL0 load(1, XDATA, add(CFA_XSP16, literal(-2)))
          CFI ?BRET_EXT load(1, XDATA, add(CFA_XSP16, literal(-3)))
          CFI ?RET_HIGH load(1, XDATA, add(CFA_XSP16, literal(-4)))
          CFI ?RET_LOW load(1, XDATA, add(CFA_XSP16, literal(-5)))
          CFI R7 load(1, XDATA, add(CFA_XSP16, literal(-6)))
          CFI V3 load(1, XDATA, add(CFA_XSP16, literal(-7)))
          CFI V2 load(1, XDATA, add(CFA_XSP16, literal(-8)))
          CFI V1 load(1, XDATA, add(CFA_XSP16, literal(-9)))
          CFI V0 load(1, XDATA, add(CFA_XSP16, literal(-10)))
          CFI VB load(1, XDATA, add(CFA_XSP16, literal(-11)))
          CFI R6 load(1, XDATA, add(CFA_XSP16, literal(-12)))
          CFI CFA_SP SP+0
          CFI CFA_XSP16 add(XSP16, 12)
        ; Saved register size: 12
        ; Auto size: 5
        MOV     A,#-0x5
        LCALL   ?ALLOC_XSTACK8
          CFI CFA_XSP16 add(XSP16, 17)
        MOV     ?V0 + 2,R1
        MOV     A,R2
        MOV     R6,A
        MOV     A,R3
        MOV     R7,A
        MOV     ?V0 + 0,R4
        MOV     ?V0 + 1,R5
        MOV     A,#0x11
        LCALL   ?XSTACK_DISP0_8
        LCALL   ?Subroutine31 & 0xFFFF
//  247   uint8 buf[ZLL_CMDLEN_DEVICE_INFO_REQ];
//  248 
//  249   VOID zcl_buffer_uint32( buf, pReq->transID );
??CrossCallReturnLabel_40:
        LCALL   ?PUSH_XSTACK8_X_FOUR
          CFI CFA_XSP16 add(XSP16, 21)
        MOV     A,#0x4
        LCALL   ?XSTACK_DISP0_8
        MOV     R2,DPL
        MOV     R3,DPH
        LCALL   ??osal_buffer_uint32?relay
        MOV     A,#0x4
        LCALL   ?DEALLOC_XSTACK8
          CFI CFA_XSP16 add(XSP16, 17)
//  250 
//  251   buf[4] = pReq->startIndex;
        MOV     DPL,?V0 + 0
        MOV     DPH,?V0 + 1
        INC     DPTR
        INC     DPTR
        INC     DPTR
        INC     DPTR
        MOVX    A,@DPTR
        PUSH    A
          CFI CFA_SP SP+-1
        MOV     A,#0x4
        LCALL   ?XSTACK_DISP0_8
        POP     A
          CFI CFA_SP SP+0
        LCALL   ?Subroutine52 & 0xFFFF
//  252 
//  253   return zclLL_SendInterPANCommand( srcEP, dstAddr, COMMAND_ZLL_DEVICE_INFO_REQ,
//  254                                     ZCL_FRAME_CLIENT_SERVER_DIR, seqNum, ZLL_CMDLEN_DEVICE_INFO_REQ, buf );
??CrossCallReturnLabel_79:
        LCALL   ?PUSH_XSTACK_I_TWO
          CFI CFA_XSP16 add(XSP16, 19)
        MOV     ?V0 + 0,#0x5
        MOV     ?V0 + 1,#0x0
        MOV     R0,#?V0 + 0
        LCALL   ?PUSH_XSTACK_I_TWO
          CFI CFA_XSP16 add(XSP16, 21)
        MOV     A,?V0 + 3
        MOV     ?V0 + 0,A
        MOV     R0,#?V0 + 0
        LCALL   ?PUSH_XSTACK_I_ONE
          CFI CFA_XSP16 add(XSP16, 22)
        MOV     R5,#0x0
        MOV     R4,#0x2
        MOV     A,R6
        MOV     R2,A
        MOV     A,R7
        MOV     R3,A
        MOV     R1,?V0 + 2
        LCALL   ??zclLL_SendInterPANCommand?relay
        MOV     A,#0x5
        LCALL   ?DEALLOC_XSTACK8
          CFI CFA_XSP16 add(XSP16, 17)
        MOV     A,#0x5
        SJMP    ??Subroutine123_0
          CFI EndBlock cfiBlock3
//  255 }

        RSEG BANKED_CODE:CODE:NOROOT(0)
?Subroutine0:
          CFI Block cfiBlock4 Using cfiCommon0
          CFI NoFunction
          CFI CFA_SP SP+0
          CFI CFA_XSP16 add(XSP16, 23)
          CFI VB load(1, XDATA, add(CFA_XSP16, literal(-11)))
          CFI DPL0 load(1, XDATA, add(CFA_XSP16, literal(-2)))
          CFI DPH0 load(1, XDATA, add(CFA_XSP16, literal(-1)))
          CFI R6 load(1, XDATA, add(CFA_XSP16, literal(-12)))
          CFI R7 load(1, XDATA, add(CFA_XSP16, literal(-6)))
          CFI V0 load(1, XDATA, add(CFA_XSP16, literal(-10)))
          CFI V1 load(1, XDATA, add(CFA_XSP16, literal(-9)))
          CFI V2 load(1, XDATA, add(CFA_XSP16, literal(-8)))
          CFI V3 load(1, XDATA, add(CFA_XSP16, literal(-7)))
          CFI ?BRET_EXT load(1, XDATA, add(CFA_XSP16, literal(-3)))
          CFI ?RET_HIGH load(1, XDATA, add(CFA_XSP16, literal(-4)))
          CFI ?RET_LOW load(1, XDATA, add(CFA_XSP16, literal(-5)))
        MOV     A,R6
        MOV     R2,A
        MOV     A,R7
        MOV     R3,A
        MOV     R1,?V0 + 2
        LCALL   ??zclLL_SendInterPANCommand?relay
        MOV     A,#0x5
        LCALL   ?DEALLOC_XSTACK8
          CFI CFA_XSP16 add(XSP16, 18)
        MOV     A,#0x6
          CFI EndBlock cfiBlock4
        REQUIRE ??Subroutine123_0
        ; // Fall through to label ??Subroutine123_0

        RSEG BANKED_CODE:CODE:NOROOT(0)
??Subroutine123_0:
          CFI Block cfiBlock5 Using cfiCommon0
          CFI NoFunction
          CFI CFA_SP SP+0
          CFI CFA_XSP16 add(XSP16, 17)
          CFI VB load(1, XDATA, add(CFA_XSP16, literal(-11)))
          CFI DPL0 load(1, XDATA, add(CFA_XSP16, literal(-2)))
          CFI DPH0 load(1, XDATA, add(CFA_XSP16, literal(-1)))
          CFI R6 load(1, XDATA, add(CFA_XSP16, literal(-12)))
          CFI R7 load(1, XDATA, add(CFA_XSP16, literal(-6)))
          CFI V0 load(1, XDATA, add(CFA_XSP16, literal(-10)))
          CFI V1 load(1, XDATA, add(CFA_XSP16, literal(-9)))
          CFI V2 load(1, XDATA, add(CFA_XSP16, literal(-8)))
          CFI V3 load(1, XDATA, add(CFA_XSP16, literal(-7)))
          CFI ?BRET_EXT load(1, XDATA, add(CFA_XSP16, literal(-3)))
          CFI ?RET_HIGH load(1, XDATA, add(CFA_XSP16, literal(-4)))
          CFI ?RET_LOW load(1, XDATA, add(CFA_XSP16, literal(-5)))
          CFI Invalid
        LCALL   ?DEALLOC_XSTACK8
          CFI EndBlock cfiBlock5
        REQUIRE ??Subroutine124_0
        ; // Fall through to label ??Subroutine124_0

        RSEG BANKED_CODE:CODE:NOROOT(0)
??Subroutine124_0:
          CFI Block cfiBlock6 Using cfiCommon0
          CFI NoFunction
          CFI CFA_SP SP+0
          CFI CFA_XSP16 add(XSP16, 12)
          CFI VB load(1, XDATA, add(CFA_XSP16, literal(-11)))
          CFI DPL0 load(1, XDATA, add(CFA_XSP16, literal(-2)))
          CFI DPH0 load(1, XDATA, add(CFA_XSP16, literal(-1)))
          CFI R6 load(1, XDATA, add(CFA_XSP16, literal(-12)))
          CFI R7 load(1, XDATA, add(CFA_XSP16, literal(-6)))
          CFI V0 load(1, XDATA, add(CFA_XSP16, literal(-10)))
          CFI V1 load(1, XDATA, add(CFA_XSP16, literal(-9)))
          CFI V2 load(1, XDATA, add(CFA_XSP16, literal(-8)))
          CFI V3 load(1, XDATA, add(CFA_XSP16, literal(-7)))
          CFI ?BRET_EXT load(1, XDATA, add(CFA_XSP16, literal(-3)))
          CFI ?RET_HIGH load(1, XDATA, add(CFA_XSP16, literal(-4)))
          CFI ?RET_LOW load(1, XDATA, add(CFA_XSP16, literal(-5)))
        MOV     R7,#0x4
        LJMP    ?BANKED_LEAVE_XDATA
          CFI EndBlock cfiBlock6
//  256 
//  257 /*********************************************************************
//  258  * @fn      zclLL_Send_IndentifyReq
//  259  *
//  260  * @brief   Call to send out a Identify Request command
//  261  *
//  262  * @param   srcEP - sending application's endpoint
//  263  * @param   dstAddr - where you want the message to go
//  264  * @param   pReq - request parameters
//  265  * @param   seqNum - sequence number
//  266  *
//  267  * @return  ZStatus_t
//  268  */

        RSEG BANKED_CODE:CODE:NOROOT(0)
//  269 ZStatus_t zclLL_Send_IndentifyReq( uint8 srcEP, afAddrType_t *dstAddr,
zclLL_Send_IndentifyReq:
          CFI Block cfiBlock7 Using cfiCommon0
          CFI Function zclLL_Send_IndentifyReq
        CODE
//  270                                    zclLLIdentifyReq_t *pReq, uint8 seqNum )
//  271 {
        FUNCALL zclLL_Send_IndentifyReq, osal_buffer_uint32
        LOCFRAME ISTACK, 0, STACK
        LOCFRAME PSTACK, 0, STACK
        LOCFRAME XSTACK, 22, STACK
        LOCFRAME IOVERLAY, 0, STATIC
        LOCFRAME DOVERLAY, 0, STATIC
        ARGFRAME ISTACK, 0, STACK
        ARGFRAME PSTACK, 0, STACK
        ARGFRAME XSTACK, 22, STACK
        ARGFRAME IOVERLAY, 0, STATIC
        ARGFRAME DOVERLAY, 0, STATIC
        FUNCALL zclLL_Send_IndentifyReq, zclLL_SendInterPANCommand
        LOCFRAME ISTACK, 0, STACK
        LOCFRAME PSTACK, 0, STACK
        LOCFRAME XSTACK, 23, STACK
        LOCFRAME IOVERLAY, 0, STATIC
        LOCFRAME DOVERLAY, 0, STATIC
        ARGFRAME ISTACK, 0, STACK
        ARGFRAME PSTACK, 0, STACK
        ARGFRAME XSTACK, 23, STACK
        ARGFRAME IOVERLAY, 0, STATIC
        ARGFRAME DOVERLAY, 0, STATIC
        MOV     A,#-0xc
        LCALL   ?BANKED_ENTER_XDATA
          CFI DPH0 load(1, XDATA, add(CFA_XSP16, literal(-1)))
          CFI DPL0 load(1, XDATA, add(CFA_XSP16, literal(-2)))
          CFI ?BRET_EXT load(1, XDATA, add(CFA_XSP16, literal(-3)))
          CFI ?RET_HIGH load(1, XDATA, add(CFA_XSP16, literal(-4)))
          CFI ?RET_LOW load(1, XDATA, add(CFA_XSP16, literal(-5)))
          CFI R7 load(1, XDATA, add(CFA_XSP16, literal(-6)))
          CFI V3 load(1, XDATA, add(CFA_XSP16, literal(-7)))
          CFI V2 load(1, XDATA, add(CFA_XSP16, literal(-8)))
          CFI V1 load(1, XDATA, add(CFA_XSP16, literal(-9)))
          CFI V0 load(1, XDATA, add(CFA_XSP16, literal(-10)))
          CFI VB load(1, XDATA, add(CFA_XSP16, literal(-11)))
          CFI R6 load(1, XDATA, add(CFA_XSP16, literal(-12)))
          CFI CFA_SP SP+0
          CFI CFA_XSP16 add(XSP16, 12)
        ; Saved register size: 12
        ; Auto size: 6
        MOV     A,#-0x6
        LCALL   ?ALLOC_XSTACK8
          CFI CFA_XSP16 add(XSP16, 18)
        MOV     ?V0 + 2,R1
        MOV     A,R2
        MOV     R6,A
        MOV     A,R3
        MOV     R7,A
        MOV     ?V0 + 0,R4
        MOV     ?V0 + 1,R5
        MOV     A,#0x12
        LCALL   ?XSTACK_DISP0_8
        LCALL   ?Subroutine31 & 0xFFFF
//  272   uint8 buf[ZLL_CMDLEN_IDENTIFY_REQ];
//  273 
//  274   VOID zcl_buffer_uint32( buf, pReq->transID );
??CrossCallReturnLabel_41:
        LCALL   ?PUSH_XSTACK8_X_FOUR
          CFI CFA_XSP16 add(XSP16, 22)
        MOV     A,#0x4
        LCALL   ?XSTACK_DISP0_8
        MOV     R2,DPL
        MOV     R3,DPH
        LCALL   ??osal_buffer_uint32?relay
        MOV     A,#0x4
        LCALL   ?DEALLOC_XSTACK8
          CFI CFA_XSP16 add(XSP16, 18)
//  275 
//  276   buf[4] = LO_UINT16( pReq->IdDuration );
        MOV     A,?V0 + 0
        ADD     A,#0x4
        MOV     R0,A
        MOV     A,?V0 + 1
        LCALL   ?Subroutine79 & 0xFFFF
??CrossCallReturnLabel_123:
        PUSH    A
          CFI CFA_SP SP+-1
        MOV     A,#0x4
        LCALL   ?XSTACK_DISP0_8
        POP     A
          CFI CFA_SP SP+0
        LCALL   ??Subroutine125_0 & 0xFFFF
//  277   buf[5] = HI_UINT16( pReq->IdDuration );
??CrossCallReturnLabel_185:
        MOVX    A,@DPTR
        PUSH    A
          CFI CFA_SP SP+-1
        MOV     A,#0x5
        LCALL   ?XSTACK_DISP0_8
        POP     A
          CFI CFA_SP SP+0
        LCALL   ?Subroutine52 & 0xFFFF
//  278 
//  279   return zclLL_SendInterPANCommand( srcEP, dstAddr, COMMAND_ZLL_IDENTIFY_REQ,
//  280                                     ZCL_FRAME_CLIENT_SERVER_DIR, seqNum, ZLL_CMDLEN_IDENTIFY_REQ, buf );
??CrossCallReturnLabel_80:
        LCALL   ?PUSH_XSTACK_I_TWO
          CFI CFA_XSP16 add(XSP16, 20)
        MOV     ?V0 + 0,#0x6
        MOV     ?V0 + 1,#0x0
        MOV     R0,#?V0 + 0
        LCALL   ?PUSH_XSTACK_I_TWO
          CFI CFA_XSP16 add(XSP16, 22)
        MOV     A,?V0 + 3
        MOV     ?V0 + 0,A
        MOV     R0,#?V0 + 0
        LCALL   ?PUSH_XSTACK_I_ONE
          CFI CFA_XSP16 add(XSP16, 23)
        MOV     R5,#0x0
        MOV     R4,#0x6
        LJMP    ?Subroutine0 & 0xFFFF
          CFI EndBlock cfiBlock7
//  281 }

        RSEG BANKED_CODE:CODE:NOROOT(0)
?Subroutine66:
          CFI Block cfiCond8 Using cfiCommon0
          CFI Function zclLL_RegisterCmdCallbacks
          CFI Conditional ??CrossCallReturnLabel_183
          CFI R6 load(1, XDATA, add(CFA_XSP16, literal(-12)))
          CFI VB load(1, XDATA, add(CFA_XSP16, literal(-11)))
          CFI V0 load(1, XDATA, add(CFA_XSP16, literal(-10)))
          CFI V1 load(1, XDATA, add(CFA_XSP16, literal(-9)))
          CFI V2 load(1, XDATA, add(CFA_XSP16, literal(-8)))
          CFI V3 load(1, XDATA, add(CFA_XSP16, literal(-7)))
          CFI R7 load(1, XDATA, add(CFA_XSP16, literal(-6)))
          CFI ?RET_LOW load(1, XDATA, add(CFA_XSP16, literal(-5)))
          CFI ?RET_HIGH load(1, XDATA, add(CFA_XSP16, literal(-4)))
          CFI ?BRET_EXT load(1, XDATA, add(CFA_XSP16, literal(-3)))
          CFI DPL0 load(1, XDATA, add(CFA_XSP16, literal(-2)))
          CFI DPH0 load(1, XDATA, add(CFA_XSP16, literal(-1)))
          CFI CFA_SP SP+0
          CFI CFA_XSP16 add(XSP16, 12)
          CFI Block cfiCond9 Using cfiCommon0
          CFI (cfiCond9) Function zclLL_ProcessInCmd_GetGrpIDsRsp
          CFI (cfiCond9) Conditional ??CrossCallReturnLabel_186
          CFI (cfiCond9) R6 load(1, XDATA, add(CFA_XSP16, literal(-18)))
          CFI (cfiCond9) VB load(1, XDATA, add(CFA_XSP16, literal(-17)))
          CFI (cfiCond9) V0 load(1, XDATA, add(CFA_XSP16, literal(-16)))
          CFI (cfiCond9) V1 load(1, XDATA, add(CFA_XSP16, literal(-15)))
          CFI (cfiCond9) V2 load(1, XDATA, add(CFA_XSP16, literal(-14)))
          CFI (cfiCond9) V3 load(1, XDATA, add(CFA_XSP16, literal(-13)))
          CFI (cfiCond9) V4 load(1, XDATA, add(CFA_XSP16, literal(-12)))
          CFI (cfiCond9) V5 load(1, XDATA, add(CFA_XSP16, literal(-11)))
          CFI (cfiCond9) V6 load(1, XDATA, add(CFA_XSP16, literal(-10)))
          CFI (cfiCond9) V7 load(1, XDATA, add(CFA_XSP16, literal(-9)))
          CFI (cfiCond9) V8 load(1, XDATA, add(CFA_XSP16, literal(-8)))
          CFI (cfiCond9) V9 load(1, XDATA, add(CFA_XSP16, literal(-7)))
          CFI (cfiCond9) R7 load(1, XDATA, add(CFA_XSP16, literal(-6)))
          CFI (cfiCond9) ?RET_LOW load(1, XDATA, add(CFA_XSP16, literal(-5)))
          CFI (cfiCond9) ?RET_HIGH load(1, XDATA, add(CFA_XSP16, literal(-4)))
          CFI (cfiCond9) ?BRET_EXT load(1, XDATA, add(CFA_XSP16, literal(-3)))
          CFI (cfiCond9) DPL0 load(1, XDATA, add(CFA_XSP16, literal(-2)))
          CFI (cfiCond9) DPH0 load(1, XDATA, add(CFA_XSP16, literal(-1)))
          CFI (cfiCond9) CFA_SP SP+0
          CFI (cfiCond9) CFA_XSP16 add(XSP16, 18)
          CFI Block cfiPicker10 Using cfiCommon1
          CFI (cfiPicker10) NoFunction
          CFI (cfiPicker10) Picker
        INC     DPTR
          CFI EndBlock cfiCond8
          CFI EndBlock cfiCond9
          CFI EndBlock cfiPicker10
        REQUIRE ??Subroutine125_0
        ; // Fall through to label ??Subroutine125_0

        RSEG BANKED_CODE:CODE:NOROOT(0)
??Subroutine125_0:
          CFI Block cfiCond11 Using cfiCommon0
          CFI Function zclLL_RegisterCmdCallbacks
          CFI Conditional ??CrossCallReturnLabel_184
          CFI R6 load(1, XDATA, add(CFA_XSP16, literal(-12)))
          CFI VB load(1, XDATA, add(CFA_XSP16, literal(-11)))
          CFI V0 load(1, XDATA, add(CFA_XSP16, literal(-10)))
          CFI V1 load(1, XDATA, add(CFA_XSP16, literal(-9)))
          CFI V2 load(1, XDATA, add(CFA_XSP16, literal(-8)))
          CFI V3 load(1, XDATA, add(CFA_XSP16, literal(-7)))
          CFI R7 load(1, XDATA, add(CFA_XSP16, literal(-6)))
          CFI ?RET_LOW load(1, XDATA, add(CFA_XSP16, literal(-5)))
          CFI ?RET_HIGH load(1, XDATA, add(CFA_XSP16, literal(-4)))
          CFI ?BRET_EXT load(1, XDATA, add(CFA_XSP16, literal(-3)))
          CFI DPL0 load(1, XDATA, add(CFA_XSP16, literal(-2)))
          CFI DPH0 load(1, XDATA, add(CFA_XSP16, literal(-1)))
          CFI CFA_SP SP+0
          CFI CFA_XSP16 add(XSP16, 12)
          CFI Block cfiCond12 Using cfiCommon0
          CFI (cfiCond12) Function zclLL_Send_IndentifyReq
          CFI (cfiCond12) Conditional ??CrossCallReturnLabel_185
          CFI (cfiCond12) R6 load(1, XDATA, add(CFA_XSP16, literal(-12)))
          CFI (cfiCond12) VB load(1, XDATA, add(CFA_XSP16, literal(-11)))
          CFI (cfiCond12) V0 load(1, XDATA, add(CFA_XSP16, literal(-10)))
          CFI (cfiCond12) V1 load(1, XDATA, add(CFA_XSP16, literal(-9)))
          CFI (cfiCond12) V2 load(1, XDATA, add(CFA_XSP16, literal(-8)))
          CFI (cfiCond12) V3 load(1, XDATA, add(CFA_XSP16, literal(-7)))
          CFI (cfiCond12) R7 load(1, XDATA, add(CFA_XSP16, literal(-6)))
          CFI (cfiCond12) ?RET_LOW load(1, XDATA, add(CFA_XSP16, literal(-5)))
          CFI (cfiCond12) ?RET_HIGH load(1, XDATA, add(CFA_XSP16, literal(-4)))
          CFI (cfiCond12) ?BRET_EXT load(1, XDATA, add(CFA_XSP16, literal(-3)))
          CFI (cfiCond12) DPL0 load(1, XDATA, add(CFA_XSP16, literal(-2)))
          CFI (cfiCond12) DPH0 load(1, XDATA, add(CFA_XSP16, literal(-1)))
          CFI (cfiCond12) CFA_SP SP+0
          CFI (cfiCond12) CFA_XSP16 add(XSP16, 18)
          CFI Block cfiCond13 Using cfiCommon0
          CFI (cfiCond13) Function zclLL_RegisterCmdCallbacks
          CFI (cfiCond13) Conditional ??CrossCallReturnLabel_183
          CFI (cfiCond13) R6 load(1, XDATA, add(CFA_XSP16, literal(-12)))
          CFI (cfiCond13) VB load(1, XDATA, add(CFA_XSP16, literal(-11)))
          CFI (cfiCond13) V0 load(1, XDATA, add(CFA_XSP16, literal(-10)))
          CFI (cfiCond13) V1 load(1, XDATA, add(CFA_XSP16, literal(-9)))
          CFI (cfiCond13) V2 load(1, XDATA, add(CFA_XSP16, literal(-8)))
          CFI (cfiCond13) V3 load(1, XDATA, add(CFA_XSP16, literal(-7)))
          CFI (cfiCond13) R7 load(1, XDATA, add(CFA_XSP16, literal(-6)))
          CFI (cfiCond13) ?RET_LOW load(1, XDATA, add(CFA_XSP16, literal(-5)))
          CFI (cfiCond13) ?RET_HIGH load(1, XDATA, add(CFA_XSP16, literal(-4)))
          CFI (cfiCond13) ?BRET_EXT load(1, XDATA, add(CFA_XSP16, literal(-3)))
          CFI (cfiCond13) DPL0 load(1, XDATA, add(CFA_XSP16, literal(-2)))
          CFI (cfiCond13) DPH0 load(1, XDATA, add(CFA_XSP16, literal(-1)))
          CFI (cfiCond13) CFA_SP SP+0
          CFI (cfiCond13) CFA_XSP16 add(XSP16, 12)
          CFI Block cfiCond14 Using cfiCommon0
          CFI (cfiCond14) Function zclLL_ProcessInCmd_GetGrpIDsRsp
          CFI (cfiCond14) Conditional ??CrossCallReturnLabel_186
          CFI (cfiCond14) R6 load(1, XDATA, add(CFA_XSP16, literal(-18)))
          CFI (cfiCond14) VB load(1, XDATA, add(CFA_XSP16, literal(-17)))
          CFI (cfiCond14) V0 load(1, XDATA, add(CFA_XSP16, literal(-16)))
          CFI (cfiCond14) V1 load(1, XDATA, add(CFA_XSP16, literal(-15)))
          CFI (cfiCond14) V2 load(1, XDATA, add(CFA_XSP16, literal(-14)))
          CFI (cfiCond14) V3 load(1, XDATA, add(CFA_XSP16, literal(-13)))
          CFI (cfiCond14) V4 load(1, XDATA, add(CFA_XSP16, literal(-12)))
          CFI (cfiCond14) V5 load(1, XDATA, add(CFA_XSP16, literal(-11)))
          CFI (cfiCond14) V6 load(1, XDATA, add(CFA_XSP16, literal(-10)))
          CFI (cfiCond14) V7 load(1, XDATA, add(CFA_XSP16, literal(-9)))
          CFI (cfiCond14) V8 load(1, XDATA, add(CFA_XSP16, literal(-8)))
          CFI (cfiCond14) V9 load(1, XDATA, add(CFA_XSP16, literal(-7)))
          CFI (cfiCond14) R7 load(1, XDATA, add(CFA_XSP16, literal(-6)))
          CFI (cfiCond14) ?RET_LOW load(1, XDATA, add(CFA_XSP16, literal(-5)))
          CFI (cfiCond14) ?RET_HIGH load(1, XDATA, add(CFA_XSP16, literal(-4)))
          CFI (cfiCond14) ?BRET_EXT load(1, XDATA, add(CFA_XSP16, literal(-3)))
          CFI (cfiCond14) DPL0 load(1, XDATA, add(CFA_XSP16, literal(-2)))
          CFI (cfiCond14) DPH0 load(1, XDATA, add(CFA_XSP16, literal(-1)))
          CFI (cfiCond14) CFA_SP SP+0
          CFI (cfiCond14) CFA_XSP16 add(XSP16, 18)
          CFI Block cfiPicker15 Using cfiCommon1
          CFI (cfiPicker15) NoFunction
          CFI (cfiPicker15) Picker
        MOVX    @DPTR,A
        MOV     DPL,R0
        MOV     DPH,R1
        INC     DPTR
        RET
          CFI EndBlock cfiCond11
          CFI EndBlock cfiCond12
          CFI EndBlock cfiCond13
          CFI EndBlock cfiCond14
          CFI EndBlock cfiPicker15

        RSEG BANKED_CODE:CODE:NOROOT(0)
?Subroutine52:
          CFI Block cfiCond16 Using cfiCommon0
          CFI Function zclLL_Send_ScanReq
          CFI Conditional ??CrossCallReturnLabel_78
          CFI R6 load(1, XDATA, add(CFA_XSP16, literal(-12)))
          CFI VB load(1, XDATA, add(CFA_XSP16, literal(-11)))
          CFI V0 load(1, XDATA, add(CFA_XSP16, literal(-10)))
          CFI V1 load(1, XDATA, add(CFA_XSP16, literal(-9)))
          CFI V2 load(1, XDATA, add(CFA_XSP16, literal(-8)))
          CFI V3 load(1, XDATA, add(CFA_XSP16, literal(-7)))
          CFI R7 load(1, XDATA, add(CFA_XSP16, literal(-6)))
          CFI ?RET_LOW load(1, XDATA, add(CFA_XSP16, literal(-5)))
          CFI ?RET_HIGH load(1, XDATA, add(CFA_XSP16, literal(-4)))
          CFI ?BRET_EXT load(1, XDATA, add(CFA_XSP16, literal(-3)))
          CFI DPL0 load(1, XDATA, add(CFA_XSP16, literal(-2)))
          CFI DPH0 load(1, XDATA, add(CFA_XSP16, literal(-1)))
          CFI CFA_SP SP+0
          CFI CFA_XSP16 add(XSP16, 18)
          CFI Block cfiCond17 Using cfiCommon0
          CFI (cfiCond17) Function zclLL_Send_DeviceInfoReq
          CFI (cfiCond17) Conditional ??CrossCallReturnLabel_79
          CFI (cfiCond17) R6 load(1, XDATA, add(CFA_XSP16, literal(-12)))
          CFI (cfiCond17) VB load(1, XDATA, add(CFA_XSP16, literal(-11)))
          CFI (cfiCond17) V0 load(1, XDATA, add(CFA_XSP16, literal(-10)))
          CFI (cfiCond17) V1 load(1, XDATA, add(CFA_XSP16, literal(-9)))
          CFI (cfiCond17) V2 load(1, XDATA, add(CFA_XSP16, literal(-8)))
          CFI (cfiCond17) V3 load(1, XDATA, add(CFA_XSP16, literal(-7)))
          CFI (cfiCond17) R7 load(1, XDATA, add(CFA_XSP16, literal(-6)))
          CFI (cfiCond17) ?RET_LOW load(1, XDATA, add(CFA_XSP16, literal(-5)))
          CFI (cfiCond17) ?RET_HIGH load(1, XDATA, add(CFA_XSP16, literal(-4)))
          CFI (cfiCond17) ?BRET_EXT load(1, XDATA, add(CFA_XSP16, literal(-3)))
          CFI (cfiCond17) DPL0 load(1, XDATA, add(CFA_XSP16, literal(-2)))
          CFI (cfiCond17) DPH0 load(1, XDATA, add(CFA_XSP16, literal(-1)))
          CFI (cfiCond17) CFA_SP SP+0
          CFI (cfiCond17) CFA_XSP16 add(XSP16, 17)
          CFI Block cfiCond18 Using cfiCommon0
          CFI (cfiCond18) Function zclLL_Send_IndentifyReq
          CFI (cfiCond18) Conditional ??CrossCallReturnLabel_80
          CFI (cfiCond18) R6 load(1, XDATA, add(CFA_XSP16, literal(-12)))
          CFI (cfiCond18) VB load(1, XDATA, add(CFA_XSP16, literal(-11)))
          CFI (cfiCond18) V0 load(1, XDATA, add(CFA_XSP16, literal(-10)))
          CFI (cfiCond18) V1 load(1, XDATA, add(CFA_XSP16, literal(-9)))
          CFI (cfiCond18) V2 load(1, XDATA, add(CFA_XSP16, literal(-8)))
          CFI (cfiCond18) V3 load(1, XDATA, add(CFA_XSP16, literal(-7)))
          CFI (cfiCond18) R7 load(1, XDATA, add(CFA_XSP16, literal(-6)))
          CFI (cfiCond18) ?RET_LOW load(1, XDATA, add(CFA_XSP16, literal(-5)))
          CFI (cfiCond18) ?RET_HIGH load(1, XDATA, add(CFA_XSP16, literal(-4)))
          CFI (cfiCond18) ?BRET_EXT load(1, XDATA, add(CFA_XSP16, literal(-3)))
          CFI (cfiCond18) DPL0 load(1, XDATA, add(CFA_XSP16, literal(-2)))
          CFI (cfiCond18) DPH0 load(1, XDATA, add(CFA_XSP16, literal(-1)))
          CFI (cfiCond18) CFA_SP SP+0
          CFI (cfiCond18) CFA_XSP16 add(XSP16, 18)
          CFI Block cfiCond19 Using cfiCommon0
          CFI (cfiCond19) Function zclLL_Send_NwkJoinRsp
          CFI (cfiCond19) Conditional ??CrossCallReturnLabel_81
          CFI (cfiCond19) R6 load(1, XDATA, add(CFA_XSP16, literal(-13)))
          CFI (cfiCond19) VB load(1, XDATA, add(CFA_XSP16, literal(-12)))
          CFI (cfiCond19) V0 load(1, XDATA, add(CFA_XSP16, literal(-11)))
          CFI (cfiCond19) V1 load(1, XDATA, add(CFA_XSP16, literal(-10)))
          CFI (cfiCond19) V2 load(1, XDATA, add(CFA_XSP16, literal(-9)))
          CFI (cfiCond19) V3 load(1, XDATA, add(CFA_XSP16, literal(-8)))
          CFI (cfiCond19) V4 load(1, XDATA, add(CFA_XSP16, literal(-7)))
          CFI (cfiCond19) R7 load(1, XDATA, add(CFA_XSP16, literal(-6)))
          CFI (cfiCond19) ?RET_LOW load(1, XDATA, add(CFA_XSP16, literal(-5)))
          CFI (cfiCond19) ?RET_HIGH load(1, XDATA, add(CFA_XSP16, literal(-4)))
          CFI (cfiCond19) ?BRET_EXT load(1, XDATA, add(CFA_XSP16, literal(-3)))
          CFI (cfiCond19) DPL0 load(1, XDATA, add(CFA_XSP16, literal(-2)))
          CFI (cfiCond19) DPH0 load(1, XDATA, add(CFA_XSP16, literal(-1)))
          CFI (cfiCond19) CFA_SP SP+0
          CFI (cfiCond19) CFA_XSP16 add(XSP16, 18)
          CFI Block cfiPicker20 Using cfiCommon1
          CFI (cfiPicker20) NoFunction
          CFI (cfiPicker20) Picker
        MOVX    @DPTR,A
        ; Setup parameters for call to function zclLL_SendInterPANCommand
        ; Setup parameters for call to function zclLL_SendInterPANCommand
        ; Setup parameters for call to function zclLL_SendInterPANCommand
        ; Setup parameters for call to function zclLL_SendInterPANCommand
        MOV     DPL,?XSP + 0
        MOV     DPH,?XSP + 1
        MOV     ?V0 + 0,DPL
        MOV     ?V0 + 1,DPH
        MOV     R0,#?V0 + 0
        RET
          CFI EndBlock cfiCond16
          CFI EndBlock cfiCond17
          CFI EndBlock cfiCond18
          CFI EndBlock cfiCond19
          CFI EndBlock cfiPicker20

        RSEG BANKED_CODE:CODE:NOROOT(0)
?Subroutine31:
          CFI Block cfiCond21 Using cfiCommon0
          CFI Function zclLL_Send_ScanReq
          CFI Conditional ??CrossCallReturnLabel_39
          CFI R6 load(1, XDATA, add(CFA_XSP16, literal(-12)))
          CFI VB load(1, XDATA, add(CFA_XSP16, literal(-11)))
          CFI V0 load(1, XDATA, add(CFA_XSP16, literal(-10)))
          CFI V1 load(1, XDATA, add(CFA_XSP16, literal(-9)))
          CFI V2 load(1, XDATA, add(CFA_XSP16, literal(-8)))
          CFI V3 load(1, XDATA, add(CFA_XSP16, literal(-7)))
          CFI R7 load(1, XDATA, add(CFA_XSP16, literal(-6)))
          CFI ?RET_LOW load(1, XDATA, add(CFA_XSP16, literal(-5)))
          CFI ?RET_HIGH load(1, XDATA, add(CFA_XSP16, literal(-4)))
          CFI ?BRET_EXT load(1, XDATA, add(CFA_XSP16, literal(-3)))
          CFI DPL0 load(1, XDATA, add(CFA_XSP16, literal(-2)))
          CFI DPH0 load(1, XDATA, add(CFA_XSP16, literal(-1)))
          CFI CFA_SP SP+0
          CFI CFA_XSP16 add(XSP16, 18)
          CFI Block cfiCond22 Using cfiCommon0
          CFI (cfiCond22) Function zclLL_Send_DeviceInfoReq
          CFI (cfiCond22) Conditional ??CrossCallReturnLabel_40
          CFI (cfiCond22) R6 load(1, XDATA, add(CFA_XSP16, literal(-12)))
          CFI (cfiCond22) VB load(1, XDATA, add(CFA_XSP16, literal(-11)))
          CFI (cfiCond22) V0 load(1, XDATA, add(CFA_XSP16, literal(-10)))
          CFI (cfiCond22) V1 load(1, XDATA, add(CFA_XSP16, literal(-9)))
          CFI (cfiCond22) V2 load(1, XDATA, add(CFA_XSP16, literal(-8)))
          CFI (cfiCond22) V3 load(1, XDATA, add(CFA_XSP16, literal(-7)))
          CFI (cfiCond22) R7 load(1, XDATA, add(CFA_XSP16, literal(-6)))
          CFI (cfiCond22) ?RET_LOW load(1, XDATA, add(CFA_XSP16, literal(-5)))
          CFI (cfiCond22) ?RET_HIGH load(1, XDATA, add(CFA_XSP16, literal(-4)))
          CFI (cfiCond22) ?BRET_EXT load(1, XDATA, add(CFA_XSP16, literal(-3)))
          CFI (cfiCond22) DPL0 load(1, XDATA, add(CFA_XSP16, literal(-2)))
          CFI (cfiCond22) DPH0 load(1, XDATA, add(CFA_XSP16, literal(-1)))
          CFI (cfiCond22) CFA_SP SP+0
          CFI (cfiCond22) CFA_XSP16 add(XSP16, 17)
          CFI Block cfiCond23 Using cfiCommon0
          CFI (cfiCond23) Function zclLL_Send_IndentifyReq
          CFI (cfiCond23) Conditional ??CrossCallReturnLabel_41
          CFI (cfiCond23) R6 load(1, XDATA, add(CFA_XSP16, literal(-12)))
          CFI (cfiCond23) VB load(1, XDATA, add(CFA_XSP16, literal(-11)))
          CFI (cfiCond23) V0 load(1, XDATA, add(CFA_XSP16, literal(-10)))
          CFI (cfiCond23) V1 load(1, XDATA, add(CFA_XSP16, literal(-9)))
          CFI (cfiCond23) V2 load(1, XDATA, add(CFA_XSP16, literal(-8)))
          CFI (cfiCond23) V3 load(1, XDATA, add(CFA_XSP16, literal(-7)))
          CFI (cfiCond23) R7 load(1, XDATA, add(CFA_XSP16, literal(-6)))
          CFI (cfiCond23) ?RET_LOW load(1, XDATA, add(CFA_XSP16, literal(-5)))
          CFI (cfiCond23) ?RET_HIGH load(1, XDATA, add(CFA_XSP16, literal(-4)))
          CFI (cfiCond23) ?BRET_EXT load(1, XDATA, add(CFA_XSP16, literal(-3)))
          CFI (cfiCond23) DPL0 load(1, XDATA, add(CFA_XSP16, literal(-2)))
          CFI (cfiCond23) DPH0 load(1, XDATA, add(CFA_XSP16, literal(-1)))
          CFI (cfiCond23) CFA_SP SP+0
          CFI (cfiCond23) CFA_XSP16 add(XSP16, 18)
          CFI Block cfiCond24 Using cfiCommon0
          CFI (cfiCond24) Function zclLL_Send_ResetToFNReq
          CFI (cfiCond24) Conditional ??CrossCallReturnLabel_42
          CFI (cfiCond24) R6 load(1, XDATA, add(CFA_XSP16, literal(-12)))
          CFI (cfiCond24) VB load(1, XDATA, add(CFA_XSP16, literal(-11)))
          CFI (cfiCond24) V0 load(1, XDATA, add(CFA_XSP16, literal(-10)))
          CFI (cfiCond24) V1 load(1, XDATA, add(CFA_XSP16, literal(-9)))
          CFI (cfiCond24) V2 load(1, XDATA, add(CFA_XSP16, literal(-8)))
          CFI (cfiCond24) V3 load(1, XDATA, add(CFA_XSP16, literal(-7)))
          CFI (cfiCond24) R7 load(1, XDATA, add(CFA_XSP16, literal(-6)))
          CFI (cfiCond24) ?RET_LOW load(1, XDATA, add(CFA_XSP16, literal(-5)))
          CFI (cfiCond24) ?RET_HIGH load(1, XDATA, add(CFA_XSP16, literal(-4)))
          CFI (cfiCond24) ?BRET_EXT load(1, XDATA, add(CFA_XSP16, literal(-3)))
          CFI (cfiCond24) DPL0 load(1, XDATA, add(CFA_XSP16, literal(-2)))
          CFI (cfiCond24) DPH0 load(1, XDATA, add(CFA_XSP16, literal(-1)))
          CFI (cfiCond24) CFA_SP SP+0
          CFI (cfiCond24) CFA_XSP16 add(XSP16, 16)
          CFI Block cfiPicker25 Using cfiCommon1
          CFI (cfiPicker25) NoFunction
          CFI (cfiPicker25) Picker
        MOVX    A,@DPTR
        MOV     ?V0 + 3,A
        ; Setup parameters for call to function osal_buffer_uint32
        ; Setup parameters for call to function osal_buffer_uint32
        ; Setup parameters for call to function osal_buffer_uint32
        ; Setup parameters for call to function osal_buffer_uint32
        MOV     DPL,R4
        MOV     DPH,R5
        RET
          CFI EndBlock cfiCond21
          CFI EndBlock cfiCond22
          CFI EndBlock cfiCond23
          CFI EndBlock cfiCond24
          CFI EndBlock cfiPicker25
//  282 
//  283 /*********************************************************************
//  284  * @fn      zclLL_Send_ResetToFNReq
//  285  *
//  286  * @brief   Call to send out a Reset to Factory New Request command
//  287  *
//  288  * @param   srcEP - sending application's endpoint
//  289  * @param   dstAddr - where you want the message to go
//  290  * @param   pReq - request parameters
//  291  * @param   seqNum - sequence number
//  292  *
//  293  * @return  ZStatus_t
//  294  */

        RSEG BANKED_CODE:CODE:NOROOT(0)
//  295 ZStatus_t zclLL_Send_ResetToFNReq( uint8 srcEP, afAddrType_t *dstAddr,
zclLL_Send_ResetToFNReq:
          CFI Block cfiBlock26 Using cfiCommon0
          CFI Function zclLL_Send_ResetToFNReq
        CODE
//  296                                    zclLLResetToFNReq_t *pReq, uint8 seqNum )
//  297 {
        FUNCALL zclLL_Send_ResetToFNReq, osal_buffer_uint32
        LOCFRAME ISTACK, 0, STACK
        LOCFRAME PSTACK, 0, STACK
        LOCFRAME XSTACK, 20, STACK
        LOCFRAME IOVERLAY, 0, STATIC
        LOCFRAME DOVERLAY, 0, STATIC
        ARGFRAME ISTACK, 0, STACK
        ARGFRAME PSTACK, 0, STACK
        ARGFRAME XSTACK, 20, STACK
        ARGFRAME IOVERLAY, 0, STATIC
        ARGFRAME DOVERLAY, 0, STATIC
        FUNCALL zclLL_Send_ResetToFNReq, zclLL_SendInterPANCommand
        LOCFRAME ISTACK, 0, STACK
        LOCFRAME PSTACK, 0, STACK
        LOCFRAME XSTACK, 21, STACK
        LOCFRAME IOVERLAY, 0, STATIC
        LOCFRAME DOVERLAY, 0, STATIC
        ARGFRAME ISTACK, 0, STACK
        ARGFRAME PSTACK, 0, STACK
        ARGFRAME XSTACK, 21, STACK
        ARGFRAME IOVERLAY, 0, STATIC
        ARGFRAME DOVERLAY, 0, STATIC
        MOV     A,#-0xc
        LCALL   ?BANKED_ENTER_XDATA
          CFI DPH0 load(1, XDATA, add(CFA_XSP16, literal(-1)))
          CFI DPL0 load(1, XDATA, add(CFA_XSP16, literal(-2)))
          CFI ?BRET_EXT load(1, XDATA, add(CFA_XSP16, literal(-3)))
          CFI ?RET_HIGH load(1, XDATA, add(CFA_XSP16, literal(-4)))
          CFI ?RET_LOW load(1, XDATA, add(CFA_XSP16, literal(-5)))
          CFI R7 load(1, XDATA, add(CFA_XSP16, literal(-6)))
          CFI V3 load(1, XDATA, add(CFA_XSP16, literal(-7)))
          CFI V2 load(1, XDATA, add(CFA_XSP16, literal(-8)))
          CFI V1 load(1, XDATA, add(CFA_XSP16, literal(-9)))
          CFI V0 load(1, XDATA, add(CFA_XSP16, literal(-10)))
          CFI VB load(1, XDATA, add(CFA_XSP16, literal(-11)))
          CFI R6 load(1, XDATA, add(CFA_XSP16, literal(-12)))
          CFI CFA_SP SP+0
          CFI CFA_XSP16 add(XSP16, 12)
        ; Saved register size: 12
        ; Auto size: 4
        MOV     A,#-0x4
        LCALL   ?ALLOC_XSTACK8
          CFI CFA_XSP16 add(XSP16, 16)
        MOV     ?V0 + 2,R1
        MOV     A,R2
        MOV     R6,A
        MOV     A,R3
        MOV     R7,A
        MOV     A,#0x10
        LCALL   ?XSTACK_DISP0_8
        LCALL   ?Subroutine31 & 0xFFFF
//  298   uint8 buf[ZLL_CMDLEN_RESET_TO_FN_REQ];
//  299 
//  300   VOID zcl_buffer_uint32( buf, pReq->transID );
??CrossCallReturnLabel_42:
        LCALL   ?PUSH_XSTACK8_X_FOUR
          CFI CFA_XSP16 add(XSP16, 20)
        MOV     A,#0x4
        LCALL   ?XSTACK_DISP0_8
        MOV     R2,DPL
        MOV     R3,DPH
        LCALL   ??osal_buffer_uint32?relay
        MOV     A,#0x4
        LCALL   ?DEALLOC_XSTACK8
          CFI CFA_XSP16 add(XSP16, 16)
//  301 
//  302   return zclLL_SendInterPANCommand( srcEP, dstAddr, COMMAND_ZLL_RESET_TO_FN_REQ,
//  303                                     ZCL_FRAME_CLIENT_SERVER_DIR, seqNum, ZLL_CMDLEN_RESET_TO_FN_REQ, buf );
        ; Setup parameters for call to function zclLL_SendInterPANCommand
        MOV     DPL,?XSP + 0
        MOV     DPH,?XSP + 1
        MOV     ?V0 + 0,DPL
        MOV     ?V0 + 1,DPH
        MOV     R0,#?V0 + 0
        LCALL   ?PUSH_XSTACK_I_TWO
          CFI CFA_XSP16 add(XSP16, 18)
        MOV     ?V0 + 0,#0x4
        MOV     ?V0 + 1,#0x0
        MOV     R0,#?V0 + 0
        LCALL   ?PUSH_XSTACK_I_TWO
          CFI CFA_XSP16 add(XSP16, 20)
        MOV     A,?V0 + 3
        MOV     ?V0 + 0,A
        MOV     R0,#?V0 + 0
        LCALL   ?PUSH_XSTACK_I_ONE
          CFI CFA_XSP16 add(XSP16, 21)
        MOV     R5,#0x0
        MOV     R4,#0x7
        MOV     A,R6
        MOV     R2,A
        MOV     A,R7
        MOV     R3,A
        MOV     R1,?V0 + 2
        LCALL   ??zclLL_SendInterPANCommand?relay
        MOV     A,#0x5
        LCALL   ?DEALLOC_XSTACK8
          CFI CFA_XSP16 add(XSP16, 16)
        MOV     A,#0x4
        LJMP    ??Subroutine123_0 & 0xFFFF
          CFI EndBlock cfiBlock26
//  304 }
//  305 
//  306 /*********************************************************************
//  307  * @fn      zclLL_Send_NwkStartReq
//  308  *
//  309  * @brief   Call to send out a Network Start Request command
//  310  *
//  311  * @param   srcEP - sending application's endpoint
//  312  * @param   dstAddr - where you want the message to go
//  313  * @param   pRsp - response parameters
//  314  * @param   seqNum - sequence number
//  315  *
//  316  * @return  ZStatus_t
//  317  */

        RSEG BANKED_CODE:CODE:NOROOT(0)
//  318 ZStatus_t zclLL_Send_NwkStartReq( uint8 srcEP, afAddrType_t *dstAddr,
zclLL_Send_NwkStartReq:
          CFI Block cfiBlock27 Using cfiCommon0
          CFI Function zclLL_Send_NwkStartReq
        CODE
//  319                                   zclLLNwkStartReq_t *pRsp, uint8 seqNum )
//  320 {
        FUNCALL zclLL_Send_NwkStartReq, osal_mem_alloc
        LOCFRAME ISTACK, 0, STACK
        LOCFRAME PSTACK, 0, STACK
        LOCFRAME XSTACK, 18, STACK
        LOCFRAME IOVERLAY, 0, STATIC
        LOCFRAME DOVERLAY, 0, STATIC
        ARGFRAME ISTACK, 0, STACK
        ARGFRAME PSTACK, 0, STACK
        ARGFRAME XSTACK, 18, STACK
        ARGFRAME IOVERLAY, 0, STATIC
        ARGFRAME DOVERLAY, 0, STATIC
        FUNCALL zclLL_Send_NwkStartReq, osal_buffer_uint32
        LOCFRAME ISTACK, 0, STACK
        LOCFRAME PSTACK, 0, STACK
        LOCFRAME XSTACK, 22, STACK
        LOCFRAME IOVERLAY, 0, STATIC
        LOCFRAME DOVERLAY, 0, STATIC
        ARGFRAME ISTACK, 0, STACK
        ARGFRAME PSTACK, 0, STACK
        ARGFRAME XSTACK, 22, STACK
        ARGFRAME IOVERLAY, 0, STATIC
        ARGFRAME DOVERLAY, 0, STATIC
        FUNCALL zclLL_Send_NwkStartReq, sAddrExtCpy
        LOCFRAME ISTACK, 0, STACK
        LOCFRAME PSTACK, 0, STACK
        LOCFRAME XSTACK, 18, STACK
        LOCFRAME IOVERLAY, 0, STATIC
        LOCFRAME DOVERLAY, 0, STATIC
        ARGFRAME ISTACK, 0, STACK
        ARGFRAME PSTACK, 0, STACK
        ARGFRAME XSTACK, 18, STACK
        ARGFRAME IOVERLAY, 0, STATIC
        ARGFRAME DOVERLAY, 0, STATIC
        FUNCALL zclLL_Send_NwkStartReq, osal_memcpy
        LOCFRAME ISTACK, 0, STACK
        LOCFRAME PSTACK, 0, STACK
        LOCFRAME XSTACK, 21, STACK
        LOCFRAME IOVERLAY, 0, STATIC
        LOCFRAME DOVERLAY, 0, STATIC
        ARGFRAME ISTACK, 0, STACK
        ARGFRAME PSTACK, 0, STACK
        ARGFRAME XSTACK, 21, STACK
        ARGFRAME IOVERLAY, 0, STATIC
        ARGFRAME DOVERLAY, 0, STATIC
        FUNCALL zclLL_Send_NwkStartReq, sAddrExtCpy
        LOCFRAME ISTACK, 0, STACK
        LOCFRAME PSTACK, 0, STACK
        LOCFRAME XSTACK, 18, STACK
        LOCFRAME IOVERLAY, 0, STATIC
        LOCFRAME DOVERLAY, 0, STATIC
        ARGFRAME ISTACK, 0, STACK
        ARGFRAME PSTACK, 0, STACK
        ARGFRAME XSTACK, 18, STACK
        ARGFRAME IOVERLAY, 0, STATIC
        ARGFRAME DOVERLAY, 0, STATIC
        FUNCALL zclLL_Send_NwkStartReq, zclLL_SendInterPANCommand
        LOCFRAME ISTACK, 0, STACK
        LOCFRAME PSTACK, 0, STACK
        LOCFRAME XSTACK, 23, STACK
        LOCFRAME IOVERLAY, 0, STATIC
        LOCFRAME DOVERLAY, 0, STATIC
        ARGFRAME ISTACK, 0, STACK
        ARGFRAME PSTACK, 0, STACK
        ARGFRAME XSTACK, 23, STACK
        ARGFRAME IOVERLAY, 0, STATIC
        ARGFRAME DOVERLAY, 0, STATIC
        FUNCALL zclLL_Send_NwkStartReq, osal_mem_free
        LOCFRAME ISTACK, 0, STACK
        LOCFRAME PSTACK, 0, STACK
        LOCFRAME XSTACK, 18, STACK
        LOCFRAME IOVERLAY, 0, STATIC
        LOCFRAME DOVERLAY, 0, STATIC
        ARGFRAME ISTACK, 0, STACK
        ARGFRAME PSTACK, 0, STACK
        ARGFRAME XSTACK, 18, STACK
        ARGFRAME IOVERLAY, 0, STATIC
        ARGFRAME DOVERLAY, 0, STATIC
        MOV     A,#-0x12
        LCALL   ?BANKED_ENTER_XDATA
          CFI DPH0 load(1, XDATA, add(CFA_XSP16, literal(-1)))
          CFI DPL0 load(1, XDATA, add(CFA_XSP16, literal(-2)))
          CFI ?BRET_EXT load(1, XDATA, add(CFA_XSP16, literal(-3)))
          CFI ?RET_HIGH load(1, XDATA, add(CFA_XSP16, literal(-4)))
          CFI ?RET_LOW load(1, XDATA, add(CFA_XSP16, literal(-5)))
          CFI R7 load(1, XDATA, add(CFA_XSP16, literal(-6)))
          CFI V9 load(1, XDATA, add(CFA_XSP16, literal(-7)))
          CFI V8 load(1, XDATA, add(CFA_XSP16, literal(-8)))
          CFI V7 load(1, XDATA, add(CFA_XSP16, literal(-9)))
          CFI V6 load(1, XDATA, add(CFA_XSP16, literal(-10)))
          CFI V5 load(1, XDATA, add(CFA_XSP16, literal(-11)))
          CFI V4 load(1, XDATA, add(CFA_XSP16, literal(-12)))
          CFI V3 load(1, XDATA, add(CFA_XSP16, literal(-13)))
          CFI V2 load(1, XDATA, add(CFA_XSP16, literal(-14)))
          CFI V1 load(1, XDATA, add(CFA_XSP16, literal(-15)))
          CFI V0 load(1, XDATA, add(CFA_XSP16, literal(-16)))
          CFI VB load(1, XDATA, add(CFA_XSP16, literal(-17)))
          CFI R6 load(1, XDATA, add(CFA_XSP16, literal(-18)))
          CFI CFA_SP SP+0
          CFI CFA_XSP16 add(XSP16, 18)
        ; Saved register size: 18
        ; Auto size: 0
        MOV     ?V0 + 3,R1
        MOV     ?V0 + 0,R2
        MOV     ?V0 + 1,R3
        MOV     A,R4
        MOV     R6,A
        MOV     A,R5
        MOV     R7,A
        MOV     A,#0x12
        LCALL   ?XSTACK_DISP0_8
        MOVX    A,@DPTR
        MOV     ?V0 + 2,A
//  321   uint8 *buf;
//  322   uint8 *pBuf;
//  323   ZStatus_t status;
//  324 
//  325   buf = zcl_mem_alloc( ZLL_CMDLEN_NWK_START_REQ );
        ; Setup parameters for call to function osal_mem_alloc
        MOV     R2,#0x38
        MOV     R3,#0x0
        LCALL   ??osal_mem_alloc?relay
        MOV     ?V0 + 8,R2
        MOV     ?V0 + 9,R3
//  326   if ( buf != NULL )
        MOV     A,R2
        ORL     A,?V0 + 9
        JNZ     $+5
        LJMP    ??zclLL_Send_NwkStartReq_0 & 0xFFFF
//  327   {
//  328     pBuf = buf;
//  329 
//  330     pBuf = zcl_buffer_uint32( pBuf, pRsp->transID );
        ; Setup parameters for call to function osal_buffer_uint32
        MOV     DPL,R6
        MOV     DPH,R7
        LCALL   ?PUSH_XSTACK8_X_FOUR
          CFI CFA_XSP16 add(XSP16, 22)
        LCALL   ??osal_buffer_uint32?relay
        MOV     A,#0x4
        LCALL   ?DEALLOC_XSTACK8
          CFI CFA_XSP16 add(XSP16, 18)
//  331     pBuf = zcl_cpyExtAddr( pBuf, pRsp->nwkParams.extendedPANID );
        ; Setup parameters for call to function sAddrExtCpy
        LCALL   ?Subroutine71 & 0xFFFF
??CrossCallReturnLabel_111:
        LCALL   ??sAddrExtCpy?relay
//  332 
//  333     *pBuf++ = pRsp->nwkParams.keyIndex;
        LCALL   ?Subroutine19 & 0xFFFF
//  334 
//  335     pBuf = zcl_memcpy( pBuf, pRsp->nwkParams.nwkKey, SEC_KEY_LEN );
??CrossCallReturnLabel_20:
        LCALL   ?PUSH_XSTACK_I_THREE
          CFI CFA_XSP16 add(XSP16, 21)
        MOV     R4,#0x10
        MOV     R5,#0x0
        LCALL   ??osal_memcpy?relay
        MOV     A,#0x3
        LCALL   ?DEALLOC_XSTACK8
          CFI CFA_XSP16 add(XSP16, 18)
//  336 
//  337     *pBuf++ = pRsp->nwkParams.logicalChannel;
        MOV     A,R6
        ADD     A,#0x1d
        MOV     DPL,A
        MOV     A,R7
        LCALL   ??Subroutine145_0 & 0xFFFF
??CrossCallReturnLabel_264:
        LCALL   ?Subroutine45 & 0xFFFF
??CrossCallReturnLabel_65:
        LCALL   ?Subroutine7 & 0xFFFF
//  338 
//  339     *pBuf++ = LO_UINT16( pRsp->nwkParams.panId );
//  340     *pBuf++ = HI_UINT16( pRsp->nwkParams.panId );
//  341 
//  342     *pBuf++ = LO_UINT16( pRsp->nwkParams.nwkAddr );
//  343     *pBuf++ = HI_UINT16( pRsp->nwkParams.nwkAddr );
//  344 
//  345     *pBuf++ = LO_UINT16( pRsp->nwkParams.grpIDsBegin );
//  346     *pBuf++ = HI_UINT16( pRsp->nwkParams.grpIDsBegin );
//  347 
//  348     *pBuf++ = LO_UINT16( pRsp->nwkParams.grpIDsEnd );
//  349     *pBuf++ = HI_UINT16( pRsp->nwkParams.grpIDsEnd );
//  350 
//  351     *pBuf++ = LO_UINT16( pRsp->nwkParams.freeNwkAddrBegin );
//  352     *pBuf++ = HI_UINT16( pRsp->nwkParams.freeNwkAddrBegin );
//  353 
//  354     *pBuf++ = LO_UINT16( pRsp->nwkParams.freeNwkAddrEnd );
//  355     *pBuf++ = HI_UINT16( pRsp->nwkParams.freeNwkAddrEnd );
//  356 
//  357     *pBuf++ = LO_UINT16( pRsp->nwkParams.freeGrpIDBegin );
//  358     *pBuf++ = HI_UINT16( pRsp->nwkParams.freeGrpIDBegin );
//  359 
//  360     *pBuf++ = LO_UINT16( pRsp->nwkParams.freeGrpIDEnd );
//  361     *pBuf++ = HI_UINT16( pRsp->nwkParams.freeGrpIDEnd );
??CrossCallReturnLabel_0:
        INC     DPTR
        INC     R2
        MOV     R3,DPH
//  362 
//  363     pBuf = zcl_cpyExtAddr( pBuf, pRsp->initiatorIeeeAddr );
        ; Setup parameters for call to function sAddrExtCpy
        MOV     A,R6
        ADD     A,#0x2e
        MOV     R4,A
        MOV     A,R7
        ADDC    A,#0x0
        MOV     R5,A
        LCALL   ??sAddrExtCpy?relay
//  364 
//  365     *pBuf++ = LO_UINT16( pRsp->initiatorNwkAddr );
        MOV     A,R6
        ADD     A,#0x36
        LCALL   ?Subroutine102 & 0xFFFF
??CrossCallReturnLabel_188:
        LCALL   ?Subroutine33 & 0xFFFF
//  366     *pBuf++ = HI_UINT16( pRsp->initiatorNwkAddr );
??CrossCallReturnLabel_45:
        MOV     DPL,R0
        MOV     DPH,R1
        INC     DPTR
        LCALL   ?Subroutine51 & 0xFFFF
//  367 
//  368     status = zclLL_SendInterPANCommand( srcEP, dstAddr, COMMAND_ZLL_NWK_START_REQ,
//  369                                         ZCL_FRAME_CLIENT_SERVER_DIR, seqNum, ZLL_CMDLEN_NWK_START_REQ, buf );
??CrossCallReturnLabel_75:
        ; Setup parameters for call to function zclLL_SendInterPANCommand
        MOV     R0,#?V0 + 8
        LCALL   ?PUSH_XSTACK_I_TWO
          CFI CFA_XSP16 add(XSP16, 20)
        MOV     ?V0 + 4,#0x38
        MOV     ?V0 + 5,#0x0
        MOV     R0,#?V0 + 4
        LCALL   ?PUSH_XSTACK_I_TWO
          CFI CFA_XSP16 add(XSP16, 22)
        MOV     R0,#?V0 + 2
        LCALL   ?PUSH_XSTACK_I_ONE
          CFI CFA_XSP16 add(XSP16, 23)
        MOV     R5,#0x0
        MOV     R4,#0x10
        MOV     R2,?V0 + 0
        MOV     R3,?V0 + 1
        MOV     R1,?V0 + 3
        LCALL   ??zclLL_SendInterPANCommand?relay
        MOV     A,#0x5
        LCALL   ?DEALLOC_XSTACK8
          CFI CFA_XSP16 add(XSP16, 18)
        MOV     A,R1
        MOV     R6,A
//  370     zcl_mem_free( buf );
        ; Setup parameters for call to function osal_mem_free
        MOV     R2,?V0 + 8
        MOV     R3,?V0 + 9
        LCALL   ??osal_mem_free?relay
        SJMP    ??zclLL_Send_NwkStartReq_1
//  371   }
//  372   else
//  373   {
//  374     status = ZMemError;
??zclLL_Send_NwkStartReq_0:
        MOV     R6,#0x10
//  375   }
//  376 
//  377   return ( status );
??zclLL_Send_NwkStartReq_1:
        LJMP    ?Subroutine1 & 0xFFFF
          CFI EndBlock cfiBlock27
//  378 }

        RSEG BANKED_CODE:CODE:NOROOT(0)
?Subroutine102:
          CFI Block cfiCond28 Using cfiCommon0
          CFI Function zclLL_Send_NwkStartReq
          CFI Conditional ??CrossCallReturnLabel_188
          CFI R6 load(1, XDATA, add(CFA_XSP16, literal(-18)))
          CFI VB load(1, XDATA, add(CFA_XSP16, literal(-17)))
          CFI V0 load(1, XDATA, add(CFA_XSP16, literal(-16)))
          CFI V1 load(1, XDATA, add(CFA_XSP16, literal(-15)))
          CFI V2 load(1, XDATA, add(CFA_XSP16, literal(-14)))
          CFI V3 load(1, XDATA, add(CFA_XSP16, literal(-13)))
          CFI V4 load(1, XDATA, add(CFA_XSP16, literal(-12)))
          CFI V5 load(1, XDATA, add(CFA_XSP16, literal(-11)))
          CFI V6 load(1, XDATA, add(CFA_XSP16, literal(-10)))
          CFI V7 load(1, XDATA, add(CFA_XSP16, literal(-9)))
          CFI V8 load(1, XDATA, add(CFA_XSP16, literal(-8)))
          CFI V9 load(1, XDATA, add(CFA_XSP16, literal(-7)))
          CFI R7 load(1, XDATA, add(CFA_XSP16, literal(-6)))
          CFI ?RET_LOW load(1, XDATA, add(CFA_XSP16, literal(-5)))
          CFI ?RET_HIGH load(1, XDATA, add(CFA_XSP16, literal(-4)))
          CFI ?BRET_EXT load(1, XDATA, add(CFA_XSP16, literal(-3)))
          CFI DPL0 load(1, XDATA, add(CFA_XSP16, literal(-2)))
          CFI DPH0 load(1, XDATA, add(CFA_XSP16, literal(-1)))
          CFI CFA_SP SP+0
          CFI CFA_XSP16 add(XSP16, 18)
          CFI Block cfiCond29 Using cfiCommon0
          CFI (cfiCond29) Function zclLL_Send_ScanRsp
          CFI (cfiCond29) Conditional ??CrossCallReturnLabel_189
          CFI (cfiCond29) R6 load(1, XDATA, add(CFA_XSP16, literal(-20)))
          CFI (cfiCond29) VB load(1, XDATA, add(CFA_XSP16, literal(-19)))
          CFI (cfiCond29) V0 load(1, XDATA, add(CFA_XSP16, literal(-18)))
          CFI (cfiCond29) V1 load(1, XDATA, add(CFA_XSP16, literal(-17)))
          CFI (cfiCond29) V2 load(1, XDATA, add(CFA_XSP16, literal(-16)))
          CFI (cfiCond29) V3 load(1, XDATA, add(CFA_XSP16, literal(-15)))
          CFI (cfiCond29) V4 load(1, XDATA, add(CFA_XSP16, literal(-14)))
          CFI (cfiCond29) V5 load(1, XDATA, add(CFA_XSP16, literal(-13)))
          CFI (cfiCond29) V6 load(1, XDATA, add(CFA_XSP16, literal(-12)))
          CFI (cfiCond29) V7 load(1, XDATA, add(CFA_XSP16, literal(-11)))
          CFI (cfiCond29) V8 load(1, XDATA, add(CFA_XSP16, literal(-10)))
          CFI (cfiCond29) V9 load(1, XDATA, add(CFA_XSP16, literal(-9)))
          CFI (cfiCond29) V10 load(1, XDATA, add(CFA_XSP16, literal(-8)))
          CFI (cfiCond29) V11 load(1, XDATA, add(CFA_XSP16, literal(-7)))
          CFI (cfiCond29) R7 load(1, XDATA, add(CFA_XSP16, literal(-6)))
          CFI (cfiCond29) ?RET_LOW load(1, XDATA, add(CFA_XSP16, literal(-5)))
          CFI (cfiCond29) ?RET_HIGH load(1, XDATA, add(CFA_XSP16, literal(-4)))
          CFI (cfiCond29) ?BRET_EXT load(1, XDATA, add(CFA_XSP16, literal(-3)))
          CFI (cfiCond29) DPL0 load(1, XDATA, add(CFA_XSP16, literal(-2)))
          CFI (cfiCond29) DPH0 load(1, XDATA, add(CFA_XSP16, literal(-1)))
          CFI (cfiCond29) CFA_SP SP+0
          CFI (cfiCond29) CFA_XSP16 add(XSP16, 20)
          CFI Block cfiPicker30 Using cfiCommon1
          CFI (cfiPicker30) NoFunction
          CFI (cfiPicker30) Picker
        MOV     R0,A
        MOV     A,R7
          CFI EndBlock cfiCond28
          CFI EndBlock cfiCond29
          CFI EndBlock cfiPicker30
        REQUIRE ??Subroutine126_0
        ; // Fall through to label ??Subroutine126_0

        RSEG BANKED_CODE:CODE:NOROOT(0)
??Subroutine126_0:
          CFI Block cfiCond31 Using cfiCommon0
          CFI Function zclLL_Send_IndentifyReq
          CFI Conditional ??CrossCallReturnLabel_187, ??CrossCallReturnLabel_123
          CFI R6 load(1, XDATA, add(CFA_XSP16, literal(-12)))
          CFI VB load(1, XDATA, add(CFA_XSP16, literal(-11)))
          CFI V0 load(1, XDATA, add(CFA_XSP16, literal(-10)))
          CFI V1 load(1, XDATA, add(CFA_XSP16, literal(-9)))
          CFI V2 load(1, XDATA, add(CFA_XSP16, literal(-8)))
          CFI V3 load(1, XDATA, add(CFA_XSP16, literal(-7)))
          CFI R7 load(1, XDATA, add(CFA_XSP16, literal(-6)))
          CFI ?RET_LOW load(1, XDATA, add(CFA_XSP16, literal(-5)))
          CFI ?RET_HIGH load(1, XDATA, add(CFA_XSP16, literal(-4)))
          CFI ?BRET_EXT load(1, XDATA, add(CFA_XSP16, literal(-3)))
          CFI DPL0 load(1, XDATA, add(CFA_XSP16, literal(-2)))
          CFI DPH0 load(1, XDATA, add(CFA_XSP16, literal(-1)))
          CFI CFA_SP SP+0
          CFI CFA_XSP16 add(XSP16, 18)
          CFI Block cfiCond32 Using cfiCommon0
          CFI (cfiCond32) Function zclLL_ProcessInCmd_GetGrpIDsRsp
          CFI (cfiCond32) Conditional ??CrossCallReturnLabel_187, ??CrossCallReturnLabel_122
          CFI (cfiCond32) R6 load(1, XDATA, add(CFA_XSP16, literal(-18)))
          CFI (cfiCond32) VB load(1, XDATA, add(CFA_XSP16, literal(-17)))
          CFI (cfiCond32) V0 load(1, XDATA, add(CFA_XSP16, literal(-16)))
          CFI (cfiCond32) V1 load(1, XDATA, add(CFA_XSP16, literal(-15)))
          CFI (cfiCond32) V2 load(1, XDATA, add(CFA_XSP16, literal(-14)))
          CFI (cfiCond32) V3 load(1, XDATA, add(CFA_XSP16, literal(-13)))
          CFI (cfiCond32) V4 load(1, XDATA, add(CFA_XSP16, literal(-12)))
          CFI (cfiCond32) V5 load(1, XDATA, add(CFA_XSP16, literal(-11)))
          CFI (cfiCond32) V6 load(1, XDATA, add(CFA_XSP16, literal(-10)))
          CFI (cfiCond32) V7 load(1, XDATA, add(CFA_XSP16, literal(-9)))
          CFI (cfiCond32) V8 load(1, XDATA, add(CFA_XSP16, literal(-8)))
          CFI (cfiCond32) V9 load(1, XDATA, add(CFA_XSP16, literal(-7)))
          CFI (cfiCond32) R7 load(1, XDATA, add(CFA_XSP16, literal(-6)))
          CFI (cfiCond32) ?RET_LOW load(1, XDATA, add(CFA_XSP16, literal(-5)))
          CFI (cfiCond32) ?RET_HIGH load(1, XDATA, add(CFA_XSP16, literal(-4)))
          CFI (cfiCond32) ?BRET_EXT load(1, XDATA, add(CFA_XSP16, literal(-3)))
          CFI (cfiCond32) DPL0 load(1, XDATA, add(CFA_XSP16, literal(-2)))
          CFI (cfiCond32) DPH0 load(1, XDATA, add(CFA_XSP16, literal(-1)))
          CFI (cfiCond32) CFA_SP SP+0
          CFI (cfiCond32) CFA_XSP16 add(XSP16, 18)
          CFI Block cfiCond33 Using cfiCommon0
          CFI (cfiCond33) Function zclLL_Send_NwkStartReq
          CFI (cfiCond33) Conditional ??CrossCallReturnLabel_188
          CFI (cfiCond33) R6 load(1, XDATA, add(CFA_XSP16, literal(-18)))
          CFI (cfiCond33) VB load(1, XDATA, add(CFA_XSP16, literal(-17)))
          CFI (cfiCond33) V0 load(1, XDATA, add(CFA_XSP16, literal(-16)))
          CFI (cfiCond33) V1 load(1, XDATA, add(CFA_XSP16, literal(-15)))
          CFI (cfiCond33) V2 load(1, XDATA, add(CFA_XSP16, literal(-14)))
          CFI (cfiCond33) V3 load(1, XDATA, add(CFA_XSP16, literal(-13)))
          CFI (cfiCond33) V4 load(1, XDATA, add(CFA_XSP16, literal(-12)))
          CFI (cfiCond33) V5 load(1, XDATA, add(CFA_XSP16, literal(-11)))
          CFI (cfiCond33) V6 load(1, XDATA, add(CFA_XSP16, literal(-10)))
          CFI (cfiCond33) V7 load(1, XDATA, add(CFA_XSP16, literal(-9)))
          CFI (cfiCond33) V8 load(1, XDATA, add(CFA_XSP16, literal(-8)))
          CFI (cfiCond33) V9 load(1, XDATA, add(CFA_XSP16, literal(-7)))
          CFI (cfiCond33) R7 load(1, XDATA, add(CFA_XSP16, literal(-6)))
          CFI (cfiCond33) ?RET_LOW load(1, XDATA, add(CFA_XSP16, literal(-5)))
          CFI (cfiCond33) ?RET_HIGH load(1, XDATA, add(CFA_XSP16, literal(-4)))
          CFI (cfiCond33) ?BRET_EXT load(1, XDATA, add(CFA_XSP16, literal(-3)))
          CFI (cfiCond33) DPL0 load(1, XDATA, add(CFA_XSP16, literal(-2)))
          CFI (cfiCond33) DPH0 load(1, XDATA, add(CFA_XSP16, literal(-1)))
          CFI (cfiCond33) CFA_SP SP+0
          CFI (cfiCond33) CFA_XSP16 add(XSP16, 18)
          CFI Block cfiCond34 Using cfiCommon0
          CFI (cfiCond34) Function zclLL_Send_ScanRsp
          CFI (cfiCond34) Conditional ??CrossCallReturnLabel_189
          CFI (cfiCond34) R6 load(1, XDATA, add(CFA_XSP16, literal(-20)))
          CFI (cfiCond34) VB load(1, XDATA, add(CFA_XSP16, literal(-19)))
          CFI (cfiCond34) V0 load(1, XDATA, add(CFA_XSP16, literal(-18)))
          CFI (cfiCond34) V1 load(1, XDATA, add(CFA_XSP16, literal(-17)))
          CFI (cfiCond34) V2 load(1, XDATA, add(CFA_XSP16, literal(-16)))
          CFI (cfiCond34) V3 load(1, XDATA, add(CFA_XSP16, literal(-15)))
          CFI (cfiCond34) V4 load(1, XDATA, add(CFA_XSP16, literal(-14)))
          CFI (cfiCond34) V5 load(1, XDATA, add(CFA_XSP16, literal(-13)))
          CFI (cfiCond34) V6 load(1, XDATA, add(CFA_XSP16, literal(-12)))
          CFI (cfiCond34) V7 load(1, XDATA, add(CFA_XSP16, literal(-11)))
          CFI (cfiCond34) V8 load(1, XDATA, add(CFA_XSP16, literal(-10)))
          CFI (cfiCond34) V9 load(1, XDATA, add(CFA_XSP16, literal(-9)))
          CFI (cfiCond34) V10 load(1, XDATA, add(CFA_XSP16, literal(-8)))
          CFI (cfiCond34) V11 load(1, XDATA, add(CFA_XSP16, literal(-7)))
          CFI (cfiCond34) R7 load(1, XDATA, add(CFA_XSP16, literal(-6)))
          CFI (cfiCond34) ?RET_LOW load(1, XDATA, add(CFA_XSP16, literal(-5)))
          CFI (cfiCond34) ?RET_HIGH load(1, XDATA, add(CFA_XSP16, literal(-4)))
          CFI (cfiCond34) ?BRET_EXT load(1, XDATA, add(CFA_XSP16, literal(-3)))
          CFI (cfiCond34) DPL0 load(1, XDATA, add(CFA_XSP16, literal(-2)))
          CFI (cfiCond34) DPH0 load(1, XDATA, add(CFA_XSP16, literal(-1)))
          CFI (cfiCond34) CFA_SP SP+0
          CFI (cfiCond34) CFA_XSP16 add(XSP16, 20)
          CFI Block cfiPicker35 Using cfiCommon1
          CFI (cfiPicker35) NoFunction
          CFI (cfiPicker35) Picker
        ADDC    A,#0x0
        MOV     R1,A
        MOV     DPL,R0
        MOV     DPH,R1
        RET
          CFI EndBlock cfiCond31
          CFI EndBlock cfiCond32
          CFI EndBlock cfiCond33
          CFI EndBlock cfiCond34
          CFI EndBlock cfiPicker35
//  379 
//  380 /*********************************************************************
//  381  * @fn      zclLL_Send_NwkJoinReq
//  382  *
//  383  * @brief   Call to send out a Network Join Router/End Device Request command
//  384  *
//  385  * @param   srcEP - sending application's endpoint
//  386  * @param   dstAddr - where you want the message to go
//  387  * @param   pRsp - response parameters
//  388  * @param   cmd - COMMAND_ZLL_NWK_JOIN_RTR_REQ or COMMAND_ZLL_NWK_JOIN_ED_REQ
//  389  * @param   seqNum - sequence number
//  390  *
//  391  * @return  ZStatus_t
//  392  */

        RSEG BANKED_CODE:CODE:NOROOT(0)
//  393 ZStatus_t zclLL_Send_NwkJoinReq( uint8 srcEP, afAddrType_t *dstAddr,
zclLL_Send_NwkJoinReq:
          CFI Block cfiBlock36 Using cfiCommon0
          CFI Function zclLL_Send_NwkJoinReq
        CODE
//  394                                  zclLLNwkJoinReq_t *pRsp, uint8 cmd, uint8 seqNum )
//  395 {
        FUNCALL zclLL_Send_NwkJoinReq, osal_mem_alloc
        LOCFRAME ISTACK, 0, STACK
        LOCFRAME PSTACK, 0, STACK
        LOCFRAME XSTACK, 18, STACK
        LOCFRAME IOVERLAY, 0, STATIC
        LOCFRAME DOVERLAY, 0, STATIC
        ARGFRAME ISTACK, 0, STACK
        ARGFRAME PSTACK, 0, STACK
        ARGFRAME XSTACK, 18, STACK
        ARGFRAME IOVERLAY, 0, STATIC
        ARGFRAME DOVERLAY, 0, STATIC
        FUNCALL zclLL_Send_NwkJoinReq, osal_buffer_uint32
        LOCFRAME ISTACK, 0, STACK
        LOCFRAME PSTACK, 0, STACK
        LOCFRAME XSTACK, 22, STACK
        LOCFRAME IOVERLAY, 0, STATIC
        LOCFRAME DOVERLAY, 0, STATIC
        ARGFRAME ISTACK, 0, STACK
        ARGFRAME PSTACK, 0, STACK
        ARGFRAME XSTACK, 22, STACK
        ARGFRAME IOVERLAY, 0, STATIC
        ARGFRAME DOVERLAY, 0, STATIC
        FUNCALL zclLL_Send_NwkJoinReq, sAddrExtCpy
        LOCFRAME ISTACK, 0, STACK
        LOCFRAME PSTACK, 0, STACK
        LOCFRAME XSTACK, 18, STACK
        LOCFRAME IOVERLAY, 0, STATIC
        LOCFRAME DOVERLAY, 0, STATIC
        ARGFRAME ISTACK, 0, STACK
        ARGFRAME PSTACK, 0, STACK
        ARGFRAME XSTACK, 18, STACK
        ARGFRAME IOVERLAY, 0, STATIC
        ARGFRAME DOVERLAY, 0, STATIC
        FUNCALL zclLL_Send_NwkJoinReq, osal_memcpy
        LOCFRAME ISTACK, 0, STACK
        LOCFRAME PSTACK, 0, STACK
        LOCFRAME XSTACK, 21, STACK
        LOCFRAME IOVERLAY, 0, STATIC
        LOCFRAME DOVERLAY, 0, STATIC
        ARGFRAME ISTACK, 0, STACK
        ARGFRAME PSTACK, 0, STACK
        ARGFRAME XSTACK, 21, STACK
        ARGFRAME IOVERLAY, 0, STATIC
        ARGFRAME DOVERLAY, 0, STATIC
        FUNCALL zclLL_Send_NwkJoinReq, zclLL_SendInterPANCommand
        LOCFRAME ISTACK, 0, STACK
        LOCFRAME PSTACK, 0, STACK
        LOCFRAME XSTACK, 23, STACK
        LOCFRAME IOVERLAY, 0, STATIC
        LOCFRAME DOVERLAY, 0, STATIC
        ARGFRAME ISTACK, 0, STACK
        ARGFRAME PSTACK, 0, STACK
        ARGFRAME XSTACK, 23, STACK
        ARGFRAME IOVERLAY, 0, STATIC
        ARGFRAME DOVERLAY, 0, STATIC
        FUNCALL zclLL_Send_NwkJoinReq, osal_mem_free
        LOCFRAME ISTACK, 0, STACK
        LOCFRAME PSTACK, 0, STACK
        LOCFRAME XSTACK, 18, STACK
        LOCFRAME IOVERLAY, 0, STATIC
        LOCFRAME DOVERLAY, 0, STATIC
        ARGFRAME ISTACK, 0, STACK
        ARGFRAME PSTACK, 0, STACK
        ARGFRAME XSTACK, 18, STACK
        ARGFRAME IOVERLAY, 0, STATIC
        ARGFRAME DOVERLAY, 0, STATIC
        MOV     A,#-0x12
        LCALL   ?BANKED_ENTER_XDATA
          CFI DPH0 load(1, XDATA, add(CFA_XSP16, literal(-1)))
          CFI DPL0 load(1, XDATA, add(CFA_XSP16, literal(-2)))
          CFI ?BRET_EXT load(1, XDATA, add(CFA_XSP16, literal(-3)))
          CFI ?RET_HIGH load(1, XDATA, add(CFA_XSP16, literal(-4)))
          CFI ?RET_LOW load(1, XDATA, add(CFA_XSP16, literal(-5)))
          CFI R7 load(1, XDATA, add(CFA_XSP16, literal(-6)))
          CFI V9 load(1, XDATA, add(CFA_XSP16, literal(-7)))
          CFI V8 load(1, XDATA, add(CFA_XSP16, literal(-8)))
          CFI V7 load(1, XDATA, add(CFA_XSP16, literal(-9)))
          CFI V6 load(1, XDATA, add(CFA_XSP16, literal(-10)))
          CFI V5 load(1, XDATA, add(CFA_XSP16, literal(-11)))
          CFI V4 load(1, XDATA, add(CFA_XSP16, literal(-12)))
          CFI V3 load(1, XDATA, add(CFA_XSP16, literal(-13)))
          CFI V2 load(1, XDATA, add(CFA_XSP16, literal(-14)))
          CFI V1 load(1, XDATA, add(CFA_XSP16, literal(-15)))
          CFI V0 load(1, XDATA, add(CFA_XSP16, literal(-16)))
          CFI VB load(1, XDATA, add(CFA_XSP16, literal(-17)))
          CFI R6 load(1, XDATA, add(CFA_XSP16, literal(-18)))
          CFI CFA_SP SP+0
          CFI CFA_XSP16 add(XSP16, 18)
        ; Saved register size: 18
        ; Auto size: 0
        MOV     ?V0 + 9,R1
        MOV     ?V0 + 2,R2
        MOV     ?V0 + 3,R3
        MOV     A,R4
        MOV     R6,A
        MOV     A,R5
        MOV     R7,A
        MOV     A,#0x12
        LCALL   ?XSTACK_DISP0_8
        MOVX    A,@DPTR
        MOV     ?V0 + 8,A
        MOV     A,#0x13
        LCALL   ?XSTACK_DISP0_8
        MOVX    A,@DPTR
        MOV     ?V0 + 7,A
//  396   uint8 *buf;
//  397   uint8 *pBuf;
//  398   ZStatus_t status;
//  399 
//  400   buf = zcl_mem_alloc( ZLL_CMDLEN_NWK_JOIN_REQ );
        ; Setup parameters for call to function osal_mem_alloc
        MOV     R2,#0x2f
        MOV     R3,#0x0
        LCALL   ??osal_mem_alloc?relay
        MOV     ?V0 + 0,R2
        MOV     ?V0 + 1,R3
//  401   if ( buf != NULL )
        MOV     A,R2
        ORL     A,?V0 + 1
        JZ      ??zclLL_Send_NwkJoinReq_0
//  402   {
//  403     pBuf = buf;
//  404 
//  405     pBuf = zcl_buffer_uint32( pBuf, pRsp->transID );
        ; Setup parameters for call to function osal_buffer_uint32
        MOV     DPL,R6
        MOV     DPH,R7
        LCALL   ?PUSH_XSTACK8_X_FOUR
          CFI CFA_XSP16 add(XSP16, 22)
        LCALL   ??osal_buffer_uint32?relay
        MOV     A,#0x4
        LCALL   ?DEALLOC_XSTACK8
          CFI CFA_XSP16 add(XSP16, 18)
//  406     pBuf = zcl_cpyExtAddr( pBuf, pRsp->nwkParams.extendedPANID );
        ; Setup parameters for call to function sAddrExtCpy
        LCALL   ?Subroutine71 & 0xFFFF
??CrossCallReturnLabel_112:
        LCALL   ??sAddrExtCpy?relay
//  407 
//  408     *pBuf++ = pRsp->nwkParams.keyIndex;
        LCALL   ?Subroutine19 & 0xFFFF
//  409 
//  410     pBuf = zcl_memcpy( pBuf, pRsp->nwkParams.nwkKey, SEC_KEY_LEN );
??CrossCallReturnLabel_21:
        LCALL   ?PUSH_XSTACK_I_THREE
          CFI CFA_XSP16 add(XSP16, 21)
        MOV     R4,#0x10
        MOV     R5,#0x0
        LCALL   ??osal_memcpy?relay
        MOV     A,#0x3
        LCALL   ?DEALLOC_XSTACK8
          CFI CFA_XSP16 add(XSP16, 18)
//  411 
//  412     *pBuf++ = pRsp->nwkUpdateId;
        MOV     A,R6
        ADD     A,#0x2e
        LCALL   ?Subroutine27 & 0xFFFF
//  413     *pBuf++ = pRsp->nwkParams.logicalChannel;
??CrossCallReturnLabel_30:
        ADD     A,#0x1d
        MOV     DPL,A
        MOV     A,R7
        LCALL   ??Subroutine145_0 & 0xFFFF
??CrossCallReturnLabel_265:
        LCALL   ?Subroutine50 & 0xFFFF
??CrossCallReturnLabel_73:
        LCALL   ?Subroutine7 & 0xFFFF
//  414 
//  415     *pBuf++ = LO_UINT16( pRsp->nwkParams.panId );
//  416     *pBuf++ = HI_UINT16( pRsp->nwkParams.panId );
//  417 
//  418     *pBuf++ = LO_UINT16( pRsp->nwkParams.nwkAddr );
//  419     *pBuf++ = HI_UINT16( pRsp->nwkParams.nwkAddr );
//  420 
//  421     *pBuf++ = LO_UINT16( pRsp->nwkParams.grpIDsBegin );
//  422     *pBuf++ = HI_UINT16( pRsp->nwkParams.grpIDsBegin );
//  423 
//  424     *pBuf++ = LO_UINT16( pRsp->nwkParams.grpIDsEnd );
//  425     *pBuf++ = HI_UINT16( pRsp->nwkParams.grpIDsEnd );
//  426 
//  427     *pBuf++ = LO_UINT16( pRsp->nwkParams.freeNwkAddrBegin );
//  428     *pBuf++ = HI_UINT16( pRsp->nwkParams.freeNwkAddrBegin );
//  429 
//  430     *pBuf++ = LO_UINT16( pRsp->nwkParams.freeNwkAddrEnd );
//  431     *pBuf++ = HI_UINT16( pRsp->nwkParams.freeNwkAddrEnd );
//  432 
//  433     *pBuf++ = LO_UINT16( pRsp->nwkParams.freeGrpIDBegin );
//  434     *pBuf++ = HI_UINT16( pRsp->nwkParams.freeGrpIDBegin );
//  435 
//  436     *pBuf++ = LO_UINT16( pRsp->nwkParams.freeGrpIDEnd );
//  437     *pBuf++ = HI_UINT16( pRsp->nwkParams.freeGrpIDEnd );
//  438 
//  439     status = zclLL_SendInterPANCommand( srcEP, dstAddr, cmd, ZCL_FRAME_CLIENT_SERVER_DIR, seqNum,
//  440                                         ZLL_CMDLEN_NWK_JOIN_REQ, buf );
??CrossCallReturnLabel_1:
        ; Setup parameters for call to function zclLL_SendInterPANCommand
        MOV     R0,#?V0 + 0
        LCALL   ?PUSH_XSTACK_I_TWO
          CFI CFA_XSP16 add(XSP16, 20)
        MOV     ?V0 + 4,#0x2f
        MOV     ?V0 + 5,#0x0
        MOV     R0,#?V0 + 4
        LCALL   ?PUSH_XSTACK_I_TWO
          CFI CFA_XSP16 add(XSP16, 22)
        MOV     A,?V0 + 7
        MOV     ?V0 + 4,A
        MOV     R0,#?V0 + 4
        LCALL   ?PUSH_XSTACK_I_ONE
          CFI CFA_XSP16 add(XSP16, 23)
        MOV     R5,#0x0
        MOV     R4,?V0 + 8
        MOV     R2,?V0 + 2
        MOV     R3,?V0 + 3
        MOV     R1,?V0 + 9
        LCALL   ??zclLL_SendInterPANCommand?relay
        MOV     A,#0x5
        LCALL   ?DEALLOC_XSTACK8
          CFI CFA_XSP16 add(XSP16, 18)
        MOV     A,R1
        MOV     R6,A
//  441     zcl_mem_free( buf );
        ; Setup parameters for call to function osal_mem_free
        MOV     R2,?V0 + 0
        MOV     R3,?V0 + 1
        LCALL   ??osal_mem_free?relay
        SJMP    ??zclLL_Send_NwkJoinReq_1
//  442   }
//  443   else
//  444   {
//  445     status = ZMemError;
??zclLL_Send_NwkJoinReq_0:
        MOV     R6,#0x10
//  446   }
//  447 
//  448   return ( status );
??zclLL_Send_NwkJoinReq_1:
        LJMP    ?Subroutine1 & 0xFFFF
          CFI EndBlock cfiBlock36
//  449 }

        RSEG BANKED_CODE:CODE:NOROOT(0)
?Subroutine71:
          CFI Block cfiCond37 Using cfiCommon0
          CFI Function zclLL_Send_NwkStartReq
          CFI Conditional ??CrossCallReturnLabel_111
          CFI R6 load(1, XDATA, add(CFA_XSP16, literal(-18)))
          CFI VB load(1, XDATA, add(CFA_XSP16, literal(-17)))
          CFI V0 load(1, XDATA, add(CFA_XSP16, literal(-16)))
          CFI V1 load(1, XDATA, add(CFA_XSP16, literal(-15)))
          CFI V2 load(1, XDATA, add(CFA_XSP16, literal(-14)))
          CFI V3 load(1, XDATA, add(CFA_XSP16, literal(-13)))
          CFI V4 load(1, XDATA, add(CFA_XSP16, literal(-12)))
          CFI V5 load(1, XDATA, add(CFA_XSP16, literal(-11)))
          CFI V6 load(1, XDATA, add(CFA_XSP16, literal(-10)))
          CFI V7 load(1, XDATA, add(CFA_XSP16, literal(-9)))
          CFI V8 load(1, XDATA, add(CFA_XSP16, literal(-8)))
          CFI V9 load(1, XDATA, add(CFA_XSP16, literal(-7)))
          CFI R7 load(1, XDATA, add(CFA_XSP16, literal(-6)))
          CFI ?RET_LOW load(1, XDATA, add(CFA_XSP16, literal(-5)))
          CFI ?RET_HIGH load(1, XDATA, add(CFA_XSP16, literal(-4)))
          CFI ?BRET_EXT load(1, XDATA, add(CFA_XSP16, literal(-3)))
          CFI DPL0 load(1, XDATA, add(CFA_XSP16, literal(-2)))
          CFI DPH0 load(1, XDATA, add(CFA_XSP16, literal(-1)))
          CFI CFA_SP SP+0
          CFI CFA_XSP16 add(XSP16, 18)
          CFI Block cfiCond38 Using cfiCommon0
          CFI (cfiCond38) Function zclLL_Send_NwkJoinReq
          CFI (cfiCond38) Conditional ??CrossCallReturnLabel_112
          CFI (cfiCond38) R6 load(1, XDATA, add(CFA_XSP16, literal(-18)))
          CFI (cfiCond38) VB load(1, XDATA, add(CFA_XSP16, literal(-17)))
          CFI (cfiCond38) V0 load(1, XDATA, add(CFA_XSP16, literal(-16)))
          CFI (cfiCond38) V1 load(1, XDATA, add(CFA_XSP16, literal(-15)))
          CFI (cfiCond38) V2 load(1, XDATA, add(CFA_XSP16, literal(-14)))
          CFI (cfiCond38) V3 load(1, XDATA, add(CFA_XSP16, literal(-13)))
          CFI (cfiCond38) V4 load(1, XDATA, add(CFA_XSP16, literal(-12)))
          CFI (cfiCond38) V5 load(1, XDATA, add(CFA_XSP16, literal(-11)))
          CFI (cfiCond38) V6 load(1, XDATA, add(CFA_XSP16, literal(-10)))
          CFI (cfiCond38) V7 load(1, XDATA, add(CFA_XSP16, literal(-9)))
          CFI (cfiCond38) V8 load(1, XDATA, add(CFA_XSP16, literal(-8)))
          CFI (cfiCond38) V9 load(1, XDATA, add(CFA_XSP16, literal(-7)))
          CFI (cfiCond38) R7 load(1, XDATA, add(CFA_XSP16, literal(-6)))
          CFI (cfiCond38) ?RET_LOW load(1, XDATA, add(CFA_XSP16, literal(-5)))
          CFI (cfiCond38) ?RET_HIGH load(1, XDATA, add(CFA_XSP16, literal(-4)))
          CFI (cfiCond38) ?BRET_EXT load(1, XDATA, add(CFA_XSP16, literal(-3)))
          CFI (cfiCond38) DPL0 load(1, XDATA, add(CFA_XSP16, literal(-2)))
          CFI (cfiCond38) DPH0 load(1, XDATA, add(CFA_XSP16, literal(-1)))
          CFI (cfiCond38) CFA_SP SP+0
          CFI (cfiCond38) CFA_XSP16 add(XSP16, 18)
          CFI Block cfiCond39 Using cfiCommon0
          CFI (cfiCond39) Function zclLL_Send_NwkUpdateReq
          CFI (cfiCond39) Conditional ??CrossCallReturnLabel_113
          CFI (cfiCond39) R6 load(1, XDATA, add(CFA_XSP16, literal(-16)))
          CFI (cfiCond39) VB load(1, XDATA, add(CFA_XSP16, literal(-15)))
          CFI (cfiCond39) V0 load(1, XDATA, add(CFA_XSP16, literal(-14)))
          CFI (cfiCond39) V1 load(1, XDATA, add(CFA_XSP16, literal(-13)))
          CFI (cfiCond39) V2 load(1, XDATA, add(CFA_XSP16, literal(-12)))
          CFI (cfiCond39) V3 load(1, XDATA, add(CFA_XSP16, literal(-11)))
          CFI (cfiCond39) V4 load(1, XDATA, add(CFA_XSP16, literal(-10)))
          CFI (cfiCond39) V5 load(1, XDATA, add(CFA_XSP16, literal(-9)))
          CFI (cfiCond39) V6 load(1, XDATA, add(CFA_XSP16, literal(-8)))
          CFI (cfiCond39) V7 load(1, XDATA, add(CFA_XSP16, literal(-7)))
          CFI (cfiCond39) R7 load(1, XDATA, add(CFA_XSP16, literal(-6)))
          CFI (cfiCond39) ?RET_LOW load(1, XDATA, add(CFA_XSP16, literal(-5)))
          CFI (cfiCond39) ?RET_HIGH load(1, XDATA, add(CFA_XSP16, literal(-4)))
          CFI (cfiCond39) ?BRET_EXT load(1, XDATA, add(CFA_XSP16, literal(-3)))
          CFI (cfiCond39) DPL0 load(1, XDATA, add(CFA_XSP16, literal(-2)))
          CFI (cfiCond39) DPH0 load(1, XDATA, add(CFA_XSP16, literal(-1)))
          CFI (cfiCond39) CFA_SP SP+0
          CFI (cfiCond39) CFA_XSP16 add(XSP16, 16)
          CFI Block cfiPicker40 Using cfiCommon1
          CFI (cfiPicker40) NoFunction
          CFI (cfiPicker40) Picker
        MOV     A,R6
        ADD     A,#0x4
        MOV     R4,A
        MOV     A,R7
        ADDC    A,#0x0
        MOV     R5,A
        RET
          CFI EndBlock cfiCond37
          CFI EndBlock cfiCond38
          CFI EndBlock cfiCond39
          CFI EndBlock cfiPicker40

        RSEG BANKED_CODE:CODE:NOROOT(0)
?Subroutine19:
          CFI Block cfiCond41 Using cfiCommon0
          CFI Function zclLL_Send_NwkStartReq
          CFI Conditional ??CrossCallReturnLabel_20
          CFI R6 load(1, XDATA, add(CFA_XSP16, literal(-18)))
          CFI VB load(1, XDATA, add(CFA_XSP16, literal(-17)))
          CFI V0 load(1, XDATA, add(CFA_XSP16, literal(-16)))
          CFI V1 load(1, XDATA, add(CFA_XSP16, literal(-15)))
          CFI V2 load(1, XDATA, add(CFA_XSP16, literal(-14)))
          CFI V3 load(1, XDATA, add(CFA_XSP16, literal(-13)))
          CFI V4 load(1, XDATA, add(CFA_XSP16, literal(-12)))
          CFI V5 load(1, XDATA, add(CFA_XSP16, literal(-11)))
          CFI V6 load(1, XDATA, add(CFA_XSP16, literal(-10)))
          CFI V7 load(1, XDATA, add(CFA_XSP16, literal(-9)))
          CFI V8 load(1, XDATA, add(CFA_XSP16, literal(-8)))
          CFI V9 load(1, XDATA, add(CFA_XSP16, literal(-7)))
          CFI R7 load(1, XDATA, add(CFA_XSP16, literal(-6)))
          CFI ?RET_LOW load(1, XDATA, add(CFA_XSP16, literal(-5)))
          CFI ?RET_HIGH load(1, XDATA, add(CFA_XSP16, literal(-4)))
          CFI ?BRET_EXT load(1, XDATA, add(CFA_XSP16, literal(-3)))
          CFI DPL0 load(1, XDATA, add(CFA_XSP16, literal(-2)))
          CFI DPH0 load(1, XDATA, add(CFA_XSP16, literal(-1)))
          CFI CFA_SP SP+0
          CFI CFA_XSP16 add(XSP16, 18)
          CFI Block cfiCond42 Using cfiCommon0
          CFI (cfiCond42) Function zclLL_Send_NwkJoinReq
          CFI (cfiCond42) Conditional ??CrossCallReturnLabel_21
          CFI (cfiCond42) R6 load(1, XDATA, add(CFA_XSP16, literal(-18)))
          CFI (cfiCond42) VB load(1, XDATA, add(CFA_XSP16, literal(-17)))
          CFI (cfiCond42) V0 load(1, XDATA, add(CFA_XSP16, literal(-16)))
          CFI (cfiCond42) V1 load(1, XDATA, add(CFA_XSP16, literal(-15)))
          CFI (cfiCond42) V2 load(1, XDATA, add(CFA_XSP16, literal(-14)))
          CFI (cfiCond42) V3 load(1, XDATA, add(CFA_XSP16, literal(-13)))
          CFI (cfiCond42) V4 load(1, XDATA, add(CFA_XSP16, literal(-12)))
          CFI (cfiCond42) V5 load(1, XDATA, add(CFA_XSP16, literal(-11)))
          CFI (cfiCond42) V6 load(1, XDATA, add(CFA_XSP16, literal(-10)))
          CFI (cfiCond42) V7 load(1, XDATA, add(CFA_XSP16, literal(-9)))
          CFI (cfiCond42) V8 load(1, XDATA, add(CFA_XSP16, literal(-8)))
          CFI (cfiCond42) V9 load(1, XDATA, add(CFA_XSP16, literal(-7)))
          CFI (cfiCond42) R7 load(1, XDATA, add(CFA_XSP16, literal(-6)))
          CFI (cfiCond42) ?RET_LOW load(1, XDATA, add(CFA_XSP16, literal(-5)))
          CFI (cfiCond42) ?RET_HIGH load(1, XDATA, add(CFA_XSP16, literal(-4)))
          CFI (cfiCond42) ?BRET_EXT load(1, XDATA, add(CFA_XSP16, literal(-3)))
          CFI (cfiCond42) DPL0 load(1, XDATA, add(CFA_XSP16, literal(-2)))
          CFI (cfiCond42) DPH0 load(1, XDATA, add(CFA_XSP16, literal(-1)))
          CFI (cfiCond42) CFA_SP SP+0
          CFI (cfiCond42) CFA_XSP16 add(XSP16, 18)
          CFI Block cfiPicker43 Using cfiCommon1
          CFI (cfiPicker43) NoFunction
          CFI (cfiPicker43) Picker
        MOV     A,R6
        ADD     A,#0xc
        LCALL   ?Subroutine88 & 0xFFFF
??CrossCallReturnLabel_142:
        ADD     A,#0xd
        MOV     ?V0 + 4,A
        MOV     A,R7
        ADDC    A,#0x0
        MOV     ?V0 + 5,A
        MOV     ?V0 + 6,#0x0
        MOV     R0,#?V0 + 4
        RET
          CFI EndBlock cfiCond41
          CFI EndBlock cfiCond42
          CFI EndBlock cfiPicker43

        RSEG BANKED_CODE:CODE:NOROOT(0)
?Subroutine7:
          CFI Block cfiCond44 Using cfiCommon0
          CFI Function zclLL_Send_NwkStartReq
          CFI Conditional ??CrossCallReturnLabel_0
          CFI R6 load(1, XDATA, add(CFA_XSP16, literal(-18)))
          CFI VB load(1, XDATA, add(CFA_XSP16, literal(-17)))
          CFI V0 load(1, XDATA, add(CFA_XSP16, literal(-16)))
          CFI V1 load(1, XDATA, add(CFA_XSP16, literal(-15)))
          CFI V2 load(1, XDATA, add(CFA_XSP16, literal(-14)))
          CFI V3 load(1, XDATA, add(CFA_XSP16, literal(-13)))
          CFI V4 load(1, XDATA, add(CFA_XSP16, literal(-12)))
          CFI V5 load(1, XDATA, add(CFA_XSP16, literal(-11)))
          CFI V6 load(1, XDATA, add(CFA_XSP16, literal(-10)))
          CFI V7 load(1, XDATA, add(CFA_XSP16, literal(-9)))
          CFI V8 load(1, XDATA, add(CFA_XSP16, literal(-8)))
          CFI V9 load(1, XDATA, add(CFA_XSP16, literal(-7)))
          CFI R7 load(1, XDATA, add(CFA_XSP16, literal(-6)))
          CFI ?RET_LOW load(1, XDATA, add(CFA_XSP16, literal(-5)))
          CFI ?RET_HIGH load(1, XDATA, add(CFA_XSP16, literal(-4)))
          CFI ?BRET_EXT load(1, XDATA, add(CFA_XSP16, literal(-3)))
          CFI DPL0 load(1, XDATA, add(CFA_XSP16, literal(-2)))
          CFI DPH0 load(1, XDATA, add(CFA_XSP16, literal(-1)))
          CFI CFA_SP SP+0
          CFI CFA_XSP16 add(XSP16, 18)
          CFI Block cfiCond45 Using cfiCommon0
          CFI (cfiCond45) Function zclLL_Send_NwkJoinReq
          CFI (cfiCond45) Conditional ??CrossCallReturnLabel_1
          CFI (cfiCond45) R6 load(1, XDATA, add(CFA_XSP16, literal(-18)))
          CFI (cfiCond45) VB load(1, XDATA, add(CFA_XSP16, literal(-17)))
          CFI (cfiCond45) V0 load(1, XDATA, add(CFA_XSP16, literal(-16)))
          CFI (cfiCond45) V1 load(1, XDATA, add(CFA_XSP16, literal(-15)))
          CFI (cfiCond45) V2 load(1, XDATA, add(CFA_XSP16, literal(-14)))
          CFI (cfiCond45) V3 load(1, XDATA, add(CFA_XSP16, literal(-13)))
          CFI (cfiCond45) V4 load(1, XDATA, add(CFA_XSP16, literal(-12)))
          CFI (cfiCond45) V5 load(1, XDATA, add(CFA_XSP16, literal(-11)))
          CFI (cfiCond45) V6 load(1, XDATA, add(CFA_XSP16, literal(-10)))
          CFI (cfiCond45) V7 load(1, XDATA, add(CFA_XSP16, literal(-9)))
          CFI (cfiCond45) V8 load(1, XDATA, add(CFA_XSP16, literal(-8)))
          CFI (cfiCond45) V9 load(1, XDATA, add(CFA_XSP16, literal(-7)))
          CFI (cfiCond45) R7 load(1, XDATA, add(CFA_XSP16, literal(-6)))
          CFI (cfiCond45) ?RET_LOW load(1, XDATA, add(CFA_XSP16, literal(-5)))
          CFI (cfiCond45) ?RET_HIGH load(1, XDATA, add(CFA_XSP16, literal(-4)))
          CFI (cfiCond45) ?BRET_EXT load(1, XDATA, add(CFA_XSP16, literal(-3)))
          CFI (cfiCond45) DPL0 load(1, XDATA, add(CFA_XSP16, literal(-2)))
          CFI (cfiCond45) DPH0 load(1, XDATA, add(CFA_XSP16, literal(-1)))
          CFI (cfiCond45) CFA_SP SP+0
          CFI (cfiCond45) CFA_XSP16 add(XSP16, 18)
          CFI Block cfiPicker46 Using cfiCommon1
          CFI (cfiPicker46) NoFunction
          CFI (cfiPicker46) Picker
        MOV     R3,DPH
        MOV     A,R6
        ADD     A,#0x1e
        LCALL   ?Subroutine81 & 0xFFFF
??CrossCallReturnLabel_126:
        ADD     A,#0x20
        LCALL   ?Subroutine81 & 0xFFFF
??CrossCallReturnLabel_127:
        ADD     A,#0x22
        LCALL   ?Subroutine81 & 0xFFFF
??CrossCallReturnLabel_128:
        ADD     A,#0x24
        LCALL   ?Subroutine81 & 0xFFFF
??CrossCallReturnLabel_129:
        ADD     A,#0x26
        LCALL   ?Subroutine81 & 0xFFFF
??CrossCallReturnLabel_130:
        ADD     A,#0x28
        LCALL   ?Subroutine81 & 0xFFFF
??CrossCallReturnLabel_131:
        ADD     A,#0x2a
        LCALL   ?Subroutine81 & 0xFFFF
??CrossCallReturnLabel_132:
        ADD     A,#0x2c
        MOV     R0,A
        MOV     A,R7
        LCALL   ?Subroutine84 & 0xFFFF
??CrossCallReturnLabel_135:
        RET
          CFI EndBlock cfiCond44
          CFI EndBlock cfiCond45
          CFI EndBlock cfiPicker46

        RSEG BANKED_CODE:CODE:NOROOT(0)
?Subroutine84:
          CFI Block cfiCond47 Using cfiCommon0
          CFI Function zclLL_Send_NwkStartReq
          CFI Conditional ??CrossCallReturnLabel_135, ??CrossCallReturnLabel_0
          CFI R6 load(1, XDATA, add(CFA_XSP16, literal(-18)))
          CFI VB load(1, XDATA, add(CFA_XSP16, literal(-17)))
          CFI V0 load(1, XDATA, add(CFA_XSP16, literal(-16)))
          CFI V1 load(1, XDATA, add(CFA_XSP16, literal(-15)))
          CFI V2 load(1, XDATA, add(CFA_XSP16, literal(-14)))
          CFI V3 load(1, XDATA, add(CFA_XSP16, literal(-13)))
          CFI V4 load(1, XDATA, add(CFA_XSP16, literal(-12)))
          CFI V5 load(1, XDATA, add(CFA_XSP16, literal(-11)))
          CFI V6 load(1, XDATA, add(CFA_XSP16, literal(-10)))
          CFI V7 load(1, XDATA, add(CFA_XSP16, literal(-9)))
          CFI V8 load(1, XDATA, add(CFA_XSP16, literal(-8)))
          CFI V9 load(1, XDATA, add(CFA_XSP16, literal(-7)))
          CFI R7 load(1, XDATA, add(CFA_XSP16, literal(-6)))
          CFI ?RET_LOW load(1, XDATA, add(CFA_XSP16, literal(-5)))
          CFI ?RET_HIGH load(1, XDATA, add(CFA_XSP16, literal(-4)))
          CFI ?BRET_EXT load(1, XDATA, add(CFA_XSP16, literal(-3)))
          CFI DPL0 load(1, XDATA, add(CFA_XSP16, literal(-2)))
          CFI DPH0 load(1, XDATA, add(CFA_XSP16, literal(-1)))
          CFI CFA_SP SP+0
          CFI CFA_XSP16 add(XSP16, 18)
          CFI Block cfiCond48 Using cfiCommon0
          CFI (cfiCond48) Function zclLL_Send_NwkJoinReq
          CFI (cfiCond48) Conditional ??CrossCallReturnLabel_135, ??CrossCallReturnLabel_1
          CFI (cfiCond48) R6 load(1, XDATA, add(CFA_XSP16, literal(-18)))
          CFI (cfiCond48) VB load(1, XDATA, add(CFA_XSP16, literal(-17)))
          CFI (cfiCond48) V0 load(1, XDATA, add(CFA_XSP16, literal(-16)))
          CFI (cfiCond48) V1 load(1, XDATA, add(CFA_XSP16, literal(-15)))
          CFI (cfiCond48) V2 load(1, XDATA, add(CFA_XSP16, literal(-14)))
          CFI (cfiCond48) V3 load(1, XDATA, add(CFA_XSP16, literal(-13)))
          CFI (cfiCond48) V4 load(1, XDATA, add(CFA_XSP16, literal(-12)))
          CFI (cfiCond48) V5 load(1, XDATA, add(CFA_XSP16, literal(-11)))
          CFI (cfiCond48) V6 load(1, XDATA, add(CFA_XSP16, literal(-10)))
          CFI (cfiCond48) V7 load(1, XDATA, add(CFA_XSP16, literal(-9)))
          CFI (cfiCond48) V8 load(1, XDATA, add(CFA_XSP16, literal(-8)))
          CFI (cfiCond48) V9 load(1, XDATA, add(CFA_XSP16, literal(-7)))
          CFI (cfiCond48) R7 load(1, XDATA, add(CFA_XSP16, literal(-6)))
          CFI (cfiCond48) ?RET_LOW load(1, XDATA, add(CFA_XSP16, literal(-5)))
          CFI (cfiCond48) ?RET_HIGH load(1, XDATA, add(CFA_XSP16, literal(-4)))
          CFI (cfiCond48) ?BRET_EXT load(1, XDATA, add(CFA_XSP16, literal(-3)))
          CFI (cfiCond48) DPL0 load(1, XDATA, add(CFA_XSP16, literal(-2)))
          CFI (cfiCond48) DPH0 load(1, XDATA, add(CFA_XSP16, literal(-1)))
          CFI (cfiCond48) CFA_SP SP+0
          CFI (cfiCond48) CFA_XSP16 add(XSP16, 18)
          CFI Block cfiCond49 Using cfiCommon0
          CFI (cfiCond49) Function zclLL_Send_NwkUpdateReq
          CFI (cfiCond49) Conditional ??CrossCallReturnLabel_136, ??CrossCallReturnLabel_26
          CFI (cfiCond49) R6 load(1, XDATA, add(CFA_XSP16, literal(-16)))
          CFI (cfiCond49) VB load(1, XDATA, add(CFA_XSP16, literal(-15)))
          CFI (cfiCond49) V0 load(1, XDATA, add(CFA_XSP16, literal(-14)))
          CFI (cfiCond49) V1 load(1, XDATA, add(CFA_XSP16, literal(-13)))
          CFI (cfiCond49) V2 load(1, XDATA, add(CFA_XSP16, literal(-12)))
          CFI (cfiCond49) V3 load(1, XDATA, add(CFA_XSP16, literal(-11)))
          CFI (cfiCond49) V4 load(1, XDATA, add(CFA_XSP16, literal(-10)))
          CFI (cfiCond49) V5 load(1, XDATA, add(CFA_XSP16, literal(-9)))
          CFI (cfiCond49) V6 load(1, XDATA, add(CFA_XSP16, literal(-8)))
          CFI (cfiCond49) V7 load(1, XDATA, add(CFA_XSP16, literal(-7)))
          CFI (cfiCond49) R7 load(1, XDATA, add(CFA_XSP16, literal(-6)))
          CFI (cfiCond49) ?RET_LOW load(1, XDATA, add(CFA_XSP16, literal(-5)))
          CFI (cfiCond49) ?RET_HIGH load(1, XDATA, add(CFA_XSP16, literal(-4)))
          CFI (cfiCond49) ?BRET_EXT load(1, XDATA, add(CFA_XSP16, literal(-3)))
          CFI (cfiCond49) DPL0 load(1, XDATA, add(CFA_XSP16, literal(-2)))
          CFI (cfiCond49) DPH0 load(1, XDATA, add(CFA_XSP16, literal(-1)))
          CFI (cfiCond49) CFA_SP SP+0
          CFI (cfiCond49) CFA_XSP16 add(XSP16, 16)
          CFI Block cfiCond50 Using cfiCommon0
          CFI (cfiCond50) Function zclLL_Send_NwkStartRsp
          CFI (cfiCond50) Conditional ??CrossCallReturnLabel_136, ??CrossCallReturnLabel_27
          CFI (cfiCond50) R6 load(1, XDATA, add(CFA_XSP16, literal(-16)))
          CFI (cfiCond50) VB load(1, XDATA, add(CFA_XSP16, literal(-15)))
          CFI (cfiCond50) V0 load(1, XDATA, add(CFA_XSP16, literal(-14)))
          CFI (cfiCond50) V1 load(1, XDATA, add(CFA_XSP16, literal(-13)))
          CFI (cfiCond50) V2 load(1, XDATA, add(CFA_XSP16, literal(-12)))
          CFI (cfiCond50) V3 load(1, XDATA, add(CFA_XSP16, literal(-11)))
          CFI (cfiCond50) V4 load(1, XDATA, add(CFA_XSP16, literal(-10)))
          CFI (cfiCond50) V5 load(1, XDATA, add(CFA_XSP16, literal(-9)))
          CFI (cfiCond50) V6 load(1, XDATA, add(CFA_XSP16, literal(-8)))
          CFI (cfiCond50) V7 load(1, XDATA, add(CFA_XSP16, literal(-7)))
          CFI (cfiCond50) R7 load(1, XDATA, add(CFA_XSP16, literal(-6)))
          CFI (cfiCond50) ?RET_LOW load(1, XDATA, add(CFA_XSP16, literal(-5)))
          CFI (cfiCond50) ?RET_HIGH load(1, XDATA, add(CFA_XSP16, literal(-4)))
          CFI (cfiCond50) ?BRET_EXT load(1, XDATA, add(CFA_XSP16, literal(-3)))
          CFI (cfiCond50) DPL0 load(1, XDATA, add(CFA_XSP16, literal(-2)))
          CFI (cfiCond50) DPH0 load(1, XDATA, add(CFA_XSP16, literal(-1)))
          CFI (cfiCond50) CFA_SP SP+0
          CFI (cfiCond50) CFA_XSP16 add(XSP16, 16)
          CFI Block cfiPicker51 Using cfiCommon1
          CFI (cfiPicker51) NoFunction
          CFI (cfiPicker51) Picker
        LCALL   ?Subroutine107 & 0xFFFF
??CrossCallReturnLabel_172:
        RET
          CFI EndBlock cfiCond47
          CFI EndBlock cfiCond48
          CFI EndBlock cfiCond49
          CFI EndBlock cfiCond50
          CFI EndBlock cfiPicker51

        RSEG BANKED_CODE:CODE:NOROOT(0)
?Subroutine107:
          CFI Block cfiCond52 Using cfiCommon0
          CFI Function zclLL_Send_NwkStartReq
          CFI Conditional ??CrossCallReturnLabel_172, ??CrossCallReturnLabel_135, ??CrossCallReturnLabel_0
          CFI R6 load(1, XDATA, add(CFA_XSP16, literal(-18)))
          CFI VB load(1, XDATA, add(CFA_XSP16, literal(-17)))
          CFI V0 load(1, XDATA, add(CFA_XSP16, literal(-16)))
          CFI V1 load(1, XDATA, add(CFA_XSP16, literal(-15)))
          CFI V2 load(1, XDATA, add(CFA_XSP16, literal(-14)))
          CFI V3 load(1, XDATA, add(CFA_XSP16, literal(-13)))
          CFI V4 load(1, XDATA, add(CFA_XSP16, literal(-12)))
          CFI V5 load(1, XDATA, add(CFA_XSP16, literal(-11)))
          CFI V6 load(1, XDATA, add(CFA_XSP16, literal(-10)))
          CFI V7 load(1, XDATA, add(CFA_XSP16, literal(-9)))
          CFI V8 load(1, XDATA, add(CFA_XSP16, literal(-8)))
          CFI V9 load(1, XDATA, add(CFA_XSP16, literal(-7)))
          CFI R7 load(1, XDATA, add(CFA_XSP16, literal(-6)))
          CFI ?RET_LOW load(1, XDATA, add(CFA_XSP16, literal(-5)))
          CFI ?RET_HIGH load(1, XDATA, add(CFA_XSP16, literal(-4)))
          CFI ?BRET_EXT load(1, XDATA, add(CFA_XSP16, literal(-3)))
          CFI DPL0 load(1, XDATA, add(CFA_XSP16, literal(-2)))
          CFI DPH0 load(1, XDATA, add(CFA_XSP16, literal(-1)))
          CFI CFA_SP SP+0
          CFI CFA_XSP16 add(XSP16, 18)
          CFI Block cfiCond53 Using cfiCommon0
          CFI (cfiCond53) Function zclLL_Send_NwkJoinReq
          CFI (cfiCond53) Conditional ??CrossCallReturnLabel_172, ??CrossCallReturnLabel_135, ??CrossCallReturnLabel_1
          CFI (cfiCond53) R6 load(1, XDATA, add(CFA_XSP16, literal(-18)))
          CFI (cfiCond53) VB load(1, XDATA, add(CFA_XSP16, literal(-17)))
          CFI (cfiCond53) V0 load(1, XDATA, add(CFA_XSP16, literal(-16)))
          CFI (cfiCond53) V1 load(1, XDATA, add(CFA_XSP16, literal(-15)))
          CFI (cfiCond53) V2 load(1, XDATA, add(CFA_XSP16, literal(-14)))
          CFI (cfiCond53) V3 load(1, XDATA, add(CFA_XSP16, literal(-13)))
          CFI (cfiCond53) V4 load(1, XDATA, add(CFA_XSP16, literal(-12)))
          CFI (cfiCond53) V5 load(1, XDATA, add(CFA_XSP16, literal(-11)))
          CFI (cfiCond53) V6 load(1, XDATA, add(CFA_XSP16, literal(-10)))
          CFI (cfiCond53) V7 load(1, XDATA, add(CFA_XSP16, literal(-9)))
          CFI (cfiCond53) V8 load(1, XDATA, add(CFA_XSP16, literal(-8)))
          CFI (cfiCond53) V9 load(1, XDATA, add(CFA_XSP16, literal(-7)))
          CFI (cfiCond53) R7 load(1, XDATA, add(CFA_XSP16, literal(-6)))
          CFI (cfiCond53) ?RET_LOW load(1, XDATA, add(CFA_XSP16, literal(-5)))
          CFI (cfiCond53) ?RET_HIGH load(1, XDATA, add(CFA_XSP16, literal(-4)))
          CFI (cfiCond53) ?BRET_EXT load(1, XDATA, add(CFA_XSP16, literal(-3)))
          CFI (cfiCond53) DPL0 load(1, XDATA, add(CFA_XSP16, literal(-2)))
          CFI (cfiCond53) DPH0 load(1, XDATA, add(CFA_XSP16, literal(-1)))
          CFI (cfiCond53) CFA_SP SP+0
          CFI (cfiCond53) CFA_XSP16 add(XSP16, 18)
          CFI Block cfiCond54 Using cfiCommon0
          CFI (cfiCond54) Function zclLL_Send_NwkUpdateReq
          CFI (cfiCond54) Conditional ??CrossCallReturnLabel_172, ??CrossCallReturnLabel_136, ??CrossCallReturnLabel_26
          CFI (cfiCond54) R6 load(1, XDATA, add(CFA_XSP16, literal(-16)))
          CFI (cfiCond54) VB load(1, XDATA, add(CFA_XSP16, literal(-15)))
          CFI (cfiCond54) V0 load(1, XDATA, add(CFA_XSP16, literal(-14)))
          CFI (cfiCond54) V1 load(1, XDATA, add(CFA_XSP16, literal(-13)))
          CFI (cfiCond54) V2 load(1, XDATA, add(CFA_XSP16, literal(-12)))
          CFI (cfiCond54) V3 load(1, XDATA, add(CFA_XSP16, literal(-11)))
          CFI (cfiCond54) V4 load(1, XDATA, add(CFA_XSP16, literal(-10)))
          CFI (cfiCond54) V5 load(1, XDATA, add(CFA_XSP16, literal(-9)))
          CFI (cfiCond54) V6 load(1, XDATA, add(CFA_XSP16, literal(-8)))
          CFI (cfiCond54) V7 load(1, XDATA, add(CFA_XSP16, literal(-7)))
          CFI (cfiCond54) R7 load(1, XDATA, add(CFA_XSP16, literal(-6)))
          CFI (cfiCond54) ?RET_LOW load(1, XDATA, add(CFA_XSP16, literal(-5)))
          CFI (cfiCond54) ?RET_HIGH load(1, XDATA, add(CFA_XSP16, literal(-4)))
          CFI (cfiCond54) ?BRET_EXT load(1, XDATA, add(CFA_XSP16, literal(-3)))
          CFI (cfiCond54) DPL0 load(1, XDATA, add(CFA_XSP16, literal(-2)))
          CFI (cfiCond54) DPH0 load(1, XDATA, add(CFA_XSP16, literal(-1)))
          CFI (cfiCond54) CFA_SP SP+0
          CFI (cfiCond54) CFA_XSP16 add(XSP16, 16)
          CFI Block cfiCond55 Using cfiCommon0
          CFI (cfiCond55) Function zclLL_Send_NwkStartRsp
          CFI (cfiCond55) Conditional ??CrossCallReturnLabel_172, ??CrossCallReturnLabel_136, ??CrossCallReturnLabel_27
          CFI (cfiCond55) R6 load(1, XDATA, add(CFA_XSP16, literal(-16)))
          CFI (cfiCond55) VB load(1, XDATA, add(CFA_XSP16, literal(-15)))
          CFI (cfiCond55) V0 load(1, XDATA, add(CFA_XSP16, literal(-14)))
          CFI (cfiCond55) V1 load(1, XDATA, add(CFA_XSP16, literal(-13)))
          CFI (cfiCond55) V2 load(1, XDATA, add(CFA_XSP16, literal(-12)))
          CFI (cfiCond55) V3 load(1, XDATA, add(CFA_XSP16, literal(-11)))
          CFI (cfiCond55) V4 load(1, XDATA, add(CFA_XSP16, literal(-10)))
          CFI (cfiCond55) V5 load(1, XDATA, add(CFA_XSP16, literal(-9)))
          CFI (cfiCond55) V6 load(1, XDATA, add(CFA_XSP16, literal(-8)))
          CFI (cfiCond55) V7 load(1, XDATA, add(CFA_XSP16, literal(-7)))
          CFI (cfiCond55) R7 load(1, XDATA, add(CFA_XSP16, literal(-6)))
          CFI (cfiCond55) ?RET_LOW load(1, XDATA, add(CFA_XSP16, literal(-5)))
          CFI (cfiCond55) ?RET_HIGH load(1, XDATA, add(CFA_XSP16, literal(-4)))
          CFI (cfiCond55) ?BRET_EXT load(1, XDATA, add(CFA_XSP16, literal(-3)))
          CFI (cfiCond55) DPL0 load(1, XDATA, add(CFA_XSP16, literal(-2)))
          CFI (cfiCond55) DPH0 load(1, XDATA, add(CFA_XSP16, literal(-1)))
          CFI (cfiCond55) CFA_SP SP+0
          CFI (cfiCond55) CFA_XSP16 add(XSP16, 16)
          CFI Block cfiCond56 Using cfiCommon0
          CFI (cfiCond56) Function zclLL_Send_NwkStartReq
          CFI (cfiCond56) Conditional ??CrossCallReturnLabel_173, ??CrossCallReturnLabel_126, ??CrossCallReturnLabel_0
          CFI (cfiCond56) R6 load(1, XDATA, add(CFA_XSP16, literal(-18)))
          CFI (cfiCond56) VB load(1, XDATA, add(CFA_XSP16, literal(-17)))
          CFI (cfiCond56) V0 load(1, XDATA, add(CFA_XSP16, literal(-16)))
          CFI (cfiCond56) V1 load(1, XDATA, add(CFA_XSP16, literal(-15)))
          CFI (cfiCond56) V2 load(1, XDATA, add(CFA_XSP16, literal(-14)))
          CFI (cfiCond56) V3 load(1, XDATA, add(CFA_XSP16, literal(-13)))
          CFI (cfiCond56) V4 load(1, XDATA, add(CFA_XSP16, literal(-12)))
          CFI (cfiCond56) V5 load(1, XDATA, add(CFA_XSP16, literal(-11)))
          CFI (cfiCond56) V6 load(1, XDATA, add(CFA_XSP16, literal(-10)))
          CFI (cfiCond56) V7 load(1, XDATA, add(CFA_XSP16, literal(-9)))
          CFI (cfiCond56) V8 load(1, XDATA, add(CFA_XSP16, literal(-8)))
          CFI (cfiCond56) V9 load(1, XDATA, add(CFA_XSP16, literal(-7)))
          CFI (cfiCond56) R7 load(1, XDATA, add(CFA_XSP16, literal(-6)))
          CFI (cfiCond56) ?RET_LOW load(1, XDATA, add(CFA_XSP16, literal(-5)))
          CFI (cfiCond56) ?RET_HIGH load(1, XDATA, add(CFA_XSP16, literal(-4)))
          CFI (cfiCond56) ?BRET_EXT load(1, XDATA, add(CFA_XSP16, literal(-3)))
          CFI (cfiCond56) DPL0 load(1, XDATA, add(CFA_XSP16, literal(-2)))
          CFI (cfiCond56) DPH0 load(1, XDATA, add(CFA_XSP16, literal(-1)))
          CFI (cfiCond56) CFA_SP SP+0
          CFI (cfiCond56) CFA_XSP16 add(XSP16, 18)
          CFI Block cfiCond57 Using cfiCommon0
          CFI (cfiCond57) Function zclLL_Send_NwkJoinReq
          CFI (cfiCond57) Conditional ??CrossCallReturnLabel_173, ??CrossCallReturnLabel_126, ??CrossCallReturnLabel_1
          CFI (cfiCond57) R6 load(1, XDATA, add(CFA_XSP16, literal(-18)))
          CFI (cfiCond57) VB load(1, XDATA, add(CFA_XSP16, literal(-17)))
          CFI (cfiCond57) V0 load(1, XDATA, add(CFA_XSP16, literal(-16)))
          CFI (cfiCond57) V1 load(1, XDATA, add(CFA_XSP16, literal(-15)))
          CFI (cfiCond57) V2 load(1, XDATA, add(CFA_XSP16, literal(-14)))
          CFI (cfiCond57) V3 load(1, XDATA, add(CFA_XSP16, literal(-13)))
          CFI (cfiCond57) V4 load(1, XDATA, add(CFA_XSP16, literal(-12)))
          CFI (cfiCond57) V5 load(1, XDATA, add(CFA_XSP16, literal(-11)))
          CFI (cfiCond57) V6 load(1, XDATA, add(CFA_XSP16, literal(-10)))
          CFI (cfiCond57) V7 load(1, XDATA, add(CFA_XSP16, literal(-9)))
          CFI (cfiCond57) V8 load(1, XDATA, add(CFA_XSP16, literal(-8)))
          CFI (cfiCond57) V9 load(1, XDATA, add(CFA_XSP16, literal(-7)))
          CFI (cfiCond57) R7 load(1, XDATA, add(CFA_XSP16, literal(-6)))
          CFI (cfiCond57) ?RET_LOW load(1, XDATA, add(CFA_XSP16, literal(-5)))
          CFI (cfiCond57) ?RET_HIGH load(1, XDATA, add(CFA_XSP16, literal(-4)))
          CFI (cfiCond57) ?BRET_EXT load(1, XDATA, add(CFA_XSP16, literal(-3)))
          CFI (cfiCond57) DPL0 load(1, XDATA, add(CFA_XSP16, literal(-2)))
          CFI (cfiCond57) DPH0 load(1, XDATA, add(CFA_XSP16, literal(-1)))
          CFI (cfiCond57) CFA_SP SP+0
          CFI (cfiCond57) CFA_XSP16 add(XSP16, 18)
          CFI Block cfiCond58 Using cfiCommon0
          CFI (cfiCond58) Function zclLL_Send_NwkStartReq
          CFI (cfiCond58) Conditional ??CrossCallReturnLabel_173, ??CrossCallReturnLabel_127, ??CrossCallReturnLabel_0
          CFI (cfiCond58) R6 load(1, XDATA, add(CFA_XSP16, literal(-18)))
          CFI (cfiCond58) VB load(1, XDATA, add(CFA_XSP16, literal(-17)))
          CFI (cfiCond58) V0 load(1, XDATA, add(CFA_XSP16, literal(-16)))
          CFI (cfiCond58) V1 load(1, XDATA, add(CFA_XSP16, literal(-15)))
          CFI (cfiCond58) V2 load(1, XDATA, add(CFA_XSP16, literal(-14)))
          CFI (cfiCond58) V3 load(1, XDATA, add(CFA_XSP16, literal(-13)))
          CFI (cfiCond58) V4 load(1, XDATA, add(CFA_XSP16, literal(-12)))
          CFI (cfiCond58) V5 load(1, XDATA, add(CFA_XSP16, literal(-11)))
          CFI (cfiCond58) V6 load(1, XDATA, add(CFA_XSP16, literal(-10)))
          CFI (cfiCond58) V7 load(1, XDATA, add(CFA_XSP16, literal(-9)))
          CFI (cfiCond58) V8 load(1, XDATA, add(CFA_XSP16, literal(-8)))
          CFI (cfiCond58) V9 load(1, XDATA, add(CFA_XSP16, literal(-7)))
          CFI (cfiCond58) R7 load(1, XDATA, add(CFA_XSP16, literal(-6)))
          CFI (cfiCond58) ?RET_LOW load(1, XDATA, add(CFA_XSP16, literal(-5)))
          CFI (cfiCond58) ?RET_HIGH load(1, XDATA, add(CFA_XSP16, literal(-4)))
          CFI (cfiCond58) ?BRET_EXT load(1, XDATA, add(CFA_XSP16, literal(-3)))
          CFI (cfiCond58) DPL0 load(1, XDATA, add(CFA_XSP16, literal(-2)))
          CFI (cfiCond58) DPH0 load(1, XDATA, add(CFA_XSP16, literal(-1)))
          CFI (cfiCond58) CFA_SP SP+0
          CFI (cfiCond58) CFA_XSP16 add(XSP16, 18)
          CFI Block cfiCond59 Using cfiCommon0
          CFI (cfiCond59) Function zclLL_Send_NwkJoinReq
          CFI (cfiCond59) Conditional ??CrossCallReturnLabel_173, ??CrossCallReturnLabel_127, ??CrossCallReturnLabel_1
          CFI (cfiCond59) R6 load(1, XDATA, add(CFA_XSP16, literal(-18)))
          CFI (cfiCond59) VB load(1, XDATA, add(CFA_XSP16, literal(-17)))
          CFI (cfiCond59) V0 load(1, XDATA, add(CFA_XSP16, literal(-16)))
          CFI (cfiCond59) V1 load(1, XDATA, add(CFA_XSP16, literal(-15)))
          CFI (cfiCond59) V2 load(1, XDATA, add(CFA_XSP16, literal(-14)))
          CFI (cfiCond59) V3 load(1, XDATA, add(CFA_XSP16, literal(-13)))
          CFI (cfiCond59) V4 load(1, XDATA, add(CFA_XSP16, literal(-12)))
          CFI (cfiCond59) V5 load(1, XDATA, add(CFA_XSP16, literal(-11)))
          CFI (cfiCond59) V6 load(1, XDATA, add(CFA_XSP16, literal(-10)))
          CFI (cfiCond59) V7 load(1, XDATA, add(CFA_XSP16, literal(-9)))
          CFI (cfiCond59) V8 load(1, XDATA, add(CFA_XSP16, literal(-8)))
          CFI (cfiCond59) V9 load(1, XDATA, add(CFA_XSP16, literal(-7)))
          CFI (cfiCond59) R7 load(1, XDATA, add(CFA_XSP16, literal(-6)))
          CFI (cfiCond59) ?RET_LOW load(1, XDATA, add(CFA_XSP16, literal(-5)))
          CFI (cfiCond59) ?RET_HIGH load(1, XDATA, add(CFA_XSP16, literal(-4)))
          CFI (cfiCond59) ?BRET_EXT load(1, XDATA, add(CFA_XSP16, literal(-3)))
          CFI (cfiCond59) DPL0 load(1, XDATA, add(CFA_XSP16, literal(-2)))
          CFI (cfiCond59) DPH0 load(1, XDATA, add(CFA_XSP16, literal(-1)))
          CFI (cfiCond59) CFA_SP SP+0
          CFI (cfiCond59) CFA_XSP16 add(XSP16, 18)
          CFI Block cfiCond60 Using cfiCommon0
          CFI (cfiCond60) Function zclLL_Send_NwkStartReq
          CFI (cfiCond60) Conditional ??CrossCallReturnLabel_173, ??CrossCallReturnLabel_128, ??CrossCallReturnLabel_0
          CFI (cfiCond60) R6 load(1, XDATA, add(CFA_XSP16, literal(-18)))
          CFI (cfiCond60) VB load(1, XDATA, add(CFA_XSP16, literal(-17)))
          CFI (cfiCond60) V0 load(1, XDATA, add(CFA_XSP16, literal(-16)))
          CFI (cfiCond60) V1 load(1, XDATA, add(CFA_XSP16, literal(-15)))
          CFI (cfiCond60) V2 load(1, XDATA, add(CFA_XSP16, literal(-14)))
          CFI (cfiCond60) V3 load(1, XDATA, add(CFA_XSP16, literal(-13)))
          CFI (cfiCond60) V4 load(1, XDATA, add(CFA_XSP16, literal(-12)))
          CFI (cfiCond60) V5 load(1, XDATA, add(CFA_XSP16, literal(-11)))
          CFI (cfiCond60) V6 load(1, XDATA, add(CFA_XSP16, literal(-10)))
          CFI (cfiCond60) V7 load(1, XDATA, add(CFA_XSP16, literal(-9)))
          CFI (cfiCond60) V8 load(1, XDATA, add(CFA_XSP16, literal(-8)))
          CFI (cfiCond60) V9 load(1, XDATA, add(CFA_XSP16, literal(-7)))
          CFI (cfiCond60) R7 load(1, XDATA, add(CFA_XSP16, literal(-6)))
          CFI (cfiCond60) ?RET_LOW load(1, XDATA, add(CFA_XSP16, literal(-5)))
          CFI (cfiCond60) ?RET_HIGH load(1, XDATA, add(CFA_XSP16, literal(-4)))
          CFI (cfiCond60) ?BRET_EXT load(1, XDATA, add(CFA_XSP16, literal(-3)))
          CFI (cfiCond60) DPL0 load(1, XDATA, add(CFA_XSP16, literal(-2)))
          CFI (cfiCond60) DPH0 load(1, XDATA, add(CFA_XSP16, literal(-1)))
          CFI (cfiCond60) CFA_SP SP+0
          CFI (cfiCond60) CFA_XSP16 add(XSP16, 18)
          CFI Block cfiCond61 Using cfiCommon0
          CFI (cfiCond61) Function zclLL_Send_NwkJoinReq
          CFI (cfiCond61) Conditional ??CrossCallReturnLabel_173, ??CrossCallReturnLabel_128, ??CrossCallReturnLabel_1
          CFI (cfiCond61) R6 load(1, XDATA, add(CFA_XSP16, literal(-18)))
          CFI (cfiCond61) VB load(1, XDATA, add(CFA_XSP16, literal(-17)))
          CFI (cfiCond61) V0 load(1, XDATA, add(CFA_XSP16, literal(-16)))
          CFI (cfiCond61) V1 load(1, XDATA, add(CFA_XSP16, literal(-15)))
          CFI (cfiCond61) V2 load(1, XDATA, add(CFA_XSP16, literal(-14)))
          CFI (cfiCond61) V3 load(1, XDATA, add(CFA_XSP16, literal(-13)))
          CFI (cfiCond61) V4 load(1, XDATA, add(CFA_XSP16, literal(-12)))
          CFI (cfiCond61) V5 load(1, XDATA, add(CFA_XSP16, literal(-11)))
          CFI (cfiCond61) V6 load(1, XDATA, add(CFA_XSP16, literal(-10)))
          CFI (cfiCond61) V7 load(1, XDATA, add(CFA_XSP16, literal(-9)))
          CFI (cfiCond61) V8 load(1, XDATA, add(CFA_XSP16, literal(-8)))
          CFI (cfiCond61) V9 load(1, XDATA, add(CFA_XSP16, literal(-7)))
          CFI (cfiCond61) R7 load(1, XDATA, add(CFA_XSP16, literal(-6)))
          CFI (cfiCond61) ?RET_LOW load(1, XDATA, add(CFA_XSP16, literal(-5)))
          CFI (cfiCond61) ?RET_HIGH load(1, XDATA, add(CFA_XSP16, literal(-4)))
          CFI (cfiCond61) ?BRET_EXT load(1, XDATA, add(CFA_XSP16, literal(-3)))
          CFI (cfiCond61) DPL0 load(1, XDATA, add(CFA_XSP16, literal(-2)))
          CFI (cfiCond61) DPH0 load(1, XDATA, add(CFA_XSP16, literal(-1)))
          CFI (cfiCond61) CFA_SP SP+0
          CFI (cfiCond61) CFA_XSP16 add(XSP16, 18)
          CFI Block cfiCond62 Using cfiCommon0
          CFI (cfiCond62) Function zclLL_Send_NwkStartReq
          CFI (cfiCond62) Conditional ??CrossCallReturnLabel_173, ??CrossCallReturnLabel_129, ??CrossCallReturnLabel_0
          CFI (cfiCond62) R6 load(1, XDATA, add(CFA_XSP16, literal(-18)))
          CFI (cfiCond62) VB load(1, XDATA, add(CFA_XSP16, literal(-17)))
          CFI (cfiCond62) V0 load(1, XDATA, add(CFA_XSP16, literal(-16)))
          CFI (cfiCond62) V1 load(1, XDATA, add(CFA_XSP16, literal(-15)))
          CFI (cfiCond62) V2 load(1, XDATA, add(CFA_XSP16, literal(-14)))
          CFI (cfiCond62) V3 load(1, XDATA, add(CFA_XSP16, literal(-13)))
          CFI (cfiCond62) V4 load(1, XDATA, add(CFA_XSP16, literal(-12)))
          CFI (cfiCond62) V5 load(1, XDATA, add(CFA_XSP16, literal(-11)))
          CFI (cfiCond62) V6 load(1, XDATA, add(CFA_XSP16, literal(-10)))
          CFI (cfiCond62) V7 load(1, XDATA, add(CFA_XSP16, literal(-9)))
          CFI (cfiCond62) V8 load(1, XDATA, add(CFA_XSP16, literal(-8)))
          CFI (cfiCond62) V9 load(1, XDATA, add(CFA_XSP16, literal(-7)))
          CFI (cfiCond62) R7 load(1, XDATA, add(CFA_XSP16, literal(-6)))
          CFI (cfiCond62) ?RET_LOW load(1, XDATA, add(CFA_XSP16, literal(-5)))
          CFI (cfiCond62) ?RET_HIGH load(1, XDATA, add(CFA_XSP16, literal(-4)))
          CFI (cfiCond62) ?BRET_EXT load(1, XDATA, add(CFA_XSP16, literal(-3)))
          CFI (cfiCond62) DPL0 load(1, XDATA, add(CFA_XSP16, literal(-2)))
          CFI (cfiCond62) DPH0 load(1, XDATA, add(CFA_XSP16, literal(-1)))
          CFI (cfiCond62) CFA_SP SP+0
          CFI (cfiCond62) CFA_XSP16 add(XSP16, 18)
          CFI Block cfiCond63 Using cfiCommon0
          CFI (cfiCond63) Function zclLL_Send_NwkJoinReq
          CFI (cfiCond63) Conditional ??CrossCallReturnLabel_173, ??CrossCallReturnLabel_129, ??CrossCallReturnLabel_1
          CFI (cfiCond63) R6 load(1, XDATA, add(CFA_XSP16, literal(-18)))
          CFI (cfiCond63) VB load(1, XDATA, add(CFA_XSP16, literal(-17)))
          CFI (cfiCond63) V0 load(1, XDATA, add(CFA_XSP16, literal(-16)))
          CFI (cfiCond63) V1 load(1, XDATA, add(CFA_XSP16, literal(-15)))
          CFI (cfiCond63) V2 load(1, XDATA, add(CFA_XSP16, literal(-14)))
          CFI (cfiCond63) V3 load(1, XDATA, add(CFA_XSP16, literal(-13)))
          CFI (cfiCond63) V4 load(1, XDATA, add(CFA_XSP16, literal(-12)))
          CFI (cfiCond63) V5 load(1, XDATA, add(CFA_XSP16, literal(-11)))
          CFI (cfiCond63) V6 load(1, XDATA, add(CFA_XSP16, literal(-10)))
          CFI (cfiCond63) V7 load(1, XDATA, add(CFA_XSP16, literal(-9)))
          CFI (cfiCond63) V8 load(1, XDATA, add(CFA_XSP16, literal(-8)))
          CFI (cfiCond63) V9 load(1, XDATA, add(CFA_XSP16, literal(-7)))
          CFI (cfiCond63) R7 load(1, XDATA, add(CFA_XSP16, literal(-6)))
          CFI (cfiCond63) ?RET_LOW load(1, XDATA, add(CFA_XSP16, literal(-5)))
          CFI (cfiCond63) ?RET_HIGH load(1, XDATA, add(CFA_XSP16, literal(-4)))
          CFI (cfiCond63) ?BRET_EXT load(1, XDATA, add(CFA_XSP16, literal(-3)))
          CFI (cfiCond63) DPL0 load(1, XDATA, add(CFA_XSP16, literal(-2)))
          CFI (cfiCond63) DPH0 load(1, XDATA, add(CFA_XSP16, literal(-1)))
          CFI (cfiCond63) CFA_SP SP+0
          CFI (cfiCond63) CFA_XSP16 add(XSP16, 18)
          CFI Block cfiCond64 Using cfiCommon0
          CFI (cfiCond64) Function zclLL_Send_NwkStartReq
          CFI (cfiCond64) Conditional ??CrossCallReturnLabel_173, ??CrossCallReturnLabel_130, ??CrossCallReturnLabel_0
          CFI (cfiCond64) R6 load(1, XDATA, add(CFA_XSP16, literal(-18)))
          CFI (cfiCond64) VB load(1, XDATA, add(CFA_XSP16, literal(-17)))
          CFI (cfiCond64) V0 load(1, XDATA, add(CFA_XSP16, literal(-16)))
          CFI (cfiCond64) V1 load(1, XDATA, add(CFA_XSP16, literal(-15)))
          CFI (cfiCond64) V2 load(1, XDATA, add(CFA_XSP16, literal(-14)))
          CFI (cfiCond64) V3 load(1, XDATA, add(CFA_XSP16, literal(-13)))
          CFI (cfiCond64) V4 load(1, XDATA, add(CFA_XSP16, literal(-12)))
          CFI (cfiCond64) V5 load(1, XDATA, add(CFA_XSP16, literal(-11)))
          CFI (cfiCond64) V6 load(1, XDATA, add(CFA_XSP16, literal(-10)))
          CFI (cfiCond64) V7 load(1, XDATA, add(CFA_XSP16, literal(-9)))
          CFI (cfiCond64) V8 load(1, XDATA, add(CFA_XSP16, literal(-8)))
          CFI (cfiCond64) V9 load(1, XDATA, add(CFA_XSP16, literal(-7)))
          CFI (cfiCond64) R7 load(1, XDATA, add(CFA_XSP16, literal(-6)))
          CFI (cfiCond64) ?RET_LOW load(1, XDATA, add(CFA_XSP16, literal(-5)))
          CFI (cfiCond64) ?RET_HIGH load(1, XDATA, add(CFA_XSP16, literal(-4)))
          CFI (cfiCond64) ?BRET_EXT load(1, XDATA, add(CFA_XSP16, literal(-3)))
          CFI (cfiCond64) DPL0 load(1, XDATA, add(CFA_XSP16, literal(-2)))
          CFI (cfiCond64) DPH0 load(1, XDATA, add(CFA_XSP16, literal(-1)))
          CFI (cfiCond64) CFA_SP SP+0
          CFI (cfiCond64) CFA_XSP16 add(XSP16, 18)
          CFI Block cfiCond65 Using cfiCommon0
          CFI (cfiCond65) Function zclLL_Send_NwkJoinReq
          CFI (cfiCond65) Conditional ??CrossCallReturnLabel_173, ??CrossCallReturnLabel_130, ??CrossCallReturnLabel_1
          CFI (cfiCond65) R6 load(1, XDATA, add(CFA_XSP16, literal(-18)))
          CFI (cfiCond65) VB load(1, XDATA, add(CFA_XSP16, literal(-17)))
          CFI (cfiCond65) V0 load(1, XDATA, add(CFA_XSP16, literal(-16)))
          CFI (cfiCond65) V1 load(1, XDATA, add(CFA_XSP16, literal(-15)))
          CFI (cfiCond65) V2 load(1, XDATA, add(CFA_XSP16, literal(-14)))
          CFI (cfiCond65) V3 load(1, XDATA, add(CFA_XSP16, literal(-13)))
          CFI (cfiCond65) V4 load(1, XDATA, add(CFA_XSP16, literal(-12)))
          CFI (cfiCond65) V5 load(1, XDATA, add(CFA_XSP16, literal(-11)))
          CFI (cfiCond65) V6 load(1, XDATA, add(CFA_XSP16, literal(-10)))
          CFI (cfiCond65) V7 load(1, XDATA, add(CFA_XSP16, literal(-9)))
          CFI (cfiCond65) V8 load(1, XDATA, add(CFA_XSP16, literal(-8)))
          CFI (cfiCond65) V9 load(1, XDATA, add(CFA_XSP16, literal(-7)))
          CFI (cfiCond65) R7 load(1, XDATA, add(CFA_XSP16, literal(-6)))
          CFI (cfiCond65) ?RET_LOW load(1, XDATA, add(CFA_XSP16, literal(-5)))
          CFI (cfiCond65) ?RET_HIGH load(1, XDATA, add(CFA_XSP16, literal(-4)))
          CFI (cfiCond65) ?BRET_EXT load(1, XDATA, add(CFA_XSP16, literal(-3)))
          CFI (cfiCond65) DPL0 load(1, XDATA, add(CFA_XSP16, literal(-2)))
          CFI (cfiCond65) DPH0 load(1, XDATA, add(CFA_XSP16, literal(-1)))
          CFI (cfiCond65) CFA_SP SP+0
          CFI (cfiCond65) CFA_XSP16 add(XSP16, 18)
          CFI Block cfiCond66 Using cfiCommon0
          CFI (cfiCond66) Function zclLL_Send_NwkStartReq
          CFI (cfiCond66) Conditional ??CrossCallReturnLabel_173, ??CrossCallReturnLabel_131, ??CrossCallReturnLabel_0
          CFI (cfiCond66) R6 load(1, XDATA, add(CFA_XSP16, literal(-18)))
          CFI (cfiCond66) VB load(1, XDATA, add(CFA_XSP16, literal(-17)))
          CFI (cfiCond66) V0 load(1, XDATA, add(CFA_XSP16, literal(-16)))
          CFI (cfiCond66) V1 load(1, XDATA, add(CFA_XSP16, literal(-15)))
          CFI (cfiCond66) V2 load(1, XDATA, add(CFA_XSP16, literal(-14)))
          CFI (cfiCond66) V3 load(1, XDATA, add(CFA_XSP16, literal(-13)))
          CFI (cfiCond66) V4 load(1, XDATA, add(CFA_XSP16, literal(-12)))
          CFI (cfiCond66) V5 load(1, XDATA, add(CFA_XSP16, literal(-11)))
          CFI (cfiCond66) V6 load(1, XDATA, add(CFA_XSP16, literal(-10)))
          CFI (cfiCond66) V7 load(1, XDATA, add(CFA_XSP16, literal(-9)))
          CFI (cfiCond66) V8 load(1, XDATA, add(CFA_XSP16, literal(-8)))
          CFI (cfiCond66) V9 load(1, XDATA, add(CFA_XSP16, literal(-7)))
          CFI (cfiCond66) R7 load(1, XDATA, add(CFA_XSP16, literal(-6)))
          CFI (cfiCond66) ?RET_LOW load(1, XDATA, add(CFA_XSP16, literal(-5)))
          CFI (cfiCond66) ?RET_HIGH load(1, XDATA, add(CFA_XSP16, literal(-4)))
          CFI (cfiCond66) ?BRET_EXT load(1, XDATA, add(CFA_XSP16, literal(-3)))
          CFI (cfiCond66) DPL0 load(1, XDATA, add(CFA_XSP16, literal(-2)))
          CFI (cfiCond66) DPH0 load(1, XDATA, add(CFA_XSP16, literal(-1)))
          CFI (cfiCond66) CFA_SP SP+0
          CFI (cfiCond66) CFA_XSP16 add(XSP16, 18)
          CFI Block cfiCond67 Using cfiCommon0
          CFI (cfiCond67) Function zclLL_Send_NwkJoinReq
          CFI (cfiCond67) Conditional ??CrossCallReturnLabel_173, ??CrossCallReturnLabel_131, ??CrossCallReturnLabel_1
          CFI (cfiCond67) R6 load(1, XDATA, add(CFA_XSP16, literal(-18)))
          CFI (cfiCond67) VB load(1, XDATA, add(CFA_XSP16, literal(-17)))
          CFI (cfiCond67) V0 load(1, XDATA, add(CFA_XSP16, literal(-16)))
          CFI (cfiCond67) V1 load(1, XDATA, add(CFA_XSP16, literal(-15)))
          CFI (cfiCond67) V2 load(1, XDATA, add(CFA_XSP16, literal(-14)))
          CFI (cfiCond67) V3 load(1, XDATA, add(CFA_XSP16, literal(-13)))
          CFI (cfiCond67) V4 load(1, XDATA, add(CFA_XSP16, literal(-12)))
          CFI (cfiCond67) V5 load(1, XDATA, add(CFA_XSP16, literal(-11)))
          CFI (cfiCond67) V6 load(1, XDATA, add(CFA_XSP16, literal(-10)))
          CFI (cfiCond67) V7 load(1, XDATA, add(CFA_XSP16, literal(-9)))
          CFI (cfiCond67) V8 load(1, XDATA, add(CFA_XSP16, literal(-8)))
          CFI (cfiCond67) V9 load(1, XDATA, add(CFA_XSP16, literal(-7)))
          CFI (cfiCond67) R7 load(1, XDATA, add(CFA_XSP16, literal(-6)))
          CFI (cfiCond67) ?RET_LOW load(1, XDATA, add(CFA_XSP16, literal(-5)))
          CFI (cfiCond67) ?RET_HIGH load(1, XDATA, add(CFA_XSP16, literal(-4)))
          CFI (cfiCond67) ?BRET_EXT load(1, XDATA, add(CFA_XSP16, literal(-3)))
          CFI (cfiCond67) DPL0 load(1, XDATA, add(CFA_XSP16, literal(-2)))
          CFI (cfiCond67) DPH0 load(1, XDATA, add(CFA_XSP16, literal(-1)))
          CFI (cfiCond67) CFA_SP SP+0
          CFI (cfiCond67) CFA_XSP16 add(XSP16, 18)
          CFI Block cfiCond68 Using cfiCommon0
          CFI (cfiCond68) Function zclLL_Send_NwkStartReq
          CFI (cfiCond68) Conditional ??CrossCallReturnLabel_173, ??CrossCallReturnLabel_132, ??CrossCallReturnLabel_0
          CFI (cfiCond68) R6 load(1, XDATA, add(CFA_XSP16, literal(-18)))
          CFI (cfiCond68) VB load(1, XDATA, add(CFA_XSP16, literal(-17)))
          CFI (cfiCond68) V0 load(1, XDATA, add(CFA_XSP16, literal(-16)))
          CFI (cfiCond68) V1 load(1, XDATA, add(CFA_XSP16, literal(-15)))
          CFI (cfiCond68) V2 load(1, XDATA, add(CFA_XSP16, literal(-14)))
          CFI (cfiCond68) V3 load(1, XDATA, add(CFA_XSP16, literal(-13)))
          CFI (cfiCond68) V4 load(1, XDATA, add(CFA_XSP16, literal(-12)))
          CFI (cfiCond68) V5 load(1, XDATA, add(CFA_XSP16, literal(-11)))
          CFI (cfiCond68) V6 load(1, XDATA, add(CFA_XSP16, literal(-10)))
          CFI (cfiCond68) V7 load(1, XDATA, add(CFA_XSP16, literal(-9)))
          CFI (cfiCond68) V8 load(1, XDATA, add(CFA_XSP16, literal(-8)))
          CFI (cfiCond68) V9 load(1, XDATA, add(CFA_XSP16, literal(-7)))
          CFI (cfiCond68) R7 load(1, XDATA, add(CFA_XSP16, literal(-6)))
          CFI (cfiCond68) ?RET_LOW load(1, XDATA, add(CFA_XSP16, literal(-5)))
          CFI (cfiCond68) ?RET_HIGH load(1, XDATA, add(CFA_XSP16, literal(-4)))
          CFI (cfiCond68) ?BRET_EXT load(1, XDATA, add(CFA_XSP16, literal(-3)))
          CFI (cfiCond68) DPL0 load(1, XDATA, add(CFA_XSP16, literal(-2)))
          CFI (cfiCond68) DPH0 load(1, XDATA, add(CFA_XSP16, literal(-1)))
          CFI (cfiCond68) CFA_SP SP+0
          CFI (cfiCond68) CFA_XSP16 add(XSP16, 18)
          CFI Block cfiCond69 Using cfiCommon0
          CFI (cfiCond69) Function zclLL_Send_NwkJoinReq
          CFI (cfiCond69) Conditional ??CrossCallReturnLabel_173, ??CrossCallReturnLabel_132, ??CrossCallReturnLabel_1
          CFI (cfiCond69) R6 load(1, XDATA, add(CFA_XSP16, literal(-18)))
          CFI (cfiCond69) VB load(1, XDATA, add(CFA_XSP16, literal(-17)))
          CFI (cfiCond69) V0 load(1, XDATA, add(CFA_XSP16, literal(-16)))
          CFI (cfiCond69) V1 load(1, XDATA, add(CFA_XSP16, literal(-15)))
          CFI (cfiCond69) V2 load(1, XDATA, add(CFA_XSP16, literal(-14)))
          CFI (cfiCond69) V3 load(1, XDATA, add(CFA_XSP16, literal(-13)))
          CFI (cfiCond69) V4 load(1, XDATA, add(CFA_XSP16, literal(-12)))
          CFI (cfiCond69) V5 load(1, XDATA, add(CFA_XSP16, literal(-11)))
          CFI (cfiCond69) V6 load(1, XDATA, add(CFA_XSP16, literal(-10)))
          CFI (cfiCond69) V7 load(1, XDATA, add(CFA_XSP16, literal(-9)))
          CFI (cfiCond69) V8 load(1, XDATA, add(CFA_XSP16, literal(-8)))
          CFI (cfiCond69) V9 load(1, XDATA, add(CFA_XSP16, literal(-7)))
          CFI (cfiCond69) R7 load(1, XDATA, add(CFA_XSP16, literal(-6)))
          CFI (cfiCond69) ?RET_LOW load(1, XDATA, add(CFA_XSP16, literal(-5)))
          CFI (cfiCond69) ?RET_HIGH load(1, XDATA, add(CFA_XSP16, literal(-4)))
          CFI (cfiCond69) ?BRET_EXT load(1, XDATA, add(CFA_XSP16, literal(-3)))
          CFI (cfiCond69) DPL0 load(1, XDATA, add(CFA_XSP16, literal(-2)))
          CFI (cfiCond69) DPH0 load(1, XDATA, add(CFA_XSP16, literal(-1)))
          CFI (cfiCond69) CFA_SP SP+0
          CFI (cfiCond69) CFA_XSP16 add(XSP16, 18)
          CFI Block cfiCond70 Using cfiCommon0
          CFI (cfiCond70) Function zclLL_Send_NwkUpdateReq
          CFI (cfiCond70) Conditional ??CrossCallReturnLabel_173, ??CrossCallReturnLabel_133, ??CrossCallReturnLabel_13
          CFI (cfiCond70) R6 load(1, XDATA, add(CFA_XSP16, literal(-16)))
          CFI (cfiCond70) VB load(1, XDATA, add(CFA_XSP16, literal(-15)))
          CFI (cfiCond70) V0 load(1, XDATA, add(CFA_XSP16, literal(-14)))
          CFI (cfiCond70) V1 load(1, XDATA, add(CFA_XSP16, literal(-13)))
          CFI (cfiCond70) V2 load(1, XDATA, add(CFA_XSP16, literal(-12)))
          CFI (cfiCond70) V3 load(1, XDATA, add(CFA_XSP16, literal(-11)))
          CFI (cfiCond70) V4 load(1, XDATA, add(CFA_XSP16, literal(-10)))
          CFI (cfiCond70) V5 load(1, XDATA, add(CFA_XSP16, literal(-9)))
          CFI (cfiCond70) V6 load(1, XDATA, add(CFA_XSP16, literal(-8)))
          CFI (cfiCond70) V7 load(1, XDATA, add(CFA_XSP16, literal(-7)))
          CFI (cfiCond70) R7 load(1, XDATA, add(CFA_XSP16, literal(-6)))
          CFI (cfiCond70) ?RET_LOW load(1, XDATA, add(CFA_XSP16, literal(-5)))
          CFI (cfiCond70) ?RET_HIGH load(1, XDATA, add(CFA_XSP16, literal(-4)))
          CFI (cfiCond70) ?BRET_EXT load(1, XDATA, add(CFA_XSP16, literal(-3)))
          CFI (cfiCond70) DPL0 load(1, XDATA, add(CFA_XSP16, literal(-2)))
          CFI (cfiCond70) DPH0 load(1, XDATA, add(CFA_XSP16, literal(-1)))
          CFI (cfiCond70) CFA_SP SP+0
          CFI (cfiCond70) CFA_XSP16 add(XSP16, 16)
          CFI Block cfiCond71 Using cfiCommon0
          CFI (cfiCond71) Function zclLL_Send_ScanRsp
          CFI (cfiCond71) Conditional ??CrossCallReturnLabel_173, ??CrossCallReturnLabel_133, ??CrossCallReturnLabel_14
          CFI (cfiCond71) R6 load(1, XDATA, add(CFA_XSP16, literal(-20)))
          CFI (cfiCond71) VB load(1, XDATA, add(CFA_XSP16, literal(-19)))
          CFI (cfiCond71) V0 load(1, XDATA, add(CFA_XSP16, literal(-18)))
          CFI (cfiCond71) V1 load(1, XDATA, add(CFA_XSP16, literal(-17)))
          CFI (cfiCond71) V2 load(1, XDATA, add(CFA_XSP16, literal(-16)))
          CFI (cfiCond71) V3 load(1, XDATA, add(CFA_XSP16, literal(-15)))
          CFI (cfiCond71) V4 load(1, XDATA, add(CFA_XSP16, literal(-14)))
          CFI (cfiCond71) V5 load(1, XDATA, add(CFA_XSP16, literal(-13)))
          CFI (cfiCond71) V6 load(1, XDATA, add(CFA_XSP16, literal(-12)))
          CFI (cfiCond71) V7 load(1, XDATA, add(CFA_XSP16, literal(-11)))
          CFI (cfiCond71) V8 load(1, XDATA, add(CFA_XSP16, literal(-10)))
          CFI (cfiCond71) V9 load(1, XDATA, add(CFA_XSP16, literal(-9)))
          CFI (cfiCond71) V10 load(1, XDATA, add(CFA_XSP16, literal(-8)))
          CFI (cfiCond71) V11 load(1, XDATA, add(CFA_XSP16, literal(-7)))
          CFI (cfiCond71) R7 load(1, XDATA, add(CFA_XSP16, literal(-6)))
          CFI (cfiCond71) ?RET_LOW load(1, XDATA, add(CFA_XSP16, literal(-5)))
          CFI (cfiCond71) ?RET_HIGH load(1, XDATA, add(CFA_XSP16, literal(-4)))
          CFI (cfiCond71) ?BRET_EXT load(1, XDATA, add(CFA_XSP16, literal(-3)))
          CFI (cfiCond71) DPL0 load(1, XDATA, add(CFA_XSP16, literal(-2)))
          CFI (cfiCond71) DPH0 load(1, XDATA, add(CFA_XSP16, literal(-1)))
          CFI (cfiCond71) CFA_SP SP+0
          CFI (cfiCond71) CFA_XSP16 add(XSP16, 20)
          CFI Block cfiCond72 Using cfiCommon0
          CFI (cfiCond72) Function zclLL_Send_ScanRsp
          CFI (cfiCond72) Conditional ??CrossCallReturnLabel_173, ??CrossCallReturnLabel_133, ??CrossCallReturnLabel_15
          CFI (cfiCond72) R6 load(1, XDATA, add(CFA_XSP16, literal(-20)))
          CFI (cfiCond72) VB load(1, XDATA, add(CFA_XSP16, literal(-19)))
          CFI (cfiCond72) V0 load(1, XDATA, add(CFA_XSP16, literal(-18)))
          CFI (cfiCond72) V1 load(1, XDATA, add(CFA_XSP16, literal(-17)))
          CFI (cfiCond72) V2 load(1, XDATA, add(CFA_XSP16, literal(-16)))
          CFI (cfiCond72) V3 load(1, XDATA, add(CFA_XSP16, literal(-15)))
          CFI (cfiCond72) V4 load(1, XDATA, add(CFA_XSP16, literal(-14)))
          CFI (cfiCond72) V5 load(1, XDATA, add(CFA_XSP16, literal(-13)))
          CFI (cfiCond72) V6 load(1, XDATA, add(CFA_XSP16, literal(-12)))
          CFI (cfiCond72) V7 load(1, XDATA, add(CFA_XSP16, literal(-11)))
          CFI (cfiCond72) V8 load(1, XDATA, add(CFA_XSP16, literal(-10)))
          CFI (cfiCond72) V9 load(1, XDATA, add(CFA_XSP16, literal(-9)))
          CFI (cfiCond72) V10 load(1, XDATA, add(CFA_XSP16, literal(-8)))
          CFI (cfiCond72) V11 load(1, XDATA, add(CFA_XSP16, literal(-7)))
          CFI (cfiCond72) R7 load(1, XDATA, add(CFA_XSP16, literal(-6)))
          CFI (cfiCond72) ?RET_LOW load(1, XDATA, add(CFA_XSP16, literal(-5)))
          CFI (cfiCond72) ?RET_HIGH load(1, XDATA, add(CFA_XSP16, literal(-4)))
          CFI (cfiCond72) ?BRET_EXT load(1, XDATA, add(CFA_XSP16, literal(-3)))
          CFI (cfiCond72) DPL0 load(1, XDATA, add(CFA_XSP16, literal(-2)))
          CFI (cfiCond72) DPH0 load(1, XDATA, add(CFA_XSP16, literal(-1)))
          CFI (cfiCond72) CFA_SP SP+0
          CFI (cfiCond72) CFA_XSP16 add(XSP16, 20)
          CFI Block cfiCond73 Using cfiCommon0
          CFI (cfiCond73) Function zclLL_Send_ScanRsp
          CFI (cfiCond73) Conditional ??CrossCallReturnLabel_173, ??CrossCallReturnLabel_133, ??CrossCallReturnLabel_16
          CFI (cfiCond73) R6 load(1, XDATA, add(CFA_XSP16, literal(-20)))
          CFI (cfiCond73) VB load(1, XDATA, add(CFA_XSP16, literal(-19)))
          CFI (cfiCond73) V0 load(1, XDATA, add(CFA_XSP16, literal(-18)))
          CFI (cfiCond73) V1 load(1, XDATA, add(CFA_XSP16, literal(-17)))
          CFI (cfiCond73) V2 load(1, XDATA, add(CFA_XSP16, literal(-16)))
          CFI (cfiCond73) V3 load(1, XDATA, add(CFA_XSP16, literal(-15)))
          CFI (cfiCond73) V4 load(1, XDATA, add(CFA_XSP16, literal(-14)))
          CFI (cfiCond73) V5 load(1, XDATA, add(CFA_XSP16, literal(-13)))
          CFI (cfiCond73) V6 load(1, XDATA, add(CFA_XSP16, literal(-12)))
          CFI (cfiCond73) V7 load(1, XDATA, add(CFA_XSP16, literal(-11)))
          CFI (cfiCond73) V8 load(1, XDATA, add(CFA_XSP16, literal(-10)))
          CFI (cfiCond73) V9 load(1, XDATA, add(CFA_XSP16, literal(-9)))
          CFI (cfiCond73) V10 load(1, XDATA, add(CFA_XSP16, literal(-8)))
          CFI (cfiCond73) V11 load(1, XDATA, add(CFA_XSP16, literal(-7)))
          CFI (cfiCond73) R7 load(1, XDATA, add(CFA_XSP16, literal(-6)))
          CFI (cfiCond73) ?RET_LOW load(1, XDATA, add(CFA_XSP16, literal(-5)))
          CFI (cfiCond73) ?RET_HIGH load(1, XDATA, add(CFA_XSP16, literal(-4)))
          CFI (cfiCond73) ?BRET_EXT load(1, XDATA, add(CFA_XSP16, literal(-3)))
          CFI (cfiCond73) DPL0 load(1, XDATA, add(CFA_XSP16, literal(-2)))
          CFI (cfiCond73) DPH0 load(1, XDATA, add(CFA_XSP16, literal(-1)))
          CFI (cfiCond73) CFA_SP SP+0
          CFI (cfiCond73) CFA_XSP16 add(XSP16, 20)
          CFI Block cfiCond74 Using cfiCommon0
          CFI (cfiCond74) Function zclLL_Send_DeviceInfoRsp
          CFI (cfiCond74) Conditional ??CrossCallReturnLabel_173, ??CrossCallReturnLabel_133, ??CrossCallReturnLabel_17
          CFI (cfiCond74) R6 load(1, XDATA, add(CFA_XSP16, literal(-24)))
          CFI (cfiCond74) VB load(1, XDATA, add(CFA_XSP16, literal(-23)))
          CFI (cfiCond74) V0 load(1, XDATA, add(CFA_XSP16, literal(-22)))
          CFI (cfiCond74) V1 load(1, XDATA, add(CFA_XSP16, literal(-21)))
          CFI (cfiCond74) V2 load(1, XDATA, add(CFA_XSP16, literal(-20)))
          CFI (cfiCond74) V3 load(1, XDATA, add(CFA_XSP16, literal(-19)))
          CFI (cfiCond74) V4 load(1, XDATA, add(CFA_XSP16, literal(-18)))
          CFI (cfiCond74) V5 load(1, XDATA, add(CFA_XSP16, literal(-17)))
          CFI (cfiCond74) V6 load(1, XDATA, add(CFA_XSP16, literal(-16)))
          CFI (cfiCond74) V7 load(1, XDATA, add(CFA_XSP16, literal(-15)))
          CFI (cfiCond74) V8 load(1, XDATA, add(CFA_XSP16, literal(-14)))
          CFI (cfiCond74) V9 load(1, XDATA, add(CFA_XSP16, literal(-13)))
          CFI (cfiCond74) V10 load(1, XDATA, add(CFA_XSP16, literal(-12)))
          CFI (cfiCond74) V11 load(1, XDATA, add(CFA_XSP16, literal(-11)))
          CFI (cfiCond74) V12 load(1, XDATA, add(CFA_XSP16, literal(-10)))
          CFI (cfiCond74) V13 load(1, XDATA, add(CFA_XSP16, literal(-9)))
          CFI (cfiCond74) V14 load(1, XDATA, add(CFA_XSP16, literal(-8)))
          CFI (cfiCond74) V15 load(1, XDATA, add(CFA_XSP16, literal(-7)))
          CFI (cfiCond74) R7 load(1, XDATA, add(CFA_XSP16, literal(-6)))
          CFI (cfiCond74) ?RET_LOW load(1, XDATA, add(CFA_XSP16, literal(-5)))
          CFI (cfiCond74) ?RET_HIGH load(1, XDATA, add(CFA_XSP16, literal(-4)))
          CFI (cfiCond74) ?BRET_EXT load(1, XDATA, add(CFA_XSP16, literal(-3)))
          CFI (cfiCond74) DPL0 load(1, XDATA, add(CFA_XSP16, literal(-2)))
          CFI (cfiCond74) DPH0 load(1, XDATA, add(CFA_XSP16, literal(-1)))
          CFI (cfiCond74) CFA_SP SP+0
          CFI (cfiCond74) CFA_XSP16 add(XSP16, 24)
          CFI Block cfiCond75 Using cfiCommon0
          CFI (cfiCond75) Function zclLL_Send_ScanRsp
          CFI (cfiCond75) Conditional ??CrossCallReturnLabel_173, ??CrossCallReturnLabel_134, ??CrossCallReturnLabel_11
          CFI (cfiCond75) R6 load(1, XDATA, add(CFA_XSP16, literal(-20)))
          CFI (cfiCond75) VB load(1, XDATA, add(CFA_XSP16, literal(-19)))
          CFI (cfiCond75) V0 load(1, XDATA, add(CFA_XSP16, literal(-18)))
          CFI (cfiCond75) V1 load(1, XDATA, add(CFA_XSP16, literal(-17)))
          CFI (cfiCond75) V2 load(1, XDATA, add(CFA_XSP16, literal(-16)))
          CFI (cfiCond75) V3 load(1, XDATA, add(CFA_XSP16, literal(-15)))
          CFI (cfiCond75) V4 load(1, XDATA, add(CFA_XSP16, literal(-14)))
          CFI (cfiCond75) V5 load(1, XDATA, add(CFA_XSP16, literal(-13)))
          CFI (cfiCond75) V6 load(1, XDATA, add(CFA_XSP16, literal(-12)))
          CFI (cfiCond75) V7 load(1, XDATA, add(CFA_XSP16, literal(-11)))
          CFI (cfiCond75) V8 load(1, XDATA, add(CFA_XSP16, literal(-10)))
          CFI (cfiCond75) V9 load(1, XDATA, add(CFA_XSP16, literal(-9)))
          CFI (cfiCond75) V10 load(1, XDATA, add(CFA_XSP16, literal(-8)))
          CFI (cfiCond75) V11 load(1, XDATA, add(CFA_XSP16, literal(-7)))
          CFI (cfiCond75) R7 load(1, XDATA, add(CFA_XSP16, literal(-6)))
          CFI (cfiCond75) ?RET_LOW load(1, XDATA, add(CFA_XSP16, literal(-5)))
          CFI (cfiCond75) ?RET_HIGH load(1, XDATA, add(CFA_XSP16, literal(-4)))
          CFI (cfiCond75) ?BRET_EXT load(1, XDATA, add(CFA_XSP16, literal(-3)))
          CFI (cfiCond75) DPL0 load(1, XDATA, add(CFA_XSP16, literal(-2)))
          CFI (cfiCond75) DPH0 load(1, XDATA, add(CFA_XSP16, literal(-1)))
          CFI (cfiCond75) CFA_SP SP+0
          CFI (cfiCond75) CFA_XSP16 add(XSP16, 20)
          CFI Block cfiCond76 Using cfiCommon0
          CFI (cfiCond76) Function zclLL_Send_DeviceInfoRsp
          CFI (cfiCond76) Conditional ??CrossCallReturnLabel_173, ??CrossCallReturnLabel_134, ??CrossCallReturnLabel_12
          CFI (cfiCond76) R6 load(1, XDATA, add(CFA_XSP16, literal(-24)))
          CFI (cfiCond76) VB load(1, XDATA, add(CFA_XSP16, literal(-23)))
          CFI (cfiCond76) V0 load(1, XDATA, add(CFA_XSP16, literal(-22)))
          CFI (cfiCond76) V1 load(1, XDATA, add(CFA_XSP16, literal(-21)))
          CFI (cfiCond76) V2 load(1, XDATA, add(CFA_XSP16, literal(-20)))
          CFI (cfiCond76) V3 load(1, XDATA, add(CFA_XSP16, literal(-19)))
          CFI (cfiCond76) V4 load(1, XDATA, add(CFA_XSP16, literal(-18)))
          CFI (cfiCond76) V5 load(1, XDATA, add(CFA_XSP16, literal(-17)))
          CFI (cfiCond76) V6 load(1, XDATA, add(CFA_XSP16, literal(-16)))
          CFI (cfiCond76) V7 load(1, XDATA, add(CFA_XSP16, literal(-15)))
          CFI (cfiCond76) V8 load(1, XDATA, add(CFA_XSP16, literal(-14)))
          CFI (cfiCond76) V9 load(1, XDATA, add(CFA_XSP16, literal(-13)))
          CFI (cfiCond76) V10 load(1, XDATA, add(CFA_XSP16, literal(-12)))
          CFI (cfiCond76) V11 load(1, XDATA, add(CFA_XSP16, literal(-11)))
          CFI (cfiCond76) V12 load(1, XDATA, add(CFA_XSP16, literal(-10)))
          CFI (cfiCond76) V13 load(1, XDATA, add(CFA_XSP16, literal(-9)))
          CFI (cfiCond76) V14 load(1, XDATA, add(CFA_XSP16, literal(-8)))
          CFI (cfiCond76) V15 load(1, XDATA, add(CFA_XSP16, literal(-7)))
          CFI (cfiCond76) R7 load(1, XDATA, add(CFA_XSP16, literal(-6)))
          CFI (cfiCond76) ?RET_LOW load(1, XDATA, add(CFA_XSP16, literal(-5)))
          CFI (cfiCond76) ?RET_HIGH load(1, XDATA, add(CFA_XSP16, literal(-4)))
          CFI (cfiCond76) ?BRET_EXT load(1, XDATA, add(CFA_XSP16, literal(-3)))
          CFI (cfiCond76) DPL0 load(1, XDATA, add(CFA_XSP16, literal(-2)))
          CFI (cfiCond76) DPH0 load(1, XDATA, add(CFA_XSP16, literal(-1)))
          CFI (cfiCond76) CFA_SP SP+0
          CFI (cfiCond76) CFA_XSP16 add(XSP16, 24)
          CFI Block cfiPicker77 Using cfiCommon1
          CFI (cfiPicker77) NoFunction
          CFI (cfiPicker77) Picker
        ADDC    A,#0x0
        MOV     R1,A
        MOV     DPL,R0
        MOV     DPH,R1
        LCALL   ?Subroutine120 & 0xFFFF
??CrossCallReturnLabel_207:
        MOV     DPL,R0
        MOV     DPH,R1
        INC     DPTR
        LCALL   ?Subroutine121 & 0xFFFF
??CrossCallReturnLabel_181:
        RET
          CFI EndBlock cfiCond52
          CFI EndBlock cfiCond53
          CFI EndBlock cfiCond54
          CFI EndBlock cfiCond55
          CFI EndBlock cfiCond56
          CFI EndBlock cfiCond57
          CFI EndBlock cfiCond58
          CFI EndBlock cfiCond59
          CFI EndBlock cfiCond60
          CFI EndBlock cfiCond61
          CFI EndBlock cfiCond62
          CFI EndBlock cfiCond63
          CFI EndBlock cfiCond64
          CFI EndBlock cfiCond65
          CFI EndBlock cfiCond66
          CFI EndBlock cfiCond67
          CFI EndBlock cfiCond68
          CFI EndBlock cfiCond69
          CFI EndBlock cfiCond70
          CFI EndBlock cfiCond71
          CFI EndBlock cfiCond72
          CFI EndBlock cfiCond73
          CFI EndBlock cfiCond74
          CFI EndBlock cfiCond75
          CFI EndBlock cfiCond76
          CFI EndBlock cfiPicker77
//  450 
//  451 /*********************************************************************
//  452  * @fn      zclLL_Send_NwkUpdateReq
//  453  *
//  454  * @brief   Call to send out a Network Update Request command
//  455  *
//  456  * @param   srcEP - sending application's endpoint
//  457  * @param   dstAddr - where you want the message to go
//  458  * @param   pReq - response parameters
//  459  * @param   seqNum - sequence number
//  460  *
//  461  * @return  ZStatus_t
//  462  */

        RSEG BANKED_CODE:CODE:NOROOT(0)
//  463 ZStatus_t zclLL_Send_NwkUpdateReq( uint8 srcEP, afAddrType_t *dstAddr,
zclLL_Send_NwkUpdateReq:
          CFI Block cfiBlock78 Using cfiCommon0
          CFI Function zclLL_Send_NwkUpdateReq
        CODE
//  464                                    zclLLNwkUpdateReq_t *pReq, uint8 seqNum )
//  465 {
        FUNCALL zclLL_Send_NwkUpdateReq, osal_mem_alloc
        LOCFRAME ISTACK, 0, STACK
        LOCFRAME PSTACK, 0, STACK
        LOCFRAME XSTACK, 16, STACK
        LOCFRAME IOVERLAY, 0, STATIC
        LOCFRAME DOVERLAY, 0, STATIC
        ARGFRAME ISTACK, 0, STACK
        ARGFRAME PSTACK, 0, STACK
        ARGFRAME XSTACK, 16, STACK
        ARGFRAME IOVERLAY, 0, STATIC
        ARGFRAME DOVERLAY, 0, STATIC
        FUNCALL zclLL_Send_NwkUpdateReq, osal_buffer_uint32
        LOCFRAME ISTACK, 0, STACK
        LOCFRAME PSTACK, 0, STACK
        LOCFRAME XSTACK, 20, STACK
        LOCFRAME IOVERLAY, 0, STATIC
        LOCFRAME DOVERLAY, 0, STATIC
        ARGFRAME ISTACK, 0, STACK
        ARGFRAME PSTACK, 0, STACK
        ARGFRAME XSTACK, 20, STACK
        ARGFRAME IOVERLAY, 0, STATIC
        ARGFRAME DOVERLAY, 0, STATIC
        FUNCALL zclLL_Send_NwkUpdateReq, sAddrExtCpy
        LOCFRAME ISTACK, 0, STACK
        LOCFRAME PSTACK, 0, STACK
        LOCFRAME XSTACK, 16, STACK
        LOCFRAME IOVERLAY, 0, STATIC
        LOCFRAME DOVERLAY, 0, STATIC
        ARGFRAME ISTACK, 0, STACK
        ARGFRAME PSTACK, 0, STACK
        ARGFRAME XSTACK, 16, STACK
        ARGFRAME IOVERLAY, 0, STATIC
        ARGFRAME DOVERLAY, 0, STATIC
        FUNCALL zclLL_Send_NwkUpdateReq, zclLL_SendInterPANCommand
        LOCFRAME ISTACK, 0, STACK
        LOCFRAME PSTACK, 0, STACK
        LOCFRAME XSTACK, 21, STACK
        LOCFRAME IOVERLAY, 0, STATIC
        LOCFRAME DOVERLAY, 0, STATIC
        ARGFRAME ISTACK, 0, STACK
        ARGFRAME PSTACK, 0, STACK
        ARGFRAME XSTACK, 21, STACK
        ARGFRAME IOVERLAY, 0, STATIC
        ARGFRAME DOVERLAY, 0, STATIC
        FUNCALL zclLL_Send_NwkUpdateReq, osal_mem_free
        LOCFRAME ISTACK, 0, STACK
        LOCFRAME PSTACK, 0, STACK
        LOCFRAME XSTACK, 16, STACK
        LOCFRAME IOVERLAY, 0, STATIC
        LOCFRAME DOVERLAY, 0, STATIC
        ARGFRAME ISTACK, 0, STACK
        ARGFRAME PSTACK, 0, STACK
        ARGFRAME XSTACK, 16, STACK
        ARGFRAME IOVERLAY, 0, STATIC
        ARGFRAME DOVERLAY, 0, STATIC
        MOV     A,#-0x10
        LCALL   ?BANKED_ENTER_XDATA
          CFI DPH0 load(1, XDATA, add(CFA_XSP16, literal(-1)))
          CFI DPL0 load(1, XDATA, add(CFA_XSP16, literal(-2)))
          CFI ?BRET_EXT load(1, XDATA, add(CFA_XSP16, literal(-3)))
          CFI ?RET_HIGH load(1, XDATA, add(CFA_XSP16, literal(-4)))
          CFI ?RET_LOW load(1, XDATA, add(CFA_XSP16, literal(-5)))
          CFI R7 load(1, XDATA, add(CFA_XSP16, literal(-6)))
          CFI V7 load(1, XDATA, add(CFA_XSP16, literal(-7)))
          CFI V6 load(1, XDATA, add(CFA_XSP16, literal(-8)))
          CFI V5 load(1, XDATA, add(CFA_XSP16, literal(-9)))
          CFI V4 load(1, XDATA, add(CFA_XSP16, literal(-10)))
          CFI V3 load(1, XDATA, add(CFA_XSP16, literal(-11)))
          CFI V2 load(1, XDATA, add(CFA_XSP16, literal(-12)))
          CFI V1 load(1, XDATA, add(CFA_XSP16, literal(-13)))
          CFI V0 load(1, XDATA, add(CFA_XSP16, literal(-14)))
          CFI VB load(1, XDATA, add(CFA_XSP16, literal(-15)))
          CFI R6 load(1, XDATA, add(CFA_XSP16, literal(-16)))
          CFI CFA_SP SP+0
          CFI CFA_XSP16 add(XSP16, 16)
        ; Saved register size: 16
        ; Auto size: 0
        MOV     ?V0 + 2,R1
        MOV     ?V0 + 0,R2
        MOV     ?V0 + 1,R3
        MOV     A,R4
        MOV     R6,A
        MOV     A,R5
        MOV     R7,A
        MOV     A,#0x10
        LCALL   ?XSTACK_DISP0_8
        MOVX    A,@DPTR
        MOV     ?V0 + 3,A
//  466   uint8 *buf;
//  467   uint8 *pBuf;
//  468   ZStatus_t status;
//  469 
//  470   buf = zcl_mem_alloc( ZLL_CMDLEN_NWK_UPDATE_REQ );
        ; Setup parameters for call to function osal_mem_alloc
        MOV     R2,#0x12
        MOV     R3,#0x0
        LCALL   ??osal_mem_alloc?relay
        MOV     ?V0 + 4,R2
        MOV     ?V0 + 5,R3
//  471   if ( buf != NULL )
        MOV     A,R2
        ORL     A,?V0 + 5
        JZ      ??zclLL_Send_NwkUpdateReq_0
//  472   {
//  473     pBuf = buf;
//  474 
//  475     pBuf = zcl_buffer_uint32( pBuf, pReq->transID );
        ; Setup parameters for call to function osal_buffer_uint32
        MOV     DPL,R6
        MOV     DPH,R7
        LCALL   ?PUSH_XSTACK8_X_FOUR
          CFI CFA_XSP16 add(XSP16, 20)
        LCALL   ??osal_buffer_uint32?relay
        MOV     A,#0x4
        LCALL   ?DEALLOC_XSTACK8
          CFI CFA_XSP16 add(XSP16, 16)
//  476     pBuf = zcl_cpyExtAddr( pBuf, pReq->extendedPANID );
        ; Setup parameters for call to function sAddrExtCpy
        LCALL   ?Subroutine71 & 0xFFFF
??CrossCallReturnLabel_113:
        LCALL   ??sAddrExtCpy?relay
//  477 
//  478     *pBuf++ = pReq->nwkUpdateId;
        MOV     A,R6
        ADD     A,#0xc
        LCALL   ?Subroutine27 & 0xFFFF
//  479     *pBuf++ = pReq->logicalChannel;
??CrossCallReturnLabel_31:
        LCALL   ?Subroutine34 & 0xFFFF
//  480 
//  481     *pBuf++ = LO_UINT16( pReq->PANID );
??CrossCallReturnLabel_48:
        LCALL   ?Subroutine16 & 0xFFFF
//  482     *pBuf++ = HI_UINT16( pReq->PANID );
//  483 
//  484     *pBuf++ = LO_UINT16( pReq->nwkAddr );
??CrossCallReturnLabel_13:
        ADD     A,#0x10
        MOV     R0,A
        MOV     A,R7
        LCALL   ?Subroutine25 & 0xFFFF
//  485     *pBuf++ = HI_UINT16( pReq->nwkAddr );
//  486 
//  487     status = zclLL_SendInterPANCommand( srcEP, dstAddr, COMMAND_ZLL_NWK_UPDATE_REQ,
//  488                                         ZCL_FRAME_CLIENT_SERVER_DIR, seqNum, ZLL_CMDLEN_NWK_UPDATE_REQ, buf );
??CrossCallReturnLabel_26:
        LCALL   ?PUSH_XSTACK_I_TWO
          CFI CFA_XSP16 add(XSP16, 18)
        MOV     ?V0 + 6,#0x12
        MOV     ?V0 + 7,#0x0
        MOV     R0,#?V0 + 6
        LCALL   ?PUSH_XSTACK_I_TWO
          CFI CFA_XSP16 add(XSP16, 20)
        MOV     R0,#?V0 + 3
        LCALL   ?PUSH_XSTACK_I_ONE
          CFI CFA_XSP16 add(XSP16, 21)
        MOV     R5,#0x0
        MOV     R4,#0x16
        MOV     R2,?V0 + 0
        MOV     R3,?V0 + 1
        MOV     R1,?V0 + 2
        LCALL   ??zclLL_SendInterPANCommand?relay
        MOV     A,#0x5
        LCALL   ?DEALLOC_XSTACK8
          CFI CFA_XSP16 add(XSP16, 16)
        MOV     A,R1
        MOV     R6,A
//  489     zcl_mem_free( buf );
        ; Setup parameters for call to function osal_mem_free
        MOV     R2,?V0 + 4
        MOV     R3,?V0 + 5
        LCALL   ??osal_mem_free?relay
        SJMP    ??zclLL_Send_NwkUpdateReq_1
//  490   }
//  491   else
//  492   {
//  493     status = ZMemError;
??zclLL_Send_NwkUpdateReq_0:
        MOV     R6,#0x10
          CFI EndBlock cfiBlock78
//  494   }
//  495 
//  496   return ( status );
??zclLL_Send_NwkUpdateReq_1:
        REQUIRE ?Subroutine2
        ; // Fall through to label ?Subroutine2
//  497 }

        RSEG BANKED_CODE:CODE:NOROOT(0)
?Subroutine2:
          CFI Block cfiBlock79 Using cfiCommon0
          CFI NoFunction
          CFI CFA_SP SP+0
          CFI CFA_XSP16 add(XSP16, 16)
          CFI VB load(1, XDATA, add(CFA_XSP16, literal(-15)))
          CFI DPL0 load(1, XDATA, add(CFA_XSP16, literal(-2)))
          CFI DPH0 load(1, XDATA, add(CFA_XSP16, literal(-1)))
          CFI R6 load(1, XDATA, add(CFA_XSP16, literal(-16)))
          CFI R7 load(1, XDATA, add(CFA_XSP16, literal(-6)))
          CFI V0 load(1, XDATA, add(CFA_XSP16, literal(-14)))
          CFI V1 load(1, XDATA, add(CFA_XSP16, literal(-13)))
          CFI V2 load(1, XDATA, add(CFA_XSP16, literal(-12)))
          CFI V3 load(1, XDATA, add(CFA_XSP16, literal(-11)))
          CFI V4 load(1, XDATA, add(CFA_XSP16, literal(-10)))
          CFI V5 load(1, XDATA, add(CFA_XSP16, literal(-9)))
          CFI V6 load(1, XDATA, add(CFA_XSP16, literal(-8)))
          CFI V7 load(1, XDATA, add(CFA_XSP16, literal(-7)))
          CFI ?BRET_EXT load(1, XDATA, add(CFA_XSP16, literal(-3)))
          CFI ?RET_HIGH load(1, XDATA, add(CFA_XSP16, literal(-4)))
          CFI ?RET_LOW load(1, XDATA, add(CFA_XSP16, literal(-5)))
        MOV     A,R6
        MOV     R1,A
          CFI EndBlock cfiBlock79
        REQUIRE ??Subroutine127_0
        ; // Fall through to label ??Subroutine127_0

        RSEG BANKED_CODE:CODE:NOROOT(0)
??Subroutine127_0:
          CFI Block cfiBlock80 Using cfiCommon0
          CFI NoFunction
          CFI CFA_SP SP+0
          CFI CFA_XSP16 add(XSP16, 16)
          CFI VB load(1, XDATA, add(CFA_XSP16, literal(-15)))
          CFI DPL0 load(1, XDATA, add(CFA_XSP16, literal(-2)))
          CFI DPH0 load(1, XDATA, add(CFA_XSP16, literal(-1)))
          CFI R6 load(1, XDATA, add(CFA_XSP16, literal(-16)))
          CFI R7 load(1, XDATA, add(CFA_XSP16, literal(-6)))
          CFI V0 load(1, XDATA, add(CFA_XSP16, literal(-14)))
          CFI V1 load(1, XDATA, add(CFA_XSP16, literal(-13)))
          CFI V2 load(1, XDATA, add(CFA_XSP16, literal(-12)))
          CFI V3 load(1, XDATA, add(CFA_XSP16, literal(-11)))
          CFI V4 load(1, XDATA, add(CFA_XSP16, literal(-10)))
          CFI V5 load(1, XDATA, add(CFA_XSP16, literal(-9)))
          CFI V6 load(1, XDATA, add(CFA_XSP16, literal(-8)))
          CFI V7 load(1, XDATA, add(CFA_XSP16, literal(-7)))
          CFI ?BRET_EXT load(1, XDATA, add(CFA_XSP16, literal(-3)))
          CFI ?RET_HIGH load(1, XDATA, add(CFA_XSP16, literal(-4)))
          CFI ?RET_LOW load(1, XDATA, add(CFA_XSP16, literal(-5)))
        MOV     R7,#0x8
        LJMP    ?BANKED_LEAVE_XDATA
          CFI EndBlock cfiBlock80

        RSEG BANKED_CODE:CODE:NOROOT(0)
?Subroutine27:
          CFI Block cfiCond81 Using cfiCommon0
          CFI Function zclLL_Send_NwkJoinReq
          CFI Conditional ??CrossCallReturnLabel_30
          CFI R6 load(1, XDATA, add(CFA_XSP16, literal(-18)))
          CFI VB load(1, XDATA, add(CFA_XSP16, literal(-17)))
          CFI V0 load(1, XDATA, add(CFA_XSP16, literal(-16)))
          CFI V1 load(1, XDATA, add(CFA_XSP16, literal(-15)))
          CFI V2 load(1, XDATA, add(CFA_XSP16, literal(-14)))
          CFI V3 load(1, XDATA, add(CFA_XSP16, literal(-13)))
          CFI V4 load(1, XDATA, add(CFA_XSP16, literal(-12)))
          CFI V5 load(1, XDATA, add(CFA_XSP16, literal(-11)))
          CFI V6 load(1, XDATA, add(CFA_XSP16, literal(-10)))
          CFI V7 load(1, XDATA, add(CFA_XSP16, literal(-9)))
          CFI V8 load(1, XDATA, add(CFA_XSP16, literal(-8)))
          CFI V9 load(1, XDATA, add(CFA_XSP16, literal(-7)))
          CFI R7 load(1, XDATA, add(CFA_XSP16, literal(-6)))
          CFI ?RET_LOW load(1, XDATA, add(CFA_XSP16, literal(-5)))
          CFI ?RET_HIGH load(1, XDATA, add(CFA_XSP16, literal(-4)))
          CFI ?BRET_EXT load(1, XDATA, add(CFA_XSP16, literal(-3)))
          CFI DPL0 load(1, XDATA, add(CFA_XSP16, literal(-2)))
          CFI DPH0 load(1, XDATA, add(CFA_XSP16, literal(-1)))
          CFI CFA_SP SP+0
          CFI CFA_XSP16 add(XSP16, 18)
          CFI Block cfiCond82 Using cfiCommon0
          CFI (cfiCond82) Function zclLL_Send_NwkUpdateReq
          CFI (cfiCond82) Conditional ??CrossCallReturnLabel_31
          CFI (cfiCond82) R6 load(1, XDATA, add(CFA_XSP16, literal(-16)))
          CFI (cfiCond82) VB load(1, XDATA, add(CFA_XSP16, literal(-15)))
          CFI (cfiCond82) V0 load(1, XDATA, add(CFA_XSP16, literal(-14)))
          CFI (cfiCond82) V1 load(1, XDATA, add(CFA_XSP16, literal(-13)))
          CFI (cfiCond82) V2 load(1, XDATA, add(CFA_XSP16, literal(-12)))
          CFI (cfiCond82) V3 load(1, XDATA, add(CFA_XSP16, literal(-11)))
          CFI (cfiCond82) V4 load(1, XDATA, add(CFA_XSP16, literal(-10)))
          CFI (cfiCond82) V5 load(1, XDATA, add(CFA_XSP16, literal(-9)))
          CFI (cfiCond82) V6 load(1, XDATA, add(CFA_XSP16, literal(-8)))
          CFI (cfiCond82) V7 load(1, XDATA, add(CFA_XSP16, literal(-7)))
          CFI (cfiCond82) R7 load(1, XDATA, add(CFA_XSP16, literal(-6)))
          CFI (cfiCond82) ?RET_LOW load(1, XDATA, add(CFA_XSP16, literal(-5)))
          CFI (cfiCond82) ?RET_HIGH load(1, XDATA, add(CFA_XSP16, literal(-4)))
          CFI (cfiCond82) ?BRET_EXT load(1, XDATA, add(CFA_XSP16, literal(-3)))
          CFI (cfiCond82) DPL0 load(1, XDATA, add(CFA_XSP16, literal(-2)))
          CFI (cfiCond82) DPH0 load(1, XDATA, add(CFA_XSP16, literal(-1)))
          CFI (cfiCond82) CFA_SP SP+0
          CFI (cfiCond82) CFA_XSP16 add(XSP16, 16)
          CFI Block cfiCond83 Using cfiCommon0
          CFI (cfiCond83) Function zclLL_Send_ScanRsp
          CFI (cfiCond83) Conditional ??CrossCallReturnLabel_32
          CFI (cfiCond83) R6 load(1, XDATA, add(CFA_XSP16, literal(-20)))
          CFI (cfiCond83) VB load(1, XDATA, add(CFA_XSP16, literal(-19)))
          CFI (cfiCond83) V0 load(1, XDATA, add(CFA_XSP16, literal(-18)))
          CFI (cfiCond83) V1 load(1, XDATA, add(CFA_XSP16, literal(-17)))
          CFI (cfiCond83) V2 load(1, XDATA, add(CFA_XSP16, literal(-16)))
          CFI (cfiCond83) V3 load(1, XDATA, add(CFA_XSP16, literal(-15)))
          CFI (cfiCond83) V4 load(1, XDATA, add(CFA_XSP16, literal(-14)))
          CFI (cfiCond83) V5 load(1, XDATA, add(CFA_XSP16, literal(-13)))
          CFI (cfiCond83) V6 load(1, XDATA, add(CFA_XSP16, literal(-12)))
          CFI (cfiCond83) V7 load(1, XDATA, add(CFA_XSP16, literal(-11)))
          CFI (cfiCond83) V8 load(1, XDATA, add(CFA_XSP16, literal(-10)))
          CFI (cfiCond83) V9 load(1, XDATA, add(CFA_XSP16, literal(-9)))
          CFI (cfiCond83) V10 load(1, XDATA, add(CFA_XSP16, literal(-8)))
          CFI (cfiCond83) V11 load(1, XDATA, add(CFA_XSP16, literal(-7)))
          CFI (cfiCond83) R7 load(1, XDATA, add(CFA_XSP16, literal(-6)))
          CFI (cfiCond83) ?RET_LOW load(1, XDATA, add(CFA_XSP16, literal(-5)))
          CFI (cfiCond83) ?RET_HIGH load(1, XDATA, add(CFA_XSP16, literal(-4)))
          CFI (cfiCond83) ?BRET_EXT load(1, XDATA, add(CFA_XSP16, literal(-3)))
          CFI (cfiCond83) DPL0 load(1, XDATA, add(CFA_XSP16, literal(-2)))
          CFI (cfiCond83) DPH0 load(1, XDATA, add(CFA_XSP16, literal(-1)))
          CFI (cfiCond83) CFA_SP SP+0
          CFI (cfiCond83) CFA_XSP16 add(XSP16, 20)
          CFI Block cfiPicker84 Using cfiCommon1
          CFI (cfiPicker84) NoFunction
          CFI (cfiPicker84) Picker
        LCALL   ?Subroutine88 & 0xFFFF
??CrossCallReturnLabel_143:
        RET
          CFI EndBlock cfiCond81
          CFI EndBlock cfiCond82
          CFI EndBlock cfiCond83
          CFI EndBlock cfiPicker84

        RSEG BANKED_CODE:CODE:NOROOT(0)
?Subroutine88:
          CFI Block cfiCond85 Using cfiCommon0
          CFI Function zclLL_Send_NwkStartReq
          CFI Conditional ??CrossCallReturnLabel_142, ??CrossCallReturnLabel_20
          CFI R6 load(1, XDATA, add(CFA_XSP16, literal(-18)))
          CFI VB load(1, XDATA, add(CFA_XSP16, literal(-17)))
          CFI V0 load(1, XDATA, add(CFA_XSP16, literal(-16)))
          CFI V1 load(1, XDATA, add(CFA_XSP16, literal(-15)))
          CFI V2 load(1, XDATA, add(CFA_XSP16, literal(-14)))
          CFI V3 load(1, XDATA, add(CFA_XSP16, literal(-13)))
          CFI V4 load(1, XDATA, add(CFA_XSP16, literal(-12)))
          CFI V5 load(1, XDATA, add(CFA_XSP16, literal(-11)))
          CFI V6 load(1, XDATA, add(CFA_XSP16, literal(-10)))
          CFI V7 load(1, XDATA, add(CFA_XSP16, literal(-9)))
          CFI V8 load(1, XDATA, add(CFA_XSP16, literal(-8)))
          CFI V9 load(1, XDATA, add(CFA_XSP16, literal(-7)))
          CFI R7 load(1, XDATA, add(CFA_XSP16, literal(-6)))
          CFI ?RET_LOW load(1, XDATA, add(CFA_XSP16, literal(-5)))
          CFI ?RET_HIGH load(1, XDATA, add(CFA_XSP16, literal(-4)))
          CFI ?BRET_EXT load(1, XDATA, add(CFA_XSP16, literal(-3)))
          CFI DPL0 load(1, XDATA, add(CFA_XSP16, literal(-2)))
          CFI DPH0 load(1, XDATA, add(CFA_XSP16, literal(-1)))
          CFI CFA_SP SP+0
          CFI CFA_XSP16 add(XSP16, 18)
          CFI Block cfiCond86 Using cfiCommon0
          CFI (cfiCond86) Function zclLL_Send_NwkJoinReq
          CFI (cfiCond86) Conditional ??CrossCallReturnLabel_142, ??CrossCallReturnLabel_21
          CFI (cfiCond86) R6 load(1, XDATA, add(CFA_XSP16, literal(-18)))
          CFI (cfiCond86) VB load(1, XDATA, add(CFA_XSP16, literal(-17)))
          CFI (cfiCond86) V0 load(1, XDATA, add(CFA_XSP16, literal(-16)))
          CFI (cfiCond86) V1 load(1, XDATA, add(CFA_XSP16, literal(-15)))
          CFI (cfiCond86) V2 load(1, XDATA, add(CFA_XSP16, literal(-14)))
          CFI (cfiCond86) V3 load(1, XDATA, add(CFA_XSP16, literal(-13)))
          CFI (cfiCond86) V4 load(1, XDATA, add(CFA_XSP16, literal(-12)))
          CFI (cfiCond86) V5 load(1, XDATA, add(CFA_XSP16, literal(-11)))
          CFI (cfiCond86) V6 load(1, XDATA, add(CFA_XSP16, literal(-10)))
          CFI (cfiCond86) V7 load(1, XDATA, add(CFA_XSP16, literal(-9)))
          CFI (cfiCond86) V8 load(1, XDATA, add(CFA_XSP16, literal(-8)))
          CFI (cfiCond86) V9 load(1, XDATA, add(CFA_XSP16, literal(-7)))
          CFI (cfiCond86) R7 load(1, XDATA, add(CFA_XSP16, literal(-6)))
          CFI (cfiCond86) ?RET_LOW load(1, XDATA, add(CFA_XSP16, literal(-5)))
          CFI (cfiCond86) ?RET_HIGH load(1, XDATA, add(CFA_XSP16, literal(-4)))
          CFI (cfiCond86) ?BRET_EXT load(1, XDATA, add(CFA_XSP16, literal(-3)))
          CFI (cfiCond86) DPL0 load(1, XDATA, add(CFA_XSP16, literal(-2)))
          CFI (cfiCond86) DPH0 load(1, XDATA, add(CFA_XSP16, literal(-1)))
          CFI (cfiCond86) CFA_SP SP+0
          CFI (cfiCond86) CFA_XSP16 add(XSP16, 18)
          CFI Block cfiCond87 Using cfiCommon0
          CFI (cfiCond87) Function zclLL_Send_NwkJoinReq
          CFI (cfiCond87) Conditional ??CrossCallReturnLabel_143, ??CrossCallReturnLabel_30
          CFI (cfiCond87) R6 load(1, XDATA, add(CFA_XSP16, literal(-18)))
          CFI (cfiCond87) VB load(1, XDATA, add(CFA_XSP16, literal(-17)))
          CFI (cfiCond87) V0 load(1, XDATA, add(CFA_XSP16, literal(-16)))
          CFI (cfiCond87) V1 load(1, XDATA, add(CFA_XSP16, literal(-15)))
          CFI (cfiCond87) V2 load(1, XDATA, add(CFA_XSP16, literal(-14)))
          CFI (cfiCond87) V3 load(1, XDATA, add(CFA_XSP16, literal(-13)))
          CFI (cfiCond87) V4 load(1, XDATA, add(CFA_XSP16, literal(-12)))
          CFI (cfiCond87) V5 load(1, XDATA, add(CFA_XSP16, literal(-11)))
          CFI (cfiCond87) V6 load(1, XDATA, add(CFA_XSP16, literal(-10)))
          CFI (cfiCond87) V7 load(1, XDATA, add(CFA_XSP16, literal(-9)))
          CFI (cfiCond87) V8 load(1, XDATA, add(CFA_XSP16, literal(-8)))
          CFI (cfiCond87) V9 load(1, XDATA, add(CFA_XSP16, literal(-7)))
          CFI (cfiCond87) R7 load(1, XDATA, add(CFA_XSP16, literal(-6)))
          CFI (cfiCond87) ?RET_LOW load(1, XDATA, add(CFA_XSP16, literal(-5)))
          CFI (cfiCond87) ?RET_HIGH load(1, XDATA, add(CFA_XSP16, literal(-4)))
          CFI (cfiCond87) ?BRET_EXT load(1, XDATA, add(CFA_XSP16, literal(-3)))
          CFI (cfiCond87) DPL0 load(1, XDATA, add(CFA_XSP16, literal(-2)))
          CFI (cfiCond87) DPH0 load(1, XDATA, add(CFA_XSP16, literal(-1)))
          CFI (cfiCond87) CFA_SP SP+0
          CFI (cfiCond87) CFA_XSP16 add(XSP16, 18)
          CFI Block cfiCond88 Using cfiCommon0
          CFI (cfiCond88) Function zclLL_Send_NwkUpdateReq
          CFI (cfiCond88) Conditional ??CrossCallReturnLabel_143, ??CrossCallReturnLabel_31
          CFI (cfiCond88) R6 load(1, XDATA, add(CFA_XSP16, literal(-16)))
          CFI (cfiCond88) VB load(1, XDATA, add(CFA_XSP16, literal(-15)))
          CFI (cfiCond88) V0 load(1, XDATA, add(CFA_XSP16, literal(-14)))
          CFI (cfiCond88) V1 load(1, XDATA, add(CFA_XSP16, literal(-13)))
          CFI (cfiCond88) V2 load(1, XDATA, add(CFA_XSP16, literal(-12)))
          CFI (cfiCond88) V3 load(1, XDATA, add(CFA_XSP16, literal(-11)))
          CFI (cfiCond88) V4 load(1, XDATA, add(CFA_XSP16, literal(-10)))
          CFI (cfiCond88) V5 load(1, XDATA, add(CFA_XSP16, literal(-9)))
          CFI (cfiCond88) V6 load(1, XDATA, add(CFA_XSP16, literal(-8)))
          CFI (cfiCond88) V7 load(1, XDATA, add(CFA_XSP16, literal(-7)))
          CFI (cfiCond88) R7 load(1, XDATA, add(CFA_XSP16, literal(-6)))
          CFI (cfiCond88) ?RET_LOW load(1, XDATA, add(CFA_XSP16, literal(-5)))
          CFI (cfiCond88) ?RET_HIGH load(1, XDATA, add(CFA_XSP16, literal(-4)))
          CFI (cfiCond88) ?BRET_EXT load(1, XDATA, add(CFA_XSP16, literal(-3)))
          CFI (cfiCond88) DPL0 load(1, XDATA, add(CFA_XSP16, literal(-2)))
          CFI (cfiCond88) DPH0 load(1, XDATA, add(CFA_XSP16, literal(-1)))
          CFI (cfiCond88) CFA_SP SP+0
          CFI (cfiCond88) CFA_XSP16 add(XSP16, 16)
          CFI Block cfiCond89 Using cfiCommon0
          CFI (cfiCond89) Function zclLL_Send_ScanRsp
          CFI (cfiCond89) Conditional ??CrossCallReturnLabel_143, ??CrossCallReturnLabel_32
          CFI (cfiCond89) R6 load(1, XDATA, add(CFA_XSP16, literal(-20)))
          CFI (cfiCond89) VB load(1, XDATA, add(CFA_XSP16, literal(-19)))
          CFI (cfiCond89) V0 load(1, XDATA, add(CFA_XSP16, literal(-18)))
          CFI (cfiCond89) V1 load(1, XDATA, add(CFA_XSP16, literal(-17)))
          CFI (cfiCond89) V2 load(1, XDATA, add(CFA_XSP16, literal(-16)))
          CFI (cfiCond89) V3 load(1, XDATA, add(CFA_XSP16, literal(-15)))
          CFI (cfiCond89) V4 load(1, XDATA, add(CFA_XSP16, literal(-14)))
          CFI (cfiCond89) V5 load(1, XDATA, add(CFA_XSP16, literal(-13)))
          CFI (cfiCond89) V6 load(1, XDATA, add(CFA_XSP16, literal(-12)))
          CFI (cfiCond89) V7 load(1, XDATA, add(CFA_XSP16, literal(-11)))
          CFI (cfiCond89) V8 load(1, XDATA, add(CFA_XSP16, literal(-10)))
          CFI (cfiCond89) V9 load(1, XDATA, add(CFA_XSP16, literal(-9)))
          CFI (cfiCond89) V10 load(1, XDATA, add(CFA_XSP16, literal(-8)))
          CFI (cfiCond89) V11 load(1, XDATA, add(CFA_XSP16, literal(-7)))
          CFI (cfiCond89) R7 load(1, XDATA, add(CFA_XSP16, literal(-6)))
          CFI (cfiCond89) ?RET_LOW load(1, XDATA, add(CFA_XSP16, literal(-5)))
          CFI (cfiCond89) ?RET_HIGH load(1, XDATA, add(CFA_XSP16, literal(-4)))
          CFI (cfiCond89) ?BRET_EXT load(1, XDATA, add(CFA_XSP16, literal(-3)))
          CFI (cfiCond89) DPL0 load(1, XDATA, add(CFA_XSP16, literal(-2)))
          CFI (cfiCond89) DPH0 load(1, XDATA, add(CFA_XSP16, literal(-1)))
          CFI (cfiCond89) CFA_SP SP+0
          CFI (cfiCond89) CFA_XSP16 add(XSP16, 20)
          CFI Block cfiPicker90 Using cfiCommon1
          CFI (cfiPicker90) NoFunction
          CFI (cfiPicker90) Picker
        LCALL   ?Subroutine119 & 0xFFFF
??CrossCallReturnLabel_375:
        LCALL   ?Subroutine108 & 0xFFFF
??CrossCallReturnLabel_174:
        ; Setup parameters for call to function osal_memcpy
        ; Setup parameters for call to function osal_memcpy
        MOV     A,R6
        RET
          CFI EndBlock cfiCond85
          CFI EndBlock cfiCond86
          CFI EndBlock cfiCond87
          CFI EndBlock cfiCond88
          CFI EndBlock cfiCond89
          CFI EndBlock cfiPicker90
//  498 
//  499 /*********************************************************************
//  500  * @fn      zclLL_Send_ScanRsp
//  501  *
//  502  * @brief   Call to send out an Scan Response command
//  503  *
//  504  * @param   srcEP - sending application's endpoint
//  505  * @param   dstAddr - where you want the message to go
//  506  * @param   pRsp - response parameters
//  507  * @param   seqNum - sequence number
//  508  *
//  509  * @return  ZStatus_t
//  510  */

        RSEG BANKED_CODE:CODE:NOROOT(0)
//  511 ZStatus_t zclLL_Send_ScanRsp( uint8 srcEP, afAddrType_t *dstAddr,
zclLL_Send_ScanRsp:
          CFI Block cfiBlock91 Using cfiCommon0
          CFI Function zclLL_Send_ScanRsp
        CODE
//  512                               zclLLScanRsp_t *pRsp, uint8 seqNum )
//  513 {
        FUNCALL zclLL_Send_ScanRsp, osal_mem_alloc
        LOCFRAME ISTACK, 0, STACK
        LOCFRAME PSTACK, 0, STACK
        LOCFRAME XSTACK, 20, STACK
        LOCFRAME IOVERLAY, 0, STATIC
        LOCFRAME DOVERLAY, 0, STATIC
        ARGFRAME ISTACK, 0, STACK
        ARGFRAME PSTACK, 0, STACK
        ARGFRAME XSTACK, 20, STACK
        ARGFRAME IOVERLAY, 0, STATIC
        ARGFRAME DOVERLAY, 0, STATIC
        FUNCALL zclLL_Send_ScanRsp, osal_buffer_uint32
        LOCFRAME ISTACK, 0, STACK
        LOCFRAME PSTACK, 0, STACK
        LOCFRAME XSTACK, 24, STACK
        LOCFRAME IOVERLAY, 0, STATIC
        LOCFRAME DOVERLAY, 0, STATIC
        ARGFRAME ISTACK, 0, STACK
        ARGFRAME PSTACK, 0, STACK
        ARGFRAME XSTACK, 24, STACK
        ARGFRAME IOVERLAY, 0, STATIC
        ARGFRAME DOVERLAY, 0, STATIC
        FUNCALL zclLL_Send_ScanRsp, osal_buffer_uint32
        LOCFRAME ISTACK, 0, STACK
        LOCFRAME PSTACK, 0, STACK
        LOCFRAME XSTACK, 24, STACK
        LOCFRAME IOVERLAY, 0, STATIC
        LOCFRAME DOVERLAY, 0, STATIC
        ARGFRAME ISTACK, 0, STACK
        ARGFRAME PSTACK, 0, STACK
        ARGFRAME XSTACK, 24, STACK
        ARGFRAME IOVERLAY, 0, STATIC
        ARGFRAME DOVERLAY, 0, STATIC
        FUNCALL zclLL_Send_ScanRsp, sAddrExtCpy
        LOCFRAME ISTACK, 0, STACK
        LOCFRAME PSTACK, 0, STACK
        LOCFRAME XSTACK, 20, STACK
        LOCFRAME IOVERLAY, 0, STATIC
        LOCFRAME DOVERLAY, 0, STATIC
        ARGFRAME ISTACK, 0, STACK
        ARGFRAME PSTACK, 0, STACK
        ARGFRAME XSTACK, 20, STACK
        ARGFRAME IOVERLAY, 0, STATIC
        ARGFRAME DOVERLAY, 0, STATIC
        FUNCALL zclLL_Send_ScanRsp, zclLL_SendInterPANCommand
        LOCFRAME ISTACK, 0, STACK
        LOCFRAME PSTACK, 0, STACK
        LOCFRAME XSTACK, 25, STACK
        LOCFRAME IOVERLAY, 0, STATIC
        LOCFRAME DOVERLAY, 0, STATIC
        ARGFRAME ISTACK, 0, STACK
        ARGFRAME PSTACK, 0, STACK
        ARGFRAME XSTACK, 25, STACK
        ARGFRAME IOVERLAY, 0, STATIC
        ARGFRAME DOVERLAY, 0, STATIC
        FUNCALL zclLL_Send_ScanRsp, osal_mem_free
        LOCFRAME ISTACK, 0, STACK
        LOCFRAME PSTACK, 0, STACK
        LOCFRAME XSTACK, 20, STACK
        LOCFRAME IOVERLAY, 0, STATIC
        LOCFRAME DOVERLAY, 0, STATIC
        ARGFRAME ISTACK, 0, STACK
        ARGFRAME PSTACK, 0, STACK
        ARGFRAME XSTACK, 20, STACK
        ARGFRAME IOVERLAY, 0, STATIC
        ARGFRAME DOVERLAY, 0, STATIC
        MOV     A,#-0x14
        LCALL   ?BANKED_ENTER_XDATA
          CFI DPH0 load(1, XDATA, add(CFA_XSP16, literal(-1)))
          CFI DPL0 load(1, XDATA, add(CFA_XSP16, literal(-2)))
          CFI ?BRET_EXT load(1, XDATA, add(CFA_XSP16, literal(-3)))
          CFI ?RET_HIGH load(1, XDATA, add(CFA_XSP16, literal(-4)))
          CFI ?RET_LOW load(1, XDATA, add(CFA_XSP16, literal(-5)))
          CFI R7 load(1, XDATA, add(CFA_XSP16, literal(-6)))
          CFI V11 load(1, XDATA, add(CFA_XSP16, literal(-7)))
          CFI V10 load(1, XDATA, add(CFA_XSP16, literal(-8)))
          CFI V9 load(1, XDATA, add(CFA_XSP16, literal(-9)))
          CFI V8 load(1, XDATA, add(CFA_XSP16, literal(-10)))
          CFI V7 load(1, XDATA, add(CFA_XSP16, literal(-11)))
          CFI V6 load(1, XDATA, add(CFA_XSP16, literal(-12)))
          CFI V5 load(1, XDATA, add(CFA_XSP16, literal(-13)))
          CFI V4 load(1, XDATA, add(CFA_XSP16, literal(-14)))
          CFI V3 load(1, XDATA, add(CFA_XSP16, literal(-15)))
          CFI V2 load(1, XDATA, add(CFA_XSP16, literal(-16)))
          CFI V1 load(1, XDATA, add(CFA_XSP16, literal(-17)))
          CFI V0 load(1, XDATA, add(CFA_XSP16, literal(-18)))
          CFI VB load(1, XDATA, add(CFA_XSP16, literal(-19)))
          CFI R6 load(1, XDATA, add(CFA_XSP16, literal(-20)))
          CFI CFA_SP SP+0
          CFI CFA_XSP16 add(XSP16, 20)
        ; Saved register size: 20
        ; Auto size: 0
        MOV     ?V0 + 9,R1
        MOV     ?V0 + 6,R2
        MOV     ?V0 + 7,R3
        MOV     A,R4
        MOV     R6,A
        MOV     A,R5
        MOV     R7,A
        MOV     A,#0x14
        LCALL   ?XSTACK_DISP0_8
        MOVX    A,@DPTR
        MOV     ?V0 + 8,A
//  514   uint8 *buf;
//  515   uint8 bufLen = ZLL_CMDLEN_SCAN_RSP;
        MOV     R1,#0x1d
//  516   ZStatus_t status;
//  517 
//  518   // Calculate the total length needed
//  519   if ( pRsp->numSubDevices == 1 )
        MOV     A,R6
        ADD     A,#0x1d
        MOV     ?V0 + 0,A
        MOV     A,R7
        LCALL   ??Subroutine137_0 & 0xFFFF
??CrossCallReturnLabel_227:
        MOV     DPH,A
        MOVX    A,@DPTR
        XRL     A,#0x1
        JNZ     ??zclLL_Send_ScanRsp_0
//  520   {
//  521     bufLen += ZLL_CMDLENOPTIONAL_SCAN_RSP;
        MOV     R1,#0x24
//  522   }
//  523 
//  524   buf = zcl_mem_alloc( bufLen );
??zclLL_Send_ScanRsp_0:
        MOV     DPL,R1
        MOV     ?V0 + 2,DPL
        MOV     ?V0 + 3,#0x0
        ; Setup parameters for call to function osal_mem_alloc
        MOV     R2,?V0 + 2
        MOV     R3,?V0 + 3
        LCALL   ??osal_mem_alloc?relay
        MOV     ?V0 + 4,R2
        MOV     ?V0 + 5,R3
//  525   if ( buf != NULL )
        MOV     A,R2
        ORL     A,?V0 + 5
        JNZ     $+5
        LJMP    ??zclLL_Send_ScanRsp_1 & 0xFFFF
//  526   {
//  527     uint8 *pBuf = buf;
//  528 
//  529     pBuf = zcl_buffer_uint32( pBuf, pRsp->transID );
        ; Setup parameters for call to function osal_buffer_uint32
        MOV     DPL,R6
        MOV     DPH,R7
        LCALL   ?PUSH_XSTACK8_X_FOUR
          CFI CFA_XSP16 add(XSP16, 24)
        LCALL   ??osal_buffer_uint32?relay
        MOV     A,#0x4
        LCALL   ?DEALLOC_XSTACK8
          CFI CFA_XSP16 add(XSP16, 20)
//  530 
//  531     *pBuf++ = pRsp->rssiCorrection;
        MOV     DPL,R6
        MOV     DPH,R7
        INC     DPTR
        INC     DPTR
        INC     DPTR
        INC     DPTR
        LCALL   ?Subroutine29 & 0xFFFF
//  532     *pBuf++ = pRsp->zInfo.zInfoByte;
??CrossCallReturnLabel_35:
        LCALL   ??Subroutine128_0 & 0xFFFF
//  533     *pBuf++ = pRsp->zllInfo.zllInfoByte;
??CrossCallReturnLabel_198:
        MOV     DPL,R6
        MOV     DPH,R7
        INC     DPTR
        INC     DPTR
        INC     DPTR
        INC     DPTR
        INC     DPTR
        INC     DPTR
        INC     DPTR
        LCALL   ?Subroutine50 & 0xFFFF
??CrossCallReturnLabel_74:
        LCALL   ?Subroutine15 & 0xFFFF
//  534 
//  535     *pBuf++ = LO_UINT16( pRsp->keyBitmask );
//  536     *pBuf++ = HI_UINT16( pRsp->keyBitmask );
//  537 
//  538     pBuf = zcl_buffer_uint32( pBuf, pRsp->responseID );
??CrossCallReturnLabel_11:
        MOV     DPL,A
        MOV     A,R7
        LCALL   ??Subroutine145_0 & 0xFFFF
??CrossCallReturnLabel_266:
        LCALL   ?PUSH_XSTACK8_X_FOUR
          CFI CFA_XSP16 add(XSP16, 24)
        LCALL   ??osal_buffer_uint32?relay
        MOV     A,#0x4
        LCALL   ?DEALLOC_XSTACK8
          CFI CFA_XSP16 add(XSP16, 20)
//  539     pBuf = zcl_cpyExtAddr( pBuf, pRsp->extendedPANID );
        ; Setup parameters for call to function sAddrExtCpy
        MOV     A,R6
        ADD     A,#0xf
        MOV     R4,A
        MOV     A,R7
        ADDC    A,#0x0
        MOV     R5,A
        LCALL   ??sAddrExtCpy?relay
//  540 
//  541     *pBuf++ = pRsp->nwkUpdateId;
        MOV     A,R6
        ADD     A,#0x17
        LCALL   ?Subroutine27 & 0xFFFF
//  542     *pBuf++ = pRsp->logicalChannel;
??CrossCallReturnLabel_32:
        ADD     A,#0x18
        LCALL   ?Subroutine35 & 0xFFFF
//  543 
//  544     *pBuf++ = LO_UINT16( pRsp->PANID );
??CrossCallReturnLabel_50:
        ADD     A,#0x19
        LCALL   ?Subroutine16 & 0xFFFF
//  545     *pBuf++ = HI_UINT16( pRsp->PANID );
//  546 
//  547     *pBuf++ = LO_UINT16( pRsp->nwkAddr );
??CrossCallReturnLabel_14:
        ADD     A,#0x1b
        LCALL   ?Subroutine102 & 0xFFFF
??CrossCallReturnLabel_189:
        LCALL   ??Subroutine131_0 & 0xFFFF
//  548     *pBuf++ = HI_UINT16( pRsp->nwkAddr );
??CrossCallReturnLabel_190:
        MOV     DPL,R0
        MOV     DPH,R1
        INC     DPTR
        LCALL   ?Subroutine28 & 0xFFFF
//  549 
//  550     *pBuf++ = pRsp->numSubDevices;
??CrossCallReturnLabel_33:
        MOV     DPL,R2
        MOV     DPH,R3
        MOVX    @DPTR,A
        INC     DPTR
        INC     R2
        MOV     R3,DPH
//  551     *pBuf++ = pRsp->totalGrpIDs;
        MOV     A,R6
        ADD     A,#0x1e
        MOV     DPL,A
        MOV     A,R7
        LCALL   ??Subroutine145_0 & 0xFFFF
??CrossCallReturnLabel_267:
        LCALL   ?Subroutine28 & 0xFFFF
//  552 
//  553     if ( pRsp->numSubDevices == 1 )
??CrossCallReturnLabel_34:
        XRL     A,#0x1
        JNZ     ??CrossCallReturnLabel_76
//  554     {
//  555       *pBuf++ = pRsp->deviceInfo.endpoint;
        MOV     A,R6
        ADD     A,#0x1f
        LCALL   ?Subroutine35 & 0xFFFF
//  556 
//  557       *pBuf++ = LO_UINT16( pRsp->deviceInfo.profileID );
//  558       *pBuf++ = HI_UINT16( pRsp->deviceInfo.profileID );
//  559 
//  560       *pBuf++ = LO_UINT16( pRsp->deviceInfo.deviceID );
//  561       *pBuf++ = HI_UINT16( pRsp->deviceInfo.deviceID );
//  562 
//  563       *pBuf++ = pRsp->deviceInfo.version;
//  564       *pBuf++ = pRsp->deviceInfo.grpIdCnt;
//  565     }
??CrossCallReturnLabel_51:
        ADD     A,#0x20
        LCALL   ?Subroutine16 & 0xFFFF
??CrossCallReturnLabel_15:
        ADD     A,#0x22
        LCALL   ?Subroutine16 & 0xFFFF
??CrossCallReturnLabel_16:
        ADD     A,#0x24
        LCALL   ?Subroutine35 & 0xFFFF
??CrossCallReturnLabel_52:
        ADD     A,#0x25
        MOV     DPL,A
        MOV     A,R7
        LCALL   ??Subroutine145_0 & 0xFFFF
??CrossCallReturnLabel_268:
        LCALL   ?Subroutine51 & 0xFFFF
//  566 
//  567     status = zclLL_SendInterPANCommand( srcEP, dstAddr, COMMAND_ZLL_SCAN_RSP,
//  568                                         ZCL_FRAME_SERVER_CLIENT_DIR, seqNum, bufLen, buf );
??CrossCallReturnLabel_76:
        ; Setup parameters for call to function zclLL_SendInterPANCommand
        MOV     R0,#?V0 + 4
        LCALL   ?PUSH_XSTACK_I_TWO
          CFI CFA_XSP16 add(XSP16, 22)
        MOV     R0,#?V0 + 2
        LCALL   ?PUSH_XSTACK_I_TWO
          CFI CFA_XSP16 add(XSP16, 24)
        MOV     A,?V0 + 8
        MOV     ?V0 + 0,A
        MOV     R0,#?V0 + 0
        LCALL   ?PUSH_XSTACK_I_ONE
          CFI CFA_XSP16 add(XSP16, 25)
        MOV     R5,#0x1
        MOV     R4,#0x1
        MOV     R2,?V0 + 6
        MOV     R3,?V0 + 7
        MOV     R1,?V0 + 9
        LCALL   ??zclLL_SendInterPANCommand?relay
        MOV     A,#0x5
        LCALL   ?DEALLOC_XSTACK8
          CFI CFA_XSP16 add(XSP16, 20)
        MOV     A,R1
        MOV     R6,A
//  569     zcl_mem_free( buf );
        ; Setup parameters for call to function osal_mem_free
        MOV     R2,?V0 + 4
        MOV     R3,?V0 + 5
        LCALL   ??osal_mem_free?relay
        SJMP    ??zclLL_Send_ScanRsp_2
//  570   }
//  571   else
//  572   {
//  573     status = ZMemError;
??zclLL_Send_ScanRsp_1:
        MOV     R6,#0x10
//  574   }
//  575 
//  576   return ( status );
??zclLL_Send_ScanRsp_2:
        MOV     A,R6
        MOV     R1,A
          CFI EndBlock cfiBlock91
        REQUIRE ?Subroutine3
        ; // Fall through to label ?Subroutine3
//  577 }

        RSEG BANKED_CODE:CODE:NOROOT(0)
?Subroutine3:
          CFI Block cfiBlock92 Using cfiCommon0
          CFI NoFunction
          CFI CFA_SP SP+0
          CFI CFA_XSP16 add(XSP16, 20)
          CFI VB load(1, XDATA, add(CFA_XSP16, literal(-19)))
          CFI DPL0 load(1, XDATA, add(CFA_XSP16, literal(-2)))
          CFI DPH0 load(1, XDATA, add(CFA_XSP16, literal(-1)))
          CFI R6 load(1, XDATA, add(CFA_XSP16, literal(-20)))
          CFI R7 load(1, XDATA, add(CFA_XSP16, literal(-6)))
          CFI V0 load(1, XDATA, add(CFA_XSP16, literal(-18)))
          CFI V1 load(1, XDATA, add(CFA_XSP16, literal(-17)))
          CFI V2 load(1, XDATA, add(CFA_XSP16, literal(-16)))
          CFI V3 load(1, XDATA, add(CFA_XSP16, literal(-15)))
          CFI V4 load(1, XDATA, add(CFA_XSP16, literal(-14)))
          CFI V5 load(1, XDATA, add(CFA_XSP16, literal(-13)))
          CFI V6 load(1, XDATA, add(CFA_XSP16, literal(-12)))
          CFI V7 load(1, XDATA, add(CFA_XSP16, literal(-11)))
          CFI V8 load(1, XDATA, add(CFA_XSP16, literal(-10)))
          CFI V9 load(1, XDATA, add(CFA_XSP16, literal(-9)))
          CFI V10 load(1, XDATA, add(CFA_XSP16, literal(-8)))
          CFI V11 load(1, XDATA, add(CFA_XSP16, literal(-7)))
          CFI ?BRET_EXT load(1, XDATA, add(CFA_XSP16, literal(-3)))
          CFI ?RET_HIGH load(1, XDATA, add(CFA_XSP16, literal(-4)))
          CFI ?RET_LOW load(1, XDATA, add(CFA_XSP16, literal(-5)))
        MOV     R7,#0xc
        LJMP    ?BANKED_LEAVE_XDATA
          CFI EndBlock cfiBlock92

        RSEG BANKED_CODE:CODE:NOROOT(0)
?Subroutine51:
          CFI Block cfiCond93 Using cfiCommon0
          CFI Function zclLL_Send_NwkStartReq
          CFI Conditional ??CrossCallReturnLabel_75
          CFI R6 load(1, XDATA, add(CFA_XSP16, literal(-18)))
          CFI VB load(1, XDATA, add(CFA_XSP16, literal(-17)))
          CFI V0 load(1, XDATA, add(CFA_XSP16, literal(-16)))
          CFI V1 load(1, XDATA, add(CFA_XSP16, literal(-15)))
          CFI V2 load(1, XDATA, add(CFA_XSP16, literal(-14)))
          CFI V3 load(1, XDATA, add(CFA_XSP16, literal(-13)))
          CFI V4 load(1, XDATA, add(CFA_XSP16, literal(-12)))
          CFI V5 load(1, XDATA, add(CFA_XSP16, literal(-11)))
          CFI V6 load(1, XDATA, add(CFA_XSP16, literal(-10)))
          CFI V7 load(1, XDATA, add(CFA_XSP16, literal(-9)))
          CFI V8 load(1, XDATA, add(CFA_XSP16, literal(-8)))
          CFI V9 load(1, XDATA, add(CFA_XSP16, literal(-7)))
          CFI R7 load(1, XDATA, add(CFA_XSP16, literal(-6)))
          CFI ?RET_LOW load(1, XDATA, add(CFA_XSP16, literal(-5)))
          CFI ?RET_HIGH load(1, XDATA, add(CFA_XSP16, literal(-4)))
          CFI ?BRET_EXT load(1, XDATA, add(CFA_XSP16, literal(-3)))
          CFI DPL0 load(1, XDATA, add(CFA_XSP16, literal(-2)))
          CFI DPH0 load(1, XDATA, add(CFA_XSP16, literal(-1)))
          CFI CFA_SP SP+0
          CFI CFA_XSP16 add(XSP16, 18)
          CFI Block cfiCond94 Using cfiCommon0
          CFI (cfiCond94) Function zclLL_Send_ScanRsp
          CFI (cfiCond94) Conditional ??CrossCallReturnLabel_76
          CFI (cfiCond94) R6 load(1, XDATA, add(CFA_XSP16, literal(-20)))
          CFI (cfiCond94) VB load(1, XDATA, add(CFA_XSP16, literal(-19)))
          CFI (cfiCond94) V0 load(1, XDATA, add(CFA_XSP16, literal(-18)))
          CFI (cfiCond94) V1 load(1, XDATA, add(CFA_XSP16, literal(-17)))
          CFI (cfiCond94) V2 load(1, XDATA, add(CFA_XSP16, literal(-16)))
          CFI (cfiCond94) V3 load(1, XDATA, add(CFA_XSP16, literal(-15)))
          CFI (cfiCond94) V4 load(1, XDATA, add(CFA_XSP16, literal(-14)))
          CFI (cfiCond94) V5 load(1, XDATA, add(CFA_XSP16, literal(-13)))
          CFI (cfiCond94) V6 load(1, XDATA, add(CFA_XSP16, literal(-12)))
          CFI (cfiCond94) V7 load(1, XDATA, add(CFA_XSP16, literal(-11)))
          CFI (cfiCond94) V8 load(1, XDATA, add(CFA_XSP16, literal(-10)))
          CFI (cfiCond94) V9 load(1, XDATA, add(CFA_XSP16, literal(-9)))
          CFI (cfiCond94) V10 load(1, XDATA, add(CFA_XSP16, literal(-8)))
          CFI (cfiCond94) V11 load(1, XDATA, add(CFA_XSP16, literal(-7)))
          CFI (cfiCond94) R7 load(1, XDATA, add(CFA_XSP16, literal(-6)))
          CFI (cfiCond94) ?RET_LOW load(1, XDATA, add(CFA_XSP16, literal(-5)))
          CFI (cfiCond94) ?RET_HIGH load(1, XDATA, add(CFA_XSP16, literal(-4)))
          CFI (cfiCond94) ?BRET_EXT load(1, XDATA, add(CFA_XSP16, literal(-3)))
          CFI (cfiCond94) DPL0 load(1, XDATA, add(CFA_XSP16, literal(-2)))
          CFI (cfiCond94) DPH0 load(1, XDATA, add(CFA_XSP16, literal(-1)))
          CFI (cfiCond94) CFA_SP SP+0
          CFI (cfiCond94) CFA_XSP16 add(XSP16, 20)
          CFI Block cfiCond95 Using cfiCommon0
          CFI (cfiCond95) Function zclLL_ProcessInCmd_GetGrpIDsRsp
          CFI (cfiCond95) Conditional ??CrossCallReturnLabel_77
          CFI (cfiCond95) R6 load(1, XDATA, add(CFA_XSP16, literal(-18)))
          CFI (cfiCond95) VB load(1, XDATA, add(CFA_XSP16, literal(-17)))
          CFI (cfiCond95) V0 load(1, XDATA, add(CFA_XSP16, literal(-16)))
          CFI (cfiCond95) V1 load(1, XDATA, add(CFA_XSP16, literal(-15)))
          CFI (cfiCond95) V2 load(1, XDATA, add(CFA_XSP16, literal(-14)))
          CFI (cfiCond95) V3 load(1, XDATA, add(CFA_XSP16, literal(-13)))
          CFI (cfiCond95) V4 load(1, XDATA, add(CFA_XSP16, literal(-12)))
          CFI (cfiCond95) V5 load(1, XDATA, add(CFA_XSP16, literal(-11)))
          CFI (cfiCond95) V6 load(1, XDATA, add(CFA_XSP16, literal(-10)))
          CFI (cfiCond95) V7 load(1, XDATA, add(CFA_XSP16, literal(-9)))
          CFI (cfiCond95) V8 load(1, XDATA, add(CFA_XSP16, literal(-8)))
          CFI (cfiCond95) V9 load(1, XDATA, add(CFA_XSP16, literal(-7)))
          CFI (cfiCond95) R7 load(1, XDATA, add(CFA_XSP16, literal(-6)))
          CFI (cfiCond95) ?RET_LOW load(1, XDATA, add(CFA_XSP16, literal(-5)))
          CFI (cfiCond95) ?RET_HIGH load(1, XDATA, add(CFA_XSP16, literal(-4)))
          CFI (cfiCond95) ?BRET_EXT load(1, XDATA, add(CFA_XSP16, literal(-3)))
          CFI (cfiCond95) DPL0 load(1, XDATA, add(CFA_XSP16, literal(-2)))
          CFI (cfiCond95) DPH0 load(1, XDATA, add(CFA_XSP16, literal(-1)))
          CFI (cfiCond95) CFA_SP SP+0
          CFI (cfiCond95) CFA_XSP16 add(XSP16, 18)
          CFI Block cfiPicker96 Using cfiCommon1
          CFI (cfiPicker96) NoFunction
          CFI (cfiPicker96) Picker
        LCALL   ?Subroutine96 & 0xFFFF
??CrossCallReturnLabel_156:
        RET
          CFI EndBlock cfiCond93
          CFI EndBlock cfiCond94
          CFI EndBlock cfiCond95
          CFI EndBlock cfiPicker96

        RSEG BANKED_CODE:CODE:NOROOT(0)
?Subroutine96:
          CFI Block cfiCond97 Using cfiCommon0
          CFI Function zclLL_Send_NwkStartReq
          CFI Conditional ??CrossCallReturnLabel_156, ??CrossCallReturnLabel_75
          CFI R6 load(1, XDATA, add(CFA_XSP16, literal(-18)))
          CFI VB load(1, XDATA, add(CFA_XSP16, literal(-17)))
          CFI V0 load(1, XDATA, add(CFA_XSP16, literal(-16)))
          CFI V1 load(1, XDATA, add(CFA_XSP16, literal(-15)))
          CFI V2 load(1, XDATA, add(CFA_XSP16, literal(-14)))
          CFI V3 load(1, XDATA, add(CFA_XSP16, literal(-13)))
          CFI V4 load(1, XDATA, add(CFA_XSP16, literal(-12)))
          CFI V5 load(1, XDATA, add(CFA_XSP16, literal(-11)))
          CFI V6 load(1, XDATA, add(CFA_XSP16, literal(-10)))
          CFI V7 load(1, XDATA, add(CFA_XSP16, literal(-9)))
          CFI V8 load(1, XDATA, add(CFA_XSP16, literal(-8)))
          CFI V9 load(1, XDATA, add(CFA_XSP16, literal(-7)))
          CFI R7 load(1, XDATA, add(CFA_XSP16, literal(-6)))
          CFI ?RET_LOW load(1, XDATA, add(CFA_XSP16, literal(-5)))
          CFI ?RET_HIGH load(1, XDATA, add(CFA_XSP16, literal(-4)))
          CFI ?BRET_EXT load(1, XDATA, add(CFA_XSP16, literal(-3)))
          CFI DPL0 load(1, XDATA, add(CFA_XSP16, literal(-2)))
          CFI DPH0 load(1, XDATA, add(CFA_XSP16, literal(-1)))
          CFI CFA_SP SP+0
          CFI CFA_XSP16 add(XSP16, 18)
          CFI Block cfiCond98 Using cfiCommon0
          CFI (cfiCond98) Function zclLL_Send_ScanRsp
          CFI (cfiCond98) Conditional ??CrossCallReturnLabel_156, ??CrossCallReturnLabel_76
          CFI (cfiCond98) R6 load(1, XDATA, add(CFA_XSP16, literal(-20)))
          CFI (cfiCond98) VB load(1, XDATA, add(CFA_XSP16, literal(-19)))
          CFI (cfiCond98) V0 load(1, XDATA, add(CFA_XSP16, literal(-18)))
          CFI (cfiCond98) V1 load(1, XDATA, add(CFA_XSP16, literal(-17)))
          CFI (cfiCond98) V2 load(1, XDATA, add(CFA_XSP16, literal(-16)))
          CFI (cfiCond98) V3 load(1, XDATA, add(CFA_XSP16, literal(-15)))
          CFI (cfiCond98) V4 load(1, XDATA, add(CFA_XSP16, literal(-14)))
          CFI (cfiCond98) V5 load(1, XDATA, add(CFA_XSP16, literal(-13)))
          CFI (cfiCond98) V6 load(1, XDATA, add(CFA_XSP16, literal(-12)))
          CFI (cfiCond98) V7 load(1, XDATA, add(CFA_XSP16, literal(-11)))
          CFI (cfiCond98) V8 load(1, XDATA, add(CFA_XSP16, literal(-10)))
          CFI (cfiCond98) V9 load(1, XDATA, add(CFA_XSP16, literal(-9)))
          CFI (cfiCond98) V10 load(1, XDATA, add(CFA_XSP16, literal(-8)))
          CFI (cfiCond98) V11 load(1, XDATA, add(CFA_XSP16, literal(-7)))
          CFI (cfiCond98) R7 load(1, XDATA, add(CFA_XSP16, literal(-6)))
          CFI (cfiCond98) ?RET_LOW load(1, XDATA, add(CFA_XSP16, literal(-5)))
          CFI (cfiCond98) ?RET_HIGH load(1, XDATA, add(CFA_XSP16, literal(-4)))
          CFI (cfiCond98) ?BRET_EXT load(1, XDATA, add(CFA_XSP16, literal(-3)))
          CFI (cfiCond98) DPL0 load(1, XDATA, add(CFA_XSP16, literal(-2)))
          CFI (cfiCond98) DPH0 load(1, XDATA, add(CFA_XSP16, literal(-1)))
          CFI (cfiCond98) CFA_SP SP+0
          CFI (cfiCond98) CFA_XSP16 add(XSP16, 20)
          CFI Block cfiCond99 Using cfiCommon0
          CFI (cfiCond99) Function zclLL_ProcessInCmd_GetGrpIDsRsp
          CFI (cfiCond99) Conditional ??CrossCallReturnLabel_156, ??CrossCallReturnLabel_77
          CFI (cfiCond99) R6 load(1, XDATA, add(CFA_XSP16, literal(-18)))
          CFI (cfiCond99) VB load(1, XDATA, add(CFA_XSP16, literal(-17)))
          CFI (cfiCond99) V0 load(1, XDATA, add(CFA_XSP16, literal(-16)))
          CFI (cfiCond99) V1 load(1, XDATA, add(CFA_XSP16, literal(-15)))
          CFI (cfiCond99) V2 load(1, XDATA, add(CFA_XSP16, literal(-14)))
          CFI (cfiCond99) V3 load(1, XDATA, add(CFA_XSP16, literal(-13)))
          CFI (cfiCond99) V4 load(1, XDATA, add(CFA_XSP16, literal(-12)))
          CFI (cfiCond99) V5 load(1, XDATA, add(CFA_XSP16, literal(-11)))
          CFI (cfiCond99) V6 load(1, XDATA, add(CFA_XSP16, literal(-10)))
          CFI (cfiCond99) V7 load(1, XDATA, add(CFA_XSP16, literal(-9)))
          CFI (cfiCond99) V8 load(1, XDATA, add(CFA_XSP16, literal(-8)))
          CFI (cfiCond99) V9 load(1, XDATA, add(CFA_XSP16, literal(-7)))
          CFI (cfiCond99) R7 load(1, XDATA, add(CFA_XSP16, literal(-6)))
          CFI (cfiCond99) ?RET_LOW load(1, XDATA, add(CFA_XSP16, literal(-5)))
          CFI (cfiCond99) ?RET_HIGH load(1, XDATA, add(CFA_XSP16, literal(-4)))
          CFI (cfiCond99) ?BRET_EXT load(1, XDATA, add(CFA_XSP16, literal(-3)))
          CFI (cfiCond99) DPL0 load(1, XDATA, add(CFA_XSP16, literal(-2)))
          CFI (cfiCond99) DPH0 load(1, XDATA, add(CFA_XSP16, literal(-1)))
          CFI (cfiCond99) CFA_SP SP+0
          CFI (cfiCond99) CFA_XSP16 add(XSP16, 18)
          CFI Block cfiCond100 Using cfiCommon0
          CFI (cfiCond100) Function zclLL_Send_NwkJoinReq
          CFI (cfiCond100) Conditional ??CrossCallReturnLabel_155, ??CrossCallReturnLabel_73
          CFI (cfiCond100) R6 load(1, XDATA, add(CFA_XSP16, literal(-18)))
          CFI (cfiCond100) VB load(1, XDATA, add(CFA_XSP16, literal(-17)))
          CFI (cfiCond100) V0 load(1, XDATA, add(CFA_XSP16, literal(-16)))
          CFI (cfiCond100) V1 load(1, XDATA, add(CFA_XSP16, literal(-15)))
          CFI (cfiCond100) V2 load(1, XDATA, add(CFA_XSP16, literal(-14)))
          CFI (cfiCond100) V3 load(1, XDATA, add(CFA_XSP16, literal(-13)))
          CFI (cfiCond100) V4 load(1, XDATA, add(CFA_XSP16, literal(-12)))
          CFI (cfiCond100) V5 load(1, XDATA, add(CFA_XSP16, literal(-11)))
          CFI (cfiCond100) V6 load(1, XDATA, add(CFA_XSP16, literal(-10)))
          CFI (cfiCond100) V7 load(1, XDATA, add(CFA_XSP16, literal(-9)))
          CFI (cfiCond100) V8 load(1, XDATA, add(CFA_XSP16, literal(-8)))
          CFI (cfiCond100) V9 load(1, XDATA, add(CFA_XSP16, literal(-7)))
          CFI (cfiCond100) R7 load(1, XDATA, add(CFA_XSP16, literal(-6)))
          CFI (cfiCond100) ?RET_LOW load(1, XDATA, add(CFA_XSP16, literal(-5)))
          CFI (cfiCond100) ?RET_HIGH load(1, XDATA, add(CFA_XSP16, literal(-4)))
          CFI (cfiCond100) ?BRET_EXT load(1, XDATA, add(CFA_XSP16, literal(-3)))
          CFI (cfiCond100) DPL0 load(1, XDATA, add(CFA_XSP16, literal(-2)))
          CFI (cfiCond100) DPH0 load(1, XDATA, add(CFA_XSP16, literal(-1)))
          CFI (cfiCond100) CFA_SP SP+0
          CFI (cfiCond100) CFA_XSP16 add(XSP16, 18)
          CFI Block cfiCond101 Using cfiCommon0
          CFI (cfiCond101) Function zclLL_Send_ScanRsp
          CFI (cfiCond101) Conditional ??CrossCallReturnLabel_155, ??CrossCallReturnLabel_74
          CFI (cfiCond101) R6 load(1, XDATA, add(CFA_XSP16, literal(-20)))
          CFI (cfiCond101) VB load(1, XDATA, add(CFA_XSP16, literal(-19)))
          CFI (cfiCond101) V0 load(1, XDATA, add(CFA_XSP16, literal(-18)))
          CFI (cfiCond101) V1 load(1, XDATA, add(CFA_XSP16, literal(-17)))
          CFI (cfiCond101) V2 load(1, XDATA, add(CFA_XSP16, literal(-16)))
          CFI (cfiCond101) V3 load(1, XDATA, add(CFA_XSP16, literal(-15)))
          CFI (cfiCond101) V4 load(1, XDATA, add(CFA_XSP16, literal(-14)))
          CFI (cfiCond101) V5 load(1, XDATA, add(CFA_XSP16, literal(-13)))
          CFI (cfiCond101) V6 load(1, XDATA, add(CFA_XSP16, literal(-12)))
          CFI (cfiCond101) V7 load(1, XDATA, add(CFA_XSP16, literal(-11)))
          CFI (cfiCond101) V8 load(1, XDATA, add(CFA_XSP16, literal(-10)))
          CFI (cfiCond101) V9 load(1, XDATA, add(CFA_XSP16, literal(-9)))
          CFI (cfiCond101) V10 load(1, XDATA, add(CFA_XSP16, literal(-8)))
          CFI (cfiCond101) V11 load(1, XDATA, add(CFA_XSP16, literal(-7)))
          CFI (cfiCond101) R7 load(1, XDATA, add(CFA_XSP16, literal(-6)))
          CFI (cfiCond101) ?RET_LOW load(1, XDATA, add(CFA_XSP16, literal(-5)))
          CFI (cfiCond101) ?RET_HIGH load(1, XDATA, add(CFA_XSP16, literal(-4)))
          CFI (cfiCond101) ?BRET_EXT load(1, XDATA, add(CFA_XSP16, literal(-3)))
          CFI (cfiCond101) DPL0 load(1, XDATA, add(CFA_XSP16, literal(-2)))
          CFI (cfiCond101) DPH0 load(1, XDATA, add(CFA_XSP16, literal(-1)))
          CFI (cfiCond101) CFA_SP SP+0
          CFI (cfiCond101) CFA_XSP16 add(XSP16, 20)
          CFI Block cfiCond102 Using cfiCommon0
          CFI (cfiCond102) Function zclLL_Send_NwkStartReq
          CFI (cfiCond102) Conditional ??CrossCallReturnLabel_154, ??CrossCallReturnLabel_65
          CFI (cfiCond102) R6 load(1, XDATA, add(CFA_XSP16, literal(-18)))
          CFI (cfiCond102) VB load(1, XDATA, add(CFA_XSP16, literal(-17)))
          CFI (cfiCond102) V0 load(1, XDATA, add(CFA_XSP16, literal(-16)))
          CFI (cfiCond102) V1 load(1, XDATA, add(CFA_XSP16, literal(-15)))
          CFI (cfiCond102) V2 load(1, XDATA, add(CFA_XSP16, literal(-14)))
          CFI (cfiCond102) V3 load(1, XDATA, add(CFA_XSP16, literal(-13)))
          CFI (cfiCond102) V4 load(1, XDATA, add(CFA_XSP16, literal(-12)))
          CFI (cfiCond102) V5 load(1, XDATA, add(CFA_XSP16, literal(-11)))
          CFI (cfiCond102) V6 load(1, XDATA, add(CFA_XSP16, literal(-10)))
          CFI (cfiCond102) V7 load(1, XDATA, add(CFA_XSP16, literal(-9)))
          CFI (cfiCond102) V8 load(1, XDATA, add(CFA_XSP16, literal(-8)))
          CFI (cfiCond102) V9 load(1, XDATA, add(CFA_XSP16, literal(-7)))
          CFI (cfiCond102) R7 load(1, XDATA, add(CFA_XSP16, literal(-6)))
          CFI (cfiCond102) ?RET_LOW load(1, XDATA, add(CFA_XSP16, literal(-5)))
          CFI (cfiCond102) ?RET_HIGH load(1, XDATA, add(CFA_XSP16, literal(-4)))
          CFI (cfiCond102) ?BRET_EXT load(1, XDATA, add(CFA_XSP16, literal(-3)))
          CFI (cfiCond102) DPL0 load(1, XDATA, add(CFA_XSP16, literal(-2)))
          CFI (cfiCond102) DPH0 load(1, XDATA, add(CFA_XSP16, literal(-1)))
          CFI (cfiCond102) CFA_SP SP+0
          CFI (cfiCond102) CFA_XSP16 add(XSP16, 18)
          CFI Block cfiCond103 Using cfiCommon0
          CFI (cfiCond103) Function zclLL_Send_DeviceInfoRsp
          CFI (cfiCond103) Conditional ??CrossCallReturnLabel_154, ??CrossCallReturnLabel_66
          CFI (cfiCond103) R6 load(1, XDATA, add(CFA_XSP16, literal(-24)))
          CFI (cfiCond103) VB load(1, XDATA, add(CFA_XSP16, literal(-23)))
          CFI (cfiCond103) V0 load(1, XDATA, add(CFA_XSP16, literal(-22)))
          CFI (cfiCond103) V1 load(1, XDATA, add(CFA_XSP16, literal(-21)))
          CFI (cfiCond103) V2 load(1, XDATA, add(CFA_XSP16, literal(-20)))
          CFI (cfiCond103) V3 load(1, XDATA, add(CFA_XSP16, literal(-19)))
          CFI (cfiCond103) V4 load(1, XDATA, add(CFA_XSP16, literal(-18)))
          CFI (cfiCond103) V5 load(1, XDATA, add(CFA_XSP16, literal(-17)))
          CFI (cfiCond103) V6 load(1, XDATA, add(CFA_XSP16, literal(-16)))
          CFI (cfiCond103) V7 load(1, XDATA, add(CFA_XSP16, literal(-15)))
          CFI (cfiCond103) V8 load(1, XDATA, add(CFA_XSP16, literal(-14)))
          CFI (cfiCond103) V9 load(1, XDATA, add(CFA_XSP16, literal(-13)))
          CFI (cfiCond103) V10 load(1, XDATA, add(CFA_XSP16, literal(-12)))
          CFI (cfiCond103) V11 load(1, XDATA, add(CFA_XSP16, literal(-11)))
          CFI (cfiCond103) V12 load(1, XDATA, add(CFA_XSP16, literal(-10)))
          CFI (cfiCond103) V13 load(1, XDATA, add(CFA_XSP16, literal(-9)))
          CFI (cfiCond103) V14 load(1, XDATA, add(CFA_XSP16, literal(-8)))
          CFI (cfiCond103) V15 load(1, XDATA, add(CFA_XSP16, literal(-7)))
          CFI (cfiCond103) R7 load(1, XDATA, add(CFA_XSP16, literal(-6)))
          CFI (cfiCond103) ?RET_LOW load(1, XDATA, add(CFA_XSP16, literal(-5)))
          CFI (cfiCond103) ?RET_HIGH load(1, XDATA, add(CFA_XSP16, literal(-4)))
          CFI (cfiCond103) ?BRET_EXT load(1, XDATA, add(CFA_XSP16, literal(-3)))
          CFI (cfiCond103) DPL0 load(1, XDATA, add(CFA_XSP16, literal(-2)))
          CFI (cfiCond103) DPH0 load(1, XDATA, add(CFA_XSP16, literal(-1)))
          CFI (cfiCond103) CFA_SP SP+0
          CFI (cfiCond103) CFA_XSP16 add(XSP16, 24)
          CFI Block cfiPicker104 Using cfiCommon1
          CFI (cfiPicker104) NoFunction
          CFI (cfiPicker104) Picker
        LCALL   ?Subroutine121 & 0xFFFF
??CrossCallReturnLabel_180:
        RET
          CFI EndBlock cfiCond97
          CFI EndBlock cfiCond98
          CFI EndBlock cfiCond99
          CFI EndBlock cfiCond100
          CFI EndBlock cfiCond101
          CFI EndBlock cfiCond102
          CFI EndBlock cfiCond103
          CFI EndBlock cfiPicker104

        RSEG BANKED_CODE:CODE:NOROOT(0)
?Subroutine121:
          CFI Block cfiCond105 Using cfiCommon0
          CFI Function zclLL_Send_NwkStartReq
          CFI Conditional ??CrossCallReturnLabel_181, ??CrossCallReturnLabel_172, ??CrossCallReturnLabel_135, ??CrossCallReturnLabel_0
          CFI R6 load(1, XDATA, add(CFA_XSP16, literal(-18)))
          CFI VB load(1, XDATA, add(CFA_XSP16, literal(-17)))
          CFI V0 load(1, XDATA, add(CFA_XSP16, literal(-16)))
          CFI V1 load(1, XDATA, add(CFA_XSP16, literal(-15)))
          CFI V2 load(1, XDATA, add(CFA_XSP16, literal(-14)))
          CFI V3 load(1, XDATA, add(CFA_XSP16, literal(-13)))
          CFI V4 load(1, XDATA, add(CFA_XSP16, literal(-12)))
          CFI V5 load(1, XDATA, add(CFA_XSP16, literal(-11)))
          CFI V6 load(1, XDATA, add(CFA_XSP16, literal(-10)))
          CFI V7 load(1, XDATA, add(CFA_XSP16, literal(-9)))
          CFI V8 load(1, XDATA, add(CFA_XSP16, literal(-8)))
          CFI V9 load(1, XDATA, add(CFA_XSP16, literal(-7)))
          CFI R7 load(1, XDATA, add(CFA_XSP16, literal(-6)))
          CFI ?RET_LOW load(1, XDATA, add(CFA_XSP16, literal(-5)))
          CFI ?RET_HIGH load(1, XDATA, add(CFA_XSP16, literal(-4)))
          CFI ?BRET_EXT load(1, XDATA, add(CFA_XSP16, literal(-3)))
          CFI DPL0 load(1, XDATA, add(CFA_XSP16, literal(-2)))
          CFI DPH0 load(1, XDATA, add(CFA_XSP16, literal(-1)))
          CFI CFA_SP SP+0
          CFI CFA_XSP16 add(XSP16, 18)
          CFI Block cfiCond106 Using cfiCommon0
          CFI (cfiCond106) Function zclLL_Send_NwkJoinReq
          CFI (cfiCond106) Conditional ??CrossCallReturnLabel_181, ??CrossCallReturnLabel_172, ??CrossCallReturnLabel_135, ??CrossCallReturnLabel_1
          CFI (cfiCond106) R6 load(1, XDATA, add(CFA_XSP16, literal(-18)))
          CFI (cfiCond106) VB load(1, XDATA, add(CFA_XSP16, literal(-17)))
          CFI (cfiCond106) V0 load(1, XDATA, add(CFA_XSP16, literal(-16)))
          CFI (cfiCond106) V1 load(1, XDATA, add(CFA_XSP16, literal(-15)))
          CFI (cfiCond106) V2 load(1, XDATA, add(CFA_XSP16, literal(-14)))
          CFI (cfiCond106) V3 load(1, XDATA, add(CFA_XSP16, literal(-13)))
          CFI (cfiCond106) V4 load(1, XDATA, add(CFA_XSP16, literal(-12)))
          CFI (cfiCond106) V5 load(1, XDATA, add(CFA_XSP16, literal(-11)))
          CFI (cfiCond106) V6 load(1, XDATA, add(CFA_XSP16, literal(-10)))
          CFI (cfiCond106) V7 load(1, XDATA, add(CFA_XSP16, literal(-9)))
          CFI (cfiCond106) V8 load(1, XDATA, add(CFA_XSP16, literal(-8)))
          CFI (cfiCond106) V9 load(1, XDATA, add(CFA_XSP16, literal(-7)))
          CFI (cfiCond106) R7 load(1, XDATA, add(CFA_XSP16, literal(-6)))
          CFI (cfiCond106) ?RET_LOW load(1, XDATA, add(CFA_XSP16, literal(-5)))
          CFI (cfiCond106) ?RET_HIGH load(1, XDATA, add(CFA_XSP16, literal(-4)))
          CFI (cfiCond106) ?BRET_EXT load(1, XDATA, add(CFA_XSP16, literal(-3)))
          CFI (cfiCond106) DPL0 load(1, XDATA, add(CFA_XSP16, literal(-2)))
          CFI (cfiCond106) DPH0 load(1, XDATA, add(CFA_XSP16, literal(-1)))
          CFI (cfiCond106) CFA_SP SP+0
          CFI (cfiCond106) CFA_XSP16 add(XSP16, 18)
          CFI Block cfiCond107 Using cfiCommon0
          CFI (cfiCond107) Function zclLL_Send_NwkUpdateReq
          CFI (cfiCond107) Conditional ??CrossCallReturnLabel_181, ??CrossCallReturnLabel_172, ??CrossCallReturnLabel_136, ??CrossCallReturnLabel_26
          CFI (cfiCond107) R6 load(1, XDATA, add(CFA_XSP16, literal(-16)))
          CFI (cfiCond107) VB load(1, XDATA, add(CFA_XSP16, literal(-15)))
          CFI (cfiCond107) V0 load(1, XDATA, add(CFA_XSP16, literal(-14)))
          CFI (cfiCond107) V1 load(1, XDATA, add(CFA_XSP16, literal(-13)))
          CFI (cfiCond107) V2 load(1, XDATA, add(CFA_XSP16, literal(-12)))
          CFI (cfiCond107) V3 load(1, XDATA, add(CFA_XSP16, literal(-11)))
          CFI (cfiCond107) V4 load(1, XDATA, add(CFA_XSP16, literal(-10)))
          CFI (cfiCond107) V5 load(1, XDATA, add(CFA_XSP16, literal(-9)))
          CFI (cfiCond107) V6 load(1, XDATA, add(CFA_XSP16, literal(-8)))
          CFI (cfiCond107) V7 load(1, XDATA, add(CFA_XSP16, literal(-7)))
          CFI (cfiCond107) R7 load(1, XDATA, add(CFA_XSP16, literal(-6)))
          CFI (cfiCond107) ?RET_LOW load(1, XDATA, add(CFA_XSP16, literal(-5)))
          CFI (cfiCond107) ?RET_HIGH load(1, XDATA, add(CFA_XSP16, literal(-4)))
          CFI (cfiCond107) ?BRET_EXT load(1, XDATA, add(CFA_XSP16, literal(-3)))
          CFI (cfiCond107) DPL0 load(1, XDATA, add(CFA_XSP16, literal(-2)))
          CFI (cfiCond107) DPH0 load(1, XDATA, add(CFA_XSP16, literal(-1)))
          CFI (cfiCond107) CFA_SP SP+0
          CFI (cfiCond107) CFA_XSP16 add(XSP16, 16)
          CFI Block cfiCond108 Using cfiCommon0
          CFI (cfiCond108) Function zclLL_Send_NwkStartRsp
          CFI (cfiCond108) Conditional ??CrossCallReturnLabel_181, ??CrossCallReturnLabel_172, ??CrossCallReturnLabel_136, ??CrossCallReturnLabel_27
          CFI (cfiCond108) R6 load(1, XDATA, add(CFA_XSP16, literal(-16)))
          CFI (cfiCond108) VB load(1, XDATA, add(CFA_XSP16, literal(-15)))
          CFI (cfiCond108) V0 load(1, XDATA, add(CFA_XSP16, literal(-14)))
          CFI (cfiCond108) V1 load(1, XDATA, add(CFA_XSP16, literal(-13)))
          CFI (cfiCond108) V2 load(1, XDATA, add(CFA_XSP16, literal(-12)))
          CFI (cfiCond108) V3 load(1, XDATA, add(CFA_XSP16, literal(-11)))
          CFI (cfiCond108) V4 load(1, XDATA, add(CFA_XSP16, literal(-10)))
          CFI (cfiCond108) V5 load(1, XDATA, add(CFA_XSP16, literal(-9)))
          CFI (cfiCond108) V6 load(1, XDATA, add(CFA_XSP16, literal(-8)))
          CFI (cfiCond108) V7 load(1, XDATA, add(CFA_XSP16, literal(-7)))
          CFI (cfiCond108) R7 load(1, XDATA, add(CFA_XSP16, literal(-6)))
          CFI (cfiCond108) ?RET_LOW load(1, XDATA, add(CFA_XSP16, literal(-5)))
          CFI (cfiCond108) ?RET_HIGH load(1, XDATA, add(CFA_XSP16, literal(-4)))
          CFI (cfiCond108) ?BRET_EXT load(1, XDATA, add(CFA_XSP16, literal(-3)))
          CFI (cfiCond108) DPL0 load(1, XDATA, add(CFA_XSP16, literal(-2)))
          CFI (cfiCond108) DPH0 load(1, XDATA, add(CFA_XSP16, literal(-1)))
          CFI (cfiCond108) CFA_SP SP+0
          CFI (cfiCond108) CFA_XSP16 add(XSP16, 16)
          CFI Block cfiCond109 Using cfiCommon0
          CFI (cfiCond109) Function zclLL_Send_NwkStartReq
          CFI (cfiCond109) Conditional ??CrossCallReturnLabel_181, ??CrossCallReturnLabel_173, ??CrossCallReturnLabel_126, ??CrossCallReturnLabel_0
          CFI (cfiCond109) R6 load(1, XDATA, add(CFA_XSP16, literal(-18)))
          CFI (cfiCond109) VB load(1, XDATA, add(CFA_XSP16, literal(-17)))
          CFI (cfiCond109) V0 load(1, XDATA, add(CFA_XSP16, literal(-16)))
          CFI (cfiCond109) V1 load(1, XDATA, add(CFA_XSP16, literal(-15)))
          CFI (cfiCond109) V2 load(1, XDATA, add(CFA_XSP16, literal(-14)))
          CFI (cfiCond109) V3 load(1, XDATA, add(CFA_XSP16, literal(-13)))
          CFI (cfiCond109) V4 load(1, XDATA, add(CFA_XSP16, literal(-12)))
          CFI (cfiCond109) V5 load(1, XDATA, add(CFA_XSP16, literal(-11)))
          CFI (cfiCond109) V6 load(1, XDATA, add(CFA_XSP16, literal(-10)))
          CFI (cfiCond109) V7 load(1, XDATA, add(CFA_XSP16, literal(-9)))
          CFI (cfiCond109) V8 load(1, XDATA, add(CFA_XSP16, literal(-8)))
          CFI (cfiCond109) V9 load(1, XDATA, add(CFA_XSP16, literal(-7)))
          CFI (cfiCond109) R7 load(1, XDATA, add(CFA_XSP16, literal(-6)))
          CFI (cfiCond109) ?RET_LOW load(1, XDATA, add(CFA_XSP16, literal(-5)))
          CFI (cfiCond109) ?RET_HIGH load(1, XDATA, add(CFA_XSP16, literal(-4)))
          CFI (cfiCond109) ?BRET_EXT load(1, XDATA, add(CFA_XSP16, literal(-3)))
          CFI (cfiCond109) DPL0 load(1, XDATA, add(CFA_XSP16, literal(-2)))
          CFI (cfiCond109) DPH0 load(1, XDATA, add(CFA_XSP16, literal(-1)))
          CFI (cfiCond109) CFA_SP SP+0
          CFI (cfiCond109) CFA_XSP16 add(XSP16, 18)
          CFI Block cfiCond110 Using cfiCommon0
          CFI (cfiCond110) Function zclLL_Send_NwkJoinReq
          CFI (cfiCond110) Conditional ??CrossCallReturnLabel_181, ??CrossCallReturnLabel_173, ??CrossCallReturnLabel_126, ??CrossCallReturnLabel_1
          CFI (cfiCond110) R6 load(1, XDATA, add(CFA_XSP16, literal(-18)))
          CFI (cfiCond110) VB load(1, XDATA, add(CFA_XSP16, literal(-17)))
          CFI (cfiCond110) V0 load(1, XDATA, add(CFA_XSP16, literal(-16)))
          CFI (cfiCond110) V1 load(1, XDATA, add(CFA_XSP16, literal(-15)))
          CFI (cfiCond110) V2 load(1, XDATA, add(CFA_XSP16, literal(-14)))
          CFI (cfiCond110) V3 load(1, XDATA, add(CFA_XSP16, literal(-13)))
          CFI (cfiCond110) V4 load(1, XDATA, add(CFA_XSP16, literal(-12)))
          CFI (cfiCond110) V5 load(1, XDATA, add(CFA_XSP16, literal(-11)))
          CFI (cfiCond110) V6 load(1, XDATA, add(CFA_XSP16, literal(-10)))
          CFI (cfiCond110) V7 load(1, XDATA, add(CFA_XSP16, literal(-9)))
          CFI (cfiCond110) V8 load(1, XDATA, add(CFA_XSP16, literal(-8)))
          CFI (cfiCond110) V9 load(1, XDATA, add(CFA_XSP16, literal(-7)))
          CFI (cfiCond110) R7 load(1, XDATA, add(CFA_XSP16, literal(-6)))
          CFI (cfiCond110) ?RET_LOW load(1, XDATA, add(CFA_XSP16, literal(-5)))
          CFI (cfiCond110) ?RET_HIGH load(1, XDATA, add(CFA_XSP16, literal(-4)))
