///////////////////////////////////////////////////////////////////////////////
//                                                                            /
// IAR C/C++ Compiler V8.20.2.41139 for 8051            27/May/2014  19:14:30 /
// Copyright 2004-2013 IAR Systems AB.                                        /
//                                                                            /
//    Core               =  plain                                             /
//    Code model         =  banked                                            /
//    Data model         =  large                                             /
//    Calling convention =  xdata reentrant                                   /
//    Constant location  =  data_rom                                          /
//    Dptr setup         =  1,16                                              /
//                                                                            /
//    Source file        =  D:\Texas Instruments\Z-Stack Lighting             /
//                          1.0.2\Projects\zstack\ZLL\SampleApp\Source\Light\ /
//                          zll_samplelight.c                                 /
//    Command line       =  -f "D:\Texas Instruments\Z-Stack Lighting         /
//                          1.0.2\Projects\zstack\ZLL\SampleApp\CC253x\..\..\ /
//                          ..\Tools\CC2530DB\f8wRouter.cfg" (-DCPU32MHZ      /
//                          -DROOT=__near_func -DMAC_CFG_APP_PENDING_QUEUE=TR /
//                          UE -DMAC_CFG_TX_DATA_MAX=5 -DMAC_CFG_TX_MAX=8     /
//                          -DMAC_CFG_RX_MAX=5 -DRTR_NWK) -f "D:\Texas        /
//                          Instruments\Z-Stack Lighting                      /
//                          1.0.2\Projects\zstack\ZLL\SampleApp\CC253x\..\..\ /
//                          ..\Tools\CC2530DB\f8wConfig.cfg" (-DZIGBEEPRO     /
//                          -DSECURE=1 -DZG_SECURE_DYNAMIC=0 -DREFLECTOR      /
//                          -DDEFAULT_CHANLIST=0x00000800                     /
//                          -DZDAPP_CONFIG_PAN_ID=0xFFFF                      /
//                          -DNWK_START_DELAY=100 -DEXTENDED_JOINING_RANDOM_M /
//                          ASK=0x007F -DBEACON_REQUEST_DELAY=100             /
//                          -DBEACON_REQ_DELAY_MASK=0x00FF                    /
//                          -DLINK_STATUS_JITTER_MASK=0x007F                  /
//                          -DROUTE_EXPIRY_TIME=30 -DAPSC_ACK_WAIT_DURATION_P /
//                          OLLED=3000 -DNWK_INDIRECT_MSG_TIMEOUT=7           /
//                          -DMAX_RREQ_ENTRIES=8 -DAPSC_MAX_FRAME_RETRIES=3   /
//                          -DNWK_MAX_DATA_RETRIES=2                          /
//                          -DMAX_POLL_FAILURE_RETRIES=2 -DMAX_BCAST=9        /
//                          -DAPS_MAX_GROUPS=16 -DMAX_RTG_ENTRIES=40          /
//                          -DNWK_MAX_BINDING_ENTRIES=4                       /
//                          -DMAX_BINDING_CLUSTER_IDS=4                       /
//                          "-DDEFAULT_KEY={0x01, 0x03, 0x05, 0x07, 0x09,     /
//                          0x0B, 0x0D, 0x0F, 0x00, 0x02, 0x04, 0x06, 0x08,   /
//                          0x0A, 0x0C, 0x0D}" -DMAC_MAX_FRAME_SIZE=116       /
//                          -DZDNWKMGR_MIN_TRANSMISSIONS=20 "-DCONST=const    /
//                          __code" -DGENERIC=__generic                       /
//                          -DRFD_RCVC_ALWAYS_ON=FALSE -DPOLL_RATE=1000       /
//                          -DQUEUED_POLL_RATE=100 -DRESPONSE_POLL_RATE=100   /
//                          -DREJOIN_POLL_RATE=440) -f "D:\Texas              /
//                          Instruments\Z-Stack Lighting                      /
//                          1.0.2\Projects\zstack\ZLL\SampleApp\CC253x\..\..\ /
//                          ..\Tools\CC2530DB\f8wZCL.cfg" "D:\Texas           /
//                          Instruments\Z-Stack Lighting                      /
//                          1.0.2\Projects\zstack\ZLL\SampleApp\Source\Light\ /
//                          zll_samplelight.c" -D FEATURE_GREEN_POWER -D      /
//                          SECURE=1 -D TC_LINKKEY_JOIN -D                    /
//                          ZDSECMGR_TC_DEVICE_MAX=2 -D NV_RESTORE -D         /
//                          HOLD_AUTO_START -D INTER_PAN -D                   /
//                          LCD_SUPPORTED=DEBUG -D ZCL_BASIC -D ZCL_READ -D   /
//                          ZCL_WRITE -D ZCL_IDENTIFY -D ZCL_ON_OFF -D        /
//                          ZCL_SCENES -D ZCL_GROUPS -D                       /
//                          ZCL_LIGHT_LINK_ENHANCE -D ZCL_LEVEL_CTRL -D       /
//                          ZCL_COLOR_CTRL -D MAX_CHANNELS_24GHZ=0x02108800   /
//                          -D xPWM_ALT2 -D xTHERMAL_SHUTDOWN -D              /
//                          ZLL_1_0_HUB_COMPATIBILITY -D DALI_LIGHT -lC       /
//                          "D:\Texas Instruments\Z-Stack Lighting            /
//                          1.0.2\Projects\zstack\ZLL\SampleApp\CC253x\Zlight /
//                           - Router\List\" -lA "D:\Texas                    /
//                          Instruments\Z-Stack Lighting                      /
//                          1.0.2\Projects\zstack\ZLL\SampleApp\CC253x\Zlight /
//                           - Router\List\" --diag_suppress Pe001,Pa010 -o   /
//                          "D:\Texas Instruments\Z-Stack Lighting            /
//                          1.0.2\Projects\zstack\ZLL\SampleApp\CC253x\Zlight /
//                           - Router\Obj\" -e --debug --core=plain           /
//                          --dptr=16,1 --data_model=large                    /
//                          --code_model=banked --calling_convention=xdata_re /
//                          entrant --place_constants=data_rom                /
//                          --nr_virtual_regs 16 -I "D:\Texas                 /
//                          Instruments\Z-Stack Lighting                      /
//                          1.0.2\Projects\zstack\ZLL\SampleApp\CC253x\" -I   /
//                          "D:\Texas Instruments\Z-Stack Lighting            /
//                          1.0.2\Projects\zstack\ZLL\SampleApp\CC253x\..\Sou /
//                          rce\" -I "D:\Texas Instruments\Z-Stack Lighting   /
//                          1.0.2\Projects\zstack\ZLL\SampleApp\CC253x\..\..\ /
//                          Source\" -I "D:\Texas Instruments\Z-Stack         /
//                          Lighting 1.0.2\Projects\zstack\ZLL\SampleApp\CC25 /
//                          3x\..\..\..\HomeAutomation\Source\" -I "D:\Texas  /
//                          Instruments\Z-Stack Lighting                      /
//                          1.0.2\Projects\zstack\ZLL\SampleApp\CC253x\..\..\ /
//                          ..\HomeAutomation\SampleLight\Source\" -I         /
//                          "D:\Texas Instruments\Z-Stack Lighting            /
//                          1.0.2\Projects\zstack\ZLL\SampleApp\CC253x\..\..\ /
//                          ..\ZMain\TI2530DB\" -I "D:\Texas                  /
//                          Instruments\Z-Stack Lighting                      /
//                          1.0.2\Projects\zstack\ZLL\SampleApp\CC253x\..\..\ /
//                          ..\..\..\Components\hal\include\" -I "D:\Texas    /
//                          Instruments\Z-Stack Lighting                      /
//                          1.0.2\Projects\zstack\ZLL\SampleApp\CC253x\..\..\ /
//                          ..\..\..\Components\hal\target\CC2530PMP4712\"    /
//                          -I "D:\Texas Instruments\Z-Stack Lighting         /
//                          1.0.2\Projects\zstack\ZLL\SampleApp\CC253x\..\..\ /
//                          ..\..\..\Components\mac\include\" -I "D:\Texas    /
//                          Instruments\Z-Stack Lighting                      /
//                          1.0.2\Projects\zstack\ZLL\SampleApp\CC253x\..\..\ /
//                          ..\..\..\Components\mac\high_level\" -I           /
//                          "D:\Texas Instruments\Z-Stack Lighting            /
//                          1.0.2\Projects\zstack\ZLL\SampleApp\CC253x\..\..\ /
//                          ..\..\..\Components\mac\low_level\srf04\" -I      /
//                          "D:\Texas Instruments\Z-Stack Lighting            /
//                          1.0.2\Projects\zstack\ZLL\SampleApp\CC253x\..\..\ /
//                          ..\..\..\Components\mac\low_level\srf04\single_ch /
//                          ip\" -I "D:\Texas Instruments\Z-Stack Lighting    /
//                          1.0.2\Projects\zstack\ZLL\SampleApp\CC253x\..\..\ /
//                          ..\..\..\Components\mt\" -I "D:\Texas             /
//                          Instruments\Z-Stack Lighting                      /
//                          1.0.2\Projects\zstack\ZLL\SampleApp\CC253x\..\..\ /
//                          ..\..\..\Components\osal\include\" -I "D:\Texas   /
//                          Instruments\Z-Stack Lighting                      /
//                          1.0.2\Projects\zstack\ZLL\SampleApp\CC253x\..\..\ /
//                          ..\..\..\Components\services\saddr\" -I           /
//                          "D:\Texas Instruments\Z-Stack Lighting            /
//                          1.0.2\Projects\zstack\ZLL\SampleApp\CC253x\..\..\ /
//                          ..\..\..\Components\services\sdata\" -I           /
//                          "D:\Texas Instruments\Z-Stack Lighting            /
//                          1.0.2\Projects\zstack\ZLL\SampleApp\CC253x\..\..\ /
//                          ..\..\..\Components\stack\af\" -I "D:\Texas       /
//                          Instruments\Z-Stack Lighting                      /
//                          1.0.2\Projects\zstack\ZLL\SampleApp\CC253x\..\..\ /
//                          ..\..\..\Components\stack\nwk\" -I "D:\Texas      /
//                          Instruments\Z-Stack Lighting                      /
//                          1.0.2\Projects\zstack\ZLL\SampleApp\CC253x\..\..\ /
//                          ..\..\..\Components\stack\sapi\" -I "D:\Texas     /
//                          Instruments\Z-Stack Lighting                      /
//                          1.0.2\Projects\zstack\ZLL\SampleApp\CC253x\..\..\ /
//                          ..\..\..\Components\stack\sec\" -I "D:\Texas      /
//                          Instruments\Z-Stack Lighting                      /
//                          1.0.2\Projects\zstack\ZLL\SampleApp\CC253x\..\..\ /
//                          ..\..\..\Components\stack\sys\" -I "D:\Texas      /
//                          Instruments\Z-Stack Lighting                      /
//                          1.0.2\Projects\zstack\ZLL\SampleApp\CC253x\..\..\ /
//                          ..\..\..\Components\stack\zcl\" -I "D:\Texas      /
//                          Instruments\Z-Stack Lighting                      /
//                          1.0.2\Projects\zstack\ZLL\SampleApp\CC253x\..\..\ /
//                          ..\..\..\Components\stack\zdo\" -I "D:\Texas      /
//                          Instruments\Z-Stack Lighting                      /
//                          1.0.2\Projects\zstack\ZLL\SampleApp\CC253x\..\..\ /
//                          ..\..\..\Components\zmac\" -I "D:\Texas           /
//                          Instruments\Z-Stack Lighting                      /
//                          1.0.2\Projects\zstack\ZLL\SampleApp\CC253x\..\..\ /
//                          ..\..\..\Components\zmac\f8w\" -Ohz               /
//                          --require_prototypes                              /
//    List file          =  D:\Texas Instruments\Z-Stack Lighting             /
//                          1.0.2\Projects\zstack\ZLL\SampleApp\CC253x\Zlight /
//                           - Router\List\zll_samplelight.s51                /
//                                                                            /
//                                                                            /
///////////////////////////////////////////////////////////////////////////////

        NAME zll_samplelight

        RTMODEL "__SystemLibrary", "CLib"
        RTMODEL "__calling_convention", "xdata_reentrant"
        RTMODEL "__code_model", "banked"
        RTMODEL "__core", "plain"
        RTMODEL "__data_model", "large"
        RTMODEL "__dptr_size", "16"
        RTMODEL "__extended_stack", "disabled"
        RTMODEL "__location_for_constants", "data"
        RTMODEL "__number_of_dptrs", "1"
        RTMODEL "__rt_version", "1"

        RSEG DOVERLAY:DATA:NOROOT(0)
        RSEG IOVERLAY:IDATA:NOROOT(0)
        RSEG ISTACK:IDATA:NOROOT(0)
        RSEG PSTACK:XDATA:NOROOT(0)
        RSEG XSTACK:XDATA:NOROOT(0)

        EXTERN ?ALLOC_XSTACK8
        EXTERN ?BANKED_ENTER_XDATA
        EXTERN ?BANKED_LEAVE_XDATA
        EXTERN ?BDISPATCH
        EXTERN ?BRET
        EXTERN ?DEALLOC_XSTACK8
        EXTERN ?L_MOV_TO_X
        EXTERN ?L_MOV_X
        EXTERN ?L_SUB_X
        EXTERN ?MOVE_LONG8_XDATA_XDATA
        EXTERN ?PUSH_XSTACK8_X_FOUR
        EXTERN ?PUSH_XSTACK_I_ONE
        EXTERN ?PUSH_XSTACK_I_TWO
        EXTERN ?UL_GT_X
        EXTERN ?V0
        EXTERN ?XSP
        EXTERN ?XSTACK_DISP0_8
        EXTERN ?XSTORE_R2345
        EXTERN __INIT_XDATA_I
        EXTERN __INIT_XDATA_Z

        FUNCTION ??zllSampleLight_AttrReadWriteCB?relay,0203H
        FUNCTION ??zllSampleLight_BasicResetCB?relay,0203H
        FUNCTION ??zllSampleLight_IdentifyCB?relay,0203H
        FUNCTION ??zllSampleLight_IdentifyEffectCB?relay,0203H
        FUNCTION ??zllSampleLight_IdentifyQueryRspCB?relay,0203H
        PUBLIC ??zllSampleLight_Init?relay
        FUNCTION ??zllSampleLight_Init?relay,0203H
        FUNCTION ??zllSampleLight_OnOffCB?relay,0203H
        FUNCTION ??zllSampleLight_OnOff_OffWithEffectCB?relay,0203H
        FUNCTION ??zllSampleLight_OnOff_OnWithRecallGlobalSceneC,0203H
        FUNCTION ??zllSampleLight_OnOff_OnWithTimedOffCB?relay,0203H
        FUNCTION ??zllSampleLight_ProcessIdentifyTimeChange?rela,0203H
        FUNCTION ??zllSampleLight_SceneRecallCB?relay,0203H
        FUNCTION ??zllSampleLight_SceneStoreCB?relay,0203H
        PUBLIC ??zllSampleLight_event_loop?relay
        FUNCTION ??zllSampleLight_event_loop?relay,0203H
        PUBWEAK __Constant_2
        PUBWEAK __Constant_3e8
        PUBWEAK __Constant_6
        PUBWEAK __Constant_64
        FUNCTION zllSampleLight_AttrReadWriteCB,021603H
        ARGFRAME XSTACK, 4, STACK
        LOCFRAME ISTACK, 1, STACK
        LOCFRAME XSTACK, 20, STACK
        FUNCTION zllSampleLight_BasicResetCB,0603H
        ARGFRAME XSTACK, 0, STACK
        FUNCTION zllSampleLight_IdentifyCB,021603H
        ARGFRAME XSTACK, 16, STACK
        ARGFRAME IOVERLAY, 0, STATIC
        ARGFRAME DOVERLAY, 0, STATIC
        LOCFRAME ISTACK, 2, STACK
        FUNCTION zllSampleLight_IdentifyEffectCB,021603H
        ARGFRAME XSTACK, 0, STACK
        LOCFRAME XSTACK, 12, STACK
        FUNCTION zllSampleLight_IdentifyQueryRspCB,0603H
        ARGFRAME XSTACK, 0, STACK
        PUBLIC zllSampleLight_Init
        FUNCTION zllSampleLight_Init,021203H
        ARGFRAME XSTACK, 0, STACK
        LOCFRAME XSTACK, 9, STACK
        FUNCTION zllSampleLight_OnOffCB,021603H
        ARGFRAME XSTACK, 37, STACK
        ARGFRAME IOVERLAY, 0, STATIC
        ARGFRAME DOVERLAY, 0, STATIC
        LOCFRAME XSTACK, 9, STACK
        FUNCTION zllSampleLight_OnOff_OffWithEffectCB,021603H
        ARGFRAME XSTACK, 0, STACK
        LOCFRAME XSTACK, 20, STACK
        FUNCTION zllSampleLight_OnOff_OnWithRecallGlobalSceneCB,021603H
        ARGFRAME XSTACK, 0, STACK
        LOCFRAME ISTACK, 2, STACK
        LOCFRAME XSTACK, 4, STACK
        FUNCTION zllSampleLight_OnOff_OnWithTimedOffCB,021603H
        ARGFRAME XSTACK, 0, STACK
        LOCFRAME XSTACK, 14, STACK
        FUNCTION zllSampleLight_ProcessIdentifyTimeChange,021203H
        ARGFRAME XSTACK, 14, STACK
        ARGFRAME IOVERLAY, 0, STATIC
        ARGFRAME DOVERLAY, 0, STATIC
        LOCFRAME ISTACK, 2, STACK
        LOCFRAME XSTACK, 4, STACK
        FUNCTION zllSampleLight_SceneRecallCB,021603H
        ARGFRAME XSTACK, 4, STACK
        ARGFRAME IOVERLAY, 0, STATIC
        ARGFRAME DOVERLAY, 0, STATIC
        LOCFRAME ISTACK, 2, STACK
        LOCFRAME XSTACK, 37, STACK
        FUNCTION zllSampleLight_SceneStoreCB,021603H
        ARGFRAME XSTACK, 16, STACK
        ARGFRAME IOVERLAY, 0, STATIC
        ARGFRAME DOVERLAY, 0, STATIC
        LOCFRAME ISTACK, 1, STACK
        LOCFRAME XSTACK, 9, STACK
        PUBLIC zllSampleLight_TaskID
        PUBLIC zllSampleLight_event_loop
        FUNCTION zllSampleLight_event_loop,021203H
        ARGFRAME XSTACK, 0, STACK
        LOCFRAME XSTACK, 18, STACK
        
          CFI Names cfiNames0
          CFI StackFrame CFA_SP SP IDATA
          CFI StackFrame CFA_PSP16 PSP16 XDATA
          CFI StackFrame CFA_XSP16 XSP16 XDATA
          CFI StaticOverlayFrame CFA_IOVERLAY IOVERLAY
          CFI StaticOverlayFrame CFA_DOVERLAY DOVERLAY
          CFI Resource `PSW.CY`:1, `B.BR0`:1, `B.BR1`:1, `B.BR2`:1, `B.BR3`:1
          CFI Resource `B.BR4`:1, `B.BR5`:1, `B.BR6`:1, `B.BR7`:1, `VB.BR8`:1
          CFI Resource `VB.BR9`:1, `VB.BR10`:1, `VB.BR11`:1, `VB.BR12`:1
          CFI Resource `VB.BR13`:1, `VB.BR14`:1, `VB.BR15`:1, VB:8, B:8, A:8
          CFI Resource PSW:8, DPL0:8, DPH0:8, R0:8, R1:8, R2:8, R3:8, R4:8, R5:8
          CFI Resource R6:8, R7:8, V0:8, V1:8, V2:8, V3:8, V4:8, V5:8, V6:8, V7:8
          CFI Resource V8:8, V9:8, V10:8, V11:8, V12:8, V13:8, V14:8, V15:8, SP:8
          CFI Resource PSPH:8, PSPL:8, PSP16:16, XSPH:8, XSPL:8, XSP16:16
          CFI VirtualResource ?RET:24
          CFI Resource ?BRET_EXT:8
          CFI VirtualResource ?RET_HIGH:8, ?RET_LOW:8
          CFI ResourceParts PSP16 PSPH, PSPL
          CFI ResourceParts XSP16 XSPH, XSPL
          CFI ResourceParts ?RET ?BRET_EXT, ?RET_HIGH, ?RET_LOW
          CFI EndNames cfiNames0
        
          CFI Common cfiCommon0 Using cfiNames0
          CFI CodeAlign 1
          CFI DataAlign -1
          CFI ReturnAddress ?RET CODE
          CFI CFA_DOVERLAY Used
          CFI CFA_IOVERLAY Used
          CFI CFA_SP SP+-3
          CFI CFA_PSP16 PSP16+0
          CFI CFA_XSP16 XSP16+0
          CFI `PSW.CY` SameValue
          CFI `B.BR0` SameValue
          CFI `B.BR1` SameValue
          CFI `B.BR2` SameValue
          CFI `B.BR3` SameValue
          CFI `B.BR4` SameValue
          CFI `B.BR5` SameValue
          CFI `B.BR6` SameValue
          CFI `B.BR7` SameValue
          CFI `VB.BR8` SameValue
          CFI `VB.BR9` SameValue
          CFI `VB.BR10` SameValue
          CFI `VB.BR11` SameValue
          CFI `VB.BR12` SameValue
          CFI `VB.BR13` SameValue
          CFI `VB.BR14` SameValue
          CFI `VB.BR15` SameValue
          CFI VB SameValue
          CFI B Undefined
          CFI A Undefined
          CFI PSW SameValue
          CFI DPL0 SameValue
          CFI DPH0 SameValue
          CFI R0 Undefined
          CFI R1 Undefined
          CFI R2 Undefined
          CFI R3 Undefined
          CFI R4 Undefined
          CFI R5 Undefined
          CFI R6 SameValue
          CFI R7 SameValue
          CFI V0 SameValue
          CFI V1 SameValue
          CFI V2 SameValue
          CFI V3 SameValue
          CFI V4 SameValue
          CFI V5 SameValue
          CFI V6 SameValue
          CFI V7 SameValue
          CFI V8 SameValue
          CFI V9 SameValue
          CFI V10 SameValue
          CFI V11 SameValue
          CFI V12 SameValue
          CFI V13 SameValue
          CFI V14 SameValue
          CFI V15 SameValue
          CFI PSPH Undefined
          CFI PSPL Undefined
          CFI XSPH Undefined
          CFI XSPL Undefined
          CFI ?RET Concat
          CFI ?BRET_EXT Frame(CFA_SP, 3)
          CFI ?RET_HIGH Frame(CFA_SP, 2)
          CFI ?RET_LOW Frame(CFA_SP, 1)
          CFI EndCommon cfiCommon0
        
        
          CFI Common cfiCommon1 Using cfiNames0
          CFI CodeAlign 1
          CFI DataAlign -1
          CFI ReturnAddress ?RET CODE
          CFI CFA_DOVERLAY Used
          CFI CFA_IOVERLAY Used
          CFI CFA_SP SP+-2
          CFI CFA_PSP16 PSP16+0
          CFI CFA_XSP16 XSP16+0
          CFI `PSW.CY` SameValue
          CFI `B.BR0` SameValue
          CFI `B.BR1` SameValue
          CFI `B.BR2` SameValue
          CFI `B.BR3` SameValue
          CFI `B.BR4` SameValue
          CFI `B.BR5` SameValue
          CFI `B.BR6` SameValue
          CFI `B.BR7` SameValue
          CFI `VB.BR8` SameValue
          CFI `VB.BR9` SameValue
          CFI `VB.BR10` SameValue
          CFI `VB.BR11` SameValue
          CFI `VB.BR12` SameValue
          CFI `VB.BR13` SameValue
          CFI `VB.BR14` SameValue
          CFI `VB.BR15` SameValue
          CFI VB SameValue
          CFI B SameValue
          CFI A SameValue
          CFI PSW SameValue
          CFI DPL0 SameValue
          CFI DPH0 SameValue
          CFI R0 SameValue
          CFI R1 SameValue
          CFI R2 SameValue
          CFI R3 SameValue
          CFI R4 SameValue
          CFI R5 SameValue
          CFI R6 SameValue
          CFI R7 SameValue
          CFI V0 SameValue
          CFI V1 SameValue
          CFI V2 SameValue
          CFI V3 SameValue
          CFI V4 SameValue
          CFI V5 SameValue
          CFI V6 SameValue
          CFI V7 SameValue
          CFI V8 SameValue
          CFI V9 SameValue
          CFI V10 SameValue
          CFI V11 SameValue
          CFI V12 SameValue
          CFI V13 SameValue
          CFI V14 SameValue
          CFI V15 SameValue
          CFI PSPH Undefined
          CFI PSPL Undefined
          CFI XSPH Undefined
          CFI XSPL Undefined
          CFI ?RET Concat
          CFI ?BRET_EXT SameValue
          CFI ?RET_HIGH Frame(CFA_SP, 2)
          CFI ?RET_LOW Frame(CFA_SP, 1)
          CFI EndCommon cfiCommon1
        
HalLcdWriteStringValue SYMBOL "HalLcdWriteStringValue"
??HalLcdWriteStringValue?relay SYMBOL "?relay", HalLcdWriteStringValue
HalLcdWriteStringValueValue SYMBOL "HalLcdWriteStringValueValue"
??HalLcdWriteStringValueValue?relay SYMBOL "?relay", HalLcdWriteStringValueValue
HalTimer1Init       SYMBOL "HalTimer1Init"
??HalTimer1Init?relay SYMBOL "?relay", HalTimer1Init
RegisterForKeys     SYMBOL "RegisterForKeys"
??RegisterForKeys?relay SYMBOL "?relay", RegisterForKeys
hwLight_UpdateOnOff SYMBOL "hwLight_UpdateOnOff"
??hwLight_UpdateOnOff?relay SYMBOL "?relay", hwLight_UpdateOnOff
osal_getClock       SYMBOL "osal_getClock"
??osal_getClock?relay SYMBOL "?relay", osal_getClock
osal_memset         SYMBOL "osal_memset"
??osal_memset?relay SYMBOL "?relay", osal_memset
osal_msg_deallocate SYMBOL "osal_msg_deallocate"
??osal_msg_deallocate?relay SYMBOL "?relay", osal_msg_deallocate
osal_msg_receive    SYMBOL "osal_msg_receive"
??osal_msg_receive?relay SYMBOL "?relay", osal_msg_receive
osal_start_timerEx  SYMBOL "osal_start_timerEx"
??osal_start_timerEx?relay SYMBOL "?relay", osal_start_timerEx
osal_stop_timerEx   SYMBOL "osal_stop_timerEx"
??osal_stop_timerEx?relay SYMBOL "?relay", osal_stop_timerEx
`?<Name zclColor_EnhMoveToHu 22>` SYMBOL "zclColor_EnhMoveToHueCB"
??zclColor_EnhMoveToHueCB?relay SYMBOL "?relay", `?<Name zclColor_EnhMoveToHu 22>`
`?<Name zclColor_MoveColorCB 24>` SYMBOL "zclColor_MoveColorCB"
??zclColor_MoveColorCB?relay SYMBOL "?relay", `?<Name zclColor_MoveColorCB 24>`
`?<Name zclColor_MoveEnhHueC 26>` SYMBOL "zclColor_MoveEnhHueCB"
??zclColor_MoveEnhHueCB?relay SYMBOL "?relay", `?<Name zclColor_MoveEnhHueC 26>`
`?<Name zclColor_MoveHueCB 28>` SYMBOL "zclColor_MoveHueCB"
??zclColor_MoveHueCB?relay SYMBOL "?relay", `?<Name zclColor_MoveHueCB 28>`
`?<Name zclColor_MoveSaturat 30>` SYMBOL "zclColor_MoveSaturationCB"
??zclColor_MoveSaturationCB?relay SYMBOL "?relay", `?<Name zclColor_MoveSaturat 30>`
zclColor_MoveToColorCB SYMBOL "zclColor_MoveToColorCB"
??zclColor_MoveToColorCB?relay SYMBOL "?relay", zclColor_MoveToColorCB
zclColor_MoveToEnhHueAndSaturationCB SYMBOL "zclColor_MoveToEnhHueAndSaturationCB"
??zclColor_MoveToEnhHueAndSaturationCB?relay SYMBOL "?relay", zclColor_MoveToEnhHueAndSaturationCB
`?<Name zclColor_MoveToHueAn 36>` SYMBOL "zclColor_MoveToHueAndSaturationCB"
??zclColor_MoveToHueAndSaturationCB?relay SYMBOL "?relay", `?<Name zclColor_MoveToHueAn 36>`
`?<Name zclColor_MoveToHueCB 38>` SYMBOL "zclColor_MoveToHueCB"
??zclColor_MoveToHueCB?relay SYMBOL "?relay", `?<Name zclColor_MoveToHueCB 38>`
`?<Name zclColor_MoveToSatur 40>` SYMBOL "zclColor_MoveToSaturationCB"
??zclColor_MoveToSaturationCB?relay SYMBOL "?relay", `?<Name zclColor_MoveToSatur 40>`
zclColor_SetColorLoopCB SYMBOL "zclColor_SetColorLoopCB"
??zclColor_SetColorLoopCB?relay SYMBOL "?relay", zclColor_SetColorLoopCB
`?<Name zclColor_StepColorCB 44>` SYMBOL "zclColor_StepColorCB"
??zclColor_StepColorCB?relay SYMBOL "?relay", `?<Name zclColor_StepColorCB 44>`
`?<Name zclColor_StepEnhHueC 46>` SYMBOL "zclColor_StepEnhHueCB"
??zclColor_StepEnhHueCB?relay SYMBOL "?relay", `?<Name zclColor_StepEnhHueC 46>`
`?<Name zclColor_StepHueCB 48>` SYMBOL "zclColor_StepHueCB"
??zclColor_StepHueCB?relay SYMBOL "?relay", `?<Name zclColor_StepHueCB 48>`
`?<Name zclColor_StepSaturat 50>` SYMBOL "zclColor_StepSaturationCB"
??zclColor_StepSaturationCB?relay SYMBOL "?relay", `?<Name zclColor_StepSaturat 50>`
`?<Name zclColor_StopCB 52>` SYMBOL "zclColor_StopCB"
??zclColor_StopCB?relay SYMBOL "?relay", `?<Name zclColor_StopCB 52>`
zclColor_init       SYMBOL "zclColor_init"
??zclColor_init?relay SYMBOL "?relay", zclColor_init
zclColor_process    SYMBOL "zclColor_process"
??zclColor_process?relay SYMBOL "?relay", zclColor_process
zclColor_processColorLoop SYMBOL "zclColor_processColorLoop"
??zclColor_processColorLoop?relay SYMBOL "?relay", zclColor_processColorLoop
zclGeneral_ReadSceneCountCB SYMBOL "zclGeneral_ReadSceneCountCB"
??zclGeneral_ReadSceneCountCB?relay SYMBOL "?relay", zclGeneral_ReadSceneCountCB
zclGeneral_RegisterCmdCallbacks SYMBOL "zclGeneral_RegisterCmdCallbacks"
??zclGeneral_RegisterCmdCallbacks?relay SYMBOL "?relay", zclGeneral_RegisterCmdCallbacks
`?<Name zclLevel_MoveCB 64>` SYMBOL "zclLevel_MoveCB"
??zclLevel_MoveCB?relay SYMBOL "?relay", `?<Name zclLevel_MoveCB 64>`
zclLevel_MoveToLevelCB SYMBOL "zclLevel_MoveToLevelCB"
??zclLevel_MoveToLevelCB?relay SYMBOL "?relay", zclLevel_MoveToLevelCB
`?<Name zclLevel_StepCB 68>` SYMBOL "zclLevel_StepCB"
??zclLevel_StepCB?relay SYMBOL "?relay", `?<Name zclLevel_StepCB 68>`
`?<Name zclLevel_StopCB 70>` SYMBOL "zclLevel_StopCB"
??zclLevel_StopCB?relay SYMBOL "?relay", `?<Name zclLevel_StopCB 70>`
zclLevel_init       SYMBOL "zclLevel_init"
??zclLevel_init?relay SYMBOL "?relay", zclLevel_init
zclLevel_process    SYMBOL "zclLevel_process"
??zclLevel_process?relay SYMBOL "?relay", zclLevel_process
zclLighting_RegisterCmdCallbacks SYMBOL "zclLighting_RegisterCmdCallbacks"
??zclLighting_RegisterCmdCallbacks?relay SYMBOL "?relay", zclLighting_RegisterCmdCallbacks
zcl_registerAttrList SYMBOL "zcl_registerAttrList"
??zcl_registerAttrList?relay SYMBOL "?relay", zcl_registerAttrList
zcl_registerReadWriteCB SYMBOL "zcl_registerReadWriteCB"
??zcl_registerReadWriteCB?relay SYMBOL "?relay", zcl_registerReadWriteCB
zllEffects_Blink    SYMBOL "zllEffects_Blink"
??zllEffects_Blink?relay SYMBOL "?relay", zllEffects_Blink
zllEffects_Init     SYMBOL "zllEffects_Init"
??zllEffects_Init?relay SYMBOL "?relay", zllEffects_Init
zllEffects_InitiateEffect SYMBOL "zllEffects_InitiateEffect"
??zllEffects_InitiateEffect?relay SYMBOL "?relay", zllEffects_InitiateEffect
zllEffects_ProcessEffect SYMBOL "zllEffects_ProcessEffect"
??zllEffects_ProcessEffect?relay SYMBOL "?relay", zllEffects_ProcessEffect
zllTarget_ClassicalCommissioningStart SYMBOL "zllTarget_ClassicalCommissioningStart"
??zllTarget_ClassicalCommissioningStart?relay SYMBOL "?relay", zllTarget_ClassicalCommissioningStart
zllTarget_InitDevice SYMBOL "zllTarget_InitDevice"
??zllTarget_InitDevice?relay SYMBOL "?relay", zllTarget_InitDevice
zllTarget_PermitJoin SYMBOL "zllTarget_PermitJoin"
??zllTarget_PermitJoin?relay SYMBOL "?relay", zllTarget_PermitJoin
zllTarget_RegisterApp SYMBOL "zllTarget_RegisterApp"
??zllTarget_RegisterApp?relay SYMBOL "?relay", zllTarget_RegisterApp
zllTarget_RegisterIdentifyCB SYMBOL "zllTarget_RegisterIdentifyCB"
??zllTarget_RegisterIdentifyCB?relay SYMBOL "?relay", zllTarget_RegisterIdentifyCB
zllTarget_ResetToFactoryNew SYMBOL "zllTarget_ResetToFactoryNew"
??zllTarget_ResetToFactoryNew?relay SYMBOL "?relay", zllTarget_ResetToFactoryNew
zll_RegisterSimpleDesc SYMBOL "zll_RegisterSimpleDesc"
??zll_RegisterSimpleDesc?relay SYMBOL "?relay", zll_RegisterSimpleDesc
zllSampleLight_Init SYMBOL "zllSampleLight_Init"
??zllSampleLight_Init?relay SYMBOL "?relay", zllSampleLight_Init
zllSampleLight_event_loop SYMBOL "zllSampleLight_event_loop"
??zllSampleLight_event_loop?relay SYMBOL "?relay", zllSampleLight_event_loop

        EXTERN ??HalLcdWriteStringValue?relay
        FUNCTION ??HalLcdWriteStringValue?relay,00H
        EXTERN ??HalLcdWriteStringValueValue?relay
        FUNCTION ??HalLcdWriteStringValueValue?relay,00H
        EXTERN ??HalTimer1Init?relay
        FUNCTION ??HalTimer1Init?relay,00H
        EXTERN ??RegisterForKeys?relay
        FUNCTION ??RegisterForKeys?relay,00H
        EXTERN ??hwLight_UpdateOnOff?relay
        FUNCTION ??hwLight_UpdateOnOff?relay,00H
        EXTERN ??osal_getClock?relay
        FUNCTION ??osal_getClock?relay,00H
        EXTERN ??osal_memset?relay
        FUNCTION ??osal_memset?relay,00H
        EXTERN ??osal_msg_deallocate?relay
        FUNCTION ??osal_msg_deallocate?relay,00H
        EXTERN ??osal_msg_receive?relay
        FUNCTION ??osal_msg_receive?relay,00H
        EXTERN ??osal_start_timerEx?relay
        FUNCTION ??osal_start_timerEx?relay,00H
        EXTERN ??osal_stop_timerEx?relay
        FUNCTION ??osal_stop_timerEx?relay,00H
        EXTERN ??zclColor_EnhMoveToHueCB?relay
        FUNCTION ??zclColor_EnhMoveToHueCB?relay,00H
        EXTERN ??zclColor_MoveColorCB?relay
        FUNCTION ??zclColor_MoveColorCB?relay,00H
        EXTERN ??zclColor_MoveEnhHueCB?relay
        FUNCTION ??zclColor_MoveEnhHueCB?relay,00H
        EXTERN ??zclColor_MoveHueCB?relay
        FUNCTION ??zclColor_MoveHueCB?relay,00H
        EXTERN ??zclColor_MoveSaturationCB?relay
        FUNCTION ??zclColor_MoveSaturationCB?relay,00H
        EXTERN ??zclColor_MoveToColorCB?relay
        FUNCTION ??zclColor_MoveToColorCB?relay,00H
        EXTERN ??zclColor_MoveToEnhHueAndSaturationCB?relay
        FUNCTION ??zclColor_MoveToEnhHueAndSaturationCB?relay,00H
        EXTERN ??zclColor_MoveToHueAndSaturationCB?relay
        FUNCTION ??zclColor_MoveToHueAndSaturationCB?relay,00H
        EXTERN ??zclColor_MoveToHueCB?relay
        FUNCTION ??zclColor_MoveToHueCB?relay,00H
        EXTERN ??zclColor_MoveToSaturationCB?relay
        FUNCTION ??zclColor_MoveToSaturationCB?relay,00H
        EXTERN ??zclColor_SetColorLoopCB?relay
        FUNCTION ??zclColor_SetColorLoopCB?relay,00H
        EXTERN ??zclColor_StepColorCB?relay
        FUNCTION ??zclColor_StepColorCB?relay,00H
        EXTERN ??zclColor_StepEnhHueCB?relay
        FUNCTION ??zclColor_StepEnhHueCB?relay,00H
        EXTERN ??zclColor_StepHueCB?relay
        FUNCTION ??zclColor_StepHueCB?relay,00H
        EXTERN ??zclColor_StepSaturationCB?relay
        FUNCTION ??zclColor_StepSaturationCB?relay,00H
        EXTERN ??zclColor_StopCB?relay
        FUNCTION ??zclColor_StopCB?relay,00H
        EXTERN ??zclColor_init?relay
        FUNCTION ??zclColor_init?relay,00H
        EXTERN ??zclColor_process?relay
        FUNCTION ??zclColor_process?relay,00H
        EXTERN ??zclColor_processColorLoop?relay
        FUNCTION ??zclColor_processColorLoop?relay,00H
        EXTERN ??zclGeneral_ReadSceneCountCB?relay
        FUNCTION ??zclGeneral_ReadSceneCountCB?relay,00H
        EXTERN ??zclGeneral_RegisterCmdCallbacks?relay
        FUNCTION ??zclGeneral_RegisterCmdCallbacks?relay,00H
        EXTERN ??zclLevel_MoveCB?relay
        FUNCTION ??zclLevel_MoveCB?relay,00H
        EXTERN ??zclLevel_MoveToLevelCB?relay
        FUNCTION ??zclLevel_MoveToLevelCB?relay,00H
        EXTERN ??zclLevel_StepCB?relay
        FUNCTION ??zclLevel_StepCB?relay,00H
        EXTERN ??zclLevel_StopCB?relay
        FUNCTION ??zclLevel_StopCB?relay,00H
        EXTERN ??zclLevel_init?relay
        FUNCTION ??zclLevel_init?relay,00H
        EXTERN ??zclLevel_process?relay
        FUNCTION ??zclLevel_process?relay,00H
        EXTERN ??zclLighting_RegisterCmdCallbacks?relay
        FUNCTION ??zclLighting_RegisterCmdCallbacks?relay,00H
        EXTERN ??zcl_registerAttrList?relay
        FUNCTION ??zcl_registerAttrList?relay,00H
        EXTERN ??zcl_registerReadWriteCB?relay
        FUNCTION ??zcl_registerReadWriteCB?relay,00H
        EXTERN ??zllEffects_Blink?relay
        FUNCTION ??zllEffects_Blink?relay,00H
        EXTERN ??zllEffects_Init?relay
        FUNCTION ??zllEffects_Init?relay,00H
        EXTERN ??zllEffects_InitiateEffect?relay
        FUNCTION ??zllEffects_InitiateEffect?relay,00H
        EXTERN ??zllEffects_ProcessEffect?relay
        FUNCTION ??zllEffects_ProcessEffect?relay,00H
        EXTERN ??zllTarget_ClassicalCommissioningStart?relay
        FUNCTION ??zllTarget_ClassicalCommissioningStart?relay,00H
        EXTERN ??zllTarget_InitDevice?relay
        FUNCTION ??zllTarget_InitDevice?relay,00H
        EXTERN ??zllTarget_PermitJoin?relay
        FUNCTION ??zllTarget_PermitJoin?relay,00H
        EXTERN ??zllTarget_RegisterApp?relay
        FUNCTION ??zllTarget_RegisterApp?relay,00H
        EXTERN ??zllTarget_RegisterIdentifyCB?relay
        FUNCTION ??zllTarget_RegisterIdentifyCB?relay,00H
        EXTERN ??zllTarget_ResetToFactoryNew?relay
        FUNCTION ??zllTarget_ResetToFactoryNew?relay,00H
        EXTERN ??zll_RegisterSimpleDesc?relay
        FUNCTION ??zll_RegisterSimpleDesc?relay,00H
        EXTERN HalLcdWriteStringValue
        FUNCTION HalLcdWriteStringValue,0202H
        ARGFRAME ISTACK, 0, STACK
        ARGFRAME PSTACK, 0, STACK
        ARGFRAME XSTACK, 12, STACK
        ARGFRAME IOVERLAY, 0, STATIC
        ARGFRAME DOVERLAY, 0, STATIC
        EXTERN HalLcdWriteStringValueValue
        FUNCTION HalLcdWriteStringValueValue,0202H
        ARGFRAME ISTACK, 0, STACK
        ARGFRAME PSTACK, 0, STACK
        ARGFRAME XSTACK, 20, STACK
        ARGFRAME IOVERLAY, 0, STATIC
        ARGFRAME DOVERLAY, 0, STATIC
        EXTERN HalTimer1Init
        FUNCTION HalTimer1Init,0202H
        ARGFRAME ISTACK, 0, STACK
        ARGFRAME PSTACK, 0, STACK
        ARGFRAME XSTACK, 9, STACK
        ARGFRAME IOVERLAY, 0, STATIC
        ARGFRAME DOVERLAY, 0, STATIC
        EXTERN RegisterForKeys
        FUNCTION RegisterForKeys,0202H
        ARGFRAME ISTACK, 0, STACK
        ARGFRAME PSTACK, 0, STACK
        ARGFRAME XSTACK, 9, STACK
        ARGFRAME IOVERLAY, 0, STATIC
        ARGFRAME DOVERLAY, 0, STATIC
        EXTERN hwLight_UpdateOnOff
        FUNCTION hwLight_UpdateOnOff,0202H
        ARGFRAME ISTACK, 0, STACK
        ARGFRAME PSTACK, 0, STACK
        ARGFRAME XSTACK, 9, STACK
        ARGFRAME IOVERLAY, 0, STATIC
        ARGFRAME DOVERLAY, 0, STATIC
        EXTERN osal_getClock
        FUNCTION osal_getClock,0202H
        ARGFRAME ISTACK, 0, STACK
        ARGFRAME PSTACK, 0, STACK
        ARGFRAME XSTACK, 14, STACK
        ARGFRAME IOVERLAY, 0, STATIC
        ARGFRAME DOVERLAY, 0, STATIC
        EXTERN osal_memset
        FUNCTION osal_memset,0202H
        ARGFRAME ISTACK, 0, STACK
        ARGFRAME PSTACK, 0, STACK
        ARGFRAME XSTACK, 9, STACK
        ARGFRAME IOVERLAY, 0, STATIC
        ARGFRAME DOVERLAY, 0, STATIC
        EXTERN osal_msg_deallocate
        FUNCTION osal_msg_deallocate,0202H
        ARGFRAME ISTACK, 0, STACK
        ARGFRAME PSTACK, 0, STACK
        ARGFRAME XSTACK, 14, STACK
        ARGFRAME IOVERLAY, 0, STATIC
        ARGFRAME DOVERLAY, 0, STATIC
        EXTERN osal_msg_receive
        FUNCTION osal_msg_receive,0202H
        ARGFRAME ISTACK, 0, STACK
        ARGFRAME PSTACK, 0, STACK
        ARGFRAME XSTACK, 14, STACK
        ARGFRAME IOVERLAY, 0, STATIC
        ARGFRAME DOVERLAY, 0, STATIC
        EXTERN osal_start_timerEx
        FUNCTION osal_start_timerEx,0202H
        ARGFRAME ISTACK, 2, STACK
        ARGFRAME PSTACK, 0, STACK
        ARGFRAME XSTACK, 18, STACK
        ARGFRAME IOVERLAY, 0, STATIC
        ARGFRAME DOVERLAY, 0, STATIC
        EXTERN osal_stop_timerEx
        FUNCTION osal_stop_timerEx,0202H
        ARGFRAME ISTACK, 0, STACK
        ARGFRAME PSTACK, 0, STACK
        ARGFRAME XSTACK, 14, STACK
        ARGFRAME IOVERLAY, 0, STATIC
        ARGFRAME DOVERLAY, 0, STATIC
        EXTERN zclColor_ColorLoopActive
        EXTERN zclColor_ColorLoopDirection
        EXTERN zclColor_ColorLoopTime
        EXTERN zclColor_ColorMode
        EXTERN zclColor_CurrentSaturation
        EXTERN zclColor_CurrentX
        EXTERN zclColor_CurrentY
        EXTERN zclColor_EnhancedCurrentHue
        EXTERN zclColor_MoveToColorCB
        FUNCTION zclColor_MoveToColorCB,0602H
        ARGFRAME ISTACK, 0, STACK
        ARGFRAME PSTACK, 0, STACK
        ARGFRAME XSTACK, 37, STACK
        ARGFRAME IOVERLAY, 0, STATIC
        ARGFRAME DOVERLAY, 0, STATIC
        EXTERN zclColor_MoveToEnhHueAndSaturationCB
        FUNCTION zclColor_MoveToEnhHueAndSaturationCB,0602H
        ARGFRAME ISTACK, 0, STACK
        ARGFRAME PSTACK, 0, STACK
        ARGFRAME XSTACK, 37, STACK
        ARGFRAME IOVERLAY, 0, STATIC
        ARGFRAME DOVERLAY, 0, STATIC
        EXTERN zclColor_SetColorLoopCB
        FUNCTION zclColor_SetColorLoopCB,0602H
        ARGFRAME ISTACK, 0, STACK
        ARGFRAME PSTACK, 0, STACK
        ARGFRAME XSTACK, 37, STACK
        ARGFRAME IOVERLAY, 0, STATIC
        ARGFRAME DOVERLAY, 0, STATIC
        EXTERN zclColor_init
        FUNCTION zclColor_init,0202H
        ARGFRAME ISTACK, 0, STACK
        ARGFRAME PSTACK, 0, STACK
        ARGFRAME XSTACK, 9, STACK
        ARGFRAME IOVERLAY, 0, STATIC
        ARGFRAME DOVERLAY, 0, STATIC
        EXTERN zclColor_process
        FUNCTION zclColor_process,0202H
        ARGFRAME ISTACK, 0, STACK
        ARGFRAME PSTACK, 0, STACK
        ARGFRAME XSTACK, 14, STACK
        ARGFRAME IOVERLAY, 0, STATIC
        ARGFRAME DOVERLAY, 0, STATIC
        EXTERN zclColor_processColorLoop
        FUNCTION zclColor_processColorLoop,0202H
        ARGFRAME ISTACK, 0, STACK
        ARGFRAME PSTACK, 0, STACK
        ARGFRAME XSTACK, 14, STACK
        ARGFRAME IOVERLAY, 0, STATIC
        ARGFRAME DOVERLAY, 0, STATIC
        EXTERN zclGeneral_ReadSceneCountCB
        FUNCTION zclGeneral_ReadSceneCountCB,0202H
        ARGFRAME ISTACK, 0, STACK
        ARGFRAME PSTACK, 0, STACK
        ARGFRAME XSTACK, 20, STACK
        ARGFRAME IOVERLAY, 0, STATIC
        ARGFRAME DOVERLAY, 0, STATIC
        EXTERN zclGeneral_RegisterCmdCallbacks
        FUNCTION zclGeneral_RegisterCmdCallbacks,0202H
        ARGFRAME ISTACK, 0, STACK
        ARGFRAME PSTACK, 0, STACK
        ARGFRAME XSTACK, 9, STACK
        ARGFRAME IOVERLAY, 0, STATIC
        ARGFRAME DOVERLAY, 0, STATIC
        EXTERN zclLevel_CurrentLevel
        EXTERN zclLevel_MoveToLevelCB
        FUNCTION zclLevel_MoveToLevelCB,0602H
        ARGFRAME ISTACK, 0, STACK
        ARGFRAME PSTACK, 0, STACK
        ARGFRAME XSTACK, 37, STACK
        ARGFRAME IOVERLAY, 0, STATIC
        ARGFRAME DOVERLAY, 0, STATIC
        EXTERN zclLevel_init
        FUNCTION zclLevel_init,0202H
        ARGFRAME ISTACK, 0, STACK
        ARGFRAME PSTACK, 0, STACK
        ARGFRAME XSTACK, 9, STACK
        ARGFRAME IOVERLAY, 0, STATIC
        ARGFRAME DOVERLAY, 0, STATIC
        EXTERN zclLevel_process
        FUNCTION zclLevel_process,0202H
        ARGFRAME ISTACK, 0, STACK
        ARGFRAME PSTACK, 0, STACK
        ARGFRAME XSTACK, 14, STACK
        ARGFRAME IOVERLAY, 0, STATIC
        ARGFRAME DOVERLAY, 0, STATIC
        EXTERN zclLighting_RegisterCmdCallbacks
        FUNCTION zclLighting_RegisterCmdCallbacks,0202H
        ARGFRAME ISTACK, 0, STACK
        ARGFRAME PSTACK, 0, STACK
        ARGFRAME XSTACK, 9, STACK
        ARGFRAME IOVERLAY, 0, STATIC
        ARGFRAME DOVERLAY, 0, STATIC
        EXTERN zcl_registerAttrList
        FUNCTION zcl_registerAttrList,0202H
        ARGFRAME ISTACK, 0, STACK
        ARGFRAME PSTACK, 0, STACK
        ARGFRAME XSTACK, 9, STACK
        ARGFRAME IOVERLAY, 0, STATIC
        ARGFRAME DOVERLAY, 0, STATIC
        EXTERN zcl_registerReadWriteCB
        FUNCTION zcl_registerReadWriteCB,0202H
        ARGFRAME ISTACK, 0, STACK
        ARGFRAME PSTACK, 0, STACK
        ARGFRAME XSTACK, 9, STACK
        ARGFRAME IOVERLAY, 0, STATIC
        ARGFRAME DOVERLAY, 0, STATIC
        EXTERN zllEffects_Blink
        FUNCTION zllEffects_Blink,0202H
        ARGFRAME ISTACK, 2, STACK
        ARGFRAME PSTACK, 0, STACK
        ARGFRAME XSTACK, 0, STACK
        ARGFRAME IOVERLAY, 0, STATIC
        ARGFRAME DOVERLAY, 0, STATIC
        EXTERN zllEffects_Init
        FUNCTION zllEffects_Init,0202H
        ARGFRAME ISTACK, 0, STACK
        ARGFRAME PSTACK, 0, STACK
        ARGFRAME XSTACK, 9, STACK
        ARGFRAME IOVERLAY, 0, STATIC
        ARGFRAME DOVERLAY, 0, STATIC
        EXTERN zllEffects_InitiateEffect
        FUNCTION zllEffects_InitiateEffect,0202H
        ARGFRAME ISTACK, 0, STACK
        ARGFRAME PSTACK, 0, STACK
        ARGFRAME XSTACK, 16, STACK
        ARGFRAME IOVERLAY, 0, STATIC
        ARGFRAME DOVERLAY, 0, STATIC
        EXTERN zllEffects_ProcessEffect
        FUNCTION zllEffects_ProcessEffect,0202H
        ARGFRAME ISTACK, 0, STACK
        ARGFRAME PSTACK, 0, STACK
        ARGFRAME XSTACK, 14, STACK
        ARGFRAME IOVERLAY, 0, STATIC
        ARGFRAME DOVERLAY, 0, STATIC
        EXTERN zllSampleLight_Attrs
        EXTERN zllSampleLight_CurrentGroup
        EXTERN zllSampleLight_CurrentScene
        EXTERN zllSampleLight_DeviceInfo
        EXTERN zllSampleLight_GlobalScene
        EXTERN zllSampleLight_GlobalSceneCtrl
        EXTERN zllSampleLight_IdentifyTime
        EXTERN zllSampleLight_OffWaitTime
        EXTERN zllSampleLight_OnOff
        EXTERN zllSampleLight_OnTime
        EXTERN zllSampleLight_SceneValid
        EXTERN zllSampleLight_SimpleDesc
        EXTERN zllSampleLight_SimpleDesc2
        EXTERN zllTarget_ClassicalCommissioningStart
        FUNCTION zllTarget_ClassicalCommissioningStart,0202H
        ARGFRAME ISTACK, 0, STACK
        ARGFRAME PSTACK, 0, STACK
        ARGFRAME XSTACK, 14, STACK
        ARGFRAME IOVERLAY, 0, STATIC
        ARGFRAME DOVERLAY, 0, STATIC
        EXTERN zllTarget_InitDevice
        FUNCTION zllTarget_InitDevice,0202H
        ARGFRAME ISTACK, 0, STACK
        ARGFRAME PSTACK, 0, STACK
        ARGFRAME XSTACK, 9, STACK
        ARGFRAME IOVERLAY, 0, STATIC
        ARGFRAME DOVERLAY, 0, STATIC
        EXTERN zllTarget_PermitJoin
        FUNCTION zllTarget_PermitJoin,0202H
        ARGFRAME ISTACK, 0, STACK
        ARGFRAME PSTACK, 0, STACK
        ARGFRAME XSTACK, 14, STACK
        ARGFRAME IOVERLAY, 0, STATIC
        ARGFRAME DOVERLAY, 0, STATIC
        EXTERN zllTarget_RegisterApp
        FUNCTION zllTarget_RegisterApp,0202H
        ARGFRAME ISTACK, 0, STACK
        ARGFRAME PSTACK, 0, STACK
        ARGFRAME XSTACK, 9, STACK
        ARGFRAME IOVERLAY, 0, STATIC
        ARGFRAME DOVERLAY, 0, STATIC
        EXTERN zllTarget_RegisterIdentifyCB
        FUNCTION zllTarget_RegisterIdentifyCB,0202H
        ARGFRAME ISTACK, 0, STACK
        ARGFRAME PSTACK, 0, STACK
        ARGFRAME XSTACK, 9, STACK
        ARGFRAME IOVERLAY, 0, STATIC
        ARGFRAME DOVERLAY, 0, STATIC
        EXTERN zllTarget_ResetToFactoryNew
        FUNCTION zllTarget_ResetToFactoryNew,0202H
        ARGFRAME ISTACK, 0, STACK
        ARGFRAME PSTACK, 0, STACK
        ARGFRAME XSTACK, 14, STACK
        ARGFRAME IOVERLAY, 0, STATIC
        ARGFRAME DOVERLAY, 0, STATIC
        EXTERN zll_RegisterSimpleDesc
        FUNCTION zll_RegisterSimpleDesc,0202H
        ARGFRAME ISTACK, 0, STACK
        ARGFRAME PSTACK, 0, STACK
        ARGFRAME XSTACK, 9, STACK
        ARGFRAME IOVERLAY, 0, STATIC
        ARGFRAME DOVERLAY, 0, STATIC

// D:\Texas Instruments\Z-Stack Lighting 1.0.2\Projects\zstack\ZLL\SampleApp\Source\Light\zll_samplelight.c
//    1 /**************************************************************************************************
//    2   Filename:       zll_samplelight.c
//    3   Revised:        $Date: 2013-12-05 14:36:32 -0800 (Thu, 05 Dec 2013) $
//    4   Revision:       $Revision: 36404 $
//    5 
//    6 
//    7   Description:    Zigbee Cluster Library - Light Link (ZLL) Light Sample
//    8                   Application.
//    9 
//   10 
//   11   Copyright 2010-2013 Texas Instruments Incorporated. All rights reserved.
//   12 
//   13   IMPORTANT: Your use of this Software is limited to those specific rights
//   14   granted under the terms of a software license agreement between the user
//   15   who downloaded the software, his/her employer (which must be your employer)
//   16   and Texas Instruments Incorporated (the "License").  You may not use this
//   17   Software unless you agree to abide by the terms of the License. The License
//   18   limits your use, and you acknowledge, that the Software may not be modified,
//   19   copied or distributed unless embedded on a Texas Instruments microcontroller
//   20   or used solely and exclusively in conjunction with a Texas Instruments radio
//   21   frequency transceiver, which is integrated into your product.  Other than for
//   22   the foregoing purpose, you may not use, reproduce, copy, prepare derivative
//   23   works of, modify, distribute, perform, display or sell this Software and/or
//   24   its documentation for any purpose.
//   25 
//   26   YOU FURTHER ACKNOWLEDGE AND AGREE THAT THE SOFTWARE AND DOCUMENTATION ARE
//   27   PROVIDED “AS IS” WITHOUT WARRANTY OF ANY KIND, EITHER EXPRESS OR IMPLIED,
//   28   INCLUDING WITHOUT LIMITATION, ANY WARRANTY OF MERCHANTABILITY, TITLE,
//   29   NON-INFRINGEMENT AND FITNESS FOR A PARTICULAR PURPOSE. IN NO EVENT SHALL
//   30   TEXAS INSTRUMENTS OR ITS LICENSORS BE LIABLE OR OBLIGATED UNDER CONTRACT,
//   31   NEGLIGENCE, STRICT LIABILITY, CONTRIBUTION, BREACH OF WARRANTY, OR OTHER
//   32   LEGAL EQUITABLE THEORY ANY DIRECT OR INDIRECT DAMAGES OR EXPENSES
//   33   INCLUDING BUT NOT LIMITED TO ANY INCIDENTAL, SPECIAL, INDIRECT, PUNITIVE
//   34   OR CONSEQUENTIAL DAMAGES, LOST PROFITS OR LOST DATA, COST OF PROCUREMENT
//   35   OF SUBSTITUTE GOODS, TECHNOLOGY, SERVICES, OR ANY CLAIMS BY THIRD PARTIES
//   36   (INCLUDING BUT NOT LIMITED TO ANY DEFENSE THEREOF), OR OTHER SIMILAR COSTS.
//   37 
//   38   Should you have any questions regarding your right to use this Software,
//   39   contact Texas Instruments Incorporated at www.TI.com.
//   40 **************************************************************************************************/
//   41 
//   42 /*********************************************************************
//   43   This device will be like a Light device.  This application is not
//   44   intended to be a Light device, but will use the device description
//   45   to implement this sample code.
//   46 *********************************************************************/
//   47 
//   48 /*********************************************************************
//   49  * INCLUDES
//   50  */
//   51 #include "onboard.h"
//   52 
//   53 #include "nwk_util.h"
//   54 
//   55 
//   56 #include "zll_target.h"
//   57 #include "zll_samplelight.h"
//   58 #include "zll_effects_ctrl.h"
//   59 
//   60 #ifdef THERMAL_SHUTDOWN
//   61 #include "hw_thermal_ctrl.h"
//   62 #endif
//   63 
//   64 /* HAL */
//   65 //#include "hal_lcd.h"
//   66 #include "hal_oled.h"
//   67 #include "hal_led.h"
//   68 #include "hal_key.h"
//   69 #include "hal_timer.h"
//   70 
//   71 #ifdef HAL_BOARD_ZLIGHT
//   72 #include "osal_clock.h"
//   73 #else
//   74 // NWK key printout
//   75 #include "osal_nv.h"
//   76 #endif
//   77 
//   78 /*********************************************************************
//   79  * MACROS
//   80  */
//   81 
//   82 /*********************************************************************
//   83  * CONSTANTS
//   84  */
//   85 #define FACTORY_RESET_KEY     HAL_KEY_RIGHT
//   86 #define CLASSIC_COMMISS_KEY   HAL_KEY_UP
//   87 #define PERMIT_JOIN_KEY       HAL_KEY_DOWN
//   88 #define DISPLAY_NWK_KEY_KEY   HAL_KEY_LEFT
//   89 
//   90 #define KEY_HOLD_SHORT_INTERVAL    1
//   91 #define KEY_HOLD_LONG_INTERVAL     5
//   92 #define PERMIT_JOIN_DURATION       60
//   93 
//   94 
//   95 /*********************************************************************
//   96  * TYPEDEFS
//   97  */
//   98 
//   99 /*********************************************************************
//  100  * GLOBAL VARIABLES
//  101  */

        RSEG XDATA_Z:XDATA:NOROOT(0)
        DATA8
//  102 byte zllSampleLight_TaskID;
zllSampleLight_TaskID:
        DS 1
        REQUIRE __INIT_XDATA_Z
//  103 
//  104 /*********************************************************************
//  105  * GLOBAL FUNCTIONS
//  106  */
//  107 #ifdef ZLL_1_0_HUB_COMPATIBILITY
//  108 extern ZStatus_t zll_RegisterSimpleDesc( SimpleDescriptionFormat_t *simpleDesc );
//  109 #endif
//  110 
//  111 /*********************************************************************
//  112  * LOCAL VARIABLES
//  113  */
//  114 
//  115 /*********************************************************************
//  116  * LOCAL FUNCTIONS
//  117  */
//  118 static void zllSampleLight_HandleKeys( byte shift, byte keys );
//  119 static void zllSampleLight_BasicResetCB( void );
//  120 static void zllSampleLight_IdentifyCB( zclIdentify_t *pCmd );
//  121 static void zllSampleLight_IdentifyQueryRspCB( zclIdentifyQueryRsp_t *pRsp );
//  122 static void zllSampleLight_OnOffCB( uint8 cmd );
//  123 static void zllSampleLight_OnOff_OffWithEffectCB( zclOffWithEffect_t *pCmd );
//  124 static void zllSampleLight_OnOff_OnWithRecallGlobalSceneCB( void );
//  125 static void zllSampleLight_OnOff_OnWithTimedOffCB( zclOnWithTimedOff_t *pCmd );
//  126 static void zllSampleLight_ProcessIdentifyTimeChange( void );
//  127 static void zllSampleLight_ProcessOnWithTimedOffTimer( void );
//  128 static void zllSampleLight_IdentifyEffectCB( zclIdentifyTriggerEffect_t *pCmd );
//  129 
//  130 // This callback is called to process attribute not handled in ZCL
//  131 static ZStatus_t zllSampleLight_AttrReadWriteCB( uint16 clusterId, uint16 attrId,
//  132                                        uint8 oper, uint8 *pValue, uint16 *pLen );
//  133 
//  134 static uint8 zllSampleLight_SceneStoreCB( zclSceneReq_t *pReq );
//  135 static void zllSampleLight_SceneRecallCB( zclSceneReq_t *pReq );
//  136 
//  137 #if ( HAL_LCD == TRUE )
//  138 static void zllSampleLight_PrintNwkKey( uint8 reverse );
//  139 #endif
//  140 
//  141 /*********************************************************************
//  142  * ZCL General Profile Callback table
//  143  */

        RSEG XDATA_I:XDATA:NOROOT(0)
//  144 static zclGeneral_AppCallbacks_t zllSampleLight_GenCmdCBs =
zllSampleLight_GenCmdCBs:
        DATA8
        DS 36
        REQUIRE `?<Initializer for zllSampleLight_GenCmdCBs>`
        REQUIRE __INIT_XDATA_I
//  145 {
//  146   zllSampleLight_BasicResetCB,            // Basic Cluster Reset command
//  147   zllSampleLight_IdentifyCB,              // Identify command
//  148 #ifdef ZCL_EZMODE
//  149   NULL,                                   // Identify EZ-Mode Invoke command
//  150   NULL,                                   // Identify Update Commission State command
//  151 #endif
//  152   zllSampleLight_IdentifyEffectCB,        // Identify Trigger Effect command
//  153   zllSampleLight_IdentifyQueryRspCB,      // Identify Query Response command
//  154   zllSampleLight_OnOffCB,                 // On/Off cluster commands
//  155   zllSampleLight_OnOff_OffWithEffectCB,   // On/Off cluster enhanced command Off with Effect
//  156   zllSampleLight_OnOff_OnWithRecallGlobalSceneCB, // On/Off cluster enhanced command On with Recall Global Scene
//  157   zllSampleLight_OnOff_OnWithTimedOffCB,  // On/Off cluster enhanced command On with Timed Off
//  158 #ifdef ZCL_LEVEL_CTRL
//  159   zclLevel_MoveToLevelCB,                 // Level Control Move to Level command
//  160   zclLevel_MoveCB,                        // Level Control Move command
//  161   zclLevel_StepCB,                        // Level Control Step command
//  162   zclLevel_StopCB,                        // Level Control Stop command
//  163 #endif
//  164 #ifdef ZCL_GROUPS
//  165   NULL,                                   // Group Response commands
//  166 #endif
//  167 #ifdef ZCL_SCENES
//  168   zllSampleLight_SceneStoreCB,            // Scene Store Request command
//  169   zllSampleLight_SceneRecallCB,           // Scene Recall Request command
//  170   NULL,                                   // Scene Response command
//  171 #endif
//  172 #if ZCL_ALARMS
//  173   NULL,                                   // Alarm (Response) commands
//  174 #endif
//  175 #ifdef SE_UK_EXT
//  176   NULL,                                   // Get Event Log command
//  177   NULL,                                   // Publish Event Log command
//  178 #endif
//  179   NULL,                                   // RSSI Location command
//  180   NULL                                    // RSSI Location Response command
//  181 };
//  182 
//  183 #ifdef ZCL_COLOR_CTRL

        RSEG XDATA_I:XDATA:NOROOT(0)
//  184 static zclLighting_AppCallbacks_t zllSampleLight_LightingCmdCBs =
zllSampleLight_LightingCmdCBs:
        DATA8
        DS 34
        REQUIRE `?<Initializer for zllSampleLight_LightingCmdCB`
        REQUIRE __INIT_XDATA_I
//  185 {
//  186   zclColor_MoveToHueCB,   //Move To Hue Command
//  187   zclColor_MoveHueCB,   //Move Hue Command
//  188   zclColor_StepHueCB,   //Step Hue Command
//  189   zclColor_MoveToSaturationCB,   //Move To Saturation Command
//  190   zclColor_MoveSaturationCB,   //Move Saturation Command
//  191   zclColor_StepSaturationCB,   //Step Saturation Command
//  192   zclColor_MoveToHueAndSaturationCB,   //Move To Hue And Saturation  Command
//  193   zclColor_MoveToColorCB, // Move To Color Command
//  194   zclColor_MoveColorCB,   // Move Color Command
//  195   zclColor_StepColorCB,   // STEP To Color Command
//  196   NULL,                                     // Move To Color Temperature Command
//  197   zclColor_EnhMoveToHueCB,// Enhanced Move To Hue
//  198   zclColor_MoveEnhHueCB,  // Enhanced Move Hue;
//  199   zclColor_StepEnhHueCB,  // Enhanced Step Hue;
//  200   zclColor_MoveToEnhHueAndSaturationCB, // Enhanced Move To Hue And Saturation;
//  201   zclColor_SetColorLoopCB, // Color Loop Set Command
//  202   zclColor_StopCB,        // Stop Move Step;
//  203 };
//  204 #endif //ZCL_COLOR_CTRL
//  205 
//  206 /*********************************************************************
//  207  * @fn          zllSampleLight_Init
//  208  *
//  209  * @brief       Initialization function for the Sample Light App Task.
//  210  *
//  211  * @param       task_id
//  212  *
//  213  * @return      none
//  214  */

        RSEG BANKED_CODE:CODE:NOROOT(0)
//  215 void zllSampleLight_Init( byte task_id )
zllSampleLight_Init:
          CFI Block cfiBlock0 Using cfiCommon0
          CFI Function zllSampleLight_Init
        CODE
//  216 {
        FUNCALL zllSampleLight_Init, zclGeneral_RegisterCmdCallbacks
        LOCFRAME ISTACK, 0, STACK
        LOCFRAME PSTACK, 0, STACK
        LOCFRAME XSTACK, 9, STACK
        LOCFRAME IOVERLAY, 0, STATIC
        LOCFRAME DOVERLAY, 0, STATIC
        ARGFRAME ISTACK, 0, STACK
        ARGFRAME PSTACK, 0, STACK
        ARGFRAME XSTACK, 9, STACK
        ARGFRAME IOVERLAY, 0, STATIC
        ARGFRAME DOVERLAY, 0, STATIC
        FUNCALL zllSampleLight_Init, HalTimer1Init
        LOCFRAME ISTACK, 0, STACK
        LOCFRAME PSTACK, 0, STACK
        LOCFRAME XSTACK, 9, STACK
        LOCFRAME IOVERLAY, 0, STATIC
        LOCFRAME DOVERLAY, 0, STATIC
        ARGFRAME ISTACK, 0, STACK
        ARGFRAME PSTACK, 0, STACK
        ARGFRAME XSTACK, 9, STACK
        ARGFRAME IOVERLAY, 0, STATIC
        ARGFRAME DOVERLAY, 0, STATIC
        FUNCALL zllSampleLight_Init, zllEffects_Init
        LOCFRAME ISTACK, 0, STACK
        LOCFRAME PSTACK, 0, STACK
        LOCFRAME XSTACK, 9, STACK
        LOCFRAME IOVERLAY, 0, STATIC
        LOCFRAME DOVERLAY, 0, STATIC
        ARGFRAME ISTACK, 0, STACK
        ARGFRAME PSTACK, 0, STACK
        ARGFRAME XSTACK, 9, STACK
        ARGFRAME IOVERLAY, 0, STATIC
        ARGFRAME DOVERLAY, 0, STATIC
        FUNCALL zllSampleLight_Init, zclLevel_init
        LOCFRAME ISTACK, 0, STACK
        LOCFRAME PSTACK, 0, STACK
        LOCFRAME XSTACK, 9, STACK
        LOCFRAME IOVERLAY, 0, STATIC
        LOCFRAME DOVERLAY, 0, STATIC
        ARGFRAME ISTACK, 0, STACK
        ARGFRAME PSTACK, 0, STACK
        ARGFRAME XSTACK, 9, STACK
        ARGFRAME IOVERLAY, 0, STATIC
        ARGFRAME DOVERLAY, 0, STATIC
        FUNCALL zllSampleLight_Init, zclLighting_RegisterCmdCallbacks
        LOCFRAME ISTACK, 0, STACK
        LOCFRAME PSTACK, 0, STACK
        LOCFRAME XSTACK, 9, STACK
        LOCFRAME IOVERLAY, 0, STATIC
        LOCFRAME DOVERLAY, 0, STATIC
        ARGFRAME ISTACK, 0, STACK
        ARGFRAME PSTACK, 0, STACK
        ARGFRAME XSTACK, 9, STACK
        ARGFRAME IOVERLAY, 0, STATIC
        ARGFRAME DOVERLAY, 0, STATIC
        FUNCALL zllSampleLight_Init, zclColor_init
        LOCFRAME ISTACK, 0, STACK
        LOCFRAME PSTACK, 0, STACK
        LOCFRAME XSTACK, 9, STACK
        LOCFRAME IOVERLAY, 0, STATIC
        LOCFRAME DOVERLAY, 0, STATIC
        ARGFRAME ISTACK, 0, STACK
        ARGFRAME PSTACK, 0, STACK
        ARGFRAME XSTACK, 9, STACK
        ARGFRAME IOVERLAY, 0, STATIC
        ARGFRAME DOVERLAY, 0, STATIC
        FUNCALL zllSampleLight_Init, zcl_registerAttrList
        LOCFRAME ISTACK, 0, STACK
        LOCFRAME PSTACK, 0, STACK
        LOCFRAME XSTACK, 9, STACK
        LOCFRAME IOVERLAY, 0, STATIC
        LOCFRAME DOVERLAY, 0, STATIC
        ARGFRAME ISTACK, 0, STACK
        ARGFRAME PSTACK, 0, STACK
        ARGFRAME XSTACK, 9, STACK
        ARGFRAME IOVERLAY, 0, STATIC
        ARGFRAME DOVERLAY, 0, STATIC
        FUNCALL zllSampleLight_Init, zcl_registerReadWriteCB
        LOCFRAME ISTACK, 0, STACK
        LOCFRAME PSTACK, 0, STACK
        LOCFRAME XSTACK, 9, STACK
        LOCFRAME IOVERLAY, 0, STATIC
        LOCFRAME DOVERLAY, 0, STATIC
        ARGFRAME ISTACK, 0, STACK
        ARGFRAME PSTACK, 0, STACK
        ARGFRAME XSTACK, 9, STACK
        ARGFRAME IOVERLAY, 0, STATIC
        ARGFRAME DOVERLAY, 0, STATIC
        FUNCALL zllSampleLight_Init, RegisterForKeys
        LOCFRAME ISTACK, 0, STACK
        LOCFRAME PSTACK, 0, STACK
        LOCFRAME XSTACK, 9, STACK
        LOCFRAME IOVERLAY, 0, STATIC
        LOCFRAME DOVERLAY, 0, STATIC
        ARGFRAME ISTACK, 0, STACK
        ARGFRAME PSTACK, 0, STACK
        ARGFRAME XSTACK, 9, STACK
        ARGFRAME IOVERLAY, 0, STATIC
        ARGFRAME DOVERLAY, 0, STATIC
        FUNCALL zllSampleLight_Init, zllTarget_RegisterApp
        LOCFRAME ISTACK, 0, STACK
        LOCFRAME PSTACK, 0, STACK
        LOCFRAME XSTACK, 9, STACK
        LOCFRAME IOVERLAY, 0, STATIC
        LOCFRAME DOVERLAY, 0, STATIC
        ARGFRAME ISTACK, 0, STACK
        ARGFRAME PSTACK, 0, STACK
        ARGFRAME XSTACK, 9, STACK
        ARGFRAME IOVERLAY, 0, STATIC
        ARGFRAME DOVERLAY, 0, STATIC
        FUNCALL zllSampleLight_Init, zllTarget_RegisterIdentifyCB
        LOCFRAME ISTACK, 0, STACK
        LOCFRAME PSTACK, 0, STACK
        LOCFRAME XSTACK, 9, STACK
        LOCFRAME IOVERLAY, 0, STATIC
        LOCFRAME DOVERLAY, 0, STATIC
        ARGFRAME ISTACK, 0, STACK
        ARGFRAME PSTACK, 0, STACK
        ARGFRAME XSTACK, 9, STACK
        ARGFRAME IOVERLAY, 0, STATIC
        ARGFRAME DOVERLAY, 0, STATIC
        FUNCALL zllSampleLight_Init, zllTarget_InitDevice
        LOCFRAME ISTACK, 0, STACK
        LOCFRAME PSTACK, 0, STACK
        LOCFRAME XSTACK, 9, STACK
        LOCFRAME IOVERLAY, 0, STATIC
        LOCFRAME DOVERLAY, 0, STATIC
        ARGFRAME ISTACK, 0, STACK
        ARGFRAME PSTACK, 0, STACK
        ARGFRAME XSTACK, 9, STACK
        ARGFRAME IOVERLAY, 0, STATIC
        ARGFRAME DOVERLAY, 0, STATIC
        FUNCALL zllSampleLight_Init, zllSampleLight_OnOffCB
        LOCFRAME ISTACK, 0, STACK
        LOCFRAME PSTACK, 0, STACK
        LOCFRAME XSTACK, 9, STACK
        LOCFRAME IOVERLAY, 0, STATIC
        LOCFRAME DOVERLAY, 0, STATIC
        ARGFRAME ISTACK, 0, STACK
        ARGFRAME PSTACK, 0, STACK
        ARGFRAME XSTACK, 9, STACK
        ARGFRAME IOVERLAY, 0, STATIC
        ARGFRAME DOVERLAY, 0, STATIC
        FUNCALL zllSampleLight_Init, zclGeneral_RegisterCmdCallbacks
        LOCFRAME ISTACK, 0, STACK
        LOCFRAME PSTACK, 0, STACK
        LOCFRAME XSTACK, 9, STACK
        LOCFRAME IOVERLAY, 0, STATIC
        LOCFRAME DOVERLAY, 0, STATIC
        ARGFRAME ISTACK, 0, STACK
        ARGFRAME PSTACK, 0, STACK
        ARGFRAME XSTACK, 9, STACK
        ARGFRAME IOVERLAY, 0, STATIC
        ARGFRAME DOVERLAY, 0, STATIC
        FUNCALL zllSampleLight_Init, zclLighting_RegisterCmdCallbacks
        LOCFRAME ISTACK, 0, STACK
        LOCFRAME PSTACK, 0, STACK
        LOCFRAME XSTACK, 9, STACK
        LOCFRAME IOVERLAY, 0, STATIC
        LOCFRAME DOVERLAY, 0, STATIC
        ARGFRAME ISTACK, 0, STACK
        ARGFRAME PSTACK, 0, STACK
        ARGFRAME XSTACK, 9, STACK
        ARGFRAME IOVERLAY, 0, STATIC
        ARGFRAME DOVERLAY, 0, STATIC
        FUNCALL zllSampleLight_Init, zcl_registerAttrList
        LOCFRAME ISTACK, 0, STACK
        LOCFRAME PSTACK, 0, STACK
        LOCFRAME XSTACK, 9, STACK
        LOCFRAME IOVERLAY, 0, STATIC
        LOCFRAME DOVERLAY, 0, STATIC
        ARGFRAME ISTACK, 0, STACK
        ARGFRAME PSTACK, 0, STACK
        ARGFRAME XSTACK, 9, STACK
        ARGFRAME IOVERLAY, 0, STATIC
        ARGFRAME DOVERLAY, 0, STATIC
        FUNCALL zllSampleLight_Init, zll_RegisterSimpleDesc
        LOCFRAME ISTACK, 0, STACK
        LOCFRAME PSTACK, 0, STACK
        LOCFRAME XSTACK, 9, STACK
        LOCFRAME IOVERLAY, 0, STATIC
        LOCFRAME DOVERLAY, 0, STATIC
        ARGFRAME ISTACK, 0, STACK
        ARGFRAME PSTACK, 0, STACK
        ARGFRAME XSTACK, 9, STACK
        ARGFRAME IOVERLAY, 0, STATIC
        ARGFRAME DOVERLAY, 0, STATIC
        MOV     A,#-0x9
        LCALL   ?BANKED_ENTER_XDATA
          CFI DPH0 load(1, XDATA, add(CFA_XSP16, literal(-1)))
          CFI DPL0 load(1, XDATA, add(CFA_XSP16, literal(-2)))
          CFI ?BRET_EXT load(1, XDATA, add(CFA_XSP16, literal(-3)))
          CFI ?RET_HIGH load(1, XDATA, add(CFA_XSP16, literal(-4)))
          CFI ?RET_LOW load(1, XDATA, add(CFA_XSP16, literal(-5)))
          CFI R7 load(1, XDATA, add(CFA_XSP16, literal(-6)))
          CFI V0 load(1, XDATA, add(CFA_XSP16, literal(-7)))
          CFI VB load(1, XDATA, add(CFA_XSP16, literal(-8)))
          CFI R6 load(1, XDATA, add(CFA_XSP16, literal(-9)))
          CFI CFA_SP SP+0
          CFI CFA_XSP16 add(XSP16, 9)
        ; Saved register size: 9
        ; Auto size: 0
        MOV     A,R1
//  217   zllSampleLight_TaskID = task_id;
        MOV     DPTR,#zllSampleLight_TaskID
        MOVX    @DPTR,A
//  218 
//  219   // Register the ZCL General Cluster Library callback functions
//  220   zclGeneral_RegisterCmdCallbacks( SAMPLELIGHT_ENDPOINT, &zllSampleLight_GenCmdCBs );
        ; Setup parameters for call to function zclGeneral_RegisterCmdCallbacks
        MOV     R2,#zllSampleLight_GenCmdCBs & 0xff
        MOV     R3,#(zllSampleLight_GenCmdCBs >> 8) & 0xff
        MOV     R1,#0xb
        LCALL   ??zclGeneral_RegisterCmdCallbacks?relay
//  221 
//  222 #ifdef ZLL_HW_LED_LAMP
//  223   HalTimer1Init(0);
        ; Setup parameters for call to function HalTimer1Init
        MOV     R2,#0x0
        MOV     R3,#0x0
        LCALL   ??HalTimer1Init?relay
//  224 #endif //ZLL_HW_LED_LAMP
//  225 
//  226   zllEffects_Init(zllSampleLight_TaskID, zllSampleLight_OnOffCB);
        ; Setup parameters for call to function zllEffects_Init
        MOV     R2,#??zllSampleLight_OnOffCB?relay & 0xff
        MOV     R3,#(??zllSampleLight_OnOffCB?relay >> 8) & 0xff
        MOV     DPTR,#zllSampleLight_TaskID
        MOVX    A,@DPTR
        MOV     R1,A
        LCALL   ??zllEffects_Init?relay
//  227 
//  228 #ifdef ZCL_LEVEL_CTRL
//  229   zclLevel_init(zllSampleLight_TaskID, zllSampleLight_OnOffCB);
        ; Setup parameters for call to function zclLevel_init
        MOV     R2,#??zllSampleLight_OnOffCB?relay & 0xff
        MOV     R3,#(??zllSampleLight_OnOffCB?relay >> 8) & 0xff
        MOV     DPTR,#zllSampleLight_TaskID
        MOVX    A,@DPTR
        MOV     R1,A
        LCALL   ??zclLevel_init?relay
//  230 #else
//  231   #ifdef ZLL_HW_LED_LAMP
//  232     halTimer1SetChannelDuty (WHITE_LED, PWM_FULL_DUTY_CYCLE); //initialize on/off LED to full power
//  233   #endif
//  234 #endif //ZCL_LEVEL_CTRL
//  235 
//  236 #ifdef ZCL_COLOR_CTRL
//  237   // Register the ZCL Lighting Cluster Library callback functions
//  238   zclLighting_RegisterCmdCallbacks( SAMPLELIGHT_ENDPOINT, &zllSampleLight_LightingCmdCBs );
        ; Setup parameters for call to function zclLighting_RegisterCmdCallbacks
        MOV     R2,#zllSampleLight_LightingCmdCBs & 0xff
        MOV     R3,#(zllSampleLight_LightingCmdCBs >> 8) & 0xff
        MOV     R1,#0xb
        LCALL   ??zclLighting_RegisterCmdCallbacks?relay
//  239   zclColor_init(zllSampleLight_TaskID);
        ; Setup parameters for call to function zclColor_init
        MOV     DPTR,#zllSampleLight_TaskID
        MOVX    A,@DPTR
        MOV     R1,A
        LCALL   ??zclColor_init?relay
//  240 #endif //#ifdef ZCL_COLOR_CTRL
//  241 
//  242   // Register the application's attribute list
//  243   zcl_registerAttrList( SAMPLELIGHT_ENDPOINT, SAMPLELIGHT_NUM_ATTRIBUTES, zllSampleLight_Attrs );
        ; Setup parameters for call to function zcl_registerAttrList
        MOV     R4,#zllSampleLight_Attrs & 0xff
        MOV     R5,#(zllSampleLight_Attrs >> 8) & 0xff
        MOV     R2,#0x2e
        MOV     R1,#0xb
        LCALL   ??zcl_registerAttrList?relay
//  244 
//  245   // Register the application's callback function to read the Scene Count attribute.
//  246   zcl_registerReadWriteCB( SAMPLELIGHT_ENDPOINT, zllSampleLight_AttrReadWriteCB, NULL );
        ; Setup parameters for call to function zcl_registerReadWriteCB
        MOV     R4,#0x0
        MOV     R5,#0x0
        MOV     R2,#??zllSampleLight_AttrReadWriteCB?relay & 0xff
        MOV     R3,#(??zllSampleLight_AttrReadWriteCB?relay >> 8) & 0xff
        MOV     R1,#0xb
        LCALL   ??zcl_registerReadWriteCB?relay
//  247 
//  248   // Register for all key events - This app will handle all key events
//  249   RegisterForKeys( zllSampleLight_TaskID );
        ; Setup parameters for call to function RegisterForKeys
        MOV     DPTR,#zllSampleLight_TaskID
        MOVX    A,@DPTR
        MOV     R1,A
        LCALL   ??RegisterForKeys?relay
//  250 
//  251   zllTarget_RegisterApp( &zllSampleLight_SimpleDesc, &zllSampleLight_DeviceInfo );
        ; Setup parameters for call to function zllTarget_RegisterApp
        MOV     R4,#zllSampleLight_DeviceInfo & 0xff
        MOV     R5,#(zllSampleLight_DeviceInfo >> 8) & 0xff
        MOV     R2,#zllSampleLight_SimpleDesc & 0xff
        MOV     R3,#(zllSampleLight_SimpleDesc >> 8) & 0xff
        LCALL   ??zllTarget_RegisterApp?relay
//  252 
//  253   zllTarget_RegisterIdentifyCB( zllSampleLight_IdentifyCB );
        ; Setup parameters for call to function zllTarget_RegisterIdentifyCB
        MOV     R2,#??zllSampleLight_IdentifyCB?relay & 0xff
        MOV     R3,#(??zllSampleLight_IdentifyCB?relay >> 8) & 0xff
        LCALL   ??zllTarget_RegisterIdentifyCB?relay
//  254 
//  255   zllTarget_InitDevice();
        ; Setup parameters for call to function zllTarget_InitDevice
        LCALL   ??zllTarget_InitDevice?relay
//  256 
//  257   zllSampleLight_OnOffCB( zllSampleLight_OnOff );
        ; Setup parameters for call to function zllSampleLight_OnOffCB
        MOV     DPTR,#zllSampleLight_OnOff
        MOVX    A,@DPTR
        MOV     R1,A
        LCALL   ??zllSampleLight_OnOffCB?relay
//  258 
//  259 #ifdef ZLL_1_0_HUB_COMPATIBILITY
//  260   zclGeneral_RegisterCmdCallbacks( SAMPLELIGHT_ENDPOINT2, &zllSampleLight_GenCmdCBs );
        ; Setup parameters for call to function zclGeneral_RegisterCmdCallbacks
        MOV     R2,#zllSampleLight_GenCmdCBs & 0xff
        MOV     R3,#(zllSampleLight_GenCmdCBs >> 8) & 0xff
        MOV     R1,#0xc
        LCALL   ??zclGeneral_RegisterCmdCallbacks?relay
//  261 #ifdef ZCL_COLOR_CTRL
//  262   zclLighting_RegisterCmdCallbacks( SAMPLELIGHT_ENDPOINT2, &zllSampleLight_LightingCmdCBs );
        ; Setup parameters for call to function zclLighting_RegisterCmdCallbacks
        MOV     R2,#zllSampleLight_LightingCmdCBs & 0xff
        MOV     R3,#(zllSampleLight_LightingCmdCBs >> 8) & 0xff
        MOV     R1,#0xc
        LCALL   ??zclLighting_RegisterCmdCallbacks?relay
//  263 #endif //ZCL_COLOR_CTRL
//  264   zcl_registerAttrList( SAMPLELIGHT_ENDPOINT2, SAMPLELIGHT_NUM_ATTRIBUTES, zllSampleLight_Attrs );
        ; Setup parameters for call to function zcl_registerAttrList
        MOV     R4,#zllSampleLight_Attrs & 0xff
        MOV     R5,#(zllSampleLight_Attrs >> 8) & 0xff
        MOV     R2,#0x2e
        MOV     R1,#0xc
        LCALL   ??zcl_registerAttrList?relay
//  265   zll_RegisterSimpleDesc( &zllSampleLight_SimpleDesc2 );
        ; Setup parameters for call to function zll_RegisterSimpleDesc
        MOV     R2,#zllSampleLight_SimpleDesc2 & 0xff
        MOV     R3,#(zllSampleLight_SimpleDesc2 >> 8) & 0xff
        LCALL   ??zll_RegisterSimpleDesc?relay
          CFI EndBlock cfiBlock0
//  266 #endif //ZLL_1_0_HUB_COMPATIBILITY
//  267 
//  268 #ifdef THERMAL_SHUTDOWN
//  269   hwThermal_Init( zllSampleLight_TaskID, TRUE );
//  270 #endif
//  271 }
        REQUIRE ?Subroutine0
        ; // Fall through to label ?Subroutine0

        RSEG BANKED_CODE:CODE:NOROOT(0)
?Subroutine0:
          CFI Block cfiBlock1 Using cfiCommon0
          CFI NoFunction
          CFI CFA_SP SP+0
          CFI CFA_XSP16 add(XSP16, 9)
          CFI VB load(1, XDATA, add(CFA_XSP16, literal(-8)))
          CFI DPL0 load(1, XDATA, add(CFA_XSP16, literal(-2)))
          CFI DPH0 load(1, XDATA, add(CFA_XSP16, literal(-1)))
          CFI R6 load(1, XDATA, add(CFA_XSP16, literal(-9)))
          CFI R7 load(1, XDATA, add(CFA_XSP16, literal(-6)))
          CFI V0 load(1, XDATA, add(CFA_XSP16, literal(-7)))
          CFI ?BRET_EXT load(1, XDATA, add(CFA_XSP16, literal(-3)))
          CFI ?RET_HIGH load(1, XDATA, add(CFA_XSP16, literal(-4)))
          CFI ?RET_LOW load(1, XDATA, add(CFA_XSP16, literal(-5)))
        MOV     R7,#0x1
        LJMP    ?BANKED_LEAVE_XDATA
          CFI EndBlock cfiBlock1
//  272 
//  273 /*********************************************************************
//  274  * @fn          zclSample_event_loop
//  275  *
//  276  * @brief       Event Loop Processor for the Sample Light App Task.
//  277  *
//  278  * @param       task_id
//  279  * @param       events - events bitmap
//  280  *
//  281  * @return      unprocessed events bitmap
//  282  */

        RSEG BANKED_CODE:CODE:NOROOT(0)
//  283 uint16 zllSampleLight_event_loop( uint8 task_id, uint16 events )
zllSampleLight_event_loop:
          CFI Block cfiBlock2 Using cfiCommon0
          CFI Function zllSampleLight_event_loop
        CODE
//  284 {
        FUNCALL zllSampleLight_event_loop, osal_msg_receive
        LOCFRAME ISTACK, 0, STACK
        LOCFRAME PSTACK, 0, STACK
        LOCFRAME XSTACK, 14, STACK
        LOCFRAME IOVERLAY, 0, STATIC
        LOCFRAME DOVERLAY, 0, STATIC
        ARGFRAME ISTACK, 0, STACK
        ARGFRAME PSTACK, 0, STACK
        ARGFRAME XSTACK, 14, STACK
        ARGFRAME IOVERLAY, 0, STATIC
        ARGFRAME DOVERLAY, 0, STATIC
        FUNCALL zllSampleLight_event_loop, osal_getClock
        LOCFRAME ISTACK, 0, STACK
        LOCFRAME PSTACK, 0, STACK
        LOCFRAME XSTACK, 14, STACK
        LOCFRAME IOVERLAY, 0, STATIC
        LOCFRAME DOVERLAY, 0, STATIC
        ARGFRAME ISTACK, 0, STACK
        ARGFRAME PSTACK, 0, STACK
        ARGFRAME XSTACK, 14, STACK
        ARGFRAME IOVERLAY, 0, STATIC
        ARGFRAME DOVERLAY, 0, STATIC
        FUNCALL zllSampleLight_event_loop, osal_getClock
        LOCFRAME ISTACK, 0, STACK
        LOCFRAME PSTACK, 0, STACK
        LOCFRAME XSTACK, 14, STACK
        LOCFRAME IOVERLAY, 0, STATIC
        LOCFRAME DOVERLAY, 0, STATIC
        ARGFRAME ISTACK, 0, STACK
        ARGFRAME PSTACK, 0, STACK
        ARGFRAME XSTACK, 14, STACK
        ARGFRAME IOVERLAY, 0, STATIC
        ARGFRAME DOVERLAY, 0, STATIC
        FUNCALL zllSampleLight_event_loop, zllTarget_PermitJoin
        LOCFRAME ISTACK, 0, STACK
        LOCFRAME PSTACK, 0, STACK
        LOCFRAME XSTACK, 14, STACK
        LOCFRAME IOVERLAY, 0, STATIC
        LOCFRAME DOVERLAY, 0, STATIC
        ARGFRAME ISTACK, 0, STACK
        ARGFRAME PSTACK, 0, STACK
        ARGFRAME XSTACK, 14, STACK
        ARGFRAME IOVERLAY, 0, STATIC
        ARGFRAME DOVERLAY, 0, STATIC
        FUNCALL zllSampleLight_event_loop, zllTarget_ClassicalCommissioningStart
        LOCFRAME ISTACK, 0, STACK
        LOCFRAME PSTACK, 0, STACK
        LOCFRAME XSTACK, 14, STACK
        LOCFRAME IOVERLAY, 0, STATIC
        LOCFRAME DOVERLAY, 0, STATIC
        ARGFRAME ISTACK, 0, STACK
        ARGFRAME PSTACK, 0, STACK
        ARGFRAME XSTACK, 14, STACK
        ARGFRAME IOVERLAY, 0, STATIC
        ARGFRAME DOVERLAY, 0, STATIC
        FUNCALL zllSampleLight_event_loop, zllTarget_ResetToFactoryNew
        LOCFRAME ISTACK, 0, STACK
        LOCFRAME PSTACK, 0, STACK
        LOCFRAME XSTACK, 14, STACK
        LOCFRAME IOVERLAY, 0, STATIC
        LOCFRAME DOVERLAY, 0, STATIC
        ARGFRAME ISTACK, 0, STACK
        ARGFRAME PSTACK, 0, STACK
        ARGFRAME XSTACK, 14, STACK
        ARGFRAME IOVERLAY, 0, STATIC
        ARGFRAME DOVERLAY, 0, STATIC
        FUNCALL zllSampleLight_event_loop, osal_msg_deallocate
        LOCFRAME ISTACK, 0, STACK
        LOCFRAME PSTACK, 0, STACK
        LOCFRAME XSTACK, 14, STACK
        LOCFRAME IOVERLAY, 0, STATIC
        LOCFRAME DOVERLAY, 0, STATIC
        ARGFRAME ISTACK, 0, STACK
        ARGFRAME PSTACK, 0, STACK
        ARGFRAME XSTACK, 14, STACK
        ARGFRAME IOVERLAY, 0, STATIC
        ARGFRAME DOVERLAY, 0, STATIC
        FUNCALL zllSampleLight_event_loop, zllSampleLight_ProcessIdentifyTimeChange
        LOCFRAME ISTACK, 0, STACK
        LOCFRAME PSTACK, 0, STACK
        LOCFRAME XSTACK, 14, STACK
        LOCFRAME IOVERLAY, 0, STATIC
        LOCFRAME DOVERLAY, 0, STATIC
        ARGFRAME ISTACK, 0, STACK
        ARGFRAME PSTACK, 0, STACK
        ARGFRAME XSTACK, 14, STACK
        ARGFRAME IOVERLAY, 0, STATIC
        ARGFRAME DOVERLAY, 0, STATIC
        FUNCALL zllSampleLight_event_loop, zllEffects_ProcessEffect
        LOCFRAME ISTACK, 0, STACK
        LOCFRAME PSTACK, 0, STACK
        LOCFRAME XSTACK, 14, STACK
        LOCFRAME IOVERLAY, 0, STATIC
        LOCFRAME DOVERLAY, 0, STATIC
        ARGFRAME ISTACK, 0, STACK
        ARGFRAME PSTACK, 0, STACK
        ARGFRAME XSTACK, 14, STACK
        ARGFRAME IOVERLAY, 0, STATIC
        ARGFRAME DOVERLAY, 0, STATIC
        FUNCALL zllSampleLight_event_loop, zllSampleLight_OnOffCB
        LOCFRAME ISTACK, 0, STACK
        LOCFRAME PSTACK, 0, STACK
        LOCFRAME XSTACK, 14, STACK
        LOCFRAME IOVERLAY, 0, STATIC
        LOCFRAME DOVERLAY, 0, STATIC
        ARGFRAME ISTACK, 0, STACK
        ARGFRAME PSTACK, 0, STACK
        ARGFRAME XSTACK, 14, STACK
        ARGFRAME IOVERLAY, 0, STATIC
        ARGFRAME DOVERLAY, 0, STATIC
        FUNCALL zllSampleLight_event_loop, osal_stop_timerEx
        LOCFRAME ISTACK, 0, STACK
        LOCFRAME PSTACK, 0, STACK
        LOCFRAME XSTACK, 14, STACK
        LOCFRAME IOVERLAY, 0, STATIC
        LOCFRAME DOVERLAY, 0, STATIC
        ARGFRAME ISTACK, 0, STACK
        ARGFRAME PSTACK, 0, STACK
        ARGFRAME XSTACK, 14, STACK
        ARGFRAME IOVERLAY, 0, STATIC
        ARGFRAME DOVERLAY, 0, STATIC
        FUNCALL zllSampleLight_event_loop, osal_start_timerEx
        LOCFRAME ISTACK, 0, STACK
        LOCFRAME PSTACK, 0, STACK
        LOCFRAME XSTACK, 18, STACK
        LOCFRAME IOVERLAY, 0, STATIC
        LOCFRAME DOVERLAY, 0, STATIC
        ARGFRAME ISTACK, 0, STACK
        ARGFRAME PSTACK, 0, STACK
        ARGFRAME XSTACK, 18, STACK
        ARGFRAME IOVERLAY, 0, STATIC
        ARGFRAME DOVERLAY, 0, STATIC
        FUNCALL zllSampleLight_event_loop, zclLevel_process
        LOCFRAME ISTACK, 0, STACK
        LOCFRAME PSTACK, 0, STACK
        LOCFRAME XSTACK, 14, STACK
        LOCFRAME IOVERLAY, 0, STATIC
        LOCFRAME DOVERLAY, 0, STATIC
        ARGFRAME ISTACK, 0, STACK
        ARGFRAME PSTACK, 0, STACK
        ARGFRAME XSTACK, 14, STACK
        ARGFRAME IOVERLAY, 0, STATIC
        ARGFRAME DOVERLAY, 0, STATIC
        FUNCALL zllSampleLight_event_loop, zclColor_process
        LOCFRAME ISTACK, 0, STACK
        LOCFRAME PSTACK, 0, STACK
        LOCFRAME XSTACK, 14, STACK
        LOCFRAME IOVERLAY, 0, STATIC
        LOCFRAME DOVERLAY, 0, STATIC
        ARGFRAME ISTACK, 0, STACK
        ARGFRAME PSTACK, 0, STACK
        ARGFRAME XSTACK, 14, STACK
        ARGFRAME IOVERLAY, 0, STATIC
        ARGFRAME DOVERLAY, 0, STATIC
        FUNCALL zllSampleLight_event_loop, zclColor_processColorLoop
        LOCFRAME ISTACK, 0, STACK
        LOCFRAME PSTACK, 0, STACK
        LOCFRAME XSTACK, 14, STACK
        LOCFRAME IOVERLAY, 0, STATIC
        LOCFRAME DOVERLAY, 0, STATIC
        ARGFRAME ISTACK, 0, STACK
        ARGFRAME PSTACK, 0, STACK
        ARGFRAME XSTACK, 14, STACK
        ARGFRAME IOVERLAY, 0, STATIC
        ARGFRAME DOVERLAY, 0, STATIC
        MOV     A,#-0xc
        LCALL   ?BANKED_ENTER_XDATA
          CFI DPH0 load(1, XDATA, add(CFA_XSP16, literal(-1)))
          CFI DPL0 load(1, XDATA, add(CFA_XSP16, literal(-2)))
          CFI ?BRET_EXT load(1, XDATA, add(CFA_XSP16, literal(-3)))
          CFI ?RET_HIGH load(1, XDATA, add(CFA_XSP16, literal(-4)))
          CFI ?RET_LOW load(1, XDATA, add(CFA_XSP16, literal(-5)))
          CFI R7 load(1, XDATA, add(CFA_XSP16, literal(-6)))
          CFI V3 load(1, XDATA, add(CFA_XSP16, literal(-7)))
          CFI V2 load(1, XDATA, add(CFA_XSP16, literal(-8)))
          CFI V1 load(1, XDATA, add(CFA_XSP16, literal(-9)))
          CFI V0 load(1, XDATA, add(CFA_XSP16, literal(-10)))
          CFI VB load(1, XDATA, add(CFA_XSP16, literal(-11)))
          CFI R6 load(1, XDATA, add(CFA_XSP16, literal(-12)))
          CFI CFA_SP SP+0
          CFI CFA_XSP16 add(XSP16, 12)
        ; Saved register size: 12
        ; Auto size: 2
        MOV     A,#-0x2
        LCALL   ?ALLOC_XSTACK8
          CFI CFA_XSP16 add(XSP16, 14)
        MOV     DPL,?XSP + 0
        MOV     DPH,?XSP + 1
        MOV     A,R2
        MOVX    @DPTR,A
        INC     DPTR
        MOV     A,R3
        MOVX    @DPTR,A
//  285   (void)task_id;  // Intentionally unreferenced parameter
//  286 
//  287   if ( events & SYS_EVENT_MSG )
        ANL     A,#0x80
        JNZ     $+5
        LJMP    ??zllSampleLight_event_loop_0 & 0xFFFF
//  288   {
//  289     afIncomingMSGPacket_t *pMsg;
//  290 
//  291     if ( (pMsg = (afIncomingMSGPacket_t *)osal_msg_receive( zllSampleLight_TaskID )) )
        ; Setup parameters for call to function osal_msg_receive
        MOV     DPTR,#zllSampleLight_TaskID
        MOVX    A,@DPTR
        MOV     R1,A
        LCALL   ??osal_msg_receive?relay
        MOV     ?V0 + 0,R2
        MOV     ?V0 + 1,R3
        MOV     R6,?V0 + 0
        MOV     R7,?V0 + 1
        MOV     A,R6
        ORL     A,R7
        JNZ     $+5
        LJMP    ??zllSampleLight_event_loop_1 & 0xFFFF
//  292     {
//  293       switch ( pMsg->hdr.event )
        MOV     DPL,R6
        MOV     DPH,R7
        MOVX    A,@DPTR
        XRL     A,#0xc0
        JNZ     ??zllSampleLight_event_loop_2
//  294       {
//  295         case KEY_CHANGE:
//  296           zllSampleLight_HandleKeys( ((keyChange_t *)pMsg)->state, ((keyChange_t *)pMsg)->keys );
        INC     DPTR
        INC     DPTR
        INC     DPTR
        MOVX    A,@DPTR
        JZ      ??zllSampleLight_event_loop_3
        ; Setup parameters for call to function osal_getClock
        LCALL   ??osal_getClock?relay
        MOV     DPTR,#??keyPressTime
        LCALL   ?XSTORE_R2345
        SJMP    ??zllSampleLight_event_loop_2
??zllSampleLight_event_loop_3:
        MOV     DPTR,#??keyPressTime
        MOV     R0,#?V0 + 0
        LCALL   ?L_MOV_X
        MOV     A,?V0 + 0
        ORL     A,?V0 + 1
        ORL     A,?V0 + 2
        ORL     A,?V0 + 3
        JZ      ??zllSampleLight_event_loop_2
        ; Setup parameters for call to function osal_getClock
        LCALL   ??osal_getClock?relay
        MOV     ?V0 + 0,R2
        MOV     ?V0 + 1,R3
        MOV     ?V0 + 2,R4
        MOV     ?V0 + 3,R5
        MOV     DPTR,#??keyPressTime
        MOV     R0,#?V0 + 0
        LCALL   ?L_SUB_X
        MOV     DPTR,#??keyPressTime
        MOV     R0,#?V0 + 0
        LCALL   ?L_MOV_TO_X
        MOV     DPTR,#__Constant_2
        MOV     R0,#?V0 + 0
        LCALL   ?L_MOV_X
        MOV     DPTR,#??keyPressTime
        MOV     R0,#?V0 + 0
        LCALL   ?UL_GT_X
        JNC     ??zllSampleLight_event_loop_4
        ; Setup parameters for call to function zllTarget_PermitJoin
        MOV     R1,#0x3c
        LCALL   ??zllTarget_PermitJoin?relay
        SJMP    ??zllSampleLight_event_loop_5
??zllSampleLight_event_loop_4:
        MOV     DPTR,#__Constant_6
        MOV     R0,#?V0 + 0
        LCALL   ?L_MOV_X
        MOV     DPTR,#??keyPressTime
        MOV     R0,#?V0 + 0
        LCALL   ?UL_GT_X
        JC      ??zllSampleLight_event_loop_6
        ; Setup parameters for call to function zllTarget_ClassicalCommissioningStart
        LCALL   ??zllTarget_ClassicalCommissioningStart?relay
        SJMP    ??zllSampleLight_event_loop_5
??zllSampleLight_event_loop_6:
        ; Setup parameters for call to function zllTarget_ResetToFactoryNew
        LCALL   ??zllTarget_ResetToFactoryNew?relay
??zllSampleLight_event_loop_5:
        MOV     DPTR,#??keyPressTime
        CLR     A
        MOVX    @DPTR,A
        INC     DPTR
        MOVX    @DPTR,A
        INC     DPTR
        MOVX    @DPTR,A
        INC     DPTR
        MOVX    @DPTR,A
//  297           break;
//  298 
//  299         default:
//  300           break;
//  301       }
//  302 
//  303       // Release the memory
//  304       osal_msg_deallocate( (uint8 *)pMsg );
??zllSampleLight_event_loop_2:
        ; Setup parameters for call to function osal_msg_deallocate
        MOV     A,R6
        MOV     R2,A
        MOV     A,R7
        MOV     R3,A
        LCALL   ??osal_msg_deallocate?relay
//  305     }
//  306 
//  307     // return unprocessed events
//  308     return (events ^ SYS_EVENT_MSG);
??zllSampleLight_event_loop_1:
        MOV     DPL,?XSP + 0
        MOV     DPH,?XSP + 1
        MOVX    A,@DPTR
        MOV     R2,A
        INC     DPTR
        MOVX    A,@DPTR
        XRL     A,#0x80
        LJMP    ??zllSampleLight_event_loop_7 & 0xFFFF
//  309   }
//  310 
//  311 #ifdef THERMAL_SHUTDOWN
//  312   if ( events & SAMPLELIGHT_THERMAL_SAMPLE_EVT )
//  313   {
//  314     hwThermal_Monitor( TRUE );
//  315     return ( events ^ SAMPLELIGHT_THERMAL_SAMPLE_EVT );
//  316   }
//  317 #endif
//  318 
//  319   if ( events & SAMPLELIGHT_IDENTIFY_TIMEOUT_EVT )
??zllSampleLight_event_loop_0:
        MOV     DPL,?XSP + 0
        MOV     DPH,?XSP + 1
        MOVX    A,@DPTR
        MOV     C,0xE0 /* A   */.0
        JNC     ??zllSampleLight_event_loop_8
//  320   {
//  321     zllSampleLight_ProcessIdentifyTimeChange();
        ; Setup parameters for call to function zllSampleLight_ProcessIdentifyTimeChange
        LCALL   ??zllSampleLight_ProcessIdentifyTimeChange?rela
//  322 
//  323     return ( events ^ SAMPLELIGHT_IDENTIFY_TIMEOUT_EVT );
        MOV     DPL,?XSP + 0
        MOV     DPH,?XSP + 1
        MOVX    A,@DPTR
        XRL     A,#0x1
        LJMP    ??zllSampleLight_event_loop_9 & 0xFFFF
//  324   }
//  325 
//  326   if ( events & SAMPLELIGHT_EFFECT_PROCESS_EVT )
??zllSampleLight_event_loop_8:
        ANL     A,#0x2
        JZ      ??zllSampleLight_event_loop_10
//  327   {
//  328     zllEffects_ProcessEffect();
        ; Setup parameters for call to function zllEffects_ProcessEffect
        LCALL   ??zllEffects_ProcessEffect?relay
//  329     return ( events ^ SAMPLELIGHT_EFFECT_PROCESS_EVT );
        MOV     DPL,?XSP + 0
        MOV     DPH,?XSP + 1
        MOVX    A,@DPTR
        XRL     A,#0x2
        SJMP    ??zllSampleLight_event_loop_9
//  330   }
//  331 
//  332   if ( events & SAMPLELIGHT_ON_TIMED_OFF_TIMER_EVT )
??zllSampleLight_event_loop_10:
        MOVX    A,@DPTR
        ANL     A,#0x4
        JZ      ??zllSampleLight_event_loop_11
//  333   {
//  334     zllSampleLight_ProcessOnWithTimedOffTimer();
        MOV     DPTR,#zllSampleLight_OnOff
        MOVX    A,@DPTR
        XRL     A,#0x1
        JNZ     ??zllSampleLight_event_loop_12
        LCALL   ?Subroutine12 & 0xFFFF
??CrossCallReturnLabel_48:
        JZ      ??zllSampleLight_event_loop_13
        MOV     DPTR,#zllSampleLight_OnTime
        LCALL   ?Subroutine8 & 0xFFFF
??CrossCallReturnLabel_21:
        JNZ     ??zllSampleLight_event_loop_14
        MOV     DPTR,#zllSampleLight_OffWaitTime
        CLR     A
        MOVX    @DPTR,A
        INC     DPTR
        MOVX    @DPTR,A
        ; Setup parameters for call to function zllSampleLight_OnOffCB
        MOV     R1,A
        LCALL   ??zllSampleLight_OnOffCB?relay
??zllSampleLight_event_loop_12:
        MOV     DPTR,#zllSampleLight_OnOff
        MOVX    A,@DPTR
        JNZ     ??zllSampleLight_event_loop_14
        MOV     DPTR,#zllSampleLight_OffWaitTime
        LCALL   ??Subroutine21_0 & 0xFFFF
??CrossCallReturnLabel_42:
        JZ      ??zllSampleLight_event_loop_14
        MOV     DPTR,#zllSampleLight_OffWaitTime
        LCALL   ?Subroutine8 & 0xFFFF
??CrossCallReturnLabel_22:
        JNZ     ??zllSampleLight_event_loop_14
        ; Setup parameters for call to function osal_stop_timerEx
        MOV     R2,#0x4
        MOV     R3,#0x0
        MOV     DPTR,#zllSampleLight_TaskID
        MOVX    A,@DPTR
        MOV     R1,A
        LCALL   ??osal_stop_timerEx?relay
        SJMP    ??zllSampleLight_event_loop_15
??zllSampleLight_event_loop_14:
        LCALL   ?Subroutine12 & 0xFFFF
??CrossCallReturnLabel_49:
        JNZ     ??zllSampleLight_event_loop_16
??zllSampleLight_event_loop_13:
        MOV     DPTR,#zllSampleLight_OffWaitTime
        LCALL   ??Subroutine21_0 & 0xFFFF
??CrossCallReturnLabel_43:
        JZ      ??zllSampleLight_event_loop_15
??zllSampleLight_event_loop_16:
        ; Setup parameters for call to function osal_start_timerEx
        MOV     DPTR,#__Constant_64
        LCALL   ?PUSH_XSTACK8_X_FOUR
          CFI CFA_XSP16 add(XSP16, 18)
        MOV     R2,#0x4
        MOV     R3,#0x0
        MOV     DPTR,#zllSampleLight_TaskID
        MOVX    A,@DPTR
        MOV     R1,A
        LCALL   ??osal_start_timerEx?relay
        MOV     A,#0x4
        LCALL   ?DEALLOC_XSTACK8
          CFI CFA_XSP16 add(XSP16, 14)
//  335     return ( events ^ SAMPLELIGHT_ON_TIMED_OFF_TIMER_EVT );
??zllSampleLight_event_loop_15:
        MOV     DPL,?XSP + 0
        MOV     DPH,?XSP + 1
        MOVX    A,@DPTR
        XRL     A,#0x4
??zllSampleLight_event_loop_9:
        MOV     R2,A
        INC     DPTR
        MOVX    A,@DPTR
??zllSampleLight_event_loop_7:
        MOV     R3,A
        SJMP    ??zllSampleLight_event_loop_17
//  336   }
//  337 
//  338 #ifdef ZCL_LEVEL_CTRL
//  339     //update the level
//  340     zclLevel_process(&events);
??zllSampleLight_event_loop_11:
        ; Setup parameters for call to function zclLevel_process
        MOV     R2,DPL
        MOV     R3,DPH
        LCALL   ??zclLevel_process?relay
//  341 #endif //ZCL_COLOR_CTRL
//  342 
//  343 #ifdef ZCL_COLOR_CTRL
//  344     //update the color
//  345     zclColor_process(&events);
        ; Setup parameters for call to function zclColor_process
        MOV     DPL,?XSP + 0
        MOV     DPH,?XSP + 1
        MOV     R2,DPL
        MOV     R3,DPH
        LCALL   ??zclColor_process?relay
//  346     zclColor_processColorLoop(&events);
        ; Setup parameters for call to function zclColor_processColorLoop
        MOV     DPL,?XSP + 0
        MOV     DPH,?XSP + 1
        MOV     R2,DPL
        MOV     R3,DPH
        LCALL   ??zclColor_processColorLoop?relay
//  347 #endif //ZCL_COLOR_CTRL
//  348 
//  349 
//  350   // Discard unknown events
//  351   return 0;
        MOV     R2,#0x0
        MOV     R3,#0x0
??zllSampleLight_event_loop_17:
        MOV     A,#0x2
        LJMP    ??Subroutine19_0 & 0xFFFF
          CFI EndBlock cfiBlock2
//  352 }

        RSEG BANKED_CODE:CODE:NOROOT(0)
?Subroutine8:
          CFI Block cfiCond3 Using cfiCommon0
          CFI Function zllSampleLight_event_loop
          CFI Conditional ??CrossCallReturnLabel_21
          CFI R6 load(1, XDATA, add(CFA_XSP16, literal(-12)))
          CFI VB load(1, XDATA, add(CFA_XSP16, literal(-11)))
          CFI V0 load(1, XDATA, add(CFA_XSP16, literal(-10)))
          CFI V1 load(1, XDATA, add(CFA_XSP16, literal(-9)))
          CFI V2 load(1, XDATA, add(CFA_XSP16, literal(-8)))
          CFI V3 load(1, XDATA, add(CFA_XSP16, literal(-7)))
          CFI R7 load(1, XDATA, add(CFA_XSP16, literal(-6)))
          CFI ?RET_LOW load(1, XDATA, add(CFA_XSP16, literal(-5)))
          CFI ?RET_HIGH load(1, XDATA, add(CFA_XSP16, literal(-4)))
          CFI ?BRET_EXT load(1, XDATA, add(CFA_XSP16, literal(-3)))
          CFI DPL0 load(1, XDATA, add(CFA_XSP16, literal(-2)))
          CFI DPH0 load(1, XDATA, add(CFA_XSP16, literal(-1)))
          CFI CFA_SP SP+0
          CFI CFA_XSP16 add(XSP16, 14)
          CFI Block cfiCond4 Using cfiCommon0
          CFI (cfiCond4) Function zllSampleLight_event_loop
          CFI (cfiCond4) Conditional ??CrossCallReturnLabel_22
          CFI (cfiCond4) R6 load(1, XDATA, add(CFA_XSP16, literal(-12)))
          CFI (cfiCond4) VB load(1, XDATA, add(CFA_XSP16, literal(-11)))
          CFI (cfiCond4) V0 load(1, XDATA, add(CFA_XSP16, literal(-10)))
          CFI (cfiCond4) V1 load(1, XDATA, add(CFA_XSP16, literal(-9)))
          CFI (cfiCond4) V2 load(1, XDATA, add(CFA_XSP16, literal(-8)))
          CFI (cfiCond4) V3 load(1, XDATA, add(CFA_XSP16, literal(-7)))
          CFI (cfiCond4) R7 load(1, XDATA, add(CFA_XSP16, literal(-6)))
          CFI (cfiCond4) ?RET_LOW load(1, XDATA, add(CFA_XSP16, literal(-5)))
          CFI (cfiCond4) ?RET_HIGH load(1, XDATA, add(CFA_XSP16, literal(-4)))
          CFI (cfiCond4) ?BRET_EXT load(1, XDATA, add(CFA_XSP16, literal(-3)))
          CFI (cfiCond4) DPL0 load(1, XDATA, add(CFA_XSP16, literal(-2)))
          CFI (cfiCond4) DPH0 load(1, XDATA, add(CFA_XSP16, literal(-1)))
          CFI (cfiCond4) CFA_SP SP+0
          CFI (cfiCond4) CFA_XSP16 add(XSP16, 14)
          CFI Block cfiPicker5 Using cfiCommon1
          CFI (cfiPicker5) NoFunction
          CFI (cfiPicker5) Picker
        MOVX    A,@DPTR
        ADD     A,#-0x1
        MOVX    @DPTR,A
        DEC     R0
        INC     DPTR
        MOVX    A,@DPTR
        ADDC    A,#-0x1
        MOVX    @DPTR,A
        MOV     R1,A
        MOV     A,R0
        ORL     A,R1
        RET
          CFI EndBlock cfiCond3
          CFI EndBlock cfiCond4
          CFI EndBlock cfiPicker5
//  353 
//  354 /*********************************************************************
//  355  * @fn      zllSampleLight_HandleKeys
//  356  *
//  357  * @brief   Handles all key events for this device.
//  358  *
//  359  * @param   shift - true if in shift/alt.
//  360  * @param   keys - bit field for key events.
//  361  *
//  362  * @return  none
//  363  */
//  364 static void zllSampleLight_HandleKeys( byte shift, byte keys )
//  365 {
//  366   (void)shift;  // Intentionally unreferenced parameter
//  367 #ifdef HAL_BOARD_ZLIGHT
//  368   // Zlight has only a single button

        RSEG XDATA_Z:XDATA:NOROOT(0)
        DATA32
//  369   static uint32 keyPressTime = 0;
??keyPressTime:
        DS 4
        REQUIRE __INIT_XDATA_Z
//  370   if ( keys )
//  371   {
//  372     keyPressTime = osal_getClock();
//  373   }
//  374   else //key released
//  375   {
//  376     if ( keyPressTime )
//  377     {
//  378       keyPressTime = ( osal_getClock() - keyPressTime );
//  379       if ( keyPressTime <= KEY_HOLD_SHORT_INTERVAL )
//  380       {
//  381         zllTarget_PermitJoin( PERMIT_JOIN_DURATION );
//  382       }
//  383       else if ( keyPressTime > KEY_HOLD_LONG_INTERVAL )
//  384       {
//  385         zllTarget_ClassicalCommissioningStart();
//  386       }
//  387       else
//  388       {
//  389         zllTarget_ResetToFactoryNew();
//  390       }
//  391       keyPressTime = 0;
//  392     }
//  393   }
//  394 #else //HAL_BOARD_CC2530EB ?
//  395   if ( keys & CLASSIC_COMMISS_KEY )
//  396   {
//  397     zllTarget_ClassicalCommissioningStart();
//  398   }
//  399 
//  400   if ( keys & FACTORY_RESET_KEY )
//  401   {
//  402     zllTarget_ResetToFactoryNew();
//  403   }
//  404 
//  405   if ( keys & PERMIT_JOIN_KEY )
//  406   {
//  407     zllTarget_PermitJoin( PERMIT_JOIN_DURATION );
//  408     HalLcdWriteString( "PermitJoin", HAL_LCD_LINE_3 );
//  409   }
//  410 
//  411   if ( keys & DISPLAY_NWK_KEY_KEY )
//  412   {
//  413 #if ( HAL_LCD == TRUE )
//  414     zllSampleLight_PrintNwkKey( FALSE );
//  415 #endif //( HAL_LCD == TRUE )
//  416   }
//  417 
//  418 #endif //HAL_BOARD_ZLIGHT
//  419 }
//  420 
//  421 #if (HAL_LCD == TRUE)
//  422 /*********************************************************************
//  423  * @fn      zllSampleLight_PrintNwkKey
//  424  *
//  425  * @brief   Print current NWK key on the LCD screen
//  426  *
//  427  * @param   reverse - TRUE to print the bytes in reverse order
//  428  *
//  429  * @return  none
//  430  */
//  431 static void zllSampleLight_PrintNwkKey( uint8 reverse )
//  432 {
//  433   nwkKeyDesc KeyInfo;
//  434   uint8 lcd_buf[SEC_KEY_LEN+1];
//  435   uint8 lcd_buf1[SEC_KEY_LEN+1];
//  436   uint8 lcd_buf2[SEC_KEY_LEN+1];
//  437   uint8 i;
//  438   static uint8 clear = 1;
//  439 
//  440   clear ^= 1;
//  441   if ( clear )
//  442   {
//  443     nwk_Status( NWK_STATUS_ROUTER_ADDR, _NIB.nwkDevAddress );
//  444     nwk_Status( NWK_STATUS_PARENT_ADDR, _NIB.nwkCoordAddress );
//  445     HalLcdWriteString( "", HAL_LCD_LINE_3 );
//  446     return;
//  447   }
//  448 
//  449   // Swap active and alternate keys writing them directly to NV
//  450   osal_nv_read(ZCD_NV_NWK_ACTIVE_KEY_INFO, 0,
//  451                sizeof(nwkKeyDesc), &KeyInfo);
//  452 
//  453   for (i = 0; i < SEC_KEY_LEN/2; i++)
//  454   {
//  455     uint8 key = KeyInfo.key[i];
//  456     _itoa(KeyInfo.key[i], &lcd_buf[i*2], 16);
//  457     if( (key & 0xF0) == 0)
//  458     {
//  459       //_itoa shift to significant figures, so swaps bytes if 0x0?
//  460       lcd_buf[(i*2) + 1] = lcd_buf[i*2];
//  461       lcd_buf[i*2] = '0';
//  462     }
//  463     if( (key & 0xF) == 0)
//  464     {
//  465       lcd_buf[(i*2) + 1] = '0';
//  466     }
//  467   }
//  468 
//  469   if ( reverse )
//  470   {
//  471     //print in daintree format. Reverse bytes.
//  472     for (i = 0; i < (SEC_KEY_LEN); i+=2)
//  473     {
//  474       lcd_buf2[SEC_KEY_LEN - (i+2)] = lcd_buf[i];
//  475       lcd_buf2[SEC_KEY_LEN - (i+1)] = lcd_buf[i+1];
//  476     }
//  477   }
//  478   else
//  479   {
//  480     osal_memcpy(lcd_buf1, lcd_buf, SEC_KEY_LEN);
//  481   }
//  482 
//  483   for (i = 0; i < SEC_KEY_LEN/2; i++)
//  484   {
//  485     uint8 key = KeyInfo.key[i + SEC_KEY_LEN/2];
//  486     _itoa(KeyInfo.key[i + SEC_KEY_LEN/2], &lcd_buf[i*2], 16);
//  487     if( (key & 0xF0) == 0)
//  488     {
//  489       //_itoa shift to significant figures, so swaps bytes if 0x0?
//  490       lcd_buf[(i*2) + 1] = lcd_buf[i*2];
//  491       lcd_buf[i*2] = '0';
//  492     }
//  493     if( (key & 0xF) == 0)
//  494     {
//  495       lcd_buf[(i*2) + 1] = '0';
//  496     }
//  497   }
//  498 
//  499   if ( reverse )
//  500   {
//  501     //print in daintree format. Reverse bytes.
//  502     for (i = 0; i < (SEC_KEY_LEN); i+=2)
//  503     {
//  504       lcd_buf1[SEC_KEY_LEN - (i+2)] = lcd_buf[i];
//  505       lcd_buf1[SEC_KEY_LEN - (i+1)] = lcd_buf[i+1];
//  506     }
//  507   }
//  508   else
//  509   {
//  510     osal_memcpy(lcd_buf2, lcd_buf, SEC_KEY_LEN);
//  511   }
//  512 
//  513   lcd_buf1[SEC_KEY_LEN] = '\0';
//  514   lcd_buf2[SEC_KEY_LEN] = '\0';
//  515   if ( reverse )
//  516   {
//  517     HalLcdWriteString( "NWK KEY (Rev.):", HAL_LCD_LINE_1 );
//  518   }
//  519   else
//  520   {
//  521     HalLcdWriteString( "NWK KEY: ", HAL_LCD_LINE_1 );
//  522   }
//  523   HalLcdWriteString( (char*)lcd_buf1, HAL_LCD_LINE_2 );
//  524   HalLcdWriteString( (char*)lcd_buf2, HAL_LCD_LINE_3 );
//  525 }
//  526 #endif //(HAL_LCD == TRUE)
//  527 
//  528 /*********************************************************************
//  529  * @fn      zllSampleLight_ProcessIdentifyTimeChange
//  530  *
//  531  * @brief   Called to process any change to the IdentifyTime attribute.
//  532  *
//  533  * @param   none
//  534  *
//  535  * @return  none
//  536  */

        RSEG BANKED_CODE:CODE:NOROOT(0)
//  537 static void zllSampleLight_ProcessIdentifyTimeChange( void )
zllSampleLight_ProcessIdentifyTimeChange:
          CFI Block cfiBlock6 Using cfiCommon0
          CFI Function zllSampleLight_ProcessIdentifyTimeChange
        CODE
//  538 {
        FUNCALL zllSampleLight_ProcessIdentifyTimeChange, zllEffects_Blink
        LOCFRAME ISTACK, 2, STACK
        LOCFRAME PSTACK, 0, STACK
        LOCFRAME XSTACK, 0, STACK
        LOCFRAME IOVERLAY, 0, STATIC
        LOCFRAME DOVERLAY, 0, STATIC
        ARGFRAME ISTACK, 2, STACK
        ARGFRAME PSTACK, 0, STACK
        ARGFRAME XSTACK, 0, STACK
        ARGFRAME IOVERLAY, 0, STATIC
        ARGFRAME DOVERLAY, 0, STATIC
        FUNCALL zllSampleLight_ProcessIdentifyTimeChange, osal_start_timerEx
        LOCFRAME ISTACK, 2, STACK
        LOCFRAME PSTACK, 0, STACK
        LOCFRAME XSTACK, 4, STACK
        LOCFRAME IOVERLAY, 0, STATIC
        LOCFRAME DOVERLAY, 0, STATIC
        ARGFRAME ISTACK, 2, STACK
        ARGFRAME PSTACK, 0, STACK
        ARGFRAME XSTACK, 4, STACK
        ARGFRAME IOVERLAY, 0, STATIC
        ARGFRAME DOVERLAY, 0, STATIC
        PUSH    DPL
          CFI DPL0 Frame(CFA_SP, 4)
          CFI CFA_SP SP+-4
        PUSH    DPH
          CFI DPH0 Frame(CFA_SP, 5)
          CFI CFA_SP SP+-5
        ; Saved register size: 2
        ; Auto size: 0
//  539   if ( zllSampleLight_IdentifyTime > 0 )
        MOV     DPTR,#zllSampleLight_IdentifyTime
        LCALL   ??Subroutine21_0 & 0xFFFF
??CrossCallReturnLabel_44:
        JZ      ??zllSampleLight_ProcessIdentifyTimeChange_0
//  540   {
//  541     zllSampleLight_IdentifyTime--;
        MOV     DPTR,#zllSampleLight_IdentifyTime
        MOVX    A,@DPTR
        ADD     A,#-0x1
        MOVX    @DPTR,A
        INC     DPTR
        MOVX    A,@DPTR
        ADDC    A,#-0x1
        MOVX    @DPTR,A
//  542     zllEffects_Blink();
        ; Setup parameters for call to function zllEffects_Blink
        LCALL   ??zllEffects_Blink?relay
//  543     osal_start_timerEx( zllSampleLight_TaskID, SAMPLELIGHT_IDENTIFY_TIMEOUT_EVT, 1000 );
        ; Setup parameters for call to function osal_start_timerEx
        MOV     DPTR,#__Constant_3e8
        LCALL   ?PUSH_XSTACK8_X_FOUR
          CFI CFA_XSP16 add(XSP16, 4)
        MOV     R2,#0x1
        MOV     R3,#0x0
        MOV     DPTR,#zllSampleLight_TaskID
        MOVX    A,@DPTR
        MOV     R1,A
        LCALL   ??osal_start_timerEx?relay
        MOV     A,#0x4
        LCALL   ?DEALLOC_XSTACK8
          CFI CFA_XSP16 XSP16+0
          CFI EndBlock cfiBlock6
//  544   }
//  545 }
??zllSampleLight_ProcessIdentifyTimeChange_0:
        REQUIRE ?Subroutine2
        ; // Fall through to label ?Subroutine2

        RSEG BANKED_CODE:CODE:NOROOT(0)
?Subroutine2:
          CFI Block cfiBlock7 Using cfiCommon0
          CFI NoFunction
          CFI CFA_SP SP+-5
          CFI DPL0 Frame(CFA_SP, 4)
          CFI DPH0 Frame(CFA_SP, 5)
        POP     DPH
          CFI CFA_SP SP+-4
          CFI DPH0 SameValue
        POP     DPL
          CFI CFA_SP SP+-3
          CFI DPL0 SameValue
        LJMP    ?BRET
          CFI EndBlock cfiBlock7
//  546 
//  547 /*********************************************************************
//  548  * @fn      zllSampleLight_ProcessOnWithTimedOffTimer
//  549  *
//  550  * @brief   Called to process On with Timed Off attributes changes over time.
//  551  *
//  552  * @param   none
//  553  *
//  554  * @return  none
//  555  */
//  556 static void zllSampleLight_ProcessOnWithTimedOffTimer( void )
//  557 {
//  558   if ( ( zllSampleLight_OnOff == LIGHT_ON ) && ( zllSampleLight_OnTime > 0 ) )
//  559   {
//  560     zllSampleLight_OnTime--;
//  561     if ( zllSampleLight_OnTime <= 0 )
//  562     {
//  563       zllSampleLight_OffWaitTime = 0x00;
//  564       zllSampleLight_OnOffCB( COMMAND_OFF );
//  565     }
//  566   }
//  567   if ( ( zllSampleLight_OnOff == LIGHT_OFF ) && ( zllSampleLight_OffWaitTime > 0 ) )
//  568   {
//  569     zllSampleLight_OffWaitTime--;
//  570     if ( zllSampleLight_OffWaitTime <= 0 )
//  571     {
//  572       osal_stop_timerEx( zllSampleLight_TaskID, SAMPLELIGHT_ON_TIMED_OFF_TIMER_EVT);
//  573       return;
//  574     }
//  575   }
//  576 
//  577   if ( ( zllSampleLight_OnTime > 0 ) || ( zllSampleLight_OffWaitTime > 0 ) )
//  578   {
//  579     osal_start_timerEx( zllSampleLight_TaskID, SAMPLELIGHT_ON_TIMED_OFF_TIMER_EVT, 100 );
//  580   }
//  581 }
//  582 
//  583 /*********************************************************************
//  584  * @fn      zllSampleLight_AttrReadWriteCB
//  585  *
//  586  * @brief   Read/write callbackfor read/wtire attrs tha have NULL dataPtr
//  587  *
//  588  *          Note: This function gets called only when the pointer
//  589  *                'dataPtr' to the Scene Count attribute value is
//  590  *                NULL in the attribute database registered with
//  591  *                the ZCL.
//  592  *
//  593  * @param   clusterId - cluster that attribute belongs to
//  594  * @param   attrId - attribute to be read or written
//  595  * @param   oper - ZCL_OPER_LEN, ZCL_OPER_READ, or ZCL_OPER_WRITE
//  596  * @param   pValue - pointer to attribute value
//  597  * @param   pLen - length of attribute value read
//  598  *
//  599  * @return  status
//  600  */

        RSEG BANKED_CODE:CODE:NOROOT(0)
//  601 ZStatus_t zllSampleLight_AttrReadWriteCB( uint16 clusterId, uint16 attrId,
zllSampleLight_AttrReadWriteCB:
          CFI Block cfiBlock8 Using cfiCommon0
          CFI Function zllSampleLight_AttrReadWriteCB
        CODE
//  602                                        uint8 oper, uint8 *pValue, uint16 *pLen )
//  603 {
        FUNCALL zllSampleLight_AttrReadWriteCB, zclGeneral_ReadSceneCountCB
        LOCFRAME ISTACK, 0, STACK
        LOCFRAME PSTACK, 0, STACK
        LOCFRAME XSTACK, 20, STACK
        LOCFRAME IOVERLAY, 0, STATIC
        LOCFRAME DOVERLAY, 0, STATIC
        ARGFRAME ISTACK, 0, STACK
        ARGFRAME PSTACK, 0, STACK
        ARGFRAME XSTACK, 20, STACK
        ARGFRAME IOVERLAY, 0, STATIC
        ARGFRAME DOVERLAY, 0, STATIC
        FUNCALL zllSampleLight_AttrReadWriteCB, zllSampleLight_IdentifyCB
        LOCFRAME ISTACK, 0, STACK
        LOCFRAME PSTACK, 0, STACK
        LOCFRAME XSTACK, 16, STACK
        LOCFRAME IOVERLAY, 0, STATIC
        LOCFRAME DOVERLAY, 0, STATIC
        ARGFRAME ISTACK, 0, STACK
        ARGFRAME PSTACK, 0, STACK
        ARGFRAME XSTACK, 16, STACK
        ARGFRAME IOVERLAY, 0, STATIC
        ARGFRAME DOVERLAY, 0, STATIC
        MOV     A,#-0xc
        LCALL   ?BANKED_ENTER_XDATA
          CFI DPH0 load(1, XDATA, add(CFA_XSP16, literal(-1)))
          CFI DPL0 load(1, XDATA, add(CFA_XSP16, literal(-2)))
          CFI ?BRET_EXT load(1, XDATA, add(CFA_XSP16, literal(-3)))
          CFI ?RET_HIGH load(1, XDATA, add(CFA_XSP16, literal(-4)))
          CFI ?RET_LOW load(1, XDATA, add(CFA_XSP16, literal(-5)))
          CFI R7 load(1, XDATA, add(CFA_XSP16, literal(-6)))
          CFI V3 load(1, XDATA, add(CFA_XSP16, literal(-7)))
          CFI V2 load(1, XDATA, add(CFA_XSP16, literal(-8)))
          CFI V1 load(1, XDATA, add(CFA_XSP16, literal(-9)))
          CFI V0 load(1, XDATA, add(CFA_XSP16, literal(-10)))
          CFI VB load(1, XDATA, add(CFA_XSP16, literal(-11)))
          CFI R6 load(1, XDATA, add(CFA_XSP16, literal(-12)))
          CFI CFA_SP SP+0
          CFI CFA_XSP16 add(XSP16, 12)
        ; Saved register size: 12
        ; Auto size: 4
        MOV     A,#-0x4
        LCALL   ?ALLOC_XSTACK8
          CFI CFA_XSP16 add(XSP16, 16)
        MOV     A,R1
        MOV     R6,A
//  604   ZStatus_t status = ZCL_STATUS_SUCCESS;
        MOV     R7,#0x0
        MOV     A,#0x10
        LCALL   ?XSTACK_DISP0_8
        MOVX    A,@DPTR
        MOV     ?V0 + 2,A
        INC     DPTR
        MOVX    A,@DPTR
        MOV     ?V0 + 3,A
        MOV     A,#0x12
        LCALL   ?XSTACK_DISP0_8
        MOVX    A,@DPTR
        MOV     ?V0 + 0,A
        INC     DPTR
        MOVX    A,@DPTR
        MOV     ?V0 + 1,A
//  605 
//  606 #if defined ZCL_SCENES
//  607   //SceneCount Attr
//  608   if( (clusterId == ZCL_CLUSTER_ID_GEN_SCENES) &&
//  609      (attrId == ATTRID_SCENES_COUNT) )
        MOV     A,#0x5
        XRL     A,R2
        JNZ     ??zllSampleLight_AttrReadWriteCB_0
        MOV     A,R3
??zllSampleLight_AttrReadWriteCB_0:
        JNZ     ??zllSampleLight_AttrReadWriteCB_1
        MOV     A,R4
        ORL     A,R5
        JZ      $+5
        LJMP    ??zllSampleLight_AttrReadWriteCB_2 & 0xFFFF
//  610   {
//  611     status = zclGeneral_ReadSceneCountCB(clusterId, attrId, oper, pValue, pLen);
        ; Setup parameters for call to function zclGeneral_ReadSceneCountCB
        MOV     R0,#?V0 + 0
        LCALL   ?PUSH_XSTACK_I_TWO
          CFI CFA_XSP16 add(XSP16, 18)
        MOV     R0,#?V0 + 2
        LCALL   ?PUSH_XSTACK_I_TWO
          CFI CFA_XSP16 add(XSP16, 20)
        MOV     R4,#0x0
        MOV     R5,#0x0
        MOV     R2,#0x5
        MOV     R3,#0x0
        LCALL   ??zclGeneral_ReadSceneCountCB?relay
        MOV     A,#0x4
        LCALL   ?DEALLOC_XSTACK8
          CFI CFA_XSP16 add(XSP16, 16)
        MOV     A,R1
        MOV     R7,A
        SJMP    ??zllSampleLight_AttrReadWriteCB_3
//  612   } else
//  613 #endif //ZCL_SCENES
//  614   //IdentifyTime Attr
//  615   if( (clusterId == ZCL_CLUSTER_ID_GEN_IDENTIFY) &&
//  616      (attrId == ATTRID_IDENTIFY_TIME) )
??zllSampleLight_AttrReadWriteCB_1:
        MOV     A,#0x3
        XRL     A,R2
        JNZ     ??zllSampleLight_AttrReadWriteCB_4
        MOV     A,R3
??zllSampleLight_AttrReadWriteCB_4:
        JNZ     ??zllSampleLight_AttrReadWriteCB_2
        MOV     A,R4
        ORL     A,R5
        JNZ     ??zllSampleLight_AttrReadWriteCB_2
//  617   {
//  618     switch ( oper )
        MOV     DPL,?V0 + 2
        MOV     DPH,?V0 + 3
        INC     DPTR
        MOV     R0,DPL
        MOV     R1,DPH
        MOV     A,R6
        JZ      ??zllSampleLight_AttrReadWriteCB_5
        DEC     A
        JZ      ??zllSampleLight_AttrReadWriteCB_6
        DEC     A
        JZ      ??zllSampleLight_AttrReadWriteCB_7
        SJMP    ??zllSampleLight_AttrReadWriteCB_2
//  619     {
//  620       case ZCL_OPER_LEN:
//  621         *pLen = 2; // uint16
//  622         break;
//  623 
//  624       case ZCL_OPER_READ:
//  625         pValue[0] = LO_UINT16( zllSampleLight_IdentifyTime );
??zllSampleLight_AttrReadWriteCB_6:
        MOV     DPTR,#zllSampleLight_IdentifyTime
        MOVX    A,@DPTR
        MOV     DPL,?V0 + 2
        MOV     DPH,?V0 + 3
        MOVX    @DPTR,A
//  626         pValue[1] = HI_UINT16( zllSampleLight_IdentifyTime );
        MOV     DPTR,#zllSampleLight_IdentifyTime + 1
        MOVX    A,@DPTR
        MOV     DPL,R0
        MOV     DPH,R1
        MOVX    @DPTR,A
//  627 
//  628         if ( pLen != NULL )
        MOV     A,?V0 + 0
        ORL     A,?V0 + 1
        JZ      ??zllSampleLight_AttrReadWriteCB_3
//  629         {
//  630           *pLen = 2;
??zllSampleLight_AttrReadWriteCB_5:
        MOV     DPL,?V0 + 0
        MOV     DPH,?V0 + 1
        MOV     A,#0x2
        MOVX    @DPTR,A
        INC     DPTR
        CLR     A
        MOVX    @DPTR,A
        SJMP    ??zllSampleLight_AttrReadWriteCB_3
//  631         }
//  632         break;
//  633 
//  634       case ZCL_OPER_WRITE:
//  635       {
//  636         zclIdentify_t cmd;
//  637         cmd.identifyTime = BUILD_UINT16( pValue[0], pValue[1] );
??zllSampleLight_AttrReadWriteCB_7:
        MOV     DPL,?V0 + 2
        MOV     DPH,?V0 + 3
        MOVX    A,@DPTR
        MOV     R2,A
        MOV     DPL,R0
        MOV     DPH,R1
        LCALL   ??Subroutine24_0 & 0xFFFF
??CrossCallReturnLabel_51:
        MOV     A,#0x2
        LCALL   ?XSTACK_DISP0_8
        MOV     A,R0
        MOVX    @DPTR,A
        INC     DPTR
        MOV     A,R1
        LCALL   ??Subroutine20_0 & 0xFFFF
//  638 
//  639         zllSampleLight_IdentifyCB( &cmd );
??CrossCallReturnLabel_41:
        LCALL   ??zllSampleLight_IdentifyCB?relay
//  640 
//  641         break;
        SJMP    ??zllSampleLight_AttrReadWriteCB_3
//  642       }
//  643 
//  644       default:
//  645         status = ZCL_STATUS_SOFTWARE_FAILURE; // should never get here!
//  646         break;
//  647     }
//  648   }
//  649   else
//  650   {
//  651     status = ZCL_STATUS_SOFTWARE_FAILURE; // should never get here!
??zllSampleLight_AttrReadWriteCB_2:
        MOV     R7,#-0x3f
//  652   }
//  653 
//  654   return ( status );
??zllSampleLight_AttrReadWriteCB_3:
        MOV     A,R7
        MOV     R1,A
          CFI EndBlock cfiBlock8
        REQUIRE ?Subroutine1
        ; // Fall through to label ?Subroutine1
//  655 }

        RSEG BANKED_CODE:CODE:NOROOT(0)
?Subroutine1:
          CFI Block cfiBlock9 Using cfiCommon0
          CFI NoFunction
          CFI CFA_SP SP+0
          CFI CFA_XSP16 add(XSP16, 16)
          CFI VB load(1, XDATA, add(CFA_XSP16, literal(-11)))
          CFI DPL0 load(1, XDATA, add(CFA_XSP16, literal(-2)))
          CFI DPH0 load(1, XDATA, add(CFA_XSP16, literal(-1)))
          CFI R6 load(1, XDATA, add(CFA_XSP16, literal(-12)))
          CFI R7 load(1, XDATA, add(CFA_XSP16, literal(-6)))
          CFI V0 load(1, XDATA, add(CFA_XSP16, literal(-10)))
          CFI V1 load(1, XDATA, add(CFA_XSP16, literal(-9)))
          CFI V2 load(1, XDATA, add(CFA_XSP16, literal(-8)))
          CFI V3 load(1, XDATA, add(CFA_XSP16, literal(-7)))
          CFI ?BRET_EXT load(1, XDATA, add(CFA_XSP16, literal(-3)))
          CFI ?RET_HIGH load(1, XDATA, add(CFA_XSP16, literal(-4)))
          CFI ?RET_LOW load(1, XDATA, add(CFA_XSP16, literal(-5)))
        MOV     A,#0x4
          CFI EndBlock cfiBlock9
        REQUIRE ??Subroutine19_0
        ; // Fall through to label ??Subroutine19_0

        RSEG BANKED_CODE:CODE:NOROOT(0)
??Subroutine19_0:
          CFI Block cfiBlock10 Using cfiCommon0
          CFI NoFunction
          CFI CFA_SP SP+0
          CFI CFA_XSP16 add(XSP16, 14)
          CFI VB load(1, XDATA, add(CFA_XSP16, literal(-11)))
          CFI DPL0 load(1, XDATA, add(CFA_XSP16, literal(-2)))
          CFI DPH0 load(1, XDATA, add(CFA_XSP16, literal(-1)))
          CFI R6 load(1, XDATA, add(CFA_XSP16, literal(-12)))
          CFI R7 load(1, XDATA, add(CFA_XSP16, literal(-6)))
          CFI V0 load(1, XDATA, add(CFA_XSP16, literal(-10)))
          CFI V1 load(1, XDATA, add(CFA_XSP16, literal(-9)))
          CFI V2 load(1, XDATA, add(CFA_XSP16, literal(-8)))
          CFI V3 load(1, XDATA, add(CFA_XSP16, literal(-7)))
          CFI ?BRET_EXT load(1, XDATA, add(CFA_XSP16, literal(-3)))
          CFI ?RET_HIGH load(1, XDATA, add(CFA_XSP16, literal(-4)))
          CFI ?RET_LOW load(1, XDATA, add(CFA_XSP16, literal(-5)))
          CFI Invalid
        LCALL   ?DEALLOC_XSTACK8
          CFI CFA_XSP16 add(XSP16, 12)
          CFI Valid
        MOV     R7,#0x4
        LJMP    ?BANKED_LEAVE_XDATA
          CFI EndBlock cfiBlock10
//  656 /*********************************************************************
//  657  * @fn      zllSampleLight_BasicResetCB
//  658  *
//  659  * @brief   Callback from the ZCL General Cluster Library
//  660  *          to set all the Basic Cluster attributes to default values.
//  661  *
//  662  * @param   none
//  663  *
//  664  * @return  none
//  665  */

        RSEG BANKED_CODE:CODE:NOROOT(0)
//  666 static void zllSampleLight_BasicResetCB( void )
zllSampleLight_BasicResetCB:
          CFI Block cfiBlock11 Using cfiCommon0
          CFI Function zllSampleLight_BasicResetCB
        CODE
//  667 {
        ; Saved register size: 0
        ; Auto size: 0
//  668   // Reset all attributes to default values
//  669 }
        LJMP    ?BRET
          CFI EndBlock cfiBlock11
//  670 
//  671 /*********************************************************************
//  672  * @fn      zllSampleLight_IdentifyCB
//  673  *
//  674  * @brief   Callback from the ZCL General Cluster Library when
//  675  *          it received an Identity Command for this application.
//  676  *
//  677  * @param   srcAddr - source address and endpoint of the response message
//  678  * @param   identifyTime - the number of seconds to identify yourself
//  679  *
//  680  * @return  none
//  681  */

        RSEG BANKED_CODE:CODE:NOROOT(0)
//  682 static void zllSampleLight_IdentifyCB( zclIdentify_t *pCmd )
zllSampleLight_IdentifyCB:
          CFI Block cfiBlock12 Using cfiCommon0
          CFI Function zllSampleLight_IdentifyCB
        CODE
//  683 {
        FUNCALL zllSampleLight_IdentifyCB, zllSampleLight_ProcessIdentifyTimeChange
        LOCFRAME ISTACK, 2, STACK
        LOCFRAME PSTACK, 0, STACK
        LOCFRAME XSTACK, 0, STACK
        LOCFRAME IOVERLAY, 0, STATIC
        LOCFRAME DOVERLAY, 0, STATIC
        ARGFRAME ISTACK, 2, STACK
        ARGFRAME PSTACK, 0, STACK
        ARGFRAME XSTACK, 0, STACK
        ARGFRAME IOVERLAY, 0, STATIC
        ARGFRAME DOVERLAY, 0, STATIC
        PUSH    DPL
          CFI DPL0 Frame(CFA_SP, 4)
          CFI CFA_SP SP+-4
        PUSH    DPH
          CFI DPH0 Frame(CFA_SP, 5)
          CFI CFA_SP SP+-5
        ; Saved register size: 2
        ; Auto size: 0
//  684   zllSampleLight_IdentifyTime = pCmd->identifyTime;
        LCALL   ?Subroutine13 & 0xFFFF
??CrossCallReturnLabel_61:
        MOV     DPTR,#zllSampleLight_IdentifyTime
        LCALL   ?Subroutine7 & 0xFFFF
//  685   zllSampleLight_ProcessIdentifyTimeChange();
??CrossCallReturnLabel_13:
        ; Setup parameters for call to function zllSampleLight_ProcessIdentifyTimeChange
        LCALL   ??zllSampleLight_ProcessIdentifyTimeChange?rela
//  686 }
        LJMP    ?Subroutine2 & 0xFFFF
          CFI EndBlock cfiBlock12
//  687 
//  688 
//  689 /*********************************************************************
//  690  * @fn      zllSampleLight_IdentifyCB
//  691  *
//  692  * @brief   Callback from the ZCL General Cluster Library when
//  693  *          it received an Identity Command for this application.
//  694  *
//  695  * @param   srcAddr - source address and endpoint of the response message
//  696  * @param   identifyTime - the number of seconds to identify yourself
//  697  *
//  698  * @return  none
//  699  */

        RSEG BANKED_CODE:CODE:NOROOT(0)
//  700 static void zllSampleLight_IdentifyEffectCB( zclIdentifyTriggerEffect_t *pCmd )
zllSampleLight_IdentifyEffectCB:
          CFI Block cfiBlock13 Using cfiCommon0
          CFI Function zllSampleLight_IdentifyEffectCB
        CODE
//  701 {
        FUNCALL zllSampleLight_IdentifyEffectCB, HalLcdWriteStringValue
        LOCFRAME ISTACK, 0, STACK
        LOCFRAME PSTACK, 0, STACK
        LOCFRAME XSTACK, 12, STACK
        LOCFRAME IOVERLAY, 0, STATIC
        LOCFRAME DOVERLAY, 0, STATIC
        ARGFRAME ISTACK, 0, STACK
        ARGFRAME PSTACK, 0, STACK
        ARGFRAME XSTACK, 12, STACK
        ARGFRAME IOVERLAY, 0, STATIC
        ARGFRAME DOVERLAY, 0, STATIC
        FUNCALL zllSampleLight_IdentifyEffectCB, zllEffects_InitiateEffect
        LOCFRAME ISTACK, 0, STACK
        LOCFRAME PSTACK, 0, STACK
        LOCFRAME XSTACK, 11, STACK
        LOCFRAME IOVERLAY, 0, STATIC
        LOCFRAME DOVERLAY, 0, STATIC
        ARGFRAME ISTACK, 0, STACK
        ARGFRAME PSTACK, 0, STACK
        ARGFRAME XSTACK, 11, STACK
        ARGFRAME IOVERLAY, 0, STATIC
        ARGFRAME DOVERLAY, 0, STATIC
        MOV     A,#-0xb
        LCALL   ?BANKED_ENTER_XDATA
          CFI DPH0 load(1, XDATA, add(CFA_XSP16, literal(-1)))
          CFI DPL0 load(1, XDATA, add(CFA_XSP16, literal(-2)))
          CFI ?BRET_EXT load(1, XDATA, add(CFA_XSP16, literal(-3)))
          CFI ?RET_HIGH load(1, XDATA, add(CFA_XSP16, literal(-4)))
          CFI ?RET_LOW load(1, XDATA, add(CFA_XSP16, literal(-5)))
          CFI R7 load(1, XDATA, add(CFA_XSP16, literal(-6)))
          CFI V2 load(1, XDATA, add(CFA_XSP16, literal(-7)))
          CFI V1 load(1, XDATA, add(CFA_XSP16, literal(-8)))
          CFI V0 load(1, XDATA, add(CFA_XSP16, literal(-9)))
          CFI VB load(1, XDATA, add(CFA_XSP16, literal(-10)))
          CFI R6 load(1, XDATA, add(CFA_XSP16, literal(-11)))
          CFI CFA_SP SP+0
          CFI CFA_XSP16 add(XSP16, 11)
        ; Saved register size: 11
        ; Auto size: 0
        MOV     A,R2
        MOV     R6,A
        MOV     A,R3
        MOV     R7,A
//  702   HalLcdWriteStringValue( "IdentifyEffId", pCmd->effectId, 16, HAL_LCD_LINE_1 );
        MOV     A,R6
        ADD     A,#0x2
        MOV     R0,A
        MOV     A,R7
        LCALL   ?Subroutine18 & 0xFFFF
??CrossCallReturnLabel_37:
        LCALL   ?PUSH_XSTACK_I_ONE
          CFI CFA_XSP16 add(XSP16, 12)
        MOV     R1,#0x10
        MOV     DPL,?V0 + 0
        MOV     DPH,?V0 + 1
        MOVX    A,@DPTR
        MOV     R4,A
        MOV     R5,#0x0
        MOV     R2,#`?<Constant "IdentifyEffId">` & 0xff
        MOV     R3,#(`?<Constant "IdentifyEffId">` >> 8) & 0xff
        LCALL   ??HalLcdWriteStringValue?relay
        MOV     A,#0x1
        LCALL   ?DEALLOC_XSTACK8
          CFI CFA_XSP16 add(XSP16, 11)
//  703   zllEffects_InitiateEffect( ZCL_CLUSTER_ID_GEN_IDENTIFY, COMMAND_IDENTIFY_TRIGGER_EFFECT,
//  704                                  pCmd->effectId, pCmd->effectVariant );
        ; Setup parameters for call to function zllEffects_InitiateEffect
        MOV     DPL,R6
        MOV     DPH,R7
        INC     DPTR
        INC     DPTR
        INC     DPTR
        MOVX    A,@DPTR
        MOV     R5,A
        MOV     DPL,?V0 + 0
        MOV     DPH,?V0 + 1
        MOVX    A,@DPTR
        MOV     R4,A
        MOV     R1,#0x40
        MOV     R2,#0x3
        MOV     R3,#0x0
        LCALL   ??zllEffects_InitiateEffect?relay
//  705 }
        MOV     R7,#0x3
        LJMP    ?BANKED_LEAVE_XDATA
          CFI EndBlock cfiBlock13
//  706 
//  707 /*********************************************************************
//  708  * @fn      zllSampleLight_IdentifyQueryRspCB
//  709  *
//  710  * @brief   Callback from the ZCL General Cluster Library when
//  711  *          it received an Identity Query Response Command for this application.
//  712  *
//  713  * @param   srcAddr - requestor's address
//  714  * @param   timeout - number of seconds to identify yourself (valid for query response)
//  715  *
//  716  * @return  none
//  717  */

        RSEG BANKED_CODE:CODE:NOROOT(0)
//  718 static void zllSampleLight_IdentifyQueryRspCB(  zclIdentifyQueryRsp_t *pRsp )
zllSampleLight_IdentifyQueryRspCB:
          CFI Block cfiBlock14 Using cfiCommon0
          CFI Function zllSampleLight_IdentifyQueryRspCB
        CODE
//  719 {
        ; Saved register size: 0
        ; Auto size: 0
//  720   // Query Response (with timeout value)
//  721   (void)pRsp;
//  722 }
        LJMP    ?BRET
          CFI EndBlock cfiBlock14
//  723 
//  724 /*********************************************************************
//  725  * @fn      zllSampleLight_OnOffCB
//  726  *
//  727  * @brief   Callback from the ZCL General Cluster Library when
//  728  *          it received an On/Off Command for this application.
//  729  *
//  730  * @param   cmd - COMMAND_ON, COMMAND_OFF, or COMMAND_TOGGLE
//  731  *
//  732  * @return  none
//  733  */

        RSEG BANKED_CODE:CODE:NOROOT(0)
//  734 static void zllSampleLight_OnOffCB( uint8 cmd )
zllSampleLight_OnOffCB:
          CFI Block cfiBlock15 Using cfiCommon0
          CFI Function zllSampleLight_OnOffCB
        CODE
//  735 {
        FUNCALL zllSampleLight_OnOffCB, hwLight_UpdateOnOff
        LOCFRAME ISTACK, 0, STACK
        LOCFRAME PSTACK, 0, STACK
        LOCFRAME XSTACK, 9, STACK
        LOCFRAME IOVERLAY, 0, STATIC
        LOCFRAME DOVERLAY, 0, STATIC
        ARGFRAME ISTACK, 0, STACK
        ARGFRAME PSTACK, 0, STACK
        ARGFRAME XSTACK, 9, STACK
        ARGFRAME IOVERLAY, 0, STATIC
        ARGFRAME DOVERLAY, 0, STATIC
        MOV     A,#-0x9
        LCALL   ?BANKED_ENTER_XDATA
          CFI DPH0 load(1, XDATA, add(CFA_XSP16, literal(-1)))
          CFI DPL0 load(1, XDATA, add(CFA_XSP16, literal(-2)))
          CFI ?BRET_EXT load(1, XDATA, add(CFA_XSP16, literal(-3)))
          CFI ?RET_HIGH load(1, XDATA, add(CFA_XSP16, literal(-4)))
          CFI ?RET_LOW load(1, XDATA, add(CFA_XSP16, literal(-5)))
          CFI R7 load(1, XDATA, add(CFA_XSP16, literal(-6)))
          CFI V0 load(1, XDATA, add(CFA_XSP16, literal(-7)))
          CFI VB load(1, XDATA, add(CFA_XSP16, literal(-8)))
          CFI R6 load(1, XDATA, add(CFA_XSP16, literal(-9)))
          CFI CFA_SP SP+0
          CFI CFA_XSP16 add(XSP16, 9)
        ; Saved register size: 9
        ; Auto size: 0
        MOV     A,R1
        MOV     R6,A
//  736   // Turn on the light
//  737   if ( cmd == COMMAND_ON )
        MOV     A,#0x1
        XRL     A,R6
        JZ      ??zllSampleLight_OnOffCB_0
//  738   {
//  739     zllSampleLight_OnOff = LIGHT_ON;
//  740     zllSampleLight_GlobalSceneCtrl = TRUE;
//  741     if ( zllSampleLight_OnTime == 0 )
//  742     {
//  743       zllSampleLight_OffWaitTime = 0;
//  744     }
//  745   }
//  746 
//  747   // Turn off the light
//  748   else if ( cmd == COMMAND_OFF )
        MOV     A,R6
        JZ      ??zllSampleLight_OnOffCB_1
//  749   {
//  750     zllSampleLight_OnOff = LIGHT_OFF;
//  751     //zllSampleLight_GlobalSceneCtrl = FALSE; //see ZLL spec 11-0037-03 6.6.1.2.1
//  752     zllSampleLight_OnTime = 0;
//  753   }
//  754 
//  755   // Toggle the light
//  756   else
//  757   {
//  758     if ( zllSampleLight_OnOff == LIGHT_OFF )
        MOV     DPTR,#zllSampleLight_OnOff
        MOVX    A,@DPTR
        JNZ     ??zllSampleLight_OnOffCB_1
//  759     {
//  760       zllSampleLight_OnOff = LIGHT_ON;
??zllSampleLight_OnOffCB_0:
        MOV     DPTR,#zllSampleLight_OnOff
        MOV     A,#0x1
        MOVX    @DPTR,A
//  761       zllSampleLight_GlobalSceneCtrl = TRUE;
        MOV     DPTR,#zllSampleLight_GlobalSceneCtrl
        MOVX    @DPTR,A
//  762       if ( zllSampleLight_OnTime == 0 )
        LCALL   ?Subroutine12 & 0xFFFF
??CrossCallReturnLabel_50:
        JNZ     ??zllSampleLight_OnOffCB_2
//  763       {
//  764         zllSampleLight_OffWaitTime = 0;
        MOV     DPTR,#zllSampleLight_OffWaitTime
        CLR     A
        SJMP    ??zllSampleLight_OnOffCB_3
//  765       }
//  766     }
//  767     else
//  768     {
//  769       zllSampleLight_OnOff = LIGHT_OFF;
??zllSampleLight_OnOffCB_1:
        MOV     DPTR,#zllSampleLight_OnOff
        CLR     A
        MOVX    @DPTR,A
//  770       zllSampleLight_OnTime = 0;
        MOV     DPTR,#zllSampleLight_OnTime
??zllSampleLight_OnOffCB_3:
        MOVX    @DPTR,A
        INC     DPTR
        MOVX    @DPTR,A
//  771     }
//  772   }
//  773 
//  774   hwLight_UpdateOnOff( zllSampleLight_OnOff );
??zllSampleLight_OnOffCB_2:
        ; Setup parameters for call to function hwLight_UpdateOnOff
        MOV     DPTR,#zllSampleLight_OnOff
        MOVX    A,@DPTR
        MOV     R1,A
        LCALL   ??hwLight_UpdateOnOff?relay
//  775 
//  776   zllSampleLight_SceneValid = 0;
        MOV     DPTR,#zllSampleLight_SceneValid
        CLR     A
        MOVX    @DPTR,A
//  777 }
        LJMP    ?Subroutine0 & 0xFFFF
          CFI EndBlock cfiBlock15
//  778 
//  779 
//  780 /*********************************************************************
//  781  * @fn      zllSampleLight_OffWithEffect
//  782  *
//  783  * @brief   Callback from the ZCL General Cluster Library when it
//  784  *          received an Off with Effect Command for this application.
//  785  *
//  786  * @param   pCmd - Off with Effect parameters
//  787  *
//  788  * @return  none
//  789  */

        RSEG BANKED_CODE:CODE:NOROOT(0)
//  790 static void zllSampleLight_OnOff_OffWithEffectCB( zclOffWithEffect_t *pCmd )
zllSampleLight_OnOff_OffWithEffectCB:
          CFI Block cfiBlock16 Using cfiCommon0
          CFI Function zllSampleLight_OnOff_OffWithEffectCB
        CODE
//  791 {
        FUNCALL zllSampleLight_OnOff_OffWithEffectCB, HalLcdWriteStringValueValue
        LOCFRAME ISTACK, 0, STACK
        LOCFRAME PSTACK, 0, STACK
        LOCFRAME XSTACK, 20, STACK
        LOCFRAME IOVERLAY, 0, STATIC
        LOCFRAME DOVERLAY, 0, STATIC
        ARGFRAME ISTACK, 0, STACK
        ARGFRAME PSTACK, 0, STACK
        ARGFRAME XSTACK, 20, STACK
        ARGFRAME IOVERLAY, 0, STATIC
        ARGFRAME DOVERLAY, 0, STATIC
        FUNCALL zllSampleLight_OnOff_OffWithEffectCB, zllSampleLight_SceneStoreCB
        LOCFRAME ISTACK, 0, STACK
        LOCFRAME PSTACK, 0, STACK
        LOCFRAME XSTACK, 16, STACK
        LOCFRAME IOVERLAY, 0, STATIC
        LOCFRAME DOVERLAY, 0, STATIC
        ARGFRAME ISTACK, 0, STACK
        ARGFRAME PSTACK, 0, STACK
        ARGFRAME XSTACK, 16, STACK
        ARGFRAME IOVERLAY, 0, STATIC
        ARGFRAME DOVERLAY, 0, STATIC
        FUNCALL zllSampleLight_OnOff_OffWithEffectCB, zllEffects_InitiateEffect
        LOCFRAME ISTACK, 0, STACK
        LOCFRAME PSTACK, 0, STACK
        LOCFRAME XSTACK, 16, STACK
        LOCFRAME IOVERLAY, 0, STATIC
        LOCFRAME DOVERLAY, 0, STATIC
        ARGFRAME ISTACK, 0, STACK
        ARGFRAME PSTACK, 0, STACK
        ARGFRAME XSTACK, 16, STACK
        ARGFRAME IOVERLAY, 0, STATIC
        ARGFRAME DOVERLAY, 0, STATIC
        MOV     A,#-0xc
        LCALL   ?BANKED_ENTER_XDATA
          CFI DPH0 load(1, XDATA, add(CFA_XSP16, literal(-1)))
          CFI DPL0 load(1, XDATA, add(CFA_XSP16, literal(-2)))
          CFI ?BRET_EXT load(1, XDATA, add(CFA_XSP16, literal(-3)))
          CFI ?RET_HIGH load(1, XDATA, add(CFA_XSP16, literal(-4)))
          CFI ?RET_LOW load(1, XDATA, add(CFA_XSP16, literal(-5)))
          CFI R7 load(1, XDATA, add(CFA_XSP16, literal(-6)))
          CFI V3 load(1, XDATA, add(CFA_XSP16, literal(-7)))
          CFI V2 load(1, XDATA, add(CFA_XSP16, literal(-8)))
          CFI V1 load(1, XDATA, add(CFA_XSP16, literal(-9)))
          CFI V0 load(1, XDATA, add(CFA_XSP16, literal(-10)))
          CFI VB load(1, XDATA, add(CFA_XSP16, literal(-11)))
          CFI R6 load(1, XDATA, add(CFA_XSP16, literal(-12)))
          CFI CFA_SP SP+0
          CFI CFA_XSP16 add(XSP16, 12)
        ; Saved register size: 12
        ; Auto size: 4
        MOV     A,#-0x4
        LCALL   ?ALLOC_XSTACK8
          CFI CFA_XSP16 add(XSP16, 16)
//  792   HalLcdWriteStringValueValue( "OffWithEff", pCmd->effectId, 16,
//  793                                pCmd->effectVariant, 16, HAL_LCD_LINE_1 );
        MOV     A,R2
        ADD     A,#0x2
        MOV     R0,A
        MOV     A,R3
        ADDC    A,#0x0
        MOV     R1,A
        MOV     A,R0
        MOV     R6,A
        MOV     A,R1
        MOV     R7,A
        MOV     A,R2
        ADD     A,#0x3
        INC     R0
        MOV     A,R3
        LCALL   ?Subroutine18 & 0xFFFF
??CrossCallReturnLabel_38:
        LCALL   ?PUSH_XSTACK_I_ONE
          CFI CFA_XSP16 add(XSP16, 17)
        MOV     ?V0 + 2,#0x10
        MOV     R0,#?V0 + 2
        LCALL   ?PUSH_XSTACK_I_ONE
          CFI CFA_XSP16 add(XSP16, 18)
        MOV     DPL,?V0 + 0
        MOV     DPH,R1
        MOVX    A,@DPTR
        MOV     ?V0 + 2,A
        MOV     ?V0 + 3,#0x0
        MOV     R0,#?V0 + 2
        LCALL   ?PUSH_XSTACK_I_TWO
          CFI CFA_XSP16 add(XSP16, 20)
        MOV     R1,#0x10
        MOV     DPL,R6
        MOV     DPH,R7
        MOVX    A,@DPTR
        MOV     R4,A
        MOV     R5,#0x0
        MOV     R2,#`?<Constant "OffWithEff">` & 0xff
        MOV     R3,#(`?<Constant "OffWithEff">` >> 8) & 0xff
        LCALL   ??HalLcdWriteStringValueValue?relay
        MOV     A,#0x4
        LCALL   ?DEALLOC_XSTACK8
          CFI CFA_XSP16 add(XSP16, 16)
//  794   if( zllSampleLight_GlobalSceneCtrl )
        MOV     DPTR,#zllSampleLight_GlobalSceneCtrl
        MOVX    A,@DPTR
        JZ      ??zllSampleLight_OnOff_OffWithEffectCB_0
//  795   {
//  796     zclSceneReq_t req;
//  797     req.scene = &zllSampleLight_GlobalScene;
        MOV     A,#0x2
        LCALL   ?XSTACK_DISP0_8
        LCALL   ?Subroutine4 & 0xFFFF
//  798 
//  799     zllSampleLight_SceneStoreCB( &req );
??CrossCallReturnLabel_39:
        LCALL   ??zllSampleLight_SceneStoreCB?relay
//  800     zllSampleLight_GlobalSceneCtrl = FALSE;
        MOV     DPTR,#zllSampleLight_GlobalSceneCtrl
        CLR     A
        MOVX    @DPTR,A
//  801   }
//  802   zllEffects_InitiateEffect( ZCL_CLUSTER_ID_GEN_ON_OFF, COMMAND_OFF_WITH_EFFECT,
//  803                                  pCmd->effectId, pCmd->effectVariant );
??zllSampleLight_OnOff_OffWithEffectCB_0:
        ; Setup parameters for call to function zllEffects_InitiateEffect
        MOV     DPL,?V0 + 0
        MOV     DPH,?V0 + 1
        MOVX    A,@DPTR
        MOV     R5,A
        MOV     DPL,R6
        MOV     DPH,R7
        MOVX    A,@DPTR
        MOV     R4,A
        MOV     R1,#0x40
        MOV     R2,#0x6
        MOV     R3,#0x0
        LCALL   ??zllEffects_InitiateEffect?relay
//  804 }
        LJMP    ?Subroutine1 & 0xFFFF
          CFI EndBlock cfiBlock16

        RSEG BANKED_CODE:CODE:NOROOT(0)
?Subroutine18:
          CFI Block cfiCond17 Using cfiCommon0
          CFI Function zllSampleLight_IdentifyEffectCB
          CFI Conditional ??CrossCallReturnLabel_37
          CFI R6 load(1, XDATA, add(CFA_XSP16, literal(-11)))
          CFI VB load(1, XDATA, add(CFA_XSP16, literal(-10)))
          CFI V0 load(1, XDATA, add(CFA_XSP16, literal(-9)))
          CFI V1 load(1, XDATA, add(CFA_XSP16, literal(-8)))
          CFI V2 load(1, XDATA, add(CFA_XSP16, literal(-7)))
          CFI R7 load(1, XDATA, add(CFA_XSP16, literal(-6)))
          CFI ?RET_LOW load(1, XDATA, add(CFA_XSP16, literal(-5)))
          CFI ?RET_HIGH load(1, XDATA, add(CFA_XSP16, literal(-4)))
          CFI ?BRET_EXT load(1, XDATA, add(CFA_XSP16, literal(-3)))
          CFI DPL0 load(1, XDATA, add(CFA_XSP16, literal(-2)))
          CFI DPH0 load(1, XDATA, add(CFA_XSP16, literal(-1)))
          CFI CFA_SP SP+0
          CFI CFA_XSP16 add(XSP16, 11)
          CFI Block cfiCond18 Using cfiCommon0
          CFI (cfiCond18) Function zllSampleLight_OnOff_OffWithEffectCB
          CFI (cfiCond18) Conditional ??CrossCallReturnLabel_38
          CFI (cfiCond18) R6 load(1, XDATA, add(CFA_XSP16, literal(-12)))
          CFI (cfiCond18) VB load(1, XDATA, add(CFA_XSP16, literal(-11)))
          CFI (cfiCond18) V0 load(1, XDATA, add(CFA_XSP16, literal(-10)))
          CFI (cfiCond18) V1 load(1, XDATA, add(CFA_XSP16, literal(-9)))
          CFI (cfiCond18) V2 load(1, XDATA, add(CFA_XSP16, literal(-8)))
          CFI (cfiCond18) V3 load(1, XDATA, add(CFA_XSP16, literal(-7)))
          CFI (cfiCond18) R7 load(1, XDATA, add(CFA_XSP16, literal(-6)))
          CFI (cfiCond18) ?RET_LOW load(1, XDATA, add(CFA_XSP16, literal(-5)))
          CFI (cfiCond18) ?RET_HIGH load(1, XDATA, add(CFA_XSP16, literal(-4)))
          CFI (cfiCond18) ?BRET_EXT load(1, XDATA, add(CFA_XSP16, literal(-3)))
          CFI (cfiCond18) DPL0 load(1, XDATA, add(CFA_XSP16, literal(-2)))
          CFI (cfiCond18) DPH0 load(1, XDATA, add(CFA_XSP16, literal(-1)))
          CFI (cfiCond18) CFA_SP SP+0
          CFI (cfiCond18) CFA_XSP16 add(XSP16, 16)
          CFI Block cfiPicker19 Using cfiCommon1
          CFI (cfiPicker19) NoFunction
          CFI (cfiPicker19) Picker
        ADDC    A,#0x0
        MOV     R1,A
        MOV     ?V0 + 0,R0
        MOV     ?V0 + 1,R1
        ; Setup parameters for call to function HalLcdWriteStringValue
        ; Setup parameters for call to function HalLcdWriteStringValueValue
        MOV     ?V0 + 2,#0x1
        MOV     R0,#?V0 + 2
        RET
          CFI EndBlock cfiCond17
          CFI EndBlock cfiCond18
          CFI EndBlock cfiPicker19

        RSEG BANKED_CODE:CODE:NOROOT(0)
?Subroutine4:
          CFI Block cfiCond20 Using cfiCommon0
          CFI Function zllSampleLight_OnOff_OffWithEffectCB
          CFI Conditional ??CrossCallReturnLabel_39
          CFI R6 load(1, XDATA, add(CFA_XSP16, literal(-12)))
          CFI VB load(1, XDATA, add(CFA_XSP16, literal(-11)))
          CFI V0 load(1, XDATA, add(CFA_XSP16, literal(-10)))
          CFI V1 load(1, XDATA, add(CFA_XSP16, literal(-9)))
          CFI V2 load(1, XDATA, add(CFA_XSP16, literal(-8)))
          CFI V3 load(1, XDATA, add(CFA_XSP16, literal(-7)))
          CFI R7 load(1, XDATA, add(CFA_XSP16, literal(-6)))
          CFI ?RET_LOW load(1, XDATA, add(CFA_XSP16, literal(-5)))
          CFI ?RET_HIGH load(1, XDATA, add(CFA_XSP16, literal(-4)))
          CFI ?BRET_EXT load(1, XDATA, add(CFA_XSP16, literal(-3)))
          CFI DPL0 load(1, XDATA, add(CFA_XSP16, literal(-2)))
          CFI DPH0 load(1, XDATA, add(CFA_XSP16, literal(-1)))
          CFI CFA_SP SP+0
          CFI CFA_XSP16 add(XSP16, 16)
          CFI Block cfiCond21 Using cfiCommon0
          CFI (cfiCond21) Function zllSampleLight_OnOff_OnWithRecallGlobalSceneCB
          CFI (cfiCond21) Conditional ??CrossCallReturnLabel_40
          CFI (cfiCond21) DPL0 Frame(CFA_SP, 4)
          CFI (cfiCond21) DPH0 Frame(CFA_SP, 5)
          CFI (cfiCond21) CFA_SP SP+-5
          CFI (cfiCond21) CFA_XSP16 add(XSP16, 4)
          CFI Block cfiPicker22 Using cfiCommon1
          CFI (cfiPicker22) NoFunction
          CFI (cfiPicker22) Picker
        MOV     A,#zllSampleLight_GlobalScene & 0xff
        MOVX    @DPTR,A
        INC     DPTR
        MOV     A,#(zllSampleLight_GlobalScene >> 8) & 0xff
          CFI EndBlock cfiCond20
          CFI EndBlock cfiCond21
          CFI EndBlock cfiPicker22
        REQUIRE ??Subroutine20_0
        ; // Fall through to label ??Subroutine20_0

        RSEG BANKED_CODE:CODE:NOROOT(0)
??Subroutine20_0:
          CFI Block cfiCond23 Using cfiCommon0
          CFI Function zllSampleLight_AttrReadWriteCB
          CFI Conditional ??CrossCallReturnLabel_41
          CFI R6 load(1, XDATA, add(CFA_XSP16, literal(-12)))
          CFI VB load(1, XDATA, add(CFA_XSP16, literal(-11)))
          CFI V0 load(1, XDATA, add(CFA_XSP16, literal(-10)))
          CFI V1 load(1, XDATA, add(CFA_XSP16, literal(-9)))
          CFI V2 load(1, XDATA, add(CFA_XSP16, literal(-8)))
          CFI V3 load(1, XDATA, add(CFA_XSP16, literal(-7)))
          CFI R7 load(1, XDATA, add(CFA_XSP16, literal(-6)))
          CFI ?RET_LOW load(1, XDATA, add(CFA_XSP16, literal(-5)))
          CFI ?RET_HIGH load(1, XDATA, add(CFA_XSP16, literal(-4)))
          CFI ?BRET_EXT load(1, XDATA, add(CFA_XSP16, literal(-3)))
          CFI DPL0 load(1, XDATA, add(CFA_XSP16, literal(-2)))
          CFI DPH0 load(1, XDATA, add(CFA_XSP16, literal(-1)))
          CFI CFA_SP SP+0
          CFI CFA_XSP16 add(XSP16, 16)
          CFI Block cfiCond24 Using cfiCommon0
          CFI (cfiCond24) Function zllSampleLight_OnOff_OffWithEffectCB
          CFI (cfiCond24) Conditional ??CrossCallReturnLabel_39
          CFI (cfiCond24) R6 load(1, XDATA, add(CFA_XSP16, literal(-12)))
          CFI (cfiCond24) VB load(1, XDATA, add(CFA_XSP16, literal(-11)))
          CFI (cfiCond24) V0 load(1, XDATA, add(CFA_XSP16, literal(-10)))
          CFI (cfiCond24) V1 load(1, XDATA, add(CFA_XSP16, literal(-9)))
          CFI (cfiCond24) V2 load(1, XDATA, add(CFA_XSP16, literal(-8)))
          CFI (cfiCond24) V3 load(1, XDATA, add(CFA_XSP16, literal(-7)))
          CFI (cfiCond24) R7 load(1, XDATA, add(CFA_XSP16, literal(-6)))
          CFI (cfiCond24) ?RET_LOW load(1, XDATA, add(CFA_XSP16, literal(-5)))
          CFI (cfiCond24) ?RET_HIGH load(1, XDATA, add(CFA_XSP16, literal(-4)))
          CFI (cfiCond24) ?BRET_EXT load(1, XDATA, add(CFA_XSP16, literal(-3)))
          CFI (cfiCond24) DPL0 load(1, XDATA, add(CFA_XSP16, literal(-2)))
          CFI (cfiCond24) DPH0 load(1, XDATA, add(CFA_XSP16, literal(-1)))
          CFI (cfiCond24) CFA_SP SP+0
          CFI (cfiCond24) CFA_XSP16 add(XSP16, 16)
          CFI Block cfiCond25 Using cfiCommon0
          CFI (cfiCond25) Function zllSampleLight_OnOff_OnWithRecallGlobalSceneCB
          CFI (cfiCond25) Conditional ??CrossCallReturnLabel_40
          CFI (cfiCond25) DPL0 Frame(CFA_SP, 4)
          CFI (cfiCond25) DPH0 Frame(CFA_SP, 5)
          CFI (cfiCond25) CFA_SP SP+-5
          CFI (cfiCond25) CFA_XSP16 add(XSP16, 4)
          CFI Block cfiPicker26 Using cfiCommon1
          CFI (cfiPicker26) NoFunction
          CFI (cfiPicker26) Picker
        MOVX    @DPTR,A
        ; Setup parameters for call to function zllSampleLight_SceneStoreCB
        ; Setup parameters for call to function zllSampleLight_SceneRecallCB
        ; Setup parameters for call to function zllSampleLight_IdentifyCB
        MOV     DPL,?XSP + 0
        MOV     DPH,?XSP + 1
        MOV     R2,DPL
        MOV     R3,DPH
        RET
          CFI EndBlock cfiCond23
          CFI EndBlock cfiCond24
          CFI EndBlock cfiCond25
          CFI EndBlock cfiPicker26
//  805 
//  806 /*********************************************************************
//  807  * @fn      zllSampleLight_OnOff_OnWithRecallGlobalSceneCB
//  808  *
//  809  * @brief   Callback from the ZCL General Cluster Library when it
//  810  *          received an On with Recall Global Scene Command for this application.
//  811  *
//  812  * @param   none
//  813  *
//  814  * @return  none
//  815  */

        RSEG BANKED_CODE:CODE:NOROOT(0)
//  816 static void zllSampleLight_OnOff_OnWithRecallGlobalSceneCB( void )
zllSampleLight_OnOff_OnWithRecallGlobalSceneCB:
          CFI Block cfiBlock27 Using cfiCommon0
          CFI Function zllSampleLight_OnOff_OnWithRecallGlobalSceneCB
        CODE
//  817 {
        FUNCALL zllSampleLight_OnOff_OnWithRecallGlobalSceneCB, zllSampleLight_SceneRecallCB
        LOCFRAME ISTACK, 2, STACK
        LOCFRAME PSTACK, 0, STACK
        LOCFRAME XSTACK, 4, STACK
        LOCFRAME IOVERLAY, 0, STATIC
        LOCFRAME DOVERLAY, 0, STATIC
        ARGFRAME ISTACK, 2, STACK
        ARGFRAME PSTACK, 0, STACK
        ARGFRAME XSTACK, 4, STACK
        ARGFRAME IOVERLAY, 0, STATIC
        ARGFRAME DOVERLAY, 0, STATIC
        PUSH    DPL
          CFI DPL0 Frame(CFA_SP, 4)
          CFI CFA_SP SP+-4
        PUSH    DPH
          CFI DPH0 Frame(CFA_SP, 5)
          CFI CFA_SP SP+-5
        ; Saved register size: 2
        ; Auto size: 4
        MOV     A,#-0x4
        LCALL   ?ALLOC_XSTACK8
          CFI CFA_XSP16 add(XSP16, 4)
//  818   if( !zllSampleLight_GlobalSceneCtrl )
        MOV     DPTR,#zllSampleLight_GlobalSceneCtrl
        MOVX    A,@DPTR
        JNZ     ??zllSampleLight_OnOff_OnWithRecallGlobalSceneC_1
//  819   {
//  820     zclSceneReq_t req;
//  821     req.scene = &zllSampleLight_GlobalScene;
        MOV     A,#0x2
        LCALL   ?XSTACK_DISP0_8
        LCALL   ?Subroutine4 & 0xFFFF
//  822 
//  823     zllSampleLight_SceneRecallCB( &req );
??CrossCallReturnLabel_40:
        LCALL   ??zllSampleLight_SceneRecallCB?relay
//  824 
//  825     zllSampleLight_GlobalSceneCtrl = TRUE;
        MOV     DPTR,#zllSampleLight_GlobalSceneCtrl
        MOV     A,#0x1
        MOVX    @DPTR,A
//  826   }
//  827   // If the GlobalSceneControl attribute is equal to TRUE, discard the command
//  828 }
??zllSampleLight_OnOff_OnWithRecallGlobalSceneC_1:
        MOV     A,#0x4
        LCALL   ?DEALLOC_XSTACK8
          CFI CFA_XSP16 XSP16+0
        LJMP    ?Subroutine2 & 0xFFFF
          CFI EndBlock cfiBlock27
//  829 
//  830 /*********************************************************************
//  831  * @fn      zllSampleLight_OnOff_OnWithTimedOffCB
//  832  *
//  833  * @brief   Callback from the ZCL General Cluster Library when it
//  834  *          received an On with Timed Off Command for this application.
//  835  *
//  836  * @param   pCmd - On with Timed Off parameters
//  837  *
//  838  * @return  none
//  839  */

        RSEG BANKED_CODE:CODE:NOROOT(0)
//  840 static void zllSampleLight_OnOff_OnWithTimedOffCB( zclOnWithTimedOff_t *pCmd )
zllSampleLight_OnOff_OnWithTimedOffCB:
          CFI Block cfiBlock28 Using cfiCommon0
          CFI Function zllSampleLight_OnOff_OnWithTimedOffCB
        CODE
//  841 {
        FUNCALL zllSampleLight_OnOff_OnWithTimedOffCB, zllSampleLight_OnOffCB
        LOCFRAME ISTACK, 0, STACK
        LOCFRAME PSTACK, 0, STACK
        LOCFRAME XSTACK, 10, STACK
        LOCFRAME IOVERLAY, 0, STATIC
        LOCFRAME DOVERLAY, 0, STATIC
        ARGFRAME ISTACK, 0, STACK
        ARGFRAME PSTACK, 0, STACK
        ARGFRAME XSTACK, 10, STACK
        ARGFRAME IOVERLAY, 0, STATIC
        ARGFRAME DOVERLAY, 0, STATIC
        FUNCALL zllSampleLight_OnOff_OnWithTimedOffCB, osal_start_timerEx
        LOCFRAME ISTACK, 0, STACK
        LOCFRAME PSTACK, 0, STACK
        LOCFRAME XSTACK, 14, STACK
        LOCFRAME IOVERLAY, 0, STATIC
        LOCFRAME DOVERLAY, 0, STATIC
        ARGFRAME ISTACK, 0, STACK
        ARGFRAME PSTACK, 0, STACK
        ARGFRAME XSTACK, 14, STACK
        ARGFRAME IOVERLAY, 0, STATIC
        ARGFRAME DOVERLAY, 0, STATIC
        MOV     A,#-0xa
        LCALL   ?BANKED_ENTER_XDATA
          CFI DPH0 load(1, XDATA, add(CFA_XSP16, literal(-1)))
          CFI DPL0 load(1, XDATA, add(CFA_XSP16, literal(-2)))
          CFI ?BRET_EXT load(1, XDATA, add(CFA_XSP16, literal(-3)))
          CFI ?RET_HIGH load(1, XDATA, add(CFA_XSP16, literal(-4)))
          CFI ?RET_LOW load(1, XDATA, add(CFA_XSP16, literal(-5)))
          CFI R7 load(1, XDATA, add(CFA_XSP16, literal(-6)))
          CFI V1 load(1, XDATA, add(CFA_XSP16, literal(-7)))
          CFI V0 load(1, XDATA, add(CFA_XSP16, literal(-8)))
          CFI VB load(1, XDATA, add(CFA_XSP16, literal(-9)))
          CFI R6 load(1, XDATA, add(CFA_XSP16, literal(-10)))
          CFI CFA_SP SP+0
          CFI CFA_XSP16 add(XSP16, 10)
        ; Saved register size: 10
        ; Auto size: 0
//  842   if ( ( pCmd->onOffCtrl.bits.acceptOnlyWhenOn == TRUE )
//  843       && ( zllSampleLight_OnOff == LIGHT_OFF ) )
        MOV     DPL,R2
        MOV     DPH,R3
        MOVX    A,@DPTR
        MOV     C,0xE0 /* A   */.0
        JNC     ??zllSampleLight_OnOff_OnWithTimedOffCB_0
        MOV     DPTR,#zllSampleLight_OnOff
        MOVX    A,@DPTR
        JNZ     $+5
        LJMP    ??zllSampleLight_OnOff_OnWithTimedOffCB_1 & 0xFFFF
//  844   {
//  845     return;
//  846   }
//  847 
//  848   if ( ( zllSampleLight_OffWaitTime > 0 ) && ( zllSampleLight_OnOff == LIGHT_OFF ) )
??zllSampleLight_OnOff_OnWithTimedOffCB_0:
        MOV     A,R2
        ADD     A,#0x4
        MOV     R0,A
        MOV     A,R3
        ADDC    A,#0x0
        MOV     R1,A
        MOV     A,R0
        MOV     R6,A
        MOV     A,R1
        MOV     R7,A
        MOV     DPTR,#zllSampleLight_OffWaitTime
        LCALL   ??Subroutine21_0 & 0xFFFF
??CrossCallReturnLabel_45:
        JZ      ??zllSampleLight_OnOff_OnWithTimedOffCB_2
        MOV     DPTR,#zllSampleLight_OnOff
        MOVX    A,@DPTR
        JNZ     ??zllSampleLight_OnOff_OnWithTimedOffCB_2
//  849   {
//  850     zllSampleLight_OffWaitTime = MIN( zllSampleLight_OffWaitTime, pCmd->offWaitTime );
        MOV     DPL,R6
        MOV     DPH,R7
        LCALL   ??Subroutine26_0 & 0xFFFF
//  851   }
??CrossCallReturnLabel_57:
        MOV     DPTR,#zllSampleLight_OffWaitTime
        CLR     C
        MOVX    A,@DPTR
        SUBB    A,R0
        INC     DPTR
        MOVX    A,@DPTR
        SUBB    A,R1
        JC      ??CrossCallReturnLabel_14
        SJMP    ??zllSampleLight_OnOff_OnWithTimedOffCB_3
//  852   else
//  853   {
//  854     uint16 maxOnTime = MAX( zllSampleLight_OnTime, pCmd->onTime );
??zllSampleLight_OnOff_OnWithTimedOffCB_2:
        LCALL   ?Subroutine13 & 0xFFFF
??CrossCallReturnLabel_62:
        MOV     DPTR,#zllSampleLight_OnTime
        CLR     C
        MOVX    A,@DPTR
        SUBB    A,R0
        INC     DPTR
        MOVX    A,@DPTR
        SUBB    A,R1
        JNC     ??zllSampleLight_OnOff_OnWithTimedOffCB_4
        MOV     ?V0 + 0,R0
        MOV     ?V0 + 1,R1
        SJMP    ??zllSampleLight_OnOff_OnWithTimedOffCB_5
??zllSampleLight_OnOff_OnWithTimedOffCB_4:
        MOV     DPTR,#zllSampleLight_OnTime
        MOVX    A,@DPTR
        MOV     ?V0 + 0,A
        INC     DPTR
        MOVX    A,@DPTR
        MOV     ?V0 + 1,A
//  855     zllSampleLight_OnOffCB( COMMAND_ON );
??zllSampleLight_OnOff_OnWithTimedOffCB_5:
        ; Setup parameters for call to function zllSampleLight_OnOffCB
        MOV     R1,#0x1
        LCALL   ??zllSampleLight_OnOffCB?relay
//  856     zllSampleLight_OnTime = maxOnTime;
        MOV     DPTR,#zllSampleLight_OnTime
        MOV     A,?V0 + 0
        MOVX    @DPTR,A
        INC     DPTR
        MOV     A,?V0 + 1
        LCALL   ?Subroutine9 & 0xFFFF
//  857     zllSampleLight_OffWaitTime = pCmd->offWaitTime;
//  858   }
??CrossCallReturnLabel_23:
        MOV     R0,A
        INC     DPTR
        MOVX    A,@DPTR
        MOV     R1,A
??zllSampleLight_OnOff_OnWithTimedOffCB_3:
        MOV     DPTR,#zllSampleLight_OffWaitTime
        LCALL   ?Subroutine7 & 0xFFFF
//  859 
//  860   if ( ( zllSampleLight_OnTime < 0xFFFF ) && ( zllSampleLight_OffWaitTime < 0xFFFF ) )
??CrossCallReturnLabel_14:
        MOV     DPTR,#zllSampleLight_OnTime
        MOVX    A,@DPTR
        CPL     A
        JNZ     ??zllSampleLight_OnOff_OnWithTimedOffCB_6
        INC     DPTR
        MOVX    A,@DPTR
        CPL     A
??zllSampleLight_OnOff_OnWithTimedOffCB_6:
        JZ      ??zllSampleLight_OnOff_OnWithTimedOffCB_1
        MOV     DPTR,#zllSampleLight_OffWaitTime
        MOVX    A,@DPTR
        CPL     A
        JNZ     ??zllSampleLight_OnOff_OnWithTimedOffCB_7
        INC     DPTR
        MOVX    A,@DPTR
        CPL     A
??zllSampleLight_OnOff_OnWithTimedOffCB_7:
        JZ      ??zllSampleLight_OnOff_OnWithTimedOffCB_1
//  861   {
//  862     osal_start_timerEx( zllSampleLight_TaskID, SAMPLELIGHT_ON_TIMED_OFF_TIMER_EVT, 100 );
        ; Setup parameters for call to function osal_start_timerEx
        MOV     DPTR,#__Constant_64
        LCALL   ?PUSH_XSTACK8_X_FOUR
          CFI CFA_XSP16 add(XSP16, 14)
        MOV     R2,#0x4
        MOV     R3,#0x0
        MOV     DPTR,#zllSampleLight_TaskID
        MOVX    A,@DPTR
        MOV     R1,A
        LCALL   ??osal_start_timerEx?relay
        MOV     A,#0x4
        LCALL   ?DEALLOC_XSTACK8
          CFI CFA_XSP16 add(XSP16, 10)
??zllSampleLight_OnOff_OnWithTimedOffCB_1:
        MOV     R7,#0x2
        LJMP    ?BANKED_LEAVE_XDATA
          CFI EndBlock cfiBlock28
//  863   }
//  864 }

        RSEG BANKED_CODE:CODE:NOROOT(0)
?Subroutine12:
          CFI Block cfiCond29 Using cfiCommon0
          CFI Function zllSampleLight_event_loop
          CFI Conditional ??CrossCallReturnLabel_48
          CFI R6 load(1, XDATA, add(CFA_XSP16, literal(-12)))
          CFI VB load(1, XDATA, add(CFA_XSP16, literal(-11)))
          CFI V0 load(1, XDATA, add(CFA_XSP16, literal(-10)))
          CFI V1 load(1, XDATA, add(CFA_XSP16, literal(-9)))
          CFI V2 load(1, XDATA, add(CFA_XSP16, literal(-8)))
          CFI V3 load(1, XDATA, add(CFA_XSP16, literal(-7)))
          CFI R7 load(1, XDATA, add(CFA_XSP16, literal(-6)))
          CFI ?RET_LOW load(1, XDATA, add(CFA_XSP16, literal(-5)))
          CFI ?RET_HIGH load(1, XDATA, add(CFA_XSP16, literal(-4)))
          CFI ?BRET_EXT load(1, XDATA, add(CFA_XSP16, literal(-3)))
          CFI DPL0 load(1, XDATA, add(CFA_XSP16, literal(-2)))
          CFI DPH0 load(1, XDATA, add(CFA_XSP16, literal(-1)))
          CFI CFA_SP SP+0
          CFI CFA_XSP16 add(XSP16, 14)
          CFI Block cfiCond30 Using cfiCommon0
          CFI (cfiCond30) Function zllSampleLight_event_loop
          CFI (cfiCond30) Conditional ??CrossCallReturnLabel_49
          CFI (cfiCond30) R6 load(1, XDATA, add(CFA_XSP16, literal(-12)))
          CFI (cfiCond30) VB load(1, XDATA, add(CFA_XSP16, literal(-11)))
          CFI (cfiCond30) V0 load(1, XDATA, add(CFA_XSP16, literal(-10)))
          CFI (cfiCond30) V1 load(1, XDATA, add(CFA_XSP16, literal(-9)))
          CFI (cfiCond30) V2 load(1, XDATA, add(CFA_XSP16, literal(-8)))
          CFI (cfiCond30) V3 load(1, XDATA, add(CFA_XSP16, literal(-7)))
          CFI (cfiCond30) R7 load(1, XDATA, add(CFA_XSP16, literal(-6)))
          CFI (cfiCond30) ?RET_LOW load(1, XDATA, add(CFA_XSP16, literal(-5)))
          CFI (cfiCond30) ?RET_HIGH load(1, XDATA, add(CFA_XSP16, literal(-4)))
          CFI (cfiCond30) ?BRET_EXT load(1, XDATA, add(CFA_XSP16, literal(-3)))
          CFI (cfiCond30) DPL0 load(1, XDATA, add(CFA_XSP16, literal(-2)))
          CFI (cfiCond30) DPH0 load(1, XDATA, add(CFA_XSP16, literal(-1)))
          CFI (cfiCond30) CFA_SP SP+0
          CFI (cfiCond30) CFA_XSP16 add(XSP16, 14)
          CFI Block cfiCond31 Using cfiCommon0
          CFI (cfiCond31) Function zllSampleLight_OnOffCB
          CFI (cfiCond31) Conditional ??CrossCallReturnLabel_50
          CFI (cfiCond31) R6 load(1, XDATA, add(CFA_XSP16, literal(-9)))
          CFI (cfiCond31) VB load(1, XDATA, add(CFA_XSP16, literal(-8)))
          CFI (cfiCond31) V0 load(1, XDATA, add(CFA_XSP16, literal(-7)))
          CFI (cfiCond31) R7 load(1, XDATA, add(CFA_XSP16, literal(-6)))
          CFI (cfiCond31) ?RET_LOW load(1, XDATA, add(CFA_XSP16, literal(-5)))
          CFI (cfiCond31) ?RET_HIGH load(1, XDATA, add(CFA_XSP16, literal(-4)))
          CFI (cfiCond31) ?BRET_EXT load(1, XDATA, add(CFA_XSP16, literal(-3)))
          CFI (cfiCond31) DPL0 load(1, XDATA, add(CFA_XSP16, literal(-2)))
          CFI (cfiCond31) DPH0 load(1, XDATA, add(CFA_XSP16, literal(-1)))
          CFI (cfiCond31) CFA_SP SP+0
          CFI (cfiCond31) CFA_XSP16 add(XSP16, 9)
          CFI Block cfiPicker32 Using cfiCommon1
          CFI (cfiPicker32) NoFunction
          CFI (cfiPicker32) Picker
        MOV     DPTR,#zllSampleLight_OnTime
          CFI EndBlock cfiCond29
          CFI EndBlock cfiCond30
          CFI EndBlock cfiCond31
          CFI EndBlock cfiPicker32
        REQUIRE ??Subroutine21_0
        ; // Fall through to label ??Subroutine21_0

        RSEG BANKED_CODE:CODE:NOROOT(0)
??Subroutine21_0:
          CFI Block cfiCond33 Using cfiCommon0
          CFI Function zllSampleLight_event_loop
          CFI Conditional ??CrossCallReturnLabel_42
          CFI R6 load(1, XDATA, add(CFA_XSP16, literal(-12)))
          CFI VB load(1, XDATA, add(CFA_XSP16, literal(-11)))
          CFI V0 load(1, XDATA, add(CFA_XSP16, literal(-10)))
          CFI V1 load(1, XDATA, add(CFA_XSP16, literal(-9)))
          CFI V2 load(1, XDATA, add(CFA_XSP16, literal(-8)))
          CFI V3 load(1, XDATA, add(CFA_XSP16, literal(-7)))
          CFI R7 load(1, XDATA, add(CFA_XSP16, literal(-6)))
          CFI ?RET_LOW load(1, XDATA, add(CFA_XSP16, literal(-5)))
          CFI ?RET_HIGH load(1, XDATA, add(CFA_XSP16, literal(-4)))
          CFI ?BRET_EXT load(1, XDATA, add(CFA_XSP16, literal(-3)))
          CFI DPL0 load(1, XDATA, add(CFA_XSP16, literal(-2)))
          CFI DPH0 load(1, XDATA, add(CFA_XSP16, literal(-1)))
          CFI CFA_SP SP+0
          CFI CFA_XSP16 add(XSP16, 14)
          CFI Block cfiCond34 Using cfiCommon0
          CFI (cfiCond34) Function zllSampleLight_event_loop
          CFI (cfiCond34) Conditional ??CrossCallReturnLabel_43
          CFI (cfiCond34) R6 load(1, XDATA, add(CFA_XSP16, literal(-12)))
          CFI (cfiCond34) VB load(1, XDATA, add(CFA_XSP16, literal(-11)))
          CFI (cfiCond34) V0 load(1, XDATA, add(CFA_XSP16, literal(-10)))
          CFI (cfiCond34) V1 load(1, XDATA, add(CFA_XSP16, literal(-9)))
          CFI (cfiCond34) V2 load(1, XDATA, add(CFA_XSP16, literal(-8)))
          CFI (cfiCond34) V3 load(1, XDATA, add(CFA_XSP16, literal(-7)))
          CFI (cfiCond34) R7 load(1, XDATA, add(CFA_XSP16, literal(-6)))
          CFI (cfiCond34) ?RET_LOW load(1, XDATA, add(CFA_XSP16, literal(-5)))
          CFI (cfiCond34) ?RET_HIGH load(1, XDATA, add(CFA_XSP16, literal(-4)))
          CFI (cfiCond34) ?BRET_EXT load(1, XDATA, add(CFA_XSP16, literal(-3)))
          CFI (cfiCond34) DPL0 load(1, XDATA, add(CFA_XSP16, literal(-2)))
          CFI (cfiCond34) DPH0 load(1, XDATA, add(CFA_XSP16, literal(-1)))
          CFI (cfiCond34) CFA_SP SP+0
          CFI (cfiCond34) CFA_XSP16 add(XSP16, 14)
          CFI Block cfiCond35 Using cfiCommon0
          CFI (cfiCond35) Function zllSampleLight_ProcessIdentifyTimeChange
          CFI (cfiCond35) Conditional ??CrossCallReturnLabel_44
          CFI (cfiCond35) DPL0 Frame(CFA_SP, 4)
          CFI (cfiCond35) DPH0 Frame(CFA_SP, 5)
          CFI (cfiCond35) CFA_SP SP+-5
          CFI Block cfiCond36 Using cfiCommon0
          CFI (cfiCond36) Function zllSampleLight_OnOff_OnWithTimedOffCB
          CFI (cfiCond36) Conditional ??CrossCallReturnLabel_45
          CFI (cfiCond36) R6 load(1, XDATA, add(CFA_XSP16, literal(-10)))
          CFI (cfiCond36) VB load(1, XDATA, add(CFA_XSP16, literal(-9)))
          CFI (cfiCond36) V0 load(1, XDATA, add(CFA_XSP16, literal(-8)))
          CFI (cfiCond36) V1 load(1, XDATA, add(CFA_XSP16, literal(-7)))
          CFI (cfiCond36) R7 load(1, XDATA, add(CFA_XSP16, literal(-6)))
          CFI (cfiCond36) ?RET_LOW load(1, XDATA, add(CFA_XSP16, literal(-5)))
          CFI (cfiCond36) ?RET_HIGH load(1, XDATA, add(CFA_XSP16, literal(-4)))
          CFI (cfiCond36) ?BRET_EXT load(1, XDATA, add(CFA_XSP16, literal(-3)))
          CFI (cfiCond36) DPL0 load(1, XDATA, add(CFA_XSP16, literal(-2)))
          CFI (cfiCond36) DPH0 load(1, XDATA, add(CFA_XSP16, literal(-1)))
          CFI (cfiCond36) CFA_SP SP+0
          CFI (cfiCond36) CFA_XSP16 add(XSP16, 10)
          CFI Block cfiCond37 Using cfiCommon0
          CFI (cfiCond37) Function zllSampleLight_SceneRecallCB
          CFI (cfiCond37) Conditional ??CrossCallReturnLabel_46
          CFI (cfiCond37) R6 load(1, XDATA, add(CFA_XSP16, literal(-13)))
          CFI (cfiCond37) VB load(1, XDATA, add(CFA_XSP16, literal(-12)))
          CFI (cfiCond37) V0 load(1, XDATA, add(CFA_XSP16, literal(-11)))
          CFI (cfiCond37) V1 load(1, XDATA, add(CFA_XSP16, literal(-10)))
          CFI (cfiCond37) V2 load(1, XDATA, add(CFA_XSP16, literal(-9)))
          CFI (cfiCond37) V3 load(1, XDATA, add(CFA_XSP16, literal(-8)))
          CFI (cfiCond37) V4 load(1, XDATA, add(CFA_XSP16, literal(-7)))
          CFI (cfiCond37) R7 load(1, XDATA, add(CFA_XSP16, literal(-6)))
          CFI (cfiCond37) ?RET_LOW load(1, XDATA, add(CFA_XSP16, literal(-5)))
          CFI (cfiCond37) ?RET_HIGH load(1, XDATA, add(CFA_XSP16, literal(-4)))
          CFI (cfiCond37) ?BRET_EXT load(1, XDATA, add(CFA_XSP16, literal(-3)))
          CFI (cfiCond37) DPL0 load(1, XDATA, add(CFA_XSP16, literal(-2)))
          CFI (cfiCond37) DPH0 load(1, XDATA, add(CFA_XSP16, literal(-1)))
          CFI (cfiCond37) CFA_SP SP+0
          CFI (cfiCond37) CFA_XSP16 add(XSP16, 37)
          CFI Block cfiCond38 Using cfiCommon0
          CFI (cfiCond38) Function zllSampleLight_SceneRecallCB
          CFI (cfiCond38) Conditional ??CrossCallReturnLabel_47
          CFI (cfiCond38) R6 load(1, XDATA, add(CFA_XSP16, literal(-13)))
          CFI (cfiCond38) VB load(1, XDATA, add(CFA_XSP16, literal(-12)))
          CFI (cfiCond38) V0 load(1, XDATA, add(CFA_XSP16, literal(-11)))
          CFI (cfiCond38) V1 load(1, XDATA, add(CFA_XSP16, literal(-10)))
          CFI (cfiCond38) V2 load(1, XDATA, add(CFA_XSP16, literal(-9)))
          CFI (cfiCond38) V3 load(1, XDATA, add(CFA_XSP16, literal(-8)))
          CFI (cfiCond38) V4 load(1, XDATA, add(CFA_XSP16, literal(-7)))
          CFI (cfiCond38) R7 load(1, XDATA, add(CFA_XSP16, literal(-6)))
          CFI (cfiCond38) ?RET_LOW load(1, XDATA, add(CFA_XSP16, literal(-5)))
          CFI (cfiCond38) ?RET_HIGH load(1, XDATA, add(CFA_XSP16, literal(-4)))
          CFI (cfiCond38) ?BRET_EXT load(1, XDATA, add(CFA_XSP16, literal(-3)))
          CFI (cfiCond38) DPL0 load(1, XDATA, add(CFA_XSP16, literal(-2)))
          CFI (cfiCond38) DPH0 load(1, XDATA, add(CFA_XSP16, literal(-1)))
          CFI (cfiCond38) CFA_SP SP+0
          CFI (cfiCond38) CFA_XSP16 add(XSP16, 37)
          CFI Block cfiCond39 Using cfiCommon0
          CFI (cfiCond39) Function zllSampleLight_event_loop
          CFI (cfiCond39) Conditional ??CrossCallReturnLabel_48
          CFI (cfiCond39) R6 load(1, XDATA, add(CFA_XSP16, literal(-12)))
          CFI (cfiCond39) VB load(1, XDATA, add(CFA_XSP16, literal(-11)))
          CFI (cfiCond39) V0 load(1, XDATA, add(CFA_XSP16, literal(-10)))
          CFI (cfiCond39) V1 load(1, XDATA, add(CFA_XSP16, literal(-9)))
          CFI (cfiCond39) V2 load(1, XDATA, add(CFA_XSP16, literal(-8)))
          CFI (cfiCond39) V3 load(1, XDATA, add(CFA_XSP16, literal(-7)))
          CFI (cfiCond39) R7 load(1, XDATA, add(CFA_XSP16, literal(-6)))
          CFI (cfiCond39) ?RET_LOW load(1, XDATA, add(CFA_XSP16, literal(-5)))
          CFI (cfiCond39) ?RET_HIGH load(1, XDATA, add(CFA_XSP16, literal(-4)))
          CFI (cfiCond39) ?BRET_EXT load(1, XDATA, add(CFA_XSP16, literal(-3)))
          CFI (cfiCond39) DPL0 load(1, XDATA, add(CFA_XSP16, literal(-2)))
          CFI (cfiCond39) DPH0 load(1, XDATA, add(CFA_XSP16, literal(-1)))
          CFI (cfiCond39) CFA_SP SP+0
          CFI (cfiCond39) CFA_XSP16 add(XSP16, 14)
          CFI Block cfiCond40 Using cfiCommon0
          CFI (cfiCond40) Function zllSampleLight_event_loop
          CFI (cfiCond40) Conditional ??CrossCallReturnLabel_49
          CFI (cfiCond40) R6 load(1, XDATA, add(CFA_XSP16, literal(-12)))
          CFI (cfiCond40) VB load(1, XDATA, add(CFA_XSP16, literal(-11)))
          CFI (cfiCond40) V0 load(1, XDATA, add(CFA_XSP16, literal(-10)))
          CFI (cfiCond40) V1 load(1, XDATA, add(CFA_XSP16, literal(-9)))
          CFI (cfiCond40) V2 load(1, XDATA, add(CFA_XSP16, literal(-8)))
          CFI (cfiCond40) V3 load(1, XDATA, add(CFA_XSP16, literal(-7)))
          CFI (cfiCond40) R7 load(1, XDATA, add(CFA_XSP16, literal(-6)))
          CFI (cfiCond40) ?RET_LOW load(1, XDATA, add(CFA_XSP16, literal(-5)))
          CFI (cfiCond40) ?RET_HIGH load(1, XDATA, add(CFA_XSP16, literal(-4)))
          CFI (cfiCond40) ?BRET_EXT load(1, XDATA, add(CFA_XSP16, literal(-3)))
          CFI (cfiCond40) DPL0 load(1, XDATA, add(CFA_XSP16, literal(-2)))
          CFI (cfiCond40) DPH0 load(1, XDATA, add(CFA_XSP16, literal(-1)))
          CFI (cfiCond40) CFA_SP SP+0
          CFI (cfiCond40) CFA_XSP16 add(XSP16, 14)
          CFI Block cfiCond41 Using cfiCommon0
          CFI (cfiCond41) Function zllSampleLight_OnOffCB
          CFI (cfiCond41) Conditional ??CrossCallReturnLabel_50
          CFI (cfiCond41) R6 load(1, XDATA, add(CFA_XSP16, literal(-9)))
          CFI (cfiCond41) VB load(1, XDATA, add(CFA_XSP16, literal(-8)))
          CFI (cfiCond41) V0 load(1, XDATA, add(CFA_XSP16, literal(-7)))
          CFI (cfiCond41) R7 load(1, XDATA, add(CFA_XSP16, literal(-6)))
          CFI (cfiCond41) ?RET_LOW load(1, XDATA, add(CFA_XSP16, literal(-5)))
          CFI (cfiCond41) ?RET_HIGH load(1, XDATA, add(CFA_XSP16, literal(-4)))
          CFI (cfiCond41) ?BRET_EXT load(1, XDATA, add(CFA_XSP16, literal(-3)))
          CFI (cfiCond41) DPL0 load(1, XDATA, add(CFA_XSP16, literal(-2)))
          CFI (cfiCond41) DPH0 load(1, XDATA, add(CFA_XSP16, literal(-1)))
          CFI (cfiCond41) CFA_SP SP+0
          CFI (cfiCond41) CFA_XSP16 add(XSP16, 9)
          CFI Block cfiPicker42 Using cfiCommon1
          CFI (cfiPicker42) NoFunction
          CFI (cfiPicker42) Picker
        MOVX    A,@DPTR
        MOV     R0,A
        INC     DPTR
        MOVX    A,@DPTR
        MOV     R1,A
        MOV     A,R0
        ORL     A,R1
        RET
          CFI EndBlock cfiCond33
          CFI EndBlock cfiCond34
          CFI EndBlock cfiCond35
          CFI EndBlock cfiCond36
          CFI EndBlock cfiCond37
          CFI EndBlock cfiCond38
          CFI EndBlock cfiCond39
          CFI EndBlock cfiCond40
          CFI EndBlock cfiCond41
          CFI EndBlock cfiPicker42

        RSEG BANKED_CODE:CODE:NOROOT(0)
?Subroutine7:
          CFI Block cfiCond43 Using cfiCommon0
          CFI Function zllSampleLight_IdentifyCB
          CFI Conditional ??CrossCallReturnLabel_13
          CFI DPL0 Frame(CFA_SP, 4)
          CFI DPH0 Frame(CFA_SP, 5)
          CFI CFA_SP SP+-5
          CFI Block cfiCond44 Using cfiCommon0
          CFI (cfiCond44) Function zllSampleLight_OnOff_OnWithTimedOffCB
          CFI (cfiCond44) Conditional ??CrossCallReturnLabel_14
          CFI (cfiCond44) R6 load(1, XDATA, add(CFA_XSP16, literal(-10)))
          CFI (cfiCond44) VB load(1, XDATA, add(CFA_XSP16, literal(-9)))
          CFI (cfiCond44) V0 load(1, XDATA, add(CFA_XSP16, literal(-8)))
          CFI (cfiCond44) V1 load(1, XDATA, add(CFA_XSP16, literal(-7)))
          CFI (cfiCond44) R7 load(1, XDATA, add(CFA_XSP16, literal(-6)))
          CFI (cfiCond44) ?RET_LOW load(1, XDATA, add(CFA_XSP16, literal(-5)))
          CFI (cfiCond44) ?RET_HIGH load(1, XDATA, add(CFA_XSP16, literal(-4)))
          CFI (cfiCond44) ?BRET_EXT load(1, XDATA, add(CFA_XSP16, literal(-3)))
          CFI (cfiCond44) DPL0 load(1, XDATA, add(CFA_XSP16, literal(-2)))
          CFI (cfiCond44) DPH0 load(1, XDATA, add(CFA_XSP16, literal(-1)))
          CFI (cfiCond44) CFA_SP SP+0
          CFI (cfiCond44) CFA_XSP16 add(XSP16, 10)
          CFI Block cfiCond45 Using cfiCommon0
          CFI (cfiCond45) Function zllSampleLight_SceneRecallCB
          CFI (cfiCond45) Conditional ??CrossCallReturnLabel_15
          CFI (cfiCond45) R6 load(1, XDATA, add(CFA_XSP16, literal(-13)))
          CFI (cfiCond45) VB load(1, XDATA, add(CFA_XSP16, literal(-12)))
          CFI (cfiCond45) V0 load(1, XDATA, add(CFA_XSP16, literal(-11)))
          CFI (cfiCond45) V1 load(1, XDATA, add(CFA_XSP16, literal(-10)))
          CFI (cfiCond45) V2 load(1, XDATA, add(CFA_XSP16, literal(-9)))
          CFI (cfiCond45) V3 load(1, XDATA, add(CFA_XSP16, literal(-8)))
          CFI (cfiCond45) V4 load(1, XDATA, add(CFA_XSP16, literal(-7)))
          CFI (cfiCond45) R7 load(1, XDATA, add(CFA_XSP16, literal(-6)))
          CFI (cfiCond45) ?RET_LOW load(1, XDATA, add(CFA_XSP16, literal(-5)))
          CFI (cfiCond45) ?RET_HIGH load(1, XDATA, add(CFA_XSP16, literal(-4)))
          CFI (cfiCond45) ?BRET_EXT load(1, XDATA, add(CFA_XSP16, literal(-3)))
          CFI (cfiCond45) DPL0 load(1, XDATA, add(CFA_XSP16, literal(-2)))
          CFI (cfiCond45) DPH0 load(1, XDATA, add(CFA_XSP16, literal(-1)))
          CFI (cfiCond45) CFA_SP SP+0
          CFI (cfiCond45) CFA_XSP16 add(XSP16, 37)
          CFI Block cfiCond46 Using cfiCommon0
          CFI (cfiCond46) Function zllSampleLight_SceneRecallCB
          CFI (cfiCond46) Conditional ??CrossCallReturnLabel_16
          CFI (cfiCond46) R6 load(1, XDATA, add(CFA_XSP16, literal(-13)))
          CFI (cfiCond46) VB load(1, XDATA, add(CFA_XSP16, literal(-12)))
          CFI (cfiCond46) V0 load(1, XDATA, add(CFA_XSP16, literal(-11)))
          CFI (cfiCond46) V1 load(1, XDATA, add(CFA_XSP16, literal(-10)))
          CFI (cfiCond46) V2 load(1, XDATA, add(CFA_XSP16, literal(-9)))
          CFI (cfiCond46) V3 load(1, XDATA, add(CFA_XSP16, literal(-8)))
          CFI (cfiCond46) V4 load(1, XDATA, add(CFA_XSP16, literal(-7)))
          CFI (cfiCond46) R7 load(1, XDATA, add(CFA_XSP16, literal(-6)))
          CFI (cfiCond46) ?RET_LOW load(1, XDATA, add(CFA_XSP16, literal(-5)))
          CFI (cfiCond46) ?RET_HIGH load(1, XDATA, add(CFA_XSP16, literal(-4)))
          CFI (cfiCond46) ?BRET_EXT load(1, XDATA, add(CFA_XSP16, literal(-3)))
          CFI (cfiCond46) DPL0 load(1, XDATA, add(CFA_XSP16, literal(-2)))
          CFI (cfiCond46) DPH0 load(1, XDATA, add(CFA_XSP16, literal(-1)))
          CFI (cfiCond46) CFA_SP SP+0
          CFI (cfiCond46) CFA_XSP16 add(XSP16, 37)
          CFI Block cfiCond47 Using cfiCommon0
          CFI (cfiCond47) Function zllSampleLight_SceneRecallCB
          CFI (cfiCond47) Conditional ??CrossCallReturnLabel_17
          CFI (cfiCond47) R6 load(1, XDATA, add(CFA_XSP16, literal(-13)))
          CFI (cfiCond47) VB load(1, XDATA, add(CFA_XSP16, literal(-12)))
          CFI (cfiCond47) V0 load(1, XDATA, add(CFA_XSP16, literal(-11)))
          CFI (cfiCond47) V1 load(1, XDATA, add(CFA_XSP16, literal(-10)))
          CFI (cfiCond47) V2 load(1, XDATA, add(CFA_XSP16, literal(-9)))
          CFI (cfiCond47) V3 load(1, XDATA, add(CFA_XSP16, literal(-8)))
          CFI (cfiCond47) V4 load(1, XDATA, add(CFA_XSP16, literal(-7)))
          CFI (cfiCond47) R7 load(1, XDATA, add(CFA_XSP16, literal(-6)))
          CFI (cfiCond47) ?RET_LOW load(1, XDATA, add(CFA_XSP16, literal(-5)))
          CFI (cfiCond47) ?RET_HIGH load(1, XDATA, add(CFA_XSP16, literal(-4)))
          CFI (cfiCond47) ?BRET_EXT load(1, XDATA, add(CFA_XSP16, literal(-3)))
          CFI (cfiCond47) DPL0 load(1, XDATA, add(CFA_XSP16, literal(-2)))
          CFI (cfiCond47) DPH0 load(1, XDATA, add(CFA_XSP16, literal(-1)))
          CFI (cfiCond47) CFA_SP SP+0
          CFI (cfiCond47) CFA_XSP16 add(XSP16, 37)
          CFI Block cfiCond48 Using cfiCommon0
          CFI (cfiCond48) Function zllSampleLight_SceneRecallCB
          CFI (cfiCond48) Conditional ??CrossCallReturnLabel_18
          CFI (cfiCond48) R6 load(1, XDATA, add(CFA_XSP16, literal(-13)))
          CFI (cfiCond48) VB load(1, XDATA, add(CFA_XSP16, literal(-12)))
          CFI (cfiCond48) V0 load(1, XDATA, add(CFA_XSP16, literal(-11)))
          CFI (cfiCond48) V1 load(1, XDATA, add(CFA_XSP16, literal(-10)))
          CFI (cfiCond48) V2 load(1, XDATA, add(CFA_XSP16, literal(-9)))
          CFI (cfiCond48) V3 load(1, XDATA, add(CFA_XSP16, literal(-8)))
          CFI (cfiCond48) V4 load(1, XDATA, add(CFA_XSP16, literal(-7)))
          CFI (cfiCond48) R7 load(1, XDATA, add(CFA_XSP16, literal(-6)))
          CFI (cfiCond48) ?RET_LOW load(1, XDATA, add(CFA_XSP16, literal(-5)))
          CFI (cfiCond48) ?RET_HIGH load(1, XDATA, add(CFA_XSP16, literal(-4)))
          CFI (cfiCond48) ?BRET_EXT load(1, XDATA, add(CFA_XSP16, literal(-3)))
          CFI (cfiCond48) DPL0 load(1, XDATA, add(CFA_XSP16, literal(-2)))
          CFI (cfiCond48) DPH0 load(1, XDATA, add(CFA_XSP16, literal(-1)))
          CFI (cfiCond48) CFA_SP SP+0
          CFI (cfiCond48) CFA_XSP16 add(XSP16, 37)
          CFI Block cfiCond49 Using cfiCommon0
          CFI (cfiCond49) Function zllSampleLight_SceneRecallCB
          CFI (cfiCond49) Conditional ??CrossCallReturnLabel_19
          CFI (cfiCond49) R6 load(1, XDATA, add(CFA_XSP16, literal(-13)))
          CFI (cfiCond49) VB load(1, XDATA, add(CFA_XSP16, literal(-12)))
          CFI (cfiCond49) V0 load(1, XDATA, add(CFA_XSP16, literal(-11)))
          CFI (cfiCond49) V1 load(1, XDATA, add(CFA_XSP16, literal(-10)))
          CFI (cfiCond49) V2 load(1, XDATA, add(CFA_XSP16, literal(-9)))
          CFI (cfiCond49) V3 load(1, XDATA, add(CFA_XSP16, literal(-8)))
          CFI (cfiCond49) V4 load(1, XDATA, add(CFA_XSP16, literal(-7)))
          CFI (cfiCond49) R7 load(1, XDATA, add(CFA_XSP16, literal(-6)))
          CFI (cfiCond49) ?RET_LOW load(1, XDATA, add(CFA_XSP16, literal(-5)))
          CFI (cfiCond49) ?RET_HIGH load(1, XDATA, add(CFA_XSP16, literal(-4)))
          CFI (cfiCond49) ?BRET_EXT load(1, XDATA, add(CFA_XSP16, literal(-3)))
          CFI (cfiCond49) DPL0 load(1, XDATA, add(CFA_XSP16, literal(-2)))
          CFI (cfiCond49) DPH0 load(1, XDATA, add(CFA_XSP16, literal(-1)))
          CFI (cfiCond49) CFA_SP SP+0
          CFI (cfiCond49) CFA_XSP16 add(XSP16, 37)
          CFI Block cfiCond50 Using cfiCommon0
          CFI (cfiCond50) Function zllSampleLight_SceneRecallCB
          CFI (cfiCond50) Conditional ??CrossCallReturnLabel_20
          CFI (cfiCond50) R6 load(1, XDATA, add(CFA_XSP16, literal(-13)))
          CFI (cfiCond50) VB load(1, XDATA, add(CFA_XSP16, literal(-12)))
          CFI (cfiCond50) V0 load(1, XDATA, add(CFA_XSP16, literal(-11)))
          CFI (cfiCond50) V1 load(1, XDATA, add(CFA_XSP16, literal(-10)))
          CFI (cfiCond50) V2 load(1, XDATA, add(CFA_XSP16, literal(-9)))
          CFI (cfiCond50) V3 load(1, XDATA, add(CFA_XSP16, literal(-8)))
          CFI (cfiCond50) V4 load(1, XDATA, add(CFA_XSP16, literal(-7)))
          CFI (cfiCond50) R7 load(1, XDATA, add(CFA_XSP16, literal(-6)))
          CFI (cfiCond50) ?RET_LOW load(1, XDATA, add(CFA_XSP16, literal(-5)))
          CFI (cfiCond50) ?RET_HIGH load(1, XDATA, add(CFA_XSP16, literal(-4)))
          CFI (cfiCond50) ?BRET_EXT load(1, XDATA, add(CFA_XSP16, literal(-3)))
          CFI (cfiCond50) DPL0 load(1, XDATA, add(CFA_XSP16, literal(-2)))
          CFI (cfiCond50) DPH0 load(1, XDATA, add(CFA_XSP16, literal(-1)))
          CFI (cfiCond50) CFA_SP SP+0
          CFI (cfiCond50) CFA_XSP16 add(XSP16, 37)
          CFI Block cfiPicker51 Using cfiCommon1
          CFI (cfiPicker51) NoFunction
          CFI (cfiPicker51) Picker
        MOV     A,R0
        MOVX    @DPTR,A
        INC     DPTR
        MOV     A,R1
        MOVX    @DPTR,A
        RET
          CFI EndBlock cfiCond43
          CFI EndBlock cfiCond44
          CFI EndBlock cfiCond45
          CFI EndBlock cfiCond46
          CFI EndBlock cfiCond47
          CFI EndBlock cfiCond48
          CFI EndBlock cfiCond49
          CFI EndBlock cfiCond50
          CFI EndBlock cfiPicker51
//  865 
//  866 #define COLOR_SCN_X_Y_ATTRS_SIZE     ( sizeof(zclColor_CurrentX) + sizeof(zclColor_CurrentY) )
//  867 #define COLOR_SCN_HUE_SAT_ATTRS_SIZE ( sizeof(zclColor_EnhancedCurrentHue) + sizeof(zclColor_CurrentSaturation) )
//  868 #define COLOR_SCN_LOOP_ATTRS_SIZE    ( sizeof(zclColor_ColorLoopActive) + sizeof(zclColor_ColorLoopDirection) + sizeof(zclColor_ColorLoopTime) )
//  869 /*********************************************************************
//  870  * @fn      zllSampleLight_SceneStoreCB
//  871  *
//  872  * @brief   Callback from the ZCL General Cluster Library when
//  873  *          it received a Scene Store Request Command for
//  874  *          this application.
//  875  *          Stores current attributes in the scene's extension fields.
//  876  *          Extension field sets =
//  877  *          {{Cluster ID 1, length 1, {extension field set 1}}, {{Cluster ID 2,
//  878  *            length 2, {extension field set 2}}, ...}
//  879  *
//  880  * @param   pReq - pointer to a request holding scene data
//  881  *
//  882  * @return  TRUE if extField is filled out, FALSE if not filled
//  883  *          and there is no need to save the scene
//  884  */

        RSEG BANKED_CODE:CODE:NOROOT(0)
//  885 static uint8 zllSampleLight_SceneStoreCB( zclSceneReq_t *pReq )
zllSampleLight_SceneStoreCB:
          CFI Block cfiBlock52 Using cfiCommon0
          CFI Function zllSampleLight_SceneStoreCB
        CODE
//  886 {
        FUNCALL zllSampleLight_SceneStoreCB, osal_memset
        LOCFRAME ISTACK, 0, STACK
        LOCFRAME PSTACK, 0, STACK
        LOCFRAME XSTACK, 9, STACK
        LOCFRAME IOVERLAY, 0, STATIC
        LOCFRAME DOVERLAY, 0, STATIC
        ARGFRAME ISTACK, 0, STACK
        ARGFRAME PSTACK, 0, STACK
        ARGFRAME XSTACK, 9, STACK
        ARGFRAME IOVERLAY, 0, STATIC
        ARGFRAME DOVERLAY, 0, STATIC
        MOV     A,#-0x9
        LCALL   ?BANKED_ENTER_XDATA
          CFI DPH0 load(1, XDATA, add(CFA_XSP16, literal(-1)))
          CFI DPL0 load(1, XDATA, add(CFA_XSP16, literal(-2)))
          CFI ?BRET_EXT load(1, XDATA, add(CFA_XSP16, literal(-3)))
          CFI ?RET_HIGH load(1, XDATA, add(CFA_XSP16, literal(-4)))
          CFI ?RET_LOW load(1, XDATA, add(CFA_XSP16, literal(-5)))
          CFI R7 load(1, XDATA, add(CFA_XSP16, literal(-6)))
          CFI V0 load(1, XDATA, add(CFA_XSP16, literal(-7)))
          CFI VB load(1, XDATA, add(CFA_XSP16, literal(-8)))
          CFI R6 load(1, XDATA, add(CFA_XSP16, literal(-9)))
          CFI CFA_SP SP+0
          CFI CFA_XSP16 add(XSP16, 9)
        ; Saved register size: 9
        ; Auto size: 0
//  887   uint8 *pExt;
//  888 
//  889   pReq->scene->extLen = SAMPLELIGHT_SCENE_EXT_FIELD_SIZE;
        MOV     A,R2
        ADD     A,#0x2
        MOV     R0,A
        MOV     A,R3
        ADDC    A,#0x0
        MOV     R1,A
        MOV     DPL,R0
        MOV     DPH,R1
        MOVX    A,@DPTR
        MOV     R2,A
        INC     DPTR
        MOVX    A,@DPTR
        XCH     A,R2
        ADD     A,#0x17
        MOV     DPL,A
        MOV     A,R2
        ADDC    A,#0x0
        MOV     DPH,A
        MOV     A,#0x16
        MOVX    @DPTR,A
//  890   pExt = pReq->scene->extField;
        MOV     DPL,R0
        MOV     DPH,R1
        LCALL   ?Subroutine16 & 0xFFFF
??CrossCallReturnLabel_33:
        MOV     R7,A
//  891 
//  892   // Build an extension field for On/Off cluster
//  893   *pExt++ = LO_UINT16( ZCL_CLUSTER_ID_GEN_ON_OFF );
        MOV     DPL,R6
        MOV     DPH,R7
        MOV     A,#0x6
        LCALL   ?Subroutine5 & 0xFFFF
//  894   *pExt++ = HI_UINT16( ZCL_CLUSTER_ID_GEN_ON_OFF );
//  895   *pExt++ = sizeof(zllSampleLight_OnOff); // length
//  896 
//  897   // Store the value of onOff attribute
//  898   *pExt++ = zllSampleLight_OnOff;
??CrossCallReturnLabel_9:
        MOV     DPTR,#zllSampleLight_OnOff
        LCALL   ?Subroutine14 & 0xFFFF
??CrossCallReturnLabel_30:
        INC     DPTR
//  899 
//  900 #ifdef ZCL_LEVEL_CTRL
//  901   // Build an extension field for Level Control cluster
//  902   *pExt++ = LO_UINT16( ZCL_CLUSTER_ID_GEN_LEVEL_CONTROL );
        MOV     A,#0x8
        LCALL   ?Subroutine5 & 0xFFFF
//  903   *pExt++ = HI_UINT16( ZCL_CLUSTER_ID_GEN_LEVEL_CONTROL );
//  904   *pExt++ = sizeof(zclLevel_CurrentLevel); // length
//  905 
//  906   // Store the value of currentLevel attribute
//  907   *pExt++ = zclLevel_CurrentLevel;
??CrossCallReturnLabel_10:
        MOV     DPTR,#zclLevel_CurrentLevel
        LCALL   ?Subroutine14 & 0xFFFF
??CrossCallReturnLabel_31:
        INC     DPTR
//  908 #endif //ZCL_LEVEL_CTRL
//  909 
//  910 #ifdef ZCL_COLOR_CTRL
//  911   // Build an extension field for Color Control cluster
//  912   *pExt++ = LO_UINT16( ZCL_CLUSTER_ID_LIGHTING_COLOR_CONTROL );
        CLR     A
        MOVX    @DPTR,A
        INC     DPTR
//  913   *pExt++ = HI_UINT16( ZCL_CLUSTER_ID_LIGHTING_COLOR_CONTROL );
        MOV     A,#0x3
        MOVX    @DPTR,A
        INC     DPTR
//  914   *pExt++ = COLOR_SCN_X_Y_ATTRS_SIZE + COLOR_SCN_HUE_SAT_ATTRS_SIZE + COLOR_SCN_LOOP_ATTRS_SIZE; // length
        MOV     A,#0xb
        MOVX    @DPTR,A
        INC     DPTR
        MOV     R6,DPL
        MOV     R7,DPH
//  915 
//  916   // Restored color mode is determined by whether stored currentX, currentY values are 0.
//  917   if ( zclColor_ColorMode == COLOR_MODE_CURRENT_X_Y )
        MOV     DPTR,#zclColor_ColorMode
        MOVX    A,@DPTR
        XRL     A,#0x1
        JNZ     ??zllSampleLight_SceneStoreCB_0
//  918   {
//  919     *pExt++ = LO_UINT16( zclColor_CurrentX );
        MOV     DPTR,#zclColor_CurrentX
        LCALL   ?Subroutine3 & 0xFFFF
//  920     *pExt++ = HI_UINT16( zclColor_CurrentX );
??CrossCallReturnLabel_0:
        MOV     DPTR,#zclColor_CurrentX + 1
        LCALL   ?Subroutine3 & 0xFFFF
//  921     *pExt++ = LO_UINT16( zclColor_CurrentY );
??CrossCallReturnLabel_1:
        MOV     DPTR,#zclColor_CurrentY
        LCALL   ?Subroutine3 & 0xFFFF
//  922     *pExt++ = HI_UINT16( zclColor_CurrentY );
??CrossCallReturnLabel_2:
        MOV     DPTR,#zclColor_CurrentY + 1
        SJMP    ??zllSampleLight_SceneStoreCB_1
//  923     pExt += COLOR_SCN_HUE_SAT_ATTRS_SIZE + COLOR_SCN_LOOP_ATTRS_SIZE; // ignore other parameters
//  924   }
//  925   else
//  926   {
//  927     // nullify currentX and currentY to mark hue/sat color mode
//  928     osal_memset( pExt, 0x00, COLOR_SCN_X_Y_ATTRS_SIZE );
??zllSampleLight_SceneStoreCB_0:
        ; Setup parameters for call to function osal_memset
        MOV     R4,#0x4
        MOV     R5,#0x0
        MOV     R1,#0x0
        MOV     A,R6
        MOV     R2,A
        MOV     A,R7
        MOV     R3,A
        LCALL   ??osal_memset?relay
//  929     pExt += COLOR_SCN_X_Y_ATTRS_SIZE;
        MOV     A,R6
        ADD     A,#0x4
        MOV     R6,A
        MOV     A,R7
        ADDC    A,#0x0
        MOV     R7,A
//  930     *pExt++ = LO_UINT16( zclColor_EnhancedCurrentHue );
        MOV     DPTR,#zclColor_EnhancedCurrentHue
        LCALL   ?Subroutine3 & 0xFFFF
//  931     *pExt++ = HI_UINT16( zclColor_EnhancedCurrentHue );
??CrossCallReturnLabel_3:
        MOV     DPTR,#zclColor_EnhancedCurrentHue + 1
        LCALL   ?Subroutine3 & 0xFFFF
//  932     *pExt++ = zclColor_CurrentSaturation;
??CrossCallReturnLabel_4:
        MOV     DPTR,#zclColor_CurrentSaturation
        LCALL   ?Subroutine3 & 0xFFFF
//  933     *pExt++ = zclColor_ColorLoopActive;
??CrossCallReturnLabel_5:
        MOV     DPTR,#zclColor_ColorLoopActive
        LCALL   ?Subroutine3 & 0xFFFF
//  934     *pExt++ = zclColor_ColorLoopDirection;
??CrossCallReturnLabel_6:
        MOV     DPTR,#zclColor_ColorLoopDirection
        LCALL   ?Subroutine3 & 0xFFFF
//  935     *pExt++ = LO_UINT16( zclColor_ColorLoopTime );
??CrossCallReturnLabel_7:
        MOV     DPTR,#zclColor_ColorLoopTime
        LCALL   ?Subroutine3 & 0xFFFF
//  936     *pExt++ = HI_UINT16( zclColor_ColorLoopTime );
??CrossCallReturnLabel_8:
        MOV     DPTR,#zclColor_ColorLoopTime + 1
//  937   }
??zllSampleLight_SceneStoreCB_1:
        LCALL   ?Subroutine14 & 0xFFFF
//  938 #endif //ZCL_COLOR_CTRL
//  939 
//  940   // Add more clusters here
//  941 
//  942   return ( TRUE );
??CrossCallReturnLabel_32:
        MOV     R1,#0x1
        LJMP    ?Subroutine0 & 0xFFFF
          CFI EndBlock cfiBlock52
//  943 }

        RSEG BANKED_CODE:CODE:NOROOT(0)
?Subroutine14:
          CFI Block cfiCond53 Using cfiCommon0
          CFI Function zllSampleLight_SceneStoreCB
          CFI Conditional ??CrossCallReturnLabel_30
          CFI R6 load(1, XDATA, add(CFA_XSP16, literal(-9)))
          CFI VB load(1, XDATA, add(CFA_XSP16, literal(-8)))
          CFI V0 load(1, XDATA, add(CFA_XSP16, literal(-7)))
          CFI R7 load(1, XDATA, add(CFA_XSP16, literal(-6)))
          CFI ?RET_LOW load(1, XDATA, add(CFA_XSP16, literal(-5)))
          CFI ?RET_HIGH load(1, XDATA, add(CFA_XSP16, literal(-4)))
          CFI ?BRET_EXT load(1, XDATA, add(CFA_XSP16, literal(-3)))
          CFI DPL0 load(1, XDATA, add(CFA_XSP16, literal(-2)))
          CFI DPH0 load(1, XDATA, add(CFA_XSP16, literal(-1)))
          CFI CFA_SP SP+0
          CFI CFA_XSP16 add(XSP16, 9)
          CFI Block cfiCond54 Using cfiCommon0
          CFI (cfiCond54) Function zllSampleLight_SceneStoreCB
          CFI (cfiCond54) Conditional ??CrossCallReturnLabel_31
          CFI (cfiCond54) R6 load(1, XDATA, add(CFA_XSP16, literal(-9)))
          CFI (cfiCond54) VB load(1, XDATA, add(CFA_XSP16, literal(-8)))
          CFI (cfiCond54) V0 load(1, XDATA, add(CFA_XSP16, literal(-7)))
          CFI (cfiCond54) R7 load(1, XDATA, add(CFA_XSP16, literal(-6)))
          CFI (cfiCond54) ?RET_LOW load(1, XDATA, add(CFA_XSP16, literal(-5)))
          CFI (cfiCond54) ?RET_HIGH load(1, XDATA, add(CFA_XSP16, literal(-4)))
          CFI (cfiCond54) ?BRET_EXT load(1, XDATA, add(CFA_XSP16, literal(-3)))
          CFI (cfiCond54) DPL0 load(1, XDATA, add(CFA_XSP16, literal(-2)))
          CFI (cfiCond54) DPH0 load(1, XDATA, add(CFA_XSP16, literal(-1)))
          CFI (cfiCond54) CFA_SP SP+0
          CFI (cfiCond54) CFA_XSP16 add(XSP16, 9)
          CFI Block cfiCond55 Using cfiCommon0
          CFI (cfiCond55) Function zllSampleLight_SceneStoreCB
          CFI (cfiCond55) Conditional ??CrossCallReturnLabel_32
          CFI (cfiCond55) R6 load(1, XDATA, add(CFA_XSP16, literal(-9)))
          CFI (cfiCond55) VB load(1, XDATA, add(CFA_XSP16, literal(-8)))
          CFI (cfiCond55) V0 load(1, XDATA, add(CFA_XSP16, literal(-7)))
          CFI (cfiCond55) R7 load(1, XDATA, add(CFA_XSP16, literal(-6)))
          CFI (cfiCond55) ?RET_LOW load(1, XDATA, add(CFA_XSP16, literal(-5)))
          CFI (cfiCond55) ?RET_HIGH load(1, XDATA, add(CFA_XSP16, literal(-4)))
          CFI (cfiCond55) ?BRET_EXT load(1, XDATA, add(CFA_XSP16, literal(-3)))
          CFI (cfiCond55) DPL0 load(1, XDATA, add(CFA_XSP16, literal(-2)))
          CFI (cfiCond55) DPH0 load(1, XDATA, add(CFA_XSP16, literal(-1)))
          CFI (cfiCond55) CFA_SP SP+0
          CFI (cfiCond55) CFA_XSP16 add(XSP16, 9)
          CFI Block cfiPicker56 Using cfiCommon1
          CFI (cfiPicker56) NoFunction
          CFI (cfiPicker56) Picker
        MOVX    A,@DPTR
        MOV     DPL,R6
        MOV     DPH,R7
        MOVX    @DPTR,A
        RET
          CFI EndBlock cfiCond53
          CFI EndBlock cfiCond54
          CFI EndBlock cfiCond55
          CFI EndBlock cfiPicker56

        RSEG BANKED_CODE:CODE:NOROOT(0)
?Subroutine5:
          CFI Block cfiCond57 Using cfiCommon0
          CFI Function zllSampleLight_SceneStoreCB
          CFI Conditional ??CrossCallReturnLabel_9
          CFI R6 load(1, XDATA, add(CFA_XSP16, literal(-9)))
          CFI VB load(1, XDATA, add(CFA_XSP16, literal(-8)))
          CFI V0 load(1, XDATA, add(CFA_XSP16, literal(-7)))
          CFI R7 load(1, XDATA, add(CFA_XSP16, literal(-6)))
          CFI ?RET_LOW load(1, XDATA, add(CFA_XSP16, literal(-5)))
          CFI ?RET_HIGH load(1, XDATA, add(CFA_XSP16, literal(-4)))
          CFI ?BRET_EXT load(1, XDATA, add(CFA_XSP16, literal(-3)))
          CFI DPL0 load(1, XDATA, add(CFA_XSP16, literal(-2)))
          CFI DPH0 load(1, XDATA, add(CFA_XSP16, literal(-1)))
          CFI CFA_SP SP+0
          CFI CFA_XSP16 add(XSP16, 9)
          CFI Block cfiCond58 Using cfiCommon0
          CFI (cfiCond58) Function zllSampleLight_SceneStoreCB
          CFI (cfiCond58) Conditional ??CrossCallReturnLabel_10
          CFI (cfiCond58) R6 load(1, XDATA, add(CFA_XSP16, literal(-9)))
          CFI (cfiCond58) VB load(1, XDATA, add(CFA_XSP16, literal(-8)))
          CFI (cfiCond58) V0 load(1, XDATA, add(CFA_XSP16, literal(-7)))
          CFI (cfiCond58) R7 load(1, XDATA, add(CFA_XSP16, literal(-6)))
          CFI (cfiCond58) ?RET_LOW load(1, XDATA, add(CFA_XSP16, literal(-5)))
          CFI (cfiCond58) ?RET_HIGH load(1, XDATA, add(CFA_XSP16, literal(-4)))
          CFI (cfiCond58) ?BRET_EXT load(1, XDATA, add(CFA_XSP16, literal(-3)))
          CFI (cfiCond58) DPL0 load(1, XDATA, add(CFA_XSP16, literal(-2)))
          CFI (cfiCond58) DPH0 load(1, XDATA, add(CFA_XSP16, literal(-1)))
          CFI (cfiCond58) CFA_SP SP+0
          CFI (cfiCond58) CFA_XSP16 add(XSP16, 9)
          CFI Block cfiPicker59 Using cfiCommon1
          CFI (cfiPicker59) NoFunction
          CFI (cfiPicker59) Picker
        MOVX    @DPTR,A
        INC     DPTR
        CLR     A
        MOVX    @DPTR,A
        INC     DPTR
        INC     A
        MOVX    @DPTR,A
        INC     DPTR
        MOV     R6,DPL
        MOV     R7,DPH
        RET
          CFI EndBlock cfiCond57
          CFI EndBlock cfiCond58
          CFI EndBlock cfiPicker59

        RSEG BANKED_CODE:CODE:NOROOT(0)
?Subroutine3:
          CFI Block cfiCond60 Using cfiCommon0
          CFI Function zllSampleLight_SceneStoreCB
          CFI Conditional ??CrossCallReturnLabel_0
          CFI R6 load(1, XDATA, add(CFA_XSP16, literal(-9)))
          CFI VB load(1, XDATA, add(CFA_XSP16, literal(-8)))
          CFI V0 load(1, XDATA, add(CFA_XSP16, literal(-7)))
          CFI R7 load(1, XDATA, add(CFA_XSP16, literal(-6)))
          CFI ?RET_LOW load(1, XDATA, add(CFA_XSP16, literal(-5)))
          CFI ?RET_HIGH load(1, XDATA, add(CFA_XSP16, literal(-4)))
          CFI ?BRET_EXT load(1, XDATA, add(CFA_XSP16, literal(-3)))
          CFI DPL0 load(1, XDATA, add(CFA_XSP16, literal(-2)))
          CFI DPH0 load(1, XDATA, add(CFA_XSP16, literal(-1)))
          CFI CFA_SP SP+0
          CFI CFA_XSP16 add(XSP16, 9)
          CFI Block cfiCond61 Using cfiCommon0
          CFI (cfiCond61) Function zllSampleLight_SceneStoreCB
          CFI (cfiCond61) Conditional ??CrossCallReturnLabel_1
          CFI (cfiCond61) R6 load(1, XDATA, add(CFA_XSP16, literal(-9)))
          CFI (cfiCond61) VB load(1, XDATA, add(CFA_XSP16, literal(-8)))
          CFI (cfiCond61) V0 load(1, XDATA, add(CFA_XSP16, literal(-7)))
          CFI (cfiCond61) R7 load(1, XDATA, add(CFA_XSP16, literal(-6)))
          CFI (cfiCond61) ?RET_LOW load(1, XDATA, add(CFA_XSP16, literal(-5)))
          CFI (cfiCond61) ?RET_HIGH load(1, XDATA, add(CFA_XSP16, literal(-4)))
          CFI (cfiCond61) ?BRET_EXT load(1, XDATA, add(CFA_XSP16, literal(-3)))
          CFI (cfiCond61) DPL0 load(1, XDATA, add(CFA_XSP16, literal(-2)))
          CFI (cfiCond61) DPH0 load(1, XDATA, add(CFA_XSP16, literal(-1)))
          CFI (cfiCond61) CFA_SP SP+0
          CFI (cfiCond61) CFA_XSP16 add(XSP16, 9)
          CFI Block cfiCond62 Using cfiCommon0
          CFI (cfiCond62) Function zllSampleLight_SceneStoreCB
          CFI (cfiCond62) Conditional ??CrossCallReturnLabel_2
          CFI (cfiCond62) R6 load(1, XDATA, add(CFA_XSP16, literal(-9)))
          CFI (cfiCond62) VB load(1, XDATA, add(CFA_XSP16, literal(-8)))
          CFI (cfiCond62) V0 load(1, XDATA, add(CFA_XSP16, literal(-7)))
          CFI (cfiCond62) R7 load(1, XDATA, add(CFA_XSP16, literal(-6)))
          CFI (cfiCond62) ?RET_LOW load(1, XDATA, add(CFA_XSP16, literal(-5)))
          CFI (cfiCond62) ?RET_HIGH load(1, XDATA, add(CFA_XSP16, literal(-4)))
          CFI (cfiCond62) ?BRET_EXT load(1, XDATA, add(CFA_XSP16, literal(-3)))
          CFI (cfiCond62) DPL0 load(1, XDATA, add(CFA_XSP16, literal(-2)))
          CFI (cfiCond62) DPH0 load(1, XDATA, add(CFA_XSP16, literal(-1)))
          CFI (cfiCond62) CFA_SP SP+0
          CFI (cfiCond62) CFA_XSP16 add(XSP16, 9)
          CFI Block cfiCond63 Using cfiCommon0
          CFI (cfiCond63) Function zllSampleLight_SceneStoreCB
          CFI (cfiCond63) Conditional ??CrossCallReturnLabel_3
          CFI (cfiCond63) R6 load(1, XDATA, add(CFA_XSP16, literal(-9)))
          CFI (cfiCond63) VB load(1, XDATA, add(CFA_XSP16, literal(-8)))
          CFI (cfiCond63) V0 load(1, XDATA, add(CFA_XSP16, literal(-7)))
          CFI (cfiCond63) R7 load(1, XDATA, add(CFA_XSP16, literal(-6)))
          CFI (cfiCond63) ?RET_LOW load(1, XDATA, add(CFA_XSP16, literal(-5)))
          CFI (cfiCond63) ?RET_HIGH load(1, XDATA, add(CFA_XSP16, literal(-4)))
          CFI (cfiCond63) ?BRET_EXT load(1, XDATA, add(CFA_XSP16, literal(-3)))
          CFI (cfiCond63) DPL0 load(1, XDATA, add(CFA_XSP16, literal(-2)))
          CFI (cfiCond63) DPH0 load(1, XDATA, add(CFA_XSP16, literal(-1)))
          CFI (cfiCond63) CFA_SP SP+0
          CFI (cfiCond63) CFA_XSP16 add(XSP16, 9)
          CFI Block cfiCond64 Using cfiCommon0
          CFI (cfiCond64) Function zllSampleLight_SceneStoreCB
          CFI (cfiCond64) Conditional ??CrossCallReturnLabel_4
          CFI (cfiCond64) R6 load(1, XDATA, add(CFA_XSP16, literal(-9)))
          CFI (cfiCond64) VB load(1, XDATA, add(CFA_XSP16, literal(-8)))
          CFI (cfiCond64) V0 load(1, XDATA, add(CFA_XSP16, literal(-7)))
          CFI (cfiCond64) R7 load(1, XDATA, add(CFA_XSP16, literal(-6)))
          CFI (cfiCond64) ?RET_LOW load(1, XDATA, add(CFA_XSP16, literal(-5)))
          CFI (cfiCond64) ?RET_HIGH load(1, XDATA, add(CFA_XSP16, literal(-4)))
          CFI (cfiCond64) ?BRET_EXT load(1, XDATA, add(CFA_XSP16, literal(-3)))
          CFI (cfiCond64) DPL0 load(1, XDATA, add(CFA_XSP16, literal(-2)))
          CFI (cfiCond64) DPH0 load(1, XDATA, add(CFA_XSP16, literal(-1)))
          CFI (cfiCond64) CFA_SP SP+0
          CFI (cfiCond64) CFA_XSP16 add(XSP16, 9)
          CFI Block cfiCond65 Using cfiCommon0
          CFI (cfiCond65) Function zllSampleLight_SceneStoreCB
          CFI (cfiCond65) Conditional ??CrossCallReturnLabel_5
          CFI (cfiCond65) R6 load(1, XDATA, add(CFA_XSP16, literal(-9)))
          CFI (cfiCond65) VB load(1, XDATA, add(CFA_XSP16, literal(-8)))
          CFI (cfiCond65) V0 load(1, XDATA, add(CFA_XSP16, literal(-7)))
          CFI (cfiCond65) R7 load(1, XDATA, add(CFA_XSP16, literal(-6)))
          CFI (cfiCond65) ?RET_LOW load(1, XDATA, add(CFA_XSP16, literal(-5)))
          CFI (cfiCond65) ?RET_HIGH load(1, XDATA, add(CFA_XSP16, literal(-4)))
          CFI (cfiCond65) ?BRET_EXT load(1, XDATA, add(CFA_XSP16, literal(-3)))
          CFI (cfiCond65) DPL0 load(1, XDATA, add(CFA_XSP16, literal(-2)))
          CFI (cfiCond65) DPH0 load(1, XDATA, add(CFA_XSP16, literal(-1)))
          CFI (cfiCond65) CFA_SP SP+0
          CFI (cfiCond65) CFA_XSP16 add(XSP16, 9)
          CFI Block cfiCond66 Using cfiCommon0
          CFI (cfiCond66) Function zllSampleLight_SceneStoreCB
          CFI (cfiCond66) Conditional ??CrossCallReturnLabel_6
          CFI (cfiCond66) R6 load(1, XDATA, add(CFA_XSP16, literal(-9)))
          CFI (cfiCond66) VB load(1, XDATA, add(CFA_XSP16, literal(-8)))
          CFI (cfiCond66) V0 load(1, XDATA, add(CFA_XSP16, literal(-7)))
          CFI (cfiCond66) R7 load(1, XDATA, add(CFA_XSP16, literal(-6)))
          CFI (cfiCond66) ?RET_LOW load(1, XDATA, add(CFA_XSP16, literal(-5)))
          CFI (cfiCond66) ?RET_HIGH load(1, XDATA, add(CFA_XSP16, literal(-4)))
          CFI (cfiCond66) ?BRET_EXT load(1, XDATA, add(CFA_XSP16, literal(-3)))
          CFI (cfiCond66) DPL0 load(1, XDATA, add(CFA_XSP16, literal(-2)))
          CFI (cfiCond66) DPH0 load(1, XDATA, add(CFA_XSP16, literal(-1)))
          CFI (cfiCond66) CFA_SP SP+0
          CFI (cfiCond66) CFA_XSP16 add(XSP16, 9)
          CFI Block cfiCond67 Using cfiCommon0
          CFI (cfiCond67) Function zllSampleLight_SceneStoreCB
          CFI (cfiCond67) Conditional ??CrossCallReturnLabel_7
          CFI (cfiCond67) R6 load(1, XDATA, add(CFA_XSP16, literal(-9)))
          CFI (cfiCond67) VB load(1, XDATA, add(CFA_XSP16, literal(-8)))
          CFI (cfiCond67) V0 load(1, XDATA, add(CFA_XSP16, literal(-7)))
          CFI (cfiCond67) R7 load(1, XDATA, add(CFA_XSP16, literal(-6)))
          CFI (cfiCond67) ?RET_LOW load(1, XDATA, add(CFA_XSP16, literal(-5)))
          CFI (cfiCond67) ?RET_HIGH load(1, XDATA, add(CFA_XSP16, literal(-4)))
          CFI (cfiCond67) ?BRET_EXT load(1, XDATA, add(CFA_XSP16, literal(-3)))
          CFI (cfiCond67) DPL0 load(1, XDATA, add(CFA_XSP16, literal(-2)))
          CFI (cfiCond67) DPH0 load(1, XDATA, add(CFA_XSP16, literal(-1)))
          CFI (cfiCond67) CFA_SP SP+0
          CFI (cfiCond67) CFA_XSP16 add(XSP16, 9)
          CFI Block cfiCond68 Using cfiCommon0
          CFI (cfiCond68) Function zllSampleLight_SceneStoreCB
          CFI (cfiCond68) Conditional ??CrossCallReturnLabel_8
          CFI (cfiCond68) R6 load(1, XDATA, add(CFA_XSP16, literal(-9)))
          CFI (cfiCond68) VB load(1, XDATA, add(CFA_XSP16, literal(-8)))
          CFI (cfiCond68) V0 load(1, XDATA, add(CFA_XSP16, literal(-7)))
          CFI (cfiCond68) R7 load(1, XDATA, add(CFA_XSP16, literal(-6)))
          CFI (cfiCond68) ?RET_LOW load(1, XDATA, add(CFA_XSP16, literal(-5)))
          CFI (cfiCond68) ?RET_HIGH load(1, XDATA, add(CFA_XSP16, literal(-4)))
          CFI (cfiCond68) ?BRET_EXT load(1, XDATA, add(CFA_XSP16, literal(-3)))
          CFI (cfiCond68) DPL0 load(1, XDATA, add(CFA_XSP16, literal(-2)))
          CFI (cfiCond68) DPH0 load(1, XDATA, add(CFA_XSP16, literal(-1)))
          CFI (cfiCond68) CFA_SP SP+0
          CFI (cfiCond68) CFA_XSP16 add(XSP16, 9)
          CFI Block cfiPicker69 Using cfiCommon1
          CFI (cfiPicker69) NoFunction
          CFI (cfiPicker69) Picker
        MOVX    A,@DPTR
        MOV     DPL,R6
        MOV     DPH,R7
        MOVX    @DPTR,A
        INC     DPTR
        INC     R6
        MOV     R7,DPH
        RET
          CFI EndBlock cfiCond60
          CFI EndBlock cfiCond61
          CFI EndBlock cfiCond62
          CFI EndBlock cfiCond63
          CFI EndBlock cfiCond64
          CFI EndBlock cfiCond65
          CFI EndBlock cfiCond66
          CFI EndBlock cfiCond67
          CFI EndBlock cfiCond68
          CFI EndBlock cfiPicker69
//  944 
//  945 /*********************************************************************
//  946  * @fn      zllSampleLight_SceneRecallCB
//  947  *
//  948  * @brief   Callback from the ZCL General Cluster Library when
//  949  *          it received a Scene Recall Request Command for
//  950  *          this application.
//  951  *          Restores attributes values from the scene's extension fields.
//  952  *          Extension field sets =
//  953  *          {{Cluster ID 1, length 1, {extension field set 1}}, {{Cluster ID 2,
//  954  *            length 2, {extension field set 2}}, ...}
//  955  *
//  956  * @param   pReq - pointer to a request holding scene data
//  957  *
//  958  * @return  none
//  959  */

        RSEG BANKED_CODE:CODE:NOROOT(0)
//  960 static void zllSampleLight_SceneRecallCB( zclSceneReq_t *pReq )
zllSampleLight_SceneRecallCB:
          CFI Block cfiBlock70 Using cfiCommon0
          CFI Function zllSampleLight_SceneRecallCB
        CODE
//  961 {
        FUNCALL zllSampleLight_SceneRecallCB, zclColor_SetColorLoopCB
        LOCFRAME ISTACK, 0, STACK
        LOCFRAME PSTACK, 0, STACK
        LOCFRAME XSTACK, 37, STACK
        LOCFRAME IOVERLAY, 0, STATIC
        LOCFRAME DOVERLAY, 0, STATIC
        ARGFRAME ISTACK, 0, STACK
        ARGFRAME PSTACK, 0, STACK
        ARGFRAME XSTACK, 37, STACK
        ARGFRAME IOVERLAY, 0, STATIC
        ARGFRAME DOVERLAY, 0, STATIC
        FUNCALL zllSampleLight_SceneRecallCB, zllSampleLight_OnOffCB
        LOCFRAME ISTACK, 0, STACK
        LOCFRAME PSTACK, 0, STACK
        LOCFRAME XSTACK, 37, STACK
        LOCFRAME IOVERLAY, 0, STATIC
        LOCFRAME DOVERLAY, 0, STATIC
        ARGFRAME ISTACK, 0, STACK
        ARGFRAME PSTACK, 0, STACK
        ARGFRAME XSTACK, 37, STACK
        ARGFRAME IOVERLAY, 0, STATIC
        ARGFRAME DOVERLAY, 0, STATIC
        FUNCALL zllSampleLight_SceneRecallCB, zclLevel_MoveToLevelCB
        LOCFRAME ISTACK, 0, STACK
        LOCFRAME PSTACK, 0, STACK
        LOCFRAME XSTACK, 37, STACK
        LOCFRAME IOVERLAY, 0, STATIC
        LOCFRAME DOVERLAY, 0, STATIC
        ARGFRAME ISTACK, 0, STACK
        ARGFRAME PSTACK, 0, STACK
        ARGFRAME XSTACK, 37, STACK
        ARGFRAME IOVERLAY, 0, STATIC
        ARGFRAME DOVERLAY, 0, STATIC
        FUNCALL zllSampleLight_SceneRecallCB, zclColor_MoveToColorCB
        LOCFRAME ISTACK, 0, STACK
        LOCFRAME PSTACK, 0, STACK
        LOCFRAME XSTACK, 37, STACK
        LOCFRAME IOVERLAY, 0, STATIC
        LOCFRAME DOVERLAY, 0, STATIC
        ARGFRAME ISTACK, 0, STACK
        ARGFRAME PSTACK, 0, STACK
        ARGFRAME XSTACK, 37, STACK
        ARGFRAME IOVERLAY, 0, STATIC
        ARGFRAME DOVERLAY, 0, STATIC
        FUNCALL zllSampleLight_SceneRecallCB, zclColor_MoveToEnhHueAndSaturationCB
        LOCFRAME ISTACK, 0, STACK
        LOCFRAME PSTACK, 0, STACK
        LOCFRAME XSTACK, 37, STACK
        LOCFRAME IOVERLAY, 0, STATIC
        LOCFRAME DOVERLAY, 0, STATIC
        ARGFRAME ISTACK, 0, STACK
        ARGFRAME PSTACK, 0, STACK
        ARGFRAME XSTACK, 37, STACK
        ARGFRAME IOVERLAY, 0, STATIC
        ARGFRAME DOVERLAY, 0, STATIC
        MOV     A,#-0xd
        LCALL   ?BANKED_ENTER_XDATA
          CFI DPH0 load(1, XDATA, add(CFA_XSP16, literal(-1)))
          CFI DPL0 load(1, XDATA, add(CFA_XSP16, literal(-2)))
          CFI ?BRET_EXT load(1, XDATA, add(CFA_XSP16, literal(-3)))
          CFI ?RET_HIGH load(1, XDATA, add(CFA_XSP16, literal(-4)))
          CFI ?RET_LOW load(1, XDATA, add(CFA_XSP16, literal(-5)))
          CFI R7 load(1, XDATA, add(CFA_XSP16, literal(-6)))
          CFI V4 load(1, XDATA, add(CFA_XSP16, literal(-7)))
          CFI V3 load(1, XDATA, add(CFA_XSP16, literal(-8)))
          CFI V2 load(1, XDATA, add(CFA_XSP16, literal(-9)))
          CFI V1 load(1, XDATA, add(CFA_XSP16, literal(-10)))
          CFI V0 load(1, XDATA, add(CFA_XSP16, literal(-11)))
          CFI VB load(1, XDATA, add(CFA_XSP16, literal(-12)))
          CFI R6 load(1, XDATA, add(CFA_XSP16, literal(-13)))
          CFI CFA_SP SP+0
          CFI CFA_XSP16 add(XSP16, 13)
        ; Saved register size: 13
        ; Auto size: 24
        MOV     A,#-0x18
        LCALL   ?ALLOC_XSTACK8
          CFI CFA_XSP16 add(XSP16, 37)
//  962   int8 remain;
//  963   uint16 clusterID;
//  964   uint8 *pExt = pReq->scene->extField;
        MOV     A,R2
        ADD     A,#0x2
        MOV     ?V0 + 0,A
        MOV     A,R3
        ADDC    A,#0x0
        MOV     ?V0 + 1,A
        MOV     DPL,?V0 + 0
        MOV     DPH,A
        LCALL   ?Subroutine16 & 0xFFFF
??CrossCallReturnLabel_34:
        SJMP    ??zllSampleLight_SceneRecallCB_0
//  965 
//  966   while ( pExt < pReq->scene->extField + pReq->scene->extLen )
//  967   {
//  968     clusterID =  BUILD_UINT16( pExt[0], pExt[1] );
//  969     pExt += 2; // cluster ID
//  970     remain = *pExt++;
//  971 
//  972     if ( clusterID == ZCL_CLUSTER_ID_GEN_ON_OFF )
//  973     {
//  974       // Update onOff attibute with the recalled value
//  975       if ( remain > 0 )
//  976       {
//  977         zllSampleLight_OnOffCB( *pExt++ ); // Apply the new value
//  978         remain--;
//  979       }
//  980     }
//  981 #ifdef ZCL_LEVEL_CTRL
//  982     else if ( clusterID == ZCL_CLUSTER_ID_GEN_LEVEL_CONTROL )
//  983     {
//  984       // Update currentLevel attribute with the recalled value
//  985       if ( remain > 0 )
//  986       {
//  987         zclLCMoveToLevel_t levelCmd;
//  988 
//  989         levelCmd.level = *pExt++;
//  990         levelCmd.transitionTime = pReq->scene->transTime; // whole seconds only
//  991         levelCmd.withOnOff = 0;
//  992         zclLevel_MoveToLevelCB( &levelCmd );
//  993         remain--;
//  994       }
//  995     }
//  996 #endif //ZCL_LEVEL_CTRL
//  997 #ifdef ZCL_COLOR_CTRL
//  998     else if ( clusterID == ZCL_CLUSTER_ID_LIGHTING_COLOR_CONTROL )
//  999     {
// 1000       // Update currentX and currentY attributes with the recalled values
// 1001       if ( remain >= COLOR_SCN_X_Y_ATTRS_SIZE )
// 1002       {
// 1003         zclCCMoveToColor_t colorCmd = {0};
// 1004 
// 1005         colorCmd.colorX = BUILD_UINT16( pExt[0], pExt[1] );
// 1006         colorCmd.colorY = BUILD_UINT16( pExt[2], pExt[3] );
// 1007         pExt += COLOR_SCN_X_Y_ATTRS_SIZE;
// 1008         remain -= COLOR_SCN_X_Y_ATTRS_SIZE;
// 1009         if ( ( colorCmd.colorX != 0 ) || ( colorCmd.colorY != 0 ) )
// 1010         {
// 1011           // COLOR_MODE_CURRENT_X_Y
// 1012           colorCmd.transitionTime = (10 * pReq->scene->transTime) + pReq->scene->transTime100ms; // in 1/10th seconds
// 1013           zclColor_MoveToColorCB( &colorCmd );
// 1014           // for non-zero X,Y other hue/sat and loop parameters are ignored (CCB 1683)
// 1015         }
// 1016         else if ( remain >= COLOR_SCN_HUE_SAT_ATTRS_SIZE )
// 1017         {
// 1018           // ENHANCED_COLOR_MODE_ENHANCED_CURRENT_HUE_SATURATION
// 1019           zclCCEnhancedMoveToHueAndSaturation_t cmd = {0};
// 1020 
// 1021           cmd.enhancedHue = BUILD_UINT16( pExt[0], pExt[1] );
// 1022           pExt += 2;
// 1023           cmd.saturation = *pExt++;
// 1024           cmd.transitionTime = (10 * pReq->scene->transTime) + pReq->scene->transTime100ms; // in 1/10th seconds
// 1025           zclColor_MoveToEnhHueAndSaturationCB( &cmd );
// 1026           remain -= COLOR_SCN_HUE_SAT_ATTRS_SIZE;
// 1027 
// 1028           if ( remain >= COLOR_SCN_LOOP_ATTRS_SIZE )
// 1029           {
// 1030             zclCCColorLoopSet_t newColorLoopSetCmd = {0};
// 1031             newColorLoopSetCmd.updateFlags.bits.action = TRUE;
// 1032             newColorLoopSetCmd.action = ( (*pExt++) ? LIGHTING_COLOR_LOOP_ACTION_ACTIVATE_FROM_ENH_CURR_HUE : LIGHTING_COLOR_LOOP_ACTION_DEACTIVATE );
??zllSampleLight_SceneRecallCB_1:
        CLR     A
??zllSampleLight_SceneRecallCB_2:
        MOVX    @DPTR,A
        MOVX    A,@DPTR
        PUSH    A
          CFI CFA_SP SP+-1
        MOV     A,#0x12
        LCALL   ?XSTACK_DISP0_8
        POP     A
          CFI CFA_SP SP+0
        MOVX    @DPTR,A
// 1033             newColorLoopSetCmd.updateFlags.bits.direction = TRUE;
        MOV     A,#0x10
        LCALL   ?XSTACK_DISP0_8
        MOVX    A,@DPTR
        ORL     A,#0x2
        LCALL   ?Subroutine9 & 0xFFFF
// 1034             newColorLoopSetCmd.direction = *pExt++;
??CrossCallReturnLabel_24:
        PUSH    A
          CFI CFA_SP SP+-1
        MOV     A,#0x13
        LCALL   ?XSTACK_DISP0_8
        POP     A
          CFI CFA_SP SP+0
        LCALL   ?Subroutine10 & 0xFFFF
// 1035             newColorLoopSetCmd.updateFlags.bits.time = TRUE;
??CrossCallReturnLabel_26:
        MOV     A,#0x10
        LCALL   ?XSTACK_DISP0_8
        MOVX    A,@DPTR
        ORL     A,#0x4
        LCALL   ?Subroutine9 & 0xFFFF
// 1036             newColorLoopSetCmd.time = BUILD_UINT16( pExt[0], pExt[1] );
??CrossCallReturnLabel_25:
        LCALL   ??Subroutine22_0 & 0xFFFF
??CrossCallReturnLabel_54:
        MOV     A,#0x14
        LCALL   ?XSTACK_DISP0_8
        LCALL   ?Subroutine6 & 0xFFFF
// 1037             pExt += 2;
// 1038             zclColor_SetColorLoopCB( &newColorLoopSetCmd );
??CrossCallReturnLabel_11:
        ; Setup parameters for call to function zclColor_SetColorLoopCB
        MOV     A,#0x10
        LCALL   ?XSTACK_DISP0_8
        MOV     R2,DPL
        MOV     R3,DPH
        LCALL   ??zclColor_SetColorLoopCB?relay
// 1039             remain -= COLOR_SCN_LOOP_ATTRS_SIZE;
        MOV     A,#-0x4
??zllSampleLight_SceneRecallCB_3:
        ADD     A,?V0 + 4
        MOV     ?V0 + 4,A
// 1040           }
// 1041         }
// 1042       }
// 1043     }
// 1044 #endif //ZCL_COLOR_CTRL
// 1045 
// 1046     // Add more clusters here
// 1047 
// 1048     pExt += remain; // remain should be 0 if all extension fields are processed
??zllSampleLight_SceneRecallCB_4:
        MOV     A,?V0 + 4
        MOV     R0,A
        RLC     A
        SUBB    A,0xE0 /* A   */
        MOV     R1,A
        MOV     A,R6
        ADD     A,R0
        MOV     R6,A
        MOV     A,R7
        ADDC    A,R1
??zllSampleLight_SceneRecallCB_0:
        MOV     R7,A
        MOV     DPL,?V0 + 0
        MOV     DPH,?V0 + 1
        LCALL   ??Subroutine26_0 & 0xFFFF
??CrossCallReturnLabel_58:
        MOV     A,R0
        ADD     A,#0x17
        MOV     DPL,A
        MOV     A,R1
        ADDC    A,#0x0
        MOV     DPH,A
        MOVX    A,@DPTR
        MOV     R2,A
        MOV     A,R0
        ADD     A,R2
        MOV     R2,A
        MOV     A,R1
        ADDC    A,#0x0
        MOV     R3,A
        MOV     A,R2
        ADD     A,#0x18
        MOV     R2,A
        MOV     A,R3
        ADDC    A,#0x0
        MOV     R3,A
        CLR     C
        MOV     A,R6
        SUBB    A,R2
        MOV     A,R7
        SUBB    A,R3
        JC      $+5
        LJMP    ??zllSampleLight_SceneRecallCB_5 & 0xFFFF
        LCALL   ?Subroutine15 & 0xFFFF
??CrossCallReturnLabel_55:
        MOV     A,R6
        ADD     A,#0x2
        MOV     R6,A
        MOV     A,R7
        ADDC    A,#0x0
        MOV     R7,A
        MOV     DPL,R6
        MOV     DPH,R7
        MOVX    A,@DPTR
        MOV     ?V0 + 4,A
        INC     DPTR
        MOV     R6,DPL
        MOV     R7,DPH
        INC     DPTR
        MOV     ?V0 + 2,DPL
        MOV     ?V0 + 3,DPH
        MOV     A,#0x6
        XRL     A,R0
        JNZ     ??zllSampleLight_SceneRecallCB_6
        MOV     A,R1
??zllSampleLight_SceneRecallCB_6:
        JNZ     ??zllSampleLight_SceneRecallCB_7
        MOV     A,?V0 + 4
        CLR     C
        SUBB    A,#0x1
        MOV     C,0xD0 /* PSW */.2
        XRL     A,PSW
        RLC     A
        JC      ??zllSampleLight_SceneRecallCB_4
        ; Setup parameters for call to function zllSampleLight_OnOffCB
        MOV     DPL,R6
        MOV     DPH,R7
        MOVX    A,@DPTR
        MOV     R1,A
        LCALL   ??zllSampleLight_OnOffCB?relay
        INC     R6
        MOV     R7,?V0 + 3
??zllSampleLight_SceneRecallCB_8:
        MOV     A,#-0x1
        LJMP    ??zllSampleLight_SceneRecallCB_3 & 0xFFFF
??zllSampleLight_SceneRecallCB_7:
        MOV     A,#0x8
        XRL     A,R0
        JNZ     ??zllSampleLight_SceneRecallCB_9
        MOV     A,R1
??zllSampleLight_SceneRecallCB_9:
        JNZ     ??zllSampleLight_SceneRecallCB_10
        MOV     A,?V0 + 4
        CLR     C
        SUBB    A,#0x1
        MOV     C,0xD0 /* PSW */.2
        XRL     A,PSW
        RLC     A
        JNC     $+5
        LJMP    ??zllSampleLight_SceneRecallCB_4 & 0xFFFF
        MOV     DPL,R6
        MOV     DPH,R7
        MOVX    A,@DPTR
        PUSH    A
          CFI CFA_SP SP+-1
        MOV     A,#0x1
        LCALL   ?XSTACK_DISP0_8
        POP     A
          CFI CFA_SP SP+0
        MOVX    @DPTR,A
        INC     R6
        MOV     R7,?V0 + 3
        LCALL   ?Subroutine17 & 0xFFFF
??CrossCallReturnLabel_35:
        INC     DPTR
        LCALL   ??Subroutine25_0 & 0xFFFF
??CrossCallReturnLabel_60:
        MOV     A,#0x2
        LCALL   ?XSTACK_DISP0_8
        LCALL   ?Subroutine7 & 0xFFFF
??CrossCallReturnLabel_15:
        MOV     A,#0x4
        LCALL   ?XSTACK_DISP0_8
        CLR     A
        MOVX    @DPTR,A
        ; Setup parameters for call to function zclLevel_MoveToLevelCB
        INC     A
        LCALL   ?XSTACK_DISP0_8
        MOV     R2,DPL
        MOV     R3,DPH
        LCALL   ??zclLevel_MoveToLevelCB?relay
        SJMP    ??zllSampleLight_SceneRecallCB_8
??zllSampleLight_SceneRecallCB_10:
        MOV     A,R0
        JNZ     ??zllSampleLight_SceneRecallCB_11
        MOV     A,#0x3
        XRL     A,R1
??zllSampleLight_SceneRecallCB_11:
        JZ      $+5
        LJMP    ??zllSampleLight_SceneRecallCB_4 & 0xFFFF
        MOV     A,?V0 + 4
        CLR     C
        SUBB    A,#0x4
        JNC     $+5
        LJMP    ??zllSampleLight_SceneRecallCB_4 & 0xFFFF
        MOV     A,#0x5
        LCALL   ?XSTACK_DISP0_8
        MOV     R4,DPL
        MOV     R5,DPH
        MOV     DPH,#(`?<Constant {0}>` >> 8) & 0xff
        MOV     DPL,#`?<Constant {0}>` & 0xff
        MOV     A,#0x6
        LCALL   ?MOVE_LONG8_XDATA_XDATA
        MOV     DPL,R6
        MOV     DPH,R7
        MOVX    A,@DPTR
        MOV     R2,A
        MOV     DPL,?V0 + 2
        MOV     DPH,?V0 + 3
        LCALL   ??Subroutine24_0 & 0xFFFF
??CrossCallReturnLabel_52:
        MOV     A,#0x5
        LCALL   ?XSTACK_DISP0_8
        LCALL   ?Subroutine7 & 0xFFFF
??CrossCallReturnLabel_16:
        MOV     DPL,R6
        MOV     DPH,R7
        INC     DPTR
        INC     DPTR
        MOVX    A,@DPTR
        MOV     R2,A
        MOV     DPL,R6
        MOV     DPH,R7
        INC     DPTR
        INC     DPTR
        LCALL   ??Subroutine23_0 & 0xFFFF
??CrossCallReturnLabel_53:
        MOV     A,#0x7
        LCALL   ?XSTACK_DISP0_8
        LCALL   ?Subroutine7 & 0xFFFF
??CrossCallReturnLabel_17:
        MOV     A,R6
        ADD     A,#0x4
        MOV     R6,A
        MOV     A,R7
        ADDC    A,#0x0
        MOV     R7,A
        MOV     A,#-0x4
        ADD     A,?V0 + 4
        MOV     ?V0 + 4,A
        MOV     A,#0x5
        LCALL   ?XSTACK_DISP0_8
        LCALL   ??Subroutine21_0 & 0xFFFF
??CrossCallReturnLabel_46:
        JNZ     ??zllSampleLight_SceneRecallCB_12
        MOV     A,#0x7
        LCALL   ?XSTACK_DISP0_8
        LCALL   ??Subroutine21_0 & 0xFFFF
??CrossCallReturnLabel_47:
        JZ      ??zllSampleLight_SceneRecallCB_13
??zllSampleLight_SceneRecallCB_12:
        LCALL   ?Subroutine11 & 0xFFFF
??CrossCallReturnLabel_28:
        MOV     A,#0x9
        LCALL   ?XSTACK_DISP0_8
        LCALL   ?Subroutine7 & 0xFFFF
??CrossCallReturnLabel_18:
        ; Setup parameters for call to function zclColor_MoveToColorCB
        MOV     A,#0x5
        LCALL   ?XSTACK_DISP0_8
        MOV     R2,DPL
        MOV     R3,DPH
        LCALL   ??zclColor_MoveToColorCB?relay
        LJMP    ??zllSampleLight_SceneRecallCB_4 & 0xFFFF
??zllSampleLight_SceneRecallCB_13:
        MOV     A,?V0 + 4
        CLR     C
        SUBB    A,#0x3
        JNC     $+5
        LJMP    ??zllSampleLight_SceneRecallCB_4 & 0xFFFF
        MOV     DPH,#(`?<Constant {0}>_1` >> 8) & 0xff
        MOV     DPL,#`?<Constant {0}>_1` & 0xff
        MOV     A,#0x5
        LCALL   ?MOVE_LONG8_XDATA_XDATA
        LCALL   ?Subroutine15 & 0xFFFF
??CrossCallReturnLabel_56:
        MOV     A,#0xb
        LCALL   ?XSTACK_DISP0_8
        LCALL   ?Subroutine6 & 0xFFFF
??CrossCallReturnLabel_12:
        MOV     DPL,R6
        MOV     DPH,R7
        MOVX    A,@DPTR
        PUSH    A
          CFI CFA_SP SP+-1
        MOV     A,#0xd
        LCALL   ?XSTACK_DISP0_8
        POP     A
          CFI CFA_SP SP+0
        LCALL   ?Subroutine10 & 0xFFFF
??CrossCallReturnLabel_27:
        LCALL   ?Subroutine11 & 0xFFFF
??CrossCallReturnLabel_29:
        MOV     A,#0xe
        LCALL   ?XSTACK_DISP0_8
        LCALL   ?Subroutine7 & 0xFFFF
??CrossCallReturnLabel_19:
        ; Setup parameters for call to function zclColor_MoveToEnhHueAndSaturationCB
        MOV     A,#0xb
        LCALL   ?XSTACK_DISP0_8
        MOV     R2,DPL
        MOV     R3,DPH
        LCALL   ??zclColor_MoveToEnhHueAndSaturationCB?relay
        MOV     A,#-0x3
        ADD     A,?V0 + 4
        MOV     ?V0 + 4,A
        CLR     C
        SUBB    A,#0x4
        JNC     $+5
        LJMP    ??zllSampleLight_SceneRecallCB_4 & 0xFFFF
        MOV     A,#0x10
        LCALL   ?XSTACK_DISP0_8
        MOV     R4,DPL
        MOV     R5,DPH
        MOV     DPH,#(`?<Constant {{{0}}}>` >> 8) & 0xff
        MOV     DPL,#`?<Constant {{{0}}}>` & 0xff
        MOV     A,#0x8
        LCALL   ?MOVE_LONG8_XDATA_XDATA
        MOV     A,#0x10
        LCALL   ?XSTACK_DISP0_8
        MOVX    A,@DPTR
        ORL     A,#0x1
        MOVX    @DPTR,A
        MOV     A,R6
        MOV     R0,A
        MOV     A,R7
        MOV     R1,A
        MOV     DPL,R0
        MOV     DPH,R1
        INC     DPTR
        INC     R6
        MOV     R7,DPH
        MOV     DPL,R0
        MOV     DPH,R1
        MOVX    A,@DPTR
        MOV     DPL,?XSP + 0
        MOV     DPH,?XSP + 1
        JNZ     $+5
        LJMP    ??zllSampleLight_SceneRecallCB_1 & 0xFFFF
        MOV     A,#0x2
        LJMP    ??zllSampleLight_SceneRecallCB_2 & 0xFFFF
// 1049   }
// 1050 
// 1051   zllSampleLight_CurrentScene = pReq->scene->ID;
??zllSampleLight_SceneRecallCB_5:
        MOV     DPL,R0
        MOV     DPH,R1
        INC     DPTR
        INC     DPTR
        MOVX    A,@DPTR
        MOV     DPTR,#zllSampleLight_CurrentScene
        MOVX    @DPTR,A
// 1052   zllSampleLight_CurrentGroup = pReq->scene->groupID;
        LCALL   ?Subroutine17 & 0xFFFF
??CrossCallReturnLabel_36:
        LCALL   ??Subroutine26_0 & 0xFFFF
??CrossCallReturnLabel_59:
        MOV     DPTR,#zllSampleLight_CurrentGroup
        LCALL   ?Subroutine7 & 0xFFFF
// 1053   zllSampleLight_GlobalSceneCtrl = TRUE;
??CrossCallReturnLabel_20:
        MOV     DPTR,#zllSampleLight_GlobalSceneCtrl
        MOV     A,#0x1
        MOVX    @DPTR,A
// 1054   SCENE_VALID();
        MOV     DPTR,#zllSampleLight_SceneValid
        MOVX    @DPTR,A
// 1055 }
        MOV     A,#0x18
        LCALL   ?DEALLOC_XSTACK8
          CFI CFA_XSP16 add(XSP16, 13)
        MOV     R7,#0x5
        LJMP    ?BANKED_LEAVE_XDATA
          CFI EndBlock cfiBlock70

        RSEG BANKED_CODE:CODE:NOROOT(0)
?Subroutine17:
          CFI Block cfiCond71 Using cfiCommon0
          CFI Function zllSampleLight_SceneRecallCB
          CFI Conditional ??CrossCallReturnLabel_35
          CFI R6 load(1, XDATA, add(CFA_XSP16, literal(-13)))
          CFI VB load(1, XDATA, add(CFA_XSP16, literal(-12)))
          CFI V0 load(1, XDATA, add(CFA_XSP16, literal(-11)))
          CFI V1 load(1, XDATA, add(CFA_XSP16, literal(-10)))
          CFI V2 load(1, XDATA, add(CFA_XSP16, literal(-9)))
          CFI V3 load(1, XDATA, add(CFA_XSP16, literal(-8)))
          CFI V4 load(1, XDATA, add(CFA_XSP16, literal(-7)))
          CFI R7 load(1, XDATA, add(CFA_XSP16, literal(-6)))
          CFI ?RET_LOW load(1, XDATA, add(CFA_XSP16, literal(-5)))
          CFI ?RET_HIGH load(1, XDATA, add(CFA_XSP16, literal(-4)))
          CFI ?BRET_EXT load(1, XDATA, add(CFA_XSP16, literal(-3)))
          CFI DPL0 load(1, XDATA, add(CFA_XSP16, literal(-2)))
          CFI DPH0 load(1, XDATA, add(CFA_XSP16, literal(-1)))
          CFI CFA_SP SP+0
          CFI CFA_XSP16 add(XSP16, 37)
          CFI Block cfiCond72 Using cfiCommon0
          CFI (cfiCond72) Function zllSampleLight_SceneRecallCB
          CFI (cfiCond72) Conditional ??CrossCallReturnLabel_36
          CFI (cfiCond72) R6 load(1, XDATA, add(CFA_XSP16, literal(-13)))
          CFI (cfiCond72) VB load(1, XDATA, add(CFA_XSP16, literal(-12)))
          CFI (cfiCond72) V0 load(1, XDATA, add(CFA_XSP16, literal(-11)))
          CFI (cfiCond72) V1 load(1, XDATA, add(CFA_XSP16, literal(-10)))
          CFI (cfiCond72) V2 load(1, XDATA, add(CFA_XSP16, literal(-9)))
          CFI (cfiCond72) V3 load(1, XDATA, add(CFA_XSP16, literal(-8)))
          CFI (cfiCond72) V4 load(1, XDATA, add(CFA_XSP16, literal(-7)))
          CFI (cfiCond72) R7 load(1, XDATA, add(CFA_XSP16, literal(-6)))
          CFI (cfiCond72) ?RET_LOW load(1, XDATA, add(CFA_XSP16, literal(-5)))
          CFI (cfiCond72) ?RET_HIGH load(1, XDATA, add(CFA_XSP16, literal(-4)))
          CFI (cfiCond72) ?BRET_EXT load(1, XDATA, add(CFA_XSP16, literal(-3)))
          CFI (cfiCond72) DPL0 load(1, XDATA, add(CFA_XSP16, literal(-2)))
          CFI (cfiCond72) DPH0 load(1, XDATA, add(CFA_XSP16, literal(-1)))
          CFI (cfiCond72) CFA_SP SP+0
          CFI (cfiCond72) CFA_XSP16 add(XSP16, 37)
          CFI Block cfiPicker73 Using cfiCommon1
          CFI (cfiPicker73) NoFunction
          CFI (cfiPicker73) Picker
        MOV     DPL,?V0 + 0
        MOV     DPH,?V0 + 1
        MOVX    A,@DPTR
        MOV     R0,A
        INC     DPTR
        MOVX    A,@DPTR
        MOV     DPH,A
        MOV     DPL,R0
        RET
          CFI EndBlock cfiCond71
          CFI EndBlock cfiCond72
          CFI EndBlock cfiPicker73

        RSEG BANKED_CODE:CODE:NOROOT(0)
?Subroutine16:
          CFI Block cfiCond74 Using cfiCommon0
          CFI Function zllSampleLight_SceneStoreCB
          CFI Conditional ??CrossCallReturnLabel_33
          CFI R6 load(1, XDATA, add(CFA_XSP16, literal(-9)))
          CFI VB load(1, XDATA, add(CFA_XSP16, literal(-8)))
          CFI V0 load(1, XDATA, add(CFA_XSP16, literal(-7)))
          CFI R7 load(1, XDATA, add(CFA_XSP16, literal(-6)))
          CFI ?RET_LOW load(1, XDATA, add(CFA_XSP16, literal(-5)))
          CFI ?RET_HIGH load(1, XDATA, add(CFA_XSP16, literal(-4)))
          CFI ?BRET_EXT load(1, XDATA, add(CFA_XSP16, literal(-3)))
          CFI DPL0 load(1, XDATA, add(CFA_XSP16, literal(-2)))
          CFI DPH0 load(1, XDATA, add(CFA_XSP16, literal(-1)))
          CFI CFA_SP SP+0
          CFI CFA_XSP16 add(XSP16, 9)
          CFI Block cfiCond75 Using cfiCommon0
          CFI (cfiCond75) Function zllSampleLight_SceneRecallCB
          CFI (cfiCond75) Conditional ??CrossCallReturnLabel_34
          CFI (cfiCond75) R6 load(1, XDATA, add(CFA_XSP16, literal(-13)))
          CFI (cfiCond75) VB load(1, XDATA, add(CFA_XSP16, literal(-12)))
          CFI (cfiCond75) V0 load(1, XDATA, add(CFA_XSP16, literal(-11)))
          CFI (cfiCond75) V1 load(1, XDATA, add(CFA_XSP16, literal(-10)))
          CFI (cfiCond75) V2 load(1, XDATA, add(CFA_XSP16, literal(-9)))
          CFI (cfiCond75) V3 load(1, XDATA, add(CFA_XSP16, literal(-8)))
          CFI (cfiCond75) V4 load(1, XDATA, add(CFA_XSP16, literal(-7)))
          CFI (cfiCond75) R7 load(1, XDATA, add(CFA_XSP16, literal(-6)))
          CFI (cfiCond75) ?RET_LOW load(1, XDATA, add(CFA_XSP16, literal(-5)))
          CFI (cfiCond75) ?RET_HIGH load(1, XDATA, add(CFA_XSP16, literal(-4)))
          CFI (cfiCond75) ?BRET_EXT load(1, XDATA, add(CFA_XSP16, literal(-3)))
          CFI (cfiCond75) DPL0 load(1, XDATA, add(CFA_XSP16, literal(-2)))
          CFI (cfiCond75) DPH0 load(1, XDATA, add(CFA_XSP16, literal(-1)))
          CFI (cfiCond75) CFA_SP SP+0
          CFI (cfiCond75) CFA_XSP16 add(XSP16, 37)
          CFI Block cfiPicker76 Using cfiCommon1
          CFI (cfiPicker76) NoFunction
          CFI (cfiPicker76) Picker
        MOVX    A,@DPTR
        ADD     A,#0x18
        MOV     R6,A
        INC     DPTR
        MOVX    A,@DPTR
        ADDC    A,#0x0
        RET
          CFI EndBlock cfiCond74
          CFI EndBlock cfiCond75
          CFI EndBlock cfiPicker76

        RSEG BANKED_CODE:CODE:NOROOT(0)
?Subroutine15:
          CFI Block cfiCond77 Using cfiCommon0
          CFI Function zllSampleLight_SceneRecallCB
          CFI Conditional ??CrossCallReturnLabel_55
          CFI R6 load(1, XDATA, add(CFA_XSP16, literal(-13)))
          CFI VB load(1, XDATA, add(CFA_XSP16, literal(-12)))
          CFI V0 load(1, XDATA, add(CFA_XSP16, literal(-11)))
          CFI V1 load(1, XDATA, add(CFA_XSP16, literal(-10)))
          CFI V2 load(1, XDATA, add(CFA_XSP16, literal(-9)))
          CFI V3 load(1, XDATA, add(CFA_XSP16, literal(-8)))
          CFI V4 load(1, XDATA, add(CFA_XSP16, literal(-7)))
          CFI R7 load(1, XDATA, add(CFA_XSP16, literal(-6)))
          CFI ?RET_LOW load(1, XDATA, add(CFA_XSP16, literal(-5)))
          CFI ?RET_HIGH load(1, XDATA, add(CFA_XSP16, literal(-4)))
          CFI ?BRET_EXT load(1, XDATA, add(CFA_XSP16, literal(-3)))
          CFI DPL0 load(1, XDATA, add(CFA_XSP16, literal(-2)))
          CFI DPH0 load(1, XDATA, add(CFA_XSP16, literal(-1)))
          CFI CFA_SP SP+0
          CFI CFA_XSP16 add(XSP16, 37)
          CFI Block cfiCond78 Using cfiCommon0
          CFI (cfiCond78) Function zllSampleLight_SceneRecallCB
          CFI (cfiCond78) Conditional ??CrossCallReturnLabel_56
          CFI (cfiCond78) R6 load(1, XDATA, add(CFA_XSP16, literal(-13)))
          CFI (cfiCond78) VB load(1, XDATA, add(CFA_XSP16, literal(-12)))
          CFI (cfiCond78) V0 load(1, XDATA, add(CFA_XSP16, literal(-11)))
          CFI (cfiCond78) V1 load(1, XDATA, add(CFA_XSP16, literal(-10)))
          CFI (cfiCond78) V2 load(1, XDATA, add(CFA_XSP16, literal(-9)))
          CFI (cfiCond78) V3 load(1, XDATA, add(CFA_XSP16, literal(-8)))
          CFI (cfiCond78) V4 load(1, XDATA, add(CFA_XSP16, literal(-7)))
          CFI (cfiCond78) R7 load(1, XDATA, add(CFA_XSP16, literal(-6)))
          CFI (cfiCond78) ?RET_LOW load(1, XDATA, add(CFA_XSP16, literal(-5)))
          CFI (cfiCond78) ?RET_HIGH load(1, XDATA, add(CFA_XSP16, literal(-4)))
          CFI (cfiCond78) ?BRET_EXT load(1, XDATA, add(CFA_XSP16, literal(-3)))
          CFI (cfiCond78) DPL0 load(1, XDATA, add(CFA_XSP16, literal(-2)))
          CFI (cfiCond78) DPH0 load(1, XDATA, add(CFA_XSP16, literal(-1)))
          CFI (cfiCond78) CFA_SP SP+0
          CFI (cfiCond78) CFA_XSP16 add(XSP16, 37)
          CFI Block cfiPicker79 Using cfiCommon1
          CFI (cfiPicker79) NoFunction
          CFI (cfiPicker79) Picker
        MOV     DPL,R6
        MOV     DPH,R7
        MOVX    A,@DPTR
          CFI EndBlock cfiCond77
          CFI EndBlock cfiCond78
          CFI EndBlock cfiPicker79
        REQUIRE ??Subroutine22_0
        ; // Fall through to label ??Subroutine22_0

        RSEG BANKED_CODE:CODE:NOROOT(0)
??Subroutine22_0:
          CFI Block cfiCond80 Using cfiCommon0
          CFI Function zllSampleLight_SceneRecallCB
          CFI Conditional ??CrossCallReturnLabel_54
          CFI R6 load(1, XDATA, add(CFA_XSP16, literal(-13)))
          CFI VB load(1, XDATA, add(CFA_XSP16, literal(-12)))
          CFI V0 load(1, XDATA, add(CFA_XSP16, literal(-11)))
          CFI V1 load(1, XDATA, add(CFA_XSP16, literal(-10)))
          CFI V2 load(1, XDATA, add(CFA_XSP16, literal(-9)))
          CFI V3 load(1, XDATA, add(CFA_XSP16, literal(-8)))
          CFI V4 load(1, XDATA, add(CFA_XSP16, literal(-7)))
          CFI R7 load(1, XDATA, add(CFA_XSP16, literal(-6)))
          CFI ?RET_LOW load(1, XDATA, add(CFA_XSP16, literal(-5)))
          CFI ?RET_HIGH load(1, XDATA, add(CFA_XSP16, literal(-4)))
          CFI ?BRET_EXT load(1, XDATA, add(CFA_XSP16, literal(-3)))
          CFI DPL0 load(1, XDATA, add(CFA_XSP16, literal(-2)))
          CFI DPH0 load(1, XDATA, add(CFA_XSP16, literal(-1)))
          CFI CFA_SP SP+0
          CFI CFA_XSP16 add(XSP16, 37)
          CFI Block cfiCond81 Using cfiCommon0
          CFI (cfiCond81) Function zllSampleLight_SceneRecallCB
          CFI (cfiCond81) Conditional ??CrossCallReturnLabel_55
          CFI (cfiCond81) R6 load(1, XDATA, add(CFA_XSP16, literal(-13)))
          CFI (cfiCond81) VB load(1, XDATA, add(CFA_XSP16, literal(-12)))
          CFI (cfiCond81) V0 load(1, XDATA, add(CFA_XSP16, literal(-11)))
          CFI (cfiCond81) V1 load(1, XDATA, add(CFA_XSP16, literal(-10)))
          CFI (cfiCond81) V2 load(1, XDATA, add(CFA_XSP16, literal(-9)))
          CFI (cfiCond81) V3 load(1, XDATA, add(CFA_XSP16, literal(-8)))
          CFI (cfiCond81) V4 load(1, XDATA, add(CFA_XSP16, literal(-7)))
          CFI (cfiCond81) R7 load(1, XDATA, add(CFA_XSP16, literal(-6)))
          CFI (cfiCond81) ?RET_LOW load(1, XDATA, add(CFA_XSP16, literal(-5)))
          CFI (cfiCond81) ?RET_HIGH load(1, XDATA, add(CFA_XSP16, literal(-4)))
          CFI (cfiCond81) ?BRET_EXT load(1, XDATA, add(CFA_XSP16, literal(-3)))
          CFI (cfiCond81) DPL0 load(1, XDATA, add(CFA_XSP16, literal(-2)))
          CFI (cfiCond81) DPH0 load(1, XDATA, add(CFA_XSP16, literal(-1)))
          CFI (cfiCond81) CFA_SP SP+0
          CFI (cfiCond81) CFA_XSP16 add(XSP16, 37)
          CFI Block cfiCond82 Using cfiCommon0
          CFI (cfiCond82) Function zllSampleLight_SceneRecallCB
          CFI (cfiCond82) Conditional ??CrossCallReturnLabel_56
          CFI (cfiCond82) R6 load(1, XDATA, add(CFA_XSP16, literal(-13)))
          CFI (cfiCond82) VB load(1, XDATA, add(CFA_XSP16, literal(-12)))
          CFI (cfiCond82) V0 load(1, XDATA, add(CFA_XSP16, literal(-11)))
          CFI (cfiCond82) V1 load(1, XDATA, add(CFA_XSP16, literal(-10)))
          CFI (cfiCond82) V2 load(1, XDATA, add(CFA_XSP16, literal(-9)))
          CFI (cfiCond82) V3 load(1, XDATA, add(CFA_XSP16, literal(-8)))
          CFI (cfiCond82) V4 load(1, XDATA, add(CFA_XSP16, literal(-7)))
          CFI (cfiCond82) R7 load(1, XDATA, add(CFA_XSP16, literal(-6)))
          CFI (cfiCond82) ?RET_LOW load(1, XDATA, add(CFA_XSP16, literal(-5)))
          CFI (cfiCond82) ?RET_HIGH load(1, XDATA, add(CFA_XSP16, literal(-4)))
          CFI (cfiCond82) ?BRET_EXT load(1, XDATA, add(CFA_XSP16, literal(-3)))
          CFI (cfiCond82) DPL0 load(1, XDATA, add(CFA_XSP16, literal(-2)))
          CFI (cfiCond82) DPH0 load(1, XDATA, add(CFA_XSP16, literal(-1)))
          CFI (cfiCond82) CFA_SP SP+0
          CFI (cfiCond82) CFA_XSP16 add(XSP16, 37)
          CFI Block cfiPicker83 Using cfiCommon1
          CFI (cfiPicker83) NoFunction
          CFI (cfiPicker83) Picker
        MOV     R2,A
          CFI EndBlock cfiCond80
          CFI EndBlock cfiCond81
          CFI EndBlock cfiCond82
          CFI EndBlock cfiPicker83
        REQUIRE ??Subroutine23_0
        ; // Fall through to label ??Subroutine23_0

        RSEG BANKED_CODE:CODE:NOROOT(0)
??Subroutine23_0:
          CFI Block cfiCond84 Using cfiCommon0
          CFI Function zllSampleLight_SceneRecallCB
          CFI Conditional ??CrossCallReturnLabel_53
          CFI R6 load(1, XDATA, add(CFA_XSP16, literal(-13)))
          CFI VB load(1, XDATA, add(CFA_XSP16, literal(-12)))
          CFI V0 load(1, XDATA, add(CFA_XSP16, literal(-11)))
          CFI V1 load(1, XDATA, add(CFA_XSP16, literal(-10)))
          CFI V2 load(1, XDATA, add(CFA_XSP16, literal(-9)))
          CFI V3 load(1, XDATA, add(CFA_XSP16, literal(-8)))
          CFI V4 load(1, XDATA, add(CFA_XSP16, literal(-7)))
          CFI R7 load(1, XDATA, add(CFA_XSP16, literal(-6)))
          CFI ?RET_LOW load(1, XDATA, add(CFA_XSP16, literal(-5)))
          CFI ?RET_HIGH load(1, XDATA, add(CFA_XSP16, literal(-4)))
          CFI ?BRET_EXT load(1, XDATA, add(CFA_XSP16, literal(-3)))
          CFI DPL0 load(1, XDATA, add(CFA_XSP16, literal(-2)))
          CFI DPH0 load(1, XDATA, add(CFA_XSP16, literal(-1)))
          CFI CFA_SP SP+0
          CFI CFA_XSP16 add(XSP16, 37)
          CFI Block cfiCond85 Using cfiCommon0
          CFI (cfiCond85) Function zllSampleLight_SceneRecallCB
          CFI (cfiCond85) Conditional ??CrossCallReturnLabel_54
          CFI (cfiCond85) R6 load(1, XDATA, add(CFA_XSP16, literal(-13)))
          CFI (cfiCond85) VB load(1, XDATA, add(CFA_XSP16, literal(-12)))
          CFI (cfiCond85) V0 load(1, XDATA, add(CFA_XSP16, literal(-11)))
          CFI (cfiCond85) V1 load(1, XDATA, add(CFA_XSP16, literal(-10)))
          CFI (cfiCond85) V2 load(1, XDATA, add(CFA_XSP16, literal(-9)))
          CFI (cfiCond85) V3 load(1, XDATA, add(CFA_XSP16, literal(-8)))
          CFI (cfiCond85) V4 load(1, XDATA, add(CFA_XSP16, literal(-7)))
          CFI (cfiCond85) R7 load(1, XDATA, add(CFA_XSP16, literal(-6)))
          CFI (cfiCond85) ?RET_LOW load(1, XDATA, add(CFA_XSP16, literal(-5)))
          CFI (cfiCond85) ?RET_HIGH load(1, XDATA, add(CFA_XSP16, literal(-4)))
          CFI (cfiCond85) ?BRET_EXT load(1, XDATA, add(CFA_XSP16, literal(-3)))
          CFI (cfiCond85) DPL0 load(1, XDATA, add(CFA_XSP16, literal(-2)))
          CFI (cfiCond85) DPH0 load(1, XDATA, add(CFA_XSP16, literal(-1)))
          CFI (cfiCond85) CFA_SP SP+0
          CFI (cfiCond85) CFA_XSP16 add(XSP16, 37)
          CFI Block cfiCond86 Using cfiCommon0
          CFI (cfiCond86) Function zllSampleLight_SceneRecallCB
          CFI (cfiCond86) Conditional ??CrossCallReturnLabel_55
          CFI (cfiCond86) R6 load(1, XDATA, add(CFA_XSP16, literal(-13)))
          CFI (cfiCond86) VB load(1, XDATA, add(CFA_XSP16, literal(-12)))
          CFI (cfiCond86) V0 load(1, XDATA, add(CFA_XSP16, literal(-11)))
          CFI (cfiCond86) V1 load(1, XDATA, add(CFA_XSP16, literal(-10)))
          CFI (cfiCond86) V2 load(1, XDATA, add(CFA_XSP16, literal(-9)))
          CFI (cfiCond86) V3 load(1, XDATA, add(CFA_XSP16, literal(-8)))
          CFI (cfiCond86) V4 load(1, XDATA, add(CFA_XSP16, literal(-7)))
          CFI (cfiCond86) R7 load(1, XDATA, add(CFA_XSP16, literal(-6)))
          CFI (cfiCond86) ?RET_LOW load(1, XDATA, add(CFA_XSP16, literal(-5)))
          CFI (cfiCond86) ?RET_HIGH load(1, XDATA, add(CFA_XSP16, literal(-4)))
          CFI (cfiCond86) ?BRET_EXT load(1, XDATA, add(CFA_XSP16, literal(-3)))
          CFI (cfiCond86) DPL0 load(1, XDATA, add(CFA_XSP16, literal(-2)))
          CFI (cfiCond86) DPH0 load(1, XDATA, add(CFA_XSP16, literal(-1)))
          CFI (cfiCond86) CFA_SP SP+0
          CFI (cfiCond86) CFA_XSP16 add(XSP16, 37)
          CFI Block cfiCond87 Using cfiCommon0
          CFI (cfiCond87) Function zllSampleLight_SceneRecallCB
          CFI (cfiCond87) Conditional ??CrossCallReturnLabel_56
          CFI (cfiCond87) R6 load(1, XDATA, add(CFA_XSP16, literal(-13)))
          CFI (cfiCond87) VB load(1, XDATA, add(CFA_XSP16, literal(-12)))
          CFI (cfiCond87) V0 load(1, XDATA, add(CFA_XSP16, literal(-11)))
          CFI (cfiCond87) V1 load(1, XDATA, add(CFA_XSP16, literal(-10)))
          CFI (cfiCond87) V2 load(1, XDATA, add(CFA_XSP16, literal(-9)))
          CFI (cfiCond87) V3 load(1, XDATA, add(CFA_XSP16, literal(-8)))
          CFI (cfiCond87) V4 load(1, XDATA, add(CFA_XSP16, literal(-7)))
          CFI (cfiCond87) R7 load(1, XDATA, add(CFA_XSP16, literal(-6)))
          CFI (cfiCond87) ?RET_LOW load(1, XDATA, add(CFA_XSP16, literal(-5)))
          CFI (cfiCond87) ?RET_HIGH load(1, XDATA, add(CFA_XSP16, literal(-4)))
          CFI (cfiCond87) ?BRET_EXT load(1, XDATA, add(CFA_XSP16, literal(-3)))
          CFI (cfiCond87) DPL0 load(1, XDATA, add(CFA_XSP16, literal(-2)))
          CFI (cfiCond87) DPH0 load(1, XDATA, add(CFA_XSP16, literal(-1)))
          CFI (cfiCond87) CFA_SP SP+0
          CFI (cfiCond87) CFA_XSP16 add(XSP16, 37)
          CFI Block cfiPicker88 Using cfiCommon1
          CFI (cfiPicker88) NoFunction
          CFI (cfiPicker88) Picker
        INC     DPTR
          CFI EndBlock cfiCond84
          CFI EndBlock cfiCond85
          CFI EndBlock cfiCond86
          CFI EndBlock cfiCond87
          CFI EndBlock cfiPicker88
        REQUIRE ??Subroutine24_0
        ; // Fall through to label ??Subroutine24_0

        RSEG BANKED_CODE:CODE:NOROOT(0)
??Subroutine24_0:
          CFI Block cfiCond89 Using cfiCommon0
          CFI Function zllSampleLight_AttrReadWriteCB
          CFI Conditional ??CrossCallReturnLabel_51
          CFI R6 load(1, XDATA, add(CFA_XSP16, literal(-12)))
          CFI VB load(1, XDATA, add(CFA_XSP16, literal(-11)))
          CFI V0 load(1, XDATA, add(CFA_XSP16, literal(-10)))
          CFI V1 load(1, XDATA, add(CFA_XSP16, literal(-9)))
          CFI V2 load(1, XDATA, add(CFA_XSP16, literal(-8)))
          CFI V3 load(1, XDATA, add(CFA_XSP16, literal(-7)))
          CFI R7 load(1, XDATA, add(CFA_XSP16, literal(-6)))
          CFI ?RET_LOW load(1, XDATA, add(CFA_XSP16, literal(-5)))
          CFI ?RET_HIGH load(1, XDATA, add(CFA_XSP16, literal(-4)))
          CFI ?BRET_EXT load(1, XDATA, add(CFA_XSP16, literal(-3)))
          CFI DPL0 load(1, XDATA, add(CFA_XSP16, literal(-2)))
          CFI DPH0 load(1, XDATA, add(CFA_XSP16, literal(-1)))
          CFI CFA_SP SP+0
          CFI CFA_XSP16 add(XSP16, 16)
          CFI Block cfiCond90 Using cfiCommon0
          CFI (cfiCond90) Function zllSampleLight_SceneRecallCB
          CFI (cfiCond90) Conditional ??CrossCallReturnLabel_52
          CFI (cfiCond90) R6 load(1, XDATA, add(CFA_XSP16, literal(-13)))
          CFI (cfiCond90) VB load(1, XDATA, add(CFA_XSP16, literal(-12)))
          CFI (cfiCond90) V0 load(1, XDATA, add(CFA_XSP16, literal(-11)))
          CFI (cfiCond90) V1 load(1, XDATA, add(CFA_XSP16, literal(-10)))
          CFI (cfiCond90) V2 load(1, XDATA, add(CFA_XSP16, literal(-9)))
          CFI (cfiCond90) V3 load(1, XDATA, add(CFA_XSP16, literal(-8)))
          CFI (cfiCond90) V4 load(1, XDATA, add(CFA_XSP16, literal(-7)))
          CFI (cfiCond90) R7 load(1, XDATA, add(CFA_XSP16, literal(-6)))
          CFI (cfiCond90) ?RET_LOW load(1, XDATA, add(CFA_XSP16, literal(-5)))
          CFI (cfiCond90) ?RET_HIGH load(1, XDATA, add(CFA_XSP16, literal(-4)))
          CFI (cfiCond90) ?BRET_EXT load(1, XDATA, add(CFA_XSP16, literal(-3)))
          CFI (cfiCond90) DPL0 load(1, XDATA, add(CFA_XSP16, literal(-2)))
          CFI (cfiCond90) DPH0 load(1, XDATA, add(CFA_XSP16, literal(-1)))
          CFI (cfiCond90) CFA_SP SP+0
          CFI (cfiCond90) CFA_XSP16 add(XSP16, 37)
          CFI Block cfiCond91 Using cfiCommon0
          CFI (cfiCond91) Function zllSampleLight_SceneRecallCB
          CFI (cfiCond91) Conditional ??CrossCallReturnLabel_53
          CFI (cfiCond91) R6 load(1, XDATA, add(CFA_XSP16, literal(-13)))
          CFI (cfiCond91) VB load(1, XDATA, add(CFA_XSP16, literal(-12)))
          CFI (cfiCond91) V0 load(1, XDATA, add(CFA_XSP16, literal(-11)))
          CFI (cfiCond91) V1 load(1, XDATA, add(CFA_XSP16, literal(-10)))
          CFI (cfiCond91) V2 load(1, XDATA, add(CFA_XSP16, literal(-9)))
          CFI (cfiCond91) V3 load(1, XDATA, add(CFA_XSP16, literal(-8)))
          CFI (cfiCond91) V4 load(1, XDATA, add(CFA_XSP16, literal(-7)))
          CFI (cfiCond91) R7 load(1, XDATA, add(CFA_XSP16, literal(-6)))
          CFI (cfiCond91) ?RET_LOW load(1, XDATA, add(CFA_XSP16, literal(-5)))
          CFI (cfiCond91) ?RET_HIGH load(1, XDATA, add(CFA_XSP16, literal(-4)))
          CFI (cfiCond91) ?BRET_EXT load(1, XDATA, add(CFA_XSP16, literal(-3)))
          CFI (cfiCond91) DPL0 load(1, XDATA, add(CFA_XSP16, literal(-2)))
          CFI (cfiCond91) DPH0 load(1, XDATA, add(CFA_XSP16, literal(-1)))
          CFI (cfiCond91) CFA_SP SP+0
          CFI (cfiCond91) CFA_XSP16 add(XSP16, 37)
          CFI Block cfiCond92 Using cfiCommon0
          CFI (cfiCond92) Function zllSampleLight_SceneRecallCB
          CFI (cfiCond92) Conditional ??CrossCallReturnLabel_54
          CFI (cfiCond92) R6 load(1, XDATA, add(CFA_XSP16, literal(-13)))
          CFI (cfiCond92) VB load(1, XDATA, add(CFA_XSP16, literal(-12)))
          CFI (cfiCond92) V0 load(1, XDATA, add(CFA_XSP16, literal(-11)))
          CFI (cfiCond92) V1 load(1, XDATA, add(CFA_XSP16, literal(-10)))
          CFI (cfiCond92) V2 load(1, XDATA, add(CFA_XSP16, literal(-9)))
          CFI (cfiCond92) V3 load(1, XDATA, add(CFA_XSP16, literal(-8)))
          CFI (cfiCond92) V4 load(1, XDATA, add(CFA_XSP16, literal(-7)))
          CFI (cfiCond92) R7 load(1, XDATA, add(CFA_XSP16, literal(-6)))
          CFI (cfiCond92) ?RET_LOW load(1, XDATA, add(CFA_XSP16, literal(-5)))
          CFI (cfiCond92) ?RET_HIGH load(1, XDATA, add(CFA_XSP16, literal(-4)))
          CFI (cfiCond92) ?BRET_EXT load(1, XDATA, add(CFA_XSP16, literal(-3)))
          CFI (cfiCond92) DPL0 load(1, XDATA, add(CFA_XSP16, literal(-2)))
          CFI (cfiCond92) DPH0 load(1, XDATA, add(CFA_XSP16, literal(-1)))
          CFI (cfiCond92) CFA_SP SP+0
          CFI (cfiCond92) CFA_XSP16 add(XSP16, 37)
          CFI Block cfiCond93 Using cfiCommon0
          CFI (cfiCond93) Function zllSampleLight_SceneRecallCB
          CFI (cfiCond93) Conditional ??CrossCallReturnLabel_55
          CFI (cfiCond93) R6 load(1, XDATA, add(CFA_XSP16, literal(-13)))
          CFI (cfiCond93) VB load(1, XDATA, add(CFA_XSP16, literal(-12)))
          CFI (cfiCond93) V0 load(1, XDATA, add(CFA_XSP16, literal(-11)))
          CFI (cfiCond93) V1 load(1, XDATA, add(CFA_XSP16, literal(-10)))
          CFI (cfiCond93) V2 load(1, XDATA, add(CFA_XSP16, literal(-9)))
          CFI (cfiCond93) V3 load(1, XDATA, add(CFA_XSP16, literal(-8)))
          CFI (cfiCond93) V4 load(1, XDATA, add(CFA_XSP16, literal(-7)))
          CFI (cfiCond93) R7 load(1, XDATA, add(CFA_XSP16, literal(-6)))
          CFI (cfiCond93) ?RET_LOW load(1, XDATA, add(CFA_XSP16, literal(-5)))
          CFI (cfiCond93) ?RET_HIGH load(1, XDATA, add(CFA_XSP16, literal(-4)))
          CFI (cfiCond93) ?BRET_EXT load(1, XDATA, add(CFA_XSP16, literal(-3)))
          CFI (cfiCond93) DPL0 load(1, XDATA, add(CFA_XSP16, literal(-2)))
          CFI (cfiCond93) DPH0 load(1, XDATA, add(CFA_XSP16, literal(-1)))
          CFI (cfiCond93) CFA_SP SP+0
          CFI (cfiCond93) CFA_XSP16 add(XSP16, 37)
          CFI Block cfiCond94 Using cfiCommon0
          CFI (cfiCond94) Function zllSampleLight_SceneRecallCB
          CFI (cfiCond94) Conditional ??CrossCallReturnLabel_56
          CFI (cfiCond94) R6 load(1, XDATA, add(CFA_XSP16, literal(-13)))
          CFI (cfiCond94) VB load(1, XDATA, add(CFA_XSP16, literal(-12)))
          CFI (cfiCond94) V0 load(1, XDATA, add(CFA_XSP16, literal(-11)))
          CFI (cfiCond94) V1 load(1, XDATA, add(CFA_XSP16, literal(-10)))
          CFI (cfiCond94) V2 load(1, XDATA, add(CFA_XSP16, literal(-9)))
          CFI (cfiCond94) V3 load(1, XDATA, add(CFA_XSP16, literal(-8)))
          CFI (cfiCond94) V4 load(1, XDATA, add(CFA_XSP16, literal(-7)))
          CFI (cfiCond94) R7 load(1, XDATA, add(CFA_XSP16, literal(-6)))
          CFI (cfiCond94) ?RET_LOW load(1, XDATA, add(CFA_XSP16, literal(-5)))
          CFI (cfiCond94) ?RET_HIGH load(1, XDATA, add(CFA_XSP16, literal(-4)))
          CFI (cfiCond94) ?BRET_EXT load(1, XDATA, add(CFA_XSP16, literal(-3)))
          CFI (cfiCond94) DPL0 load(1, XDATA, add(CFA_XSP16, literal(-2)))
          CFI (cfiCond94) DPH0 load(1, XDATA, add(CFA_XSP16, literal(-1)))
          CFI (cfiCond94) CFA_SP SP+0
          CFI (cfiCond94) CFA_XSP16 add(XSP16, 37)
          CFI Block cfiPicker95 Using cfiCommon1
          CFI (cfiPicker95) NoFunction
          CFI (cfiPicker95) Picker
        MOVX    A,@DPTR
        MOV     R1,A
        MOV     A,R2
        MOV     R0,A
        RET
          CFI EndBlock cfiCond89
          CFI EndBlock cfiCond90
          CFI EndBlock cfiCond91
          CFI EndBlock cfiCond92
          CFI EndBlock cfiCond93
          CFI EndBlock cfiCond94
          CFI EndBlock cfiPicker95

        RSEG BANKED_CODE:CODE:NOROOT(0)
?Subroutine13:
          CFI Block cfiCond96 Using cfiCommon0
          CFI Function zllSampleLight_IdentifyCB
          CFI Conditional ??CrossCallReturnLabel_61
          CFI DPL0 Frame(CFA_SP, 4)
          CFI DPH0 Frame(CFA_SP, 5)
          CFI CFA_SP SP+-5
          CFI Block cfiCond97 Using cfiCommon0
          CFI (cfiCond97) Function zllSampleLight_OnOff_OnWithTimedOffCB
          CFI (cfiCond97) Conditional ??CrossCallReturnLabel_62
          CFI (cfiCond97) R6 load(1, XDATA, add(CFA_XSP16, literal(-10)))
          CFI (cfiCond97) VB load(1, XDATA, add(CFA_XSP16, literal(-9)))
          CFI (cfiCond97) V0 load(1, XDATA, add(CFA_XSP16, literal(-8)))
          CFI (cfiCond97) V1 load(1, XDATA, add(CFA_XSP16, literal(-7)))
          CFI (cfiCond97) R7 load(1, XDATA, add(CFA_XSP16, literal(-6)))
          CFI (cfiCond97) ?RET_LOW load(1, XDATA, add(CFA_XSP16, literal(-5)))
          CFI (cfiCond97) ?RET_HIGH load(1, XDATA, add(CFA_XSP16, literal(-4)))
          CFI (cfiCond97) ?BRET_EXT load(1, XDATA, add(CFA_XSP16, literal(-3)))
          CFI (cfiCond97) DPL0 load(1, XDATA, add(CFA_XSP16, literal(-2)))
          CFI (cfiCond97) DPH0 load(1, XDATA, add(CFA_XSP16, literal(-1)))
          CFI (cfiCond97) CFA_SP SP+0
          CFI (cfiCond97) CFA_XSP16 add(XSP16, 10)
          CFI Block cfiPicker98 Using cfiCommon1
          CFI (cfiPicker98) NoFunction
          CFI (cfiPicker98) Picker
        MOV     DPL,R2
        MOV     DPH,R3
          CFI EndBlock cfiCond96
          CFI EndBlock cfiCond97
          CFI EndBlock cfiPicker98
        REQUIRE ??Subroutine25_0
        ; // Fall through to label ??Subroutine25_0

        RSEG BANKED_CODE:CODE:NOROOT(0)
??Subroutine25_0:
          CFI Block cfiCond99 Using cfiCommon0
          CFI Function zllSampleLight_SceneRecallCB
          CFI Conditional ??CrossCallReturnLabel_60
          CFI R6 load(1, XDATA, add(CFA_XSP16, literal(-13)))
          CFI VB load(1, XDATA, add(CFA_XSP16, literal(-12)))
          CFI V0 load(1, XDATA, add(CFA_XSP16, literal(-11)))
          CFI V1 load(1, XDATA, add(CFA_XSP16, literal(-10)))
          CFI V2 load(1, XDATA, add(CFA_XSP16, literal(-9)))
          CFI V3 load(1, XDATA, add(CFA_XSP16, literal(-8)))
          CFI V4 load(1, XDATA, add(CFA_XSP16, literal(-7)))
          CFI R7 load(1, XDATA, add(CFA_XSP16, literal(-6)))
          CFI ?RET_LOW load(1, XDATA, add(CFA_XSP16, literal(-5)))
          CFI ?RET_HIGH load(1, XDATA, add(CFA_XSP16, literal(-4)))
          CFI ?BRET_EXT load(1, XDATA, add(CFA_XSP16, literal(-3)))
          CFI DPL0 load(1, XDATA, add(CFA_XSP16, literal(-2)))
          CFI DPH0 load(1, XDATA, add(CFA_XSP16, literal(-1)))
          CFI CFA_SP SP+0
          CFI CFA_XSP16 add(XSP16, 37)
          CFI Block cfiCond100 Using cfiCommon0
          CFI (cfiCond100) Function zllSampleLight_IdentifyCB
          CFI (cfiCond100) Conditional ??CrossCallReturnLabel_61
          CFI (cfiCond100) DPL0 Frame(CFA_SP, 4)
          CFI (cfiCond100) DPH0 Frame(CFA_SP, 5)
          CFI (cfiCond100) CFA_SP SP+-5
          CFI Block cfiCond101 Using cfiCommon0
          CFI (cfiCond101) Function zllSampleLight_OnOff_OnWithTimedOffCB
          CFI (cfiCond101) Conditional ??CrossCallReturnLabel_62
          CFI (cfiCond101) R6 load(1, XDATA, add(CFA_XSP16, literal(-10)))
          CFI (cfiCond101) VB load(1, XDATA, add(CFA_XSP16, literal(-9)))
          CFI (cfiCond101) V0 load(1, XDATA, add(CFA_XSP16, literal(-8)))
          CFI (cfiCond101) V1 load(1, XDATA, add(CFA_XSP16, literal(-7)))
          CFI (cfiCond101) R7 load(1, XDATA, add(CFA_XSP16, literal(-6)))
          CFI (cfiCond101) ?RET_LOW load(1, XDATA, add(CFA_XSP16, literal(-5)))
          CFI (cfiCond101) ?RET_HIGH load(1, XDATA, add(CFA_XSP16, literal(-4)))
          CFI (cfiCond101) ?BRET_EXT load(1, XDATA, add(CFA_XSP16, literal(-3)))
          CFI (cfiCond101) DPL0 load(1, XDATA, add(CFA_XSP16, literal(-2)))
          CFI (cfiCond101) DPH0 load(1, XDATA, add(CFA_XSP16, literal(-1)))
          CFI (cfiCond101) CFA_SP SP+0
          CFI (cfiCond101) CFA_XSP16 add(XSP16, 10)
          CFI Block cfiPicker102 Using cfiCommon1
          CFI (cfiPicker102) NoFunction
          CFI (cfiPicker102) Picker
        INC     DPTR
        INC     DPTR
          CFI EndBlock cfiCond99
          CFI EndBlock cfiCond100
          CFI EndBlock cfiCond101
          CFI EndBlock cfiPicker102
        REQUIRE ??Subroutine26_0
        ; // Fall through to label ??Subroutine26_0

        RSEG BANKED_CODE:CODE:NOROOT(0)
??Subroutine26_0:
          CFI Block cfiCond103 Using cfiCommon0
          CFI Function zllSampleLight_OnOff_OnWithTimedOffCB
          CFI Conditional ??CrossCallReturnLabel_57
          CFI R6 load(1, XDATA, add(CFA_XSP16, literal(-10)))
          CFI VB load(1, XDATA, add(CFA_XSP16, literal(-9)))
          CFI V0 load(1, XDATA, add(CFA_XSP16, literal(-8)))
          CFI V1 load(1, XDATA, add(CFA_XSP16, literal(-7)))
          CFI R7 load(1, XDATA, add(CFA_XSP16, literal(-6)))
          CFI ?RET_LOW load(1, XDATA, add(CFA_XSP16, literal(-5)))
          CFI ?RET_HIGH load(1, XDATA, add(CFA_XSP16, literal(-4)))
          CFI ?BRET_EXT load(1, XDATA, add(CFA_XSP16, literal(-3)))
          CFI DPL0 load(1, XDATA, add(CFA_XSP16, literal(-2)))
          CFI DPH0 load(1, XDATA, add(CFA_XSP16, literal(-1)))
          CFI CFA_SP SP+0
          CFI CFA_XSP16 add(XSP16, 10)
          CFI Block cfiCond104 Using cfiCommon0
          CFI (cfiCond104) Function zllSampleLight_SceneRecallCB
          CFI (cfiCond104) Conditional ??CrossCallReturnLabel_58
          CFI (cfiCond104) R6 load(1, XDATA, add(CFA_XSP16, literal(-13)))
          CFI (cfiCond104) VB load(1, XDATA, add(CFA_XSP16, literal(-12)))
          CFI (cfiCond104) V0 load(1, XDATA, add(CFA_XSP16, literal(-11)))
          CFI (cfiCond104) V1 load(1, XDATA, add(CFA_XSP16, literal(-10)))
          CFI (cfiCond104) V2 load(1, XDATA, add(CFA_XSP16, literal(-9)))
          CFI (cfiCond104) V3 load(1, XDATA, add(CFA_XSP16, literal(-8)))
          CFI (cfiCond104) V4 load(1, XDATA, add(CFA_XSP16, literal(-7)))
          CFI (cfiCond104) R7 load(1, XDATA, add(CFA_XSP16, literal(-6)))
          CFI (cfiCond104) ?RET_LOW load(1, XDATA, add(CFA_XSP16, literal(-5)))
          CFI (cfiCond104) ?RET_HIGH load(1, XDATA, add(CFA_XSP16, literal(-4)))
          CFI (cfiCond104) ?BRET_EXT load(1, XDATA, add(CFA_XSP16, literal(-3)))
          CFI (cfiCond104) DPL0 load(1, XDATA, add(CFA_XSP16, literal(-2)))
          CFI (cfiCond104) DPH0 load(1, XDATA, add(CFA_XSP16, literal(-1)))
          CFI (cfiCond104) CFA_SP SP+0
          CFI (cfiCond104) CFA_XSP16 add(XSP16, 37)
          CFI Block cfiCond105 Using cfiCommon0
          CFI (cfiCond105) Function zllSampleLight_SceneRecallCB
          CFI (cfiCond105) Conditional ??CrossCallReturnLabel_59
          CFI (cfiCond105) R6 load(1, XDATA, add(CFA_XSP16, literal(-13)))
          CFI (cfiCond105) VB load(1, XDATA, add(CFA_XSP16, literal(-12)))
          CFI (cfiCond105) V0 load(1, XDATA, add(CFA_XSP16, literal(-11)))
          CFI (cfiCond105) V1 load(1, XDATA, add(CFA_XSP16, literal(-10)))
          CFI (cfiCond105) V2 load(1, XDATA, add(CFA_XSP16, literal(-9)))
          CFI (cfiCond105) V3 load(1, XDATA, add(CFA_XSP16, literal(-8)))
          CFI (cfiCond105) V4 load(1, XDATA, add(CFA_XSP16, literal(-7)))
          CFI (cfiCond105) R7 load(1, XDATA, add(CFA_XSP16, literal(-6)))
          CFI (cfiCond105) ?RET_LOW load(1, XDATA, add(CFA_XSP16, literal(-5)))
          CFI (cfiCond105) ?RET_HIGH load(1, XDATA, add(CFA_XSP16, literal(-4)))
          CFI (cfiCond105) ?BRET_EXT load(1, XDATA, add(CFA_XSP16, literal(-3)))
          CFI (cfiCond105) DPL0 load(1, XDATA, add(CFA_XSP16, literal(-2)))
          CFI (cfiCond105) DPH0 load(1, XDATA, add(CFA_XSP16, literal(-1)))
          CFI (cfiCond105) CFA_SP SP+0
          CFI (cfiCond105) CFA_XSP16 add(XSP16, 37)
          CFI Block cfiCond106 Using cfiCommon0
          CFI (cfiCond106) Function zllSampleLight_SceneRecallCB
          CFI (cfiCond106) Conditional ??CrossCallReturnLabel_60
          CFI (cfiCond106) R6 load(1, XDATA, add(CFA_XSP16, literal(-13)))
          CFI (cfiCond106) VB load(1, XDATA, add(CFA_XSP16, literal(-12)))
          CFI (cfiCond106) V0 load(1, XDATA, add(CFA_XSP16, literal(-11)))
          CFI (cfiCond106) V1 load(1, XDATA, add(CFA_XSP16, literal(-10)))
          CFI (cfiCond106) V2 load(1, XDATA, add(CFA_XSP16, literal(-9)))
          CFI (cfiCond106) V3 load(1, XDATA, add(CFA_XSP16, literal(-8)))
          CFI (cfiCond106) V4 load(1, XDATA, add(CFA_XSP16, literal(-7)))
          CFI (cfiCond106) R7 load(1, XDATA, add(CFA_XSP16, literal(-6)))
          CFI (cfiCond106) ?RET_LOW load(1, XDATA, add(CFA_XSP16, literal(-5)))
          CFI (cfiCond106) ?RET_HIGH load(1, XDATA, add(CFA_XSP16, literal(-4)))
          CFI (cfiCond106) ?BRET_EXT load(1, XDATA, add(CFA_XSP16, literal(-3)))
          CFI (cfiCond106) DPL0 load(1, XDATA, add(CFA_XSP16, literal(-2)))
          CFI (cfiCond106) DPH0 load(1, XDATA, add(CFA_XSP16, literal(-1)))
          CFI (cfiCond106) CFA_SP SP+0
          CFI (cfiCond106) CFA_XSP16 add(XSP16, 37)
          CFI Block cfiCond107 Using cfiCommon0
          CFI (cfiCond107) Function zllSampleLight_IdentifyCB
          CFI (cfiCond107) Conditional ??CrossCallReturnLabel_61
          CFI (cfiCond107) DPL0 Frame(CFA_SP, 4)
          CFI (cfiCond107) DPH0 Frame(CFA_SP, 5)
          CFI (cfiCond107) CFA_SP SP+-5
          CFI Block cfiCond108 Using cfiCommon0
          CFI (cfiCond108) Function zllSampleLight_OnOff_OnWithTimedOffCB
          CFI (cfiCond108) Conditional ??CrossCallReturnLabel_62
          CFI (cfiCond108) R6 load(1, XDATA, add(CFA_XSP16, literal(-10)))
          CFI (cfiCond108) VB load(1, XDATA, add(CFA_XSP16, literal(-9)))
          CFI (cfiCond108) V0 load(1, XDATA, add(CFA_XSP16, literal(-8)))
          CFI (cfiCond108) V1 load(1, XDATA, add(CFA_XSP16, literal(-7)))
          CFI (cfiCond108) R7 load(1, XDATA, add(CFA_XSP16, literal(-6)))
          CFI (cfiCond108) ?RET_LOW load(1, XDATA, add(CFA_XSP16, literal(-5)))
          CFI (cfiCond108) ?RET_HIGH load(1, XDATA, add(CFA_XSP16, literal(-4)))
          CFI (cfiCond108) ?BRET_EXT load(1, XDATA, add(CFA_XSP16, literal(-3)))
          CFI (cfiCond108) DPL0 load(1, XDATA, add(CFA_XSP16, literal(-2)))
          CFI (cfiCond108) DPH0 load(1, XDATA, add(CFA_XSP16, literal(-1)))
          CFI (cfiCond108) CFA_SP SP+0
          CFI (cfiCond108) CFA_XSP16 add(XSP16, 10)
          CFI Block cfiPicker109 Using cfiCommon1
          CFI (cfiPicker109) NoFunction
          CFI (cfiPicker109) Picker
        MOVX    A,@DPTR
        MOV     R0,A
        INC     DPTR
        MOVX    A,@DPTR
        MOV     R1,A
        RET
          CFI EndBlock cfiCond103
          CFI EndBlock cfiCond104
          CFI EndBlock cfiCond105
          CFI EndBlock cfiCond106
          CFI EndBlock cfiCond107
          CFI EndBlock cfiCond108
          CFI EndBlock cfiPicker109

        RSEG BANKED_CODE:CODE:NOROOT(0)
?Subroutine11:
          CFI Block cfiCond110 Using cfiCommon0
          CFI Function zllSampleLight_SceneRecallCB
          CFI Conditional ??CrossCallReturnLabel_28
          CFI R6 load(1, XDATA, add(CFA_XSP16, literal(-13)))
          CFI VB load(1, XDATA, add(CFA_XSP16, literal(-12)))
          CFI V0 load(1, XDATA, add(CFA_XSP16, literal(-11)))
          CFI V1 load(1, XDATA, add(CFA_XSP16, literal(-10)))
          CFI V2 load(1, XDATA, add(CFA_XSP16, literal(-9)))
          CFI V3 load(1, XDATA, add(CFA_XSP16, literal(-8)))
          CFI V4 load(1, XDATA, add(CFA_XSP16, literal(-7)))
          CFI R7 load(1, XDATA, add(CFA_XSP16, literal(-6)))
          CFI ?RET_LOW load(1, XDATA, add(CFA_XSP16, literal(-5)))
          CFI ?RET_HIGH load(1, XDATA, add(CFA_XSP16, literal(-4)))
          CFI ?BRET_EXT load(1, XDATA, add(CFA_XSP16, literal(-3)))
          CFI DPL0 load(1, XDATA, add(CFA_XSP16, literal(-2)))
          CFI DPH0 load(1, XDATA, add(CFA_XSP16, literal(-1)))
          CFI CFA_SP SP+0
          CFI CFA_XSP16 add(XSP16, 37)
          CFI Block cfiCond111 Using cfiCommon0
          CFI (cfiCond111) Function zllSampleLight_SceneRecallCB
          CFI (cfiCond111) Conditional ??CrossCallReturnLabel_29
          CFI (cfiCond111) R6 load(1, XDATA, add(CFA_XSP16, literal(-13)))
          CFI (cfiCond111) VB load(1, XDATA, add(CFA_XSP16, literal(-12)))
          CFI (cfiCond111) V0 load(1, XDATA, add(CFA_XSP16, literal(-11)))
          CFI (cfiCond111) V1 load(1, XDATA, add(CFA_XSP16, literal(-10)))
          CFI (cfiCond111) V2 load(1, XDATA, add(CFA_XSP16, literal(-9)))
          CFI (cfiCond111) V3 load(1, XDATA, add(CFA_XSP16, literal(-8)))
          CFI (cfiCond111) V4 load(1, XDATA, add(CFA_XSP16, literal(-7)))
          CFI (cfiCond111) R7 load(1, XDATA, add(CFA_XSP16, literal(-6)))
          CFI (cfiCond111) ?RET_LOW load(1, XDATA, add(CFA_XSP16, literal(-5)))
          CFI (cfiCond111) ?RET_HIGH load(1, XDATA, add(CFA_XSP16, literal(-4)))
          CFI (cfiCond111) ?BRET_EXT load(1, XDATA, add(CFA_XSP16, literal(-3)))
          CFI (cfiCond111) DPL0 load(1, XDATA, add(CFA_XSP16, literal(-2)))
          CFI (cfiCond111) DPH0 load(1, XDATA, add(CFA_XSP16, literal(-1)))
          CFI (cfiCond111) CFA_SP SP+0
          CFI (cfiCond111) CFA_XSP16 add(XSP16, 37)
          CFI Block cfiPicker112 Using cfiCommon1
          CFI (cfiPicker112) NoFunction
          CFI (cfiPicker112) Picker
        MOV     DPL,?V0 + 0
        MOV     DPH,?V0 + 1
        MOVX    A,@DPTR
        MOV     R0,A
        INC     DPTR
        MOVX    A,@DPTR
        MOV     R1,A
        MOV     DPL,R0
        MOV     DPH,R1
        INC     DPTR
        INC     DPTR
        INC     DPTR
        MOVX    A,@DPTR
        MOV     R2,A
        INC     DPTR
        MOVX    A,@DPTR
        MOV     R3,A
        MOV     A,R2
        MOV     B,#0xa
        MUL     AB
        MOV     R2,A
        MOV     R4,B
        MOV     B,#0xa
        MOV     A,R3
        MUL     AB
        ADD     A,R4
        MOV     R3,A
        MOV     DPL,R0
        MOV     DPH,R1
        INC     DPTR
        INC     DPTR
        INC     DPTR
        INC     DPTR
        INC     DPTR
        MOVX    A,@DPTR
        ADD     A,R2
        MOV     R0,A
        INC     DPTR
        MOVX    A,@DPTR
        ADDC    A,R3
        MOV     R1,A
        RET
          CFI EndBlock cfiCond110
          CFI EndBlock cfiCond111
          CFI EndBlock cfiPicker112

        RSEG BANKED_CODE:CODE:NOROOT(0)
?Subroutine10:
          CFI Block cfiCond113 Using cfiCommon0
          CFI Function zllSampleLight_SceneRecallCB
          CFI Conditional ??CrossCallReturnLabel_26
          CFI R6 load(1, XDATA, add(CFA_XSP16, literal(-13)))
          CFI VB load(1, XDATA, add(CFA_XSP16, literal(-12)))
          CFI V0 load(1, XDATA, add(CFA_XSP16, literal(-11)))
          CFI V1 load(1, XDATA, add(CFA_XSP16, literal(-10)))
          CFI V2 load(1, XDATA, add(CFA_XSP16, literal(-9)))
          CFI V3 load(1, XDATA, add(CFA_XSP16, literal(-8)))
          CFI V4 load(1, XDATA, add(CFA_XSP16, literal(-7)))
          CFI R7 load(1, XDATA, add(CFA_XSP16, literal(-6)))
          CFI ?RET_LOW load(1, XDATA, add(CFA_XSP16, literal(-5)))
          CFI ?RET_HIGH load(1, XDATA, add(CFA_XSP16, literal(-4)))
          CFI ?BRET_EXT load(1, XDATA, add(CFA_XSP16, literal(-3)))
          CFI DPL0 load(1, XDATA, add(CFA_XSP16, literal(-2)))
          CFI DPH0 load(1, XDATA, add(CFA_XSP16, literal(-1)))
          CFI CFA_SP SP+0
          CFI CFA_XSP16 add(XSP16, 37)
          CFI Block cfiCond114 Using cfiCommon0
          CFI (cfiCond114) Function zllSampleLight_SceneRecallCB
          CFI (cfiCond114) Conditional ??CrossCallReturnLabel_27
          CFI (cfiCond114) R6 load(1, XDATA, add(CFA_XSP16, literal(-13)))
          CFI (cfiCond114) VB load(1, XDATA, add(CFA_XSP16, literal(-12)))
          CFI (cfiCond114) V0 load(1, XDATA, add(CFA_XSP16, literal(-11)))
          CFI (cfiCond114) V1 load(1, XDATA, add(CFA_XSP16, literal(-10)))
          CFI (cfiCond114) V2 load(1, XDATA, add(CFA_XSP16, literal(-9)))
          CFI (cfiCond114) V3 load(1, XDATA, add(CFA_XSP16, literal(-8)))
          CFI (cfiCond114) V4 load(1, XDATA, add(CFA_XSP16, literal(-7)))
          CFI (cfiCond114) R7 load(1, XDATA, add(CFA_XSP16, literal(-6)))
          CFI (cfiCond114) ?RET_LOW load(1, XDATA, add(CFA_XSP16, literal(-5)))
          CFI (cfiCond114) ?RET_HIGH load(1, XDATA, add(CFA_XSP16, literal(-4)))
          CFI (cfiCond114) ?BRET_EXT load(1, XDATA, add(CFA_XSP16, literal(-3)))
          CFI (cfiCond114) DPL0 load(1, XDATA, add(CFA_XSP16, literal(-2)))
          CFI (cfiCond114) DPH0 load(1, XDATA, add(CFA_XSP16, literal(-1)))
          CFI (cfiCond114) CFA_SP SP+0
          CFI (cfiCond114) CFA_XSP16 add(XSP16, 37)
          CFI Block cfiPicker115 Using cfiCommon1
          CFI (cfiPicker115) NoFunction
          CFI (cfiPicker115) Picker
        MOVX    @DPTR,A
        MOV     DPL,R6
        MOV     DPH,R7
        INC     DPTR
        INC     R6
        MOV     R7,DPH
        RET
          CFI EndBlock cfiCond113
          CFI EndBlock cfiCond114
          CFI EndBlock cfiPicker115

        RSEG BANKED_CODE:CODE:NOROOT(0)
?Subroutine9:
          CFI Block cfiCond116 Using cfiCommon0
          CFI Function zllSampleLight_OnOff_OnWithTimedOffCB
          CFI Conditional ??CrossCallReturnLabel_23
          CFI R6 load(1, XDATA, add(CFA_XSP16, literal(-10)))
          CFI VB load(1, XDATA, add(CFA_XSP16, literal(-9)))
          CFI V0 load(1, XDATA, add(CFA_XSP16, literal(-8)))
          CFI V1 load(1, XDATA, add(CFA_XSP16, literal(-7)))
          CFI R7 load(1, XDATA, add(CFA_XSP16, literal(-6)))
          CFI ?RET_LOW load(1, XDATA, add(CFA_XSP16, literal(-5)))
          CFI ?RET_HIGH load(1, XDATA, add(CFA_XSP16, literal(-4)))
          CFI ?BRET_EXT load(1, XDATA, add(CFA_XSP16, literal(-3)))
          CFI DPL0 load(1, XDATA, add(CFA_XSP16, literal(-2)))
          CFI DPH0 load(1, XDATA, add(CFA_XSP16, literal(-1)))
          CFI CFA_SP SP+0
          CFI CFA_XSP16 add(XSP16, 10)
          CFI Block cfiCond117 Using cfiCommon0
          CFI (cfiCond117) Function zllSampleLight_SceneRecallCB
          CFI (cfiCond117) Conditional ??CrossCallReturnLabel_24
          CFI (cfiCond117) R6 load(1, XDATA, add(CFA_XSP16, literal(-13)))
          CFI (cfiCond117) VB load(1, XDATA, add(CFA_XSP16, literal(-12)))
          CFI (cfiCond117) V0 load(1, XDATA, add(CFA_XSP16, literal(-11)))
          CFI (cfiCond117) V1 load(1, XDATA, add(CFA_XSP16, literal(-10)))
          CFI (cfiCond117) V2 load(1, XDATA, add(CFA_XSP16, literal(-9)))
          CFI (cfiCond117) V3 load(1, XDATA, add(CFA_XSP16, literal(-8)))
          CFI (cfiCond117) V4 load(1, XDATA, add(CFA_XSP16, literal(-7)))
          CFI (cfiCond117) R7 load(1, XDATA, add(CFA_XSP16, literal(-6)))
          CFI (cfiCond117) ?RET_LOW load(1, XDATA, add(CFA_XSP16, literal(-5)))
          CFI (cfiCond117) ?RET_HIGH load(1, XDATA, add(CFA_XSP16, literal(-4)))
          CFI (cfiCond117) ?BRET_EXT load(1, XDATA, add(CFA_XSP16, literal(-3)))
          CFI (cfiCond117) DPL0 load(1, XDATA, add(CFA_XSP16, literal(-2)))
          CFI (cfiCond117) DPH0 load(1, XDATA, add(CFA_XSP16, literal(-1)))
          CFI (cfiCond117) CFA_SP SP+0
          CFI (cfiCond117) CFA_XSP16 add(XSP16, 37)
          CFI Block cfiCond118 Using cfiCommon0
          CFI (cfiCond118) Function zllSampleLight_SceneRecallCB
          CFI (cfiCond118) Conditional ??CrossCallReturnLabel_25
          CFI (cfiCond118) R6 load(1, XDATA, add(CFA_XSP16, literal(-13)))
          CFI (cfiCond118) VB load(1, XDATA, add(CFA_XSP16, literal(-12)))
          CFI (cfiCond118) V0 load(1, XDATA, add(CFA_XSP16, literal(-11)))
          CFI (cfiCond118) V1 load(1, XDATA, add(CFA_XSP16, literal(-10)))
          CFI (cfiCond118) V2 load(1, XDATA, add(CFA_XSP16, literal(-9)))
          CFI (cfiCond118) V3 load(1, XDATA, add(CFA_XSP16, literal(-8)))
          CFI (cfiCond118) V4 load(1, XDATA, add(CFA_XSP16, literal(-7)))
          CFI (cfiCond118) R7 load(1, XDATA, add(CFA_XSP16, literal(-6)))
          CFI (cfiCond118) ?RET_LOW load(1, XDATA, add(CFA_XSP16, literal(-5)))
          CFI (cfiCond118) ?RET_HIGH load(1, XDATA, add(CFA_XSP16, literal(-4)))
          CFI (cfiCond118) ?BRET_EXT load(1, XDATA, add(CFA_XSP16, literal(-3)))
          CFI (cfiCond118) DPL0 load(1, XDATA, add(CFA_XSP16, literal(-2)))
          CFI (cfiCond118) DPH0 load(1, XDATA, add(CFA_XSP16, literal(-1)))
          CFI (cfiCond118) CFA_SP SP+0
          CFI (cfiCond118) CFA_XSP16 add(XSP16, 37)
          CFI Block cfiPicker119 Using cfiCommon1
          CFI (cfiPicker119) NoFunction
          CFI (cfiPicker119) Picker
        MOVX    @DPTR,A
        MOV     DPL,R6
        MOV     DPH,R7
        MOVX    A,@DPTR
        RET
          CFI EndBlock cfiCond116
          CFI EndBlock cfiCond117
          CFI EndBlock cfiCond118
          CFI EndBlock cfiPicker119

        RSEG BANKED_CODE:CODE:NOROOT(0)
?Subroutine6:
          CFI Block cfiCond120 Using cfiCommon0
          CFI Function zllSampleLight_SceneRecallCB
          CFI Conditional ??CrossCallReturnLabel_11
          CFI R6 load(1, XDATA, add(CFA_XSP16, literal(-13)))
          CFI VB load(1, XDATA, add(CFA_XSP16, literal(-12)))
          CFI V0 load(1, XDATA, add(CFA_XSP16, literal(-11)))
          CFI V1 load(1, XDATA, add(CFA_XSP16, literal(-10)))
          CFI V2 load(1, XDATA, add(CFA_XSP16, literal(-9)))
          CFI V3 load(1, XDATA, add(CFA_XSP16, literal(-8)))
          CFI V4 load(1, XDATA, add(CFA_XSP16, literal(-7)))
          CFI R7 load(1, XDATA, add(CFA_XSP16, literal(-6)))
          CFI ?RET_LOW load(1, XDATA, add(CFA_XSP16, literal(-5)))
          CFI ?RET_HIGH load(1, XDATA, add(CFA_XSP16, literal(-4)))
          CFI ?BRET_EXT load(1, XDATA, add(CFA_XSP16, literal(-3)))
          CFI DPL0 load(1, XDATA, add(CFA_XSP16, literal(-2)))
          CFI DPH0 load(1, XDATA, add(CFA_XSP16, literal(-1)))
          CFI CFA_SP SP+0
          CFI CFA_XSP16 add(XSP16, 37)
          CFI Block cfiCond121 Using cfiCommon0
          CFI (cfiCond121) Function zllSampleLight_SceneRecallCB
          CFI (cfiCond121) Conditional ??CrossCallReturnLabel_12
          CFI (cfiCond121) R6 load(1, XDATA, add(CFA_XSP16, literal(-13)))
          CFI (cfiCond121) VB load(1, XDATA, add(CFA_XSP16, literal(-12)))
          CFI (cfiCond121) V0 load(1, XDATA, add(CFA_XSP16, literal(-11)))
          CFI (cfiCond121) V1 load(1, XDATA, add(CFA_XSP16, literal(-10)))
          CFI (cfiCond121) V2 load(1, XDATA, add(CFA_XSP16, literal(-9)))
          CFI (cfiCond121) V3 load(1, XDATA, add(CFA_XSP16, literal(-8)))
          CFI (cfiCond121) V4 load(1, XDATA, add(CFA_XSP16, literal(-7)))
          CFI (cfiCond121) R7 load(1, XDATA, add(CFA_XSP16, literal(-6)))
          CFI (cfiCond121) ?RET_LOW load(1, XDATA, add(CFA_XSP16, literal(-5)))
          CFI (cfiCond121) ?RET_HIGH load(1, XDATA, add(CFA_XSP16, literal(-4)))
          CFI (cfiCond121) ?BRET_EXT load(1, XDATA, add(CFA_XSP16, literal(-3)))
          CFI (cfiCond121) DPL0 load(1, XDATA, add(CFA_XSP16, literal(-2)))
          CFI (cfiCond121) DPH0 load(1, XDATA, add(CFA_XSP16, literal(-1)))
          CFI (cfiCond121) CFA_SP SP+0
          CFI (cfiCond121) CFA_XSP16 add(XSP16, 37)
          CFI Block cfiPicker122 Using cfiCommon1
          CFI (cfiPicker122) NoFunction
          CFI (cfiPicker122) Picker
        MOV     A,R0
        MOVX    @DPTR,A
        INC     DPTR
        MOV     A,R1
        MOVX    @DPTR,A
        MOV     A,R6
        ADD     A,#0x2
        MOV     R6,A
        MOV     A,R7
        ADDC    A,#0x0
        MOV     R7,A
        RET
          CFI EndBlock cfiCond120
          CFI EndBlock cfiCond121
          CFI EndBlock cfiPicker122

        RSEG XDATA_ID:CODE:NOROOT(0)
`?<Initializer for zllSampleLight_GenCmdCBs>`:
        DATA16
        DW ??zllSampleLight_BasicResetCB?relay
        DW ??zllSampleLight_IdentifyCB?relay
        DW ??zllSampleLight_IdentifyEffectCB?relay
        DW ??zllSampleLight_IdentifyQueryRspCB?relay
        DW ??zllSampleLight_OnOffCB?relay
        DW ??zllSampleLight_OnOff_OffWithEffectCB?relay
        DW ??zllSampleLight_OnOff_OnWithRecallGlobalSceneC
        DW ??zllSampleLight_OnOff_OnWithTimedOffCB?relay
        DW ??zclLevel_MoveToLevelCB?relay
        DW ??zclLevel_MoveCB?relay
        DW ??zclLevel_StepCB?relay
        DW ??zclLevel_StopCB?relay
        DW 0H
        DW ??zllSampleLight_SceneStoreCB?relay
        DW ??zllSampleLight_SceneRecallCB?relay
        DW 0H
        DW 0H
        DW 0H

        RSEG XDATA_ID:CODE:NOROOT(0)
`?<Initializer for zllSampleLight_LightingCmdCB`:
        DATA16
        DW ??zclColor_MoveToHueCB?relay
        DW ??zclColor_MoveHueCB?relay
        DW ??zclColor_StepHueCB?relay
        DW ??zclColor_MoveToSaturationCB?relay
        DW ??zclColor_MoveSaturationCB?relay
        DW ??zclColor_StepSaturationCB?relay
        DW ??zclColor_MoveToHueAndSaturationCB?relay
        DW ??zclColor_MoveToColorCB?relay
        DW ??zclColor_MoveColorCB?relay
        DW ??zclColor_StepColorCB?relay
        DW 0H
        DW ??zclColor_EnhMoveToHueCB?relay
        DW ??zclColor_MoveEnhHueCB?relay
        DW ??zclColor_StepEnhHueCB?relay
        DW ??zclColor_MoveToEnhHueAndSaturationCB?relay
        DW ??zclColor_SetColorLoopCB?relay
        DW ??zclColor_StopCB?relay

        RSEG BANK_RELAYS:CODE:REORDER:NOROOT(0)
??zllSampleLight_Init?relay:
        CODE
        LCALL   ?BDISPATCH
        DATA24
        DC24    zllSampleLight_Init

        RSEG BANK_RELAYS:CODE:REORDER:NOROOT(0)
??zllSampleLight_event_loop?relay:
        CODE
        LCALL   ?BDISPATCH
        DATA24
        DC24    zllSampleLight_event_loop

        RSEG BANK_RELAYS:CODE:REORDER:NOROOT(0)
??zllSampleLight_ProcessIdentifyTimeChange?rela:
        CODE
        LCALL   ?BDISPATCH
        DATA24
        DC24    zllSampleLight_ProcessIdentifyTimeChange

        RSEG BANK_RELAYS:CODE:REORDER:NOROOT(0)
??zllSampleLight_AttrReadWriteCB?relay:
        CODE
        LCALL   ?BDISPATCH
        DATA24
        DC24    zllSampleLight_AttrReadWriteCB

        RSEG BANK_RELAYS:CODE:REORDER:NOROOT(0)
??zllSampleLight_BasicResetCB?relay:
        CODE
        LCALL   ?BDISPATCH
        DATA24
        DC24    zllSampleLight_BasicResetCB

        RSEG BANK_RELAYS:CODE:REORDER:NOROOT(0)
??zllSampleLight_IdentifyCB?relay:
        CODE
        LCALL   ?BDISPATCH
        DATA24
        DC24    zllSampleLight_IdentifyCB

        RSEG BANK_RELAYS:CODE:REORDER:NOROOT(0)
??zllSampleLight_IdentifyEffectCB?relay:
        CODE
        LCALL   ?BDISPATCH
        DATA24
        DC24    zllSampleLight_IdentifyEffectCB

        RSEG BANK_RELAYS:CODE:REORDER:NOROOT(0)
??zllSampleLight_IdentifyQueryRspCB?relay:
        CODE
        LCALL   ?BDISPATCH
        DATA24
        DC24    zllSampleLight_IdentifyQueryRspCB

        RSEG BANK_RELAYS:CODE:REORDER:NOROOT(0)
??zllSampleLight_OnOffCB?relay:
        CODE
        LCALL   ?BDISPATCH
        DATA24
        DC24    zllSampleLight_OnOffCB

        RSEG BANK_RELAYS:CODE:REORDER:NOROOT(0)
??zllSampleLight_OnOff_OffWithEffectCB?relay:
        CODE
        LCALL   ?BDISPATCH
        DATA24
        DC24    zllSampleLight_OnOff_OffWithEffectCB

        RSEG BANK_RELAYS:CODE:REORDER:NOROOT(0)
??zllSampleLight_OnOff_OnWithRecallGlobalSceneC:
        CODE
        LCALL   ?BDISPATCH
        DATA24
        DC24    zllSampleLight_OnOff_OnWithRecallGlobalSceneCB

        RSEG BANK_RELAYS:CODE:REORDER:NOROOT(0)
??zllSampleLight_OnOff_OnWithTimedOffCB?relay:
        CODE
        LCALL   ?BDISPATCH
        DATA24
        DC24    zllSampleLight_OnOff_OnWithTimedOffCB

        RSEG BANK_RELAYS:CODE:REORDER:NOROOT(0)
??zllSampleLight_SceneStoreCB?relay:
        CODE
        LCALL   ?BDISPATCH
        DATA24
        DC24    zllSampleLight_SceneStoreCB

        RSEG BANK_RELAYS:CODE:REORDER:NOROOT(0)
??zllSampleLight_SceneRecallCB?relay:
        CODE
        LCALL   ?BDISPATCH
        DATA24
        DC24    zllSampleLight_SceneRecallCB

        RSEG XDATA_ROM_C:CONST:REORDER:NOROOT(0)
        DATA8
`?<Constant "IdentifyEffId">`:
        DB "IdentifyEffId"

        RSEG XDATA_ROM_C:CONST:REORDER:NOROOT(0)
        DATA8
`?<Constant "OffWithEff">`:
        DB "OffWithEff"

        RSEG XDATA_ROM_C:CONST:REORDER:NOROOT(0)
        DATA8
`?<Constant {0}>`:
        DATA16
        DW 0
        DB 0, 0, 0, 0

        RSEG XDATA_ROM_C:CONST:REORDER:NOROOT(0)
        DATA8
`?<Constant {0}>_1`:
        DATA16
        DW 0
        DB 0, 0, 0

        RSEG XDATA_ROM_C:CONST:REORDER:NOROOT(0)
        DATA8
`?<Constant {{{0}}}>`:
        DB 0
        DB 0
        DB 0, 0, 0, 0, 0, 0

        RSEG XDATA_ROM_C:CONST:REORDER:NOROOT(0)
        DATA32
__Constant_2:
        DD 2

        RSEG XDATA_ROM_C:CONST:REORDER:NOROOT(0)
        DATA32
__Constant_6:
        DD 6

        RSEG XDATA_ROM_C:CONST:REORDER:NOROOT(0)
        DATA32
__Constant_64:
        DD 100

        RSEG XDATA_ROM_C:CONST:REORDER:NOROOT(0)
        DATA32
__Constant_3e8:
        DD 1000

        END
// 1056 
// 1057 
// 1058 /****************************************************************************
// 1059 ****************************************************************************/
// 1060 
// 1061 
// 
// 2 418 bytes in segment BANKED_CODE
//    84 bytes in segment BANK_RELAYS
//    70 bytes in segment XDATA_I
//    70 bytes in segment XDATA_ID
//    60 bytes in segment XDATA_ROM_C
//     5 bytes in segment XDATA_Z
// 
// 2 572 bytes of CODE  memory
//    44 bytes of CONST memory (+ 16 bytes shared)
//    75 bytes of XDATA memory
//
//Errors: none
//Warnings: none
