///////////////////////////////////////////////////////////////////////////////
//                                                                            /
// IAR C/C++ Compiler V8.20.2.41139 for 8051            27/May/2014  19:14:31 /
// Copyright 2004-2013 IAR Systems AB.                                        /
//                                                                            /
//    Core               =  plain                                             /
//    Code model         =  banked                                            /
//    Data model         =  large                                             /
//    Calling convention =  xdata reentrant                                   /
//    Constant location  =  data_rom                                          /
//    Dptr setup         =  1,16                                              /
//                                                                            /
//    Source file        =  D:\Texas Instruments\Z-Stack Lighting             /
//                          1.0.2\Projects\zstack\ZLL\Source\zll_target.c     /
//    Command line       =  -f "D:\Texas Instruments\Z-Stack Lighting         /
//                          1.0.2\Projects\zstack\ZLL\SampleApp\CC253x\..\..\ /
//                          ..\Tools\CC2530DB\f8wRouter.cfg" (-DCPU32MHZ      /
//                          -DROOT=__near_func -DMAC_CFG_APP_PENDING_QUEUE=TR /
//                          UE -DMAC_CFG_TX_DATA_MAX=5 -DMAC_CFG_TX_MAX=8     /
//                          -DMAC_CFG_RX_MAX=5 -DRTR_NWK) -f "D:\Texas        /
//                          Instruments\Z-Stack Lighting                      /
//                          1.0.2\Projects\zstack\ZLL\SampleApp\CC253x\..\..\ /
//                          ..\Tools\CC2530DB\f8wConfig.cfg" (-DZIGBEEPRO     /
//                          -DSECURE=1 -DZG_SECURE_DYNAMIC=0 -DREFLECTOR      /
//                          -DDEFAULT_CHANLIST=0x00000800                     /
//                          -DZDAPP_CONFIG_PAN_ID=0xFFFF                      /
//                          -DNWK_START_DELAY=100 -DEXTENDED_JOINING_RANDOM_M /
//                          ASK=0x007F -DBEACON_REQUEST_DELAY=100             /
//                          -DBEACON_REQ_DELAY_MASK=0x00FF                    /
//                          -DLINK_STATUS_JITTER_MASK=0x007F                  /
//                          -DROUTE_EXPIRY_TIME=30 -DAPSC_ACK_WAIT_DURATION_P /
//                          OLLED=3000 -DNWK_INDIRECT_MSG_TIMEOUT=7           /
//                          -DMAX_RREQ_ENTRIES=8 -DAPSC_MAX_FRAME_RETRIES=3   /
//                          -DNWK_MAX_DATA_RETRIES=2                          /
//                          -DMAX_POLL_FAILURE_RETRIES=2 -DMAX_BCAST=9        /
//                          -DAPS_MAX_GROUPS=16 -DMAX_RTG_ENTRIES=40          /
//                          -DNWK_MAX_BINDING_ENTRIES=4                       /
//                          -DMAX_BINDING_CLUSTER_IDS=4                       /
//                          "-DDEFAULT_KEY={0x01, 0x03, 0x05, 0x07, 0x09,     /
//                          0x0B, 0x0D, 0x0F, 0x00, 0x02, 0x04, 0x06, 0x08,   /
//                          0x0A, 0x0C, 0x0D}" -DMAC_MAX_FRAME_SIZE=116       /
//                          -DZDNWKMGR_MIN_TRANSMISSIONS=20 "-DCONST=const    /
//                          __code" -DGENERIC=__generic                       /
//                          -DRFD_RCVC_ALWAYS_ON=FALSE -DPOLL_RATE=1000       /
//                          -DQUEUED_POLL_RATE=100 -DRESPONSE_POLL_RATE=100   /
//                          -DREJOIN_POLL_RATE=440) -f "D:\Texas              /
//                          Instruments\Z-Stack Lighting                      /
//                          1.0.2\Projects\zstack\ZLL\SampleApp\CC253x\..\..\ /
//                          ..\Tools\CC2530DB\f8wZCL.cfg" "D:\Texas           /
//                          Instruments\Z-Stack Lighting                      /
//                          1.0.2\Projects\zstack\ZLL\Source\zll_target.c"    /
//                          -D FEATURE_GREEN_POWER -D SECURE=1 -D             /
//                          TC_LINKKEY_JOIN -D ZDSECMGR_TC_DEVICE_MAX=2 -D    /
//                          NV_RESTORE -D HOLD_AUTO_START -D INTER_PAN -D     /
//                          LCD_SUPPORTED=DEBUG -D ZCL_BASIC -D ZCL_READ -D   /
//                          ZCL_WRITE -D ZCL_IDENTIFY -D ZCL_ON_OFF -D        /
//                          ZCL_SCENES -D ZCL_GROUPS -D                       /
//                          ZCL_LIGHT_LINK_ENHANCE -D ZCL_LEVEL_CTRL -D       /
//                          ZCL_COLOR_CTRL -D MAX_CHANNELS_24GHZ=0x02108800   /
//                          -D xPWM_ALT2 -D xTHERMAL_SHUTDOWN -D              /
//                          ZLL_1_0_HUB_COMPATIBILITY -D DALI_LIGHT -lC       /
//                          "D:\Texas Instruments\Z-Stack Lighting            /
//                          1.0.2\Projects\zstack\ZLL\SampleApp\CC253x\Zlight /
//                           - Router\List\" -lA "D:\Texas                    /
//                          Instruments\Z-Stack Lighting                      /
//                          1.0.2\Projects\zstack\ZLL\SampleApp\CC253x\Zlight /
//                           - Router\List\" --diag_suppress Pe001,Pa010 -o   /
//                          "D:\Texas Instruments\Z-Stack Lighting            /
//                          1.0.2\Projects\zstack\ZLL\SampleApp\CC253x\Zlight /
//                           - Router\Obj\" -e --debug --core=plain           /
//                          --dptr=16,1 --data_model=large                    /
//                          --code_model=banked --calling_convention=xdata_re /
//                          entrant --place_constants=data_rom                /
//                          --nr_virtual_regs 16 -I "D:\Texas                 /
//                          Instruments\Z-Stack Lighting                      /
//                          1.0.2\Projects\zstack\ZLL\SampleApp\CC253x\" -I   /
//                          "D:\Texas Instruments\Z-Stack Lighting            /
//                          1.0.2\Projects\zstack\ZLL\SampleApp\CC253x\..\Sou /
//                          rce\" -I "D:\Texas Instruments\Z-Stack Lighting   /
//                          1.0.2\Projects\zstack\ZLL\SampleApp\CC253x\..\..\ /
//                          Source\" -I "D:\Texas Instruments\Z-Stack         /
//                          Lighting 1.0.2\Projects\zstack\ZLL\SampleApp\CC25 /
//                          3x\..\..\..\HomeAutomation\Source\" -I "D:\Texas  /
//                          Instruments\Z-Stack Lighting                      /
//                          1.0.2\Projects\zstack\ZLL\SampleApp\CC253x\..\..\ /
//                          ..\HomeAutomation\SampleLight\Source\" -I         /
//                          "D:\Texas Instruments\Z-Stack Lighting            /
//                          1.0.2\Projects\zstack\ZLL\SampleApp\CC253x\..\..\ /
//                          ..\ZMain\TI2530DB\" -I "D:\Texas                  /
//                          Instruments\Z-Stack Lighting                      /
//                          1.0.2\Projects\zstack\ZLL\SampleApp\CC253x\..\..\ /
//                          ..\..\..\Components\hal\include\" -I "D:\Texas    /
//                          Instruments\Z-Stack Lighting                      /
//                          1.0.2\Projects\zstack\ZLL\SampleApp\CC253x\..\..\ /
//                          ..\..\..\Components\hal\target\CC2530PMP4712\"    /
//                          -I "D:\Texas Instruments\Z-Stack Lighting         /
//                          1.0.2\Projects\zstack\ZLL\SampleApp\CC253x\..\..\ /
//                          ..\..\..\Components\mac\include\" -I "D:\Texas    /
//                          Instruments\Z-Stack Lighting                      /
//                          1.0.2\Projects\zstack\ZLL\SampleApp\CC253x\..\..\ /
//                          ..\..\..\Components\mac\high_level\" -I           /
//                          "D:\Texas Instruments\Z-Stack Lighting            /
//                          1.0.2\Projects\zstack\ZLL\SampleApp\CC253x\..\..\ /
//                          ..\..\..\Components\mac\low_level\srf04\" -I      /
//                          "D:\Texas Instruments\Z-Stack Lighting            /
//                          1.0.2\Projects\zstack\ZLL\SampleApp\CC253x\..\..\ /
//                          ..\..\..\Components\mac\low_level\srf04\single_ch /
//                          ip\" -I "D:\Texas Instruments\Z-Stack Lighting    /
//                          1.0.2\Projects\zstack\ZLL\SampleApp\CC253x\..\..\ /
//                          ..\..\..\Components\mt\" -I "D:\Texas             /
//                          Instruments\Z-Stack Lighting                      /
//                          1.0.2\Projects\zstack\ZLL\SampleApp\CC253x\..\..\ /
//                          ..\..\..\Components\osal\include\" -I "D:\Texas   /
//                          Instruments\Z-Stack Lighting                      /
//                          1.0.2\Projects\zstack\ZLL\SampleApp\CC253x\..\..\ /
//                          ..\..\..\Components\services\saddr\" -I           /
//                          "D:\Texas Instruments\Z-Stack Lighting            /
//                          1.0.2\Projects\zstack\ZLL\SampleApp\CC253x\..\..\ /
//                          ..\..\..\Components\services\sdata\" -I           /
//                          "D:\Texas Instruments\Z-Stack Lighting            /
//                          1.0.2\Projects\zstack\ZLL\SampleApp\CC253x\..\..\ /
//                          ..\..\..\Components\stack\af\" -I "D:\Texas       /
//                          Instruments\Z-Stack Lighting                      /
//                          1.0.2\Projects\zstack\ZLL\SampleApp\CC253x\..\..\ /
//                          ..\..\..\Components\stack\nwk\" -I "D:\Texas      /
//                          Instruments\Z-Stack Lighting                      /
//                          1.0.2\Projects\zstack\ZLL\SampleApp\CC253x\..\..\ /
//                          ..\..\..\Components\stack\sapi\" -I "D:\Texas     /
//                          Instruments\Z-Stack Lighting                      /
//                          1.0.2\Projects\zstack\ZLL\SampleApp\CC253x\..\..\ /
//                          ..\..\..\Components\stack\sec\" -I "D:\Texas      /
//                          Instruments\Z-Stack Lighting                      /
//                          1.0.2\Projects\zstack\ZLL\SampleApp\CC253x\..\..\ /
//                          ..\..\..\Components\stack\sys\" -I "D:\Texas      /
//                          Instruments\Z-Stack Lighting                      /
//                          1.0.2\Projects\zstack\ZLL\SampleApp\CC253x\..\..\ /
//                          ..\..\..\Components\stack\zcl\" -I "D:\Texas      /
//                          Instruments\Z-Stack Lighting                      /
//                          1.0.2\Projects\zstack\ZLL\SampleApp\CC253x\..\..\ /
//                          ..\..\..\Components\stack\zdo\" -I "D:\Texas      /
//                          Instruments\Z-Stack Lighting                      /
//                          1.0.2\Projects\zstack\ZLL\SampleApp\CC253x\..\..\ /
//                          ..\..\..\Components\zmac\" -I "D:\Texas           /
//                          Instruments\Z-Stack Lighting                      /
//                          1.0.2\Projects\zstack\ZLL\SampleApp\CC253x\..\..\ /
//                          ..\..\..\Components\zmac\f8w\" -Ohz               /
//                          --require_prototypes                              /
//    List file          =  D:\Texas Instruments\Z-Stack Lighting             /
//                          1.0.2\Projects\zstack\ZLL\SampleApp\CC253x\Zlight /
//                           - Router\List\zll_target.s51                     /
//                                                                            /
//                                                                            /
///////////////////////////////////////////////////////////////////////////////

        NAME zll_target

        RTMODEL "__SystemLibrary", "CLib"
        RTMODEL "__calling_convention", "xdata_reentrant"
        RTMODEL "__code_model", "banked"
        RTMODEL "__core", "plain"
        RTMODEL "__data_model", "large"
        RTMODEL "__dptr_size", "16"
        RTMODEL "__extended_stack", "disabled"
        RTMODEL "__location_for_constants", "data"
        RTMODEL "__number_of_dptrs", "1"
        RTMODEL "__rt_version", "1"

        RSEG DOVERLAY:DATA:NOROOT(0)
        RSEG IOVERLAY:IDATA:NOROOT(0)
        RSEG ISTACK:IDATA:NOROOT(0)
        RSEG PSTACK:XDATA:NOROOT(0)
        RSEG XSTACK:XDATA:NOROOT(0)

        EXTERN ?ALLOC_XSTACK8
        EXTERN ?BANKED_ENTER_XDATA
        EXTERN ?BANKED_LEAVE_XDATA
        EXTERN ?BDISPATCH
        EXTERN ?BRET
        EXTERN ?CALL_IND
        EXTERN ?DEALLOC_XSTACK8
        EXTERN ?L_MOV_TO_X
        EXTERN ?L_MOV_X
        EXTERN ?L_SHL
        EXTERN ?MOVE_LONG8_XDATA_XDATA
        EXTERN ?PUSH_XSTACK8_X_FOUR
        EXTERN ?PUSH_XSTACK8_X_TWO
        EXTERN ?PUSH_XSTACK_I_FOUR
        EXTERN ?PUSH_XSTACK_I_ONE
        EXTERN ?V0
        EXTERN ?XLOAD_R2345
        EXTERN ?XSP
        EXTERN ?XSTACK_DISP0_8
        EXTERN ?XSTORE_R2345
        EXTERN __INIT_XDATA_I
        EXTERN __INIT_XDATA_Z

        FUNCTION ??targetDeviceInfoReqCB?relay,0203H
        FUNCTION ??targetIdentifyReqCB?relay,0203H
        FUNCTION ??targetNwkJoinRtrReqCB?relay,0203H
        FUNCTION ??targetNwkStartReqCB?relay,0203H
        FUNCTION ??targetNwkUpdateReqCB?relay,0203H
        FUNCTION ??targetResetToFNReqCB?relay,0203H
        FUNCTION ??targetScanReqCB?relay,0203H
        FUNCTION ??targetSelectNwkParams?relay,0203H
        FUNCTION ??targetSendNwkStartRsp?relay,0203H
        FUNCTION ??targetStartRtr?relay,0203H
        FUNCTION ??targetVerifyNwkParams?relay,0203H
        FUNCTION ??targetZdoLeaveCnfCB?relay,0203H
        PUBLIC ??zllTarget_ClassicalCommissioningStart?relay
        FUNCTION ??zllTarget_ClassicalCommissioningStart?relay,0203H
        PUBLIC ??zllTarget_Init?relay
        FUNCTION ??zllTarget_Init?relay,0203H
        PUBLIC ??zllTarget_InitDevice?relay
        FUNCTION ??zllTarget_InitDevice?relay,0203H
        PUBLIC ??zllTarget_PermitJoin?relay
        FUNCTION ??zllTarget_PermitJoin?relay,0203H
        PUBLIC ??zllTarget_RegisterApp?relay
        FUNCTION ??zllTarget_RegisterApp?relay,0203H
        PUBLIC ??zllTarget_RegisterIdentifyCB?relay
        FUNCTION ??zllTarget_RegisterIdentifyCB?relay,0203H
        PUBLIC ??zllTarget_ResetToFactoryNew?relay
        FUNCTION ??zllTarget_ResetToFactoryNew?relay,0203H
        PUBLIC ??zllTarget_event_loop?relay
        FUNCTION ??zllTarget_event_loop?relay,0203H
        PUBWEAK __Constant_64
        FUNCTION targetDeviceInfoReqCB,021603H
        ARGFRAME XSTACK, 0, STACK
        LOCFRAME XSTACK, 15, STACK
        FUNCTION targetIdentifyReqCB,021603H
        ARGFRAME XSTACK, 0, STACK
        LOCFRAME XSTACK, 14, STACK
        FUNCTION targetNwkJoinRtrReqCB,021603H
        ARGFRAME XSTACK, 0, STACK
        LOCFRAME XSTACK, 18, STACK
        FUNCTION targetNwkStartReqCB,021603H
        ARGFRAME XSTACK, 0, STACK
        LOCFRAME XSTACK, 17, STACK
        FUNCTION targetNwkUpdateReqCB,021603H
        ARGFRAME XSTACK, 0, STACK
        LOCFRAME XSTACK, 9, STACK
        FUNCTION targetResetToFNReqCB,021603H
        ARGFRAME XSTACK, 0, STACK
        LOCFRAME ISTACK, 2, STACK
        FUNCTION targetScanReqCB,021603H
        ARGFRAME XSTACK, 0, STACK
        LOCFRAME XSTACK, 16, STACK
        FUNCTION targetSelectNwkParams,021203H
        ARGFRAME XSTACK, 16, STACK
        ARGFRAME IOVERLAY, 0, STATIC
        ARGFRAME DOVERLAY, 0, STATIC
        LOCFRAME XSTACK, 10, STACK
        FUNCTION targetSendNwkStartRsp,021203H
        ARGFRAME XSTACK, 22, STACK
        ARGFRAME IOVERLAY, 0, STATIC
        ARGFRAME DOVERLAY, 0, STATIC
        LOCFRAME ISTACK, 1, STACK
        LOCFRAME XSTACK, 23, STACK
        FUNCTION targetStartRtr,021203H
        ARGFRAME XSTACK, 20, STACK
        ARGFRAME IOVERLAY, 0, STATIC
        ARGFRAME DOVERLAY, 0, STATIC
        LOCFRAME XSTACK, 21, STACK
        FUNCTION targetVerifyNwkParams,021203H
        ARGFRAME XSTACK, 16, STACK
        ARGFRAME IOVERLAY, 0, STATIC
        ARGFRAME DOVERLAY, 0, STATIC
        LOCFRAME XSTACK, 12, STACK
        FUNCTION targetZdoLeaveCnfCB,021603H
        ARGFRAME XSTACK, 0, STACK
        LOCFRAME XSTACK, 48, STACK
        PUBLIC zllTarget_ClassicalCommissioningStart
        FUNCTION zllTarget_ClassicalCommissioningStart,021203H
        ARGFRAME XSTACK, 0, STACK
        LOCFRAME ISTACK, 2, STACK
        PUBLIC zllTarget_Init
        FUNCTION zllTarget_Init,021203H
        ARGFRAME XSTACK, 0, STACK
        LOCFRAME XSTACK, 9, STACK
        PUBLIC zllTarget_InitDevice
        FUNCTION zllTarget_InitDevice,021203H
        ARGFRAME XSTACK, 0, STACK
        LOCFRAME ISTACK, 2, STACK
        LOCFRAME XSTACK, 1, STACK
        PUBLIC zllTarget_PermitJoin
        FUNCTION zllTarget_PermitJoin,021203H
        ARGFRAME XSTACK, 0, STACK
        LOCFRAME XSTACK, 9, STACK
        PUBLIC zllTarget_RegisterApp
        FUNCTION zllTarget_RegisterApp,021203H
        ARGFRAME XSTACK, 0, STACK
        LOCFRAME ISTACK, 2, STACK
        PUBLIC zllTarget_RegisterIdentifyCB
        FUNCTION zllTarget_RegisterIdentifyCB,0203H
        ARGFRAME XSTACK, 0, STACK
        LOCFRAME ISTACK, 2, STACK
        PUBLIC zllTarget_ResetToFactoryNew
        FUNCTION zllTarget_ResetToFactoryNew,021203H
        ARGFRAME XSTACK, 0, STACK
        LOCFRAME ISTACK, 2, STACK
        PUBLIC zllTarget_TaskID
        PUBLIC zllTarget_event_loop
        FUNCTION zllTarget_event_loop,021203H
        ARGFRAME XSTACK, 0, STACK
        LOCFRAME XSTACK, 22, STACK
        
          CFI Names cfiNames0
          CFI StackFrame CFA_SP SP IDATA
          CFI StackFrame CFA_PSP16 PSP16 XDATA
          CFI StackFrame CFA_XSP16 XSP16 XDATA
          CFI StaticOverlayFrame CFA_IOVERLAY IOVERLAY
          CFI StaticOverlayFrame CFA_DOVERLAY DOVERLAY
          CFI Resource `PSW.CY`:1, `B.BR0`:1, `B.BR1`:1, `B.BR2`:1, `B.BR3`:1
          CFI Resource `B.BR4`:1, `B.BR5`:1, `B.BR6`:1, `B.BR7`:1, `VB.BR8`:1
          CFI Resource `VB.BR9`:1, `VB.BR10`:1, `VB.BR11`:1, `VB.BR12`:1
          CFI Resource `VB.BR13`:1, `VB.BR14`:1, `VB.BR15`:1, VB:8, B:8, A:8
          CFI Resource PSW:8, DPL0:8, DPH0:8, R0:8, R1:8, R2:8, R3:8, R4:8, R5:8
          CFI Resource R6:8, R7:8, V0:8, V1:8, V2:8, V3:8, V4:8, V5:8, V6:8, V7:8
          CFI Resource V8:8, V9:8, V10:8, V11:8, V12:8, V13:8, V14:8, V15:8, SP:8
          CFI Resource PSPH:8, PSPL:8, PSP16:16, XSPH:8, XSPL:8, XSP16:16
          CFI VirtualResource ?RET:24
          CFI Resource ?BRET_EXT:8
          CFI VirtualResource ?RET_HIGH:8, ?RET_LOW:8
          CFI ResourceParts PSP16 PSPH, PSPL
          CFI ResourceParts XSP16 XSPH, XSPL
          CFI ResourceParts ?RET ?BRET_EXT, ?RET_HIGH, ?RET_LOW
          CFI EndNames cfiNames0
        
          CFI Common cfiCommon0 Using cfiNames0
          CFI CodeAlign 1
          CFI DataAlign -1
          CFI ReturnAddress ?RET CODE
          CFI CFA_DOVERLAY Used
          CFI CFA_IOVERLAY Used
          CFI CFA_SP SP+-3
          CFI CFA_PSP16 PSP16+0
          CFI CFA_XSP16 XSP16+0
          CFI `PSW.CY` SameValue
          CFI `B.BR0` SameValue
          CFI `B.BR1` SameValue
          CFI `B.BR2` SameValue
          CFI `B.BR3` SameValue
          CFI `B.BR4` SameValue
          CFI `B.BR5` SameValue
          CFI `B.BR6` SameValue
          CFI `B.BR7` SameValue
          CFI `VB.BR8` SameValue
          CFI `VB.BR9` SameValue
          CFI `VB.BR10` SameValue
          CFI `VB.BR11` SameValue
          CFI `VB.BR12` SameValue
          CFI `VB.BR13` SameValue
          CFI `VB.BR14` SameValue
          CFI `VB.BR15` SameValue
          CFI VB SameValue
          CFI B Undefined
          CFI A Undefined
          CFI PSW SameValue
          CFI DPL0 SameValue
          CFI DPH0 SameValue
          CFI R0 Undefined
          CFI R1 Undefined
          CFI R2 Undefined
          CFI R3 Undefined
          CFI R4 Undefined
          CFI R5 Undefined
          CFI R6 SameValue
          CFI R7 SameValue
          CFI V0 SameValue
          CFI V1 SameValue
          CFI V2 SameValue
          CFI V3 SameValue
          CFI V4 SameValue
          CFI V5 SameValue
          CFI V6 SameValue
          CFI V7 SameValue
          CFI V8 SameValue
          CFI V9 SameValue
          CFI V10 SameValue
          CFI V11 SameValue
          CFI V12 SameValue
          CFI V13 SameValue
          CFI V14 SameValue
          CFI V15 SameValue
          CFI PSPH Undefined
          CFI PSPL Undefined
          CFI XSPH Undefined
          CFI XSPL Undefined
          CFI ?RET Concat
          CFI ?BRET_EXT Frame(CFA_SP, 3)
          CFI ?RET_HIGH Frame(CFA_SP, 2)
          CFI ?RET_LOW Frame(CFA_SP, 1)
          CFI EndCommon cfiCommon0
        
        
          CFI Common cfiCommon1 Using cfiNames0
          CFI CodeAlign 1
          CFI DataAlign -1
          CFI ReturnAddress ?RET CODE
          CFI CFA_DOVERLAY Used
          CFI CFA_IOVERLAY Used
          CFI CFA_SP SP+-2
          CFI CFA_PSP16 PSP16+0
          CFI CFA_XSP16 XSP16+0
          CFI `PSW.CY` SameValue
          CFI `B.BR0` SameValue
          CFI `B.BR1` SameValue
          CFI `B.BR2` SameValue
          CFI `B.BR3` SameValue
          CFI `B.BR4` SameValue
          CFI `B.BR5` SameValue
          CFI `B.BR6` SameValue
          CFI `B.BR7` SameValue
          CFI `VB.BR8` SameValue
          CFI `VB.BR9` SameValue
          CFI `VB.BR10` SameValue
          CFI `VB.BR11` SameValue
          CFI `VB.BR12` SameValue
          CFI `VB.BR13` SameValue
          CFI `VB.BR14` SameValue
          CFI `VB.BR15` SameValue
          CFI VB SameValue
          CFI B SameValue
          CFI A SameValue
          CFI PSW SameValue
          CFI DPL0 SameValue
          CFI DPH0 SameValue
          CFI R0 SameValue
          CFI R1 SameValue
          CFI R2 SameValue
          CFI R3 SameValue
          CFI R4 SameValue
          CFI R5 SameValue
          CFI R6 SameValue
          CFI R7 SameValue
          CFI V0 SameValue
          CFI V1 SameValue
          CFI V2 SameValue
          CFI V3 SameValue
          CFI V4 SameValue
          CFI V5 SameValue
          CFI V6 SameValue
          CFI V7 SameValue
          CFI V8 SameValue
          CFI V9 SameValue
          CFI V10 SameValue
          CFI V11 SameValue
          CFI V12 SameValue
          CFI V13 SameValue
          CFI V14 SameValue
          CFI V15 SameValue
          CFI PSPH Undefined
          CFI PSPL Undefined
          CFI XSPH Undefined
          CFI XSPL Undefined
          CFI ?RET Concat
          CFI ?BRET_EXT SameValue
          CFI ?RET_HIGH Frame(CFA_SP, 2)
          CFI ?RET_LOW Frame(CFA_SP, 1)
          CFI EndCommon cfiCommon1
        
AddrMgrSetDefaultNV SYMBOL "AddrMgrSetDefaultNV"
??AddrMgrSetDefaultNV?relay SYMBOL "?relay", AddrMgrSetDefaultNV
AssocReset          SYMBOL "AssocReset"
??AssocReset?relay  SYMBOL "?relay", AssocReset
NLME_DirectJoinRequestWithAddr SYMBOL "NLME_DirectJoinRequestWithAddr"
??NLME_DirectJoinRequestWithAddr?relay SYMBOL "?relay", NLME_DirectJoinRequestWithAddr
NLME_GetExtAddr     SYMBOL "NLME_GetExtAddr"
??NLME_GetExtAddr?relay SYMBOL "?relay", NLME_GetExtAddr
NLME_GetShortAddr   SYMBOL "NLME_GetShortAddr"
??NLME_GetShortAddr?relay SYMBOL "?relay", NLME_GetShortAddr
ZDApp_LeaveCtrlReset SYMBOL "ZDApp_LeaveCtrlReset"
??ZDApp_LeaveCtrlReset?relay SYMBOL "?relay", ZDApp_LeaveCtrlReset
ZDOInitDevice       SYMBOL "ZDOInitDevice"
??ZDOInitDevice?relay SYMBOL "?relay", ZDOInitDevice
ZDO_RegisterForZDOMsg SYMBOL "ZDO_RegisterForZDOMsg"
??ZDO_RegisterForZDOMsg?relay SYMBOL "?relay", ZDO_RegisterForZDOMsg
ZDO_RegisterForZdoCB SYMBOL "ZDO_RegisterForZdoCB"
??ZDO_RegisterForZdoCB?relay SYMBOL "?relay", ZDO_RegisterForZdoCB
ZDP_DeviceAnnce     SYMBOL "ZDP_DeviceAnnce"
??ZDP_DeviceAnnce?relay SYMBOL "?relay", ZDP_DeviceAnnce
ZDSecMgrUpdateTCAddress SYMBOL "ZDSecMgrUpdateTCAddress"
??ZDSecMgrUpdateTCAddress?relay SYMBOL "?relay", ZDSecMgrUpdateTCAddress
ZMacSetReq          SYMBOL "ZMacSetReq"
??ZMacSetReq?relay  SYMBOL "?relay", ZMacSetReq
aps_FindAllGroupsForEndpoint SYMBOL "aps_FindAllGroupsForEndpoint"
??aps_FindAllGroupsForEndpoint?relay SYMBOL "?relay", aps_FindAllGroupsForEndpoint
aps_RemoveAllGroup  SYMBOL "aps_RemoveAllGroup"
??aps_RemoveAllGroup?relay SYMBOL "?relay", aps_RemoveAllGroup
nwkNeighborInitTable SYMBOL "nwkNeighborInitTable"
??nwkNeighborInitTable?relay SYMBOL "?relay", nwkNeighborInitTable
nwk_ExtPANIDValid   SYMBOL "nwk_ExtPANIDValid"
??nwk_ExtPANIDValid?relay SYMBOL "?relay", nwk_ExtPANIDValid
osal_mem_alloc      SYMBOL "osal_mem_alloc"
??osal_mem_alloc?relay SYMBOL "?relay", osal_mem_alloc
osal_mem_free       SYMBOL "osal_mem_free"
??osal_mem_free?relay SYMBOL "?relay", osal_mem_free
osal_memset         SYMBOL "osal_memset"
??osal_memset?relay SYMBOL "?relay", osal_memset
osal_msg_deallocate SYMBOL "osal_msg_deallocate"
??osal_msg_deallocate?relay SYMBOL "?relay", osal_msg_deallocate
osal_msg_receive    SYMBOL "osal_msg_receive"
??osal_msg_receive?relay SYMBOL "?relay", osal_msg_receive
osal_rand           SYMBOL "osal_rand"
??osal_rand?relay   SYMBOL "?relay", osal_rand
osal_set_event      SYMBOL "osal_set_event"
??osal_set_event?relay SYMBOL "?relay", osal_set_event
osal_start_timerEx  SYMBOL "osal_start_timerEx"
??osal_start_timerEx?relay SYMBOL "?relay", osal_start_timerEx
sAddrExtCmp         SYMBOL "sAddrExtCmp"
??sAddrExtCmp?relay SYMBOL "?relay", sAddrExtCmp
sAddrExtCpy         SYMBOL "sAddrExtCpy"
??sAddrExtCpy?relay SYMBOL "?relay", sAddrExtCpy
zclGeneral_RemoveAllScenes SYMBOL "zclGeneral_RemoveAllScenes"
??zclGeneral_RemoveAllScenes?relay SYMBOL "?relay", zclGeneral_RemoveAllScenes
zclLL_RegisterInterPANCmdCallbacks SYMBOL "zclLL_RegisterInterPANCmdCallbacks"
??zclLL_RegisterInterPANCmdCallbacks?relay SYMBOL "?relay", zclLL_RegisterInterPANCmdCallbacks
zclLL_Send_NwkJoinRsp SYMBOL "zclLL_Send_NwkJoinRsp"
??zclLL_Send_NwkJoinRsp?relay SYMBOL "?relay", zclLL_Send_NwkJoinRsp
zclLL_Send_NwkStartRsp SYMBOL "zclLL_Send_NwkStartRsp"
??zclLL_Send_NwkStartRsp?relay SYMBOL "?relay", zclLL_Send_NwkStartRsp
zcl_registerForMsg  SYMBOL "zcl_registerForMsg"
??zcl_registerForMsg?relay SYMBOL "?relay", zcl_registerForMsg
zll_ClassicalCommissioningInit SYMBOL "zll_ClassicalCommissioningInit"
??zll_ClassicalCommissioningInit?relay SYMBOL "?relay", zll_ClassicalCommissioningInit
zll_ClassicalCommissioningJoinDiscoveredNwk SYMBOL "zll_ClassicalCommissioningJoinDiscoveredNwk"
??zll_ClassicalCommissioningJoinDiscoveredNwk?r SYMBOL "?relay", zll_ClassicalCommissioningJoinDiscoveredNwk
zll_DecryptNwkKey   SYMBOL "zll_DecryptNwkKey"
??zll_DecryptNwkKey?relay SYMBOL "?relay", zll_DecryptNwkKey
zll_FreeNwkParamList SYMBOL "zll_FreeNwkParamList"
??zll_FreeNwkParamList?relay SYMBOL "?relay", zll_FreeNwkParamList
zll_GenerateRandNum SYMBOL "zll_GenerateRandNum"
??zll_GenerateRandNum?relay SYMBOL "?relay", zll_GenerateRandNum
zll_GetMsgRssi      SYMBOL "zll_GetMsgRssi"
??zll_GetMsgRssi?relay SYMBOL "?relay", zll_GetMsgRssi
zll_GetRandPrimaryChannel SYMBOL "zll_GetRandPrimaryChannel"
??zll_GetRandPrimaryChannel?relay SYMBOL "?relay", zll_GetRandPrimaryChannel
zll_InitVariables   SYMBOL "zll_InitVariables"
??zll_InitVariables?relay SYMBOL "?relay", zll_InitVariables
zll_IsFactoryNew    SYMBOL "zll_IsFactoryNew"
??zll_IsFactoryNew?relay SYMBOL "?relay", zll_IsFactoryNew
zll_IsValidTransID  SYMBOL "zll_IsValidTransID"
??zll_IsValidTransID?relay SYMBOL "?relay", zll_IsValidTransID
zll_NewNwkUpdateId  SYMBOL "zll_NewNwkUpdateId"
??zll_NewNwkUpdateId?relay SYMBOL "?relay", zll_NewNwkUpdateId
zll_PerformNetworkDisc SYMBOL "zll_PerformNetworkDisc"
??zll_PerformNetworkDisc?relay SYMBOL "?relay", zll_PerformNetworkDisc
zll_PermitJoin      SYMBOL "zll_PermitJoin"
??zll_PermitJoin?relay SYMBOL "?relay", zll_PermitJoin
zll_ProcessNwkUpdate SYMBOL "zll_ProcessNwkUpdate"
??zll_ProcessNwkUpdate?relay SYMBOL "?relay", zll_ProcessNwkUpdate
zll_RegisterApp     SYMBOL "zll_RegisterApp"
??zll_RegisterApp?relay SYMBOL "?relay", zll_RegisterApp
zll_ResetToFactoryNew SYMBOL "zll_ResetToFactoryNew"
??zll_ResetToFactoryNew?relay SYMBOL "?relay", zll_ResetToFactoryNew
zll_RouterProcessZDOMsg SYMBOL "zll_RouterProcessZDOMsg"
??zll_RouterProcessZDOMsg?relay SYMBOL "?relay", zll_RouterProcessZDOMsg
zll_SendDeviceInfoRsp SYMBOL "zll_SendDeviceInfoRsp"
??zll_SendDeviceInfoRsp?relay SYMBOL "?relay", zll_SendDeviceInfoRsp
zll_SendLeaveReq    SYMBOL "zll_SendLeaveReq"
??zll_SendLeaveReq?relay SYMBOL "?relay", zll_SendLeaveReq
zll_SendScanRsp     SYMBOL "zll_SendScanRsp"
??zll_SendScanRsp?relay SYMBOL "?relay", zll_SendScanRsp
zll_SetMacNwkParams SYMBOL "zll_SetMacNwkParams"
??zll_SetMacNwkParams?relay SYMBOL "?relay", zll_SetMacNwkParams
zll_SetNIB          SYMBOL "zll_SetNIB"
??zll_SetNIB?relay  SYMBOL "?relay", zll_SetNIB
zll_SetZllTaskId    SYMBOL "zll_SetZllTaskId"
??zll_SetZllTaskId?relay SYMBOL "?relay", zll_SetZllTaskId
zll_UpdateFreeRanges SYMBOL "zll_UpdateFreeRanges"
??zll_UpdateFreeRanges?relay SYMBOL "?relay", zll_UpdateFreeRanges
zll_UpdateNV        SYMBOL "zll_UpdateNV"
??zll_UpdateNV?relay SYMBOL "?relay", zll_UpdateNV
zllTarget_ClassicalCommissioningStart SYMBOL "zllTarget_ClassicalCommissioningStart"
??zllTarget_ClassicalCommissioningStart?relay SYMBOL "?relay", zllTarget_ClassicalCommissioningStart
zllTarget_Init      SYMBOL "zllTarget_Init"
??zllTarget_Init?relay SYMBOL "?relay", zllTarget_Init
zllTarget_InitDevice SYMBOL "zllTarget_InitDevice"
??zllTarget_InitDevice?relay SYMBOL "?relay", zllTarget_InitDevice
zllTarget_PermitJoin SYMBOL "zllTarget_PermitJoin"
??zllTarget_PermitJoin?relay SYMBOL "?relay", zllTarget_PermitJoin
zllTarget_RegisterApp SYMBOL "zllTarget_RegisterApp"
??zllTarget_RegisterApp?relay SYMBOL "?relay", zllTarget_RegisterApp
zllTarget_RegisterIdentifyCB SYMBOL "zllTarget_RegisterIdentifyCB"
??zllTarget_RegisterIdentifyCB?relay SYMBOL "?relay", zllTarget_RegisterIdentifyCB
zllTarget_ResetToFactoryNew SYMBOL "zllTarget_ResetToFactoryNew"
??zllTarget_ResetToFactoryNew?relay SYMBOL "?relay", zllTarget_ResetToFactoryNew
zllTarget_event_loop SYMBOL "zllTarget_event_loop"
??zllTarget_event_loop?relay SYMBOL "?relay", zllTarget_event_loop

        EXTERN ??AddrMgrSetDefaultNV?relay
        FUNCTION ??AddrMgrSetDefaultNV?relay,00H
        EXTERN ??AssocReset?relay
        FUNCTION ??AssocReset?relay,00H
        EXTERN ??NLME_DirectJoinRequestWithAddr?relay
        FUNCTION ??NLME_DirectJoinRequestWithAddr?relay,00H
        EXTERN ??NLME_GetExtAddr?relay
        FUNCTION ??NLME_GetExtAddr?relay,00H
        EXTERN ??NLME_GetShortAddr?relay
        FUNCTION ??NLME_GetShortAddr?relay,00H
        EXTERN ??ZDApp_LeaveCtrlReset?relay
        FUNCTION ??ZDApp_LeaveCtrlReset?relay,00H
        EXTERN ??ZDOInitDevice?relay
        FUNCTION ??ZDOInitDevice?relay,00H
        EXTERN ??ZDO_RegisterForZDOMsg?relay
        FUNCTION ??ZDO_RegisterForZDOMsg?relay,00H
        EXTERN ??ZDO_RegisterForZdoCB?relay
        FUNCTION ??ZDO_RegisterForZdoCB?relay,00H
        EXTERN ??ZDP_DeviceAnnce?relay
        FUNCTION ??ZDP_DeviceAnnce?relay,00H
        EXTERN ??ZDSecMgrUpdateTCAddress?relay
        FUNCTION ??ZDSecMgrUpdateTCAddress?relay,00H
        EXTERN ??ZMacSetReq?relay
        FUNCTION ??ZMacSetReq?relay,00H
        EXTERN ??aps_FindAllGroupsForEndpoint?relay
        FUNCTION ??aps_FindAllGroupsForEndpoint?relay,00H
        EXTERN ??aps_RemoveAllGroup?relay
        FUNCTION ??aps_RemoveAllGroup?relay,00H
        EXTERN ??nwkNeighborInitTable?relay
        FUNCTION ??nwkNeighborInitTable?relay,00H
        EXTERN ??nwk_ExtPANIDValid?relay
        FUNCTION ??nwk_ExtPANIDValid?relay,00H
        EXTERN ??osal_mem_alloc?relay
        FUNCTION ??osal_mem_alloc?relay,00H
        EXTERN ??osal_mem_free?relay
        FUNCTION ??osal_mem_free?relay,00H
        EXTERN ??osal_memset?relay
        FUNCTION ??osal_memset?relay,00H
        EXTERN ??osal_msg_deallocate?relay
        FUNCTION ??osal_msg_deallocate?relay,00H
        EXTERN ??osal_msg_receive?relay
        FUNCTION ??osal_msg_receive?relay,00H
        EXTERN ??osal_rand?relay
        FUNCTION ??osal_rand?relay,00H
        EXTERN ??osal_set_event?relay
        FUNCTION ??osal_set_event?relay,00H
        EXTERN ??osal_start_timerEx?relay
        FUNCTION ??osal_start_timerEx?relay,00H
        EXTERN ??sAddrExtCmp?relay
        FUNCTION ??sAddrExtCmp?relay,00H
        EXTERN ??sAddrExtCpy?relay
        FUNCTION ??sAddrExtCpy?relay,00H
        EXTERN ??zclGeneral_RemoveAllScenes?relay
        FUNCTION ??zclGeneral_RemoveAllScenes?relay,00H
        EXTERN ??zclLL_RegisterInterPANCmdCallbacks?relay
        FUNCTION ??zclLL_RegisterInterPANCmdCallbacks?relay,00H
        EXTERN ??zclLL_Send_NwkJoinRsp?relay
        FUNCTION ??zclLL_Send_NwkJoinRsp?relay,00H
        EXTERN ??zclLL_Send_NwkStartRsp?relay
        FUNCTION ??zclLL_Send_NwkStartRsp?relay,00H
        EXTERN ??zcl_registerForMsg?relay
        FUNCTION ??zcl_registerForMsg?relay,00H
        EXTERN ??zll_ClassicalCommissioningInit?relay
        FUNCTION ??zll_ClassicalCommissioningInit?relay,00H
        EXTERN ??zll_ClassicalCommissioningJoinDiscoveredNwk?r
        FUNCTION ??zll_ClassicalCommissioningJoinDiscoveredNwk?r,00H
        EXTERN ??zll_DecryptNwkKey?relay
        FUNCTION ??zll_DecryptNwkKey?relay,00H
        EXTERN ??zll_FreeNwkParamList?relay
        FUNCTION ??zll_FreeNwkParamList?relay,00H
        EXTERN ??zll_GenerateRandNum?relay
        FUNCTION ??zll_GenerateRandNum?relay,00H
        EXTERN ??zll_GetMsgRssi?relay
        FUNCTION ??zll_GetMsgRssi?relay,00H
        EXTERN ??zll_GetRandPrimaryChannel?relay
        FUNCTION ??zll_GetRandPrimaryChannel?relay,00H
        EXTERN ??zll_InitVariables?relay
        FUNCTION ??zll_InitVariables?relay,00H
        EXTERN ??zll_IsFactoryNew?relay
        FUNCTION ??zll_IsFactoryNew?relay,00H
        EXTERN ??zll_IsValidTransID?relay
        FUNCTION ??zll_IsValidTransID?relay,00H
        EXTERN ??zll_NewNwkUpdateId?relay
        FUNCTION ??zll_NewNwkUpdateId?relay,00H
        EXTERN ??zll_PerformNetworkDisc?relay
        FUNCTION ??zll_PerformNetworkDisc?relay,00H
        EXTERN ??zll_PermitJoin?relay
        FUNCTION ??zll_PermitJoin?relay,00H
        EXTERN ??zll_ProcessNwkUpdate?relay
        FUNCTION ??zll_ProcessNwkUpdate?relay,00H
        EXTERN ??zll_RegisterApp?relay
        FUNCTION ??zll_RegisterApp?relay,00H
        EXTERN ??zll_ResetToFactoryNew?relay
        FUNCTION ??zll_ResetToFactoryNew?relay,00H
        EXTERN ??zll_RouterProcessZDOMsg?relay
        FUNCTION ??zll_RouterProcessZDOMsg?relay,00H
        EXTERN ??zll_SendDeviceInfoRsp?relay
        FUNCTION ??zll_SendDeviceInfoRsp?relay,00H
        EXTERN ??zll_SendLeaveReq?relay
        FUNCTION ??zll_SendLeaveReq?relay,00H
        EXTERN ??zll_SendScanRsp?relay
        FUNCTION ??zll_SendScanRsp?relay,00H
        EXTERN ??zll_SetMacNwkParams?relay
        FUNCTION ??zll_SetMacNwkParams?relay,00H
        EXTERN ??zll_SetNIB?relay
        FUNCTION ??zll_SetNIB?relay,00H
        EXTERN ??zll_SetZllTaskId?relay
        FUNCTION ??zll_SetZllTaskId?relay,00H
        EXTERN ??zll_UpdateFreeRanges?relay
        FUNCTION ??zll_UpdateFreeRanges?relay,00H
        EXTERN ??zll_UpdateNV?relay
        FUNCTION ??zll_UpdateNV?relay,00H
        EXTERN AddrMgrSetDefaultNV
        FUNCTION AddrMgrSetDefaultNV,0202H
        ARGFRAME ISTACK, 0, STACK
        ARGFRAME PSTACK, 0, STACK
        ARGFRAME XSTACK, 44, STACK
        ARGFRAME IOVERLAY, 0, STATIC
        ARGFRAME DOVERLAY, 0, STATIC
        EXTERN AssocReset
        FUNCTION AssocReset,0202H
        ARGFRAME ISTACK, 0, STACK
        ARGFRAME PSTACK, 0, STACK
        ARGFRAME XSTACK, 44, STACK
        ARGFRAME IOVERLAY, 0, STATIC
        ARGFRAME DOVERLAY, 0, STATIC
        EXTERN NLME_DirectJoinRequestWithAddr
        FUNCTION NLME_DirectJoinRequestWithAddr,0202H
        ARGFRAME ISTACK, 0, STACK
        ARGFRAME PSTACK, 0, STACK
        ARGFRAME XSTACK, 16, STACK
        ARGFRAME IOVERLAY, 0, STATIC
        ARGFRAME DOVERLAY, 0, STATIC
        EXTERN NLME_GetExtAddr
        FUNCTION NLME_GetExtAddr,0202H
        ARGFRAME ISTACK, 0, STACK
        ARGFRAME PSTACK, 0, STACK
        ARGFRAME XSTACK, 16, STACK
        ARGFRAME IOVERLAY, 0, STATIC
        ARGFRAME DOVERLAY, 0, STATIC
        EXTERN NLME_GetShortAddr
        FUNCTION NLME_GetShortAddr,0202H
        ARGFRAME ISTACK, 0, STACK
        ARGFRAME PSTACK, 0, STACK
        ARGFRAME XSTACK, 16, STACK
        ARGFRAME IOVERLAY, 0, STATIC
        ARGFRAME DOVERLAY, 0, STATIC
        EXTERN ZDAppTaskID
        EXTERN ZDApp_LeaveCtrlReset
        FUNCTION ZDApp_LeaveCtrlReset,0202H
        ARGFRAME ISTACK, 0, STACK
        ARGFRAME PSTACK, 0, STACK
        ARGFRAME XSTACK, 13, STACK
        ARGFRAME IOVERLAY, 0, STATIC
        ARGFRAME DOVERLAY, 0, STATIC
        EXTERN ZDOInitDevice
        FUNCTION ZDOInitDevice,0202H
        ARGFRAME ISTACK, 2, STACK
        ARGFRAME PSTACK, 0, STACK
        ARGFRAME XSTACK, 13, STACK
        ARGFRAME IOVERLAY, 0, STATIC
        ARGFRAME DOVERLAY, 0, STATIC
        EXTERN ZDO_Config_Node_Descriptor
        EXTERN ZDO_RegisterForZDOMsg
        FUNCTION ZDO_RegisterForZDOMsg,0202H
        ARGFRAME ISTACK, 0, STACK
        ARGFRAME PSTACK, 0, STACK
        ARGFRAME XSTACK, 9, STACK
        ARGFRAME IOVERLAY, 0, STATIC
        ARGFRAME DOVERLAY, 0, STATIC
        EXTERN ZDO_RegisterForZdoCB
        FUNCTION ZDO_RegisterForZdoCB,0202H
        ARGFRAME ISTACK, 0, STACK
        ARGFRAME PSTACK, 0, STACK
        ARGFRAME XSTACK, 9, STACK
        ARGFRAME IOVERLAY, 0, STATIC
        ARGFRAME DOVERLAY, 0, STATIC
        EXTERN ZDP_DeviceAnnce
        FUNCTION ZDP_DeviceAnnce,0202H
        ARGFRAME ISTACK, 0, STACK
        ARGFRAME PSTACK, 0, STACK
        ARGFRAME XSTACK, 17, STACK
        ARGFRAME IOVERLAY, 0, STATIC
        ARGFRAME DOVERLAY, 0, STATIC
        EXTERN ZDSecMgrUpdateTCAddress
        FUNCTION ZDSecMgrUpdateTCAddress,0202H
        ARGFRAME ISTACK, 0, STACK
        ARGFRAME PSTACK, 0, STACK
        ARGFRAME XSTACK, 13, STACK
        ARGFRAME IOVERLAY, 0, STATIC
        ARGFRAME DOVERLAY, 0, STATIC
        EXTERN ZMacSetReq
        FUNCTION ZMacSetReq,0202H
        ARGFRAME ISTACK, 2, STACK
        ARGFRAME PSTACK, 0, STACK
        ARGFRAME XSTACK, 1, STACK
        ARGFRAME IOVERLAY, 0, STATIC
        ARGFRAME DOVERLAY, 0, STATIC
        EXTERN _NIB
        EXTERN aps_FindAllGroupsForEndpoint
        FUNCTION aps_FindAllGroupsForEndpoint,0202H
        ARGFRAME ISTACK, 0, STACK
        ARGFRAME PSTACK, 0, STACK
        ARGFRAME XSTACK, 44, STACK
        ARGFRAME IOVERLAY, 0, STATIC
        ARGFRAME DOVERLAY, 0, STATIC
        EXTERN aps_RemoveAllGroup
        FUNCTION aps_RemoveAllGroup,0202H
        ARGFRAME ISTACK, 0, STACK
        ARGFRAME PSTACK, 0, STACK
        ARGFRAME XSTACK, 44, STACK
        ARGFRAME IOVERLAY, 0, STATIC
        ARGFRAME DOVERLAY, 0, STATIC
        EXTERN epList
        EXTERN nwkNeighborInitTable
        FUNCTION nwkNeighborInitTable,0202H
        ARGFRAME ISTACK, 0, STACK
        ARGFRAME PSTACK, 0, STACK
        ARGFRAME XSTACK, 44, STACK
        ARGFRAME IOVERLAY, 0, STATIC
        ARGFRAME DOVERLAY, 0, STATIC
        EXTERN nwk_ExtPANIDValid
        FUNCTION nwk_ExtPANIDValid,0202H
        ARGFRAME ISTACK, 0, STACK
        ARGFRAME PSTACK, 0, STACK
        ARGFRAME XSTACK, 16, STACK
        ARGFRAME IOVERLAY, 0, STATIC
        ARGFRAME DOVERLAY, 0, STATIC
        EXTERN osal_mem_alloc
        FUNCTION osal_mem_alloc,0202H
        ARGFRAME ISTACK, 0, STACK
        ARGFRAME PSTACK, 0, STACK
        ARGFRAME XSTACK, 22, STACK
        ARGFRAME IOVERLAY, 0, STATIC
        ARGFRAME DOVERLAY, 0, STATIC
        EXTERN osal_mem_free
        FUNCTION osal_mem_free,0202H
        ARGFRAME ISTACK, 0, STACK
        ARGFRAME PSTACK, 0, STACK
        ARGFRAME XSTACK, 22, STACK
        ARGFRAME IOVERLAY, 0, STATIC
        ARGFRAME DOVERLAY, 0, STATIC
        EXTERN osal_memset
        FUNCTION osal_memset,0202H
        ARGFRAME ISTACK, 0, STACK
        ARGFRAME PSTACK, 0, STACK
        ARGFRAME XSTACK, 22, STACK
        ARGFRAME IOVERLAY, 0, STATIC
        ARGFRAME DOVERLAY, 0, STATIC
        EXTERN osal_msg_deallocate
        FUNCTION osal_msg_deallocate,0202H
        ARGFRAME ISTACK, 0, STACK
        ARGFRAME PSTACK, 0, STACK
        ARGFRAME XSTACK, 16, STACK
        ARGFRAME IOVERLAY, 0, STATIC
        ARGFRAME DOVERLAY, 0, STATIC
        EXTERN osal_msg_receive
        FUNCTION osal_msg_receive,0202H
        ARGFRAME ISTACK, 0, STACK
        ARGFRAME PSTACK, 0, STACK
        ARGFRAME XSTACK, 16, STACK
        ARGFRAME IOVERLAY, 0, STATIC
        ARGFRAME DOVERLAY, 0, STATIC
        EXTERN osal_rand
        FUNCTION osal_rand,0202H
        ARGFRAME ISTACK, 0, STACK
        ARGFRAME PSTACK, 0, STACK
        ARGFRAME XSTACK, 16, STACK
        ARGFRAME IOVERLAY, 0, STATIC
        ARGFRAME DOVERLAY, 0, STATIC
        EXTERN osal_set_event
        FUNCTION osal_set_event,0202H
        ARGFRAME ISTACK, 2, STACK
        ARGFRAME PSTACK, 0, STACK
        ARGFRAME XSTACK, 44, STACK
        ARGFRAME IOVERLAY, 0, STATIC
        ARGFRAME DOVERLAY, 0, STATIC
        EXTERN osal_start_timerEx
        FUNCTION osal_start_timerEx,0202H
        ARGFRAME ISTACK, 0, STACK
        ARGFRAME PSTACK, 0, STACK
        ARGFRAME XSTACK, 48, STACK
        ARGFRAME IOVERLAY, 0, STATIC
        ARGFRAME DOVERLAY, 0, STATIC
        EXTERN pDiscoveredNwkParamList
        EXTERN sAddrExtCmp
        FUNCTION sAddrExtCmp,0202H
        ARGFRAME ISTACK, 0, STACK
        ARGFRAME PSTACK, 0, STACK
        ARGFRAME XSTACK, 12, STACK
        ARGFRAME IOVERLAY, 0, STATIC
        ARGFRAME DOVERLAY, 0, STATIC
        EXTERN sAddrExtCpy
        FUNCTION sAddrExtCpy,0202H
        ARGFRAME ISTACK, 0, STACK
        ARGFRAME PSTACK, 0, STACK
        ARGFRAME XSTACK, 22, STACK
        ARGFRAME IOVERLAY, 0, STATIC
        ARGFRAME DOVERLAY, 0, STATIC
        EXTERN zclGeneral_RemoveAllScenes
        FUNCTION zclGeneral_RemoveAllScenes,0202H
        ARGFRAME ISTACK, 0, STACK
        ARGFRAME PSTACK, 0, STACK
        ARGFRAME XSTACK, 44, STACK
        ARGFRAME IOVERLAY, 0, STATIC
        ARGFRAME DOVERLAY, 0, STATIC
        EXTERN zclLL_RegisterInterPANCmdCallbacks
        FUNCTION zclLL_RegisterInterPANCmdCallbacks,0202H
        ARGFRAME ISTACK, 0, STACK
        ARGFRAME PSTACK, 0, STACK
        ARGFRAME XSTACK, 9, STACK
        ARGFRAME IOVERLAY, 0, STATIC
        ARGFRAME DOVERLAY, 0, STATIC
        EXTERN zclLL_Send_NwkJoinRsp
        FUNCTION zclLL_Send_NwkJoinRsp,0202H
        ARGFRAME ISTACK, 0, STACK
        ARGFRAME PSTACK, 0, STACK
        ARGFRAME XSTACK, 18, STACK
        ARGFRAME IOVERLAY, 0, STATIC
        ARGFRAME DOVERLAY, 0, STATIC
        EXTERN zclLL_Send_NwkStartRsp
        FUNCTION zclLL_Send_NwkStartRsp,0202H
        ARGFRAME ISTACK, 0, STACK
        ARGFRAME PSTACK, 0, STACK
        ARGFRAME XSTACK, 23, STACK
        ARGFRAME IOVERLAY, 0, STATIC
        ARGFRAME DOVERLAY, 0, STATIC
        EXTERN zcl_registerForMsg
        FUNCTION zcl_registerForMsg,0202H
        ARGFRAME ISTACK, 0, STACK
        ARGFRAME PSTACK, 0, STACK
        ARGFRAME XSTACK, 9, STACK
        ARGFRAME IOVERLAY, 0, STATIC
        ARGFRAME DOVERLAY, 0, STATIC
        EXTERN zllHAScanInitiated
        EXTERN zllLeaveInitiated
        EXTERN zllResponseID
        EXTERN zllTransID
        EXTERN zll_ClassicalCommissioningInit
        FUNCTION zll_ClassicalCommissioningInit,0202H
        ARGFRAME ISTACK, 2, STACK
        ARGFRAME PSTACK, 0, STACK
        ARGFRAME XSTACK, 0, STACK
        ARGFRAME IOVERLAY, 0, STATIC
        ARGFRAME DOVERLAY, 0, STATIC
        EXTERN zll_ClassicalCommissioningJoinDiscoveredNwk
        FUNCTION zll_ClassicalCommissioningJoinDiscoveredNwk,0202H
        ARGFRAME ISTACK, 0, STACK
        ARGFRAME PSTACK, 0, STACK
        ARGFRAME XSTACK, 16, STACK
        ARGFRAME IOVERLAY, 0, STATIC
        ARGFRAME DOVERLAY, 0, STATIC
        EXTERN zll_DecryptNwkKey
        FUNCTION zll_DecryptNwkKey,0202H
        ARGFRAME ISTACK, 0, STACK
        ARGFRAME PSTACK, 0, STACK
        ARGFRAME XSTACK, 21, STACK
        ARGFRAME IOVERLAY, 0, STATIC
        ARGFRAME DOVERLAY, 0, STATIC
        EXTERN zll_FreeNwkParamList
        FUNCTION zll_FreeNwkParamList,0202H
        ARGFRAME ISTACK, 0, STACK
        ARGFRAME PSTACK, 0, STACK
        ARGFRAME XSTACK, 16, STACK
        ARGFRAME IOVERLAY, 0, STATIC
        ARGFRAME DOVERLAY, 0, STATIC
        EXTERN zll_GenerateRandNum
        FUNCTION zll_GenerateRandNum,0202H
        ARGFRAME ISTACK, 0, STACK
        ARGFRAME PSTACK, 0, STACK
        ARGFRAME XSTACK, 16, STACK
        ARGFRAME IOVERLAY, 0, STATIC
        ARGFRAME DOVERLAY, 0, STATIC
        EXTERN zll_GetMsgRssi
        FUNCTION zll_GetMsgRssi,0202H
        ARGFRAME ISTACK, 0, STACK
        ARGFRAME PSTACK, 0, STACK
        ARGFRAME XSTACK, 12, STACK
        ARGFRAME IOVERLAY, 0, STATIC
        ARGFRAME DOVERLAY, 0, STATIC
        EXTERN zll_GetRandPrimaryChannel
        FUNCTION zll_GetRandPrimaryChannel,0202H
        ARGFRAME ISTACK, 0, STACK
        ARGFRAME PSTACK, 0, STACK
        ARGFRAME XSTACK, 16, STACK
        ARGFRAME IOVERLAY, 0, STATIC
        ARGFRAME DOVERLAY, 0, STATIC
        EXTERN zll_InitVariables
        FUNCTION zll_InitVariables,0202H
        ARGFRAME ISTACK, 0, STACK
        ARGFRAME PSTACK, 0, STACK
        ARGFRAME XSTACK, 9, STACK
        ARGFRAME IOVERLAY, 0, STATIC
        ARGFRAME DOVERLAY, 0, STATIC
        EXTERN zll_IsFactoryNew
        FUNCTION zll_IsFactoryNew,0202H
        ARGFRAME ISTACK, 2, STACK
        ARGFRAME PSTACK, 0, STACK
        ARGFRAME XSTACK, 16, STACK
        ARGFRAME IOVERLAY, 0, STATIC
        ARGFRAME DOVERLAY, 0, STATIC
        EXTERN zll_IsValidTransID
        FUNCTION zll_IsValidTransID,0202H
        ARGFRAME ISTACK, 2, STACK
        ARGFRAME PSTACK, 0, STACK
        ARGFRAME XSTACK, 16, STACK
        ARGFRAME IOVERLAY, 0, STATIC
        ARGFRAME DOVERLAY, 0, STATIC
        EXTERN zll_NewNwkUpdateId
        FUNCTION zll_NewNwkUpdateId,0202H
        ARGFRAME ISTACK, 0, STACK
        ARGFRAME PSTACK, 0, STACK
        ARGFRAME XSTACK, 9, STACK
        ARGFRAME IOVERLAY, 0, STATIC
        ARGFRAME DOVERLAY, 0, STATIC
        EXTERN zll_PerformNetworkDisc
        FUNCTION zll_PerformNetworkDisc,0202H
        ARGFRAME ISTACK, 0, STACK
        ARGFRAME PSTACK, 0, STACK
        ARGFRAME XSTACK, 16, STACK
        ARGFRAME IOVERLAY, 0, STATIC
        ARGFRAME DOVERLAY, 0, STATIC
        EXTERN zll_PermitJoin
        FUNCTION zll_PermitJoin,0202H
        ARGFRAME ISTACK, 2, STACK
        ARGFRAME PSTACK, 0, STACK
        ARGFRAME XSTACK, 13, STACK
        ARGFRAME IOVERLAY, 0, STATIC
        ARGFRAME DOVERLAY, 0, STATIC
        EXTERN zll_ProcessNwkUpdate
        FUNCTION zll_ProcessNwkUpdate,0202H
        ARGFRAME ISTACK, 0, STACK
        ARGFRAME PSTACK, 0, STACK
        ARGFRAME XSTACK, 9, STACK
        ARGFRAME IOVERLAY, 0, STATIC
        ARGFRAME DOVERLAY, 0, STATIC
        EXTERN zll_RegisterApp
        FUNCTION zll_RegisterApp,0202H
        ARGFRAME ISTACK, 2, STACK
        ARGFRAME PSTACK, 0, STACK
        ARGFRAME XSTACK, 0, STACK
        ARGFRAME IOVERLAY, 0, STATIC
        ARGFRAME DOVERLAY, 0, STATIC
        EXTERN zll_ResetToFactoryNew
        FUNCTION zll_ResetToFactoryNew,0202H
        ARGFRAME ISTACK, 2, STACK
        ARGFRAME PSTACK, 0, STACK
        ARGFRAME XSTACK, 16, STACK
        ARGFRAME IOVERLAY, 0, STATIC
        ARGFRAME DOVERLAY, 0, STATIC
        EXTERN zll_RouterProcessZDOMsg
        FUNCTION zll_RouterProcessZDOMsg,0202H
        ARGFRAME ISTACK, 0, STACK
        ARGFRAME PSTACK, 0, STACK
        ARGFRAME XSTACK, 16, STACK
        ARGFRAME IOVERLAY, 0, STATIC
        ARGFRAME DOVERLAY, 0, STATIC
        EXTERN zll_SendDeviceInfoRsp
        FUNCTION zll_SendDeviceInfoRsp,0202H
        ARGFRAME ISTACK, 0, STACK
        ARGFRAME PSTACK, 0, STACK
        ARGFRAME XSTACK, 15, STACK
        ARGFRAME IOVERLAY, 0, STATIC
        ARGFRAME DOVERLAY, 0, STATIC
        EXTERN zll_SendLeaveReq
        FUNCTION zll_SendLeaveReq,0202H
        ARGFRAME ISTACK, 0, STACK
        ARGFRAME PSTACK, 0, STACK
        ARGFRAME XSTACK, 16, STACK
        ARGFRAME IOVERLAY, 0, STATIC
        ARGFRAME DOVERLAY, 0, STATIC
        EXTERN zll_SendScanRsp
        FUNCTION zll_SendScanRsp,0202H
        ARGFRAME ISTACK, 0, STACK
        ARGFRAME PSTACK, 0, STACK
        ARGFRAME XSTACK, 16, STACK
        ARGFRAME IOVERLAY, 0, STATIC
        ARGFRAME DOVERLAY, 0, STATIC
        EXTERN zll_SetMacNwkParams
        FUNCTION zll_SetMacNwkParams,0202H
        ARGFRAME ISTACK, 0, STACK
        ARGFRAME PSTACK, 0, STACK
        ARGFRAME XSTACK, 10, STACK
        ARGFRAME IOVERLAY, 0, STATIC
        ARGFRAME DOVERLAY, 0, STATIC
        EXTERN zll_SetNIB
        FUNCTION zll_SetNIB,0202H
        ARGFRAME ISTACK, 0, STACK
        ARGFRAME PSTACK, 0, STACK
        ARGFRAME XSTACK, 17, STACK
        ARGFRAME IOVERLAY, 0, STATIC
        ARGFRAME DOVERLAY, 0, STATIC
        EXTERN zll_SetZllTaskId
        FUNCTION zll_SetZllTaskId,0202H
        ARGFRAME ISTACK, 0, STACK
        ARGFRAME PSTACK, 0, STACK
        ARGFRAME XSTACK, 9, STACK
        ARGFRAME IOVERLAY, 0, STATIC
        ARGFRAME DOVERLAY, 0, STATIC
        EXTERN zll_UpdateFreeRanges
        FUNCTION zll_UpdateFreeRanges,0202H
        ARGFRAME ISTACK, 0, STACK
        ARGFRAME PSTACK, 0, STACK
        ARGFRAME XSTACK, 13, STACK
        ARGFRAME IOVERLAY, 0, STATIC
        ARGFRAME DOVERLAY, 0, STATIC
        EXTERN zll_UpdateNV
        FUNCTION zll_UpdateNV,0202H
        ARGFRAME ISTACK, 0, STACK
        ARGFRAME PSTACK, 0, STACK
        ARGFRAME XSTACK, 13, STACK
        ARGFRAME IOVERLAY, 0, STATIC
        ARGFRAME DOVERLAY, 0, STATIC

// D:\Texas Instruments\Z-Stack Lighting 1.0.2\Projects\zstack\ZLL\Source\zll_target.c
//    1 /**************************************************************************************************
//    2   Filename:       zll_target.c
//    3   Revised:        $Date: 2013-11-26 15:12:49 -0800 (Tue, 26 Nov 2013) $
//    4   Revision:       $Revision: 36298 $
//    5 
//    6   Description:    Zigbee Cluster Library - Light Link Target.
//    7 
//    8 
//    9   Copyright 2011-2013 Texas Instruments Incorporated. All rights reserved.
//   10 
//   11   IMPORTANT: Your use of this Software is limited to those specific rights
//   12   granted under the terms of a software license agreement between the user
//   13   who downloaded the software, his/her employer (which must be your employer)
//   14   and Texas Instruments Incorporated (the "License").  You may not use this
//   15   Software unless you agree to abide by the terms of the License. The License
//   16   limits your use, and you acknowledge, that the Software may not be modified,
//   17   copied or distributed unless embedded on a Texas Instruments microcontroller
//   18   or used solely and exclusively in conjunction with a Texas Instruments radio
//   19   frequency transceiver, which is integrated into your product.  Other than for
//   20   the foregoing purpose, you may not use, reproduce, copy, prepare derivative
//   21   works of, modify, distribute, perform, display or sell this Software and/or
//   22   its documentation for any purpose.
//   23 
//   24   YOU FURTHER ACKNOWLEDGE AND AGREE THAT THE SOFTWARE AND DOCUMENTATION ARE
//   25   PROVIDED AS IS WITHOUT WARRANTY OF ANY KIND, EITHER EXPRESS OR IMPLIED,
//   26   INCLUDING WITHOUT LIMITATION, ANY WARRANTY OF MERCHANTABILITY, TITLE,
//   27   NON-INFRINGEMENT AND FITNESS FOR A PARTICULAR PURPOSE. IN NO EVENT SHALL
//   28   TEXAS INSTRUMENTS OR ITS LICENSORS BE LIABLE OR OBLIGATED UNDER CONTRACT,
//   29   NEGLIGENCE, STRICT LIABILITY, CONTRIBUTION, BREACH OF WARRANTY, OR OTHER
//   30   LEGAL EQUITABLE THEORY ANY DIRECT OR INDIRECT DAMAGES OR EXPENSES
//   31   INCLUDING BUT NOT LIMITED TO ANY INCIDENTAL, SPECIAL, INDIRECT, PUNITIVE
//   32   OR CONSEQUENTIAL DAMAGES, LOST PROFITS OR LOST DATA, COST OF PROCUREMENT
//   33   OF SUBSTITUTE GOODS, TECHNOLOGY, SERVICES, OR ANY CLAIMS BY THIRD PARTIES
//   34   (INCLUDING BUT NOT LIMITED TO ANY DEFENSE THEREOF), OR OTHER SIMILAR COSTS.
//   35 
//   36   Should you have any questions regarding your right to use this Software,
//   37   contact Texas Instruments Incorporated at www.TI.com.
//   38 **************************************************************************************************/
//   39 
//   40 
//   41 /*********************************************************************
//   42  * INCLUDES
//   43  */
//   44 #include "ZComDef.h"
//   45 #include "OSAL.h"
//   46 #include "OSAL_Nv.h"
//   47 #include "AF.h"
//   48 #include "ZDApp.h"
//   49 #include "nwk_util.h"
//   50 #include "AddrMgr.h"
//   51 #include "ZDSecMgr.h"
//   52 
//   53 #if defined( INTER_PAN )
//   54   #include "stub_aps.h"
//   55 #endif
//   56 
//   57 #include "zcl.h"
//   58 #include "zcl_general.h"
//   59 #include "zcl_ll.h"
//   60 #include "zll.h"
//   61 
//   62 #if defined ( MT_APP_FUNC )
//   63 #include "MT_APP.h"
//   64 #include "zll_rpc.h"
//   65 #endif
//   66 
//   67 #include "zll_target.h"
//   68 
//   69 /*********************************************************************
//   70  * MACROS
//   71  */
//   72 
//   73 /*********************************************************************
//   74  * CONSTANTS
//   75  */
//   76 
//   77 #define ZLL_NWK_START_EVT                                  ZLL_AUX_1_EVT
//   78 #define ZLL_ROUTER_JOIN_EVT                                ZLL_NWK_JOIN_EVT
//   79 
//   80 /*********************************************************************
//   81  * TYPEDEFS
//   82  */
//   83 
//   84 
//   85 typedef union
//   86 {
//   87   zclLLNwkStartReq_t nwkStartReq;
//   88   zclLLNwkJoinReq_t nwkJoinReq;
//   89 } zclLLReq_t;
//   90 
//   91 /*********************************************************************
//   92  * GLOBAL VARIABLES
//   93  */

        RSEG XDATA_Z:XDATA:NOROOT(0)
        DATA8
//   94 uint8 zllTarget_TaskID;
zllTarget_TaskID:
        DS 1
        REQUIRE __INIT_XDATA_Z
//   95 
//   96 /*********************************************************************
//   97  * EXTERNAL VARIABLES
//   98  */
//   99 
//  100 /*********************************************************************
//  101  * EXTERNAL FUNCTIONS
//  102  */
//  103 
//  104 /*********************************************************************
//  105  * LOCAL VARIABLES
//  106  */
//  107 
//  108 
//  109 // Info related to the received request

        RSEG XDATA_Z:XDATA:NOROOT(0)
        DATA8
//  110 static zclLLReq_t rxReq; // network start or join request
rxReq:
        DS 56
        REQUIRE __INIT_XDATA_Z

        RSEG XDATA_Z:XDATA:NOROOT(0)
        DATA8
//  111 static uint8 rxSeqNum;
rxSeqNum:
        DS 1
        REQUIRE __INIT_XDATA_Z

        RSEG XDATA_Z:XDATA:NOROOT(0)
        DATA8
//  112 static afAddrType_t dstAddr;
dstAddr:
        DS 12
        REQUIRE __INIT_XDATA_Z
//  113 
//  114 // Application callback

        RSEG XDATA_Z:XDATA:NOROOT(0)
        DATA16
//  115 static zclGCB_Identify_t pfnIdentifyCB = NULL;
pfnIdentifyCB:
        DS 2
        REQUIRE __INIT_XDATA_Z
//  116 
//  117 /*********************************************************************
//  118  * LOCAL FUNCTIONS
//  119  */
//  120 
//  121 // This callback is called to process a Scan Request command
//  122 static ZStatus_t targetScanReqCB( afAddrType_t *srcAddr, zclLLScanReq_t *pReq, uint8 seqNum );
//  123 
//  124 // This callback is called to process a Device Information Request command
//  125 static ZStatus_t targetDeviceInfoReqCB( afAddrType_t *srcAddr, zclLLDeviceInfoReq_t *pReq, uint8 seqNum );
//  126 
//  127 // This callback is called to process an Identify Request command
//  128 static ZStatus_t targetIdentifyReqCB( afAddrType_t *srcAddr, zclLLIdentifyReq_t *pReq );
//  129 
//  130 // This callback is called to process a Reset to Factory New Request command
//  131 static ZStatus_t targetResetToFNReqCB( afAddrType_t *srcAddr, zclLLResetToFNReq_t *pReq );
//  132 
//  133 // This callback is called to process a Network Start Request command
//  134 static ZStatus_t targetNwkStartReqCB( afAddrType_t *srcAddr, zclLLNwkStartReq_t *pReq, uint8 seqNum );
//  135 
//  136 // This callback is called to process a Network Join Router Request command
//  137 static ZStatus_t targetNwkJoinRtrReqCB( afAddrType_t *srcAddr, zclLLNwkJoinReq_t *pReq, uint8 seqNum );
//  138 
//  139 // This callback is called to process a Network Update Request command
//  140 static ZStatus_t targetNwkUpdateReqCB( afAddrType_t *srcAddr, zclLLNwkUpdateReq_t *pReq );
//  141 
//  142 // This callback is called to process a Leave Confirmation message
//  143 static void *targetZdoLeaveCnfCB( void *pParam );
//  144 
//  145 static void targetProcessStateChange( devStates_t devState );
//  146 
//  147 static void targetStartRtr( zclLLNwkParams_t *pParams, uint32 transID );
//  148 
//  149 static void targetSendNwkStartRsp( afAddrType_t *dstAddr, uint32 transID, uint8 status,
//  150                                    zclLLNwkParams_t *pNwkParams, uint8 nwkUpdateId, uint8 seqNum );
//  151 static void targetSelectNwkParams( void );
//  152 static ZStatus_t targetVerifyNwkParams( uint16 PANID, uint8 *pExtendedPANID );
//  153 
//  154 #if defined (MT_APP_FUNC)
//  155 static void targetProcessRpcMsg( uint8 srcEP, uint8 len, uint8 *msg );
//  156 #endif
//  157 
//  158 /*********************************************************************
//  159  * ZLL Target Callback Table
//  160  */
//  161 // Target Command Callbacks table

        RSEG XDATA_I:XDATA:NOROOT(0)
//  162 static zclLL_InterPANCallbacks_t zllTarget_CmdCBs =
zllTarget_CmdCBs:
        DATA8
        DS 26
        REQUIRE `?<Initializer for zllTarget_CmdCBs>`
        REQUIRE __INIT_XDATA_I
//  163 {
//  164   // Received Server Commands
//  165   targetScanReqCB,       // Scan Request command
//  166   targetDeviceInfoReqCB, // Device Information Request command
//  167   targetIdentifyReqCB,   // Identify Request command
//  168   targetResetToFNReqCB,  // Reset to Factory New Request command
//  169   targetNwkStartReqCB,   // Network Start Request command
//  170   targetNwkJoinRtrReqCB, // Network Join Router Request command
//  171   NULL,                  // Network Join End Device Request command
//  172   targetNwkUpdateReqCB,  // Network Update Request command
//  173 
//  174   // Received Client Commands
//  175   NULL,                  // Scan Response command
//  176   NULL,                  // Device Information Response command
//  177   NULL,                  // Network Start Response command
//  178   NULL,                  // Network Join Router Response command
//  179   NULL                   // Network Join End Device Response command
//  180 };
//  181 
//  182 /*********************************************************************
//  183  * PUBLIC FUNCTIONS
//  184  */
//  185 
//  186 /*********************************************************************
//  187  * @fn      zllTarget_InitDevice
//  188  *
//  189  * @brief   Start the ZLL Target device in the network if it's not
//  190  *          factory new. Otherwise, determine the network parameters
//  191  *          and wait for a touchlink command.
//  192  *
//  193  * @param   none
//  194  *
//  195  * @return  status
//  196  */

        RSEG BANKED_CODE:CODE:NOROOT(0)
//  197 ZStatus_t zllTarget_InitDevice( void )
zllTarget_InitDevice:
          CFI Block cfiBlock0 Using cfiCommon0
          CFI Function zllTarget_InitDevice
        CODE
//  198 {
        FUNCALL zllTarget_InitDevice, zll_IsFactoryNew
        LOCFRAME ISTACK, 2, STACK
        LOCFRAME PSTACK, 0, STACK
        LOCFRAME XSTACK, 1, STACK
        LOCFRAME IOVERLAY, 0, STATIC
        LOCFRAME DOVERLAY, 0, STATIC
        ARGFRAME ISTACK, 2, STACK
        ARGFRAME PSTACK, 0, STACK
        ARGFRAME XSTACK, 1, STACK
        ARGFRAME IOVERLAY, 0, STATIC
        ARGFRAME DOVERLAY, 0, STATIC
        FUNCALL zllTarget_InitDevice, ZDOInitDevice
        LOCFRAME ISTACK, 2, STACK
        LOCFRAME PSTACK, 0, STACK
        LOCFRAME XSTACK, 1, STACK
        LOCFRAME IOVERLAY, 0, STATIC
        LOCFRAME DOVERLAY, 0, STATIC
        ARGFRAME ISTACK, 2, STACK
        ARGFRAME PSTACK, 0, STACK
        ARGFRAME XSTACK, 1, STACK
        ARGFRAME IOVERLAY, 0, STATIC
        ARGFRAME DOVERLAY, 0, STATIC
        FUNCALL zllTarget_InitDevice, ZMacSetReq
        LOCFRAME ISTACK, 2, STACK
        LOCFRAME PSTACK, 0, STACK
        LOCFRAME XSTACK, 1, STACK
        LOCFRAME IOVERLAY, 0, STATIC
        LOCFRAME DOVERLAY, 0, STATIC
        ARGFRAME ISTACK, 2, STACK
        ARGFRAME PSTACK, 0, STACK
        ARGFRAME XSTACK, 1, STACK
        ARGFRAME IOVERLAY, 0, STATIC
        ARGFRAME DOVERLAY, 0, STATIC
        FUNCALL zllTarget_InitDevice, targetSelectNwkParams
        LOCFRAME ISTACK, 2, STACK
        LOCFRAME PSTACK, 0, STACK
        LOCFRAME XSTACK, 1, STACK
        LOCFRAME IOVERLAY, 0, STATIC
        LOCFRAME DOVERLAY, 0, STATIC
        ARGFRAME ISTACK, 2, STACK
        ARGFRAME PSTACK, 0, STACK
        ARGFRAME XSTACK, 1, STACK
        ARGFRAME IOVERLAY, 0, STATIC
        ARGFRAME DOVERLAY, 0, STATIC
        FUNCALL zllTarget_InitDevice, zll_PermitJoin
        LOCFRAME ISTACK, 2, STACK
        LOCFRAME PSTACK, 0, STACK
        LOCFRAME XSTACK, 1, STACK
        LOCFRAME IOVERLAY, 0, STATIC
        LOCFRAME DOVERLAY, 0, STATIC
        ARGFRAME ISTACK, 2, STACK
        ARGFRAME PSTACK, 0, STACK
        ARGFRAME XSTACK, 1, STACK
        ARGFRAME IOVERLAY, 0, STATIC
        ARGFRAME DOVERLAY, 0, STATIC
        PUSH    DPL
          CFI DPL0 Frame(CFA_SP, 4)
          CFI CFA_SP SP+-4
        PUSH    DPH
          CFI DPH0 Frame(CFA_SP, 5)
          CFI CFA_SP SP+-5
        ; Saved register size: 2
        ; Auto size: 1
        MOV     A,#-0x1
        LCALL   ?ALLOC_XSTACK8
          CFI CFA_XSP16 add(XSP16, 1)
//  199   if ( !zll_IsFactoryNew() )
        ; Setup parameters for call to function zll_IsFactoryNew
        LCALL   ??zll_IsFactoryNew?relay
        MOV     A,R1
        JNZ     ??zllTarget_InitDevice_0
//  200   {
//  201     // Resume ZigBee functionality based on the info stored in NV
//  202     ZDOInitDevice( 0 );
        ; Setup parameters for call to function ZDOInitDevice
        MOV     R2,#0x0
        MOV     R3,#0x0
        LCALL   ??ZDOInitDevice?relay
        SJMP    ??zllTarget_InitDevice_1
//  203   }
//  204   else
//  205   {
//  206     uint8 x = TRUE;
??zllTarget_InitDevice_0:
        MOV     DPL,?XSP + 0
        MOV     DPH,?XSP + 1
        MOV     A,#0x1
        MOVX    @DPTR,A
//  207 
//  208     // Enable our receiver
//  209     ZMacSetReq( ZMacRxOnIdle, &x );
        ; Setup parameters for call to function ZMacSetReq
        MOV     R2,DPL
        MOV     R3,DPH
        MOV     R1,#0x52
        LCALL   ??ZMacSetReq?relay
//  210 
//  211     // Determine unique PAN Id and Extended PAN Id
//  212     targetSelectNwkParams();
        ; Setup parameters for call to function targetSelectNwkParams
        LCALL   ??targetSelectNwkParams?relay
//  213 
//  214 #ifndef HOLD_AUTO_START
//  215     zll_ClassicalCommissioningInit();
//  216 #endif
//  217 
//  218     // Wait for a touchlink command
//  219   }
//  220 
//  221   zllTarget_PermitJoin(0);
??zllTarget_InitDevice_1:
        ; Setup parameters for call to function zll_PermitJoin
        MOV     R1,#0x0
        LCALL   ??zll_PermitJoin?relay
//  222 
//  223   return ( ZSuccess );
        MOV     R1,#0x0
        MOV     A,#0x1
        LCALL   ?DEALLOC_XSTACK8
          CFI CFA_XSP16 XSP16+0
        LJMP    ?Subroutine0 & 0xFFFF
          CFI EndBlock cfiBlock0
//  224 }
//  225 
//  226 /*********************************************************************
//  227  * @fn      targetProcessStateChange
//  228  *
//  229  * @brief   Process ZDO device state change
//  230  *
//  231  * @param   devState - The device's network state
//  232  *
//  233  * @return  none
//  234  */
//  235 static void targetProcessStateChange( devStates_t devState )
//  236 {
//  237   if ( ( devState == DEV_ROUTER ) || ( devState == DEV_END_DEVICE ) )
//  238   {
//  239     ZDP_DeviceAnnce( NLME_GetShortAddr(), NLME_GetExtAddr(),
//  240                      ZDO_Config_Node_Descriptor.CapabilityFlags, 0 );
//  241   }
//  242 }
//  243 
//  244 /*********************************************************************
//  245  * @fn      zllTarget_RegisterIdentifyCB
//  246  *
//  247  * @brief   Register an Application's Idnetify callback function.
//  248  *
//  249  * @param   pfnIdentify - application callback
//  250  *
//  251  * @return  none
//  252  */

        RSEG BANKED_CODE:CODE:NOROOT(0)
//  253 void zllTarget_RegisterIdentifyCB( zclGCB_Identify_t pfnIdentify )
zllTarget_RegisterIdentifyCB:
          CFI Block cfiBlock1 Using cfiCommon0
          CFI Function zllTarget_RegisterIdentifyCB
        CODE
//  254 {
        PUSH    DPL
          CFI DPL0 Frame(CFA_SP, 4)
          CFI CFA_SP SP+-4
        PUSH    DPH
          CFI DPH0 Frame(CFA_SP, 5)
          CFI CFA_SP SP+-5
        ; Saved register size: 2
        ; Auto size: 0
//  255   pfnIdentifyCB = pfnIdentify;
        MOV     DPTR,#pfnIdentifyCB
        MOV     A,R2
        MOVX    @DPTR,A
        INC     DPTR
        MOV     A,R3
        MOVX    @DPTR,A
//  256 }
        LJMP    ?Subroutine0 & 0xFFFF
          CFI EndBlock cfiBlock1
//  257 
//  258 /*********************************************************************
//  259  * @fn      zllTarget_Init
//  260  *
//  261  * @brief   Initialization function for the ZLL Target task.
//  262  *
//  263  * @param   task_id - ZLL Target task id
//  264  *
//  265  * @return  none
//  266  */

        RSEG BANKED_CODE:CODE:NOROOT(0)
//  267 void zllTarget_Init( uint8 task_id )
zllTarget_Init:
          CFI Block cfiBlock2 Using cfiCommon0
          CFI Function zllTarget_Init
        CODE
//  268 {
        FUNCALL zllTarget_Init, zll_SetZllTaskId
        LOCFRAME ISTACK, 0, STACK
        LOCFRAME PSTACK, 0, STACK
        LOCFRAME XSTACK, 9, STACK
        LOCFRAME IOVERLAY, 0, STATIC
        LOCFRAME DOVERLAY, 0, STATIC
        ARGFRAME ISTACK, 0, STACK
        ARGFRAME PSTACK, 0, STACK
        ARGFRAME XSTACK, 9, STACK
        ARGFRAME IOVERLAY, 0, STATIC
        ARGFRAME DOVERLAY, 0, STATIC
        FUNCALL zllTarget_Init, zll_InitVariables
        LOCFRAME ISTACK, 0, STACK
        LOCFRAME PSTACK, 0, STACK
        LOCFRAME XSTACK, 9, STACK
        LOCFRAME IOVERLAY, 0, STATIC
        LOCFRAME DOVERLAY, 0, STATIC
        ARGFRAME ISTACK, 0, STACK
        ARGFRAME PSTACK, 0, STACK
        ARGFRAME XSTACK, 9, STACK
        ARGFRAME IOVERLAY, 0, STATIC
        ARGFRAME DOVERLAY, 0, STATIC
        FUNCALL zllTarget_Init, zcl_registerForMsg
        LOCFRAME ISTACK, 0, STACK
        LOCFRAME PSTACK, 0, STACK
        LOCFRAME XSTACK, 9, STACK
        LOCFRAME IOVERLAY, 0, STATIC
        LOCFRAME DOVERLAY, 0, STATIC
        ARGFRAME ISTACK, 0, STACK
        ARGFRAME PSTACK, 0, STACK
        ARGFRAME XSTACK, 9, STACK
        ARGFRAME IOVERLAY, 0, STATIC
        ARGFRAME DOVERLAY, 0, STATIC
        FUNCALL zllTarget_Init, zclLL_RegisterInterPANCmdCallbacks
        LOCFRAME ISTACK, 0, STACK
        LOCFRAME PSTACK, 0, STACK
        LOCFRAME XSTACK, 9, STACK
        LOCFRAME IOVERLAY, 0, STATIC
        LOCFRAME DOVERLAY, 0, STATIC
        ARGFRAME ISTACK, 0, STACK
        ARGFRAME PSTACK, 0, STACK
        ARGFRAME XSTACK, 9, STACK
        ARGFRAME IOVERLAY, 0, STATIC
        ARGFRAME DOVERLAY, 0, STATIC
        FUNCALL zllTarget_Init, ZDO_RegisterForZdoCB
        LOCFRAME ISTACK, 0, STACK
        LOCFRAME PSTACK, 0, STACK
        LOCFRAME XSTACK, 9, STACK
        LOCFRAME IOVERLAY, 0, STATIC
        LOCFRAME DOVERLAY, 0, STATIC
        ARGFRAME ISTACK, 0, STACK
        ARGFRAME PSTACK, 0, STACK
        ARGFRAME XSTACK, 9, STACK
        ARGFRAME IOVERLAY, 0, STATIC
        ARGFRAME DOVERLAY, 0, STATIC
        FUNCALL zllTarget_Init, ZDO_RegisterForZDOMsg
        LOCFRAME ISTACK, 0, STACK
        LOCFRAME PSTACK, 0, STACK
        LOCFRAME XSTACK, 9, STACK
        LOCFRAME IOVERLAY, 0, STATIC
        LOCFRAME DOVERLAY, 0, STATIC
        ARGFRAME ISTACK, 0, STACK
        ARGFRAME PSTACK, 0, STACK
        ARGFRAME XSTACK, 9, STACK
        ARGFRAME IOVERLAY, 0, STATIC
        ARGFRAME DOVERLAY, 0, STATIC
        FUNCALL zllTarget_Init, ZDO_RegisterForZDOMsg
        LOCFRAME ISTACK, 0, STACK
        LOCFRAME PSTACK, 0, STACK
        LOCFRAME XSTACK, 9, STACK
        LOCFRAME IOVERLAY, 0, STATIC
        LOCFRAME DOVERLAY, 0, STATIC
        ARGFRAME ISTACK, 0, STACK
        ARGFRAME PSTACK, 0, STACK
        ARGFRAME XSTACK, 9, STACK
        ARGFRAME IOVERLAY, 0, STATIC
        ARGFRAME DOVERLAY, 0, STATIC
        MOV     A,#-0x9
        LCALL   ?BANKED_ENTER_XDATA
          CFI DPH0 load(1, XDATA, add(CFA_XSP16, literal(-1)))
          CFI DPL0 load(1, XDATA, add(CFA_XSP16, literal(-2)))
          CFI ?BRET_EXT load(1, XDATA, add(CFA_XSP16, literal(-3)))
          CFI ?RET_HIGH load(1, XDATA, add(CFA_XSP16, literal(-4)))
          CFI ?RET_LOW load(1, XDATA, add(CFA_XSP16, literal(-5)))
          CFI R7 load(1, XDATA, add(CFA_XSP16, literal(-6)))
          CFI V0 load(1, XDATA, add(CFA_XSP16, literal(-7)))
          CFI VB load(1, XDATA, add(CFA_XSP16, literal(-8)))
          CFI R6 load(1, XDATA, add(CFA_XSP16, literal(-9)))
          CFI CFA_SP SP+0
          CFI CFA_XSP16 add(XSP16, 9)
        ; Saved register size: 9
        ; Auto size: 0
        MOV     A,R1
//  269   // Save our own Task ID
//  270   zllTarget_TaskID = task_id;
        MOV     DPTR,#zllTarget_TaskID
        MOVX    @DPTR,A
//  271 
//  272   zll_SetZllTaskId( zllTarget_TaskID );
        ; Setup parameters for call to function zll_SetZllTaskId
        LCALL   ??zll_SetZllTaskId?relay
//  273 
//  274   // Initialize ZLL common variables
//  275   zll_InitVariables( FALSE );
        ; Setup parameters for call to function zll_InitVariables
        MOV     R1,#0x0
        LCALL   ??zll_InitVariables?relay
//  276 
//  277   // Register the Application to receive the unprocessed Foundation command/response messages
//  278   zcl_registerForMsg( zllTarget_TaskID );
        ; Setup parameters for call to function zcl_registerForMsg
        MOV     DPTR,#zllTarget_TaskID
        MOVX    A,@DPTR
        MOV     R1,A
        LCALL   ??zcl_registerForMsg?relay
//  279 
//  280   // Register for ZLL Target callbacks (for Inter-PAN commands)
//  281   zclLL_RegisterInterPANCmdCallbacks( &zllTarget_CmdCBs );
        ; Setup parameters for call to function zclLL_RegisterInterPANCmdCallbacks
        MOV     R2,#zllTarget_CmdCBs & 0xff
        MOV     R3,#(zllTarget_CmdCBs >> 8) & 0xff
        LCALL   ??zclLL_RegisterInterPANCmdCallbacks?relay
//  282 
//  283   // Register for Initiator to receive Leave Confirm
//  284   ZDO_RegisterForZdoCB( ZDO_LEAVE_CNF_CBID, targetZdoLeaveCnfCB );
        ; Setup parameters for call to function ZDO_RegisterForZdoCB
        MOV     R2,#??targetZdoLeaveCnfCB?relay & 0xff
        MOV     R3,#(??targetZdoLeaveCnfCB?relay >> 8) & 0xff
        MOV     R1,#0x5
        LCALL   ??ZDO_RegisterForZdoCB?relay
//  285 
//  286   // Register to process ZDO messages
//  287   ZDO_RegisterForZDOMsg( zllTarget_TaskID, Mgmt_Permit_Join_req );
        ; Setup parameters for call to function ZDO_RegisterForZDOMsg
        MOV     R2,#0x36
        MOV     R3,#0x0
        MOV     DPTR,#zllTarget_TaskID
        MOVX    A,@DPTR
        MOV     R1,A
        LCALL   ??ZDO_RegisterForZDOMsg?relay
//  288   ZDO_RegisterForZDOMsg( zllTarget_TaskID, Device_annce );
        ; Setup parameters for call to function ZDO_RegisterForZDOMsg
        MOV     R2,#0x13
        MOV     R3,#0x0
        MOV     DPTR,#zllTarget_TaskID
        MOVX    A,@DPTR
        MOV     R1,A
        LCALL   ??ZDO_RegisterForZDOMsg?relay
          CFI EndBlock cfiBlock2
//  289 }
        REQUIRE ?Subroutine1
        ; // Fall through to label ?Subroutine1

        RSEG BANKED_CODE:CODE:NOROOT(0)
?Subroutine1:
          CFI Block cfiBlock3 Using cfiCommon0
          CFI NoFunction
          CFI CFA_SP SP+0
          CFI CFA_XSP16 add(XSP16, 9)
          CFI VB load(1, XDATA, add(CFA_XSP16, literal(-8)))
          CFI DPL0 load(1, XDATA, add(CFA_XSP16, literal(-2)))
          CFI DPH0 load(1, XDATA, add(CFA_XSP16, literal(-1)))
          CFI R6 load(1, XDATA, add(CFA_XSP16, literal(-9)))
          CFI R7 load(1, XDATA, add(CFA_XSP16, literal(-6)))
          CFI V0 load(1, XDATA, add(CFA_XSP16, literal(-7)))
          CFI ?BRET_EXT load(1, XDATA, add(CFA_XSP16, literal(-3)))
          CFI ?RET_HIGH load(1, XDATA, add(CFA_XSP16, literal(-4)))
          CFI ?RET_LOW load(1, XDATA, add(CFA_XSP16, literal(-5)))
        MOV     R7,#0x1
        LJMP    ?BANKED_LEAVE_XDATA
          CFI EndBlock cfiBlock3
//  290 
//  291 /*********************************************************************
//  292  * @fn      zllTarget_RegisterApp
//  293  *
//  294  * @brief   Register an Application's EndPoint with the ZLL profile.
//  295  *
//  296  * @param   simpleDesc -  application simple description
//  297  * @param   pDeviceInfo - ZLL application device info
//  298  *
//  299  * @return  ZSuccess - Registered
//  300  *          ZInvalidParameter - invalid or duplicate endpoint
//  301  *          ZMemError - not enough memory to add
//  302  */

        RSEG BANKED_CODE:CODE:NOROOT(0)
//  303 ZStatus_t zllTarget_RegisterApp( SimpleDescriptionFormat_t *simpleDesc, zclLLDeviceInfo_t *pDeviceInfo )
zllTarget_RegisterApp:
          CFI Block cfiBlock4 Using cfiCommon0
          CFI Function zllTarget_RegisterApp
        CODE
//  304 {
        FUNCALL zllTarget_RegisterApp, zll_RegisterApp
        LOCFRAME ISTACK, 2, STACK
        LOCFRAME PSTACK, 0, STACK
        LOCFRAME XSTACK, 0, STACK
        LOCFRAME IOVERLAY, 0, STATIC
        LOCFRAME DOVERLAY, 0, STATIC
        ARGFRAME ISTACK, 2, STACK
        ARGFRAME PSTACK, 0, STACK
        ARGFRAME XSTACK, 0, STACK
        ARGFRAME IOVERLAY, 0, STATIC
        ARGFRAME DOVERLAY, 0, STATIC
        PUSH    DPL
          CFI DPL0 Frame(CFA_SP, 4)
          CFI CFA_SP SP+-4
        PUSH    DPH
          CFI DPH0 Frame(CFA_SP, 5)
          CFI CFA_SP SP+-5
        ; Saved register size: 2
        ; Auto size: 0
//  305   return zll_RegisterApp( simpleDesc, pDeviceInfo );
        ; Setup parameters for call to function zll_RegisterApp
        LCALL   ??zll_RegisterApp?relay
        LJMP    ?Subroutine0 & 0xFFFF
          CFI EndBlock cfiBlock4
//  306 }
//  307 
//  308 /*********************************************************************
//  309  * @fn      zllTarget_PermitJoin
//  310  *
//  311  * @brief   Set the router permit join flag, to allow or deny classical
//  312  *          commissioning by other ZigBee devices.
//  313  *
//  314  * @param   duration - enable up to aplcMaxPermitJoinDuration seconds,
//  315  *                     0 to disable
//  316  *
//  317  * @return  status
//  318  */

        RSEG BANKED_CODE:CODE:NOROOT(0)
//  319 ZStatus_t zllTarget_PermitJoin( uint8 duration )
zllTarget_PermitJoin:
          CFI Block cfiBlock5 Using cfiCommon0
          CFI Function zllTarget_PermitJoin
        CODE
//  320 {
        FUNCALL zllTarget_PermitJoin, zll_PermitJoin
        LOCFRAME ISTACK, 0, STACK
        LOCFRAME PSTACK, 0, STACK
        LOCFRAME XSTACK, 9, STACK
        LOCFRAME IOVERLAY, 0, STATIC
        LOCFRAME DOVERLAY, 0, STATIC
        ARGFRAME ISTACK, 0, STACK
        ARGFRAME PSTACK, 0, STACK
        ARGFRAME XSTACK, 9, STACK
        ARGFRAME IOVERLAY, 0, STATIC
        ARGFRAME DOVERLAY, 0, STATIC
        MOV     A,#-0x9
        LCALL   ?BANKED_ENTER_XDATA
          CFI DPH0 load(1, XDATA, add(CFA_XSP16, literal(-1)))
          CFI DPL0 load(1, XDATA, add(CFA_XSP16, literal(-2)))
          CFI ?BRET_EXT load(1, XDATA, add(CFA_XSP16, literal(-3)))
          CFI ?RET_HIGH load(1, XDATA, add(CFA_XSP16, literal(-4)))
          CFI ?RET_LOW load(1, XDATA, add(CFA_XSP16, literal(-5)))
          CFI R7 load(1, XDATA, add(CFA_XSP16, literal(-6)))
          CFI V0 load(1, XDATA, add(CFA_XSP16, literal(-7)))
          CFI VB load(1, XDATA, add(CFA_XSP16, literal(-8)))
          CFI R6 load(1, XDATA, add(CFA_XSP16, literal(-9)))
          CFI CFA_SP SP+0
          CFI CFA_XSP16 add(XSP16, 9)
        ; Saved register size: 9
        ; Auto size: 0
//  321   return zll_PermitJoin( duration );
        ; Setup parameters for call to function zll_PermitJoin
        LCALL   ??zll_PermitJoin?relay
        SJMP    ?Subroutine1
          CFI EndBlock cfiBlock5
//  322 }
//  323 
//  324 /*********************************************************************
//  325  * @fn      zllTarget_event_loop
//  326  *
//  327  * @brief   Event Loop Processor for ZLL Target.
//  328  *
//  329  * @param   task_id - task id
//  330  * @param   events - event bitmap
//  331  *
//  332  * @return  unprocessed events
//  333  */

        RSEG BANKED_CODE:CODE:NOROOT(0)
//  334 uint16 zllTarget_event_loop( uint8 task_id, uint16 events )
zllTarget_event_loop:
          CFI Block cfiBlock6 Using cfiCommon0
          CFI Function zllTarget_event_loop
        CODE
//  335 {
        FUNCALL zllTarget_event_loop, osal_msg_receive
        LOCFRAME ISTACK, 0, STACK
        LOCFRAME PSTACK, 0, STACK
        LOCFRAME XSTACK, 16, STACK
        LOCFRAME IOVERLAY, 0, STATIC
        LOCFRAME DOVERLAY, 0, STATIC
        ARGFRAME ISTACK, 0, STACK
        ARGFRAME PSTACK, 0, STACK
        ARGFRAME XSTACK, 16, STACK
        ARGFRAME IOVERLAY, 0, STATIC
        ARGFRAME DOVERLAY, 0, STATIC
        FUNCALL zllTarget_event_loop, zll_RouterProcessZDOMsg
        LOCFRAME ISTACK, 0, STACK
        LOCFRAME PSTACK, 0, STACK
        LOCFRAME XSTACK, 16, STACK
        LOCFRAME IOVERLAY, 0, STATIC
        LOCFRAME DOVERLAY, 0, STATIC
        ARGFRAME ISTACK, 0, STACK
        ARGFRAME PSTACK, 0, STACK
        ARGFRAME XSTACK, 16, STACK
        ARGFRAME IOVERLAY, 0, STATIC
        ARGFRAME DOVERLAY, 0, STATIC
        FUNCALL zllTarget_event_loop, NLME_GetExtAddr
        LOCFRAME ISTACK, 0, STACK
        LOCFRAME PSTACK, 0, STACK
        LOCFRAME XSTACK, 16, STACK
        LOCFRAME IOVERLAY, 0, STATIC
        LOCFRAME DOVERLAY, 0, STATIC
        ARGFRAME ISTACK, 0, STACK
        ARGFRAME PSTACK, 0, STACK
        ARGFRAME XSTACK, 16, STACK
        ARGFRAME IOVERLAY, 0, STATIC
        ARGFRAME DOVERLAY, 0, STATIC
        FUNCALL zllTarget_event_loop, NLME_GetShortAddr
        LOCFRAME ISTACK, 0, STACK
        LOCFRAME PSTACK, 0, STACK
        LOCFRAME XSTACK, 16, STACK
        LOCFRAME IOVERLAY, 0, STATIC
        LOCFRAME DOVERLAY, 0, STATIC
        ARGFRAME ISTACK, 0, STACK
        ARGFRAME PSTACK, 0, STACK
        ARGFRAME XSTACK, 16, STACK
        ARGFRAME IOVERLAY, 0, STATIC
        ARGFRAME DOVERLAY, 0, STATIC
        FUNCALL zllTarget_event_loop, ZDP_DeviceAnnce
        LOCFRAME ISTACK, 0, STACK
        LOCFRAME PSTACK, 0, STACK
        LOCFRAME XSTACK, 17, STACK
        LOCFRAME IOVERLAY, 0, STATIC
        LOCFRAME DOVERLAY, 0, STATIC
        ARGFRAME ISTACK, 0, STACK
        ARGFRAME PSTACK, 0, STACK
        ARGFRAME XSTACK, 17, STACK
        ARGFRAME IOVERLAY, 0, STATIC
        ARGFRAME DOVERLAY, 0, STATIC
        FUNCALL zllTarget_event_loop, osal_msg_deallocate
        LOCFRAME ISTACK, 0, STACK
        LOCFRAME PSTACK, 0, STACK
        LOCFRAME XSTACK, 16, STACK
        LOCFRAME IOVERLAY, 0, STATIC
        LOCFRAME DOVERLAY, 0, STATIC
        ARGFRAME ISTACK, 0, STACK
        ARGFRAME PSTACK, 0, STACK
        ARGFRAME XSTACK, 16, STACK
        ARGFRAME IOVERLAY, 0, STATIC
        ARGFRAME DOVERLAY, 0, STATIC
        FUNCALL zllTarget_event_loop, nwk_ExtPANIDValid
        LOCFRAME ISTACK, 0, STACK
        LOCFRAME PSTACK, 0, STACK
        LOCFRAME XSTACK, 16, STACK
        LOCFRAME IOVERLAY, 0, STATIC
        LOCFRAME DOVERLAY, 0, STATIC
        ARGFRAME ISTACK, 0, STACK
        ARGFRAME PSTACK, 0, STACK
        ARGFRAME XSTACK, 16, STACK
        ARGFRAME IOVERLAY, 0, STATIC
        ARGFRAME DOVERLAY, 0, STATIC
        FUNCALL zllTarget_event_loop, zll_GenerateRandNum
        LOCFRAME ISTACK, 0, STACK
        LOCFRAME PSTACK, 0, STACK
        LOCFRAME XSTACK, 16, STACK
        LOCFRAME IOVERLAY, 0, STATIC
        LOCFRAME DOVERLAY, 0, STATIC
        ARGFRAME ISTACK, 0, STACK
        ARGFRAME PSTACK, 0, STACK
        ARGFRAME XSTACK, 16, STACK
        ARGFRAME IOVERLAY, 0, STATIC
        ARGFRAME DOVERLAY, 0, STATIC
        FUNCALL zllTarget_event_loop, osal_rand
        LOCFRAME ISTACK, 0, STACK
        LOCFRAME PSTACK, 0, STACK
        LOCFRAME XSTACK, 16, STACK
        LOCFRAME IOVERLAY, 0, STATIC
        LOCFRAME DOVERLAY, 0, STATIC
        ARGFRAME ISTACK, 0, STACK
        ARGFRAME PSTACK, 0, STACK
        ARGFRAME XSTACK, 16, STACK
        ARGFRAME IOVERLAY, 0, STATIC
        ARGFRAME DOVERLAY, 0, STATIC
        FUNCALL zllTarget_event_loop, zll_GetRandPrimaryChannel
        LOCFRAME ISTACK, 0, STACK
        LOCFRAME PSTACK, 0, STACK
        LOCFRAME XSTACK, 16, STACK
        LOCFRAME IOVERLAY, 0, STATIC
        LOCFRAME DOVERLAY, 0, STATIC
        ARGFRAME ISTACK, 0, STACK
        ARGFRAME PSTACK, 0, STACK
        ARGFRAME XSTACK, 16, STACK
        ARGFRAME IOVERLAY, 0, STATIC
        ARGFRAME DOVERLAY, 0, STATIC
        FUNCALL zllTarget_event_loop, osal_rand
        LOCFRAME ISTACK, 0, STACK
        LOCFRAME PSTACK, 0, STACK
        LOCFRAME XSTACK, 16, STACK
        LOCFRAME IOVERLAY, 0, STATIC
        LOCFRAME DOVERLAY, 0, STATIC
        ARGFRAME ISTACK, 0, STACK
        ARGFRAME PSTACK, 0, STACK
        ARGFRAME XSTACK, 16, STACK
        ARGFRAME IOVERLAY, 0, STATIC
        ARGFRAME DOVERLAY, 0, STATIC
        FUNCALL zllTarget_event_loop, zll_PerformNetworkDisc
        LOCFRAME ISTACK, 0, STACK
        LOCFRAME PSTACK, 0, STACK
        LOCFRAME XSTACK, 16, STACK
        LOCFRAME IOVERLAY, 0, STATIC
        LOCFRAME DOVERLAY, 0, STATIC
        ARGFRAME ISTACK, 0, STACK
        ARGFRAME PSTACK, 0, STACK
        ARGFRAME XSTACK, 16, STACK
        ARGFRAME IOVERLAY, 0, STATIC
        ARGFRAME DOVERLAY, 0, STATIC
        FUNCALL zllTarget_event_loop, zll_ClassicalCommissioningJoinDiscoveredNwk
        LOCFRAME ISTACK, 0, STACK
        LOCFRAME PSTACK, 0, STACK
        LOCFRAME XSTACK, 16, STACK
        LOCFRAME IOVERLAY, 0, STATIC
        LOCFRAME DOVERLAY, 0, STATIC
        ARGFRAME ISTACK, 0, STACK
        ARGFRAME PSTACK, 0, STACK
        ARGFRAME XSTACK, 16, STACK
        ARGFRAME IOVERLAY, 0, STATIC
        ARGFRAME DOVERLAY, 0, STATIC
        FUNCALL zllTarget_event_loop, targetSelectNwkParams
        LOCFRAME ISTACK, 0, STACK
        LOCFRAME PSTACK, 0, STACK
        LOCFRAME XSTACK, 16, STACK
        LOCFRAME IOVERLAY, 0, STATIC
        LOCFRAME DOVERLAY, 0, STATIC
        ARGFRAME ISTACK, 0, STACK
        ARGFRAME PSTACK, 0, STACK
        ARGFRAME XSTACK, 16, STACK
        ARGFRAME IOVERLAY, 0, STATIC
        ARGFRAME DOVERLAY, 0, STATIC
        FUNCALL zllTarget_event_loop, targetVerifyNwkParams
        LOCFRAME ISTACK, 0, STACK
        LOCFRAME PSTACK, 0, STACK
        LOCFRAME XSTACK, 16, STACK
        LOCFRAME IOVERLAY, 0, STATIC
        LOCFRAME DOVERLAY, 0, STATIC
        ARGFRAME ISTACK, 0, STACK
        ARGFRAME PSTACK, 0, STACK
        ARGFRAME XSTACK, 16, STACK
        ARGFRAME IOVERLAY, 0, STATIC
        ARGFRAME DOVERLAY, 0, STATIC
        FUNCALL zllTarget_event_loop, zll_FreeNwkParamList
        LOCFRAME ISTACK, 0, STACK
        LOCFRAME PSTACK, 0, STACK
        LOCFRAME XSTACK, 16, STACK
        LOCFRAME IOVERLAY, 0, STATIC
        LOCFRAME DOVERLAY, 0, STATIC
        ARGFRAME ISTACK, 0, STACK
        ARGFRAME PSTACK, 0, STACK
        ARGFRAME XSTACK, 16, STACK
        ARGFRAME IOVERLAY, 0, STATIC
        ARGFRAME DOVERLAY, 0, STATIC
        FUNCALL zllTarget_event_loop, targetSendNwkStartRsp
        LOCFRAME ISTACK, 0, STACK
        LOCFRAME PSTACK, 0, STACK
        LOCFRAME XSTACK, 22, STACK
        LOCFRAME IOVERLAY, 0, STATIC
        LOCFRAME DOVERLAY, 0, STATIC
        ARGFRAME ISTACK, 0, STACK
        ARGFRAME PSTACK, 0, STACK
        ARGFRAME XSTACK, 22, STACK
        ARGFRAME IOVERLAY, 0, STATIC
        ARGFRAME DOVERLAY, 0, STATIC
        FUNCALL zllTarget_event_loop, zll_IsFactoryNew
        LOCFRAME ISTACK, 0, STACK
        LOCFRAME PSTACK, 0, STACK
        LOCFRAME XSTACK, 16, STACK
        LOCFRAME IOVERLAY, 0, STATIC
        LOCFRAME DOVERLAY, 0, STATIC
        ARGFRAME ISTACK, 0, STACK
        ARGFRAME PSTACK, 0, STACK
        ARGFRAME XSTACK, 16, STACK
        ARGFRAME IOVERLAY, 0, STATIC
        ARGFRAME DOVERLAY, 0, STATIC
        FUNCALL zllTarget_event_loop, zll_SendLeaveReq
        LOCFRAME ISTACK, 0, STACK
        LOCFRAME PSTACK, 0, STACK
        LOCFRAME XSTACK, 16, STACK
        LOCFRAME IOVERLAY, 0, STATIC
        LOCFRAME DOVERLAY, 0, STATIC
        ARGFRAME ISTACK, 0, STACK
        ARGFRAME PSTACK, 0, STACK
        ARGFRAME XSTACK, 16, STACK
        ARGFRAME IOVERLAY, 0, STATIC
        ARGFRAME DOVERLAY, 0, STATIC
        FUNCALL zllTarget_event_loop, osal_set_event
        LOCFRAME ISTACK, 0, STACK
        LOCFRAME PSTACK, 0, STACK
        LOCFRAME XSTACK, 16, STACK
        LOCFRAME IOVERLAY, 0, STATIC
        LOCFRAME DOVERLAY, 0, STATIC
        ARGFRAME ISTACK, 0, STACK
        ARGFRAME PSTACK, 0, STACK
        ARGFRAME XSTACK, 16, STACK
        ARGFRAME IOVERLAY, 0, STATIC
        ARGFRAME DOVERLAY, 0, STATIC
        FUNCALL zllTarget_event_loop, zll_IsFactoryNew
        LOCFRAME ISTACK, 0, STACK
        LOCFRAME PSTACK, 0, STACK
        LOCFRAME XSTACK, 16, STACK
        LOCFRAME IOVERLAY, 0, STATIC
        LOCFRAME DOVERLAY, 0, STATIC
        ARGFRAME ISTACK, 0, STACK
        ARGFRAME PSTACK, 0, STACK
        ARGFRAME XSTACK, 16, STACK
        ARGFRAME IOVERLAY, 0, STATIC
        ARGFRAME DOVERLAY, 0, STATIC
        FUNCALL zllTarget_event_loop, zll_SendLeaveReq
        LOCFRAME ISTACK, 0, STACK
        LOCFRAME PSTACK, 0, STACK
        LOCFRAME XSTACK, 16, STACK
        LOCFRAME IOVERLAY, 0, STATIC
        LOCFRAME DOVERLAY, 0, STATIC
        ARGFRAME ISTACK, 0, STACK
        ARGFRAME PSTACK, 0, STACK
        ARGFRAME XSTACK, 16, STACK
        ARGFRAME IOVERLAY, 0, STATIC
        ARGFRAME DOVERLAY, 0, STATIC
        FUNCALL zllTarget_event_loop, osal_set_event
        LOCFRAME ISTACK, 0, STACK
        LOCFRAME PSTACK, 0, STACK
        LOCFRAME XSTACK, 16, STACK
        LOCFRAME IOVERLAY, 0, STATIC
        LOCFRAME DOVERLAY, 0, STATIC
        ARGFRAME ISTACK, 0, STACK
        ARGFRAME PSTACK, 0, STACK
        ARGFRAME XSTACK, 16, STACK
        ARGFRAME IOVERLAY, 0, STATIC
        ARGFRAME DOVERLAY, 0, STATIC
        FUNCALL zllTarget_event_loop, targetStartRtr
        LOCFRAME ISTACK, 0, STACK
        LOCFRAME PSTACK, 0, STACK
        LOCFRAME XSTACK, 20, STACK
        LOCFRAME IOVERLAY, 0, STATIC
        LOCFRAME DOVERLAY, 0, STATIC
        ARGFRAME ISTACK, 0, STACK
        ARGFRAME PSTACK, 0, STACK
        ARGFRAME XSTACK, 20, STACK
        ARGFRAME IOVERLAY, 0, STATIC
        ARGFRAME DOVERLAY, 0, STATIC
        FUNCALL zllTarget_event_loop, NLME_DirectJoinRequestWithAddr
        LOCFRAME ISTACK, 0, STACK
        LOCFRAME PSTACK, 0, STACK
        LOCFRAME XSTACK, 16, STACK
        LOCFRAME IOVERLAY, 0, STATIC
        LOCFRAME DOVERLAY, 0, STATIC
        ARGFRAME ISTACK, 0, STACK
        ARGFRAME PSTACK, 0, STACK
        ARGFRAME XSTACK, 16, STACK
        ARGFRAME IOVERLAY, 0, STATIC
        ARGFRAME DOVERLAY, 0, STATIC
        FUNCALL zllTarget_event_loop, targetStartRtr
        LOCFRAME ISTACK, 0, STACK
        LOCFRAME PSTACK, 0, STACK
        LOCFRAME XSTACK, 20, STACK
        LOCFRAME IOVERLAY, 0, STATIC
        LOCFRAME DOVERLAY, 0, STATIC
        ARGFRAME ISTACK, 0, STACK
        ARGFRAME PSTACK, 0, STACK
        ARGFRAME XSTACK, 20, STACK
        ARGFRAME IOVERLAY, 0, STATIC
        ARGFRAME DOVERLAY, 0, STATIC
        FUNCALL zllTarget_event_loop, zll_ResetToFactoryNew
        LOCFRAME ISTACK, 0, STACK
        LOCFRAME PSTACK, 0, STACK
        LOCFRAME XSTACK, 16, STACK
        LOCFRAME IOVERLAY, 0, STATIC
        LOCFRAME DOVERLAY, 0, STATIC
        ARGFRAME ISTACK, 0, STACK
        ARGFRAME PSTACK, 0, STACK
        ARGFRAME XSTACK, 16, STACK
        ARGFRAME IOVERLAY, 0, STATIC
        ARGFRAME DOVERLAY, 0, STATIC
        MOV     A,#-0x10
        LCALL   ?BANKED_ENTER_XDATA
          CFI DPH0 load(1, XDATA, add(CFA_XSP16, literal(-1)))
          CFI DPL0 load(1, XDATA, add(CFA_XSP16, literal(-2)))
          CFI ?BRET_EXT load(1, XDATA, add(CFA_XSP16, literal(-3)))
          CFI ?RET_HIGH load(1, XDATA, add(CFA_XSP16, literal(-4)))
          CFI ?RET_LOW load(1, XDATA, add(CFA_XSP16, literal(-5)))
          CFI R7 load(1, XDATA, add(CFA_XSP16, literal(-6)))
          CFI V7 load(1, XDATA, add(CFA_XSP16, literal(-7)))
          CFI V6 load(1, XDATA, add(CFA_XSP16, literal(-8)))
          CFI V5 load(1, XDATA, add(CFA_XSP16, literal(-9)))
          CFI V4 load(1, XDATA, add(CFA_XSP16, literal(-10)))
          CFI V3 load(1, XDATA, add(CFA_XSP16, literal(-11)))
          CFI V2 load(1, XDATA, add(CFA_XSP16, literal(-12)))
          CFI V1 load(1, XDATA, add(CFA_XSP16, literal(-13)))
          CFI V0 load(1, XDATA, add(CFA_XSP16, literal(-14)))
          CFI VB load(1, XDATA, add(CFA_XSP16, literal(-15)))
          CFI R6 load(1, XDATA, add(CFA_XSP16, literal(-16)))
          CFI CFA_SP SP+0
          CFI CFA_XSP16 add(XSP16, 16)
        ; Saved register size: 16
        ; Auto size: 0
        MOV     A,R2
        MOV     R6,A
        MOV     A,R3
        MOV     R7,A
//  336   if ( events & SYS_EVENT_MSG )
        ANL     A,#0x80
        JZ      ??zllTarget_event_loop_0
//  337   {
//  338     osal_event_hdr_t *pMsg;
//  339 
//  340     if ( (pMsg = (osal_event_hdr_t *)osal_msg_receive( task_id )) != NULL )
        ; Setup parameters for call to function osal_msg_receive
        LCALL   ??osal_msg_receive?relay
        MOV     ?V0 + 0,R2
        MOV     ?V0 + 1,R3
        MOV     A,R2
        ORL     A,?V0 + 1
        JZ      ??zllTarget_event_loop_1
//  341     {
//  342       switch (pMsg->event )
        MOV     DPL,R2
        MOV     DPH,R3
        MOVX    A,@DPTR
        ADD     A,#0x2f
        JZ      ??zllTarget_event_loop_2
        ADD     A,#-0x2
        JNZ     ??zllTarget_event_loop_3
//  343       {
//  344         case ZDO_CB_MSG:
//  345           // ZDO sends the message that we registered for
//  346           zll_RouterProcessZDOMsg( (zdoIncomingMsg_t *)pMsg );
        ; Setup parameters for call to function zll_RouterProcessZDOMsg
        LCALL   ??zll_RouterProcessZDOMsg?relay
//  347           break;
        SJMP    ??zllTarget_event_loop_3
//  348 
//  349         case ZDO_STATE_CHANGE:
//  350           targetProcessStateChange( (devStates_t)pMsg->status );
??zllTarget_event_loop_2:
        INC     DPTR
        MOVX    A,@DPTR
        MOV     R0,A
        MOV     A,#0x7
        XRL     A,R0
        JZ      ??zllTarget_event_loop_4
        MOV     A,#0x6
        XRL     A,R0
        JNZ     ??zllTarget_event_loop_3
??zllTarget_event_loop_4:
        ; Setup parameters for call to function NLME_GetExtAddr
        LCALL   ??NLME_GetExtAddr?relay
        MOV     ?V0 + 4,R2
        MOV     ?V0 + 5,R3
        ; Setup parameters for call to function NLME_GetShortAddr
        LCALL   ??NLME_GetShortAddr?relay
        ; Setup parameters for call to function ZDP_DeviceAnnce
        MOV     ?V0 + 3,#0x0
        MOV     R0,#?V0 + 3
        LCALL   ?PUSH_XSTACK_I_ONE
          CFI CFA_XSP16 add(XSP16, 17)
        MOV     DPTR,#ZDO_Config_Node_Descriptor + 2
        MOVX    A,@DPTR
        MOV     R1,A
        MOV     R4,?V0 + 4
        MOV     R5,?V0 + 5
        LCALL   ??ZDP_DeviceAnnce?relay
        MOV     A,#0x1
        LCALL   ?DEALLOC_XSTACK8
          CFI CFA_XSP16 add(XSP16, 16)
//  351           break;
//  352 
//  353 #if defined (MT_APP_FUNC)
//  354         case MT_SYS_APP_MSG:
//  355           // Message received from MT
//  356          targetProcessRpcMsg( ((mtSysAppMsg_t *)pMsg)->endpoint,
//  357                               ((mtSysAppMsg_t *)pMsg)->appDataLen,
//  358                               ((mtSysAppMsg_t *)pMsg)->appData );
//  359           break;
//  360 #endif
//  361 
//  362         default:
//  363           break;
//  364       }
//  365 
//  366       // Release the OSAL message
//  367       VOID osal_msg_deallocate( (uint8 *)pMsg );
??zllTarget_event_loop_3:
        ; Setup parameters for call to function osal_msg_deallocate
        MOV     R2,?V0 + 0
        MOV     R3,?V0 + 1
        LCALL   ??osal_msg_deallocate?relay
//  368     }
//  369 
//  370     // return unprocessed events
//  371     return ( events ^ SYS_EVENT_MSG );
??zllTarget_event_loop_1:
        MOV     A,R6
        MOV     R2,A
        MOV     A,R7
        XRL     A,#0x80
        LJMP    ??zllTarget_event_loop_5 & 0xFFFF
//  372   }
//  373 
//  374   if ( events & ZLL_NWK_START_EVT )
??zllTarget_event_loop_0:
        MOV     A,R6
        ANL     A,#0x40
        JZ      ??zllTarget_event_loop_6
//  375   {
//  376     zclLLNwkStartReq_t *pReq = &(rxReq.nwkStartReq);
//  377 
//  378     // If the PAN Id, Extended PAN Id or Logical Channel are zero then
//  379     // determine each of these parameters
//  380     if ( !nwk_ExtPANIDValid( pReq->nwkParams.extendedPANID ) )
        ; Setup parameters for call to function nwk_ExtPANIDValid
        MOV     R2,#(rxReq + 4) & 0xff
        MOV     R3,#((rxReq + 4) >> 8) & 0xff
        LCALL   ??nwk_ExtPANIDValid?relay
        MOV     A,R1
        JNZ     ??zllTarget_event_loop_7
//  381     {
//  382       zll_GenerateRandNum( pReq->nwkParams.extendedPANID, Z_EXTADDR_LEN );
        ; Setup parameters for call to function zll_GenerateRandNum
        MOV     R1,#0x8
        MOV     R2,#(rxReq + 4) & 0xff
        MOV     R3,#((rxReq + 4) >> 8) & 0xff
        LCALL   ??zll_GenerateRandNum?relay
//  383     }
//  384 
//  385     if ( pReq->nwkParams.panId == 0 )
??zllTarget_event_loop_7:
        MOV     DPTR,#rxReq + 30
        LCALL   ?Subroutine7 & 0xFFFF
??CrossCallReturnLabel_2:
        JNZ     ??zllTarget_event_loop_8
//  386     {
//  387       pReq->nwkParams.panId = osal_rand();
        ; Setup parameters for call to function osal_rand
        LCALL   ??osal_rand?relay
        MOV     DPTR,#rxReq + 30
        MOV     A,R2
        MOVX    @DPTR,A
        INC     DPTR
        MOV     A,R3
        MOVX    @DPTR,A
//  388     }
//  389 
//  390     if ( pReq->nwkParams.logicalChannel == 0 )
??zllTarget_event_loop_8:
        MOV     DPTR,#rxReq + 29
        MOVX    A,@DPTR
        JNZ     ??zllTarget_event_loop_9
//  391     {
//  392       pReq->nwkParams.logicalChannel = zll_GetRandPrimaryChannel();
        ; Setup parameters for call to function zll_GetRandPrimaryChannel
        LCALL   ??zll_GetRandPrimaryChannel?relay
        MOV     A,R1
        MOV     DPTR,#rxReq + 29
        MOVX    @DPTR,A
//  393     }
//  394 
//  395     if ( pReq->nwkParams.nwkAddr == 0 )
??zllTarget_event_loop_9:
        MOV     DPTR,#rxReq + 32
        LCALL   ?Subroutine7 & 0xFFFF
??CrossCallReturnLabel_3:
        JNZ     ??zllTarget_event_loop_10
//  396     {
//  397       pReq->nwkParams.nwkAddr = osal_rand();
        ; Setup parameters for call to function osal_rand
        LCALL   ??osal_rand?relay
        MOV     DPTR,#rxReq + 32
        MOV     A,R2
        MOVX    @DPTR,A
        INC     DPTR
        MOV     A,R3
        MOVX    @DPTR,A
//  398     }
//  399 
//  400     // Perform Network Discovery to verify our new network parameters uniqeness
//  401     zll_PerformNetworkDisc( (uint32)1 << _NIB.nwkLogicalChannel );
??zllTarget_event_loop_10:
        ; Setup parameters for call to function zll_PerformNetworkDisc
        MOV     ?V0 + 4,#0x1
        MOV     ?V0 + 5,#0x0
        MOV     ?V0 + 6,#0x0
        MOV     ?V0 + 7,#0x0
        MOV     DPTR,#_NIB + 22
        MOVX    A,@DPTR
        MOV     R0,#?V0 + 4
        LCALL   ?L_SHL
        MOV     R2,?V0 + 4
        MOV     R3,?V0 + 5
        MOV     R4,?V0 + 6
        MOV     R5,?V0 + 7
        LCALL   ??zll_PerformNetworkDisc?relay
//  402 
//  403     // return unprocessed events
//  404     return ( events ^ ZLL_NWK_START_EVT );
        MOV     A,R6
        XRL     A,#0x40
        LJMP    ??zllTarget_event_loop_11 & 0xFFFF
//  405   }
//  406 
//  407   if ( events & ZLL_NWK_DISC_CNF_EVT )
??zllTarget_event_loop_6:
        MOV     A,R6
        MOV     C,0xE0 /* A   */.0
        JC      $+5
        LJMP    ??zllTarget_event_loop_12 & 0xFFFF
//  408   {
//  409     if ( ( zllHAScanInitiated ) && (zllHAScanInitiated != ZLL_SCAN_FOUND_NOTHING) )
        MOV     DPTR,#zllHAScanInitiated
        MOVX    A,@DPTR
        JZ      ??zllTarget_event_loop_13
        XRL     A,#0x3
        JZ      ??zllTarget_event_loop_14
//  410     {
//  411       if ( zll_ClassicalCommissioningJoinDiscoveredNwk() != ZSuccess )
        ; Setup parameters for call to function zll_ClassicalCommissioningJoinDiscoveredNwk
        LCALL   ??zll_ClassicalCommissioningJoinDiscoveredNwk?r
        MOV     A,R1
        JZ      ??zllTarget_event_loop_15
//  412       {
//  413         // Select our Network Parameters
//  414         targetSelectNwkParams();
        ; Setup parameters for call to function targetSelectNwkParams
        LCALL   ??targetSelectNwkParams?relay
        SJMP    ??zllTarget_event_loop_15
//  415 
//  416         // Wait for a touchlink command
//  417       }
//  418     }
//  419     else if ( zllHAScanInitiated != ZLL_SCAN_FOUND_NOTHING )
//  420     {
//  421       zclLLNwkStartReq_t *pReq = &(rxReq.nwkStartReq);
//  422       zclLLNwkParams_t *pParams = &(pReq->nwkParams);
//  423       uint8 status;
//  424 
//  425       // Verify the received Network Parameters
//  426       if ( targetVerifyNwkParams( pParams->panId, pParams->extendedPANID ) == ZSuccess )
??zllTarget_event_loop_13:
        ; Setup parameters for call to function targetVerifyNwkParams
        MOV     R4,#(rxReq + 4) & 0xff
        MOV     R5,#((rxReq + 4) >> 8) & 0xff
        MOV     DPTR,#rxReq + 30
        MOVX    A,@DPTR
        MOV     R2,A
        INC     DPTR
        MOVX    A,@DPTR
        MOV     R3,A
        LCALL   ??targetVerifyNwkParams?relay
        MOV     A,R1
        JNZ     ??zllTarget_event_loop_16
//  427       {
//  428         status = ZLL_NETWORK_START_RSP_STATUS_SUCCESS;
        MOV     ?V0 + 0,#0x0
        SJMP    ??zllTarget_event_loop_17
//  429       }
//  430       else
//  431       {
//  432         status = ZLL_NETWORK_START_RSP_STATUS_FAILURE;
??zllTarget_event_loop_16:
        MOV     ?V0 + 0,#0x1
//  433       }
//  434 
//  435       zll_FreeNwkParamList();
??zllTarget_event_loop_17:
        ; Setup parameters for call to function zll_FreeNwkParamList
        LCALL   ??zll_FreeNwkParamList?relay
//  436 
//  437       // Send a response back
//  438       targetSendNwkStartRsp( &dstAddr, pReq->transID, status, pParams, _NIB.nwkUpdateId, rxSeqNum );
        ; Setup parameters for call to function targetSendNwkStartRsp
        MOV     DPTR,#rxSeqNum
        MOVX    A,@DPTR
        MOV     ?V0 + 1,A
        MOV     R0,#?V0 + 1
        LCALL   ?PUSH_XSTACK_I_ONE
          CFI CFA_XSP16 add(XSP16, 17)
        MOV     DPTR,#_NIB + 109
        MOVX    A,@DPTR
        MOV     ?V0 + 1,A
        MOV     R0,#?V0 + 1
        LCALL   ?PUSH_XSTACK_I_ONE
          CFI CFA_XSP16 add(XSP16, 18)
        MOV     DPTR,#rxReq
        LCALL   ?PUSH_XSTACK8_X_FOUR
          CFI CFA_XSP16 add(XSP16, 22)
        MOV     R4,#(rxReq + 4) & 0xff
        MOV     R5,#((rxReq + 4) >> 8) & 0xff
        MOV     R1,?V0 + 0
        MOV     R2,#dstAddr & 0xff
        MOV     R3,#(dstAddr >> 8) & 0xff
        LCALL   ??targetSendNwkStartRsp?relay
        MOV     A,#0x6
        LCALL   ?DEALLOC_XSTACK8
          CFI CFA_XSP16 add(XSP16, 16)
//  439       if ( status == ZLL_NETWORK_START_RSP_STATUS_SUCCESS )
        MOV     A,?V0 + 0
        MOV     C,0xE0 /* A   */.0
        JC      ??zllTarget_event_loop_15
//  440       {
//  441         // If not factory new, perform a Leave on our old network
//  442         if ( ( zll_IsFactoryNew() == FALSE ) && ( zll_SendLeaveReq() == ZSuccess ) )
        ; Setup parameters for call to function zll_IsFactoryNew
        LCALL   ??zll_IsFactoryNew?relay
        MOV     A,R1
        JNZ     ??zllTarget_event_loop_18
        ; Setup parameters for call to function zll_SendLeaveReq
        LCALL   ??zll_SendLeaveReq?relay
        MOV     A,R1
        JNZ     ??zllTarget_event_loop_18
//  443         {
//  444           // Wait for Leave confirmation before joining the new network
//  445           zllLeaveInitiated = ZLL_LEAVE_TO_START_NWK;
        MOV     DPTR,#zllLeaveInitiated
        MOV     A,#0x2
        SJMP    ??zllTarget_event_loop_19
//  446         }
//  447         else
//  448         {
//  449           // Notify our task to start the network
//  450           osal_set_event( zllTarget_TaskID, ZLL_START_NWK_EVT );
??zllTarget_event_loop_18:
        ; Setup parameters for call to function osal_set_event
        MOV     R2,#0x8
        MOV     R3,#0x0
        MOV     DPTR,#zllTarget_TaskID
        MOVX    A,@DPTR
        MOV     R1,A
        LCALL   ??osal_set_event?relay
        SJMP    ??zllTarget_event_loop_15
//  451         }
//  452       }
//  453       else
//  454       {
//  455         //NOTE - chosen network params were found in scan.
//  456       }
//  457     }
//  458     else //zllHAScanInitiated == ZLL_SCAN_FOUND_NOTHING
//  459     {
//  460       zllHAScanInitiated = FALSE;
??zllTarget_event_loop_14:
        CLR     A
??zllTarget_event_loop_19:
        MOVX    @DPTR,A
//  461 #ifndef HOLD_AUTO_START
//  462       _NIB.nwkState = NWK_ROUTER;
//  463 #endif
//  464     }
//  465 
//  466     // return unprocessed events
//  467     return ( events ^ ZLL_NWK_DISC_CNF_EVT );
??zllTarget_event_loop_15:
        MOV     A,R6
        XRL     A,#0x1
        SJMP    ??zllTarget_event_loop_11
//  468   }
//  469 
//  470   if ( events & ZLL_ROUTER_JOIN_EVT )
??zllTarget_event_loop_12:
        ANL     A,#0x2
        JZ      ??zllTarget_event_loop_20
//  471   {
//  472 
//  473     // If not factory new, perform a Leave on our old network
//  474     if ( ( zll_IsFactoryNew() == FALSE ) && ( zll_SendLeaveReq() == ZSuccess ) )
        ; Setup parameters for call to function zll_IsFactoryNew
        LCALL   ??zll_IsFactoryNew?relay
        MOV     A,R1
        JNZ     ??zllTarget_event_loop_21
        ; Setup parameters for call to function zll_SendLeaveReq
        LCALL   ??zll_SendLeaveReq?relay
        MOV     A,R1
        JNZ     ??zllTarget_event_loop_21
//  475     {
//  476       // Wait for Leave confirmation before joining the new network
//  477       zllLeaveInitiated = ZLL_LEAVE_TO_JOIN_NWK;
        MOV     DPTR,#zllLeaveInitiated
        MOV     A,#0x1
        MOVX    @DPTR,A
        SJMP    ??zllTarget_event_loop_22
//  478     }
//  479     else
//  480     {
//  481       // Notify our task to join this network
//  482       osal_set_event( zllTarget_TaskID, ZLL_JOIN_NWK_EVT );
??zllTarget_event_loop_21:
        ; Setup parameters for call to function osal_set_event
        MOV     R2,#0x10
        MOV     R3,#0x0
        MOV     DPTR,#zllTarget_TaskID
        MOVX    A,@DPTR
        MOV     R1,A
        LCALL   ??osal_set_event?relay
//  483     }
//  484 
//  485     // return unprocessed events
//  486     return ( events ^ ZLL_ROUTER_JOIN_EVT );
??zllTarget_event_loop_22:
        MOV     A,R6
        XRL     A,#0x2
        SJMP    ??zllTarget_event_loop_11
//  487   }
//  488 
//  489   if ( events & ZLL_START_NWK_EVT )
??zllTarget_event_loop_20:
        MOV     A,R6
        ANL     A,#0x8
        JZ      ??zllTarget_event_loop_23
//  490   {
//  491     zclLLNwkStartReq_t *pReq = &(rxReq.nwkStartReq);
//  492 
//  493     // Start operating on the new network
//  494     targetStartRtr( &(pReq->nwkParams), pReq->transID );
        ; Setup parameters for call to function targetStartRtr
        MOV     DPTR,#rxReq
        LCALL   ?PUSH_XSTACK8_X_FOUR
          CFI CFA_XSP16 add(XSP16, 20)
        MOV     R2,#(rxReq + 4) & 0xff
        MOV     R3,#((rxReq + 4) >> 8) & 0xff
        LCALL   ??targetStartRtr?relay
        MOV     A,#0x4
        LCALL   ?DEALLOC_XSTACK8
          CFI CFA_XSP16 add(XSP16, 16)
//  495 
//  496     // Perform a ZigBee Direct Join in order to allow direct communication
//  497     // via the ZigBee network between the Initiator and the Target (i.e.,
//  498     // create an entry in the neighbor table with the IEEE address and the
//  499     // network address of the Initiator).
//  500     NLME_DirectJoinRequestWithAddr( pReq->initiatorIeeeAddr, pReq->initiatorNwkAddr,
//  501                                     CAPINFO_DEVICETYPE_RFD );
        ; Setup parameters for call to function NLME_DirectJoinRequestWithAddr
        MOV     R1,#0x0
        MOV     DPTR,#rxReq + 54
        MOVX    A,@DPTR
        MOV     R4,A
        INC     DPTR
        MOVX    A,@DPTR
        MOV     R5,A
        MOV     R2,#(rxReq + 46) & 0xff
        MOV     R3,#((rxReq + 46) >> 8) & 0xff
        LCALL   ??NLME_DirectJoinRequestWithAddr?relay
//  502 
//  503     // return unprocessed events
//  504     return ( events ^ ZLL_START_NWK_EVT );
        MOV     A,R6
        XRL     A,#0x8
        SJMP    ??zllTarget_event_loop_11
//  505   }
//  506 
//  507   if ( events & ZLL_JOIN_NWK_EVT )
??zllTarget_event_loop_23:
        MOV     A,R6
        ANL     A,#0x10
        JZ      ??zllTarget_event_loop_24
//  508   {
//  509     zclLLNwkJoinReq_t *pReq = &(rxReq.nwkJoinReq);
//  510 
//  511     // Start operating on the new network
//  512     targetStartRtr( &(pReq->nwkParams), pReq->transID );
        ; Setup parameters for call to function targetStartRtr
        MOV     DPTR,#rxReq
        LCALL   ?PUSH_XSTACK8_X_FOUR
          CFI CFA_XSP16 add(XSP16, 20)
        MOV     R2,#(rxReq + 4) & 0xff
        MOV     R3,#((rxReq + 4) >> 8) & 0xff
        LCALL   ??targetStartRtr?relay
        MOV     A,#0x4
        LCALL   ?DEALLOC_XSTACK8
          CFI CFA_XSP16 add(XSP16, 16)
//  513 
//  514     // return unprocessed events
//  515     return ( events ^ ZLL_JOIN_NWK_EVT );
        MOV     A,R6
        XRL     A,#0x10
        SJMP    ??zllTarget_event_loop_11
//  516   }
//  517 
//  518   if ( events & ZLL_RESET_TO_FN_EVT )
??zllTarget_event_loop_24:
        MOV     A,R6
        ANL     A,#0x4
        JZ      ??zllTarget_event_loop_25
//  519   {
//  520     zllTarget_ResetToFactoryNew();
        ; Setup parameters for call to function zll_ResetToFactoryNew
        MOV     R1,#0x0
        LCALL   ??zll_ResetToFactoryNew?relay
//  521 
//  522     // return unprocessed events
//  523     return ( events ^ ZLL_RESET_TO_FN_EVT );
        MOV     A,R6
        XRL     A,#0x4
??zllTarget_event_loop_11:
        MOV     R2,A
        MOV     A,R7
??zllTarget_event_loop_5:
        MOV     R3,A
        SJMP    ??zllTarget_event_loop_26
//  524   }
//  525 
//  526   if ( events & ZLL_TRANS_LIFETIME_EXPIRED_EVT )
??zllTarget_event_loop_25:
        MOV     A,R6
        ANL     A,#0x20
        JZ      ??zllTarget_event_loop_27
//  527   {
//  528     zllTransID = 0;
        MOV     DPTR,#zllTransID
        CLR     A
        MOVX    @DPTR,A
        INC     DPTR
        MOVX    @DPTR,A
        INC     DPTR
        MOVX    @DPTR,A
        INC     DPTR
        MOVX    @DPTR,A
//  529     // return unprocessed events
//  530     return ( events ^ ZLL_TRANS_LIFETIME_EXPIRED_EVT );
        MOV     A,R6
        XRL     A,#0x20
        MOV     R2,A
        SJMP    ??zllTarget_event_loop_26
//  531   }
//  532 
//  533   // If reach here, the events are unknown
//  534   // Discard or make more handlers
//  535   return 0;
??zllTarget_event_loop_27:
        MOV     R2,#0x0
        MOV     R3,#0x0
??zllTarget_event_loop_26:
        MOV     R7,#0x8
        LJMP    ?BANKED_LEAVE_XDATA
          CFI EndBlock cfiBlock6
//  536 }
//  537 
//  538 /*********************************************************************
//  539  * @fn      targetStartRtr
//  540  *
//  541  * @brief   Start operating on the new network.
//  542  *
//  543  * @param   pParams - pointer to received network parameters
//  544  * @param   transID - transaction id
//  545  *
//  546  * @return  none
//  547  */

        RSEG BANKED_CODE:CODE:NOROOT(0)
//  548 static void targetStartRtr( zclLLNwkParams_t *pParams, uint32 transID )
targetStartRtr:
          CFI Block cfiBlock7 Using cfiCommon0
          CFI Function targetStartRtr
        CODE
//  549 {
        FUNCALL targetStartRtr, zll_SetNIB
        LOCFRAME ISTACK, 0, STACK
        LOCFRAME PSTACK, 0, STACK
        LOCFRAME XSTACK, 17, STACK
        LOCFRAME IOVERLAY, 0, STATIC
        LOCFRAME DOVERLAY, 0, STATIC
        ARGFRAME ISTACK, 0, STACK
        ARGFRAME PSTACK, 0, STACK
        ARGFRAME XSTACK, 17, STACK
        ARGFRAME IOVERLAY, 0, STATIC
        ARGFRAME DOVERLAY, 0, STATIC
        FUNCALL targetStartRtr, zll_DecryptNwkKey
        LOCFRAME ISTACK, 0, STACK
        LOCFRAME PSTACK, 0, STACK
        LOCFRAME XSTACK, 21, STACK
        LOCFRAME IOVERLAY, 0, STATIC
        LOCFRAME DOVERLAY, 0, STATIC
        ARGFRAME ISTACK, 0, STACK
        ARGFRAME PSTACK, 0, STACK
        ARGFRAME XSTACK, 21, STACK
        ARGFRAME IOVERLAY, 0, STATIC
        ARGFRAME DOVERLAY, 0, STATIC
        FUNCALL targetStartRtr, ZDSecMgrUpdateTCAddress
        LOCFRAME ISTACK, 0, STACK
        LOCFRAME PSTACK, 0, STACK
        LOCFRAME XSTACK, 13, STACK
        LOCFRAME IOVERLAY, 0, STATIC
        LOCFRAME DOVERLAY, 0, STATIC
        ARGFRAME ISTACK, 0, STACK
        ARGFRAME PSTACK, 0, STACK
        ARGFRAME XSTACK, 13, STACK
        ARGFRAME IOVERLAY, 0, STATIC
        ARGFRAME DOVERLAY, 0, STATIC
        FUNCALL targetStartRtr, zll_PermitJoin
        LOCFRAME ISTACK, 0, STACK
        LOCFRAME PSTACK, 0, STACK
        LOCFRAME XSTACK, 13, STACK
        LOCFRAME IOVERLAY, 0, STATIC
        LOCFRAME DOVERLAY, 0, STATIC
        ARGFRAME ISTACK, 0, STACK
        ARGFRAME PSTACK, 0, STACK
        ARGFRAME XSTACK, 13, STACK
        ARGFRAME IOVERLAY, 0, STATIC
        ARGFRAME DOVERLAY, 0, STATIC
        FUNCALL targetStartRtr, zll_UpdateFreeRanges
        LOCFRAME ISTACK, 0, STACK
        LOCFRAME PSTACK, 0, STACK
        LOCFRAME XSTACK, 13, STACK
        LOCFRAME IOVERLAY, 0, STATIC
        LOCFRAME DOVERLAY, 0, STATIC
        ARGFRAME ISTACK, 0, STACK
        ARGFRAME PSTACK, 0, STACK
        ARGFRAME XSTACK, 13, STACK
        ARGFRAME IOVERLAY, 0, STATIC
        ARGFRAME DOVERLAY, 0, STATIC
        FUNCALL targetStartRtr, zll_UpdateNV
        LOCFRAME ISTACK, 0, STACK
        LOCFRAME PSTACK, 0, STACK
        LOCFRAME XSTACK, 13, STACK
        LOCFRAME IOVERLAY, 0, STATIC
        LOCFRAME DOVERLAY, 0, STATIC
        ARGFRAME ISTACK, 0, STACK
        ARGFRAME PSTACK, 0, STACK
        ARGFRAME XSTACK, 13, STACK
        ARGFRAME IOVERLAY, 0, STATIC
        ARGFRAME DOVERLAY, 0, STATIC
        FUNCALL targetStartRtr, ZDApp_LeaveCtrlReset
        LOCFRAME ISTACK, 0, STACK
        LOCFRAME PSTACK, 0, STACK
        LOCFRAME XSTACK, 13, STACK
        LOCFRAME IOVERLAY, 0, STATIC
        LOCFRAME DOVERLAY, 0, STATIC
        ARGFRAME ISTACK, 0, STACK
        ARGFRAME PSTACK, 0, STACK
        ARGFRAME XSTACK, 13, STACK
        ARGFRAME IOVERLAY, 0, STATIC
        ARGFRAME DOVERLAY, 0, STATIC
        FUNCALL targetStartRtr, ZDOInitDevice
        LOCFRAME ISTACK, 0, STACK
        LOCFRAME PSTACK, 0, STACK
        LOCFRAME XSTACK, 13, STACK
        LOCFRAME IOVERLAY, 0, STATIC
        LOCFRAME DOVERLAY, 0, STATIC
        ARGFRAME ISTACK, 0, STACK
        ARGFRAME PSTACK, 0, STACK
        ARGFRAME XSTACK, 13, STACK
        ARGFRAME IOVERLAY, 0, STATIC
        ARGFRAME DOVERLAY, 0, STATIC
        MOV     A,#-0xd
        LCALL   ?BANKED_ENTER_XDATA
          CFI DPH0 load(1, XDATA, add(CFA_XSP16, literal(-1)))
          CFI DPL0 load(1, XDATA, add(CFA_XSP16, literal(-2)))
          CFI ?BRET_EXT load(1, XDATA, add(CFA_XSP16, literal(-3)))
          CFI ?RET_HIGH load(1, XDATA, add(CFA_XSP16, literal(-4)))
          CFI ?RET_LOW load(1, XDATA, add(CFA_XSP16, literal(-5)))
          CFI R7 load(1, XDATA, add(CFA_XSP16, literal(-6)))
          CFI V4 load(1, XDATA, add(CFA_XSP16, literal(-7)))
          CFI V3 load(1, XDATA, add(CFA_XSP16, literal(-8)))
          CFI V2 load(1, XDATA, add(CFA_XSP16, literal(-9)))
          CFI V1 load(1, XDATA, add(CFA_XSP16, literal(-10)))
          CFI V0 load(1, XDATA, add(CFA_XSP16, literal(-11)))
          CFI VB load(1, XDATA, add(CFA_XSP16, literal(-12)))
          CFI R6 load(1, XDATA, add(CFA_XSP16, literal(-13)))
          CFI CFA_SP SP+0
          CFI CFA_XSP16 add(XSP16, 13)
        ; Saved register size: 13
        ; Auto size: 0
        MOV     A,R2
        MOV     R6,A
        MOV     A,R3
        MOV     R7,A
        MOV     A,#0xd
        LCALL   ?XSTACK_DISP0_8
        MOV     R0,#?V0 + 0
        LCALL   ?L_MOV_X
//  550   // Copy the new network parameters to
//  551   zll_SetNIB( NWK_ROUTER, pParams->nwkAddr, pParams->extendedPANID,
//  552               pParams->logicalChannel, pParams->panId, _NIB.nwkUpdateId );
        ; Setup parameters for call to function zll_SetNIB
        MOV     DPTR,#_NIB + 109
        MOVX    A,@DPTR
        MOV     ?V0 + 4,A
        MOV     R0,#?V0 + 4
        LCALL   ?PUSH_XSTACK_I_ONE
          CFI CFA_XSP16 add(XSP16, 14)
        MOV     A,R6
        ADD     A,#0x1a
        MOV     DPL,A
        MOV     A,R7
        ADDC    A,#0x0
        MOV     DPH,A
        LCALL   ?PUSH_XSTACK8_X_TWO
          CFI CFA_XSP16 add(XSP16, 16)
        MOV     A,R6
        ADD     A,#0x19
        LCALL   ?Subroutine8 & 0xFFFF
??CrossCallReturnLabel_13:
        MOV     ?V0 + 4,A
        MOV     R0,#?V0 + 4
        LCALL   ?PUSH_XSTACK_I_ONE
          CFI CFA_XSP16 add(XSP16, 17)
        MOV     A,R6
        MOV     R4,A
        MOV     A,R7
        MOV     R5,A
        MOV     A,R6
        ADD     A,#0x1c
        LCALL   ?Subroutine8 & 0xFFFF
??CrossCallReturnLabel_14:
        MOV     R2,A
        INC     DPTR
        MOVX    A,@DPTR
        MOV     R3,A
        MOV     R1,#0x8
        LCALL   ??zll_SetNIB?relay
        MOV     A,#0x4
        LCALL   ?DEALLOC_XSTACK8
          CFI CFA_XSP16 add(XSP16, 13)
//  553 
//  554   // Apply the received network key
//  555   zll_DecryptNwkKey( pParams->nwkKey, pParams->keyIndex, transID, zllResponseID );
        ; Setup parameters for call to function zll_DecryptNwkKey
        MOV     DPTR,#zllResponseID
        LCALL   ?PUSH_XSTACK8_X_FOUR
          CFI CFA_XSP16 add(XSP16, 17)
        MOV     R0,#?V0 + 0
        LCALL   ?PUSH_XSTACK_I_FOUR
          CFI CFA_XSP16 add(XSP16, 21)
        MOV     DPL,R6
        MOV     DPH,R7
        INC     DPTR
        INC     DPTR
        INC     DPTR
        INC     DPTR
        INC     DPTR
        INC     DPTR
        INC     DPTR
        INC     DPTR
        MOVX    A,@DPTR
        MOV     R1,A
        MOV     A,R6
        ADD     A,#0x9
        MOV     R2,A
        MOV     A,R7
        ADDC    A,#0x0
        MOV     R3,A
        LCALL   ??zll_DecryptNwkKey?relay
        MOV     A,#0x8
        LCALL   ?DEALLOC_XSTACK8
          CFI CFA_XSP16 add(XSP16, 13)
//  556 
//  557   // setting apsTrustCenterAddress to 0xffffffff
//  558   ZDSecMgrUpdateTCAddress( NULL );
        ; Setup parameters for call to function ZDSecMgrUpdateTCAddress
        MOV     R2,#0x0
        MOV     R3,#0x0
        LCALL   ??ZDSecMgrUpdateTCAddress?relay
//  559 
//  560   zllTarget_PermitJoin(0);
        ; Setup parameters for call to function zll_PermitJoin
        MOV     R1,#0x0
        LCALL   ??zll_PermitJoin?relay
//  561 
//  562   // Use the new free ranges
//  563   zll_UpdateFreeRanges( pParams );
        ; Setup parameters for call to function zll_UpdateFreeRanges
        MOV     A,R6
        MOV     R2,A
        MOV     A,R7
        MOV     R3,A
        LCALL   ??zll_UpdateFreeRanges?relay
//  564 
//  565   // Save free ranges
//  566   zll_UpdateNV( ZLL_UPDATE_NV_RANGES );
        ; Setup parameters for call to function zll_UpdateNV
        MOV     R1,#0x2
        LCALL   ??zll_UpdateNV?relay
//  567 
//  568   // In case we're here after a leave
//  569   zllLeaveInitiated = FALSE;
        MOV     DPTR,#zllLeaveInitiated
        CLR     A
        MOVX    @DPTR,A
//  570 
//  571   // Clear leave control logic
//  572   ZDApp_LeaveCtrlReset();
        ; Setup parameters for call to function ZDApp_LeaveCtrlReset
        LCALL   ??ZDApp_LeaveCtrlReset?relay
//  573 
//  574   // Start operating on the new network
//  575   ZDOInitDevice( 0 );
        ; Setup parameters for call to function ZDOInitDevice
        MOV     R2,#0x0
        MOV     R3,#0x0
        LCALL   ??ZDOInitDevice?relay
//  576 }
        MOV     R7,#0x5
        LJMP    ?BANKED_LEAVE_XDATA
          CFI EndBlock cfiBlock7

        RSEG BANKED_CODE:CODE:NOROOT(0)
?Subroutine8:
          CFI Block cfiCond8 Using cfiCommon0
          CFI Function targetStartRtr
          CFI Conditional ??CrossCallReturnLabel_13
          CFI R6 load(1, XDATA, add(CFA_XSP16, literal(-13)))
          CFI VB load(1, XDATA, add(CFA_XSP16, literal(-12)))
          CFI V0 load(1, XDATA, add(CFA_XSP16, literal(-11)))
          CFI V1 load(1, XDATA, add(CFA_XSP16, literal(-10)))
          CFI V2 load(1, XDATA, add(CFA_XSP16, literal(-9)))
          CFI V3 load(1, XDATA, add(CFA_XSP16, literal(-8)))
          CFI V4 load(1, XDATA, add(CFA_XSP16, literal(-7)))
          CFI R7 load(1, XDATA, add(CFA_XSP16, literal(-6)))
          CFI ?RET_LOW load(1, XDATA, add(CFA_XSP16, literal(-5)))
          CFI ?RET_HIGH load(1, XDATA, add(CFA_XSP16, literal(-4)))
          CFI ?BRET_EXT load(1, XDATA, add(CFA_XSP16, literal(-3)))
          CFI DPL0 load(1, XDATA, add(CFA_XSP16, literal(-2)))
          CFI DPH0 load(1, XDATA, add(CFA_XSP16, literal(-1)))
          CFI CFA_SP SP+0
          CFI CFA_XSP16 add(XSP16, 16)
          CFI Block cfiCond9 Using cfiCommon0
          CFI (cfiCond9) Function targetStartRtr
          CFI (cfiCond9) Conditional ??CrossCallReturnLabel_14
          CFI (cfiCond9) R6 load(1, XDATA, add(CFA_XSP16, literal(-13)))
          CFI (cfiCond9) VB load(1, XDATA, add(CFA_XSP16, literal(-12)))
          CFI (cfiCond9) V0 load(1, XDATA, add(CFA_XSP16, literal(-11)))
          CFI (cfiCond9) V1 load(1, XDATA, add(CFA_XSP16, literal(-10)))
          CFI (cfiCond9) V2 load(1, XDATA, add(CFA_XSP16, literal(-9)))
          CFI (cfiCond9) V3 load(1, XDATA, add(CFA_XSP16, literal(-8)))
          CFI (cfiCond9) V4 load(1, XDATA, add(CFA_XSP16, literal(-7)))
          CFI (cfiCond9) R7 load(1, XDATA, add(CFA_XSP16, literal(-6)))
          CFI (cfiCond9) ?RET_LOW load(1, XDATA, add(CFA_XSP16, literal(-5)))
          CFI (cfiCond9) ?RET_HIGH load(1, XDATA, add(CFA_XSP16, literal(-4)))
          CFI (cfiCond9) ?BRET_EXT load(1, XDATA, add(CFA_XSP16, literal(-3)))
          CFI (cfiCond9) DPL0 load(1, XDATA, add(CFA_XSP16, literal(-2)))
          CFI (cfiCond9) DPH0 load(1, XDATA, add(CFA_XSP16, literal(-1)))
          CFI (cfiCond9) CFA_SP SP+0
          CFI (cfiCond9) CFA_XSP16 add(XSP16, 17)
          CFI Block cfiCond10 Using cfiCommon0
          CFI (cfiCond10) Function targetNwkUpdateReqCB
          CFI (cfiCond10) Conditional ??CrossCallReturnLabel_15
          CFI (cfiCond10) R6 load(1, XDATA, add(CFA_XSP16, literal(-9)))
          CFI (cfiCond10) VB load(1, XDATA, add(CFA_XSP16, literal(-8)))
          CFI (cfiCond10) V0 load(1, XDATA, add(CFA_XSP16, literal(-7)))
          CFI (cfiCond10) R7 load(1, XDATA, add(CFA_XSP16, literal(-6)))
          CFI (cfiCond10) ?RET_LOW load(1, XDATA, add(CFA_XSP16, literal(-5)))
          CFI (cfiCond10) ?RET_HIGH load(1, XDATA, add(CFA_XSP16, literal(-4)))
          CFI (cfiCond10) ?BRET_EXT load(1, XDATA, add(CFA_XSP16, literal(-3)))
          CFI (cfiCond10) DPL0 load(1, XDATA, add(CFA_XSP16, literal(-2)))
          CFI (cfiCond10) DPH0 load(1, XDATA, add(CFA_XSP16, literal(-1)))
          CFI (cfiCond10) CFA_SP SP+0
          CFI (cfiCond10) CFA_XSP16 add(XSP16, 9)
          CFI Block cfiCond11 Using cfiCommon0
          CFI (cfiCond11) Function targetNwkUpdateReqCB
          CFI (cfiCond11) Conditional ??CrossCallReturnLabel_16
          CFI (cfiCond11) R6 load(1, XDATA, add(CFA_XSP16, literal(-9)))
          CFI (cfiCond11) VB load(1, XDATA, add(CFA_XSP16, literal(-8)))
          CFI (cfiCond11) V0 load(1, XDATA, add(CFA_XSP16, literal(-7)))
          CFI (cfiCond11) R7 load(1, XDATA, add(CFA_XSP16, literal(-6)))
          CFI (cfiCond11) ?RET_LOW load(1, XDATA, add(CFA_XSP16, literal(-5)))
          CFI (cfiCond11) ?RET_HIGH load(1, XDATA, add(CFA_XSP16, literal(-4)))
          CFI (cfiCond11) ?BRET_EXT load(1, XDATA, add(CFA_XSP16, literal(-3)))
          CFI (cfiCond11) DPL0 load(1, XDATA, add(CFA_XSP16, literal(-2)))
          CFI (cfiCond11) DPH0 load(1, XDATA, add(CFA_XSP16, literal(-1)))
          CFI (cfiCond11) CFA_SP SP+0
          CFI (cfiCond11) CFA_XSP16 add(XSP16, 9)
          CFI Block cfiCond12 Using cfiCommon0
          CFI (cfiCond12) Function targetNwkUpdateReqCB
          CFI (cfiCond12) Conditional ??CrossCallReturnLabel_17
          CFI (cfiCond12) R6 load(1, XDATA, add(CFA_XSP16, literal(-9)))
          CFI (cfiCond12) VB load(1, XDATA, add(CFA_XSP16, literal(-8)))
          CFI (cfiCond12) V0 load(1, XDATA, add(CFA_XSP16, literal(-7)))
          CFI (cfiCond12) R7 load(1, XDATA, add(CFA_XSP16, literal(-6)))
          CFI (cfiCond12) ?RET_LOW load(1, XDATA, add(CFA_XSP16, literal(-5)))
          CFI (cfiCond12) ?RET_HIGH load(1, XDATA, add(CFA_XSP16, literal(-4)))
          CFI (cfiCond12) ?BRET_EXT load(1, XDATA, add(CFA_XSP16, literal(-3)))
          CFI (cfiCond12) DPL0 load(1, XDATA, add(CFA_XSP16, literal(-2)))
          CFI (cfiCond12) DPH0 load(1, XDATA, add(CFA_XSP16, literal(-1)))
          CFI (cfiCond12) CFA_SP SP+0
          CFI (cfiCond12) CFA_XSP16 add(XSP16, 9)
          CFI Block cfiPicker13 Using cfiCommon1
          CFI (cfiPicker13) NoFunction
          CFI (cfiPicker13) Picker
        MOV     DPL,A
        MOV     A,R7
          CFI EndBlock cfiCond8
          CFI EndBlock cfiCond9
          CFI EndBlock cfiCond10
          CFI EndBlock cfiCond11
          CFI EndBlock cfiCond12
          CFI EndBlock cfiPicker13
        REQUIRE ??Subroutine11_0
        ; // Fall through to label ??Subroutine11_0

        RSEG BANKED_CODE:CODE:NOROOT(0)
??Subroutine11_0:
          CFI Block cfiCond14 Using cfiCommon0
          CFI Function targetSendNwkStartRsp
          CFI Conditional ??CrossCallReturnLabel_10
          CFI R6 load(1, XDATA, add(CFA_XSP16, literal(-22)))
          CFI VB load(1, XDATA, add(CFA_XSP16, literal(-21)))
          CFI V0 load(1, XDATA, add(CFA_XSP16, literal(-20)))
          CFI V1 load(1, XDATA, add(CFA_XSP16, literal(-19)))
          CFI V2 load(1, XDATA, add(CFA_XSP16, literal(-18)))
          CFI V3 load(1, XDATA, add(CFA_XSP16, literal(-17)))
          CFI V4 load(1, XDATA, add(CFA_XSP16, literal(-16)))
          CFI V5 load(1, XDATA, add(CFA_XSP16, literal(-15)))
          CFI V6 load(1, XDATA, add(CFA_XSP16, literal(-14)))
          CFI V7 load(1, XDATA, add(CFA_XSP16, literal(-13)))
          CFI V8 load(1, XDATA, add(CFA_XSP16, literal(-12)))
          CFI V9 load(1, XDATA, add(CFA_XSP16, literal(-11)))
          CFI V10 load(1, XDATA, add(CFA_XSP16, literal(-10)))
          CFI V11 load(1, XDATA, add(CFA_XSP16, literal(-9)))
          CFI V12 load(1, XDATA, add(CFA_XSP16, literal(-8)))
          CFI V13 load(1, XDATA, add(CFA_XSP16, literal(-7)))
          CFI R7 load(1, XDATA, add(CFA_XSP16, literal(-6)))
          CFI ?RET_LOW load(1, XDATA, add(CFA_XSP16, literal(-5)))
          CFI ?RET_HIGH load(1, XDATA, add(CFA_XSP16, literal(-4)))
          CFI ?BRET_EXT load(1, XDATA, add(CFA_XSP16, literal(-3)))
          CFI DPL0 load(1, XDATA, add(CFA_XSP16, literal(-2)))
          CFI DPH0 load(1, XDATA, add(CFA_XSP16, literal(-1)))
          CFI CFA_SP SP+0
          CFI CFA_XSP16 add(XSP16, 22)
          CFI Block cfiCond15 Using cfiCommon0
          CFI (cfiCond15) Function targetSendNwkStartRsp
          CFI (cfiCond15) Conditional ??CrossCallReturnLabel_11
          CFI (cfiCond15) R6 load(1, XDATA, add(CFA_XSP16, literal(-22)))
          CFI (cfiCond15) VB load(1, XDATA, add(CFA_XSP16, literal(-21)))
          CFI (cfiCond15) V0 load(1, XDATA, add(CFA_XSP16, literal(-20)))
          CFI (cfiCond15) V1 load(1, XDATA, add(CFA_XSP16, literal(-19)))
          CFI (cfiCond15) V2 load(1, XDATA, add(CFA_XSP16, literal(-18)))
          CFI (cfiCond15) V3 load(1, XDATA, add(CFA_XSP16, literal(-17)))
          CFI (cfiCond15) V4 load(1, XDATA, add(CFA_XSP16, literal(-16)))
          CFI (cfiCond15) V5 load(1, XDATA, add(CFA_XSP16, literal(-15)))
          CFI (cfiCond15) V6 load(1, XDATA, add(CFA_XSP16, literal(-14)))
          CFI (cfiCond15) V7 load(1, XDATA, add(CFA_XSP16, literal(-13)))
          CFI (cfiCond15) V8 load(1, XDATA, add(CFA_XSP16, literal(-12)))
          CFI (cfiCond15) V9 load(1, XDATA, add(CFA_XSP16, literal(-11)))
          CFI (cfiCond15) V10 load(1, XDATA, add(CFA_XSP16, literal(-10)))
          CFI (cfiCond15) V11 load(1, XDATA, add(CFA_XSP16, literal(-9)))
          CFI (cfiCond15) V12 load(1, XDATA, add(CFA_XSP16, literal(-8)))
          CFI (cfiCond15) V13 load(1, XDATA, add(CFA_XSP16, literal(-7)))
          CFI (cfiCond15) R7 load(1, XDATA, add(CFA_XSP16, literal(-6)))
          CFI (cfiCond15) ?RET_LOW load(1, XDATA, add(CFA_XSP16, literal(-5)))
          CFI (cfiCond15) ?RET_HIGH load(1, XDATA, add(CFA_XSP16, literal(-4)))
          CFI (cfiCond15) ?BRET_EXT load(1, XDATA, add(CFA_XSP16, literal(-3)))
          CFI (cfiCond15) DPL0 load(1, XDATA, add(CFA_XSP16, literal(-2)))
          CFI (cfiCond15) DPH0 load(1, XDATA, add(CFA_XSP16, literal(-1)))
          CFI (cfiCond15) CFA_SP SP+0
          CFI (cfiCond15) CFA_XSP16 add(XSP16, 22)
          CFI Block cfiCond16 Using cfiCommon0
          CFI (cfiCond16) Function targetZdoLeaveCnfCB
          CFI (cfiCond16) Conditional ??CrossCallReturnLabel_12
          CFI (cfiCond16) R6 load(1, XDATA, add(CFA_XSP16, literal(-12)))
          CFI (cfiCond16) VB load(1, XDATA, add(CFA_XSP16, literal(-11)))
          CFI (cfiCond16) V0 load(1, XDATA, add(CFA_XSP16, literal(-10)))
          CFI (cfiCond16) V1 load(1, XDATA, add(CFA_XSP16, literal(-9)))
          CFI (cfiCond16) V2 load(1, XDATA, add(CFA_XSP16, literal(-8)))
          CFI (cfiCond16) V3 load(1, XDATA, add(CFA_XSP16, literal(-7)))
          CFI (cfiCond16) R7 load(1, XDATA, add(CFA_XSP16, literal(-6)))
          CFI (cfiCond16) ?RET_LOW load(1, XDATA, add(CFA_XSP16, literal(-5)))
          CFI (cfiCond16) ?RET_HIGH load(1, XDATA, add(CFA_XSP16, literal(-4)))
          CFI (cfiCond16) ?BRET_EXT load(1, XDATA, add(CFA_XSP16, literal(-3)))
          CFI (cfiCond16) DPL0 load(1, XDATA, add(CFA_XSP16, literal(-2)))
          CFI (cfiCond16) DPH0 load(1, XDATA, add(CFA_XSP16, literal(-1)))
          CFI (cfiCond16) CFA_SP SP+0
          CFI (cfiCond16) CFA_XSP16 add(XSP16, 44)
          CFI Block cfiCond17 Using cfiCommon0
          CFI (cfiCond17) Function targetStartRtr
          CFI (cfiCond17) Conditional ??CrossCallReturnLabel_13
          CFI (cfiCond17) R6 load(1, XDATA, add(CFA_XSP16, literal(-13)))
          CFI (cfiCond17) VB load(1, XDATA, add(CFA_XSP16, literal(-12)))
          CFI (cfiCond17) V0 load(1, XDATA, add(CFA_XSP16, literal(-11)))
          CFI (cfiCond17) V1 load(1, XDATA, add(CFA_XSP16, literal(-10)))
          CFI (cfiCond17) V2 load(1, XDATA, add(CFA_XSP16, literal(-9)))
          CFI (cfiCond17) V3 load(1, XDATA, add(CFA_XSP16, literal(-8)))
          CFI (cfiCond17) V4 load(1, XDATA, add(CFA_XSP16, literal(-7)))
          CFI (cfiCond17) R7 load(1, XDATA, add(CFA_XSP16, literal(-6)))
          CFI (cfiCond17) ?RET_LOW load(1, XDATA, add(CFA_XSP16, literal(-5)))
          CFI (cfiCond17) ?RET_HIGH load(1, XDATA, add(CFA_XSP16, literal(-4)))
          CFI (cfiCond17) ?BRET_EXT load(1, XDATA, add(CFA_XSP16, literal(-3)))
          CFI (cfiCond17) DPL0 load(1, XDATA, add(CFA_XSP16, literal(-2)))
          CFI (cfiCond17) DPH0 load(1, XDATA, add(CFA_XSP16, literal(-1)))
          CFI (cfiCond17) CFA_SP SP+0
          CFI (cfiCond17) CFA_XSP16 add(XSP16, 16)
          CFI Block cfiCond18 Using cfiCommon0
          CFI (cfiCond18) Function targetStartRtr
          CFI (cfiCond18) Conditional ??CrossCallReturnLabel_14
          CFI (cfiCond18) R6 load(1, XDATA, add(CFA_XSP16, literal(-13)))
          CFI (cfiCond18) VB load(1, XDATA, add(CFA_XSP16, literal(-12)))
          CFI (cfiCond18) V0 load(1, XDATA, add(CFA_XSP16, literal(-11)))
          CFI (cfiCond18) V1 load(1, XDATA, add(CFA_XSP16, literal(-10)))
          CFI (cfiCond18) V2 load(1, XDATA, add(CFA_XSP16, literal(-9)))
          CFI (cfiCond18) V3 load(1, XDATA, add(CFA_XSP16, literal(-8)))
          CFI (cfiCond18) V4 load(1, XDATA, add(CFA_XSP16, literal(-7)))
          CFI (cfiCond18) R7 load(1, XDATA, add(CFA_XSP16, literal(-6)))
          CFI (cfiCond18) ?RET_LOW load(1, XDATA, add(CFA_XSP16, literal(-5)))
          CFI (cfiCond18) ?RET_HIGH load(1, XDATA, add(CFA_XSP16, literal(-4)))
          CFI (cfiCond18) ?BRET_EXT load(1, XDATA, add(CFA_XSP16, literal(-3)))
          CFI (cfiCond18) DPL0 load(1, XDATA, add(CFA_XSP16, literal(-2)))
          CFI (cfiCond18) DPH0 load(1, XDATA, add(CFA_XSP16, literal(-1)))
          CFI (cfiCond18) CFA_SP SP+0
          CFI (cfiCond18) CFA_XSP16 add(XSP16, 17)
          CFI Block cfiCond19 Using cfiCommon0
          CFI (cfiCond19) Function targetNwkUpdateReqCB
          CFI (cfiCond19) Conditional ??CrossCallReturnLabel_15
          CFI (cfiCond19) R6 load(1, XDATA, add(CFA_XSP16, literal(-9)))
          CFI (cfiCond19) VB load(1, XDATA, add(CFA_XSP16, literal(-8)))
          CFI (cfiCond19) V0 load(1, XDATA, add(CFA_XSP16, literal(-7)))
          CFI (cfiCond19) R7 load(1, XDATA, add(CFA_XSP16, literal(-6)))
          CFI (cfiCond19) ?RET_LOW load(1, XDATA, add(CFA_XSP16, literal(-5)))
          CFI (cfiCond19) ?RET_HIGH load(1, XDATA, add(CFA_XSP16, literal(-4)))
          CFI (cfiCond19) ?BRET_EXT load(1, XDATA, add(CFA_XSP16, literal(-3)))
          CFI (cfiCond19) DPL0 load(1, XDATA, add(CFA_XSP16, literal(-2)))
          CFI (cfiCond19) DPH0 load(1, XDATA, add(CFA_XSP16, literal(-1)))
          CFI (cfiCond19) CFA_SP SP+0
          CFI (cfiCond19) CFA_XSP16 add(XSP16, 9)
          CFI Block cfiCond20 Using cfiCommon0
          CFI (cfiCond20) Function targetNwkUpdateReqCB
          CFI (cfiCond20) Conditional ??CrossCallReturnLabel_16
          CFI (cfiCond20) R6 load(1, XDATA, add(CFA_XSP16, literal(-9)))
          CFI (cfiCond20) VB load(1, XDATA, add(CFA_XSP16, literal(-8)))
          CFI (cfiCond20) V0 load(1, XDATA, add(CFA_XSP16, literal(-7)))
          CFI (cfiCond20) R7 load(1, XDATA, add(CFA_XSP16, literal(-6)))
          CFI (cfiCond20) ?RET_LOW load(1, XDATA, add(CFA_XSP16, literal(-5)))
          CFI (cfiCond20) ?RET_HIGH load(1, XDATA, add(CFA_XSP16, literal(-4)))
          CFI (cfiCond20) ?BRET_EXT load(1, XDATA, add(CFA_XSP16, literal(-3)))
          CFI (cfiCond20) DPL0 load(1, XDATA, add(CFA_XSP16, literal(-2)))
          CFI (cfiCond20) DPH0 load(1, XDATA, add(CFA_XSP16, literal(-1)))
          CFI (cfiCond20) CFA_SP SP+0
          CFI (cfiCond20) CFA_XSP16 add(XSP16, 9)
          CFI Block cfiCond21 Using cfiCommon0
          CFI (cfiCond21) Function targetNwkUpdateReqCB
          CFI (cfiCond21) Conditional ??CrossCallReturnLabel_17
          CFI (cfiCond21) R6 load(1, XDATA, add(CFA_XSP16, literal(-9)))
          CFI (cfiCond21) VB load(1, XDATA, add(CFA_XSP16, literal(-8)))
          CFI (cfiCond21) V0 load(1, XDATA, add(CFA_XSP16, literal(-7)))
          CFI (cfiCond21) R7 load(1, XDATA, add(CFA_XSP16, literal(-6)))
          CFI (cfiCond21) ?RET_LOW load(1, XDATA, add(CFA_XSP16, literal(-5)))
          CFI (cfiCond21) ?RET_HIGH load(1, XDATA, add(CFA_XSP16, literal(-4)))
          CFI (cfiCond21) ?BRET_EXT load(1, XDATA, add(CFA_XSP16, literal(-3)))
          CFI (cfiCond21) DPL0 load(1, XDATA, add(CFA_XSP16, literal(-2)))
          CFI (cfiCond21) DPH0 load(1, XDATA, add(CFA_XSP16, literal(-1)))
          CFI (cfiCond21) CFA_SP SP+0
          CFI (cfiCond21) CFA_XSP16 add(XSP16, 9)
          CFI Block cfiPicker22 Using cfiCommon1
          CFI (cfiPicker22) NoFunction
          CFI (cfiPicker22) Picker
        ADDC    A,#0x0
        MOV     DPH,A
        MOVX    A,@DPTR
        RET
          CFI EndBlock cfiCond14
          CFI EndBlock cfiCond15
          CFI EndBlock cfiCond16
          CFI EndBlock cfiCond17
          CFI EndBlock cfiCond18
          CFI EndBlock cfiCond19
          CFI EndBlock cfiCond20
          CFI EndBlock cfiCond21
          CFI EndBlock cfiPicker22
//  577 
//  578 
//  579 /*********************************************************************
//  580  * @fn      targetSelectNwkParams
//  581  *
//  582  * @brief   Select a unique PAN ID and Extended PAN ID when compared to
//  583  *          the PAN IDs and Extended PAN IDs of the networks detected
//  584  *          on the ZLL channels. The selected Extended PAN ID must be
//  585  *          a random number (and not equal to our IEEE address).
//  586  *
//  587  * @param   void
//  588  *
//  589  * @return  void
//  590  */

        RSEG BANKED_CODE:CODE:NOROOT(0)
//  591 static void targetSelectNwkParams( void )
targetSelectNwkParams:
          CFI Block cfiBlock23 Using cfiCommon0
          CFI Function targetSelectNwkParams
        CODE
//  592 {
        FUNCALL targetSelectNwkParams, zll_GenerateRandNum
        LOCFRAME ISTACK, 0, STACK
        LOCFRAME PSTACK, 0, STACK
        LOCFRAME XSTACK, 10, STACK
        LOCFRAME IOVERLAY, 0, STATIC
        LOCFRAME DOVERLAY, 0, STATIC
        ARGFRAME ISTACK, 0, STACK
        ARGFRAME PSTACK, 0, STACK
        ARGFRAME XSTACK, 10, STACK
        ARGFRAME IOVERLAY, 0, STATIC
        ARGFRAME DOVERLAY, 0, STATIC
        FUNCALL targetSelectNwkParams, osal_rand
        LOCFRAME ISTACK, 0, STACK
        LOCFRAME PSTACK, 0, STACK
        LOCFRAME XSTACK, 10, STACK
        LOCFRAME IOVERLAY, 0, STATIC
        LOCFRAME DOVERLAY, 0, STATIC
        ARGFRAME ISTACK, 0, STACK
        ARGFRAME PSTACK, 0, STACK
        ARGFRAME XSTACK, 10, STACK
        ARGFRAME IOVERLAY, 0, STATIC
        ARGFRAME DOVERLAY, 0, STATIC
        FUNCALL targetSelectNwkParams, targetVerifyNwkParams
        LOCFRAME ISTACK, 0, STACK
        LOCFRAME PSTACK, 0, STACK
        LOCFRAME XSTACK, 10, STACK
        LOCFRAME IOVERLAY, 0, STATIC
        LOCFRAME DOVERLAY, 0, STATIC
        ARGFRAME ISTACK, 0, STACK
        ARGFRAME PSTACK, 0, STACK
        ARGFRAME XSTACK, 10, STACK
        ARGFRAME IOVERLAY, 0, STATIC
        ARGFRAME DOVERLAY, 0, STATIC
        FUNCALL targetSelectNwkParams, zll_GetRandPrimaryChannel
        LOCFRAME ISTACK, 0, STACK
        LOCFRAME PSTACK, 0, STACK
        LOCFRAME XSTACK, 10, STACK
        LOCFRAME IOVERLAY, 0, STATIC
        LOCFRAME DOVERLAY, 0, STATIC
        ARGFRAME ISTACK, 0, STACK
        ARGFRAME PSTACK, 0, STACK
        ARGFRAME XSTACK, 10, STACK
        ARGFRAME IOVERLAY, 0, STATIC
        ARGFRAME DOVERLAY, 0, STATIC
        FUNCALL targetSelectNwkParams, osal_rand
        LOCFRAME ISTACK, 0, STACK
        LOCFRAME PSTACK, 0, STACK
        LOCFRAME XSTACK, 10, STACK
        LOCFRAME IOVERLAY, 0, STATIC
        LOCFRAME DOVERLAY, 0, STATIC
        ARGFRAME ISTACK, 0, STACK
        ARGFRAME PSTACK, 0, STACK
        ARGFRAME XSTACK, 10, STACK
        ARGFRAME IOVERLAY, 0, STATIC
        ARGFRAME DOVERLAY, 0, STATIC
        FUNCALL targetSelectNwkParams, zll_SetMacNwkParams
        LOCFRAME ISTACK, 0, STACK
        LOCFRAME PSTACK, 0, STACK
        LOCFRAME XSTACK, 10, STACK
        LOCFRAME IOVERLAY, 0, STATIC
        LOCFRAME DOVERLAY, 0, STATIC
        ARGFRAME ISTACK, 0, STACK
        ARGFRAME PSTACK, 0, STACK
        ARGFRAME XSTACK, 10, STACK
        ARGFRAME IOVERLAY, 0, STATIC
        ARGFRAME DOVERLAY, 0, STATIC
        MOV     A,#-0xa
        LCALL   ?BANKED_ENTER_XDATA
          CFI R6 load(1, XDATA, add(CFA_XSP16, literal(-10)))
          CFI VB load(1, XDATA, add(CFA_XSP16, literal(-9)))
          CFI V0 load(1, XDATA, add(CFA_XSP16, literal(-8)))
          CFI V1 load(1, XDATA, add(CFA_XSP16, literal(-7)))
          CFI R7 load(1, XDATA, add(CFA_XSP16, literal(-6)))
          CFI ?RET_LOW load(1, XDATA, add(CFA_XSP16, literal(-5)))
          CFI ?RET_HIGH load(1, XDATA, add(CFA_XSP16, literal(-4)))
          CFI ?BRET_EXT load(1, XDATA, add(CFA_XSP16, literal(-3)))
          CFI DPL0 load(1, XDATA, add(CFA_XSP16, literal(-2)))
          CFI DPH0 load(1, XDATA, add(CFA_XSP16, literal(-1)))
          CFI CFA_SP SP+0
          CFI CFA_XSP16 add(XSP16, 10)
        ; Saved register size: 10
        ; Auto size: 0
//  593   uint8 status = ZFailure;
//  594 
//  595   while ( status == ZFailure )
//  596   {
//  597     // Select a random Extended PAN ID
//  598     zll_GenerateRandNum( _NIB.extendedPANID, Z_EXTADDR_LEN );
??targetSelectNwkParams_0:
        ; Setup parameters for call to function zll_GenerateRandNum
        MOV     R1,#0x8
        MOV     R2,#(_NIB + 53) & 0xff
        MOV     R3,#((_NIB + 53) >> 8) & 0xff
        LCALL   ??zll_GenerateRandNum?relay
//  599 
//  600     // Select a random PAN ID
//  601     _NIB.nwkPanId = osal_rand();
        ; Setup parameters for call to function osal_rand
        LCALL   ??osal_rand?relay
        MOV     DPTR,#_NIB + 33
        MOV     A,R2
        MOVX    @DPTR,A
        INC     DPTR
        MOV     A,R3
        MOVX    @DPTR,A
//  602 
//  603     // Make sure they're unique
//  604     status = targetVerifyNwkParams( _NIB.nwkPanId, _NIB.extendedPANID );
//  605   }
        ; Setup parameters for call to function targetVerifyNwkParams
        MOV     R4,#(_NIB + 53) & 0xff
        MOV     R5,#((_NIB + 53) >> 8) & 0xff
        LCALL   ??targetVerifyNwkParams?relay
        MOV     A,R1
        XRL     A,#0x1
        JZ      ??targetSelectNwkParams_0
//  606 
//  607   // Select randomly one of the ZLL channels as our logical channel
//  608   _NIB.nwkLogicalChannel = zll_GetRandPrimaryChannel();
        ; Setup parameters for call to function zll_GetRandPrimaryChannel
        LCALL   ??zll_GetRandPrimaryChannel?relay
        MOV     A,R1
        MOV     DPTR,#_NIB + 22
        MOVX    @DPTR,A
//  609 
//  610   _NIB.nwkDevAddress = osal_rand();
        ; Setup parameters for call to function osal_rand
        LCALL   ??osal_rand?relay
        MOV     DPTR,#_NIB + 20
        MOV     A,R2
        MOVX    @DPTR,A
        INC     DPTR
        MOV     A,R3
        MOVX    @DPTR,A
//  611 
//  612   // Configure MAC with our network parameters
//  613   zll_SetMacNwkParams( _NIB.nwkDevAddress, _NIB.nwkPanId, _NIB.nwkLogicalChannel );
        ; Setup parameters for call to function zll_SetMacNwkParams
        INC     DPTR
        MOVX    A,@DPTR
        MOV     R1,A
        MOV     DPTR,#_NIB + 33
        MOVX    A,@DPTR
        MOV     R4,A
        INC     DPTR
        MOVX    A,@DPTR
        MOV     R5,A
        LCALL   ??zll_SetMacNwkParams?relay
          CFI EndBlock cfiBlock23
//  614 }
        REQUIRE ?Subroutine2
        ; // Fall through to label ?Subroutine2

        RSEG BANKED_CODE:CODE:NOROOT(0)
?Subroutine2:
          CFI Block cfiBlock24 Using cfiCommon0
          CFI NoFunction
          CFI CFA_SP SP+0
          CFI CFA_XSP16 add(XSP16, 10)
          CFI VB load(1, XDATA, add(CFA_XSP16, literal(-9)))
          CFI DPL0 load(1, XDATA, add(CFA_XSP16, literal(-2)))
          CFI DPH0 load(1, XDATA, add(CFA_XSP16, literal(-1)))
          CFI R6 load(1, XDATA, add(CFA_XSP16, literal(-10)))
          CFI R7 load(1, XDATA, add(CFA_XSP16, literal(-6)))
          CFI V0 load(1, XDATA, add(CFA_XSP16, literal(-8)))
          CFI V1 load(1, XDATA, add(CFA_XSP16, literal(-7)))
          CFI ?BRET_EXT load(1, XDATA, add(CFA_XSP16, literal(-3)))
          CFI ?RET_HIGH load(1, XDATA, add(CFA_XSP16, literal(-4)))
          CFI ?RET_LOW load(1, XDATA, add(CFA_XSP16, literal(-5)))
        MOV     R7,#0x2
        LJMP    ?BANKED_LEAVE_XDATA
          CFI EndBlock cfiBlock24
//  615 
//  616 /*********************************************************************
//  617  * @fn      targetVerifyNwkParams
//  618  *
//  619  * @brief   Verify that the PAN ID and Extended PAN ID are unique.
//  620  *
//  621  * @param   PANID - PAN Identifier
//  622  * @param   pExtendedPANID - extended PAN Identifier
//  623  *
//  624  * @return  status
//  625  */

        RSEG BANKED_CODE:CODE:NOROOT(0)
//  626 static ZStatus_t targetVerifyNwkParams( uint16 PANID, uint8 *pExtendedPANID )
targetVerifyNwkParams:
          CFI Block cfiBlock25 Using cfiCommon0
          CFI Function targetVerifyNwkParams
        CODE
//  627 {
        FUNCALL targetVerifyNwkParams, sAddrExtCmp
        LOCFRAME ISTACK, 0, STACK
        LOCFRAME PSTACK, 0, STACK
        LOCFRAME XSTACK, 12, STACK
        LOCFRAME IOVERLAY, 0, STATIC
        LOCFRAME DOVERLAY, 0, STATIC
        ARGFRAME ISTACK, 0, STACK
        ARGFRAME PSTACK, 0, STACK
        ARGFRAME XSTACK, 12, STACK
        ARGFRAME IOVERLAY, 0, STATIC
        ARGFRAME DOVERLAY, 0, STATIC
        MOV     A,#-0xc
        LCALL   ?BANKED_ENTER_XDATA
          CFI DPH0 load(1, XDATA, add(CFA_XSP16, literal(-1)))
          CFI DPL0 load(1, XDATA, add(CFA_XSP16, literal(-2)))
          CFI ?BRET_EXT load(1, XDATA, add(CFA_XSP16, literal(-3)))
          CFI ?RET_HIGH load(1, XDATA, add(CFA_XSP16, literal(-4)))
          CFI ?RET_LOW load(1, XDATA, add(CFA_XSP16, literal(-5)))
          CFI R7 load(1, XDATA, add(CFA_XSP16, literal(-6)))
          CFI V3 load(1, XDATA, add(CFA_XSP16, literal(-7)))
          CFI V2 load(1, XDATA, add(CFA_XSP16, literal(-8)))
          CFI V1 load(1, XDATA, add(CFA_XSP16, literal(-9)))
          CFI V0 load(1, XDATA, add(CFA_XSP16, literal(-10)))
          CFI VB load(1, XDATA, add(CFA_XSP16, literal(-11)))
          CFI R6 load(1, XDATA, add(CFA_XSP16, literal(-12)))
          CFI CFA_SP SP+0
          CFI CFA_XSP16 add(XSP16, 12)
        ; Saved register size: 12
        ; Auto size: 0
        MOV     ?V0 + 2,R2
        MOV     ?V0 + 3,R3
        MOV     A,R4
        MOV     R6,A
        MOV     A,R5
        MOV     R7,A
//  628   zllDiscoveredNwkParam_t *pParam = pDiscoveredNwkParamList;
        MOV     DPTR,#pDiscoveredNwkParamList
        SJMP    ??targetVerifyNwkParams_0
//  629 
//  630   // Add for our network parameters in the Network Parameter List
//  631   while ( pParam != NULL )
//  632   {
//  633     if ( ( pParam->PANID == PANID ) &&
//  634          ( osal_ExtAddrEqual( pParam->extendedPANID, pExtendedPANID ) ) )
//  635     {
//  636       return ( ZFailure );
//  637     }
//  638 
//  639     pParam = pParam->nextParam;
??targetVerifyNwkParams_1:
        MOV     DPL,?V0 + 0
        MOV     DPH,?V0 + 1
??targetVerifyNwkParams_0:
        MOVX    A,@DPTR
        MOV     ?V0 + 0,A
        INC     DPTR
        MOVX    A,@DPTR
        MOV     ?V0 + 1,A
        MOV     A,?V0 + 0
        ORL     A,?V0 + 1
        JZ      ??targetVerifyNwkParams_2
        MOV     DPL,?V0 + 0
        MOV     DPH,?V0 + 1
        INC     DPTR
        INC     DPTR
        MOVX    A,@DPTR
        XRL     A,?V0 + 2
        JNZ     ??targetVerifyNwkParams_3
        INC     DPTR
        MOVX    A,@DPTR
        XRL     A,?V0 + 3
??targetVerifyNwkParams_3:
        JNZ     ??targetVerifyNwkParams_1
        ; Setup parameters for call to function sAddrExtCmp
        MOV     A,R6
        MOV     R4,A
        MOV     A,R7
        MOV     R5,A
        MOV     A,?V0 + 0
        ADD     A,#0x5
        MOV     R2,A
        MOV     A,?V0 + 1
        ADDC    A,#0x0
        MOV     R3,A
        LCALL   ??sAddrExtCmp?relay
        MOV     A,R1
        JZ      ??targetVerifyNwkParams_1
        MOV     R1,#0x1
        SJMP    ??targetVerifyNwkParams_4
//  640   }
//  641 
//  642   return ( ZSuccess );
??targetVerifyNwkParams_2:
        MOV     R1,#0x0
          CFI EndBlock cfiBlock25
??targetVerifyNwkParams_4:
        REQUIRE ?Subroutine3
        ; // Fall through to label ?Subroutine3
//  643 }

        RSEG BANKED_CODE:CODE:NOROOT(0)
?Subroutine3:
          CFI Block cfiBlock26 Using cfiCommon0
          CFI NoFunction
          CFI CFA_SP SP+0
          CFI CFA_XSP16 add(XSP16, 12)
          CFI VB load(1, XDATA, add(CFA_XSP16, literal(-11)))
          CFI DPL0 load(1, XDATA, add(CFA_XSP16, literal(-2)))
          CFI DPH0 load(1, XDATA, add(CFA_XSP16, literal(-1)))
          CFI R6 load(1, XDATA, add(CFA_XSP16, literal(-12)))
          CFI R7 load(1, XDATA, add(CFA_XSP16, literal(-6)))
          CFI V0 load(1, XDATA, add(CFA_XSP16, literal(-10)))
          CFI V1 load(1, XDATA, add(CFA_XSP16, literal(-9)))
          CFI V2 load(1, XDATA, add(CFA_XSP16, literal(-8)))
          CFI V3 load(1, XDATA, add(CFA_XSP16, literal(-7)))
          CFI ?BRET_EXT load(1, XDATA, add(CFA_XSP16, literal(-3)))
          CFI ?RET_HIGH load(1, XDATA, add(CFA_XSP16, literal(-4)))
          CFI ?RET_LOW load(1, XDATA, add(CFA_XSP16, literal(-5)))
        MOV     R7,#0x4
        LJMP    ?BANKED_LEAVE_XDATA
          CFI EndBlock cfiBlock26
//  644 
//  645 
//  646 /*********************************************************************
//  647  * @fn      targetScanReqCB
//  648  *
//  649  * @brief   This callback is called to process a Scan Request command.
//  650  *
//  651  * @param   srcAddr - sender's address
//  652  * @param   pReq - parsed command
//  653  * @param   seqNum - command sequence number
//  654  *
//  655  * @return  ZStatus_t
//  656  */

        RSEG BANKED_CODE:CODE:NOROOT(0)
//  657 static ZStatus_t targetScanReqCB( afAddrType_t *srcAddr, zclLLScanReq_t *pReq, uint8 seqNum )
targetScanReqCB:
          CFI Block cfiBlock27 Using cfiCommon0
          CFI Function targetScanReqCB
        CODE
//  658 {
        FUNCALL targetScanReqCB, zll_GetMsgRssi
        LOCFRAME ISTACK, 0, STACK
        LOCFRAME PSTACK, 0, STACK
        LOCFRAME XSTACK, 12, STACK
        LOCFRAME IOVERLAY, 0, STATIC
        LOCFRAME DOVERLAY, 0, STATIC
        ARGFRAME ISTACK, 0, STACK
        ARGFRAME PSTACK, 0, STACK
        ARGFRAME XSTACK, 12, STACK
        ARGFRAME IOVERLAY, 0, STATIC
        ARGFRAME DOVERLAY, 0, STATIC
        FUNCALL targetScanReqCB, zll_SendScanRsp
        LOCFRAME ISTACK, 0, STACK
        LOCFRAME PSTACK, 0, STACK
        LOCFRAME XSTACK, 16, STACK
        LOCFRAME IOVERLAY, 0, STATIC
        LOCFRAME DOVERLAY, 0, STATIC
        ARGFRAME ISTACK, 0, STACK
        ARGFRAME PSTACK, 0, STACK
        ARGFRAME XSTACK, 16, STACK
        ARGFRAME IOVERLAY, 0, STATIC
        ARGFRAME DOVERLAY, 0, STATIC
        MOV     A,#-0xc
        LCALL   ?BANKED_ENTER_XDATA
          CFI DPH0 load(1, XDATA, add(CFA_XSP16, literal(-1)))
          CFI DPL0 load(1, XDATA, add(CFA_XSP16, literal(-2)))
          CFI ?BRET_EXT load(1, XDATA, add(CFA_XSP16, literal(-3)))
          CFI ?RET_HIGH load(1, XDATA, add(CFA_XSP16, literal(-4)))
          CFI ?RET_LOW load(1, XDATA, add(CFA_XSP16, literal(-5)))
          CFI R7 load(1, XDATA, add(CFA_XSP16, literal(-6)))
          CFI V3 load(1, XDATA, add(CFA_XSP16, literal(-7)))
          CFI V2 load(1, XDATA, add(CFA_XSP16, literal(-8)))
          CFI V1 load(1, XDATA, add(CFA_XSP16, literal(-9)))
          CFI V0 load(1, XDATA, add(CFA_XSP16, literal(-10)))
          CFI VB load(1, XDATA, add(CFA_XSP16, literal(-11)))
          CFI R6 load(1, XDATA, add(CFA_XSP16, literal(-12)))
          CFI CFA_SP SP+0
          CFI CFA_XSP16 add(XSP16, 12)
        ; Saved register size: 12
        ; Auto size: 0
        MOV     ?V0 + 0,R2
        MOV     ?V0 + 1,R3
        MOV     A,R4
        MOV     R6,A
        MOV     A,R5
        MOV     R7,A
        MOV     ?V0 + 2,R1
//  659   ZStatus_t ret = ZSuccess;
        MOV     ?V0 + 3,#0x0
//  660   int8 rssi;
//  661   rssi = zll_GetMsgRssi();
//  662   if( rssi > ZLL_TL_WORST_RSSI )
        ; Setup parameters for call to function zll_GetMsgRssi
        LCALL   ??zll_GetMsgRssi?relay
        MOV     A,R1
        CLR     C
        SUBB    A,#-0x27
        MOV     C,0xD0 /* PSW */.2
        XRL     A,PSW
        RLC     A
        JC      ??targetScanReqCB_0
//  663   {
//  664     if ( pDiscoveredNwkParamList == NULL )
        MOV     DPTR,#pDiscoveredNwkParamList
        LCALL   ?Subroutine7 & 0xFFFF
??CrossCallReturnLabel_4:
        JNZ     ??targetScanReqCB_0
//  665     {
//  666       dstAddr = *srcAddr;
        MOV     DPL,?V0 + 0
        MOV     DPH,?V0 + 1
        MOV     R4,#dstAddr & 0xff
        MOV     R5,#(dstAddr >> 8) & 0xff
        MOV     A,#0xc
        LCALL   ?MOVE_LONG8_XDATA_XDATA
//  667       dstAddr.panId = 0xFFFF;
        MOV     DPTR,#dstAddr + 10
        MOV     A,#-0x1
        MOVX    @DPTR,A
        INC     DPTR
        MOVX    @DPTR,A
//  668 
//  669       ret = zll_SendScanRsp( ZLL_INTERNAL_ENDPOINT, &dstAddr, pReq->transID, seqNum );
        ; Setup parameters for call to function zll_SendScanRsp
        MOV     DPL,R6
        MOV     DPH,R7
        LCALL   ?PUSH_XSTACK8_X_FOUR
          CFI CFA_XSP16 add(XSP16, 16)
        MOV     R4,?V0 + 2
        MOV     R2,#dstAddr & 0xff
        MOV     R3,#(dstAddr >> 8) & 0xff
        MOV     R1,#0xd
        LCALL   ??zll_SendScanRsp?relay
        MOV     A,#0x4
        LCALL   ?DEALLOC_XSTACK8
          CFI CFA_XSP16 add(XSP16, 12)
        MOV     A,R1
        MOV     ?V0 + 3,A
//  670       if ( ret == ZSuccess )
        JNZ     ??targetScanReqCB_0
//  671       {
//  672         zllTransID = pReq->transID;
        MOV     DPL,R6
        MOV     DPH,R7
        LCALL   ?XLOAD_R2345
        MOV     DPTR,#zllTransID
        LCALL   ?XSTORE_R2345
//  673       }
//  674     }
//  675   }
//  676 
//  677   return ( ret );
??targetScanReqCB_0:
        MOV     R1,?V0 + 3
        SJMP    ?Subroutine3
          CFI EndBlock cfiBlock27
//  678 }

        RSEG BANKED_CODE:CODE:NOROOT(0)
?Subroutine7:
          CFI Block cfiCond28 Using cfiCommon0
          CFI Function zllTarget_event_loop
          CFI Conditional ??CrossCallReturnLabel_2
          CFI R6 load(1, XDATA, add(CFA_XSP16, literal(-16)))
          CFI VB load(1, XDATA, add(CFA_XSP16, literal(-15)))
          CFI V0 load(1, XDATA, add(CFA_XSP16, literal(-14)))
          CFI V1 load(1, XDATA, add(CFA_XSP16, literal(-13)))
          CFI V2 load(1, XDATA, add(CFA_XSP16, literal(-12)))
          CFI V3 load(1, XDATA, add(CFA_XSP16, literal(-11)))
          CFI V4 load(1, XDATA, add(CFA_XSP16, literal(-10)))
          CFI V5 load(1, XDATA, add(CFA_XSP16, literal(-9)))
          CFI V6 load(1, XDATA, add(CFA_XSP16, literal(-8)))
          CFI V7 load(1, XDATA, add(CFA_XSP16, literal(-7)))
          CFI R7 load(1, XDATA, add(CFA_XSP16, literal(-6)))
          CFI ?RET_LOW load(1, XDATA, add(CFA_XSP16, literal(-5)))
          CFI ?RET_HIGH load(1, XDATA, add(CFA_XSP16, literal(-4)))
          CFI ?BRET_EXT load(1, XDATA, add(CFA_XSP16, literal(-3)))
          CFI DPL0 load(1, XDATA, add(CFA_XSP16, literal(-2)))
          CFI DPH0 load(1, XDATA, add(CFA_XSP16, literal(-1)))
          CFI CFA_SP SP+0
          CFI CFA_XSP16 add(XSP16, 16)
          CFI Block cfiCond29 Using cfiCommon0
          CFI (cfiCond29) Function zllTarget_event_loop
          CFI (cfiCond29) Conditional ??CrossCallReturnLabel_3
          CFI (cfiCond29) R6 load(1, XDATA, add(CFA_XSP16, literal(-16)))
          CFI (cfiCond29) VB load(1, XDATA, add(CFA_XSP16, literal(-15)))
          CFI (cfiCond29) V0 load(1, XDATA, add(CFA_XSP16, literal(-14)))
          CFI (cfiCond29) V1 load(1, XDATA, add(CFA_XSP16, literal(-13)))
          CFI (cfiCond29) V2 load(1, XDATA, add(CFA_XSP16, literal(-12)))
          CFI (cfiCond29) V3 load(1, XDATA, add(CFA_XSP16, literal(-11)))
          CFI (cfiCond29) V4 load(1, XDATA, add(CFA_XSP16, literal(-10)))
          CFI (cfiCond29) V5 load(1, XDATA, add(CFA_XSP16, literal(-9)))
          CFI (cfiCond29) V6 load(1, XDATA, add(CFA_XSP16, literal(-8)))
          CFI (cfiCond29) V7 load(1, XDATA, add(CFA_XSP16, literal(-7)))
          CFI (cfiCond29) R7 load(1, XDATA, add(CFA_XSP16, literal(-6)))
          CFI (cfiCond29) ?RET_LOW load(1, XDATA, add(CFA_XSP16, literal(-5)))
          CFI (cfiCond29) ?RET_HIGH load(1, XDATA, add(CFA_XSP16, literal(-4)))
          CFI (cfiCond29) ?BRET_EXT load(1, XDATA, add(CFA_XSP16, literal(-3)))
          CFI (cfiCond29) DPL0 load(1, XDATA, add(CFA_XSP16, literal(-2)))
          CFI (cfiCond29) DPH0 load(1, XDATA, add(CFA_XSP16, literal(-1)))
          CFI (cfiCond29) CFA_SP SP+0
          CFI (cfiCond29) CFA_XSP16 add(XSP16, 16)
          CFI Block cfiCond30 Using cfiCommon0
          CFI (cfiCond30) Function targetScanReqCB
          CFI (cfiCond30) Conditional ??CrossCallReturnLabel_4
          CFI (cfiCond30) R6 load(1, XDATA, add(CFA_XSP16, literal(-12)))
          CFI (cfiCond30) VB load(1, XDATA, add(CFA_XSP16, literal(-11)))
          CFI (cfiCond30) V0 load(1, XDATA, add(CFA_XSP16, literal(-10)))
          CFI (cfiCond30) V1 load(1, XDATA, add(CFA_XSP16, literal(-9)))
          CFI (cfiCond30) V2 load(1, XDATA, add(CFA_XSP16, literal(-8)))
          CFI (cfiCond30) V3 load(1, XDATA, add(CFA_XSP16, literal(-7)))
          CFI (cfiCond30) R7 load(1, XDATA, add(CFA_XSP16, literal(-6)))
          CFI (cfiCond30) ?RET_LOW load(1, XDATA, add(CFA_XSP16, literal(-5)))
          CFI (cfiCond30) ?RET_HIGH load(1, XDATA, add(CFA_XSP16, literal(-4)))
          CFI (cfiCond30) ?BRET_EXT load(1, XDATA, add(CFA_XSP16, literal(-3)))
          CFI (cfiCond30) DPL0 load(1, XDATA, add(CFA_XSP16, literal(-2)))
          CFI (cfiCond30) DPH0 load(1, XDATA, add(CFA_XSP16, literal(-1)))
          CFI (cfiCond30) CFA_SP SP+0
          CFI (cfiCond30) CFA_XSP16 add(XSP16, 12)
          CFI Block cfiCond31 Using cfiCommon0
          CFI (cfiCond31) Function targetIdentifyReqCB
          CFI (cfiCond31) Conditional ??CrossCallReturnLabel_5
          CFI (cfiCond31) R6 load(1, XDATA, add(CFA_XSP16, literal(-10)))
          CFI (cfiCond31) VB load(1, XDATA, add(CFA_XSP16, literal(-9)))
          CFI (cfiCond31) V0 load(1, XDATA, add(CFA_XSP16, literal(-8)))
          CFI (cfiCond31) V1 load(1, XDATA, add(CFA_XSP16, literal(-7)))
          CFI (cfiCond31) R7 load(1, XDATA, add(CFA_XSP16, literal(-6)))
          CFI (cfiCond31) ?RET_LOW load(1, XDATA, add(CFA_XSP16, literal(-5)))
          CFI (cfiCond31) ?RET_HIGH load(1, XDATA, add(CFA_XSP16, literal(-4)))
          CFI (cfiCond31) ?BRET_EXT load(1, XDATA, add(CFA_XSP16, literal(-3)))
          CFI (cfiCond31) DPL0 load(1, XDATA, add(CFA_XSP16, literal(-2)))
          CFI (cfiCond31) DPH0 load(1, XDATA, add(CFA_XSP16, literal(-1)))
          CFI (cfiCond31) CFA_SP SP+0
          CFI (cfiCond31) CFA_XSP16 add(XSP16, 14)
          CFI Block cfiPicker32 Using cfiCommon1
          CFI (cfiPicker32) NoFunction
          CFI (cfiPicker32) Picker
        LCALL   ?Subroutine9 & 0xFFFF
??CrossCallReturnLabel_9:
        MOV     A,R0
        ORL     A,R1
        RET
          CFI EndBlock cfiCond28
          CFI EndBlock cfiCond29
          CFI EndBlock cfiCond30
          CFI EndBlock cfiCond31
          CFI EndBlock cfiPicker32
//  679 
//  680 /*********************************************************************
//  681  * @fn      targetDeviceInfoReqCB
//  682  *
//  683  * @brief   This callback is called to process a Device Information
//  684  *          Request command.
//  685  *
//  686  * @param   srcAddr - sender's address
//  687  * @param   pReq - parsed command
//  688  * @param   seqNum - command sequence number
//  689  *
//  690  * @return  ZStatus_t
//  691  */

        RSEG BANKED_CODE:CODE:NOROOT(0)
//  692 static ZStatus_t targetDeviceInfoReqCB( afAddrType_t *srcAddr, zclLLDeviceInfoReq_t *pReq, uint8 seqNum )
targetDeviceInfoReqCB:
          CFI Block cfiBlock33 Using cfiCommon0
          CFI Function targetDeviceInfoReqCB
        CODE
//  693 {
        FUNCALL targetDeviceInfoReqCB, zll_IsValidTransID
        LOCFRAME ISTACK, 0, STACK
        LOCFRAME PSTACK, 0, STACK
        LOCFRAME XSTACK, 11, STACK
        LOCFRAME IOVERLAY, 0, STATIC
        LOCFRAME DOVERLAY, 0, STATIC
        ARGFRAME ISTACK, 0, STACK
        ARGFRAME PSTACK, 0, STACK
        ARGFRAME XSTACK, 11, STACK
        ARGFRAME IOVERLAY, 0, STATIC
        ARGFRAME DOVERLAY, 0, STATIC
        FUNCALL targetDeviceInfoReqCB, zll_SendDeviceInfoRsp
        LOCFRAME ISTACK, 0, STACK
        LOCFRAME PSTACK, 0, STACK
        LOCFRAME XSTACK, 15, STACK
        LOCFRAME IOVERLAY, 0, STATIC
        LOCFRAME DOVERLAY, 0, STATIC
        ARGFRAME ISTACK, 0, STACK
        ARGFRAME PSTACK, 0, STACK
        ARGFRAME XSTACK, 15, STACK
        ARGFRAME IOVERLAY, 0, STATIC
        ARGFRAME DOVERLAY, 0, STATIC
        MOV     A,#-0xb
        LCALL   ?BANKED_ENTER_XDATA
          CFI DPH0 load(1, XDATA, add(CFA_XSP16, literal(-1)))
          CFI DPL0 load(1, XDATA, add(CFA_XSP16, literal(-2)))
          CFI ?BRET_EXT load(1, XDATA, add(CFA_XSP16, literal(-3)))
          CFI ?RET_HIGH load(1, XDATA, add(CFA_XSP16, literal(-4)))
          CFI ?RET_LOW load(1, XDATA, add(CFA_XSP16, literal(-5)))
          CFI R7 load(1, XDATA, add(CFA_XSP16, literal(-6)))
          CFI V2 load(1, XDATA, add(CFA_XSP16, literal(-7)))
          CFI V1 load(1, XDATA, add(CFA_XSP16, literal(-8)))
          CFI V0 load(1, XDATA, add(CFA_XSP16, literal(-9)))
          CFI VB load(1, XDATA, add(CFA_XSP16, literal(-10)))
          CFI R6 load(1, XDATA, add(CFA_XSP16, literal(-11)))
          CFI CFA_SP SP+0
          CFI CFA_XSP16 add(XSP16, 11)
        ; Saved register size: 11
        ; Auto size: 0
        MOV     A,R2
        MOV     R6,A
        MOV     A,R3
        MOV     R7,A
        MOV     ?V0 + 0,R4
        MOV     ?V0 + 1,R5
        MOV     ?V0 + 2,R1
//  694   if ( zll_IsValidTransID( pReq->transID ) == FALSE )
        ; Setup parameters for call to function zll_IsValidTransID
        MOV     DPL,R4
        MOV     DPH,R5
        LCALL   ?XLOAD_R2345
        LCALL   ??zll_IsValidTransID?relay
        MOV     A,R1
        JNZ     ??targetDeviceInfoReqCB_0
//  695   {
//  696     return ( ZFailure );
        MOV     R1,#0x1
        SJMP    ??targetDeviceInfoReqCB_1
//  697   }
//  698   return ( zll_SendDeviceInfoRsp( ZLL_INTERNAL_ENDPOINT, srcAddr,
//  699                                   pReq->startIndex, pReq->transID, seqNum ) );
??targetDeviceInfoReqCB_0:
        ; Setup parameters for call to function zll_SendDeviceInfoRsp
        MOV     DPL,?V0 + 0
        MOV     DPH,?V0 + 1
        LCALL   ?PUSH_XSTACK8_X_FOUR
          CFI CFA_XSP16 add(XSP16, 15)
        MOV     R5,?V0 + 2
        MOV     DPL,?V0 + 0
        MOV     DPH,?V0 + 1
        INC     DPTR
        INC     DPTR
        INC     DPTR
        INC     DPTR
        MOVX    A,@DPTR
        MOV     R4,A
        MOV     A,R6
        MOV     R2,A
        MOV     A,R7
        MOV     R3,A
        MOV     R1,#0xd
        LCALL   ??zll_SendDeviceInfoRsp?relay
        MOV     A,#0x4
        LCALL   ?DEALLOC_XSTACK8
          CFI CFA_XSP16 add(XSP16, 11)
          CFI EndBlock cfiBlock33
??targetDeviceInfoReqCB_1:
        REQUIRE ?Subroutine4
        ; // Fall through to label ?Subroutine4
//  700 }

        RSEG BANKED_CODE:CODE:NOROOT(0)
?Subroutine4:
          CFI Block cfiBlock34 Using cfiCommon0
          CFI NoFunction
          CFI CFA_SP SP+0
          CFI CFA_XSP16 add(XSP16, 11)
          CFI VB load(1, XDATA, add(CFA_XSP16, literal(-10)))
          CFI DPL0 load(1, XDATA, add(CFA_XSP16, literal(-2)))
          CFI DPH0 load(1, XDATA, add(CFA_XSP16, literal(-1)))
          CFI R6 load(1, XDATA, add(CFA_XSP16, literal(-11)))
          CFI R7 load(1, XDATA, add(CFA_XSP16, literal(-6)))
          CFI V0 load(1, XDATA, add(CFA_XSP16, literal(-9)))
          CFI V1 load(1, XDATA, add(CFA_XSP16, literal(-8)))
          CFI V2 load(1, XDATA, add(CFA_XSP16, literal(-7)))
          CFI ?BRET_EXT load(1, XDATA, add(CFA_XSP16, literal(-3)))
          CFI ?RET_HIGH load(1, XDATA, add(CFA_XSP16, literal(-4)))
          CFI ?RET_LOW load(1, XDATA, add(CFA_XSP16, literal(-5)))
        MOV     R7,#0x3
        LJMP    ?BANKED_LEAVE_XDATA
          CFI EndBlock cfiBlock34
//  701 
//  702 /*********************************************************************
//  703  * @fn      targetIdentifyReqCB
//  704  *
//  705  * @brief   This callback is called to process an Identify Request command.
//  706  *
//  707  * @param   srcAddr - sender's address
//  708  * @param   pReq - parsed command
//  709  *
//  710  * @return  ZStatus_t
//  711  */

        RSEG BANKED_CODE:CODE:NOROOT(0)
//  712 static ZStatus_t targetIdentifyReqCB( afAddrType_t *srcAddr, zclLLIdentifyReq_t *pReq )
targetIdentifyReqCB:
          CFI Block cfiBlock35 Using cfiCommon0
          CFI Function targetIdentifyReqCB
        CODE
//  713 {
        FUNCALL targetIdentifyReqCB, zll_IsValidTransID
        LOCFRAME ISTACK, 0, STACK
        LOCFRAME PSTACK, 0, STACK
        LOCFRAME XSTACK, 14, STACK
        LOCFRAME IOVERLAY, 0, STATIC
        LOCFRAME DOVERLAY, 0, STATIC
        ARGFRAME ISTACK, 0, STACK
        ARGFRAME PSTACK, 0, STACK
        ARGFRAME XSTACK, 14, STACK
        ARGFRAME IOVERLAY, 0, STATIC
        ARGFRAME DOVERLAY, 0, STATIC
        MOV     A,#-0xa
        LCALL   ?BANKED_ENTER_XDATA
          CFI DPH0 load(1, XDATA, add(CFA_XSP16, literal(-1)))
          CFI DPL0 load(1, XDATA, add(CFA_XSP16, literal(-2)))
          CFI ?BRET_EXT load(1, XDATA, add(CFA_XSP16, literal(-3)))
          CFI ?RET_HIGH load(1, XDATA, add(CFA_XSP16, literal(-4)))
          CFI ?RET_LOW load(1, XDATA, add(CFA_XSP16, literal(-5)))
          CFI R7 load(1, XDATA, add(CFA_XSP16, literal(-6)))
          CFI V1 load(1, XDATA, add(CFA_XSP16, literal(-7)))
          CFI V0 load(1, XDATA, add(CFA_XSP16, literal(-8)))
          CFI VB load(1, XDATA, add(CFA_XSP16, literal(-9)))
          CFI R6 load(1, XDATA, add(CFA_XSP16, literal(-10)))
          CFI CFA_SP SP+0
          CFI CFA_XSP16 add(XSP16, 10)
        ; Saved register size: 10
        ; Auto size: 4
        MOV     A,#-0x4
        LCALL   ?ALLOC_XSTACK8
          CFI CFA_XSP16 add(XSP16, 14)
        MOV     A,R2
        MOV     R6,A
        MOV     A,R3
        MOV     R7,A
        MOV     ?V0 + 0,R4
        MOV     ?V0 + 1,R5
//  714   if ( zll_IsValidTransID( pReq->transID ) == FALSE )
        ; Setup parameters for call to function zll_IsValidTransID
        MOV     DPL,R4
        MOV     DPH,R5
        LCALL   ?XLOAD_R2345
        LCALL   ??zll_IsValidTransID?relay
        MOV     A,R1
        JNZ     ??targetIdentifyReqCB_0
//  715   {
//  716     return ( ZFailure );
        MOV     R1,#0x1
        SJMP    ??targetIdentifyReqCB_1
//  717   }
//  718   // The target should identify itself
//  719   if ( pfnIdentifyCB != NULL )
??targetIdentifyReqCB_0:
        MOV     DPTR,#pfnIdentifyCB
        LCALL   ?Subroutine7 & 0xFFFF
??CrossCallReturnLabel_5:
        JZ      ??targetIdentifyReqCB_2
//  720   {
//  721     zclIdentify_t cmd;
//  722 
//  723     cmd.srcAddr = srcAddr;
        MOV     DPL,?XSP + 0
        MOV     DPH,?XSP + 1
        MOV     A,R6
        MOVX    @DPTR,A
        INC     DPTR
        MOV     A,R7
        MOVX    @DPTR,A
//  724 
//  725     // Values of the Identify Duration field:
//  726     // - Exit identify mode: 0x0000
//  727     // - Length of time to remain in identify mode: 0x0001-0xfffe
//  728     // - Remain in identify mode for a default time known by the receiver: 0xffff
//  729     if ( pReq->IdDuration == 0xffff )
        MOV     DPL,?V0 + 0
        MOV     DPH,?V0 + 1
        INC     DPTR
        INC     DPTR
        INC     DPTR
        INC     DPTR
        LCALL   ?Subroutine9 & 0xFFFF
??CrossCallReturnLabel_6:
        MOV     A,#-0x1
        XRL     A,R0
        JNZ     ??targetIdentifyReqCB_3
        MOV     A,#-0x1
        XRL     A,R1
??targetIdentifyReqCB_3:
        JNZ     ??targetIdentifyReqCB_4
//  730     {
//  731       cmd.identifyTime = ZLL_DEFAULT_IDENTIFY_TIME;
        MOV     A,#0x2
        LCALL   ?XSTACK_DISP0_8
        MOV     A,#0x3
        MOVX    @DPTR,A
        INC     DPTR
        CLR     A
        SJMP    ??targetIdentifyReqCB_5
//  732     }
//  733     else
//  734     {
//  735       cmd.identifyTime = pReq->IdDuration;
??targetIdentifyReqCB_4:
        MOV     A,#0x2
        LCALL   ?XSTACK_DISP0_8
        MOV     A,R0
        MOVX    @DPTR,A
        INC     DPTR
        MOV     A,R1
??targetIdentifyReqCB_5:
        MOVX    @DPTR,A
//  736     }
//  737 
//  738     (*pfnIdentifyCB)( &cmd );
        ; Setup parameters for indirect call
        MOV     DPL,?XSP + 0
        MOV     DPH,?XSP + 1
        MOV     R2,DPL
        MOV     R3,DPH
        MOV     DPTR,#pfnIdentifyCB
        LCALL   ?Subroutine10 & 0xFFFF
//  739   }
??CrossCallReturnLabel_21:
        LCALL   ?CALL_IND
//  740 
//  741   return ( ZSuccess );
??targetIdentifyReqCB_2:
        MOV     R1,#0x0
??targetIdentifyReqCB_1:
        MOV     A,#0x4
        LCALL   ?DEALLOC_XSTACK8
          CFI CFA_XSP16 add(XSP16, 10)
        LJMP    ?Subroutine2 & 0xFFFF
          CFI EndBlock cfiBlock35
//  742 }
//  743 
//  744 /*********************************************************************
//  745  * @fn      targetResetToFNReqCB
//  746  *
//  747  * @brief   This callback is called to process a Reset to Factory New
//  748  *          Request command.
//  749  *
//  750  * @param   srcAddr - sender's address
//  751  * @param   pReq - parsed command
//  752  *
//  753  * @return  ZStatus_t
//  754  */

        RSEG BANKED_CODE:CODE:NOROOT(0)
//  755 static ZStatus_t targetResetToFNReqCB( afAddrType_t *srcAddr, zclLLResetToFNReq_t *pReq )
targetResetToFNReqCB:
          CFI Block cfiBlock36 Using cfiCommon0
          CFI Function targetResetToFNReqCB
        CODE
//  756 {
        FUNCALL targetResetToFNReqCB, zll_IsValidTransID
        LOCFRAME ISTACK, 2, STACK
        LOCFRAME PSTACK, 0, STACK
        LOCFRAME XSTACK, 0, STACK
        LOCFRAME IOVERLAY, 0, STATIC
        LOCFRAME DOVERLAY, 0, STATIC
        ARGFRAME ISTACK, 2, STACK
        ARGFRAME PSTACK, 0, STACK
        ARGFRAME XSTACK, 0, STACK
        ARGFRAME IOVERLAY, 0, STATIC
        ARGFRAME DOVERLAY, 0, STATIC
        FUNCALL targetResetToFNReqCB, zll_IsFactoryNew
        LOCFRAME ISTACK, 2, STACK
        LOCFRAME PSTACK, 0, STACK
        LOCFRAME XSTACK, 0, STACK
        LOCFRAME IOVERLAY, 0, STATIC
        LOCFRAME DOVERLAY, 0, STATIC
        ARGFRAME ISTACK, 2, STACK
        ARGFRAME PSTACK, 0, STACK
        ARGFRAME XSTACK, 0, STACK
        ARGFRAME IOVERLAY, 0, STATIC
        ARGFRAME DOVERLAY, 0, STATIC
        FUNCALL targetResetToFNReqCB, osal_set_event
        LOCFRAME ISTACK, 2, STACK
        LOCFRAME PSTACK, 0, STACK
        LOCFRAME XSTACK, 0, STACK
        LOCFRAME IOVERLAY, 0, STATIC
        LOCFRAME DOVERLAY, 0, STATIC
        ARGFRAME ISTACK, 2, STACK
        ARGFRAME PSTACK, 0, STACK
        ARGFRAME XSTACK, 0, STACK
        ARGFRAME IOVERLAY, 0, STATIC
        ARGFRAME DOVERLAY, 0, STATIC
        PUSH    DPL
          CFI DPL0 Frame(CFA_SP, 4)
          CFI CFA_SP SP+-4
        PUSH    DPH
          CFI DPH0 Frame(CFA_SP, 5)
          CFI CFA_SP SP+-5
        ; Saved register size: 2
        ; Auto size: 0
//  757   // If factory new, discard the request
//  758   if ( ( zll_IsValidTransID( pReq->transID ) == FALSE ) || ( zll_IsFactoryNew() ) )
        ; Setup parameters for call to function zll_IsValidTransID
        MOV     DPL,R4
        MOV     DPH,R5
        LCALL   ?XLOAD_R2345
        LCALL   ??zll_IsValidTransID?relay
        MOV     A,R1
        JZ      ??targetResetToFNReqCB_0
        ; Setup parameters for call to function zll_IsFactoryNew
        LCALL   ??zll_IsFactoryNew?relay
        MOV     A,R1
        JZ      ??targetResetToFNReqCB_1
//  759   {
//  760     return ( ZFailure );
??targetResetToFNReqCB_0:
        MOV     R1,#0x1
        SJMP    ??targetResetToFNReqCB_2
//  761   }
//  762 
//  763   osal_set_event( zllTarget_TaskID, ZLL_RESET_TO_FN_EVT );
??targetResetToFNReqCB_1:
        ; Setup parameters for call to function osal_set_event
        MOV     R2,#0x4
        MOV     R3,#0x0
        MOV     DPTR,#zllTarget_TaskID
        MOVX    A,@DPTR
        MOV     R1,A
        LCALL   ??osal_set_event?relay
//  764 
//  765   return ( ZSuccess );
        MOV     R1,#0x0
          CFI EndBlock cfiBlock36
??targetResetToFNReqCB_2:
        REQUIRE ?Subroutine0
        ; // Fall through to label ?Subroutine0
//  766 }

        RSEG BANKED_CODE:CODE:NOROOT(0)
?Subroutine0:
          CFI Block cfiBlock37 Using cfiCommon0
          CFI NoFunction
          CFI CFA_SP SP+-5
          CFI DPL0 Frame(CFA_SP, 4)
          CFI DPH0 Frame(CFA_SP, 5)
        POP     DPH
          CFI CFA_SP SP+-4
          CFI DPH0 SameValue
        POP     DPL
          CFI CFA_SP SP+-3
          CFI DPL0 SameValue
        LJMP    ?BRET
          CFI EndBlock cfiBlock37
//  767 
//  768 /*********************************************************************
//  769  * @fn      targetNwkStartReqCB
//  770  *
//  771  * @brief   This callback is called to process a Network Start Request command.
//  772  *
//  773  * @param   srcAddr - sender's address
//  774  * @param   pReq - parsed command
//  775  * @param   seqNum - command sequence number
//  776  *
//  777  * @return  ZStatus_t
//  778  */

        RSEG BANKED_CODE:CODE:NOROOT(0)
//  779 static ZStatus_t targetNwkStartReqCB( afAddrType_t *srcAddr, zclLLNwkStartReq_t *pReq, uint8 seqNum )
targetNwkStartReqCB:
          CFI Block cfiBlock38 Using cfiCommon0
          CFI Function targetNwkStartReqCB
        CODE
//  780 {
        FUNCALL targetNwkStartReqCB, zll_IsValidTransID
        LOCFRAME ISTACK, 0, STACK
        LOCFRAME PSTACK, 0, STACK
        LOCFRAME XSTACK, 11, STACK
        LOCFRAME IOVERLAY, 0, STATIC
        LOCFRAME DOVERLAY, 0, STATIC
        ARGFRAME ISTACK, 0, STACK
        ARGFRAME PSTACK, 0, STACK
        ARGFRAME XSTACK, 11, STACK
        ARGFRAME IOVERLAY, 0, STATIC
        ARGFRAME DOVERLAY, 0, STATIC
        FUNCALL targetNwkStartReqCB, osal_set_event
        LOCFRAME ISTACK, 0, STACK
        LOCFRAME PSTACK, 0, STACK
        LOCFRAME XSTACK, 11, STACK
        LOCFRAME IOVERLAY, 0, STATIC
        LOCFRAME DOVERLAY, 0, STATIC
        ARGFRAME ISTACK, 0, STACK
        ARGFRAME PSTACK, 0, STACK
        ARGFRAME XSTACK, 11, STACK
        ARGFRAME IOVERLAY, 0, STATIC
        ARGFRAME DOVERLAY, 0, STATIC
        FUNCALL targetNwkStartReqCB, targetSendNwkStartRsp
        LOCFRAME ISTACK, 0, STACK
        LOCFRAME PSTACK, 0, STACK
        LOCFRAME XSTACK, 17, STACK
        LOCFRAME IOVERLAY, 0, STATIC
        LOCFRAME DOVERLAY, 0, STATIC
        ARGFRAME ISTACK, 0, STACK
        ARGFRAME PSTACK, 0, STACK
        ARGFRAME XSTACK, 17, STACK
        ARGFRAME IOVERLAY, 0, STATIC
        ARGFRAME DOVERLAY, 0, STATIC
        MOV     A,#-0xb
        LCALL   ?BANKED_ENTER_XDATA
          CFI DPH0 load(1, XDATA, add(CFA_XSP16, literal(-1)))
          CFI DPL0 load(1, XDATA, add(CFA_XSP16, literal(-2)))
          CFI ?BRET_EXT load(1, XDATA, add(CFA_XSP16, literal(-3)))
          CFI ?RET_HIGH load(1, XDATA, add(CFA_XSP16, literal(-4)))
          CFI ?RET_LOW load(1, XDATA, add(CFA_XSP16, literal(-5)))
          CFI R7 load(1, XDATA, add(CFA_XSP16, literal(-6)))
          CFI V2 load(1, XDATA, add(CFA_XSP16, literal(-7)))
          CFI V1 load(1, XDATA, add(CFA_XSP16, literal(-8)))
          CFI V0 load(1, XDATA, add(CFA_XSP16, literal(-9)))
          CFI VB load(1, XDATA, add(CFA_XSP16, literal(-10)))
          CFI R6 load(1, XDATA, add(CFA_XSP16, literal(-11)))
          CFI CFA_SP SP+0
          CFI CFA_XSP16 add(XSP16, 11)
        ; Saved register size: 11
        ; Auto size: 0
        MOV     ?V0 + 0,R2
        MOV     ?V0 + 1,R3
        MOV     A,R4
        MOV     R6,A
        MOV     A,R5
        MOV     R7,A
        MOV     ?V0 + 2,R1
//  781   if ( zll_IsValidTransID( pReq->transID ) == FALSE )
        ; Setup parameters for call to function zll_IsValidTransID
        MOV     DPL,R6
        MOV     DPH,R7
        LCALL   ?XLOAD_R2345
        LCALL   ??zll_IsValidTransID?relay
        MOV     A,R1
        JNZ     ??targetNwkStartReqCB_0
//  782   {
//  783     return ( ZFailure );
        MOV     R1,#0x1
        SJMP    ??targetNwkStartReqCB_1
//  784   }
//  785   dstAddr = *srcAddr;
??targetNwkStartReqCB_0:
        MOV     DPL,?V0 + 0
        MOV     DPH,?V0 + 1
        MOV     R4,#dstAddr & 0xff
        MOV     R5,#(dstAddr >> 8) & 0xff
        MOV     A,#0xc
        LCALL   ?MOVE_LONG8_XDATA_XDATA
//  786   dstAddr.panId = 0xFFFF;
        LCALL   ?Subroutine5 & 0xFFFF
//  787 
//  788   if ( pDiscoveredNwkParamList == NULL )
??CrossCallReturnLabel_0:
        JNZ     ??targetNwkStartReqCB_2
//  789   {
//  790     // Save the request for later
//  791     rxReq.nwkStartReq = *pReq;
        MOV     DPL,R6
        MOV     DPH,R7
        MOV     R4,#rxReq & 0xff
        MOV     R5,#(rxReq >> 8) & 0xff
        MOV     A,#0x38
        LCALL   ?MOVE_LONG8_XDATA_XDATA
//  792     rxSeqNum = seqNum;
        MOV     A,?V0 + 2
        MOV     DPTR,#rxSeqNum
        MOVX    @DPTR,A
//  793 
//  794     osal_set_event( zllTarget_TaskID, ZLL_NWK_START_EVT );
        ; Setup parameters for call to function osal_set_event
        MOV     R2,#0x40
        MOV     R3,#0x0
        MOV     DPTR,#zllTarget_TaskID
        MOVX    A,@DPTR
        MOV     R1,A
        LCALL   ??osal_set_event?relay
        SJMP    ??targetNwkStartReqCB_3
//  795   }
//  796   else
//  797   {
//  798     targetSendNwkStartRsp( &dstAddr, pReq->transID, ZLL_NETWORK_START_RSP_STATUS_FAILURE,
//  799                            NULL, 0, seqNum );
??targetNwkStartReqCB_2:
        ; Setup parameters for call to function targetSendNwkStartRsp
        MOV     A,?V0 + 2
        MOV     ?V0 + 0,A
        MOV     R0,#?V0 + 0
        LCALL   ?PUSH_XSTACK_I_ONE
          CFI CFA_XSP16 add(XSP16, 12)
        MOV     ?V0 + 0,#0x0
        MOV     R0,#?V0 + 0
        LCALL   ?PUSH_XSTACK_I_ONE
          CFI CFA_XSP16 add(XSP16, 13)
        MOV     DPL,R6
        MOV     DPH,R7
        LCALL   ?PUSH_XSTACK8_X_FOUR
          CFI CFA_XSP16 add(XSP16, 17)
        MOV     R4,#0x0
        MOV     R5,#0x0
        MOV     R1,#0x1
        MOV     R2,#dstAddr & 0xff
        MOV     R3,#(dstAddr >> 8) & 0xff
        LCALL   ??targetSendNwkStartRsp?relay
        MOV     A,#0x6
        LCALL   ?DEALLOC_XSTACK8
          CFI CFA_XSP16 add(XSP16, 11)
//  800   }
//  801 
//  802   return ( ZSuccess );
??targetNwkStartReqCB_3:
        MOV     R1,#0x0
??targetNwkStartReqCB_1:
        LJMP    ?Subroutine4 & 0xFFFF
          CFI EndBlock cfiBlock38
//  803 }
//  804 
//  805 /*********************************************************************
//  806  * @fn      targetNwkJoinRtrReqCB
//  807  *
//  808  * @brief   This callback is called to process a Network Join Router
//  809  *          Request command.
//  810  *
//  811  * @param   srcAddr - sender's address
//  812  * @param   pReq - parsed command
//  813  * @param   seqNum - command sequence number
//  814  *
//  815  * @return  ZStatus_t
//  816  */

        RSEG BANKED_CODE:CODE:NOROOT(0)
//  817 static ZStatus_t targetNwkJoinRtrReqCB( afAddrType_t *srcAddr, zclLLNwkJoinReq_t *pReq, uint8 seqNum )
targetNwkJoinRtrReqCB:
          CFI Block cfiBlock39 Using cfiCommon0
          CFI Function targetNwkJoinRtrReqCB
        CODE
//  818 {
        FUNCALL targetNwkJoinRtrReqCB, zll_IsValidTransID
        LOCFRAME ISTACK, 0, STACK
        LOCFRAME PSTACK, 0, STACK
        LOCFRAME XSTACK, 16, STACK
        LOCFRAME IOVERLAY, 0, STATIC
        LOCFRAME DOVERLAY, 0, STATIC
        ARGFRAME ISTACK, 0, STACK
        ARGFRAME PSTACK, 0, STACK
        ARGFRAME XSTACK, 16, STACK
        ARGFRAME IOVERLAY, 0, STATIC
        ARGFRAME DOVERLAY, 0, STATIC
        FUNCALL targetNwkJoinRtrReqCB, osal_set_event
        LOCFRAME ISTACK, 0, STACK
        LOCFRAME PSTACK, 0, STACK
        LOCFRAME XSTACK, 16, STACK
        LOCFRAME IOVERLAY, 0, STATIC
        LOCFRAME DOVERLAY, 0, STATIC
        ARGFRAME ISTACK, 0, STACK
        ARGFRAME PSTACK, 0, STACK
        ARGFRAME XSTACK, 16, STACK
        ARGFRAME IOVERLAY, 0, STATIC
        ARGFRAME DOVERLAY, 0, STATIC
        FUNCALL targetNwkJoinRtrReqCB, zclLL_Send_NwkJoinRsp
        LOCFRAME ISTACK, 0, STACK
        LOCFRAME PSTACK, 0, STACK
        LOCFRAME XSTACK, 18, STACK
        LOCFRAME IOVERLAY, 0, STATIC
        LOCFRAME DOVERLAY, 0, STATIC
        ARGFRAME ISTACK, 0, STACK
        ARGFRAME PSTACK, 0, STACK
        ARGFRAME XSTACK, 18, STACK
        ARGFRAME IOVERLAY, 0, STATIC
        ARGFRAME DOVERLAY, 0, STATIC
        MOV     A,#-0xb
        LCALL   ?BANKED_ENTER_XDATA
          CFI DPH0 load(1, XDATA, add(CFA_XSP16, literal(-1)))
          CFI DPL0 load(1, XDATA, add(CFA_XSP16, literal(-2)))
          CFI ?BRET_EXT load(1, XDATA, add(CFA_XSP16, literal(-3)))
          CFI ?RET_HIGH load(1, XDATA, add(CFA_XSP16, literal(-4)))
          CFI ?RET_LOW load(1, XDATA, add(CFA_XSP16, literal(-5)))
          CFI R7 load(1, XDATA, add(CFA_XSP16, literal(-6)))
          CFI V2 load(1, XDATA, add(CFA_XSP16, literal(-7)))
          CFI V1 load(1, XDATA, add(CFA_XSP16, literal(-8)))
          CFI V0 load(1, XDATA, add(CFA_XSP16, literal(-9)))
          CFI VB load(1, XDATA, add(CFA_XSP16, literal(-10)))
          CFI R6 load(1, XDATA, add(CFA_XSP16, literal(-11)))
          CFI CFA_SP SP+0
          CFI CFA_XSP16 add(XSP16, 11)
        ; Saved register size: 11
        ; Auto size: 5
        MOV     A,#-0x5
        LCALL   ?ALLOC_XSTACK8
          CFI CFA_XSP16 add(XSP16, 16)
        MOV     ?V0 + 0,R2
        MOV     ?V0 + 1,R3
        MOV     A,R4
        MOV     R6,A
        MOV     A,R5
        MOV     R7,A
        MOV     ?V0 + 2,R1
//  819   zclLLNwkJoinRsp_t rsp;
//  820   if ( zll_IsValidTransID( pReq->transID ) == FALSE )
        ; Setup parameters for call to function zll_IsValidTransID
        MOV     DPL,R6
        MOV     DPH,R7
        LCALL   ?XLOAD_R2345
        LCALL   ??zll_IsValidTransID?relay
        MOV     A,R1
        JNZ     ??targetNwkJoinRtrReqCB_0
//  821   {
//  822     return ( ZFailure );
        MOV     R1,#0x1
        SJMP    ??targetNwkJoinRtrReqCB_1
//  823   }
//  824 
//  825   dstAddr = *srcAddr;
??targetNwkJoinRtrReqCB_0:
        MOV     DPL,?V0 + 0
        MOV     DPH,?V0 + 1
        MOV     R4,#dstAddr & 0xff
        MOV     R5,#(dstAddr >> 8) & 0xff
        MOV     A,#0xc
        LCALL   ?MOVE_LONG8_XDATA_XDATA
//  826   dstAddr.panId = 0xFFFF;
        LCALL   ?Subroutine5 & 0xFFFF
//  827 
//  828   if ( pDiscoveredNwkParamList == NULL )
??CrossCallReturnLabel_1:
        JNZ     ??targetNwkJoinRtrReqCB_2
//  829   {
//  830     // Save the request for later
//  831     rxReq.nwkJoinReq = *pReq;
        MOV     DPL,R6
        MOV     DPH,R7
        MOV     R4,#rxReq & 0xff
        MOV     R5,#(rxReq >> 8) & 0xff
        MOV     A,#0x2f
        LCALL   ?MOVE_LONG8_XDATA_XDATA
//  832 
//  833     osal_set_event( zllTarget_TaskID, ZLL_ROUTER_JOIN_EVT );
        ; Setup parameters for call to function osal_set_event
        MOV     R2,#0x2
        MOV     R3,A
        MOV     DPTR,#zllTarget_TaskID
        MOVX    A,@DPTR
        MOV     R1,A
        LCALL   ??osal_set_event?relay
//  834 
//  835     rsp.status = ZLL_NETWORK_JOIN_RSP_STATUS_SUCCESS;
        MOV     A,#0x4
        LCALL   ?XSTACK_DISP0_8
        CLR     A
        SJMP    ??targetNwkJoinRtrReqCB_3
//  836   }
//  837   else
//  838   {
//  839     rsp.status = ZLL_NETWORK_JOIN_RSP_STATUS_FAILURE;
??targetNwkJoinRtrReqCB_2:
        MOV     A,#0x4
        LCALL   ?XSTACK_DISP0_8
        MOV     A,#0x1
??targetNwkJoinRtrReqCB_3:
        MOVX    @DPTR,A
//  840   }
//  841 
//  842   rsp.transID = pReq->transID;
        MOV     DPL,R6
        MOV     DPH,R7
        LCALL   ?XLOAD_R2345
        MOV     DPL,?XSP + 0
        MOV     DPH,?XSP + 1
        LCALL   ?XSTORE_R2345
//  843 
//  844   // Send a response back
//  845   zclLL_Send_NwkJoinRtrRsp( ZLL_INTERNAL_ENDPOINT, &dstAddr, &rsp, seqNum );
        ; Setup parameters for call to function zclLL_Send_NwkJoinRsp
        MOV     A,?V0 + 2
        MOV     ?V0 + 0,A
        MOV     R0,#?V0 + 0
        LCALL   ?PUSH_XSTACK_I_ONE
          CFI CFA_XSP16 add(XSP16, 17)
        MOV     ?V0 + 0,#0x13
        MOV     R0,#?V0 + 0
        LCALL   ?PUSH_XSTACK_I_ONE
          CFI CFA_XSP16 add(XSP16, 18)
        MOV     A,#0x2
        LCALL   ?XSTACK_DISP0_8
        MOV     R4,DPL
        MOV     R5,DPH
        MOV     R2,#dstAddr & 0xff
        MOV     R3,#(dstAddr >> 8) & 0xff
        MOV     R1,#0xd
        LCALL   ??zclLL_Send_NwkJoinRsp?relay
        MOV     A,#0x2
        LCALL   ?DEALLOC_XSTACK8
          CFI CFA_XSP16 add(XSP16, 16)
//  846 
//  847   return ( ZSuccess );
        MOV     R1,#0x0
??targetNwkJoinRtrReqCB_1:
        MOV     A,#0x5
        LCALL   ?DEALLOC_XSTACK8
          CFI CFA_XSP16 add(XSP16, 11)
        LJMP    ?Subroutine4 & 0xFFFF
          CFI EndBlock cfiBlock39
//  848 }

        RSEG BANKED_CODE:CODE:NOROOT(0)
?Subroutine5:
          CFI Block cfiCond40 Using cfiCommon0
          CFI Function targetNwkStartReqCB
          CFI Conditional ??CrossCallReturnLabel_0
          CFI R6 load(1, XDATA, add(CFA_XSP16, literal(-11)))
          CFI VB load(1, XDATA, add(CFA_XSP16, literal(-10)))
          CFI V0 load(1, XDATA, add(CFA_XSP16, literal(-9)))
          CFI V1 load(1, XDATA, add(CFA_XSP16, literal(-8)))
          CFI V2 load(1, XDATA, add(CFA_XSP16, literal(-7)))
          CFI R7 load(1, XDATA, add(CFA_XSP16, literal(-6)))
          CFI ?RET_LOW load(1, XDATA, add(CFA_XSP16, literal(-5)))
          CFI ?RET_HIGH load(1, XDATA, add(CFA_XSP16, literal(-4)))
          CFI ?BRET_EXT load(1, XDATA, add(CFA_XSP16, literal(-3)))
          CFI DPL0 load(1, XDATA, add(CFA_XSP16, literal(-2)))
          CFI DPH0 load(1, XDATA, add(CFA_XSP16, literal(-1)))
          CFI CFA_SP SP+0
          CFI CFA_XSP16 add(XSP16, 11)
          CFI Block cfiCond41 Using cfiCommon0
          CFI (cfiCond41) Function targetNwkJoinRtrReqCB
          CFI (cfiCond41) Conditional ??CrossCallReturnLabel_1
          CFI (cfiCond41) R6 load(1, XDATA, add(CFA_XSP16, literal(-11)))
          CFI (cfiCond41) VB load(1, XDATA, add(CFA_XSP16, literal(-10)))
          CFI (cfiCond41) V0 load(1, XDATA, add(CFA_XSP16, literal(-9)))
          CFI (cfiCond41) V1 load(1, XDATA, add(CFA_XSP16, literal(-8)))
          CFI (cfiCond41) V2 load(1, XDATA, add(CFA_XSP16, literal(-7)))
          CFI (cfiCond41) R7 load(1, XDATA, add(CFA_XSP16, literal(-6)))
          CFI (cfiCond41) ?RET_LOW load(1, XDATA, add(CFA_XSP16, literal(-5)))
          CFI (cfiCond41) ?RET_HIGH load(1, XDATA, add(CFA_XSP16, literal(-4)))
          CFI (cfiCond41) ?BRET_EXT load(1, XDATA, add(CFA_XSP16, literal(-3)))
          CFI (cfiCond41) DPL0 load(1, XDATA, add(CFA_XSP16, literal(-2)))
          CFI (cfiCond41) DPH0 load(1, XDATA, add(CFA_XSP16, literal(-1)))
          CFI (cfiCond41) CFA_SP SP+0
          CFI (cfiCond41) CFA_XSP16 add(XSP16, 16)
          CFI Block cfiPicker42 Using cfiCommon1
          CFI (cfiPicker42) NoFunction
          CFI (cfiPicker42) Picker
        MOV     DPTR,#dstAddr + 10
        MOV     A,#-0x1
        MOVX    @DPTR,A
        INC     DPTR
        MOVX    @DPTR,A
        MOV     DPTR,#pDiscoveredNwkParamList
        LCALL   ?Subroutine9 & 0xFFFF
??CrossCallReturnLabel_8:
        MOV     A,R0
        ORL     A,R1
        RET
          CFI EndBlock cfiCond40
          CFI EndBlock cfiCond41
          CFI EndBlock cfiPicker42

        RSEG BANKED_CODE:CODE:NOROOT(0)
?Subroutine9:
          CFI Block cfiCond43 Using cfiCommon0
          CFI Function zllTarget_event_loop
          CFI Conditional ??CrossCallReturnLabel_9, ??CrossCallReturnLabel_2
          CFI R6 load(1, XDATA, add(CFA_XSP16, literal(-16)))
          CFI VB load(1, XDATA, add(CFA_XSP16, literal(-15)))
          CFI V0 load(1, XDATA, add(CFA_XSP16, literal(-14)))
          CFI V1 load(1, XDATA, add(CFA_XSP16, literal(-13)))
          CFI V2 load(1, XDATA, add(CFA_XSP16, literal(-12)))
          CFI V3 load(1, XDATA, add(CFA_XSP16, literal(-11)))
          CFI V4 load(1, XDATA, add(CFA_XSP16, literal(-10)))
          CFI V5 load(1, XDATA, add(CFA_XSP16, literal(-9)))
          CFI V6 load(1, XDATA, add(CFA_XSP16, literal(-8)))
          CFI V7 load(1, XDATA, add(CFA_XSP16, literal(-7)))
          CFI R7 load(1, XDATA, add(CFA_XSP16, literal(-6)))
          CFI ?RET_LOW load(1, XDATA, add(CFA_XSP16, literal(-5)))
          CFI ?RET_HIGH load(1, XDATA, add(CFA_XSP16, literal(-4)))
          CFI ?BRET_EXT load(1, XDATA, add(CFA_XSP16, literal(-3)))
          CFI DPL0 load(1, XDATA, add(CFA_XSP16, literal(-2)))
          CFI DPH0 load(1, XDATA, add(CFA_XSP16, literal(-1)))
          CFI CFA_SP SP+0
          CFI CFA_XSP16 add(XSP16, 16)
          CFI Block cfiCond44 Using cfiCommon0
          CFI (cfiCond44) Function zllTarget_event_loop
          CFI (cfiCond44) Conditional ??CrossCallReturnLabel_9, ??CrossCallReturnLabel_3
          CFI (cfiCond44) R6 load(1, XDATA, add(CFA_XSP16, literal(-16)))
          CFI (cfiCond44) VB load(1, XDATA, add(CFA_XSP16, literal(-15)))
          CFI (cfiCond44) V0 load(1, XDATA, add(CFA_XSP16, literal(-14)))
          CFI (cfiCond44) V1 load(1, XDATA, add(CFA_XSP16, literal(-13)))
          CFI (cfiCond44) V2 load(1, XDATA, add(CFA_XSP16, literal(-12)))
          CFI (cfiCond44) V3 load(1, XDATA, add(CFA_XSP16, literal(-11)))
          CFI (cfiCond44) V4 load(1, XDATA, add(CFA_XSP16, literal(-10)))
          CFI (cfiCond44) V5 load(1, XDATA, add(CFA_XSP16, literal(-9)))
          CFI (cfiCond44) V6 load(1, XDATA, add(CFA_XSP16, literal(-8)))
          CFI (cfiCond44) V7 load(1, XDATA, add(CFA_XSP16, literal(-7)))
          CFI (cfiCond44) R7 load(1, XDATA, add(CFA_XSP16, literal(-6)))
          CFI (cfiCond44) ?RET_LOW load(1, XDATA, add(CFA_XSP16, literal(-5)))
          CFI (cfiCond44) ?RET_HIGH load(1, XDATA, add(CFA_XSP16, literal(-4)))
          CFI (cfiCond44) ?BRET_EXT load(1, XDATA, add(CFA_XSP16, literal(-3)))
          CFI (cfiCond44) DPL0 load(1, XDATA, add(CFA_XSP16, literal(-2)))
          CFI (cfiCond44) DPH0 load(1, XDATA, add(CFA_XSP16, literal(-1)))
          CFI (cfiCond44) CFA_SP SP+0
          CFI (cfiCond44) CFA_XSP16 add(XSP16, 16)
          CFI Block cfiCond45 Using cfiCommon0
          CFI (cfiCond45) Function targetScanReqCB
          CFI (cfiCond45) Conditional ??CrossCallReturnLabel_9, ??CrossCallReturnLabel_4
          CFI (cfiCond45) R6 load(1, XDATA, add(CFA_XSP16, literal(-12)))
          CFI (cfiCond45) VB load(1, XDATA, add(CFA_XSP16, literal(-11)))
          CFI (cfiCond45) V0 load(1, XDATA, add(CFA_XSP16, literal(-10)))
          CFI (cfiCond45) V1 load(1, XDATA, add(CFA_XSP16, literal(-9)))
          CFI (cfiCond45) V2 load(1, XDATA, add(CFA_XSP16, literal(-8)))
          CFI (cfiCond45) V3 load(1, XDATA, add(CFA_XSP16, literal(-7)))
          CFI (cfiCond45) R7 load(1, XDATA, add(CFA_XSP16, literal(-6)))
          CFI (cfiCond45) ?RET_LOW load(1, XDATA, add(CFA_XSP16, literal(-5)))
          CFI (cfiCond45) ?RET_HIGH load(1, XDATA, add(CFA_XSP16, literal(-4)))
          CFI (cfiCond45) ?BRET_EXT load(1, XDATA, add(CFA_XSP16, literal(-3)))
          CFI (cfiCond45) DPL0 load(1, XDATA, add(CFA_XSP16, literal(-2)))
          CFI (cfiCond45) DPH0 load(1, XDATA, add(CFA_XSP16, literal(-1)))
          CFI (cfiCond45) CFA_SP SP+0
          CFI (cfiCond45) CFA_XSP16 add(XSP16, 12)
          CFI Block cfiCond46 Using cfiCommon0
          CFI (cfiCond46) Function targetIdentifyReqCB
          CFI (cfiCond46) Conditional ??CrossCallReturnLabel_9, ??CrossCallReturnLabel_5
          CFI (cfiCond46) R6 load(1, XDATA, add(CFA_XSP16, literal(-10)))
          CFI (cfiCond46) VB load(1, XDATA, add(CFA_XSP16, literal(-9)))
          CFI (cfiCond46) V0 load(1, XDATA, add(CFA_XSP16, literal(-8)))
          CFI (cfiCond46) V1 load(1, XDATA, add(CFA_XSP16, literal(-7)))
          CFI (cfiCond46) R7 load(1, XDATA, add(CFA_XSP16, literal(-6)))
          CFI (cfiCond46) ?RET_LOW load(1, XDATA, add(CFA_XSP16, literal(-5)))
          CFI (cfiCond46) ?RET_HIGH load(1, XDATA, add(CFA_XSP16, literal(-4)))
          CFI (cfiCond46) ?BRET_EXT load(1, XDATA, add(CFA_XSP16, literal(-3)))
          CFI (cfiCond46) DPL0 load(1, XDATA, add(CFA_XSP16, literal(-2)))
          CFI (cfiCond46) DPH0 load(1, XDATA, add(CFA_XSP16, literal(-1)))
          CFI (cfiCond46) CFA_SP SP+0
          CFI (cfiCond46) CFA_XSP16 add(XSP16, 14)
          CFI Block cfiCond47 Using cfiCommon0
          CFI (cfiCond47) Function targetIdentifyReqCB
          CFI (cfiCond47) Conditional ??CrossCallReturnLabel_6
          CFI (cfiCond47) R6 load(1, XDATA, add(CFA_XSP16, literal(-10)))
          CFI (cfiCond47) VB load(1, XDATA, add(CFA_XSP16, literal(-9)))
          CFI (cfiCond47) V0 load(1, XDATA, add(CFA_XSP16, literal(-8)))
          CFI (cfiCond47) V1 load(1, XDATA, add(CFA_XSP16, literal(-7)))
          CFI (cfiCond47) R7 load(1, XDATA, add(CFA_XSP16, literal(-6)))
          CFI (cfiCond47) ?RET_LOW load(1, XDATA, add(CFA_XSP16, literal(-5)))
          CFI (cfiCond47) ?RET_HIGH load(1, XDATA, add(CFA_XSP16, literal(-4)))
          CFI (cfiCond47) ?BRET_EXT load(1, XDATA, add(CFA_XSP16, literal(-3)))
          CFI (cfiCond47) DPL0 load(1, XDATA, add(CFA_XSP16, literal(-2)))
          CFI (cfiCond47) DPH0 load(1, XDATA, add(CFA_XSP16, literal(-1)))
          CFI (cfiCond47) CFA_SP SP+0
          CFI (cfiCond47) CFA_XSP16 add(XSP16, 14)
          CFI Block cfiCond48 Using cfiCommon0
          CFI (cfiCond48) Function targetNwkStartReqCB
          CFI (cfiCond48) Conditional ??CrossCallReturnLabel_8, ??CrossCallReturnLabel_0
          CFI (cfiCond48) R6 load(1, XDATA, add(CFA_XSP16, literal(-11)))
          CFI (cfiCond48) VB load(1, XDATA, add(CFA_XSP16, literal(-10)))
          CFI (cfiCond48) V0 load(1, XDATA, add(CFA_XSP16, literal(-9)))
          CFI (cfiCond48) V1 load(1, XDATA, add(CFA_XSP16, literal(-8)))
          CFI (cfiCond48) V2 load(1, XDATA, add(CFA_XSP16, literal(-7)))
          CFI (cfiCond48) R7 load(1, XDATA, add(CFA_XSP16, literal(-6)))
          CFI (cfiCond48) ?RET_LOW load(1, XDATA, add(CFA_XSP16, literal(-5)))
          CFI (cfiCond48) ?RET_HIGH load(1, XDATA, add(CFA_XSP16, literal(-4)))
          CFI (cfiCond48) ?BRET_EXT load(1, XDATA, add(CFA_XSP16, literal(-3)))
          CFI (cfiCond48) DPL0 load(1, XDATA, add(CFA_XSP16, literal(-2)))
          CFI (cfiCond48) DPH0 load(1, XDATA, add(CFA_XSP16, literal(-1)))
          CFI (cfiCond48) CFA_SP SP+0
          CFI (cfiCond48) CFA_XSP16 add(XSP16, 11)
          CFI Block cfiCond49 Using cfiCommon0
          CFI (cfiCond49) Function targetNwkJoinRtrReqCB
          CFI (cfiCond49) Conditional ??CrossCallReturnLabel_8, ??CrossCallReturnLabel_1
          CFI (cfiCond49) R6 load(1, XDATA, add(CFA_XSP16, literal(-11)))
          CFI (cfiCond49) VB load(1, XDATA, add(CFA_XSP16, literal(-10)))
          CFI (cfiCond49) V0 load(1, XDATA, add(CFA_XSP16, literal(-9)))
          CFI (cfiCond49) V1 load(1, XDATA, add(CFA_XSP16, literal(-8)))
          CFI (cfiCond49) V2 load(1, XDATA, add(CFA_XSP16, literal(-7)))
          CFI (cfiCond49) R7 load(1, XDATA, add(CFA_XSP16, literal(-6)))
          CFI (cfiCond49) ?RET_LOW load(1, XDATA, add(CFA_XSP16, literal(-5)))
          CFI (cfiCond49) ?RET_HIGH load(1, XDATA, add(CFA_XSP16, literal(-4)))
          CFI (cfiCond49) ?BRET_EXT load(1, XDATA, add(CFA_XSP16, literal(-3)))
          CFI (cfiCond49) DPL0 load(1, XDATA, add(CFA_XSP16, literal(-2)))
          CFI (cfiCond49) DPH0 load(1, XDATA, add(CFA_XSP16, literal(-1)))
          CFI (cfiCond49) CFA_SP SP+0
          CFI (cfiCond49) CFA_XSP16 add(XSP16, 16)
          CFI Block cfiCond50 Using cfiCommon0
          CFI (cfiCond50) Function targetNwkUpdateReqCB
          CFI (cfiCond50) Conditional ??CrossCallReturnLabel_7
          CFI (cfiCond50) R6 load(1, XDATA, add(CFA_XSP16, literal(-9)))
          CFI (cfiCond50) VB load(1, XDATA, add(CFA_XSP16, literal(-8)))
          CFI (cfiCond50) V0 load(1, XDATA, add(CFA_XSP16, literal(-7)))
          CFI (cfiCond50) R7 load(1, XDATA, add(CFA_XSP16, literal(-6)))
          CFI (cfiCond50) ?RET_LOW load(1, XDATA, add(CFA_XSP16, literal(-5)))
          CFI (cfiCond50) ?RET_HIGH load(1, XDATA, add(CFA_XSP16, literal(-4)))
          CFI (cfiCond50) ?BRET_EXT load(1, XDATA, add(CFA_XSP16, literal(-3)))
          CFI (cfiCond50) DPL0 load(1, XDATA, add(CFA_XSP16, literal(-2)))
          CFI (cfiCond50) DPH0 load(1, XDATA, add(CFA_XSP16, literal(-1)))
          CFI (cfiCond50) CFA_SP SP+0
          CFI (cfiCond50) CFA_XSP16 add(XSP16, 9)
          CFI Block cfiPicker51 Using cfiCommon1
          CFI (cfiPicker51) NoFunction
          CFI (cfiPicker51) Picker
        MOVX    A,@DPTR
        MOV     R0,A
        INC     DPTR
        MOVX    A,@DPTR
        MOV     R1,A
        RET
          CFI EndBlock cfiCond43
          CFI EndBlock cfiCond44
          CFI EndBlock cfiCond45
          CFI EndBlock cfiCond46
          CFI EndBlock cfiCond47
          CFI EndBlock cfiCond48
          CFI EndBlock cfiCond49
          CFI EndBlock cfiCond50
          CFI EndBlock cfiPicker51
//  849 
//  850 /*********************************************************************
//  851  * @fn      targetNwkUpdateReqCB
//  852  *
//  853  * @brief   This callback is called to process a Network Update Request
//  854  *          command.
//  855  *
//  856  * @param   srcAddr - sender's address
//  857  * @param   pReq - parsed command
//  858  *
//  859  * @return  ZStatus_t
//  860  */

        RSEG BANKED_CODE:CODE:NOROOT(0)
//  861 static ZStatus_t targetNwkUpdateReqCB( afAddrType_t *srcAddr, zclLLNwkUpdateReq_t *pReq )
targetNwkUpdateReqCB:
          CFI Block cfiBlock52 Using cfiCommon0
          CFI Function targetNwkUpdateReqCB
        CODE
//  862 {
        FUNCALL targetNwkUpdateReqCB, zll_IsValidTransID
        LOCFRAME ISTACK, 0, STACK
        LOCFRAME PSTACK, 0, STACK
        LOCFRAME XSTACK, 9, STACK
        LOCFRAME IOVERLAY, 0, STATIC
        LOCFRAME DOVERLAY, 0, STATIC
        ARGFRAME ISTACK, 0, STACK
        ARGFRAME PSTACK, 0, STACK
        ARGFRAME XSTACK, 9, STACK
        ARGFRAME IOVERLAY, 0, STATIC
        ARGFRAME DOVERLAY, 0, STATIC
        FUNCALL targetNwkUpdateReqCB, sAddrExtCmp
        LOCFRAME ISTACK, 0, STACK
        LOCFRAME PSTACK, 0, STACK
        LOCFRAME XSTACK, 9, STACK
        LOCFRAME IOVERLAY, 0, STATIC
        LOCFRAME DOVERLAY, 0, STATIC
        ARGFRAME ISTACK, 0, STACK
        ARGFRAME PSTACK, 0, STACK
        ARGFRAME XSTACK, 9, STACK
        ARGFRAME IOVERLAY, 0, STATIC
        ARGFRAME DOVERLAY, 0, STATIC
        FUNCALL targetNwkUpdateReqCB, zll_NewNwkUpdateId
        LOCFRAME ISTACK, 0, STACK
        LOCFRAME PSTACK, 0, STACK
        LOCFRAME XSTACK, 9, STACK
        LOCFRAME IOVERLAY, 0, STATIC
        LOCFRAME DOVERLAY, 0, STATIC
        ARGFRAME ISTACK, 0, STACK
        ARGFRAME PSTACK, 0, STACK
        ARGFRAME XSTACK, 9, STACK
        ARGFRAME IOVERLAY, 0, STATIC
        ARGFRAME DOVERLAY, 0, STATIC
        FUNCALL targetNwkUpdateReqCB, zll_ProcessNwkUpdate
        LOCFRAME ISTACK, 0, STACK
        LOCFRAME PSTACK, 0, STACK
        LOCFRAME XSTACK, 9, STACK
        LOCFRAME IOVERLAY, 0, STATIC
        LOCFRAME DOVERLAY, 0, STATIC
        ARGFRAME ISTACK, 0, STACK
        ARGFRAME PSTACK, 0, STACK
        ARGFRAME XSTACK, 9, STACK
        ARGFRAME IOVERLAY, 0, STATIC
        ARGFRAME DOVERLAY, 0, STATIC
        MOV     A,#-0x9
        LCALL   ?BANKED_ENTER_XDATA
          CFI DPH0 load(1, XDATA, add(CFA_XSP16, literal(-1)))
          CFI DPL0 load(1, XDATA, add(CFA_XSP16, literal(-2)))
          CFI ?BRET_EXT load(1, XDATA, add(CFA_XSP16, literal(-3)))
          CFI ?RET_HIGH load(1, XDATA, add(CFA_XSP16, literal(-4)))
          CFI ?RET_LOW load(1, XDATA, add(CFA_XSP16, literal(-5)))
          CFI R7 load(1, XDATA, add(CFA_XSP16, literal(-6)))
          CFI V0 load(1, XDATA, add(CFA_XSP16, literal(-7)))
          CFI VB load(1, XDATA, add(CFA_XSP16, literal(-8)))
          CFI R6 load(1, XDATA, add(CFA_XSP16, literal(-9)))
          CFI CFA_SP SP+0
          CFI CFA_XSP16 add(XSP16, 9)
        ; Saved register size: 9
        ; Auto size: 0
        MOV     A,R4
        MOV     R6,A
        MOV     A,R5
        MOV     R7,A
//  863   if ( zll_IsValidTransID( pReq->transID ) == FALSE )
        ; Setup parameters for call to function zll_IsValidTransID
        MOV     DPL,R6
        MOV     DPH,R7
        LCALL   ?XLOAD_R2345
        LCALL   ??zll_IsValidTransID?relay
        MOV     A,R1
        JNZ     ??targetNwkUpdateReqCB_0
//  864   {
//  865     return ( ZFailure );
        MOV     R1,#0x1
        SJMP    ??targetNwkUpdateReqCB_1
//  866   }
//  867   // Discard the request if the Extended PAN ID and PAN ID are not
//  868   // identical with our corresponding stored values
//  869   if ( ZLL_SAME_NWK( pReq->PANID, pReq->extendedPANID ) )
??targetNwkUpdateReqCB_0:
        MOV     DPTR,#_NIB + 33
        LCALL   ?Subroutine9 & 0xFFFF
??CrossCallReturnLabel_7:
        MOV     A,R6
        ADD     A,#0xe
        LCALL   ?Subroutine8 & 0xFFFF
??CrossCallReturnLabel_15:
        XRL     A,R0
        JNZ     ??targetNwkUpdateReqCB_2
        INC     DPTR
        MOVX    A,@DPTR
        XRL     A,R1
??targetNwkUpdateReqCB_2:
        JNZ     ??targetNwkUpdateReqCB_3
        ; Setup parameters for call to function sAddrExtCmp
        MOV     A,R6
        ADD     A,#0x4
        MOV     R4,A
        MOV     A,R7
        ADDC    A,#0x0
        MOV     R5,A
        MOV     R2,#(_NIB + 53) & 0xff
        MOV     R3,#((_NIB + 53) >> 8) & 0xff
        LCALL   ??sAddrExtCmp?relay
        MOV     A,R1
        JZ      ??targetNwkUpdateReqCB_3
//  870   {
//  871     uint8 newUpdateId = zll_NewNwkUpdateId( pReq->nwkUpdateId, _NIB.nwkUpdateId);
        ; Setup parameters for call to function zll_NewNwkUpdateId
        MOV     DPTR,#_NIB + 109
        MOVX    A,@DPTR
        MOV     R2,A
        MOV     A,R6
        ADD     A,#0xc
        LCALL   ?Subroutine8 & 0xFFFF
??CrossCallReturnLabel_16:
        MOV     R1,A
        LCALL   ??zll_NewNwkUpdateId?relay
//  872     if ( _NIB.nwkUpdateId != newUpdateId )
        MOV     DPTR,#_NIB + 109
        MOVX    A,@DPTR
        XRL     A,R1
        JZ      ??targetNwkUpdateReqCB_3
//  873     {
//  874       // Update the network update id and logical channel
//  875       zll_ProcessNwkUpdate( newUpdateId, pReq->logicalChannel );
        ; Setup parameters for call to function zll_ProcessNwkUpdate
        MOV     A,R6
        ADD     A,#0xd
        LCALL   ?Subroutine8 & 0xFFFF
//  876     }
//  877   }
??CrossCallReturnLabel_17:
        MOV     R2,A
        LCALL   ??zll_ProcessNwkUpdate?relay
//  878 
//  879   return ( ZSuccess );
??targetNwkUpdateReqCB_3:
        MOV     R1,#0x0
??targetNwkUpdateReqCB_1:
        LJMP    ?Subroutine1 & 0xFFFF
          CFI EndBlock cfiBlock52
//  880 }
//  881 
//  882 /*********************************************************************
//  883  * @fn      targetSendNwkStartRsp
//  884  *
//  885  * @brief   Send out a Network Start Response command.
//  886  *
//  887  * @param   dstAddr - destination's address
//  888  * @param   transID - touch link transaction identifier
//  889  * @param   status - Network Start Response command status field
//  890  * @param   pNwkParams - network parameters
//  891  * @param   nwkUpdateId - network update identifier
//  892  * @param   seqNum
//  893  *
//  894  * @return  none
//  895  */

        RSEG BANKED_CODE:CODE:NOROOT(0)
//  896 static void targetSendNwkStartRsp( afAddrType_t *dstAddr, uint32 transID, uint8 status,
targetSendNwkStartRsp:
          CFI Block cfiBlock53 Using cfiCommon0
          CFI Function targetSendNwkStartRsp
        CODE
//  897                                    zclLLNwkParams_t *pNwkParams, uint8 nwkUpdateId, uint8 seqNum )
//  898 {
        FUNCALL targetSendNwkStartRsp, osal_mem_alloc
        LOCFRAME ISTACK, 0, STACK
        LOCFRAME PSTACK, 0, STACK
        LOCFRAME XSTACK, 22, STACK
        LOCFRAME IOVERLAY, 0, STATIC
        LOCFRAME DOVERLAY, 0, STATIC
        ARGFRAME ISTACK, 0, STACK
        ARGFRAME PSTACK, 0, STACK
        ARGFRAME XSTACK, 22, STACK
        ARGFRAME IOVERLAY, 0, STATIC
        ARGFRAME DOVERLAY, 0, STATIC
        FUNCALL targetSendNwkStartRsp, sAddrExtCpy
        LOCFRAME ISTACK, 0, STACK
        LOCFRAME PSTACK, 0, STACK
        LOCFRAME XSTACK, 22, STACK
        LOCFRAME IOVERLAY, 0, STATIC
        LOCFRAME DOVERLAY, 0, STATIC
        ARGFRAME ISTACK, 0, STACK
        ARGFRAME PSTACK, 0, STACK
        ARGFRAME XSTACK, 22, STACK
        ARGFRAME IOVERLAY, 0, STATIC
        ARGFRAME DOVERLAY, 0, STATIC
        FUNCALL targetSendNwkStartRsp, osal_memset
        LOCFRAME ISTACK, 0, STACK
        LOCFRAME PSTACK, 0, STACK
        LOCFRAME XSTACK, 22, STACK
        LOCFRAME IOVERLAY, 0, STATIC
        LOCFRAME DOVERLAY, 0, STATIC
        ARGFRAME ISTACK, 0, STACK
        ARGFRAME PSTACK, 0, STACK
        ARGFRAME XSTACK, 22, STACK
        ARGFRAME IOVERLAY, 0, STATIC
        ARGFRAME DOVERLAY, 0, STATIC
        FUNCALL targetSendNwkStartRsp, zclLL_Send_NwkStartRsp
        LOCFRAME ISTACK, 0, STACK
        LOCFRAME PSTACK, 0, STACK
        LOCFRAME XSTACK, 23, STACK
        LOCFRAME IOVERLAY, 0, STATIC
        LOCFRAME DOVERLAY, 0, STATIC
        ARGFRAME ISTACK, 0, STACK
        ARGFRAME PSTACK, 0, STACK
        ARGFRAME XSTACK, 23, STACK
        ARGFRAME IOVERLAY, 0, STATIC
        ARGFRAME DOVERLAY, 0, STATIC
        FUNCALL targetSendNwkStartRsp, osal_mem_free
        LOCFRAME ISTACK, 0, STACK
        LOCFRAME PSTACK, 0, STACK
        LOCFRAME XSTACK, 22, STACK
        LOCFRAME IOVERLAY, 0, STATIC
        LOCFRAME DOVERLAY, 0, STATIC
        ARGFRAME ISTACK, 0, STACK
        ARGFRAME PSTACK, 0, STACK
        ARGFRAME XSTACK, 22, STACK
        ARGFRAME IOVERLAY, 0, STATIC
        ARGFRAME DOVERLAY, 0, STATIC
        MOV     A,#-0x16
        LCALL   ?BANKED_ENTER_XDATA
          CFI DPH0 load(1, XDATA, add(CFA_XSP16, literal(-1)))
          CFI DPL0 load(1, XDATA, add(CFA_XSP16, literal(-2)))
          CFI ?BRET_EXT load(1, XDATA, add(CFA_XSP16, literal(-3)))
          CFI ?RET_HIGH load(1, XDATA, add(CFA_XSP16, literal(-4)))
          CFI ?RET_LOW load(1, XDATA, add(CFA_XSP16, literal(-5)))
          CFI R7 load(1, XDATA, add(CFA_XSP16, literal(-6)))
          CFI V13 load(1, XDATA, add(CFA_XSP16, literal(-7)))
          CFI V12 load(1, XDATA, add(CFA_XSP16, literal(-8)))
          CFI V11 load(1, XDATA, add(CFA_XSP16, literal(-9)))
          CFI V10 load(1, XDATA, add(CFA_XSP16, literal(-10)))
          CFI V9 load(1, XDATA, add(CFA_XSP16, literal(-11)))
          CFI V8 load(1, XDATA, add(CFA_XSP16, literal(-12)))
          CFI V7 load(1, XDATA, add(CFA_XSP16, literal(-13)))
          CFI V6 load(1, XDATA, add(CFA_XSP16, literal(-14)))
          CFI V5 load(1, XDATA, add(CFA_XSP16, literal(-15)))
          CFI V4 load(1, XDATA, add(CFA_XSP16, literal(-16)))
          CFI V3 load(1, XDATA, add(CFA_XSP16, literal(-17)))
          CFI V2 load(1, XDATA, add(CFA_XSP16, literal(-18)))
          CFI V1 load(1, XDATA, add(CFA_XSP16, literal(-19)))
          CFI V0 load(1, XDATA, add(CFA_XSP16, literal(-20)))
          CFI VB load(1, XDATA, add(CFA_XSP16, literal(-21)))
          CFI R6 load(1, XDATA, add(CFA_XSP16, literal(-22)))
          CFI CFA_SP SP+0
          CFI CFA_XSP16 add(XSP16, 22)
        ; Saved register size: 22
        ; Auto size: 0
        MOV     ?V0 + 12,R2
        MOV     ?V0 + 13,R3
        MOV     ?V0 + 3,R1
        MOV     ?V0 + 0,R4
        MOV     ?V0 + 1,R5
        MOV     A,#0x16
        LCALL   ?XSTACK_DISP0_8
        MOV     R0,#?V0 + 4
        LCALL   ?L_MOV_X
        MOV     A,#0x1a
        LCALL   ?XSTACK_DISP0_8
        MOVX    A,@DPTR
        MOV     ?V0 + 2,A
        MOV     A,#0x1b
        LCALL   ?XSTACK_DISP0_8
        MOVX    A,@DPTR
        MOV     ?V0 + 8,A
//  899   zclLLNwkStartRsp_t *pRsp;
//  900 
//  901   // Send out a response
//  902   pRsp = (zclLLNwkStartRsp_t *)osal_mem_alloc( sizeof( zclLLNwkStartRsp_t ) );
        ; Setup parameters for call to function osal_mem_alloc
        MOV     R2,#0x11
        MOV     R3,#0x0
        LCALL   ??osal_mem_alloc?relay
        MOV     ?V0 + 10,R2
        MOV     ?V0 + 11,R3
        MOV     R6,?V0 + 10
        MOV     R7,?V0 + 11
//  903   if ( pRsp )
        MOV     A,R6
        ORL     A,R7
        JNZ     $+5
        LJMP    ??targetSendNwkStartRsp_0 & 0xFFFF
//  904   {
//  905     pRsp->transID = transID;
        MOV     DPL,R6
        MOV     DPH,R7
        MOV     R0,#?V0 + 4
        LCALL   ?L_MOV_TO_X
//  906     pRsp->status = status;
        MOV     DPL,R6
        MOV     DPH,R7
        INC     DPTR
        INC     DPTR
        INC     DPTR
        INC     DPTR
        MOV     A,?V0 + 3
        MOVX    @DPTR,A
//  907 
//  908     if ( pNwkParams != NULL )
        MOV     A,R6
        ADD     A,#0xf
        MOV     ?V0 + 6,A
        MOV     A,R7
        ADDC    A,#0x0
        MOV     ?V0 + 7,A
        MOV     A,R6
        ADD     A,#0xe
        MOV     ?V0 + 4,A
        MOV     A,R7
        ADDC    A,#0x0
        MOV     ?V0 + 5,A
        MOV     A,R6
        ADD     A,#0x5
        MOV     R2,A
        MOV     A,R7
        ADDC    A,#0x0
        MOV     R3,A
        MOV     A,?V0 + 0
        ORL     A,?V0 + 1
        JZ      ??targetSendNwkStartRsp_1
//  909     {
//  910       osal_cpyExtAddr( pRsp->extendedPANID, pNwkParams->extendedPANID );
        ; Setup parameters for call to function sAddrExtCpy
        MOV     R4,?V0 + 0
        MOV     R5,?V0 + 1
        LCALL   ??sAddrExtCpy?relay
//  911       pRsp->logicalChannel = pNwkParams->logicalChannel;
        MOV     A,?V0 + 0
        ADD     A,#0x19
        MOV     DPL,A
        MOV     A,?V0 + 1
        LCALL   ??Subroutine11_0 & 0xFFFF
??CrossCallReturnLabel_10:
        MOV     DPL,?V0 + 4
        MOV     DPH,?V0 + 5
        MOVX    @DPTR,A
//  912       pRsp->panId = pNwkParams->panId;
        MOV     A,?V0 + 0
        ADD     A,#0x1a
        MOV     DPL,A
        MOV     A,?V0 + 1
        LCALL   ??Subroutine11_0 & 0xFFFF
//  913     }
??CrossCallReturnLabel_11:
        MOV     R0,A
        INC     DPTR
        MOVX    A,@DPTR
        MOV     R1,A
        MOV     DPL,?V0 + 6
        MOV     DPH,?V0 + 7
        MOV     A,R0
        MOVX    @DPTR,A
        INC     DPTR
        MOV     A,R1
        SJMP    ??targetSendNwkStartRsp_2
//  914     else
//  915     {
//  916       osal_memset( pRsp->extendedPANID, 0, Z_EXTADDR_LEN );
??targetSendNwkStartRsp_1:
        ; Setup parameters for call to function osal_memset
        MOV     R4,#0x8
        MOV     R5,#0x0
        MOV     R1,#0x0
        LCALL   ??osal_memset?relay
//  917       pRsp->logicalChannel = 0;
        MOV     DPL,?V0 + 4
        MOV     DPH,?V0 + 5
        CLR     A
        MOVX    @DPTR,A
//  918       pRsp->panId = 0;
        MOV     DPL,?V0 + 6
        MOV     DPH,?V0 + 7
        MOVX    @DPTR,A
        INC     DPTR
??targetSendNwkStartRsp_2:
        MOVX    @DPTR,A
//  919     }
//  920 
//  921     pRsp->nwkUpdateId = nwkUpdateId;
        MOV     A,R6
        ADD     A,#0xd
        MOV     DPL,A
        MOV     A,R7
        ADDC    A,#0x0
        MOV     DPH,A
        MOV     A,?V0 + 2
        MOVX    @DPTR,A
//  922 
//  923     zclLL_Send_NwkStartRsp( ZLL_INTERNAL_ENDPOINT, dstAddr, pRsp, seqNum );
        ; Setup parameters for call to function zclLL_Send_NwkStartRsp
        MOV     A,?V0 + 8
        MOV     ?V0 + 0,A
        MOV     R0,#?V0 + 0
        LCALL   ?PUSH_XSTACK_I_ONE
          CFI CFA_XSP16 add(XSP16, 23)
        MOV     A,R6
        MOV     R4,A
        MOV     A,R7
        MOV     R5,A
        MOV     R2,?V0 + 12
        MOV     R3,?V0 + 13
        MOV     R1,#0xd
        LCALL   ??zclLL_Send_NwkStartRsp?relay
        MOV     A,#0x1
        LCALL   ?DEALLOC_XSTACK8
          CFI CFA_XSP16 add(XSP16, 22)
//  924 
//  925     osal_mem_free( pRsp );
        ; Setup parameters for call to function osal_mem_free
        MOV     A,R6
        MOV     R2,A
        MOV     A,R7
        MOV     R3,A
        LCALL   ??osal_mem_free?relay
//  926   }
//  927 }
??targetSendNwkStartRsp_0:
        MOV     R7,#0xe
        LJMP    ?BANKED_LEAVE_XDATA
          CFI EndBlock cfiBlock53
//  928 
//  929 /******************************************************************************
//  930  * @fn      targetZdoLeaveCnfCB
//  931  *
//  932  * @brief   This callback is called to process a Leave Confirmation message.
//  933  *
//  934  *          Note: this callback function returns a pointer if it has handled
//  935  *                the confirmation message and no further action should be
//  936  *                taken with it. It returns NULL if it has not handled the
//  937  *                confirmation message and normal processing should take place.
//  938  *
//  939  * @param       pParam - received message
//  940  *
//  941  * @return      Pointer if message processed. NULL, otherwise.
//  942  */

        RSEG BANKED_CODE:CODE:NOROOT(0)
//  943 static void *targetZdoLeaveCnfCB( void *pParam )
targetZdoLeaveCnfCB:
          CFI Block cfiBlock54 Using cfiCommon0
          CFI Function targetZdoLeaveCnfCB
        CODE
//  944 {
        FUNCALL targetZdoLeaveCnfCB, aps_FindAllGroupsForEndpoint
        LOCFRAME ISTACK, 0, STACK
        LOCFRAME PSTACK, 0, STACK
        LOCFRAME XSTACK, 44, STACK
        LOCFRAME IOVERLAY, 0, STATIC
        LOCFRAME DOVERLAY, 0, STATIC
        ARGFRAME ISTACK, 0, STACK
        ARGFRAME PSTACK, 0, STACK
        ARGFRAME XSTACK, 44, STACK
        ARGFRAME IOVERLAY, 0, STATIC
        ARGFRAME DOVERLAY, 0, STATIC
        FUNCALL targetZdoLeaveCnfCB, zclGeneral_RemoveAllScenes
        LOCFRAME ISTACK, 0, STACK
        LOCFRAME PSTACK, 0, STACK
        LOCFRAME XSTACK, 44, STACK
        LOCFRAME IOVERLAY, 0, STATIC
        LOCFRAME DOVERLAY, 0, STATIC
        ARGFRAME ISTACK, 0, STACK
        ARGFRAME PSTACK, 0, STACK
        ARGFRAME XSTACK, 44, STACK
        ARGFRAME IOVERLAY, 0, STATIC
        ARGFRAME DOVERLAY, 0, STATIC
        FUNCALL targetZdoLeaveCnfCB, aps_RemoveAllGroup
        LOCFRAME ISTACK, 0, STACK
        LOCFRAME PSTACK, 0, STACK
        LOCFRAME XSTACK, 44, STACK
        LOCFRAME IOVERLAY, 0, STATIC
        LOCFRAME DOVERLAY, 0, STATIC
        ARGFRAME ISTACK, 0, STACK
        ARGFRAME PSTACK, 0, STACK
        ARGFRAME XSTACK, 44, STACK
        ARGFRAME IOVERLAY, 0, STATIC
        ARGFRAME DOVERLAY, 0, STATIC
        FUNCALL targetZdoLeaveCnfCB, osal_set_event
        LOCFRAME ISTACK, 0, STACK
        LOCFRAME PSTACK, 0, STACK
        LOCFRAME XSTACK, 44, STACK
        LOCFRAME IOVERLAY, 0, STATIC
        LOCFRAME DOVERLAY, 0, STATIC
        ARGFRAME ISTACK, 0, STACK
        ARGFRAME PSTACK, 0, STACK
        ARGFRAME XSTACK, 44, STACK
        ARGFRAME IOVERLAY, 0, STATIC
        ARGFRAME DOVERLAY, 0, STATIC
        FUNCALL targetZdoLeaveCnfCB, AssocReset
        LOCFRAME ISTACK, 0, STACK
        LOCFRAME PSTACK, 0, STACK
        LOCFRAME XSTACK, 44, STACK
        LOCFRAME IOVERLAY, 0, STATIC
        LOCFRAME DOVERLAY, 0, STATIC
        ARGFRAME ISTACK, 0, STACK
        ARGFRAME PSTACK, 0, STACK
        ARGFRAME XSTACK, 44, STACK
        ARGFRAME IOVERLAY, 0, STATIC
        ARGFRAME DOVERLAY, 0, STATIC
        FUNCALL targetZdoLeaveCnfCB, nwkNeighborInitTable
        LOCFRAME ISTACK, 0, STACK
        LOCFRAME PSTACK, 0, STACK
        LOCFRAME XSTACK, 44, STACK
        LOCFRAME IOVERLAY, 0, STATIC
        LOCFRAME DOVERLAY, 0, STATIC
        ARGFRAME ISTACK, 0, STACK
        ARGFRAME PSTACK, 0, STACK
        ARGFRAME XSTACK, 44, STACK
        ARGFRAME IOVERLAY, 0, STATIC
        ARGFRAME DOVERLAY, 0, STATIC
        FUNCALL targetZdoLeaveCnfCB, AddrMgrSetDefaultNV
        LOCFRAME ISTACK, 0, STACK
        LOCFRAME PSTACK, 0, STACK
        LOCFRAME XSTACK, 44, STACK
        LOCFRAME IOVERLAY, 0, STATIC
        LOCFRAME DOVERLAY, 0, STATIC
        ARGFRAME ISTACK, 0, STACK
        ARGFRAME PSTACK, 0, STACK
        ARGFRAME XSTACK, 44, STACK
        ARGFRAME IOVERLAY, 0, STATIC
        ARGFRAME DOVERLAY, 0, STATIC
        FUNCALL targetZdoLeaveCnfCB, osal_set_event
        LOCFRAME ISTACK, 0, STACK
        LOCFRAME PSTACK, 0, STACK
        LOCFRAME XSTACK, 44, STACK
        LOCFRAME IOVERLAY, 0, STATIC
        LOCFRAME DOVERLAY, 0, STATIC
        ARGFRAME ISTACK, 0, STACK
        ARGFRAME PSTACK, 0, STACK
        ARGFRAME XSTACK, 44, STACK
        ARGFRAME IOVERLAY, 0, STATIC
        ARGFRAME DOVERLAY, 0, STATIC
        FUNCALL targetZdoLeaveCnfCB, osal_start_timerEx
        LOCFRAME ISTACK, 0, STACK
        LOCFRAME PSTACK, 0, STACK
        LOCFRAME XSTACK, 48, STACK
        LOCFRAME IOVERLAY, 0, STATIC
        LOCFRAME DOVERLAY, 0, STATIC
        ARGFRAME ISTACK, 0, STACK
        ARGFRAME PSTACK, 0, STACK
        ARGFRAME XSTACK, 48, STACK
        ARGFRAME IOVERLAY, 0, STATIC
        ARGFRAME DOVERLAY, 0, STATIC
        MOV     A,#-0xc
        LCALL   ?BANKED_ENTER_XDATA
          CFI DPH0 load(1, XDATA, add(CFA_XSP16, literal(-1)))
          CFI DPL0 load(1, XDATA, add(CFA_XSP16, literal(-2)))
          CFI ?BRET_EXT load(1, XDATA, add(CFA_XSP16, literal(-3)))
          CFI ?RET_HIGH load(1, XDATA, add(CFA_XSP16, literal(-4)))
          CFI ?RET_LOW load(1, XDATA, add(CFA_XSP16, literal(-5)))
          CFI R7 load(1, XDATA, add(CFA_XSP16, literal(-6)))
          CFI V3 load(1, XDATA, add(CFA_XSP16, literal(-7)))
          CFI V2 load(1, XDATA, add(CFA_XSP16, literal(-8)))
          CFI V1 load(1, XDATA, add(CFA_XSP16, literal(-9)))
          CFI V0 load(1, XDATA, add(CFA_XSP16, literal(-10)))
          CFI VB load(1, XDATA, add(CFA_XSP16, literal(-11)))
          CFI R6 load(1, XDATA, add(CFA_XSP16, literal(-12)))
          CFI CFA_SP SP+0
          CFI CFA_XSP16 add(XSP16, 12)
        ; Saved register size: 12
        ; Auto size: 32
        MOV     A,#-0x20
        LCALL   ?ALLOC_XSTACK8
          CFI CFA_XSP16 add(XSP16, 44)
//  945   // Clear all groups and scenes for all endpoints.
//  946   if ( ((NLME_LeaveCnf_t*)pParam)->rejoin == FALSE )
        MOV     A,R2
        ADD     A,#0xb
        MOV     DPL,A
        MOV     A,R3
        LCALL   ??Subroutine11_0 & 0xFFFF
??CrossCallReturnLabel_12:
        JNZ     ??targetZdoLeaveCnfCB_0
//  947   {
//  948     uint8 i,n_groups;
//  949     uint16 groupList[APS_MAX_GROUPS];
//  950     epList_t *epItem;
//  951 
//  952     for ( epItem = epList; epItem != NULL; epItem = epItem->nextDesc )
        MOV     DPTR,#epList
        SJMP    ??targetZdoLeaveCnfCB_1
//  953     {
//  954       if ( n_groups = aps_FindAllGroupsForEndpoint( epItem->epDesc->endPoint, groupList ) )
??targetZdoLeaveCnfCB_2:
        MOV     A,R6
        ADD     A,#0x2
        MOV     R0,A
        MOV     A,R7
        ADDC    A,#0x0
        MOV     R1,A
        MOV     ?V0 + 0,R0
        MOV     ?V0 + 1,R1
        ; Setup parameters for call to function aps_FindAllGroupsForEndpoint
        MOV     DPL,?XSP + 0
        MOV     DPH,?XSP + 1
        MOV     R2,DPL
        MOV     R3,DPH
        MOV     DPL,R0
        MOV     DPH,A
        LCALL   ??Subroutine12_0 & 0xFFFF
??CrossCallReturnLabel_18:
        LCALL   ??aps_FindAllGroupsForEndpoint?relay
        MOV     A,R1
        MOV     ?V0 + 3,A
        JZ      ??targetZdoLeaveCnfCB_3
//  955       {
//  956         for ( i = 0; i < n_groups; i++ )
        MOV     ?V0 + 2,#0x0
//  957         {
//  958           zclGeneral_RemoveAllScenes( epItem->epDesc->endPoint, groupList[i] );
??targetZdoLeaveCnfCB_4:
        ; Setup parameters for call to function zclGeneral_RemoveAllScenes
        MOV     A,?V0 + 2
        CLR     C
        RLC     A
        MOV     R0,A
        CLR     A
        RLC     A
        MOV     R1,A
        MOV     DPL,?XSP + 0
        MOV     DPH,?XSP + 1
        MOV     A,DPL
        ADD     A,R0
        MOV     DPL,A
        MOV     A,DPH
        ADDC    A,R1
        MOV     DPH,A
        MOVX    A,@DPTR
        MOV     R2,A
        INC     DPTR
        MOVX    A,@DPTR
        MOV     R3,A
        LCALL   ?Subroutine6 & 0xFFFF
//  959         }
??CrossCallReturnLabel_19:
        LCALL   ??zclGeneral_RemoveAllScenes?relay
        INC     ?V0 + 2
        MOV     A,?V0 + 2
        CLR     C
        SUBB    A,?V0 + 3
        JC      ??targetZdoLeaveCnfCB_4
//  960         aps_RemoveAllGroup( epItem->epDesc->endPoint );
        ; Setup parameters for call to function aps_RemoveAllGroup
        LCALL   ?Subroutine6 & 0xFFFF
//  961       }
//  962     }
??CrossCallReturnLabel_20:
        LCALL   ??aps_RemoveAllGroup?relay
??targetZdoLeaveCnfCB_3:
        MOV     DPL,R6
        MOV     DPH,R7
??targetZdoLeaveCnfCB_1:
        MOVX    A,@DPTR
        MOV     R6,A
        INC     DPTR
        MOVX    A,@DPTR
        MOV     R7,A
        MOV     A,R6
        ORL     A,R7
        JNZ     ??targetZdoLeaveCnfCB_2
//  963   }
//  964 
//  965   // Did we initiate the leave?
//  966   if ( zllLeaveInitiated == FALSE )
??targetZdoLeaveCnfCB_0:
        MOV     DPTR,#zllLeaveInitiated
        MOVX    A,@DPTR
        JNZ     ??targetZdoLeaveCnfCB_5
//  967   {
//  968     return ( NULL );
        MOV     R2,#0x0
        MOV     R3,#0x0
        SJMP    ??targetZdoLeaveCnfCB_6
//  969   }
//  970 
//  971   if ( zllLeaveInitiated == ZLL_LEAVE_TO_START_NWK )
??targetZdoLeaveCnfCB_5:
        XRL     A,#0x2
        JNZ     ??targetZdoLeaveCnfCB_7
//  972   {
//  973     // Notify our task to start the network
//  974     osal_set_event( zllTarget_TaskID, ZLL_START_NWK_EVT );
        ; Setup parameters for call to function osal_set_event
        MOV     R2,#0x8
        MOV     R3,#0x0
        MOV     DPTR,#zllTarget_TaskID
        MOVX    A,@DPTR
        MOV     R1,A
        LCALL   ??osal_set_event?relay
        SJMP    ??targetZdoLeaveCnfCB_8
//  975   }
//  976   else // ZLL_LEAVE_TO_JOIN_NWK
//  977   {
//  978     AssocReset();
??targetZdoLeaveCnfCB_7:
        ; Setup parameters for call to function AssocReset
        LCALL   ??AssocReset?relay
//  979     nwkNeighborInitTable();
        ; Setup parameters for call to function nwkNeighborInitTable
        LCALL   ??nwkNeighborInitTable?relay
//  980     AddrMgrSetDefaultNV();
        ; Setup parameters for call to function AddrMgrSetDefaultNV
        LCALL   ??AddrMgrSetDefaultNV?relay
//  981     // Immediately store empty tables in NV
//  982     osal_set_event( ZDAppTaskID, ZDO_NWK_UPDATE_NV );
        ; Setup parameters for call to function osal_set_event
        MOV     R2,#0x0
        MOV     R3,#0x1
        MOV     DPTR,#ZDAppTaskID
        MOVX    A,@DPTR
        MOV     R1,A
        LCALL   ??osal_set_event?relay
//  983     // Notify our task to join the new network
//  984     osal_start_timerEx( zllTarget_TaskID, ZLL_JOIN_NWK_EVT, 100 );
        ; Setup parameters for call to function osal_start_timerEx
        MOV     DPTR,#__Constant_64
        LCALL   ?PUSH_XSTACK8_X_FOUR
          CFI CFA_XSP16 add(XSP16, 48)
        MOV     R2,#0x10
        MOV     R3,#0x0
        MOV     DPTR,#zllTarget_TaskID
        MOVX    A,@DPTR
        MOV     R1,A
        LCALL   ??osal_start_timerEx?relay
        MOV     A,#0x4
        LCALL   ?DEALLOC_XSTACK8
          CFI CFA_XSP16 add(XSP16, 44)
//  985   }
//  986 
//  987   return ( (void *)&zllLeaveInitiated );
??targetZdoLeaveCnfCB_8:
        MOV     R2,#zllLeaveInitiated & 0xff
        MOV     R3,#(zllLeaveInitiated >> 8) & 0xff
??targetZdoLeaveCnfCB_6:
        MOV     A,#0x20
        LCALL   ?DEALLOC_XSTACK8
          CFI CFA_XSP16 add(XSP16, 12)
        LJMP    ?Subroutine3 & 0xFFFF
          CFI EndBlock cfiBlock54
//  988 }

        RSEG BANKED_CODE:CODE:NOROOT(0)
?Subroutine6:
          CFI Block cfiCond55 Using cfiCommon0
          CFI Function targetZdoLeaveCnfCB
          CFI Conditional ??CrossCallReturnLabel_19
          CFI R6 load(1, XDATA, add(CFA_XSP16, literal(-12)))
          CFI VB load(1, XDATA, add(CFA_XSP16, literal(-11)))
          CFI V0 load(1, XDATA, add(CFA_XSP16, literal(-10)))
          CFI V1 load(1, XDATA, add(CFA_XSP16, literal(-9)))
          CFI V2 load(1, XDATA, add(CFA_XSP16, literal(-8)))
          CFI V3 load(1, XDATA, add(CFA_XSP16, literal(-7)))
          CFI R7 load(1, XDATA, add(CFA_XSP16, literal(-6)))
          CFI ?RET_LOW load(1, XDATA, add(CFA_XSP16, literal(-5)))
          CFI ?RET_HIGH load(1, XDATA, add(CFA_XSP16, literal(-4)))
          CFI ?BRET_EXT load(1, XDATA, add(CFA_XSP16, literal(-3)))
          CFI DPL0 load(1, XDATA, add(CFA_XSP16, literal(-2)))
          CFI DPH0 load(1, XDATA, add(CFA_XSP16, literal(-1)))
          CFI CFA_SP SP+0
          CFI CFA_XSP16 add(XSP16, 44)
          CFI Block cfiCond56 Using cfiCommon0
          CFI (cfiCond56) Function targetZdoLeaveCnfCB
          CFI (cfiCond56) Conditional ??CrossCallReturnLabel_20
          CFI (cfiCond56) R6 load(1, XDATA, add(CFA_XSP16, literal(-12)))
          CFI (cfiCond56) VB load(1, XDATA, add(CFA_XSP16, literal(-11)))
          CFI (cfiCond56) V0 load(1, XDATA, add(CFA_XSP16, literal(-10)))
          CFI (cfiCond56) V1 load(1, XDATA, add(CFA_XSP16, literal(-9)))
          CFI (cfiCond56) V2 load(1, XDATA, add(CFA_XSP16, literal(-8)))
          CFI (cfiCond56) V3 load(1, XDATA, add(CFA_XSP16, literal(-7)))
          CFI (cfiCond56) R7 load(1, XDATA, add(CFA_XSP16, literal(-6)))
          CFI (cfiCond56) ?RET_LOW load(1, XDATA, add(CFA_XSP16, literal(-5)))
          CFI (cfiCond56) ?RET_HIGH load(1, XDATA, add(CFA_XSP16, literal(-4)))
          CFI (cfiCond56) ?BRET_EXT load(1, XDATA, add(CFA_XSP16, literal(-3)))
          CFI (cfiCond56) DPL0 load(1, XDATA, add(CFA_XSP16, literal(-2)))
          CFI (cfiCond56) DPH0 load(1, XDATA, add(CFA_XSP16, literal(-1)))
          CFI (cfiCond56) CFA_SP SP+0
          CFI (cfiCond56) CFA_XSP16 add(XSP16, 44)
          CFI Block cfiPicker57 Using cfiCommon1
          CFI (cfiPicker57) NoFunction
          CFI (cfiPicker57) Picker
        MOV     DPL,?V0 + 0
        MOV     DPH,?V0 + 1
          CFI EndBlock cfiCond55
          CFI EndBlock cfiCond56
          CFI EndBlock cfiPicker57
        REQUIRE ??Subroutine12_0
        ; // Fall through to label ??Subroutine12_0

        RSEG BANKED_CODE:CODE:NOROOT(0)
??Subroutine12_0:
          CFI Block cfiCond58 Using cfiCommon0
          CFI Function targetZdoLeaveCnfCB
          CFI Conditional ??CrossCallReturnLabel_18
          CFI R6 load(1, XDATA, add(CFA_XSP16, literal(-12)))
          CFI VB load(1, XDATA, add(CFA_XSP16, literal(-11)))
          CFI V0 load(1, XDATA, add(CFA_XSP16, literal(-10)))
          CFI V1 load(1, XDATA, add(CFA_XSP16, literal(-9)))
          CFI V2 load(1, XDATA, add(CFA_XSP16, literal(-8)))
          CFI V3 load(1, XDATA, add(CFA_XSP16, literal(-7)))
          CFI R7 load(1, XDATA, add(CFA_XSP16, literal(-6)))
          CFI ?RET_LOW load(1, XDATA, add(CFA_XSP16, literal(-5)))
          CFI ?RET_HIGH load(1, XDATA, add(CFA_XSP16, literal(-4)))
          CFI ?BRET_EXT load(1, XDATA, add(CFA_XSP16, literal(-3)))
          CFI DPL0 load(1, XDATA, add(CFA_XSP16, literal(-2)))
          CFI DPH0 load(1, XDATA, add(CFA_XSP16, literal(-1)))
          CFI CFA_SP SP+0
          CFI CFA_XSP16 add(XSP16, 44)
          CFI Block cfiCond59 Using cfiCommon0
          CFI (cfiCond59) Function targetZdoLeaveCnfCB
          CFI (cfiCond59) Conditional ??CrossCallReturnLabel_19
          CFI (cfiCond59) R6 load(1, XDATA, add(CFA_XSP16, literal(-12)))
          CFI (cfiCond59) VB load(1, XDATA, add(CFA_XSP16, literal(-11)))
          CFI (cfiCond59) V0 load(1, XDATA, add(CFA_XSP16, literal(-10)))
          CFI (cfiCond59) V1 load(1, XDATA, add(CFA_XSP16, literal(-9)))
          CFI (cfiCond59) V2 load(1, XDATA, add(CFA_XSP16, literal(-8)))
          CFI (cfiCond59) V3 load(1, XDATA, add(CFA_XSP16, literal(-7)))
          CFI (cfiCond59) R7 load(1, XDATA, add(CFA_XSP16, literal(-6)))
          CFI (cfiCond59) ?RET_LOW load(1, XDATA, add(CFA_XSP16, literal(-5)))
          CFI (cfiCond59) ?RET_HIGH load(1, XDATA, add(CFA_XSP16, literal(-4)))
          CFI (cfiCond59) ?BRET_EXT load(1, XDATA, add(CFA_XSP16, literal(-3)))
          CFI (cfiCond59) DPL0 load(1, XDATA, add(CFA_XSP16, literal(-2)))
          CFI (cfiCond59) DPH0 load(1, XDATA, add(CFA_XSP16, literal(-1)))
          CFI (cfiCond59) CFA_SP SP+0
          CFI (cfiCond59) CFA_XSP16 add(XSP16, 44)
          CFI Block cfiCond60 Using cfiCommon0
          CFI (cfiCond60) Function targetZdoLeaveCnfCB
          CFI (cfiCond60) Conditional ??CrossCallReturnLabel_20
          CFI (cfiCond60) R6 load(1, XDATA, add(CFA_XSP16, literal(-12)))
          CFI (cfiCond60) VB load(1, XDATA, add(CFA_XSP16, literal(-11)))
          CFI (cfiCond60) V0 load(1, XDATA, add(CFA_XSP16, literal(-10)))
          CFI (cfiCond60) V1 load(1, XDATA, add(CFA_XSP16, literal(-9)))
          CFI (cfiCond60) V2 load(1, XDATA, add(CFA_XSP16, literal(-8)))
          CFI (cfiCond60) V3 load(1, XDATA, add(CFA_XSP16, literal(-7)))
          CFI (cfiCond60) R7 load(1, XDATA, add(CFA_XSP16, literal(-6)))
          CFI (cfiCond60) ?RET_LOW load(1, XDATA, add(CFA_XSP16, literal(-5)))
          CFI (cfiCond60) ?RET_HIGH load(1, XDATA, add(CFA_XSP16, literal(-4)))
          CFI (cfiCond60) ?BRET_EXT load(1, XDATA, add(CFA_XSP16, literal(-3)))
          CFI (cfiCond60) DPL0 load(1, XDATA, add(CFA_XSP16, literal(-2)))
          CFI (cfiCond60) DPH0 load(1, XDATA, add(CFA_XSP16, literal(-1)))
          CFI (cfiCond60) CFA_SP SP+0
          CFI (cfiCond60) CFA_XSP16 add(XSP16, 44)
          CFI Block cfiPicker61 Using cfiCommon1
          CFI (cfiPicker61) NoFunction
          CFI (cfiPicker61) Picker
        LCALL   ?Subroutine10 & 0xFFFF
??CrossCallReturnLabel_22:
        MOVX    A,@DPTR
        MOV     R1,A
        RET
          CFI EndBlock cfiCond58
          CFI EndBlock cfiCond59
          CFI EndBlock cfiCond60
          CFI EndBlock cfiPicker61

        RSEG BANKED_CODE:CODE:NOROOT(0)
?Subroutine10:
          CFI Block cfiCond62 Using cfiCommon0
          CFI Function targetIdentifyReqCB
          CFI Conditional ??CrossCallReturnLabel_21
          CFI R6 load(1, XDATA, add(CFA_XSP16, literal(-10)))
          CFI VB load(1, XDATA, add(CFA_XSP16, literal(-9)))
          CFI V0 load(1, XDATA, add(CFA_XSP16, literal(-8)))
          CFI V1 load(1, XDATA, add(CFA_XSP16, literal(-7)))
          CFI R7 load(1, XDATA, add(CFA_XSP16, literal(-6)))
          CFI ?RET_LOW load(1, XDATA, add(CFA_XSP16, literal(-5)))
          CFI ?RET_HIGH load(1, XDATA, add(CFA_XSP16, literal(-4)))
          CFI ?BRET_EXT load(1, XDATA, add(CFA_XSP16, literal(-3)))
          CFI DPL0 load(1, XDATA, add(CFA_XSP16, literal(-2)))
          CFI DPH0 load(1, XDATA, add(CFA_XSP16, literal(-1)))
          CFI CFA_SP SP+0
          CFI CFA_XSP16 add(XSP16, 14)
          CFI Block cfiCond63 Using cfiCommon0
          CFI (cfiCond63) Function targetZdoLeaveCnfCB
          CFI (cfiCond63) Conditional ??CrossCallReturnLabel_22, ??CrossCallReturnLabel_19
          CFI (cfiCond63) R6 load(1, XDATA, add(CFA_XSP16, literal(-12)))
          CFI (cfiCond63) VB load(1, XDATA, add(CFA_XSP16, literal(-11)))
          CFI (cfiCond63) V0 load(1, XDATA, add(CFA_XSP16, literal(-10)))
          CFI (cfiCond63) V1 load(1, XDATA, add(CFA_XSP16, literal(-9)))
          CFI (cfiCond63) V2 load(1, XDATA, add(CFA_XSP16, literal(-8)))
          CFI (cfiCond63) V3 load(1, XDATA, add(CFA_XSP16, literal(-7)))
          CFI (cfiCond63) R7 load(1, XDATA, add(CFA_XSP16, literal(-6)))
          CFI (cfiCond63) ?RET_LOW load(1, XDATA, add(CFA_XSP16, literal(-5)))
          CFI (cfiCond63) ?RET_HIGH load(1, XDATA, add(CFA_XSP16, literal(-4)))
          CFI (cfiCond63) ?BRET_EXT load(1, XDATA, add(CFA_XSP16, literal(-3)))
          CFI (cfiCond63) DPL0 load(1, XDATA, add(CFA_XSP16, literal(-2)))
          CFI (cfiCond63) DPH0 load(1, XDATA, add(CFA_XSP16, literal(-1)))
          CFI (cfiCond63) CFA_SP SP+0
          CFI (cfiCond63) CFA_XSP16 add(XSP16, 44)
          CFI Block cfiCond64 Using cfiCommon0
          CFI (cfiCond64) Function targetZdoLeaveCnfCB
          CFI (cfiCond64) Conditional ??CrossCallReturnLabel_22, ??CrossCallReturnLabel_20
          CFI (cfiCond64) R6 load(1, XDATA, add(CFA_XSP16, literal(-12)))
          CFI (cfiCond64) VB load(1, XDATA, add(CFA_XSP16, literal(-11)))
          CFI (cfiCond64) V0 load(1, XDATA, add(CFA_XSP16, literal(-10)))
          CFI (cfiCond64) V1 load(1, XDATA, add(CFA_XSP16, literal(-9)))
          CFI (cfiCond64) V2 load(1, XDATA, add(CFA_XSP16, literal(-8)))
          CFI (cfiCond64) V3 load(1, XDATA, add(CFA_XSP16, literal(-7)))
          CFI (cfiCond64) R7 load(1, XDATA, add(CFA_XSP16, literal(-6)))
          CFI (cfiCond64) ?RET_LOW load(1, XDATA, add(CFA_XSP16, literal(-5)))
          CFI (cfiCond64) ?RET_HIGH load(1, XDATA, add(CFA_XSP16, literal(-4)))
          CFI (cfiCond64) ?BRET_EXT load(1, XDATA, add(CFA_XSP16, literal(-3)))
          CFI (cfiCond64) DPL0 load(1, XDATA, add(CFA_XSP16, literal(-2)))
          CFI (cfiCond64) DPH0 load(1, XDATA, add(CFA_XSP16, literal(-1)))
          CFI (cfiCond64) CFA_SP SP+0
          CFI (cfiCond64) CFA_XSP16 add(XSP16, 44)
          CFI Block cfiCond65 Using cfiCommon0
          CFI (cfiCond65) Function targetZdoLeaveCnfCB
          CFI (cfiCond65) Conditional ??CrossCallReturnLabel_22, ??CrossCallReturnLabel_18
          CFI (cfiCond65) R6 load(1, XDATA, add(CFA_XSP16, literal(-12)))
          CFI (cfiCond65) VB load(1, XDATA, add(CFA_XSP16, literal(-11)))
          CFI (cfiCond65) V0 load(1, XDATA, add(CFA_XSP16, literal(-10)))
          CFI (cfiCond65) V1 load(1, XDATA, add(CFA_XSP16, literal(-9)))
          CFI (cfiCond65) V2 load(1, XDATA, add(CFA_XSP16, literal(-8)))
          CFI (cfiCond65) V3 load(1, XDATA, add(CFA_XSP16, literal(-7)))
          CFI (cfiCond65) R7 load(1, XDATA, add(CFA_XSP16, literal(-6)))
          CFI (cfiCond65) ?RET_LOW load(1, XDATA, add(CFA_XSP16, literal(-5)))
          CFI (cfiCond65) ?RET_HIGH load(1, XDATA, add(CFA_XSP16, literal(-4)))
          CFI (cfiCond65) ?BRET_EXT load(1, XDATA, add(CFA_XSP16, literal(-3)))
          CFI (cfiCond65) DPL0 load(1, XDATA, add(CFA_XSP16, literal(-2)))
          CFI (cfiCond65) DPH0 load(1, XDATA, add(CFA_XSP16, literal(-1)))
          CFI (cfiCond65) CFA_SP SP+0
          CFI (cfiCond65) CFA_XSP16 add(XSP16, 44)
          CFI Block cfiPicker66 Using cfiCommon1
          CFI (cfiPicker66) NoFunction
          CFI (cfiPicker66) Picker
        MOVX    A,@DPTR
        MOV     R0,A
        INC     DPTR
        MOVX    A,@DPTR
        MOV     DPH,A
        MOV     DPL,R0
        RET
          CFI EndBlock cfiCond62
          CFI EndBlock cfiCond63
          CFI EndBlock cfiCond64
          CFI EndBlock cfiCond65
          CFI EndBlock cfiPicker66
//  989 
//  990 
//  991 /*********************************************************************
//  992  * @fn      zllTarget_ResetToFactoryNew
//  993  *
//  994  * @brief   Call to Reset the Target to factory new
//  995  *
//  996  * @param   none
//  997  *
//  998  * @return  none
//  999  */

        RSEG BANKED_CODE:CODE:NOROOT(0)
// 1000 void zllTarget_ResetToFactoryNew()
zllTarget_ResetToFactoryNew:
          CFI Block cfiBlock67 Using cfiCommon0
          CFI Function zllTarget_ResetToFactoryNew
        CODE
// 1001 {
        FUNCALL zllTarget_ResetToFactoryNew, zll_ResetToFactoryNew
        LOCFRAME ISTACK, 2, STACK
        LOCFRAME PSTACK, 0, STACK
        LOCFRAME XSTACK, 0, STACK
        LOCFRAME IOVERLAY, 0, STATIC
        LOCFRAME DOVERLAY, 0, STATIC
        ARGFRAME ISTACK, 2, STACK
        ARGFRAME PSTACK, 0, STACK
        ARGFRAME XSTACK, 0, STACK
        ARGFRAME IOVERLAY, 0, STATIC
        ARGFRAME DOVERLAY, 0, STATIC
        PUSH    DPL
          CFI DPL0 Frame(CFA_SP, 4)
          CFI CFA_SP SP+-4
        PUSH    DPH
          CFI DPH0 Frame(CFA_SP, 5)
          CFI CFA_SP SP+-5
        ; Saved register size: 2
        ; Auto size: 0
// 1002   zll_ResetToFactoryNew( FALSE );
        ; Setup parameters for call to function zll_ResetToFactoryNew
        MOV     R1,#0x0
        LCALL   ??zll_ResetToFactoryNew?relay
// 1003 }
        LJMP    ?Subroutine0 & 0xFFFF
          CFI EndBlock cfiBlock67
// 1004 
// 1005 /*********************************************************************
// 1006  * @fn      zllTarget_ClassicalCommissioningStart
// 1007  *
// 1008  * @brief   Start Classical Commissioning.
// 1009  *
// 1010  * @param   none
// 1011  *
// 1012  * @return  status
// 1013  */

        RSEG BANKED_CODE:CODE:NOROOT(0)
// 1014 ZStatus_t zllTarget_ClassicalCommissioningStart()
zllTarget_ClassicalCommissioningStart:
          CFI Block cfiBlock68 Using cfiCommon0
          CFI Function zllTarget_ClassicalCommissioningStart
        CODE
// 1015 {
        FUNCALL zllTarget_ClassicalCommissioningStart, zll_ClassicalCommissioningInit
        LOCFRAME ISTACK, 2, STACK
        LOCFRAME PSTACK, 0, STACK
        LOCFRAME XSTACK, 0, STACK
        LOCFRAME IOVERLAY, 0, STATIC
        LOCFRAME DOVERLAY, 0, STATIC
        ARGFRAME ISTACK, 2, STACK
        ARGFRAME PSTACK, 0, STACK
        ARGFRAME XSTACK, 0, STACK
        ARGFRAME IOVERLAY, 0, STATIC
        ARGFRAME DOVERLAY, 0, STATIC
        PUSH    DPL
          CFI DPL0 Frame(CFA_SP, 4)
          CFI CFA_SP SP+-4
        PUSH    DPH
          CFI DPH0 Frame(CFA_SP, 5)
          CFI CFA_SP SP+-5
        ; Saved register size: 2
        ; Auto size: 0
// 1016   return ( zll_ClassicalCommissioningInit() );
        ; Setup parameters for call to function zll_ClassicalCommissioningInit
        LCALL   ??zll_ClassicalCommissioningInit?relay
        LJMP    ?Subroutine0 & 0xFFFF
          CFI EndBlock cfiBlock68
// 1017 }

        RSEG XDATA_ID:CODE:NOROOT(0)
`?<Initializer for zllTarget_CmdCBs>`:
        DATA16
        DW ??targetScanReqCB?relay
        DW ??targetDeviceInfoReqCB?relay
        DW ??targetIdentifyReqCB?relay
        DW ??targetResetToFNReqCB?relay
        DW ??targetNwkStartReqCB?relay
        DW ??targetNwkJoinRtrReqCB?relay
        DW 0H
        DW ??targetNwkUpdateReqCB?relay
        DW 0H
        DW 0H
        DW 0H
        DW 0H
        DW 0H

        RSEG XDATA_ROM_C:CONST:REORDER:NOROOT(0)
        DATA32
__Constant_64:
        DD 100

        RSEG BANK_RELAYS:CODE:REORDER:NOROOT(0)
??zllTarget_InitDevice?relay:
        CODE
        LCALL   ?BDISPATCH
        DATA24
        DC24    zllTarget_InitDevice

        RSEG BANK_RELAYS:CODE:REORDER:NOROOT(0)
??zllTarget_RegisterIdentifyCB?relay:
        CODE
        LCALL   ?BDISPATCH
        DATA24
        DC24    zllTarget_RegisterIdentifyCB

        RSEG BANK_RELAYS:CODE:REORDER:NOROOT(0)
??zllTarget_Init?relay:
        CODE
        LCALL   ?BDISPATCH
        DATA24
        DC24    zllTarget_Init

        RSEG BANK_RELAYS:CODE:REORDER:NOROOT(0)
??zllTarget_RegisterApp?relay:
        CODE
        LCALL   ?BDISPATCH
        DATA24
        DC24    zllTarget_RegisterApp

        RSEG BANK_RELAYS:CODE:REORDER:NOROOT(0)
??zllTarget_PermitJoin?relay:
        CODE
        LCALL   ?BDISPATCH
        DATA24
        DC24    zllTarget_PermitJoin

        RSEG BANK_RELAYS:CODE:REORDER:NOROOT(0)
??zllTarget_event_loop?relay:
        CODE
        LCALL   ?BDISPATCH
        DATA24
        DC24    zllTarget_event_loop

        RSEG BANK_RELAYS:CODE:REORDER:NOROOT(0)
??targetStartRtr?relay:
        CODE
        LCALL   ?BDISPATCH
        DATA24
        DC24    targetStartRtr

        RSEG BANK_RELAYS:CODE:REORDER:NOROOT(0)
??targetSelectNwkParams?relay:
        CODE
        LCALL   ?BDISPATCH
        DATA24
        DC24    targetSelectNwkParams

        RSEG BANK_RELAYS:CODE:REORDER:NOROOT(0)
??targetVerifyNwkParams?relay:
        CODE
        LCALL   ?BDISPATCH
        DATA24
        DC24    targetVerifyNwkParams

        RSEG BANK_RELAYS:CODE:REORDER:NOROOT(0)
??targetScanReqCB?relay:
        CODE
        LCALL   ?BDISPATCH
        DATA24
        DC24    targetScanReqCB

        RSEG BANK_RELAYS:CODE:REORDER:NOROOT(0)
??targetDeviceInfoReqCB?relay:
        CODE
        LCALL   ?BDISPATCH
        DATA24
        DC24    targetDeviceInfoReqCB

        RSEG BANK_RELAYS:CODE:REORDER:NOROOT(0)
??targetIdentifyReqCB?relay:
        CODE
        LCALL   ?BDISPATCH
        DATA24
        DC24    targetIdentifyReqCB

        RSEG BANK_RELAYS:CODE:REORDER:NOROOT(0)
??targetResetToFNReqCB?relay:
        CODE
        LCALL   ?BDISPATCH
        DATA24
        DC24    targetResetToFNReqCB

        RSEG BANK_RELAYS:CODE:REORDER:NOROOT(0)
??targetNwkStartReqCB?relay:
        CODE
        LCALL   ?BDISPATCH
        DATA24
        DC24    targetNwkStartReqCB

        RSEG BANK_RELAYS:CODE:REORDER:NOROOT(0)
??targetNwkJoinRtrReqCB?relay:
        CODE
        LCALL   ?BDISPATCH
        DATA24
        DC24    targetNwkJoinRtrReqCB

        RSEG BANK_RELAYS:CODE:REORDER:NOROOT(0)
??targetNwkUpdateReqCB?relay:
        CODE
        LCALL   ?BDISPATCH
        DATA24
        DC24    targetNwkUpdateReqCB

        RSEG BANK_RELAYS:CODE:REORDER:NOROOT(0)
??targetSendNwkStartRsp?relay:
        CODE
        LCALL   ?BDISPATCH
        DATA24
        DC24    targetSendNwkStartRsp

        RSEG BANK_RELAYS:CODE:REORDER:NOROOT(0)
??targetZdoLeaveCnfCB?relay:
        CODE
        LCALL   ?BDISPATCH
        DATA24
        DC24    targetZdoLeaveCnfCB

        RSEG BANK_RELAYS:CODE:REORDER:NOROOT(0)
??zllTarget_ResetToFactoryNew?relay:
        CODE
        LCALL   ?BDISPATCH
        DATA24
        DC24    zllTarget_ResetToFactoryNew

        RSEG BANK_RELAYS:CODE:REORDER:NOROOT(0)
??zllTarget_ClassicalCommissioningStart?relay:
        CODE
        LCALL   ?BDISPATCH
        DATA24
        DC24    zllTarget_ClassicalCommissioningStart

        END
// 1018 
// 1019 #if defined (MT_APP_FUNC)
// 1020 /*********************************************************************
// 1021  * @fn      targetProcessRpcMsg
// 1022  *
// 1023  * @brief   Process Test messages - currently just test app messages
// 1024  *
// 1025  * @param   srcEP - Sending Apps endpoint
// 1026  * @param   len - number of bytes
// 1027  * @param   msg - pointer to message
// 1028  *          0 - lo byte destination address
// 1029  *          1 - hi byte destination address
// 1030  *          2 - destination endpoint
// 1031  *          3 - lo byte cluster ID
// 1032  *          4 - hi byte cluster ID
// 1033  *          5 - message length
// 1034  *          6 - destination address mode (first byte of data)
// 1035  *          7 - zcl command frame
// 1036  *
// 1037  * @return  none
// 1038  */
// 1039 static void targetProcessRpcMsg( uint8 srcEP, uint8 len, uint8 *msg )
// 1040 {
// 1041   uint16 clusterID;
// 1042   uint8 zllRpcCmdID;
// 1043   clusterID = BUILD_UINT16( msg[ZLL_MT_APP_RPC_OFFSET_CLUSTER_ID],
// 1044                             msg[ZLL_MT_APP_RPC_OFFSET_CLUSTER_ID + 1] );
// 1045   zllRpcCmdID = msg[ZLL_MT_APP_RPC_OFFSET_CMD_ID];
// 1046 
// 1047   if ( clusterID == ZLL_MT_APP_RPC_CLUSTER_ID )
// 1048   {
// 1049     switch ( zllRpcCmdID )
// 1050     {
// 1051       case ZLL_MT_APP_RPC_CMD_RESET_TO_FN:
// 1052         zllTarget_ResetToFactoryNew();
// 1053         break;
// 1054       case ZLL_MT_APP_RPC_CMD_JOIN_HA:
// 1055         zllTarget_ClassicalCommissioningStart();
// 1056         break;
// 1057       case ZLL_MT_APP_RPC_CMD_PERMIT_JOIN:
// 1058         zllTarget_PermitJoin( ( len > ( ZLL_MT_APP_RPC_OFFSET_CMD_ID - 1 ) ) ?
// 1059                                msg[ZLL_MT_APP_RPC_OFFSET_CMD_ID + 1] : 0 );
// 1060         break;
// 1061     }
// 1062   }
// 1063 }
// 1064 #endif
// 1065 
// 1066 
// 1067 /*********************************************************************
// 1068 *********************************************************************/
// 
// 2 323 bytes in segment BANKED_CODE
//   120 bytes in segment BANK_RELAYS
//    26 bytes in segment XDATA_I
//    26 bytes in segment XDATA_ID
//     4 bytes in segment XDATA_ROM_C
//    72 bytes in segment XDATA_Z
// 
// 2 469 bytes of CODE  memory
//     0 bytes of CONST memory (+ 4 bytes shared)
//    98 bytes of XDATA memory
//
//Errors: none
//Warnings: none
