///////////////////////////////////////////////////////////////////////////////
//                                                                            /
// IAR C/C++ Compiler V8.20.2.41139 for 8051            27/May/2014  19:14:03 /
// Copyright 2004-2013 IAR Systems AB.                                        /
//                                                                            /
//    Core               =  plain                                             /
//    Code model         =  banked                                            /
//    Data model         =  large                                             /
//    Calling convention =  xdata reentrant                                   /
//    Constant location  =  data_rom                                          /
//    Dptr setup         =  1,16                                              /
//                                                                            /
//    Source file        =  D:\Texas Instruments\Z-Stack Lighting             /
//                          1.0.2\Projects\zstack\ZMain\TI2530DB\ZMain.c      /
//    Command line       =  -f "D:\Texas Instruments\Z-Stack Lighting         /
//                          1.0.2\Projects\zstack\ZLL\SampleApp\CC253x\..\..\ /
//                          ..\Tools\CC2530DB\f8wRouter.cfg" (-DCPU32MHZ      /
//                          -DROOT=__near_func -DMAC_CFG_APP_PENDING_QUEUE=TR /
//                          UE -DMAC_CFG_TX_DATA_MAX=5 -DMAC_CFG_TX_MAX=8     /
//                          -DMAC_CFG_RX_MAX=5 -DRTR_NWK) -f "D:\Texas        /
//                          Instruments\Z-Stack Lighting                      /
//                          1.0.2\Projects\zstack\ZLL\SampleApp\CC253x\..\..\ /
//                          ..\Tools\CC2530DB\f8wConfig.cfg" (-DZIGBEEPRO     /
//                          -DSECURE=1 -DZG_SECURE_DYNAMIC=0 -DREFLECTOR      /
//                          -DDEFAULT_CHANLIST=0x00000800                     /
//                          -DZDAPP_CONFIG_PAN_ID=0xFFFF                      /
//                          -DNWK_START_DELAY=100 -DEXTENDED_JOINING_RANDOM_M /
//                          ASK=0x007F -DBEACON_REQUEST_DELAY=100             /
//                          -DBEACON_REQ_DELAY_MASK=0x00FF                    /
//                          -DLINK_STATUS_JITTER_MASK=0x007F                  /
//                          -DROUTE_EXPIRY_TIME=30 -DAPSC_ACK_WAIT_DURATION_P /
//                          OLLED=3000 -DNWK_INDIRECT_MSG_TIMEOUT=7           /
//                          -DMAX_RREQ_ENTRIES=8 -DAPSC_MAX_FRAME_RETRIES=3   /
//                          -DNWK_MAX_DATA_RETRIES=2                          /
//                          -DMAX_POLL_FAILURE_RETRIES=2 -DMAX_BCAST=9        /
//                          -DAPS_MAX_GROUPS=16 -DMAX_RTG_ENTRIES=40          /
//                          -DNWK_MAX_BINDING_ENTRIES=4                       /
//                          -DMAX_BINDING_CLUSTER_IDS=4                       /
//                          "-DDEFAULT_KEY={0x01, 0x03, 0x05, 0x07, 0x09,     /
//                          0x0B, 0x0D, 0x0F, 0x00, 0x02, 0x04, 0x06, 0x08,   /
//                          0x0A, 0x0C, 0x0D}" -DMAC_MAX_FRAME_SIZE=116       /
//                          -DZDNWKMGR_MIN_TRANSMISSIONS=20 "-DCONST=const    /
//                          __code" -DGENERIC=__generic                       /
//                          -DRFD_RCVC_ALWAYS_ON=FALSE -DPOLL_RATE=1000       /
//                          -DQUEUED_POLL_RATE=100 -DRESPONSE_POLL_RATE=100   /
//                          -DREJOIN_POLL_RATE=440) -f "D:\Texas              /
//                          Instruments\Z-Stack Lighting                      /
//                          1.0.2\Projects\zstack\ZLL\SampleApp\CC253x\..\..\ /
//                          ..\Tools\CC2530DB\f8wZCL.cfg" "D:\Texas           /
//                          Instruments\Z-Stack Lighting                      /
//                          1.0.2\Projects\zstack\ZMain\TI2530DB\ZMain.c" -D  /
//                          FEATURE_GREEN_POWER -D SECURE=1 -D                /
//                          TC_LINKKEY_JOIN -D ZDSECMGR_TC_DEVICE_MAX=2 -D    /
//                          NV_RESTORE -D HOLD_AUTO_START -D INTER_PAN -D     /
//                          LCD_SUPPORTED=DEBUG -D ZCL_BASIC -D ZCL_READ -D   /
//                          ZCL_WRITE -D ZCL_IDENTIFY -D ZCL_ON_OFF -D        /
//                          ZCL_SCENES -D ZCL_GROUPS -D                       /
//                          ZCL_LIGHT_LINK_ENHANCE -D ZCL_LEVEL_CTRL -D       /
//                          ZCL_COLOR_CTRL -D MAX_CHANNELS_24GHZ=0x02108800   /
//                          -D xPWM_ALT2 -D xTHERMAL_SHUTDOWN -D              /
//                          ZLL_1_0_HUB_COMPATIBILITY -D DALI_LIGHT -lC       /
//                          "D:\Texas Instruments\Z-Stack Lighting            /
//                          1.0.2\Projects\zstack\ZLL\SampleApp\CC253x\Zlight /
//                           - Router\List\" -lA "D:\Texas                    /
//                          Instruments\Z-Stack Lighting                      /
//                          1.0.2\Projects\zstack\ZLL\SampleApp\CC253x\Zlight /
//                           - Router\List\" --diag_suppress Pe001,Pa010 -o   /
//                          "D:\Texas Instruments\Z-Stack Lighting            /
//                          1.0.2\Projects\zstack\ZLL\SampleApp\CC253x\Zlight /
//                           - Router\Obj\" -e --debug --core=plain           /
//                          --dptr=16,1 --data_model=large                    /
//                          --code_model=banked --calling_convention=xdata_re /
//                          entrant --place_constants=data_rom                /
//                          --nr_virtual_regs 16 -I "D:\Texas                 /
//                          Instruments\Z-Stack Lighting                      /
//                          1.0.2\Projects\zstack\ZLL\SampleApp\CC253x\" -I   /
//                          "D:\Texas Instruments\Z-Stack Lighting            /
//                          1.0.2\Projects\zstack\ZLL\SampleApp\CC253x\..\Sou /
//                          rce\" -I "D:\Texas Instruments\Z-Stack Lighting   /
//                          1.0.2\Projects\zstack\ZLL\SampleApp\CC253x\..\..\ /
//                          Source\" -I "D:\Texas Instruments\Z-Stack         /
//                          Lighting 1.0.2\Projects\zstack\ZLL\SampleApp\CC25 /
//                          3x\..\..\..\HomeAutomation\Source\" -I "D:\Texas  /
//                          Instruments\Z-Stack Lighting                      /
//                          1.0.2\Projects\zstack\ZLL\SampleApp\CC253x\..\..\ /
//                          ..\HomeAutomation\SampleLight\Source\" -I         /
//                          "D:\Texas Instruments\Z-Stack Lighting            /
//                          1.0.2\Projects\zstack\ZLL\SampleApp\CC253x\..\..\ /
//                          ..\ZMain\TI2530DB\" -I "D:\Texas                  /
//                          Instruments\Z-Stack Lighting                      /
//                          1.0.2\Projects\zstack\ZLL\SampleApp\CC253x\..\..\ /
//                          ..\..\..\Components\hal\include\" -I "D:\Texas    /
//                          Instruments\Z-Stack Lighting                      /
//                          1.0.2\Projects\zstack\ZLL\SampleApp\CC253x\..\..\ /
//                          ..\..\..\Components\hal\target\CC2530PMP4712\"    /
//                          -I "D:\Texas Instruments\Z-Stack Lighting         /
//                          1.0.2\Projects\zstack\ZLL\SampleApp\CC253x\..\..\ /
//                          ..\..\..\Components\mac\include\" -I "D:\Texas    /
//                          Instruments\Z-Stack Lighting                      /
//                          1.0.2\Projects\zstack\ZLL\SampleApp\CC253x\..\..\ /
//                          ..\..\..\Components\mac\high_level\" -I           /
//                          "D:\Texas Instruments\Z-Stack Lighting            /
//                          1.0.2\Projects\zstack\ZLL\SampleApp\CC253x\..\..\ /
//                          ..\..\..\Components\mac\low_level\srf04\" -I      /
//                          "D:\Texas Instruments\Z-Stack Lighting            /
//                          1.0.2\Projects\zstack\ZLL\SampleApp\CC253x\..\..\ /
//                          ..\..\..\Components\mac\low_level\srf04\single_ch /
//                          ip\" -I "D:\Texas Instruments\Z-Stack Lighting    /
//                          1.0.2\Projects\zstack\ZLL\SampleApp\CC253x\..\..\ /
//                          ..\..\..\Components\mt\" -I "D:\Texas             /
//                          Instruments\Z-Stack Lighting                      /
//                          1.0.2\Projects\zstack\ZLL\SampleApp\CC253x\..\..\ /
//                          ..\..\..\Components\osal\include\" -I "D:\Texas   /
//                          Instruments\Z-Stack Lighting                      /
//                          1.0.2\Projects\zstack\ZLL\SampleApp\CC253x\..\..\ /
//                          ..\..\..\Components\services\saddr\" -I           /
//                          "D:\Texas Instruments\Z-Stack Lighting            /
//                          1.0.2\Projects\zstack\ZLL\SampleApp\CC253x\..\..\ /
//                          ..\..\..\Components\services\sdata\" -I           /
//                          "D:\Texas Instruments\Z-Stack Lighting            /
//                          1.0.2\Projects\zstack\ZLL\SampleApp\CC253x\..\..\ /
//                          ..\..\..\Components\stack\af\" -I "D:\Texas       /
//                          Instruments\Z-Stack Lighting                      /
//                          1.0.2\Projects\zstack\ZLL\SampleApp\CC253x\..\..\ /
//                          ..\..\..\Components\stack\nwk\" -I "D:\Texas      /
//                          Instruments\Z-Stack Lighting                      /
//                          1.0.2\Projects\zstack\ZLL\SampleApp\CC253x\..\..\ /
//                          ..\..\..\Components\stack\sapi\" -I "D:\Texas     /
//                          Instruments\Z-Stack Lighting                      /
//                          1.0.2\Projects\zstack\ZLL\SampleApp\CC253x\..\..\ /
//                          ..\..\..\Components\stack\sec\" -I "D:\Texas      /
//                          Instruments\Z-Stack Lighting                      /
//                          1.0.2\Projects\zstack\ZLL\SampleApp\CC253x\..\..\ /
//                          ..\..\..\Components\stack\sys\" -I "D:\Texas      /
//                          Instruments\Z-Stack Lighting                      /
//                          1.0.2\Projects\zstack\ZLL\SampleApp\CC253x\..\..\ /
//                          ..\..\..\Components\stack\zcl\" -I "D:\Texas      /
//                          Instruments\Z-Stack Lighting                      /
//                          1.0.2\Projects\zstack\ZLL\SampleApp\CC253x\..\..\ /
//                          ..\..\..\Components\stack\zdo\" -I "D:\Texas      /
//                          Instruments\Z-Stack Lighting                      /
//                          1.0.2\Projects\zstack\ZLL\SampleApp\CC253x\..\..\ /
//                          ..\..\..\Components\zmac\" -I "D:\Texas           /
//                          Instruments\Z-Stack Lighting                      /
//                          1.0.2\Projects\zstack\ZLL\SampleApp\CC253x\..\..\ /
//                          ..\..\..\Components\zmac\f8w\" -Ohz               /
//                          --require_prototypes                              /
//    List file          =  D:\Texas Instruments\Z-Stack Lighting             /
//                          1.0.2\Projects\zstack\ZLL\SampleApp\CC253x\Zlight /
//                           - Router\List\ZMain.s51                          /
//                                                                            /
//                                                                            /
///////////////////////////////////////////////////////////////////////////////

        NAME ZMain

        RTMODEL "__SystemLibrary", "CLib"
        RTMODEL "__calling_convention", "xdata_reentrant"
        RTMODEL "__code_model", "banked"
        RTMODEL "__core", "plain"
        RTMODEL "__data_model", "large"
        RTMODEL "__dptr_size", "16"
        RTMODEL "__extended_stack", "disabled"
        RTMODEL "__location_for_constants", "data"
        RTMODEL "__number_of_dptrs", "1"
        RTMODEL "__rt_version", "1"

        RSEG DOVERLAY:DATA:NOROOT(0)
        RSEG IOVERLAY:IDATA:NOROOT(0)
        RSEG ISTACK:IDATA:NOROOT(0)
        RSEG PSTACK:XDATA:NOROOT(0)
        RSEG XSTACK:XDATA:NOROOT(0)

        EXTERN ?ALLOC_XSTACK8
        EXTERN ?BANKED_ENTER_XDATA
        EXTERN ?BANKED_LEAVE_XDATA
        EXTERN ?BDISPATCH
        EXTERN ?BRET
        EXTERN ?DEALLOC_XSTACK8
        EXTERN ?MOVE_LONG8_XDATA_XDATA
        EXTERN ?PUSH_XSTACK_I_THREE
        EXTERN ?PUSH_XSTACK_I_TWO
        EXTERN ?V0
        EXTERN ?XSP
        EXTERN ?XSTACK_DISP0_8
        EXTERN __INIT_XDATA_Z

        PUBLIC ??main?relay
        FUNCTION ??main?relay,0203H
        FUNCTION ??zmain_dev_info?relay,0203H
        FUNCTION ??zmain_ext_addr?relay,0203H
        PUBWEAK CLKCONCMD
        PUBWEAK CLKCONSTA
        PUBWEAK P0DIR
        PUBWEAK P0SEL
        PUBWEAK PERCFG
        PUBWEAK SLEEPCMD
        PUBWEAK SLEEPSTA
        PUBLIC dali_answer
        PUBLIC dali_answer_state
        PUBLIC dali_cmd
        PUBLIC dalishortaddr
        PUBLIC main
        FUNCTION main,0a1a03H
        ARGFRAME XSTACK, 0, STACK
        FUNCTION zmain_dev_info,021203H
        ARGFRAME XSTACK, 0, STACK
        ARGFRAME IOVERLAY, 0, STATIC
        ARGFRAME DOVERLAY, 0, STATIC
        LOCFRAME ISTACK, 1, STACK
        LOCFRAME XSTACK, 27, STACK
        FUNCTION zmain_ext_addr,021203H
        ARGFRAME XSTACK, 0, STACK
        ARGFRAME IOVERLAY, 0, STATIC
        ARGFRAME DOVERLAY, 0, STATIC
        LOCFRAME ISTACK, 2, STACK
        LOCFRAME XSTACK, 30, STACK
        
          CFI Names cfiNames0
          CFI StackFrame CFA_SP SP IDATA
          CFI StackFrame CFA_PSP16 PSP16 XDATA
          CFI StackFrame CFA_XSP16 XSP16 XDATA
          CFI StaticOverlayFrame CFA_IOVERLAY IOVERLAY
          CFI StaticOverlayFrame CFA_DOVERLAY DOVERLAY
          CFI Resource `PSW.CY`:1, `B.BR0`:1, `B.BR1`:1, `B.BR2`:1, `B.BR3`:1
          CFI Resource `B.BR4`:1, `B.BR5`:1, `B.BR6`:1, `B.BR7`:1, `VB.BR8`:1
          CFI Resource `VB.BR9`:1, `VB.BR10`:1, `VB.BR11`:1, `VB.BR12`:1
          CFI Resource `VB.BR13`:1, `VB.BR14`:1, `VB.BR15`:1, VB:8, B:8, A:8
          CFI Resource PSW:8, DPL0:8, DPH0:8, R0:8, R1:8, R2:8, R3:8, R4:8, R5:8
          CFI Resource R6:8, R7:8, V0:8, V1:8, V2:8, V3:8, V4:8, V5:8, V6:8, V7:8
          CFI Resource V8:8, V9:8, V10:8, V11:8, V12:8, V13:8, V14:8, V15:8, SP:8
          CFI Resource PSPH:8, PSPL:8, PSP16:16, XSPH:8, XSPL:8, XSP16:16
          CFI VirtualResource ?RET:24
          CFI Resource ?BRET_EXT:8
          CFI VirtualResource ?RET_HIGH:8, ?RET_LOW:8
          CFI ResourceParts PSP16 PSPH, PSPL
          CFI ResourceParts XSP16 XSPH, XSPL
          CFI ResourceParts ?RET ?BRET_EXT, ?RET_HIGH, ?RET_LOW
          CFI EndNames cfiNames0
        
          CFI Common cfiCommon0 Using cfiNames0
          CFI CodeAlign 1
          CFI DataAlign -1
          CFI ReturnAddress ?RET CODE
          CFI CFA_DOVERLAY Used
          CFI CFA_IOVERLAY Used
          CFI CFA_SP SP+-3
          CFI CFA_PSP16 PSP16+0
          CFI CFA_XSP16 XSP16+0
          CFI `PSW.CY` SameValue
          CFI `B.BR0` SameValue
          CFI `B.BR1` SameValue
          CFI `B.BR2` SameValue
          CFI `B.BR3` SameValue
          CFI `B.BR4` SameValue
          CFI `B.BR5` SameValue
          CFI `B.BR6` SameValue
          CFI `B.BR7` SameValue
          CFI `VB.BR8` SameValue
          CFI `VB.BR9` SameValue
          CFI `VB.BR10` SameValue
          CFI `VB.BR11` SameValue
          CFI `VB.BR12` SameValue
          CFI `VB.BR13` SameValue
          CFI `VB.BR14` SameValue
          CFI `VB.BR15` SameValue
          CFI VB SameValue
          CFI B Undefined
          CFI A Undefined
          CFI PSW SameValue
          CFI DPL0 SameValue
          CFI DPH0 SameValue
          CFI R0 Undefined
          CFI R1 Undefined
          CFI R2 Undefined
          CFI R3 Undefined
          CFI R4 Undefined
          CFI R5 Undefined
          CFI R6 SameValue
          CFI R7 SameValue
          CFI V0 SameValue
          CFI V1 SameValue
          CFI V2 SameValue
          CFI V3 SameValue
          CFI V4 SameValue
          CFI V5 SameValue
          CFI V6 SameValue
          CFI V7 SameValue
          CFI V8 SameValue
          CFI V9 SameValue
          CFI V10 SameValue
          CFI V11 SameValue
          CFI V12 SameValue
          CFI V13 SameValue
          CFI V14 SameValue
          CFI V15 SameValue
          CFI PSPH Undefined
          CFI PSPL Undefined
          CFI XSPH Undefined
          CFI XSPL Undefined
          CFI ?RET Concat
          CFI ?BRET_EXT Frame(CFA_SP, 3)
          CFI ?RET_HIGH Frame(CFA_SP, 2)
          CFI ?RET_LOW Frame(CFA_SP, 1)
          CFI EndCommon cfiCommon0
        
        
          CFI Common cfiCommon1 Using cfiNames0
          CFI CodeAlign 1
          CFI DataAlign -1
          CFI ReturnAddress ?RET CODE
          CFI CFA_DOVERLAY Used
          CFI CFA_IOVERLAY Used
          CFI CFA_SP SP+-2
          CFI CFA_PSP16 PSP16+0
          CFI CFA_XSP16 XSP16+0
          CFI `PSW.CY` SameValue
          CFI `B.BR0` SameValue
          CFI `B.BR1` SameValue
          CFI `B.BR2` SameValue
          CFI `B.BR3` SameValue
          CFI `B.BR4` SameValue
          CFI `B.BR5` SameValue
          CFI `B.BR6` SameValue
          CFI `B.BR7` SameValue
          CFI `VB.BR8` SameValue
          CFI `VB.BR9` SameValue
          CFI `VB.BR10` SameValue
          CFI `VB.BR11` SameValue
          CFI `VB.BR12` SameValue
          CFI `VB.BR13` SameValue
          CFI `VB.BR14` SameValue
          CFI `VB.BR15` SameValue
          CFI VB SameValue
          CFI B SameValue
          CFI A SameValue
          CFI PSW SameValue
          CFI DPL0 SameValue
          CFI DPH0 SameValue
          CFI R0 SameValue
          CFI R1 SameValue
          CFI R2 SameValue
          CFI R3 SameValue
          CFI R4 SameValue
          CFI R5 SameValue
          CFI R6 SameValue
          CFI R7 SameValue
          CFI V0 SameValue
          CFI V1 SameValue
          CFI V2 SameValue
          CFI V3 SameValue
          CFI V4 SameValue
          CFI V5 SameValue
          CFI V6 SameValue
          CFI V7 SameValue
          CFI V8 SameValue
          CFI V9 SameValue
          CFI V10 SameValue
          CFI V11 SameValue
          CFI V12 SameValue
          CFI V13 SameValue
          CFI V14 SameValue
          CFI V15 SameValue
          CFI PSPH Undefined
          CFI PSPL Undefined
          CFI XSPH Undefined
          CFI XSPL Undefined
          CFI ?RET Concat
          CFI ?BRET_EXT SameValue
          CFI ?RET_HIGH Frame(CFA_SP, 2)
          CFI ?RET_LOW Frame(CFA_SP, 1)
          CFI EndCommon cfiCommon1
        
DALI_Addressing     SYMBOL "DALI_Addressing"
??DALI_Addressing?relay SYMBOL "?relay", DALI_Addressing
DALI_Init           SYMBOL "DALI_Init"
??DALI_Init?relay   SYMBOL "?relay", DALI_Init
HalAdcCheckVdd      SYMBOL "HalAdcCheckVdd"
??HalAdcCheckVdd?relay SYMBOL "?relay", HalAdcCheckVdd
HalDriverInit       SYMBOL "HalDriverInit"
??HalDriverInit?relay SYMBOL "?relay", HalDriverInit
HalFlashRead        SYMBOL "HalFlashRead"
??HalFlashRead?relay SYMBOL "?relay", HalFlashRead
HalLcdWriteString   SYMBOL "HalLcdWriteString"
??HalLcdWriteString?relay SYMBOL "?relay", HalLcdWriteString
InitBoard           SYMBOL "InitBoard"
??InitBoard?relay   SYMBOL "?relay", InitBoard
ZMacInit            SYMBOL "ZMacInit"
??ZMacInit?relay    SYMBOL "?relay", ZMacInit
ZMacSetReq          SYMBOL "ZMacSetReq"
??ZMacSetReq?relay  SYMBOL "?relay", ZMacSetReq
osal_init_system    SYMBOL "osal_init_system"
??osal_init_system?relay SYMBOL "?relay", osal_init_system
osal_int_disable    SYMBOL "osal_int_disable"
??osal_int_disable?relay SYMBOL "?relay", osal_int_disable
osal_int_enable     SYMBOL "osal_int_enable"
??osal_int_enable?relay SYMBOL "?relay", osal_int_enable
osal_memcmp         SYMBOL "osal_memcmp"
??osal_memcmp?relay SYMBOL "?relay", osal_memcmp
osal_memcpy         SYMBOL "osal_memcpy"
??osal_memcpy?relay SYMBOL "?relay", osal_memcpy
osal_nv_init        SYMBOL "osal_nv_init"
??osal_nv_init?relay SYMBOL "?relay", osal_nv_init
osal_nv_item_init   SYMBOL "osal_nv_item_init"
??osal_nv_item_init?relay SYMBOL "?relay", osal_nv_item_init
osal_nv_read        SYMBOL "osal_nv_read"
??osal_nv_read?relay SYMBOL "?relay", osal_nv_read
osal_nv_write       SYMBOL "osal_nv_write"
??osal_nv_write?relay SYMBOL "?relay", osal_nv_write
osal_rand           SYMBOL "osal_rand"
??osal_rand?relay   SYMBOL "?relay", osal_rand
osal_start_system   SYMBOL "osal_start_system"
??osal_start_system?relay SYMBOL "?relay", osal_start_system
zgInit              SYMBOL "zgInit"
??zgInit?relay      SYMBOL "?relay", zgInit
main                SYMBOL "main"
??main?relay        SYMBOL "?relay", main

        EXTERN ??DALI_Addressing?relay
        FUNCTION ??DALI_Addressing?relay,00H
        EXTERN ??DALI_Init?relay
        FUNCTION ??DALI_Init?relay,00H
        EXTERN ??HalAdcCheckVdd?relay
        FUNCTION ??HalAdcCheckVdd?relay,00H
        EXTERN ??HalDriverInit?relay
        FUNCTION ??HalDriverInit?relay,00H
        EXTERN ??HalFlashRead?relay
        FUNCTION ??HalFlashRead?relay,00H
        EXTERN ??HalLcdWriteString?relay
        FUNCTION ??HalLcdWriteString?relay,00H
        EXTERN ??InitBoard?relay
        FUNCTION ??InitBoard?relay,00H
        EXTERN ??ZMacInit?relay
        FUNCTION ??ZMacInit?relay,00H
        EXTERN ??ZMacSetReq?relay
        FUNCTION ??ZMacSetReq?relay,00H
        EXTERN ??osal_init_system?relay
        FUNCTION ??osal_init_system?relay,00H
        EXTERN ??osal_int_disable?relay
        FUNCTION ??osal_int_disable?relay,00H
        EXTERN ??osal_int_enable?relay
        FUNCTION ??osal_int_enable?relay,00H
        EXTERN ??osal_memcmp?relay
        FUNCTION ??osal_memcmp?relay,00H
        EXTERN ??osal_memcpy?relay
        FUNCTION ??osal_memcpy?relay,00H
        EXTERN ??osal_nv_init?relay
        FUNCTION ??osal_nv_init?relay,00H
        EXTERN ??osal_nv_item_init?relay
        FUNCTION ??osal_nv_item_init?relay,00H
        EXTERN ??osal_nv_read?relay
        FUNCTION ??osal_nv_read?relay,00H
        EXTERN ??osal_nv_write?relay
        FUNCTION ??osal_nv_write?relay,00H
        EXTERN ??osal_rand?relay
        FUNCTION ??osal_rand?relay,00H
        EXTERN ??osal_start_system?relay
        FUNCTION ??osal_start_system?relay,00H
        EXTERN ??zgInit?relay
        FUNCTION ??zgInit?relay,00H
        EXTERN DALI_Addressing
        FUNCTION DALI_Addressing,0202H
        ARGFRAME ISTACK, 0, STACK
        ARGFRAME PSTACK, 0, STACK
        ARGFRAME XSTACK, 0, STACK
        ARGFRAME IOVERLAY, 0, STATIC
        ARGFRAME DOVERLAY, 0, STATIC
        EXTERN DALI_Init
        FUNCTION DALI_Init,0202H
        ARGFRAME ISTACK, 0, STACK
        ARGFRAME PSTACK, 0, STACK
        ARGFRAME XSTACK, 0, STACK
        ARGFRAME IOVERLAY, 0, STATIC
        ARGFRAME DOVERLAY, 0, STATIC
        EXTERN HalAdcCheckVdd
        FUNCTION HalAdcCheckVdd,0202H
        ARGFRAME ISTACK, 0, STACK
        ARGFRAME PSTACK, 0, STACK
        ARGFRAME XSTACK, 0, STACK
        ARGFRAME IOVERLAY, 0, STATIC
        ARGFRAME DOVERLAY, 0, STATIC
        EXTERN HalDriverInit
        FUNCTION HalDriverInit,0202H
        ARGFRAME ISTACK, 0, STACK
        ARGFRAME PSTACK, 0, STACK
        ARGFRAME XSTACK, 0, STACK
        ARGFRAME IOVERLAY, 0, STATIC
        ARGFRAME DOVERLAY, 0, STATIC
        EXTERN HalFlashRead
        FUNCTION HalFlashRead,0202H
        ARGFRAME ISTACK, 0, STACK
        ARGFRAME PSTACK, 0, STACK
        ARGFRAME XSTACK, 28, STACK
        ARGFRAME IOVERLAY, 0, STATIC
        ARGFRAME DOVERLAY, 0, STATIC
        EXTERN HalLcdWriteString
        FUNCTION HalLcdWriteString,0202H
        ARGFRAME ISTACK, 0, STACK
        ARGFRAME PSTACK, 0, STACK
        ARGFRAME XSTACK, 27, STACK
        ARGFRAME IOVERLAY, 0, STATIC
        ARGFRAME DOVERLAY, 0, STATIC
        EXTERN InitBoard
        FUNCTION InitBoard,0202H
        ARGFRAME ISTACK, 0, STACK
        ARGFRAME PSTACK, 0, STACK
        ARGFRAME XSTACK, 0, STACK
        ARGFRAME IOVERLAY, 0, STATIC
        ARGFRAME DOVERLAY, 0, STATIC
        EXTERN ZMacInit
        FUNCTION ZMacInit,0202H
        ARGFRAME ISTACK, 0, STACK
        ARGFRAME PSTACK, 0, STACK
        ARGFRAME XSTACK, 0, STACK
        ARGFRAME IOVERLAY, 0, STATIC
        ARGFRAME DOVERLAY, 0, STATIC
        EXTERN ZMacSetReq
        FUNCTION ZMacSetReq,0202H
        ARGFRAME ISTACK, 0, STACK
        ARGFRAME PSTACK, 0, STACK
        ARGFRAME XSTACK, 26, STACK
        ARGFRAME IOVERLAY, 0, STATIC
        ARGFRAME DOVERLAY, 0, STATIC
        EXTERN aExtendedAddress
        EXTERN osal_init_system
        FUNCTION osal_init_system,0202H
        ARGFRAME ISTACK, 0, STACK
        ARGFRAME PSTACK, 0, STACK
        ARGFRAME XSTACK, 0, STACK
        ARGFRAME IOVERLAY, 0, STATIC
        ARGFRAME DOVERLAY, 0, STATIC
        EXTERN osal_int_disable
        FUNCTION osal_int_disable,0202H
        ARGFRAME ISTACK, 0, STACK
        ARGFRAME PSTACK, 0, STACK
        ARGFRAME XSTACK, 0, STACK
        ARGFRAME IOVERLAY, 0, STATIC
        ARGFRAME DOVERLAY, 0, STATIC
        EXTERN osal_int_enable
        FUNCTION osal_int_enable,0202H
        ARGFRAME ISTACK, 0, STACK
        ARGFRAME PSTACK, 0, STACK
        ARGFRAME XSTACK, 0, STACK
        ARGFRAME IOVERLAY, 0, STATIC
        ARGFRAME DOVERLAY, 0, STATIC
        EXTERN osal_memcmp
        FUNCTION osal_memcmp,0202H
        ARGFRAME ISTACK, 0, STACK
        ARGFRAME PSTACK, 0, STACK
        ARGFRAME XSTACK, 29, STACK
        ARGFRAME IOVERLAY, 0, STATIC
        ARGFRAME DOVERLAY, 0, STATIC
        EXTERN osal_memcpy
        FUNCTION osal_memcpy,0202H
        ARGFRAME ISTACK, 0, STACK
        ARGFRAME PSTACK, 0, STACK
        ARGFRAME XSTACK, 29, STACK
        ARGFRAME IOVERLAY, 0, STATIC
        ARGFRAME DOVERLAY, 0, STATIC
        EXTERN osal_nv_init
        FUNCTION osal_nv_init,0202H
        ARGFRAME ISTACK, 0, STACK
        ARGFRAME PSTACK, 0, STACK
        ARGFRAME XSTACK, 0, STACK
        ARGFRAME IOVERLAY, 0, STATIC
        ARGFRAME DOVERLAY, 0, STATIC
        EXTERN osal_nv_item_init
        FUNCTION osal_nv_item_init,0202H
        ARGFRAME ISTACK, 0, STACK
        ARGFRAME PSTACK, 0, STACK
        ARGFRAME XSTACK, 28, STACK
        ARGFRAME IOVERLAY, 0, STATIC
        ARGFRAME DOVERLAY, 0, STATIC
        EXTERN osal_nv_read
        FUNCTION osal_nv_read,0202H
        ARGFRAME ISTACK, 0, STACK
        ARGFRAME PSTACK, 0, STACK
        ARGFRAME XSTACK, 30, STACK
        ARGFRAME IOVERLAY, 0, STATIC
        ARGFRAME DOVERLAY, 0, STATIC
        EXTERN osal_nv_write
        FUNCTION osal_nv_write,0202H
        ARGFRAME ISTACK, 0, STACK
        ARGFRAME PSTACK, 0, STACK
        ARGFRAME XSTACK, 30, STACK
        ARGFRAME IOVERLAY, 0, STATIC
        ARGFRAME DOVERLAY, 0, STATIC
        EXTERN osal_rand
        FUNCTION osal_rand,0202H
        ARGFRAME ISTACK, 0, STACK
        ARGFRAME PSTACK, 0, STACK
        ARGFRAME XSTACK, 26, STACK
        ARGFRAME IOVERLAY, 0, STATIC
        ARGFRAME DOVERLAY, 0, STATIC
        EXTERN osal_start_system
        FUNCTION osal_start_system,0202H
        ARGFRAME ISTACK, 0, STACK
        ARGFRAME PSTACK, 0, STACK
        ARGFRAME XSTACK, 0, STACK
        ARGFRAME IOVERLAY, 0, STATIC
        ARGFRAME DOVERLAY, 0, STATIC
        EXTERN zgInit
        FUNCTION zgInit,0202H
        ARGFRAME ISTACK, 0, STACK
        ARGFRAME PSTACK, 0, STACK
        ARGFRAME XSTACK, 0, STACK
        ARGFRAME IOVERLAY, 0, STATIC
        ARGFRAME DOVERLAY, 0, STATIC

// D:\Texas Instruments\Z-Stack Lighting 1.0.2\Projects\zstack\ZMain\TI2530DB\ZMain.c
//    1 /**************************************************************************************************
//    2   Filename:       ZMain.c
//    3   Revised:        $Date: 2010-09-17 16:25:30 -0700 (Fri, 17 Sep 2010) $
//    4   Revision:       $Revision: 23835 $
//    5 
//    6   Description:    Startup and shutdown code for ZStack
//    7   Notes:          This version targets the Chipcon CC2530
//    8 
//    9 
//   10   Copyright 2005-2010 Texas Instruments Incorporated. All rights reserved.
//   11 
//   12   IMPORTANT: Your use of this Software is limited to those specific rights
//   13   granted under the terms of a software license agreement between the user
//   14   who downloaded the software, his/her employer (which must be your employer)
//   15   and Texas Instruments Incorporated (the "License").  You may not use this
//   16   Software unless you agree to abide by the terms of the License. The License
//   17   limits your use, and you acknowledge, that the Software may not be modified,
//   18   copied or distributed unless embedded on a Texas Instruments microcontroller
//   19   or used solely and exclusively in conjunction with a Texas Instruments radio
//   20   frequency transceiver, which is integrated into your product.  Other than for
//   21   the foregoing purpose, you may not use, reproduce, copy, prepare derivative
//   22   works of, modify, distribute, perform, display or sell this Software and/or
//   23   its documentation for any purpose.
//   24 
//   25   YOU FURTHER ACKNOWLEDGE AND AGREE THAT THE SOFTWARE AND DOCUMENTATION ARE
//   26   PROVIDED “AS IS” WITHOUT WARRANTY OF ANY KIND, EITHER EXPRESS OR IMPLIED,
//   27   INCLUDING WITHOUT LIMITATION, ANY WARRANTY OF MERCHANTABILITY, TITLE,
//   28   NON-INFRINGEMENT AND FITNESS FOR A PARTICULAR PURPOSE. IN NO EVENT SHALL
//   29   TEXAS INSTRUMENTS OR ITS LICENSORS BE LIABLE OR OBLIGATED UNDER CONTRACT,
//   30   NEGLIGENCE, STRICT LIABILITY, CONTRIBUTION, BREACH OF WARRANTY, OR OTHER
//   31   LEGAL EQUITABLE THEORY ANY DIRECT OR INDIRECT DAMAGES OR EXPENSES
//   32   INCLUDING BUT NOT LIMITED TO ANY INCIDENTAL, SPECIAL, INDIRECT, PUNITIVE
//   33   OR CONSEQUENTIAL DAMAGES, LOST PROFITS OR LOST DATA, COST OF PROCUREMENT
//   34   OF SUBSTITUTE GOODS, TECHNOLOGY, SERVICES, OR ANY CLAIMS BY THIRD PARTIES
//   35   (INCLUDING BUT NOT LIMITED TO ANY DEFENSE THEREOF), OR OTHER SIMILAR COSTS.
//   36 
//   37   Should you have any questions regarding your right to use this Software,
//   38   contact Texas Instruments Incorporated at www.TI.com.
//   39 **************************************************************************************************/
//   40 
//   41 /*********************************************************************
//   42  * INCLUDES
//   43  */
//   44 
//   45 #ifndef NONWK
//   46 #include "AF.h"
//   47 #endif
//   48 #include "hal_adc.h"

        ASEGN SFR_AN:DATA:NOROOT,09dH
// unsigned char volatile __sfr SLEEPSTA
SLEEPSTA:
        DATA8
        DS 1

        ASEGN SFR_AN:DATA:NOROOT,09eH
// unsigned char volatile __sfr CLKCONSTA
CLKCONSTA:
        DATA8
        DS 1

        ASEGN SFR_AN:DATA:NOROOT,0beH
// unsigned char volatile __sfr SLEEPCMD
SLEEPCMD:
        DATA8
        DS 1

        ASEGN SFR_AN:DATA:NOROOT,0c6H
// unsigned char volatile __sfr CLKCONCMD
CLKCONCMD:
        DATA8
        DS 1

        ASEGN SFR_AN:DATA:NOROOT,0f1H
// unsigned char volatile __sfr PERCFG
PERCFG:
        DATA8
        DS 1

        ASEGN SFR_AN:DATA:NOROOT,0f3H
// unsigned char volatile __sfr P0SEL
P0SEL:
        DATA8
        DS 1

        ASEGN SFR_AN:DATA:NOROOT,0fdH
// unsigned char volatile __sfr P0DIR
P0DIR:
        DATA8
        DS 1
//   49 #include "hal_flash.h"
//   50 //#include "hal_lcd.h"
//   51 #include "hal_oled.h"
//   52 #include "hal_led.h"
//   53 #include "hal_drivers.h"
//   54 #include "OnBoard.h"
//   55 #include "OSAL.h"
//   56 #include "OSAL_Nv.h"
//   57 #include "ZComDef.h"
//   58 #include "ZMAC.h"
//   59 
//   60 #include "dali_thread.h"
//   61 
//   62 /*********************************************************************
//   63  * LOCAL FUNCTIONS
//   64  */
//   65 
//   66 static void zmain_ext_addr( void );
//   67 #if defined ZCL_KEY_ESTABLISH
//   68 static void zmain_cert_init( void );
//   69 #endif
//   70 static void zmain_dev_info( void );
//   71 static void zmain_vdd_check( void );
//   72 
//   73 #ifdef LCD_SUPPORTED
//   74 static void zmain_lcd_init( void );
//   75 #endif
//   76 
//   77 #ifdef DALI_LIGHT

        RSEG XDATA_Z:XDATA:NOROOT(0)
        DATA16
//   78 uint16 dali_cmd;
dali_cmd:
        DS 2
        REQUIRE __INIT_XDATA_Z

        RSEG XDATA_Z:XDATA:NOROOT(0)
        DATA8
//   79 uint8 dalishortaddr ,dali_answer ,dali_answer_state;
dalishortaddr:
        DS 1
        REQUIRE __INIT_XDATA_Z

        RSEG XDATA_Z:XDATA:NOROOT(0)
        DATA8
dali_answer:
        DS 1
        REQUIRE __INIT_XDATA_Z

        RSEG XDATA_Z:XDATA:NOROOT(0)
        DATA8
dali_answer_state:
        DS 1
        REQUIRE __INIT_XDATA_Z
//   80 #endif
//   81 
//   82 /*********************************************************************
//   83  * @fn      main
//   84  * @brief   First function called after startup.
//   85  * @return  don't care
//   86  */

        RSEG BANKED_CODE:CODE:NOROOT(0)
//   87 int main( void )
main:
          CFI Block cfiBlock0 Using cfiCommon0
          CFI Function main
        CODE
//   88 {
        FUNCALL main, osal_int_disable
        LOCFRAME ISTACK, 0, STACK
        LOCFRAME PSTACK, 0, STACK
        LOCFRAME XSTACK, 0, STACK
        LOCFRAME IOVERLAY, 0, STATIC
        LOCFRAME DOVERLAY, 0, STATIC
        ARGFRAME ISTACK, 0, STACK
        ARGFRAME PSTACK, 0, STACK
        ARGFRAME XSTACK, 0, STACK
        ARGFRAME IOVERLAY, 0, STATIC
        ARGFRAME DOVERLAY, 0, STATIC
        FUNCALL main, HalAdcCheckVdd
        LOCFRAME ISTACK, 0, STACK
        LOCFRAME PSTACK, 0, STACK
        LOCFRAME XSTACK, 0, STACK
        LOCFRAME IOVERLAY, 0, STATIC
        LOCFRAME DOVERLAY, 0, STATIC
        ARGFRAME ISTACK, 0, STACK
        ARGFRAME PSTACK, 0, STACK
        ARGFRAME XSTACK, 0, STACK
        ARGFRAME IOVERLAY, 0, STATIC
        ARGFRAME DOVERLAY, 0, STATIC
        FUNCALL main, InitBoard
        LOCFRAME ISTACK, 0, STACK
        LOCFRAME PSTACK, 0, STACK
        LOCFRAME XSTACK, 0, STACK
        LOCFRAME IOVERLAY, 0, STATIC
        LOCFRAME DOVERLAY, 0, STATIC
        ARGFRAME ISTACK, 0, STACK
        ARGFRAME PSTACK, 0, STACK
        ARGFRAME XSTACK, 0, STACK
        ARGFRAME IOVERLAY, 0, STATIC
        ARGFRAME DOVERLAY, 0, STATIC
        FUNCALL main, HalDriverInit
        LOCFRAME ISTACK, 0, STACK
        LOCFRAME PSTACK, 0, STACK
        LOCFRAME XSTACK, 0, STACK
        LOCFRAME IOVERLAY, 0, STATIC
        LOCFRAME DOVERLAY, 0, STATIC
        ARGFRAME ISTACK, 0, STACK
        ARGFRAME PSTACK, 0, STACK
        ARGFRAME XSTACK, 0, STACK
        ARGFRAME IOVERLAY, 0, STATIC
        ARGFRAME DOVERLAY, 0, STATIC
        FUNCALL main, osal_nv_init
        LOCFRAME ISTACK, 0, STACK
        LOCFRAME PSTACK, 0, STACK
        LOCFRAME XSTACK, 0, STACK
        LOCFRAME IOVERLAY, 0, STATIC
        LOCFRAME DOVERLAY, 0, STATIC
        ARGFRAME ISTACK, 0, STACK
        ARGFRAME PSTACK, 0, STACK
        ARGFRAME XSTACK, 0, STACK
        ARGFRAME IOVERLAY, 0, STATIC
        ARGFRAME DOVERLAY, 0, STATIC
        FUNCALL main, ZMacInit
        LOCFRAME ISTACK, 0, STACK
        LOCFRAME PSTACK, 0, STACK
        LOCFRAME XSTACK, 0, STACK
        LOCFRAME IOVERLAY, 0, STATIC
        LOCFRAME DOVERLAY, 0, STATIC
        ARGFRAME ISTACK, 0, STACK
        ARGFRAME PSTACK, 0, STACK
        ARGFRAME XSTACK, 0, STACK
        ARGFRAME IOVERLAY, 0, STATIC
        ARGFRAME DOVERLAY, 0, STATIC
        FUNCALL main, zmain_ext_addr
        LOCFRAME ISTACK, 0, STACK
        LOCFRAME PSTACK, 0, STACK
        LOCFRAME XSTACK, 0, STACK
        LOCFRAME IOVERLAY, 0, STATIC
        LOCFRAME DOVERLAY, 0, STATIC
        ARGFRAME ISTACK, 0, STACK
        ARGFRAME PSTACK, 0, STACK
        ARGFRAME XSTACK, 0, STACK
        ARGFRAME IOVERLAY, 0, STATIC
        ARGFRAME DOVERLAY, 0, STATIC
        FUNCALL main, zgInit
        LOCFRAME ISTACK, 0, STACK
        LOCFRAME PSTACK, 0, STACK
        LOCFRAME XSTACK, 0, STACK
        LOCFRAME IOVERLAY, 0, STATIC
        LOCFRAME DOVERLAY, 0, STATIC
        ARGFRAME ISTACK, 0, STACK
        ARGFRAME PSTACK, 0, STACK
        ARGFRAME XSTACK, 0, STACK
        ARGFRAME IOVERLAY, 0, STATIC
        ARGFRAME DOVERLAY, 0, STATIC
        FUNCALL main, osal_init_system
        LOCFRAME ISTACK, 0, STACK
        LOCFRAME PSTACK, 0, STACK
        LOCFRAME XSTACK, 0, STACK
        LOCFRAME IOVERLAY, 0, STATIC
        LOCFRAME DOVERLAY, 0, STATIC
        ARGFRAME ISTACK, 0, STACK
        ARGFRAME PSTACK, 0, STACK
        ARGFRAME XSTACK, 0, STACK
        ARGFRAME IOVERLAY, 0, STATIC
        ARGFRAME DOVERLAY, 0, STATIC
        FUNCALL main, osal_int_enable
        LOCFRAME ISTACK, 0, STACK
        LOCFRAME PSTACK, 0, STACK
        LOCFRAME XSTACK, 0, STACK
        LOCFRAME IOVERLAY, 0, STATIC
        LOCFRAME DOVERLAY, 0, STATIC
        ARGFRAME ISTACK, 0, STACK
        ARGFRAME PSTACK, 0, STACK
        ARGFRAME XSTACK, 0, STACK
        ARGFRAME IOVERLAY, 0, STATIC
        ARGFRAME DOVERLAY, 0, STATIC
        FUNCALL main, InitBoard
        LOCFRAME ISTACK, 0, STACK
        LOCFRAME PSTACK, 0, STACK
        LOCFRAME XSTACK, 0, STACK
        LOCFRAME IOVERLAY, 0, STATIC
        LOCFRAME DOVERLAY, 0, STATIC
        ARGFRAME ISTACK, 0, STACK
        ARGFRAME PSTACK, 0, STACK
        ARGFRAME XSTACK, 0, STACK
        ARGFRAME IOVERLAY, 0, STATIC
        ARGFRAME DOVERLAY, 0, STATIC
        FUNCALL main, zmain_dev_info
        LOCFRAME ISTACK, 0, STACK
        LOCFRAME PSTACK, 0, STACK
        LOCFRAME XSTACK, 0, STACK
        LOCFRAME IOVERLAY, 0, STATIC
        LOCFRAME DOVERLAY, 0, STATIC
        ARGFRAME ISTACK, 0, STACK
        ARGFRAME PSTACK, 0, STACK
        ARGFRAME XSTACK, 0, STACK
        ARGFRAME IOVERLAY, 0, STATIC
        ARGFRAME DOVERLAY, 0, STATIC
        FUNCALL main, HalLcdWriteString
        LOCFRAME ISTACK, 0, STACK
        LOCFRAME PSTACK, 0, STACK
        LOCFRAME XSTACK, 0, STACK
        LOCFRAME IOVERLAY, 0, STATIC
        LOCFRAME DOVERLAY, 0, STATIC
        ARGFRAME ISTACK, 0, STACK
        ARGFRAME PSTACK, 0, STACK
        ARGFRAME XSTACK, 0, STACK
        ARGFRAME IOVERLAY, 0, STATIC
        ARGFRAME DOVERLAY, 0, STATIC
        FUNCALL main, DALI_Init
        LOCFRAME ISTACK, 0, STACK
        LOCFRAME PSTACK, 0, STACK
        LOCFRAME XSTACK, 0, STACK
        LOCFRAME IOVERLAY, 0, STATIC
        LOCFRAME DOVERLAY, 0, STATIC
        ARGFRAME ISTACK, 0, STACK
        ARGFRAME PSTACK, 0, STACK
        ARGFRAME XSTACK, 0, STACK
        ARGFRAME IOVERLAY, 0, STATIC
        ARGFRAME DOVERLAY, 0, STATIC
        FUNCALL main, DALI_Addressing
        LOCFRAME ISTACK, 0, STACK
        LOCFRAME PSTACK, 0, STACK
        LOCFRAME XSTACK, 0, STACK
        LOCFRAME IOVERLAY, 0, STATIC
        LOCFRAME DOVERLAY, 0, STATIC
        ARGFRAME ISTACK, 0, STACK
        ARGFRAME PSTACK, 0, STACK
        ARGFRAME XSTACK, 0, STACK
        ARGFRAME IOVERLAY, 0, STATIC
        ARGFRAME DOVERLAY, 0, STATIC
        FUNCALL main, osal_start_system
        LOCFRAME ISTACK, 0, STACK
        LOCFRAME PSTACK, 0, STACK
        LOCFRAME XSTACK, 0, STACK
        LOCFRAME IOVERLAY, 0, STATIC
        LOCFRAME DOVERLAY, 0, STATIC
        ARGFRAME ISTACK, 0, STACK
        ARGFRAME PSTACK, 0, STACK
        ARGFRAME XSTACK, 0, STACK
        ARGFRAME IOVERLAY, 0, STATIC
        ARGFRAME DOVERLAY, 0, STATIC
        ; Auto size: 0
//   89   // Turn off interrupts
//   90   osal_int_disable( INTS_ALL );
        ; Setup parameters for call to function osal_int_disable
        MOV     R1,#-0x1
        LCALL   ??osal_int_disable?relay
//   91 
//   92   // Initialization for board related stuff such as LEDs
//   93   HAL_BOARD_INIT();
        ANL     0xbe,#0xfb
??main_0:
        MOV     A,0x9d
        MOV     C,0xE0 /* A   */.6
        JNC     ??main_0
        NOP
        MOV     R0,#-0x8
        MOV     R1,#0x1
??main_1:
        NOP
        MOV     A,R0
        ADD     A,#-0x1
        DEC     R0
        MOV     A,R1
        ADDC    A,#-0x1
        MOV     R1,A
        MOV     A,R0
        ORL     A,R1
        JNZ     ??main_1
        MOV     0xc6,#0x0
??main_2:
        MOV     A,0x9e
        JNZ     ??main_2
        ORL     0xbe,#0x4
        MOV     DPTR,#0x6270
        MOV     A,#0x8
        MOVX    @DPTR,A
        ORL     0xf1,#0x2
        ORL     0xf1,#0x1
        ANL     0xf1,#0xbf
        ORL     0xf3,#0x78
        ORL     0xfd,#0x78
//   94 
//   95   // Make sure supply voltage is high enough to run
//   96   zmain_vdd_check();
        MOV     R6,#0x10
??main_3:
        ; Setup parameters for call to function HalAdcCheckVdd
        MOV     R1,#0x4a
        LCALL   ??HalAdcCheckVdd?relay
        MOV     A,R1
        JZ      ??main_3
        DEC     R6
        MOV     A,R6
        JNZ     ??main_3
//   97 
//   98   // Initialize board I/O
//   99   InitBoard( OB_COLD );
        ; Setup parameters for call to function InitBoard
        MOV     R1,#0x0
        LCALL   ??InitBoard?relay
//  100 
//  101   // Initialze HAL drivers
//  102   HalDriverInit();
        ; Setup parameters for call to function HalDriverInit
        LCALL   ??HalDriverInit?relay
//  103 
//  104   // Initialize NV System
//  105   osal_nv_init( NULL );
        ; Setup parameters for call to function osal_nv_init
        MOV     R2,#0x0
        MOV     R3,#0x0
        LCALL   ??osal_nv_init?relay
//  106 
//  107   // Initialize the MAC
//  108   ZMacInit();
        ; Setup parameters for call to function ZMacInit
        LCALL   ??ZMacInit?relay
//  109 
//  110   // Determine the extended address
//  111   zmain_ext_addr();
        ; Setup parameters for call to function zmain_ext_addr
        LCALL   ??zmain_ext_addr?relay
//  112 
//  113 #if defined ZCL_KEY_ESTABLISH
//  114   // Initialize the Certicom certificate information.
//  115   zmain_cert_init();
//  116 #endif
//  117 
//  118   // Initialize basic NV items
//  119   zgInit();
        ; Setup parameters for call to function zgInit
        LCALL   ??zgInit?relay
//  120 
//  121 #ifndef NONWK
//  122   // Since the AF isn't a task, call it's initialization routine
//  123   afInit();
//  124 #endif
//  125 
//  126   // Initialize the operating system
//  127   osal_init_system();
        ; Setup parameters for call to function osal_init_system
        LCALL   ??osal_init_system?relay
//  128 
//  129   // Allow interrupts
//  130   osal_int_enable( INTS_ALL );
        ; Setup parameters for call to function osal_int_enable
        MOV     R1,#-0x1
        LCALL   ??osal_int_enable?relay
//  131 
//  132   // Final board initialization
//  133   InitBoard( OB_READY );
        ; Setup parameters for call to function InitBoard
        MOV     R1,#0x2
        LCALL   ??InitBoard?relay
//  134 
//  135   // Display information about this device
//  136   zmain_dev_info();
        ; Setup parameters for call to function zmain_dev_info
        LCALL   ??zmain_dev_info?relay
//  137 
//  138   /* Display the device info on the LCD */
//  139 #ifdef LCD_SUPPORTED
//  140   zmain_lcd_init();
        ; Setup parameters for call to function HalLcdWriteString
        MOV     R1,#0x1
        MOV     R2,#`?<Constant "TexasInstruments">` & 0xff
        MOV     R3,#(`?<Constant "TexasInstruments">` >> 8) & 0xff
        LCALL   ??HalLcdWriteString?relay
//  141 #endif
//  142 
//  143 #ifdef WDT_IN_PM1
//  144   /* If WDT is used, this is a good place to enable it. */
//  145   WatchDogEnable( WDTIMX );
//  146 #endif
//  147 
//  148 #ifdef DALI_LIGHT
//  149   DALI_Init();//DALI thread initialization
        ; Setup parameters for call to function DALI_Init
        LCALL   ??DALI_Init?relay
//  150   DALI_Addressing();//allocate DALI address
        ; Setup parameters for call to function DALI_Addressing
        LCALL   ??DALI_Addressing?relay
//  151 #endif
//  152 
//  153   osal_start_system(); // No Return from here
        ; Setup parameters for call to function osal_start_system
        LCALL   ??osal_start_system?relay
//  154 
//  155   return 0;  // Shouldn't get here.
        MOV     R2,#0x0
        MOV     R3,#0x0
        LJMP    ?BRET
          CFI EndBlock cfiBlock0
        REQUIRE SLEEPCMD
        REQUIRE SLEEPSTA
        REQUIRE CLKCONCMD
        REQUIRE CLKCONSTA
        REQUIRE PERCFG
        REQUIRE P0SEL
        REQUIRE P0DIR
//  156 } // main()
//  157 
//  158 /*********************************************************************
//  159  * @fn      zmain_vdd_check
//  160  * @brief   Check if the Vdd is OK to run the processor.
//  161  * @return  Return if Vdd is ok; otherwise, flash LED, then reset
//  162  *********************************************************************/
//  163 static void zmain_vdd_check( void )
//  164 {
//  165   uint8 cnt = 16;
//  166   
//  167   do {
//  168     while (!HalAdcCheckVdd(VDD_MIN_RUN));
//  169   } while (--cnt);
//  170 }
//  171 
//  172 /**************************************************************************************************
//  173  * @fn          zmain_ext_addr
//  174  *
//  175  * @brief       Execute a prioritized search for a valid extended address and write the results
//  176  *              into the OSAL NV system for use by the system. Temporary address not saved to NV.
//  177  *
//  178  * input parameters
//  179  *
//  180  * None.
//  181  *
//  182  * output parameters
//  183  *
//  184  * None.
//  185  *
//  186  * @return      None.
//  187  **************************************************************************************************
//  188  */

        RSEG BANKED_CODE:CODE:NOROOT(0)
//  189 static void zmain_ext_addr(void)
zmain_ext_addr:
          CFI Block cfiBlock1 Using cfiCommon0
          CFI Function zmain_ext_addr
        CODE
//  190 {
        FUNCALL zmain_ext_addr, osal_nv_item_init
        LOCFRAME ISTACK, 0, STACK
        LOCFRAME PSTACK, 0, STACK
        LOCFRAME XSTACK, 28, STACK
        LOCFRAME IOVERLAY, 0, STATIC
        LOCFRAME DOVERLAY, 0, STATIC
        ARGFRAME ISTACK, 0, STACK
        ARGFRAME PSTACK, 0, STACK
        ARGFRAME XSTACK, 28, STACK
        ARGFRAME IOVERLAY, 0, STATIC
        ARGFRAME DOVERLAY, 0, STATIC
        FUNCALL zmain_ext_addr, osal_nv_read
        LOCFRAME ISTACK, 0, STACK
        LOCFRAME PSTACK, 0, STACK
        LOCFRAME XSTACK, 30, STACK
        LOCFRAME IOVERLAY, 0, STATIC
        LOCFRAME DOVERLAY, 0, STATIC
        ARGFRAME ISTACK, 0, STACK
        ARGFRAME PSTACK, 0, STACK
        ARGFRAME XSTACK, 30, STACK
        ARGFRAME IOVERLAY, 0, STATIC
        ARGFRAME DOVERLAY, 0, STATIC
        FUNCALL zmain_ext_addr, osal_memcmp
        LOCFRAME ISTACK, 0, STACK
        LOCFRAME PSTACK, 0, STACK
        LOCFRAME XSTACK, 29, STACK
        LOCFRAME IOVERLAY, 0, STATIC
        LOCFRAME DOVERLAY, 0, STATIC
        ARGFRAME ISTACK, 0, STACK
        ARGFRAME PSTACK, 0, STACK
        ARGFRAME XSTACK, 29, STACK
        ARGFRAME IOVERLAY, 0, STATIC
        ARGFRAME DOVERLAY, 0, STATIC
        FUNCALL zmain_ext_addr, HalFlashRead
        LOCFRAME ISTACK, 0, STACK
        LOCFRAME PSTACK, 0, STACK
        LOCFRAME XSTACK, 28, STACK
        LOCFRAME IOVERLAY, 0, STATIC
        LOCFRAME DOVERLAY, 0, STATIC
        ARGFRAME ISTACK, 0, STACK
        ARGFRAME PSTACK, 0, STACK
        ARGFRAME XSTACK, 28, STACK
        ARGFRAME IOVERLAY, 0, STATIC
        ARGFRAME DOVERLAY, 0, STATIC
        FUNCALL zmain_ext_addr, osal_memcmp
        LOCFRAME ISTACK, 0, STACK
        LOCFRAME PSTACK, 0, STACK
        LOCFRAME XSTACK, 29, STACK
        LOCFRAME IOVERLAY, 0, STATIC
        LOCFRAME DOVERLAY, 0, STATIC
        ARGFRAME ISTACK, 0, STACK
        ARGFRAME PSTACK, 0, STACK
        ARGFRAME XSTACK, 29, STACK
        ARGFRAME IOVERLAY, 0, STATIC
        ARGFRAME DOVERLAY, 0, STATIC
        FUNCALL zmain_ext_addr, osal_memcmp
        LOCFRAME ISTACK, 0, STACK
        LOCFRAME PSTACK, 0, STACK
        LOCFRAME XSTACK, 29, STACK
        LOCFRAME IOVERLAY, 0, STATIC
        LOCFRAME DOVERLAY, 0, STATIC
        ARGFRAME ISTACK, 0, STACK
        ARGFRAME PSTACK, 0, STACK
        ARGFRAME XSTACK, 29, STACK
        ARGFRAME IOVERLAY, 0, STATIC
        ARGFRAME DOVERLAY, 0, STATIC
        FUNCALL zmain_ext_addr, osal_memcpy
        LOCFRAME ISTACK, 0, STACK
        LOCFRAME PSTACK, 0, STACK
        LOCFRAME XSTACK, 29, STACK
        LOCFRAME IOVERLAY, 0, STATIC
        LOCFRAME DOVERLAY, 0, STATIC
        ARGFRAME ISTACK, 0, STACK
        ARGFRAME PSTACK, 0, STACK
        ARGFRAME XSTACK, 29, STACK
        ARGFRAME IOVERLAY, 0, STATIC
        ARGFRAME DOVERLAY, 0, STATIC
        FUNCALL zmain_ext_addr, osal_rand
        LOCFRAME ISTACK, 0, STACK
        LOCFRAME PSTACK, 0, STACK
        LOCFRAME XSTACK, 26, STACK
        LOCFRAME IOVERLAY, 0, STATIC
        LOCFRAME DOVERLAY, 0, STATIC
        ARGFRAME ISTACK, 0, STACK
        ARGFRAME PSTACK, 0, STACK
        ARGFRAME XSTACK, 26, STACK
        ARGFRAME IOVERLAY, 0, STATIC
        ARGFRAME DOVERLAY, 0, STATIC
        FUNCALL zmain_ext_addr, osal_nv_write
        LOCFRAME ISTACK, 0, STACK
        LOCFRAME PSTACK, 0, STACK
        LOCFRAME XSTACK, 30, STACK
        LOCFRAME IOVERLAY, 0, STATIC
        LOCFRAME DOVERLAY, 0, STATIC
        ARGFRAME ISTACK, 0, STACK
        ARGFRAME PSTACK, 0, STACK
        ARGFRAME XSTACK, 30, STACK
        ARGFRAME IOVERLAY, 0, STATIC
        ARGFRAME DOVERLAY, 0, STATIC
        FUNCALL zmain_ext_addr, ZMacSetReq
        LOCFRAME ISTACK, 0, STACK
        LOCFRAME PSTACK, 0, STACK
        LOCFRAME XSTACK, 26, STACK
        LOCFRAME IOVERLAY, 0, STATIC
        LOCFRAME DOVERLAY, 0, STATIC
        ARGFRAME ISTACK, 0, STACK
        ARGFRAME PSTACK, 0, STACK
        ARGFRAME XSTACK, 26, STACK
        ARGFRAME IOVERLAY, 0, STATIC
        ARGFRAME DOVERLAY, 0, STATIC
        MOV     A,#-0x12
        LCALL   ?BANKED_ENTER_XDATA
          CFI DPH0 load(1, XDATA, add(CFA_XSP16, literal(-1)))
          CFI DPL0 load(1, XDATA, add(CFA_XSP16, literal(-2)))
          CFI ?BRET_EXT load(1, XDATA, add(CFA_XSP16, literal(-3)))
          CFI ?RET_HIGH load(1, XDATA, add(CFA_XSP16, literal(-4)))
          CFI ?RET_LOW load(1, XDATA, add(CFA_XSP16, literal(-5)))
          CFI R7 load(1, XDATA, add(CFA_XSP16, literal(-6)))
          CFI V9 load(1, XDATA, add(CFA_XSP16, literal(-7)))
          CFI V8 load(1, XDATA, add(CFA_XSP16, literal(-8)))
          CFI V7 load(1, XDATA, add(CFA_XSP16, literal(-9)))
          CFI V6 load(1, XDATA, add(CFA_XSP16, literal(-10)))
          CFI V5 load(1, XDATA, add(CFA_XSP16, literal(-11)))
          CFI V4 load(1, XDATA, add(CFA_XSP16, literal(-12)))
          CFI V3 load(1, XDATA, add(CFA_XSP16, literal(-13)))
          CFI V2 load(1, XDATA, add(CFA_XSP16, literal(-14)))
          CFI V1 load(1, XDATA, add(CFA_XSP16, literal(-15)))
          CFI V0 load(1, XDATA, add(CFA_XSP16, literal(-16)))
          CFI VB load(1, XDATA, add(CFA_XSP16, literal(-17)))
          CFI R6 load(1, XDATA, add(CFA_XSP16, literal(-18)))
          CFI CFA_SP SP+0
          CFI CFA_XSP16 add(XSP16, 18)
        ; Saved register size: 18
        ; Auto size: 8
        MOV     A,#-0x8
        LCALL   ?ALLOC_XSTACK8
          CFI CFA_XSP16 add(XSP16, 26)
//  191   uint8 nullAddr[Z_EXTADDR_LEN] = {0xFF, 0xFF, 0xFF, 0xFF, 0xFF, 0xFF, 0xFF, 0xFF};
        MOV     DPL,?XSP + 0
        MOV     DPH,?XSP + 1
        MOV     R4,DPL
        MOV     R5,DPH
        MOV     DPH,#(`?<Constant {255, 255, 255, 255, 255, 255, 255,` >> 8) & 0xff
        MOV     DPL,#`?<Constant {255, 255, 255, 255, 255, 255, 255,` & 0xff
        MOV     A,#0x8
        LCALL   ?MOVE_LONG8_XDATA_XDATA
//  192   uint8 writeNV = TRUE;
//  193 
//  194   // First check whether a non-erased extended address exists in the OSAL NV.
//  195   if ((SUCCESS != osal_nv_item_init(ZCD_NV_EXTADDR, Z_EXTADDR_LEN, NULL))  ||
//  196       (SUCCESS != osal_nv_read(ZCD_NV_EXTADDR, 0, Z_EXTADDR_LEN, aExtendedAddress)) ||
//  197       (osal_memcmp(aExtendedAddress, nullAddr, Z_EXTADDR_LEN)))
        MOV     ?V0 + 0,#aExtendedAddress & 0xff
        MOV     ?V0 + 1,#(aExtendedAddress >> 8) & 0xff
        MOV     ?V0 + 2,A
        MOV     DPL,?XSP + 0
        MOV     DPH,?XSP + 1
        MOV     R1,DPL
        MOV     R2,DPH
        MOV     ?V0 + 4,R1
        MOV     ?V0 + 5,R2
        MOV     ?V0 + 6,A
        ; Setup parameters for call to function osal_nv_item_init
        MOV     ?V0 + 8,A
        MOV     ?V0 + 9,A
        MOV     R0,#?V0 + 8
        LCALL   ?PUSH_XSTACK_I_TWO
          CFI CFA_XSP16 add(XSP16, 28)
        MOV     R4,#0x8
        MOV     R5,#0x0
        MOV     R2,#0x1
        MOV     R3,#0x0
        LCALL   ??osal_nv_item_init?relay
        MOV     A,#0x2
        LCALL   ?DEALLOC_XSTACK8
          CFI CFA_XSP16 add(XSP16, 26)
        MOV     A,R1
        JNZ     ??zmain_ext_addr_0
        ; Setup parameters for call to function osal_nv_read
        MOV     ?V0 + 8,#aExtendedAddress & 0xff
        MOV     ?V0 + 9,#(aExtendedAddress >> 8) & 0xff
        MOV     R0,#?V0 + 8
        LCALL   ?PUSH_XSTACK_I_TWO
          CFI CFA_XSP16 add(XSP16, 28)
        MOV     ?V0 + 8,#0x8
        MOV     ?V0 + 9,#0x0
        MOV     R0,#?V0 + 8
        LCALL   ?PUSH_XSTACK_I_TWO
          CFI CFA_XSP16 add(XSP16, 30)
        MOV     R4,#0x0
        MOV     R5,#0x0
        MOV     R2,#0x1
        MOV     R3,#0x0
        LCALL   ??osal_nv_read?relay
        MOV     A,#0x4
        LCALL   ?DEALLOC_XSTACK8
          CFI CFA_XSP16 add(XSP16, 26)
        MOV     A,R1
        JNZ     ??zmain_ext_addr_0
        ; Setup parameters for call to function osal_memcmp
        MOV     R0,#?V0 + 4
        LCALL   ?PUSH_XSTACK_I_THREE
          CFI CFA_XSP16 add(XSP16, 29)
        MOV     R4,#0x8
        MOV     R5,#0x0
        MOV     R1,?V0 + 0
        MOV     R2,?V0 + 1
        MOV     R3,?V0 + 2
        LCALL   ??osal_memcmp?relay
        MOV     A,#0x3
        LCALL   ?DEALLOC_XSTACK8
          CFI CFA_XSP16 add(XSP16, 26)
        MOV     A,R1
        JNZ     $+5
        LJMP    ??zmain_ext_addr_1 & 0xFFFF
//  198   {
//  199     // Attempt to read the extended address from the location on the lock bits page
//  200     // where the programming tools know to reserve it.
//  201     HalFlashRead(HAL_FLASH_IEEE_PAGE, HAL_FLASH_IEEE_OSET, aExtendedAddress, Z_EXTADDR_LEN);
??zmain_ext_addr_0:
        ; Setup parameters for call to function HalFlashRead
        MOV     ?V0 + 8,#0x8
        MOV     R0,#?V0 + 8
        LCALL   ?PUSH_XSTACK_I_TWO
          CFI CFA_XSP16 add(XSP16, 28)
        MOV     R4,#aExtendedAddress & 0xff
        MOV     R5,#(aExtendedAddress >> 8) & 0xff
        MOV     R2,#-0x18
        MOV     R3,#0x7
        MOV     R1,#0x7f
        LCALL   ??HalFlashRead?relay
        MOV     A,#0x2
        LCALL   ?DEALLOC_XSTACK8
          CFI CFA_XSP16 add(XSP16, 26)
//  202 
//  203     if (osal_memcmp(aExtendedAddress, nullAddr, Z_EXTADDR_LEN))
        ; Setup parameters for call to function osal_memcmp
        MOV     R0,#?V0 + 4
        LCALL   ?PUSH_XSTACK_I_THREE
          CFI CFA_XSP16 add(XSP16, 29)
        MOV     R4,#0x8
        MOV     R5,#0x0
        MOV     R1,?V0 + 0
        MOV     R2,?V0 + 1
        MOV     R3,?V0 + 2
        LCALL   ??osal_memcmp?relay
        MOV     A,#0x3
        LCALL   ?DEALLOC_XSTACK8
          CFI CFA_XSP16 add(XSP16, 26)
        MOV     A,R1
        JZ      ??zmain_ext_addr_2
//  204     {
//  205       // Attempt to read the extended address from the designated location in the Info Page.
//  206       if (!osal_memcmp((uint8 *)(P_INFOPAGE+HAL_INFOP_IEEE_OSET), nullAddr, Z_EXTADDR_LEN))
        ; Setup parameters for call to function osal_memcmp
        MOV     R0,#?V0 + 4
        LCALL   ?PUSH_XSTACK_I_THREE
          CFI CFA_XSP16 add(XSP16, 29)
        MOV     R4,#0x8
        MOV     R5,#0x0
        MOV     R1,#0xc
        MOV     R2,#0x78
        MOV     R3,#0x0
        LCALL   ??osal_memcmp?relay
        MOV     A,#0x3
        LCALL   ?DEALLOC_XSTACK8
          CFI CFA_XSP16 add(XSP16, 26)
        MOV     A,R1
        JNZ     ??zmain_ext_addr_3
//  207       {
//  208         osal_memcpy(aExtendedAddress, (uint8 *)(P_INFOPAGE+HAL_INFOP_IEEE_OSET), Z_EXTADDR_LEN);
        ; Setup parameters for call to function osal_memcpy
        MOV     ?V0 + 0,#0xc
        MOV     ?V0 + 1,#0x78
        MOV     R0,#?V0 + 0
        LCALL   ?PUSH_XSTACK_I_THREE
          CFI CFA_XSP16 add(XSP16, 29)
        MOV     R4,#0x8
        MOV     R5,#0x0
        MOV     R2,#aExtendedAddress & 0xff
        MOV     R3,#(aExtendedAddress >> 8) & 0xff
        LCALL   ??osal_memcpy?relay
        MOV     A,#0x3
        LCALL   ?DEALLOC_XSTACK8
          CFI CFA_XSP16 add(XSP16, 26)
        SJMP    ??zmain_ext_addr_2
//  209       }
//  210       else  // No valid extended address was found.
//  211       {
//  212         uint8 idx;
//  213         
//  214 #if !defined ( NV_RESTORE )
//  215         writeNV = FALSE;  // Make this a temporary IEEE address
//  216 #endif
//  217 
//  218         /* Attempt to create a sufficiently random extended address for expediency.
//  219          * Note: this is only valid/legal in a test environment and
//  220          *       must never be used for a commercial product.
//  221          */
//  222         for (idx = 0; idx < (Z_EXTADDR_LEN - 2);)
??zmain_ext_addr_3:
        MOV     R6,#0x0
//  223         {
//  224           uint16 randy = osal_rand();
??zmain_ext_addr_4:
        ; Setup parameters for call to function osal_rand
        LCALL   ??osal_rand?relay
        MOV     ?V0 + 0,R2
        MOV     R0,?V0 + 0
//  225           aExtendedAddress[idx++] = LO_UINT16(randy);
        LCALL   ?Subroutine0 & 0xFFFF
??CrossCallReturnLabel_0:
        MOV     A,R0
        MOVX    @DPTR,A
        INC     R6
//  226           aExtendedAddress[idx++] = HI_UINT16(randy);
        LCALL   ?Subroutine0 & 0xFFFF
//  227         }
??CrossCallReturnLabel_1:
        MOV     A,R3
        MOVX    @DPTR,A
        INC     R6
        MOV     A,R6
        CLR     C
        SUBB    A,#0x6
        JC      ??zmain_ext_addr_4
//  228         // Next-to-MSB identifies ZigBee devicetype.
//  229 #if ZG_BUILD_COORDINATOR_TYPE && !ZG_BUILD_JOINING_TYPE
//  230         aExtendedAddress[idx++] = 0x10;
//  231 #elif ZG_BUILD_RTRONLY_TYPE
//  232         aExtendedAddress[idx++] = 0x20;
        LCALL   ?Subroutine0 & 0xFFFF
??CrossCallReturnLabel_2:
        MOV     A,#0x20
        MOVX    @DPTR,A
//  233 #else
//  234         aExtendedAddress[idx++] = 0x30;
//  235 #endif
//  236         // MSB has historical signficance.
//  237         aExtendedAddress[idx] = 0xF8;
        MOV     A,#0x1
        ADD     A,R6
        MOV     R0,A
        MOV     A,#aExtendedAddress & 0xff
        ADD     A,R0
        MOV     DPL,A
        MOV     A,#(aExtendedAddress >> 8) & 0xff
        ADDC    A,#0x0
        MOV     DPH,A
        MOV     A,#-0x8
        MOVX    @DPTR,A
//  238       }
//  239     }
//  240 
//  241     if (writeNV)
//  242     {
//  243       (void)osal_nv_write(ZCD_NV_EXTADDR, 0, Z_EXTADDR_LEN, aExtendedAddress);
??zmain_ext_addr_2:
        ; Setup parameters for call to function osal_nv_write
        MOV     ?V0 + 0,#aExtendedAddress & 0xff
        MOV     ?V0 + 1,#(aExtendedAddress >> 8) & 0xff
        MOV     R0,#?V0 + 0
        LCALL   ?PUSH_XSTACK_I_TWO
          CFI CFA_XSP16 add(XSP16, 28)
        MOV     ?V0 + 0,#0x8
        MOV     ?V0 + 1,#0x0
        MOV     R0,#?V0 + 0
        LCALL   ?PUSH_XSTACK_I_TWO
          CFI CFA_XSP16 add(XSP16, 30)
        MOV     R4,#0x0
        MOV     R5,#0x0
        MOV     R2,#0x1
        MOV     R3,#0x0
        LCALL   ??osal_nv_write?relay
        MOV     A,#0x4
        LCALL   ?DEALLOC_XSTACK8
          CFI CFA_XSP16 add(XSP16, 26)
//  244     }
//  245   }
//  246 
//  247   // Set the MAC PIB extended address according to results from above.
//  248   (void)ZMacSetReq(MAC_EXTENDED_ADDRESS, aExtendedAddress);
??zmain_ext_addr_1:
        ; Setup parameters for call to function ZMacSetReq
        MOV     R2,#aExtendedAddress & 0xff
        MOV     R3,#(aExtendedAddress >> 8) & 0xff
        MOV     R1,#-0x1e
        LCALL   ??ZMacSetReq?relay
//  249 }
        MOV     A,#0x8
        LCALL   ?DEALLOC_XSTACK8
          CFI CFA_XSP16 add(XSP16, 18)
        MOV     R7,#0xa
        LJMP    ?BANKED_LEAVE_XDATA
          CFI EndBlock cfiBlock1

        RSEG BANKED_CODE:CODE:NOROOT(0)
?Subroutine0:
          CFI Block cfiCond2 Using cfiCommon0
          CFI Function zmain_ext_addr
          CFI Conditional ??CrossCallReturnLabel_0
          CFI R6 load(1, XDATA, add(CFA_XSP16, literal(-18)))
          CFI VB load(1, XDATA, add(CFA_XSP16, literal(-17)))
          CFI V0 load(1, XDATA, add(CFA_XSP16, literal(-16)))
          CFI V1 load(1, XDATA, add(CFA_XSP16, literal(-15)))
          CFI V2 load(1, XDATA, add(CFA_XSP16, literal(-14)))
          CFI V3 load(1, XDATA, add(CFA_XSP16, literal(-13)))
          CFI V4 load(1, XDATA, add(CFA_XSP16, literal(-12)))
          CFI V5 load(1, XDATA, add(CFA_XSP16, literal(-11)))
          CFI V6 load(1, XDATA, add(CFA_XSP16, literal(-10)))
          CFI V7 load(1, XDATA, add(CFA_XSP16, literal(-9)))
          CFI V8 load(1, XDATA, add(CFA_XSP16, literal(-8)))
          CFI V9 load(1, XDATA, add(CFA_XSP16, literal(-7)))
          CFI R7 load(1, XDATA, add(CFA_XSP16, literal(-6)))
          CFI ?RET_LOW load(1, XDATA, add(CFA_XSP16, literal(-5)))
          CFI ?RET_HIGH load(1, XDATA, add(CFA_XSP16, literal(-4)))
          CFI ?BRET_EXT load(1, XDATA, add(CFA_XSP16, literal(-3)))
          CFI DPL0 load(1, XDATA, add(CFA_XSP16, literal(-2)))
          CFI DPH0 load(1, XDATA, add(CFA_XSP16, literal(-1)))
          CFI CFA_SP SP+0
          CFI CFA_XSP16 add(XSP16, 26)
          CFI Block cfiCond3 Using cfiCommon0
          CFI (cfiCond3) Function zmain_ext_addr
          CFI (cfiCond3) Conditional ??CrossCallReturnLabel_1
          CFI (cfiCond3) R6 load(1, XDATA, add(CFA_XSP16, literal(-18)))
          CFI (cfiCond3) VB load(1, XDATA, add(CFA_XSP16, literal(-17)))
          CFI (cfiCond3) V0 load(1, XDATA, add(CFA_XSP16, literal(-16)))
          CFI (cfiCond3) V1 load(1, XDATA, add(CFA_XSP16, literal(-15)))
          CFI (cfiCond3) V2 load(1, XDATA, add(CFA_XSP16, literal(-14)))
          CFI (cfiCond3) V3 load(1, XDATA, add(CFA_XSP16, literal(-13)))
          CFI (cfiCond3) V4 load(1, XDATA, add(CFA_XSP16, literal(-12)))
          CFI (cfiCond3) V5 load(1, XDATA, add(CFA_XSP16, literal(-11)))
          CFI (cfiCond3) V6 load(1, XDATA, add(CFA_XSP16, literal(-10)))
          CFI (cfiCond3) V7 load(1, XDATA, add(CFA_XSP16, literal(-9)))
          CFI (cfiCond3) V8 load(1, XDATA, add(CFA_XSP16, literal(-8)))
          CFI (cfiCond3) V9 load(1, XDATA, add(CFA_XSP16, literal(-7)))
          CFI (cfiCond3) R7 load(1, XDATA, add(CFA_XSP16, literal(-6)))
          CFI (cfiCond3) ?RET_LOW load(1, XDATA, add(CFA_XSP16, literal(-5)))
          CFI (cfiCond3) ?RET_HIGH load(1, XDATA, add(CFA_XSP16, literal(-4)))
          CFI (cfiCond3) ?BRET_EXT load(1, XDATA, add(CFA_XSP16, literal(-3)))
          CFI (cfiCond3) DPL0 load(1, XDATA, add(CFA_XSP16, literal(-2)))
          CFI (cfiCond3) DPH0 load(1, XDATA, add(CFA_XSP16, literal(-1)))
          CFI (cfiCond3) CFA_SP SP+0
          CFI (cfiCond3) CFA_XSP16 add(XSP16, 26)
          CFI Block cfiCond4 Using cfiCommon0
          CFI (cfiCond4) Function zmain_ext_addr
          CFI (cfiCond4) Conditional ??CrossCallReturnLabel_2
          CFI (cfiCond4) R6 load(1, XDATA, add(CFA_XSP16, literal(-18)))
          CFI (cfiCond4) VB load(1, XDATA, add(CFA_XSP16, literal(-17)))
          CFI (cfiCond4) V0 load(1, XDATA, add(CFA_XSP16, literal(-16)))
          CFI (cfiCond4) V1 load(1, XDATA, add(CFA_XSP16, literal(-15)))
          CFI (cfiCond4) V2 load(1, XDATA, add(CFA_XSP16, literal(-14)))
          CFI (cfiCond4) V3 load(1, XDATA, add(CFA_XSP16, literal(-13)))
          CFI (cfiCond4) V4 load(1, XDATA, add(CFA_XSP16, literal(-12)))
          CFI (cfiCond4) V5 load(1, XDATA, add(CFA_XSP16, literal(-11)))
          CFI (cfiCond4) V6 load(1, XDATA, add(CFA_XSP16, literal(-10)))
          CFI (cfiCond4) V7 load(1, XDATA, add(CFA_XSP16, literal(-9)))
          CFI (cfiCond4) V8 load(1, XDATA, add(CFA_XSP16, literal(-8)))
          CFI (cfiCond4) V9 load(1, XDATA, add(CFA_XSP16, literal(-7)))
          CFI (cfiCond4) R7 load(1, XDATA, add(CFA_XSP16, literal(-6)))
          CFI (cfiCond4) ?RET_LOW load(1, XDATA, add(CFA_XSP16, literal(-5)))
          CFI (cfiCond4) ?RET_HIGH load(1, XDATA, add(CFA_XSP16, literal(-4)))
          CFI (cfiCond4) ?BRET_EXT load(1, XDATA, add(CFA_XSP16, literal(-3)))
          CFI (cfiCond4) DPL0 load(1, XDATA, add(CFA_XSP16, literal(-2)))
          CFI (cfiCond4) DPH0 load(1, XDATA, add(CFA_XSP16, literal(-1)))
          CFI (cfiCond4) CFA_SP SP+0
          CFI (cfiCond4) CFA_XSP16 add(XSP16, 26)
          CFI Block cfiPicker5 Using cfiCommon1
          CFI (cfiPicker5) NoFunction
          CFI (cfiPicker5) Picker
        MOV     ?V0 + 0,R6
        MOV     A,#aExtendedAddress & 0xff
        ADD     A,?V0 + 0
        MOV     DPL,A
        MOV     A,#(aExtendedAddress >> 8) & 0xff
        ADDC    A,#0x0
        MOV     DPH,A
        RET
          CFI EndBlock cfiCond2
          CFI EndBlock cfiCond3
          CFI EndBlock cfiCond4
          CFI EndBlock cfiPicker5
//  250 
//  251 #if defined ZCL_KEY_ESTABLISH
//  252 /**************************************************************************************************
//  253  * @fn          zmain_cert_init
//  254  *
//  255  * @brief       Initialize the Certicom certificate information.
//  256  *
//  257  * input parameters
//  258  *
//  259  * None.
//  260  *
//  261  * output parameters
//  262  *
//  263  * None.
//  264  *
//  265  * @return      None.
//  266  **************************************************************************************************
//  267  */
//  268 static void zmain_cert_init(void)
//  269 {
//  270   uint8 certData[ZCL_KE_IMPLICIT_CERTIFICATE_LEN];
//  271   uint8 nullData[ZCL_KE_IMPLICIT_CERTIFICATE_LEN] = {
//  272     0xFF, 0xFF, 0xFF, 0xFF, 0xFF, 0xFF, 0xFF, 0xFF,
//  273     0xFF, 0xFF, 0xFF, 0xFF, 0xFF, 0xFF, 0xFF, 0xFF,
//  274     0xFF, 0xFF, 0xFF, 0xFF, 0xFF, 0xFF, 0xFF, 0xFF,
//  275     0xFF, 0xFF, 0xFF, 0xFF, 0xFF, 0xFF, 0xFF, 0xFF,
//  276     0xFF, 0xFF, 0xFF, 0xFF, 0xFF, 0xFF, 0xFF, 0xFF,
//  277     0xFF, 0xFF, 0xFF, 0xFF, 0xFF, 0xFF, 0xFF, 0xFF
//  278   };
//  279 
//  280   (void)osal_nv_item_init(ZCD_NV_IMPLICIT_CERTIFICATE, ZCL_KE_IMPLICIT_CERTIFICATE_LEN, NULL);
//  281   (void)osal_nv_item_init(ZCD_NV_DEVICE_PRIVATE_KEY, ZCL_KE_DEVICE_PRIVATE_KEY_LEN, NULL);
//  282 
//  283   // First check whether non-null certificate data exists in the OSAL NV. To save on code space,
//  284   // just use the ZCD_NV_CA_PUBLIC_KEY as the bellwether for all three.
//  285   if ((SUCCESS != osal_nv_item_init(ZCD_NV_CA_PUBLIC_KEY, ZCL_KE_CA_PUBLIC_KEY_LEN, NULL))    ||
//  286       (SUCCESS != osal_nv_read(ZCD_NV_CA_PUBLIC_KEY, 0, ZCL_KE_CA_PUBLIC_KEY_LEN, certData))  ||
//  287       (osal_memcmp(certData, nullData, ZCL_KE_CA_PUBLIC_KEY_LEN)))
//  288   {
//  289     // Attempt to read the certificate data from its corresponding location on the lock bits page.
//  290     HalFlashRead(HAL_FLASH_IEEE_PAGE, HAL_FLASH_CA_PUBLIC_KEY_OSET, certData,
//  291                                          ZCL_KE_CA_PUBLIC_KEY_LEN);
//  292     // If the certificate data is not NULL, use it to update the corresponding NV items.
//  293     if (!osal_memcmp(certData, nullData, ZCL_KE_CA_PUBLIC_KEY_LEN))
//  294     {
//  295       (void)osal_nv_write(ZCD_NV_CA_PUBLIC_KEY, 0, ZCL_KE_CA_PUBLIC_KEY_LEN, certData);
//  296       HalFlashRead(HAL_FLASH_IEEE_PAGE, HAL_FLASH_IMPLICIT_CERT_OSET, certData,
//  297                                            ZCL_KE_IMPLICIT_CERTIFICATE_LEN);
//  298       (void)osal_nv_write(ZCD_NV_IMPLICIT_CERTIFICATE, 0,
//  299                           ZCL_KE_IMPLICIT_CERTIFICATE_LEN, certData);
//  300       HalFlashRead(HAL_FLASH_IEEE_PAGE, HAL_FLASH_DEV_PRIVATE_KEY_OSET, certData,
//  301                                         ZCL_KE_DEVICE_PRIVATE_KEY_LEN);
//  302       (void)osal_nv_write(ZCD_NV_DEVICE_PRIVATE_KEY, 0, ZCL_KE_DEVICE_PRIVATE_KEY_LEN, certData);
//  303     }
//  304   }
//  305 }
//  306 #endif
//  307 
//  308 /**************************************************************************************************
//  309  * @fn          zmain_dev_info
//  310  *
//  311  * @brief       This displays the IEEE (MSB to LSB) on the LCD.
//  312  *
//  313  * input parameters
//  314  *
//  315  * None.
//  316  *
//  317  * output parameters
//  318  *
//  319  * None.
//  320  *
//  321  * @return      None.
//  322  **************************************************************************************************
//  323  */

        RSEG BANKED_CODE:CODE:NOROOT(0)
//  324 static void zmain_dev_info(void)
zmain_dev_info:
          CFI Block cfiBlock6 Using cfiCommon0
          CFI Function zmain_dev_info
        CODE
//  325 {
        FUNCALL zmain_dev_info, HalLcdWriteString
        LOCFRAME ISTACK, 0, STACK
        LOCFRAME PSTACK, 0, STACK
        LOCFRAME XSTACK, 27, STACK
        LOCFRAME IOVERLAY, 0, STATIC
        LOCFRAME DOVERLAY, 0, STATIC
        ARGFRAME ISTACK, 0, STACK
        ARGFRAME PSTACK, 0, STACK
        ARGFRAME XSTACK, 27, STACK
        ARGFRAME IOVERLAY, 0, STATIC
        ARGFRAME DOVERLAY, 0, STATIC
        FUNCALL zmain_dev_info, HalLcdWriteString
        LOCFRAME ISTACK, 0, STACK
        LOCFRAME PSTACK, 0, STACK
        LOCFRAME XSTACK, 27, STACK
        LOCFRAME IOVERLAY, 0, STATIC
        LOCFRAME DOVERLAY, 0, STATIC
        ARGFRAME ISTACK, 0, STACK
        ARGFRAME PSTACK, 0, STACK
        ARGFRAME XSTACK, 27, STACK
        ARGFRAME IOVERLAY, 0, STATIC
        ARGFRAME DOVERLAY, 0, STATIC
        MOV     A,#-0xa
        LCALL   ?BANKED_ENTER_XDATA
          CFI DPH0 load(1, XDATA, add(CFA_XSP16, literal(-1)))
          CFI DPL0 load(1, XDATA, add(CFA_XSP16, literal(-2)))
          CFI ?BRET_EXT load(1, XDATA, add(CFA_XSP16, literal(-3)))
          CFI ?RET_HIGH load(1, XDATA, add(CFA_XSP16, literal(-4)))
          CFI ?RET_LOW load(1, XDATA, add(CFA_XSP16, literal(-5)))
          CFI R7 load(1, XDATA, add(CFA_XSP16, literal(-6)))
          CFI V1 load(1, XDATA, add(CFA_XSP16, literal(-7)))
          CFI V0 load(1, XDATA, add(CFA_XSP16, literal(-8)))
          CFI VB load(1, XDATA, add(CFA_XSP16, literal(-9)))
          CFI R6 load(1, XDATA, add(CFA_XSP16, literal(-10)))
          CFI CFA_SP SP+0
          CFI CFA_XSP16 add(XSP16, 10)
        ; Saved register size: 10
        ; Auto size: 17
        MOV     A,#-0x11
        LCALL   ?ALLOC_XSTACK8
          CFI CFA_XSP16 add(XSP16, 27)
//  326 #ifdef LCD_SUPPORTED
//  327   uint8 i;
//  328   uint8 *xad;
//  329   uint8 lcd_buf[Z_EXTADDR_LEN*2+1];
//  330 
//  331   // Display the extended address.
//  332   xad = aExtendedAddress + Z_EXTADDR_LEN - 1;
        MOV     R0,#(aExtendedAddress + 7) & 0xff
        MOV     R1,#((aExtendedAddress + 7) >> 8) & 0xff
//  333 
//  334   for (i = 0; i < Z_EXTADDR_LEN*2; xad--)
        MOV     R4,#0x0
//  335   {
//  336     uint8 ch;
//  337     ch = (*xad >> 4) & 0x0F;
??zmain_dev_info_0:
        MOV     DPL,R0
        MOV     DPH,R1
        MOVX    A,@DPTR
        SWAP    A
        ANL     A,#0xf
        MOV     R5,A
//  338     lcd_buf[i++] = ch + (( ch < 10 ) ? '0' : '7');
        MOV     A,R4
        MOV     R6,A
        INC     R4
        MOV     A,R5
        CLR     C
        SUBB    A,#0xa
        JNC     ??zmain_dev_info_1
        MOV     R2,#0x30
        SJMP    ??zmain_dev_info_2
??zmain_dev_info_1:
        MOV     R2,#0x37
??zmain_dev_info_2:
        MOV     A,R2
        ADD     A,R5
        PUSH    A
          CFI CFA_SP SP+-1
        MOV     ?V0 + 0,R6
        LCALL   ?Subroutine1 & 0xFFFF
??CrossCallReturnLabel_3:
        POP     A
          CFI CFA_SP SP+0
        MOVX    @DPTR,A
//  339     ch = *xad & 0x0F;
        MOV     DPL,R0
        MOV     DPH,R1
        MOVX    A,@DPTR
        ANL     A,#0xf
        MOV     R5,A
//  340     lcd_buf[i++] = ch + (( ch < 10 ) ? '0' : '7');
        MOV     A,R4
        MOV     R7,A
        INC     R4
        MOV     A,R5
        CLR     C
        SUBB    A,#0xa
        JNC     ??zmain_dev_info_3
        MOV     R2,#0x30
        SJMP    ??zmain_dev_info_4
??zmain_dev_info_3:
        MOV     R2,#0x37
??zmain_dev_info_4:
        MOV     A,R2
        ADD     A,R5
        PUSH    A
          CFI CFA_SP SP+-1
        MOV     ?V0 + 0,R7
        LCALL   ?Subroutine1 & 0xFFFF
//  341   }
??CrossCallReturnLabel_4:
        POP     A
          CFI CFA_SP SP+0
        MOVX    @DPTR,A
        MOV     A,R0
        ADD     A,#-0x1
        DEC     R0
        MOV     A,R1
        ADDC    A,#-0x1
        MOV     R1,A
        MOV     A,R4
        CLR     C
        SUBB    A,#0x10
        JC      ??zmain_dev_info_0
//  342   lcd_buf[Z_EXTADDR_LEN*2] = '\0';
        MOV     A,#0x10
        LCALL   ?XSTACK_DISP0_8
        CLR     A
        MOVX    @DPTR,A
//  343   HalLcdWriteString( "IEEE: ", HAL_LCD_LINE_1 );
        ; Setup parameters for call to function HalLcdWriteString
        MOV     R1,#0x1
        MOV     R2,#`?<Constant "IEEE: ">` & 0xff
        MOV     R3,#(`?<Constant "IEEE: ">` >> 8) & 0xff
        LCALL   ??HalLcdWriteString?relay
//  344   HalLcdWriteString( (char*)lcd_buf, HAL_LCD_LINE_2 );
        ; Setup parameters for call to function HalLcdWriteString
        MOV     R1,#0x2
        MOV     DPL,?XSP + 0
        MOV     DPH,?XSP + 1
        MOV     R2,DPL
        MOV     R3,DPH
        LCALL   ??HalLcdWriteString?relay
//  345 #endif
//  346 }
        MOV     A,#0x11
        LCALL   ?DEALLOC_XSTACK8
          CFI CFA_XSP16 add(XSP16, 10)
        MOV     R7,#0x2
        LJMP    ?BANKED_LEAVE_XDATA
          CFI EndBlock cfiBlock6

        RSEG BANKED_CODE:CODE:NOROOT(0)
?Subroutine1:
          CFI Block cfiCond7 Using cfiCommon0
          CFI Function zmain_dev_info
          CFI Conditional ??CrossCallReturnLabel_3
          CFI R6 load(1, XDATA, add(CFA_XSP16, literal(-10)))
          CFI VB load(1, XDATA, add(CFA_XSP16, literal(-9)))
          CFI V0 load(1, XDATA, add(CFA_XSP16, literal(-8)))
          CFI V1 load(1, XDATA, add(CFA_XSP16, literal(-7)))
          CFI R7 load(1, XDATA, add(CFA_XSP16, literal(-6)))
          CFI ?RET_LOW load(1, XDATA, add(CFA_XSP16, literal(-5)))
          CFI ?RET_HIGH load(1, XDATA, add(CFA_XSP16, literal(-4)))
          CFI ?BRET_EXT load(1, XDATA, add(CFA_XSP16, literal(-3)))
          CFI DPL0 load(1, XDATA, add(CFA_XSP16, literal(-2)))
          CFI DPH0 load(1, XDATA, add(CFA_XSP16, literal(-1)))
          CFI CFA_SP SP+-1
          CFI CFA_XSP16 add(XSP16, 27)
          CFI Block cfiCond8 Using cfiCommon0
          CFI (cfiCond8) Function zmain_dev_info
          CFI (cfiCond8) Conditional ??CrossCallReturnLabel_4
          CFI (cfiCond8) R6 load(1, XDATA, add(CFA_XSP16, literal(-10)))
          CFI (cfiCond8) VB load(1, XDATA, add(CFA_XSP16, literal(-9)))
          CFI (cfiCond8) V0 load(1, XDATA, add(CFA_XSP16, literal(-8)))
          CFI (cfiCond8) V1 load(1, XDATA, add(CFA_XSP16, literal(-7)))
          CFI (cfiCond8) R7 load(1, XDATA, add(CFA_XSP16, literal(-6)))
          CFI (cfiCond8) ?RET_LOW load(1, XDATA, add(CFA_XSP16, literal(-5)))
          CFI (cfiCond8) ?RET_HIGH load(1, XDATA, add(CFA_XSP16, literal(-4)))
          CFI (cfiCond8) ?BRET_EXT load(1, XDATA, add(CFA_XSP16, literal(-3)))
          CFI (cfiCond8) DPL0 load(1, XDATA, add(CFA_XSP16, literal(-2)))
          CFI (cfiCond8) DPH0 load(1, XDATA, add(CFA_XSP16, literal(-1)))
          CFI (cfiCond8) CFA_SP SP+-1
          CFI (cfiCond8) CFA_XSP16 add(XSP16, 27)
          CFI Block cfiPicker9 Using cfiCommon1
          CFI (cfiPicker9) NoFunction
          CFI (cfiPicker9) Picker
        MOV     DPL,?XSP + 0
        MOV     DPH,?XSP + 1
        MOV     A,DPL
        ADD     A,?V0 + 0
        MOV     DPL,A
        MOV     A,DPH
        ADDC    A,#0x0
        MOV     DPH,A
        RET
          CFI EndBlock cfiCond7
          CFI EndBlock cfiCond8
          CFI EndBlock cfiPicker9

        RSEG BANK_RELAYS:CODE:REORDER:NOROOT(0)
??main?relay:
        CODE
        LCALL   ?BDISPATCH
        DATA24
        DC24    main

        RSEG BANK_RELAYS:CODE:REORDER:NOROOT(0)
??zmain_ext_addr?relay:
        CODE
        LCALL   ?BDISPATCH
        DATA24
        DC24    zmain_ext_addr

        RSEG BANK_RELAYS:CODE:REORDER:NOROOT(0)
??zmain_dev_info?relay:
        CODE
        LCALL   ?BDISPATCH
        DATA24
        DC24    zmain_dev_info

        RSEG XDATA_ROM_C:CONST:REORDER:NOROOT(0)
        DATA8
`?<Constant {255, 255, 255, 255, 255, 255, 255,`:
        DB 255
        DB 255
        DB 255
        DB 255
        DB 255
        DB 255
        DB 255
        DB 255

        RSEG XDATA_ROM_C:CONST:REORDER:NOROOT(0)
        DATA8
`?<Constant "IEEE: ">`:
        DB "IEEE: "

        RSEG XDATA_ROM_C:CONST:REORDER:NOROOT(0)
        DATA8
`?<Constant "TexasInstruments">`:
        DB "TexasInstruments"

        END
//  347 
//  348 #ifdef LCD_SUPPORTED
//  349 /*********************************************************************
//  350  * @fn      zmain_lcd_init
//  351  * @brief   Initialize LCD at start up.
//  352  * @return  none
//  353  *********************************************************************/
//  354 static void zmain_lcd_init ( void )
//  355 {
//  356 #ifdef SERIAL_DEBUG_SUPPORTED
//  357   {
//  358     HalLcdWriteString( "TexasInstruments", HAL_LCD_LINE_1 );
//  359 
//  360 #if defined( MT_MAC_FUNC )
//  361 #if defined( ZDO_COORDINATOR )
//  362       HalLcdWriteString( "MAC-MT Coord", HAL_LCD_LINE_2 );
//  363 #else
//  364       HalLcdWriteString( "MAC-MT Device", HAL_LCD_LINE_2 );
//  365 #endif // ZDO
//  366 #elif defined( MT_NWK_FUNC )
//  367 #if defined( ZDO_COORDINATOR )
//  368       HalLcdWriteString( "NWK Coordinator", HAL_LCD_LINE_2 );
//  369 #else
//  370       HalLcdWriteString( "NWK Device", HAL_LCD_LINE_2 );
//  371 #endif // ZDO
//  372 #endif // MT_FUNC
//  373   }
//  374 #endif // SERIAL_DEBUG_SUPPORTED
//  375 }
//  376 #endif
//  377 
//  378 /*********************************************************************
//  379 *********************************************************************/
// 
// 686 bytes in segment BANKED_CODE
//  18 bytes in segment BANK_RELAYS
//   7 bytes in segment SFR_AN
//  32 bytes in segment XDATA_ROM_C
//   5 bytes in segment XDATA_Z
// 
// 704 bytes of CODE  memory
//  32 bytes of CONST memory
//   0 bytes of DATA  memory (+ 7 bytes shared)
//   5 bytes of XDATA memory
//
//Errors: none
//Warnings: none
