###############################################################################
#                                                                             #
# IAR C/C++ Compiler V8.20.2.41139 for 8051             12/Apr/2014  12:18:15 #
# Copyright 2004-2013 IAR Systems AB.                                         #
#                                                                             #
#    Core               =  plain                                              #
#    Code model         =  banked                                             #
#    Data model         =  large                                              #
#    Calling convention =  xdata reentrant                                    #
#    Constant location  =  data_rom                                           #
#    Dptr setup         =  1,16                                               #
#                                                                             #
#    Source file        =  D:\Texas Instruments\Z-Stack Lighting              #
#                          1.0.2\Components\hal\target\CC2530EB\hal_uart.c    #
#    Command line       =  -f "D:\Texas Instruments\Z-Stack Lighting          #
#                          1.0.2\Projects\zstack\ZLL\SampleApp\CC253x\..\..\. #
#                          .\Tools\CC2530DB\f8wRouter.cfg" (-DCPU32MHZ        #
#                          -DROOT=__near_func -DMAC_CFG_APP_PENDING_QUEUE=TRU #
#                          E -DMAC_CFG_TX_DATA_MAX=5 -DMAC_CFG_TX_MAX=8       #
#                          -DMAC_CFG_RX_MAX=5 -DRTR_NWK) -f "D:\Texas         #
#                          Instruments\Z-Stack Lighting                       #
#                          1.0.2\Projects\zstack\ZLL\SampleApp\CC253x\..\..\. #
#                          .\Tools\CC2530DB\f8wConfig.cfg" (-DZIGBEEPRO       #
#                          -DSECURE=1 -DZG_SECURE_DYNAMIC=0 -DREFLECTOR       #
#                          -DDEFAULT_CHANLIST=0x00000800                      #
#                          -DZDAPP_CONFIG_PAN_ID=0xFFFF                       #
#                          -DNWK_START_DELAY=100 -DEXTENDED_JOINING_RANDOM_MA #
#                          SK=0x007F -DBEACON_REQUEST_DELAY=100               #
#                          -DBEACON_REQ_DELAY_MASK=0x00FF                     #
#                          -DLINK_STATUS_JITTER_MASK=0x007F                   #
#                          -DROUTE_EXPIRY_TIME=30 -DAPSC_ACK_WAIT_DURATION_PO #
#                          LLED=3000 -DNWK_INDIRECT_MSG_TIMEOUT=7             #
#                          -DMAX_RREQ_ENTRIES=8 -DAPSC_MAX_FRAME_RETRIES=3    #
#                          -DNWK_MAX_DATA_RETRIES=2                           #
#                          -DMAX_POLL_FAILURE_RETRIES=2 -DMAX_BCAST=9         #
#                          -DAPS_MAX_GROUPS=16 -DMAX_RTG_ENTRIES=40           #
#                          -DNWK_MAX_BINDING_ENTRIES=4                        #
#                          -DMAX_BINDING_CLUSTER_IDS=4 "-DDEFAULT_KEY={0x01,  #
#                          0x03, 0x05, 0x07, 0x09, 0x0B, 0x0D, 0x0F, 0x00,    #
#                          0x02, 0x04, 0x06, 0x08, 0x0A, 0x0C, 0x0D}"         #
#                          -DMAC_MAX_FRAME_SIZE=116                           #
#                          -DZDNWKMGR_MIN_TRANSMISSIONS=20 "-DCONST=const     #
#                          __code" -DGENERIC=__generic                        #
#                          -DRFD_RCVC_ALWAYS_ON=FALSE -DPOLL_RATE=1000        #
#                          -DQUEUED_POLL_RATE=100 -DRESPONSE_POLL_RATE=100    #
#                          -DREJOIN_POLL_RATE=440) -f "D:\Texas               #
#                          Instruments\Z-Stack Lighting                       #
#                          1.0.2\Projects\zstack\ZLL\SampleApp\CC253x\..\..\. #
#                          .\Tools\CC2530DB\f8wZCL.cfg" "D:\Texas             #
#                          Instruments\Z-Stack Lighting                       #
#                          1.0.2\Components\hal\target\CC2530EB\hal_uart.c"   #
#                          -D FEATURE_GREEN_POWER -D SECURE=1 -D              #
#                          TC_LINKKEY_JOIN -D ZDSECMGR_TC_DEVICE_MAX=2 -D     #
#                          NV_RESTORE -D HOLD_AUTO_START -D INTER_PAN -D      #
#                          ZTOOL_P1 -D MT_TASK -D MT_APP_FUNC -D MT_SYS_FUNC  #
#                          -D MT_ZDO_FUNC -D MT_ZDO_CB_FUNC -D MT_UTIL_FUNC   #
#                          -D MT_ZDO_MGMT -D LCD_SUPPORTED -D HAL_LCD=FALSE   #
#                          -D HAL_KEY=FALSE -D ZCL_BASIC -D ZCL_READ -D       #
#                          ZCL_WRITE -D ZCL_IDENTIFY -D ZCL_ON_OFF -D         #
#                          ZCL_SCENES -D ZCL_GROUPS -D                        #
#                          ZCL_LIGHT_LINK_ENHANCE -D ZCL_LEVEL_CTRL -D        #
#                          ZCL_COLOR_CTRL -D xMAX_CHANNELS_24GHZ=0x02108800   #
#                          -lC "D:\Texas Instruments\Z-Stack Lighting         #
#                          1.0.2\Projects\zstack\ZLL\SampleApp\CC253x\BridgeE #
#                          B-Pro\List\" -lA "D:\Texas Instruments\Z-Stack     #
#                          Lighting 1.0.2\Projects\zstack\ZLL\SampleApp\CC253 #
#                          x\BridgeEB-Pro\List\" --diag_suppress Pe001,Pa010  #
#                          -o "D:\Texas Instruments\Z-Stack Lighting          #
#                          1.0.2\Projects\zstack\ZLL\SampleApp\CC253x\BridgeE #
#                          B-Pro\Obj\" -e --debug --core=plain --dptr=16,1    #
#                          --data_model=large --code_model=banked             #
#                          --calling_convention=xdata_reentrant               #
#                          --place_constants=data_rom --nr_virtual_regs 16    #
#                          -I "D:\Texas Instruments\Z-Stack Lighting          #
#                          1.0.2\Projects\zstack\ZLL\SampleApp\CC253x\" -I    #
#                          "D:\Texas Instruments\Z-Stack Lighting             #
#                          1.0.2\Projects\zstack\ZLL\SampleApp\CC253x\..\Sour #
#                          ce\" -I "D:\Texas Instruments\Z-Stack Lighting     #
#                          1.0.2\Projects\zstack\ZLL\SampleApp\CC253x\..\..\S #
#                          ource\" -I "D:\Texas Instruments\Z-Stack Lighting  #
#                          1.0.2\Projects\zstack\ZLL\SampleApp\CC253x\..\..\. #
#                          .\HomeAutomation\Source\" -I "D:\Texas             #
#                          Instruments\Z-Stack Lighting                       #
#                          1.0.2\Projects\zstack\ZLL\SampleApp\CC253x\..\..\. #
#                          .\HomeAutomation\SampleLight\Source\" -I           #
#                          "D:\Texas Instruments\Z-Stack Lighting             #
#                          1.0.2\Projects\zstack\ZLL\SampleApp\CC253x\..\..\. #
#                          .\ZMain\TI2530DB\" -I "D:\Texas                    #
#                          Instruments\Z-Stack Lighting                       #
#                          1.0.2\Projects\zstack\ZLL\SampleApp\CC253x\..\..\. #
#                          .\..\..\Components\hal\include\" -I "D:\Texas      #
#                          Instruments\Z-Stack Lighting                       #
#                          1.0.2\Projects\zstack\ZLL\SampleApp\CC253x\..\..\. #
#                          .\..\..\Components\hal\target\CC2530EB\" -I        #
#                          "D:\Texas Instruments\Z-Stack Lighting             #
#                          1.0.2\Projects\zstack\ZLL\SampleApp\CC253x\..\..\. #
#                          .\..\..\Components\mac\include\" -I "D:\Texas      #
#                          Instruments\Z-Stack Lighting                       #
#                          1.0.2\Projects\zstack\ZLL\SampleApp\CC253x\..\..\. #
#                          .\..\..\Components\mac\high_level\" -I "D:\Texas   #
#                          Instruments\Z-Stack Lighting                       #
#                          1.0.2\Projects\zstack\ZLL\SampleApp\CC253x\..\..\. #
#                          .\..\..\Components\mac\low_level\srf04\" -I        #
#                          "D:\Texas Instruments\Z-Stack Lighting             #
#                          1.0.2\Projects\zstack\ZLL\SampleApp\CC253x\..\..\. #
#                          .\..\..\Components\mac\low_level\srf04\single_chip #
#                          \" -I "D:\Texas Instruments\Z-Stack Lighting       #
#                          1.0.2\Projects\zstack\ZLL\SampleApp\CC253x\..\..\. #
#                          .\..\..\Components\mt\" -I "D:\Texas               #
#                          Instruments\Z-Stack Lighting                       #
#                          1.0.2\Projects\zstack\ZLL\SampleApp\CC253x\..\..\. #
#                          .\..\..\Components\osal\include\" -I "D:\Texas     #
#                          Instruments\Z-Stack Lighting                       #
#                          1.0.2\Projects\zstack\ZLL\SampleApp\CC253x\..\..\. #
#                          .\..\..\Components\services\saddr\" -I "D:\Texas   #
#                          Instruments\Z-Stack Lighting                       #
#                          1.0.2\Projects\zstack\ZLL\SampleApp\CC253x\..\..\. #
#                          .\..\..\Components\services\sdata\" -I "D:\Texas   #
#                          Instruments\Z-Stack Lighting                       #
#                          1.0.2\Projects\zstack\ZLL\SampleApp\CC253x\..\..\. #
#                          .\..\..\Components\stack\af\" -I "D:\Texas         #
#                          Instruments\Z-Stack Lighting                       #
#                          1.0.2\Projects\zstack\ZLL\SampleApp\CC253x\..\..\. #
#                          .\..\..\Components\stack\nwk\" -I "D:\Texas        #
#                          Instruments\Z-Stack Lighting                       #
#                          1.0.2\Projects\zstack\ZLL\SampleApp\CC253x\..\..\. #
#                          .\..\..\Components\stack\sapi\" -I "D:\Texas       #
#                          Instruments\Z-Stack Lighting                       #
#                          1.0.2\Projects\zstack\ZLL\SampleApp\CC253x\..\..\. #
#                          .\..\..\Components\stack\sec\" -I "D:\Texas        #
#                          Instruments\Z-Stack Lighting                       #
#                          1.0.2\Projects\zstack\ZLL\SampleApp\CC253x\..\..\. #
#                          .\..\..\Components\stack\sys\" -I "D:\Texas        #
#                          Instruments\Z-Stack Lighting                       #
#                          1.0.2\Projects\zstack\ZLL\SampleApp\CC253x\..\..\. #
#                          .\..\..\Components\stack\zcl\" -I "D:\Texas        #
#                          Instruments\Z-Stack Lighting                       #
#                          1.0.2\Projects\zstack\ZLL\SampleApp\CC253x\..\..\. #
#                          .\..\..\Components\stack\zdo\" -I "D:\Texas        #
#                          Instruments\Z-Stack Lighting                       #
#                          1.0.2\Projects\zstack\ZLL\SampleApp\CC253x\..\..\. #
#                          .\..\..\Components\zmac\" -I "D:\Texas             #
#                          Instruments\Z-Stack Lighting                       #
#                          1.0.2\Projects\zstack\ZLL\SampleApp\CC253x\..\..\. #
#                          .\..\..\Components\zmac\f8w\" -Ohz                 #
#                          --require_prototypes                               #
#    List file          =  D:\Texas Instruments\Z-Stack Lighting              #
#                          1.0.2\Projects\zstack\ZLL\SampleApp\CC253x\BridgeE #
#                          B-Pro\List\hal_uart.lst                            #
#    Object file        =  D:\Texas Instruments\Z-Stack Lighting              #
#                          1.0.2\Projects\zstack\ZLL\SampleApp\CC253x\BridgeE #
#                          B-Pro\Obj\hal_uart.r51                             #
#                                                                             #
#                                                                             #
###############################################################################

D:\Texas Instruments\Z-Stack Lighting 1.0.2\Components\hal\target\CC2530EB\hal_uart.c
      1          /**************************************************************************************************
      2            Filename:       _hal_uart.c
      3            Revised:        $Date: 2009-06-12 09:16:43 -0700 (Fri, 12 Jun 2009) $
      4            Revision:       $Revision: 20142 $
      5          
      6            Description: This file contains the interface to the H/W UART driver.
      7          
      8          
      9            Copyright 2006-2009 Texas Instruments Incorporated. All rights reserved.
     10          
     11            IMPORTANT: Your use of this Software is limited to those specific rights
     12            granted under the terms of a software license agreement between the user
     13            who downloaded the software, his/her employer (which must be your employer)
     14            and Texas Instruments Incorporated (the "License").  You may not use this
     15            Software unless you agree to abide by the terms of the License. The License
     16            limits your use, and you acknowledge, that the Software may not be modified,
     17            copied or distributed unless embedded on a Texas Instruments microcontroller
     18            or used solely and exclusively in conjunction with a Texas Instruments radio
     19            frequency transceiver, which is integrated into your product.  Other than for
     20            the foregoing purpose, you may not use, reproduce, copy, prepare derivative
     21            works of, modify, distribute, perform, display or sell this Software and/or
     22            its documentation for any purpose.
     23          
     24            YOU FURTHER ACKNOWLEDGE AND AGREE THAT THE SOFTWARE AND DOCUMENTATION ARE
     25            PROVIDED “AS IS” WITHOUT WARRANTY OF ANY KIND, EITHER EXPRESS OR IMPLIED,
     26            INCLUDING WITHOUT LIMITATION, ANY WARRANTY OF MERCHANTABILITY, TITLE,
     27            NON-INFRINGEMENT AND FITNESS FOR A PARTICULAR PURPOSE. IN NO EVENT SHALL
     28            TEXAS INSTRUMENTS OR ITS LICENSORS BE LIABLE OR OBLIGATED UNDER CONTRACT,
     29            NEGLIGENCE, STRICT LIABILITY, CONTRIBUTION, BREACH OF WARRANTY, OR OTHER
     30            LEGAL EQUITABLE THEORY ANY DIRECT OR INDIRECT DAMAGES OR EXPENSES
     31            INCLUDING BUT NOT LIMITED TO ANY INCIDENTAL, SPECIAL, INDIRECT, PUNITIVE
     32            OR CONSEQUENTIAL DAMAGES, LOST PROFITS OR LOST DATA, COST OF PROCUREMENT
     33            OF SUBSTITUTE GOODS, TECHNOLOGY, SERVICES, OR ANY CLAIMS BY THIRD PARTIES
     34            (INCLUDING BUT NOT LIMITED TO ANY DEFENSE THEREOF), OR OTHER SIMILAR COSTS.
     35          
     36            Should you have any questions regarding your right to use this Software,
     37            contact Texas Instruments Incorporated at www.TI.com.
     38          **************************************************************************************************/
     39          
     40          /*********************************************************************
     41           * INCLUDES
     42           */
     43          
     44          #include "hal_board_cfg.h"

   \                                 In  segment SFR_AN, at 0x80
   \   union <unnamed> volatile __sfr _A_P0
   \                     _A_P0:
   \   000000                DS 1

   \                                 In  segment SFR_AN, at 0x86
   \   unsigned char volatile __sfr U0CSR
   \                     U0CSR:
   \   000000                DS 1

   \                                 In  segment SFR_AN, at 0x95
   \   unsigned char volatile __sfr ST0
   \                     ST0:
   \   000000                DS 1

   \                                 In  segment SFR_AN, at 0xa8
   \   union <unnamed> volatile __sfr _A_IEN0
   \                     _A_IEN0:
   \   000000                DS 1

   \                                 In  segment SFR_AN, at 0xab
   \   unsigned char volatile __sfr P0IEN
   \                     P0IEN:
   \   000000                DS 1

   \                                 In  segment SFR_AN, at 0xc2
   \   unsigned char volatile __sfr U0BAUD
   \                     U0BAUD:
   \   000000                DS 1

   \                                 In  segment SFR_AN, at 0xc4
   \   unsigned char volatile __sfr U0UCR
   \                     U0UCR:
   \   000000                DS 1

   \                                 In  segment SFR_AN, at 0xc5
   \   unsigned char volatile __sfr U0GCR
   \                     U0GCR:
   \   000000                DS 1

   \                                 In  segment SFR_AN, at 0xd1
   \   unsigned char volatile __sfr DMAIRQ
   \                     DMAIRQ:
   \   000000                DS 1

   \                                 In  segment SFR_AN, at 0xd6
   \   unsigned char volatile __sfr DMAARM
   \                     DMAARM:
   \   000000                DS 1

   \                                 In  segment SFR_AN, at 0xd7
   \   unsigned char volatile __sfr DMAREQ
   \                     DMAREQ:
   \   000000                DS 1

   \                                 In  segment SFR_AN, at 0xf1
   \   unsigned char volatile __sfr PERCFG
   \                     PERCFG:
   \   000000                DS 1

   \                                 In  segment SFR_AN, at 0xf2
   \   unsigned char volatile __sfr ADCCFG
   \                     ADCCFG:
   \   000000                DS 1

   \                                 In  segment SFR_AN, at 0xf3
   \   unsigned char volatile __sfr P0SEL
   \                     P0SEL:
   \   000000                DS 1

   \                                 In  segment SFR_AN, at 0xfd
   \   unsigned char volatile __sfr P0DIR
   \                     P0DIR:
   \   000000                DS 1

   \                                 In  segment SFR_AN, at 0xff
   \   unsigned char volatile __sfr P2DIR
   \                     P2DIR:
   \   000000                DS 1
     45          #include "hal_defs.h"
     46          #include "hal_types.h"
     47          #include "hal_uart.h"
     48          
     49          /*********************************************************************
     50           * MACROS
     51           */
     52          
     53          /*********************************************************************
     54           * TYPEDEFS
     55           */
     56          
     57          /*********************************************************************
     58           * CONSTANTS
     59           */
     60          
     61          /*********************************************************************
     62           * GLOBAL VARIABLES
     63           */
     64          
     65          /*********************************************************************
     66           * GLOBAL FUNCTIONS
     67           */
     68          
     69          /*********************************************************************
     70           * LOCAL VARIABLES
     71           */
     72          
     73          /*********************************************************************
     74           * LOCAL FUNCTIONS
     75           */
     76          
     77          #if HAL_UART_DMA
     78          #include "_hal_uart_dma.c"

   \                                 In  segment XDATA_Z, align 1, keep-with-next
   \   static uartDMACfg_t dmaCfg
   \                     dmaCfg:
   \   000000                DS 526
   \   00020E                REQUIRE __INIT_XDATA_Z

   \                                 In  segment BANKED_CODE, align 1, keep-with-next
   \   static __banked_func __xdata_reentrant void HalUARTInitDMA(void)
   \                     HalUARTInitDMA:
   \   000000   C082         PUSH    DPL
   \   000002   C083         PUSH    DPH
   \   000004                ; Saved register size: 2
   \   000004                ; Auto size: 0
   \   000004   53FF3F       ANL     0xff,#0x3f
   \   000007   85FFFF       MOV     0xff,0xff
   \   00000A   53F1FE       ANL     0xf1,#0xfe
   \   00000D   43F30C       ORL     0xf3,#0xc
   \   000010   53F2F3       ANL     0xf2,#0xf3
   \   000013   758680       MOV     0x86,#-0x80
   \   000016   75C480       MOV     0xc4,#-0x80
   \   000019   90....       MOV     DPTR,#dmaCh1234 + 26
   \   00001C   7470         MOV     A,#0x70
   \   00001E   F0           MOVX    @DPTR,A
   \   00001F   A3           INC     DPTR
   \   000020   74C1         MOV     A,#-0x3f
   \   000022   F0           MOVX    @DPTR,A
   \   000023   A3           INC     DPTR
   \   000024   E0           MOVX    A,@DPTR
   \   000025   541F         ANL     A,#0x1f
   \   000027   F0           MOVX    @DPTR,A
   \   000028   90....       MOV     DPTR,#dmaCh1234 + 30
   \   00002B   740F         MOV     A,#0xf
   \   00002D   F0           MOVX    @DPTR,A
   \   00002E   A3           INC     DPTR
   \   00002F   744A         MOV     A,#0x4a
   \   000031   F0           MOVX    @DPTR,A
   \   000032   90....       MOV     DPTR,#dmaCh1234 + 16
   \   000035   7470         MOV     A,#0x70
   \   000037   F0           MOVX    @DPTR,A
   \   000038   A3           INC     DPTR
   \   000039   74C1         MOV     A,#-0x3f
   \   00003B   F0           MOVX    @DPTR,A
   \   00003C   90....       MOV     DPTR,#dmaCh1234 + 20
   \   00003F   E0           MOVX    A,@DPTR
   \   000040   541F         ANL     A,#0x1f
   \   000042   F0           MOVX    @DPTR,A
   \   000043   90....       MOV     DPTR,#dmaCh1234 + 22
   \   000046   74CE         MOV     A,#-0x32
   \   000048   F0           MOVX    @DPTR,A
   \   000049   A3           INC     DPTR
   \   00004A   E0           MOVX    A,@DPTR
   \   00004B   540F         ANL     A,#0xf
   \   00004D   4410         ORL     A,#0x10
   \   00004F   F0           MOVX    @DPTR,A
   \   000050   74..         MOV     A,#(dmaCfg >> 8) & 0xff
   \   000052   90....       MOV     DPTR,#dmaCh1234 + 18
   \   000055   F0           MOVX    @DPTR,A
   \   000056   A3           INC     DPTR
   \   000057   74..         MOV     A,#dmaCfg & 0xff
   \   000059   F0           MOVX    @DPTR,A
   \   00005A   90....       MOV     DPTR,#dmaCh1234 + 21
   \   00005D   7480         MOV     A,#-0x80
   \   00005F   F0           MOVX    @DPTR,A
   \   000060   90....       MOV     DPTR,#dmaCh1234 + 20
   \   000063   E4           CLR     A
   \   000064   F0           MOVX    @DPTR,A
   \   000065   90....       MOV     DPTR,#dmaCh1234 + 23
   \   000068   7412         MOV     A,#0x12
   \   00006A   02....       LJMP    ?Subroutine0 & 0xFFFF
   \   00006D                REQUIRE P2DIR
   \   00006D                REQUIRE PERCFG
   \   00006D                REQUIRE P0SEL
   \   00006D                REQUIRE ADCCFG
   \   00006D                REQUIRE U0CSR
   \   00006D                REQUIRE U0UCR

   \                                 In  segment BANKED_CODE, align 1, keep-with-next
   \                     ?Subroutine0:
   \   000000   F0           MOVX    @DPTR,A
   \   000001                REQUIRE ??Subroutine16_0
   \   000001                ; // Fall through to label ??Subroutine16_0

   \                                 In  segment BANKED_CODE, align 1, keep-with-next
   \                     ??Subroutine16_0:
   \   000000   D083         POP     DPH
   \   000002   D082         POP     DPL
   \   000004   02....       LJMP    ?BRET

   \                                 In  segment BANKED_CODE, align 1, keep-with-next
   \   static __banked_func __xdata_reentrant void HalUARTOpenDMA(halUARTCfg_t *)
   \                     HalUARTOpenDMA:
   \   000000   C082         PUSH    DPL
   \   000002   C083         PUSH    DPH
   \   000004                ; Saved register size: 2
   \   000004                ; Auto size: 0
   \   000004   EA           MOV     A,R2
   \   000005   241B         ADD     A,#0x1b
   \   000007   F582         MOV     DPL,A
   \   000009   EB           MOV     A,R3
   \   00000A   12....       LCALL   ??Subroutine15_0 & 0xFFFF
   \                     ??CrossCallReturnLabel_21:
   \   00000D   F8           MOV     R0,A
   \   00000E   A3           INC     DPTR
   \   00000F   E0           MOVX    A,@DPTR
   \   000010   F9           MOV     R1,A
   \   000011   90....       MOV     DPTR,#dmaCfg + 524
   \   000014   E8           MOV     A,R0
   \   000015   F0           MOVX    @DPTR,A
   \   000016   A3           INC     DPTR
   \   000017   E9           MOV     A,R1
   \   000018   F0           MOVX    @DPTR,A
   \   000019   8A82         MOV     DPL,R2
   \   00001B   8B83         MOV     DPH,R3
   \   00001D   A3           INC     DPTR
   \   00001E   E0           MOVX    A,@DPTR
   \   00001F   F8           MOV     R0,A
   \   000020   7403         MOV     A,#0x3
   \   000022   68           XRL     A,R0
   \   000023   6005         JZ      ??HalUARTOpenDMA_0
   \   000025   7404         MOV     A,#0x4
   \   000027   68           XRL     A,R0
   \   000028   7005         JNZ     ??HalUARTOpenDMA_1
   \                     ??HalUARTOpenDMA_0:
   \   00002A   75C2D8       MOV     0xc2,#-0x28
   \   00002D   8003         SJMP    ??HalUARTOpenDMA_2
   \                     ??HalUARTOpenDMA_1:
   \   00002F   75C23B       MOV     0xc2,#0x3b
   \                     ??HalUARTOpenDMA_2:
   \   000032   E0           MOVX    A,@DPTR
   \   000033   600B         JZ      ??HalUARTOpenDMA_3
   \   000035   14           DEC     A
   \   000036   6012         JZ      ??HalUARTOpenDMA_4
   \   000038   14           DEC     A
   \   000039   6019         JZ      ??HalUARTOpenDMA_5
   \   00003B   14           DEC     A
   \   00003C   6020         JZ      ??HalUARTOpenDMA_6
   \   00003E   8028         SJMP    ??HalUARTOpenDMA_7
   \                     ??HalUARTOpenDMA_3:
   \   000040   75C508       MOV     0xc5,#0x8
   \   000043   90....       MOV     DPTR,#dmaCfg + 520
   \   000046   7423         MOV     A,#0x23
   \   000048   8026         SJMP    ??HalUARTOpenDMA_8
   \                     ??HalUARTOpenDMA_4:
   \   00004A   75C509       MOV     0xc5,#0x9
   \   00004D   90....       MOV     DPTR,#dmaCfg + 520
   \   000050   7412         MOV     A,#0x12
   \   000052   801C         SJMP    ??HalUARTOpenDMA_8
   \                     ??HalUARTOpenDMA_5:
   \   000054   75C50A       MOV     0xc5,#0xa
   \   000057   90....       MOV     DPTR,#dmaCfg + 520
   \   00005A   7409         MOV     A,#0x9
   \   00005C   8012         SJMP    ??HalUARTOpenDMA_8
   \                     ??HalUARTOpenDMA_6:
   \   00005E   75C50A       MOV     0xc5,#0xa
   \   000061   90....       MOV     DPTR,#dmaCfg + 520
   \   000064   7406         MOV     A,#0x6
   \   000066   8008         SJMP    ??HalUARTOpenDMA_8
   \                     ??HalUARTOpenDMA_7:
   \   000068   75C50B       MOV     0xc5,#0xb
   \   00006B   90....       MOV     DPTR,#dmaCfg + 520
   \   00006E   7403         MOV     A,#0x3
   \                     ??HalUARTOpenDMA_8:
   \   000070   F0           MOVX    @DPTR,A
   \   000071   8A82         MOV     DPL,R2
   \   000073   8B83         MOV     DPH,R3
   \   000075   A3           INC     DPTR
   \   000076   A3           INC     DPTR
   \   000077   E0           MOVX    A,@DPTR
   \   000078   600D         JZ      ??HalUARTOpenDMA_9
   \   00007A   75C442       MOV     0xc4,#0x42
   \   00007D   43F310       ORL     0xf3,#0x10
   \   000080   C285         CLR     0x80.5
   \   000082   43FD20       ORL     0xfd,#0x20
   \   000085   8003         SJMP    ??HalUARTOpenDMA_10
   \                     ??HalUARTOpenDMA_9:
   \   000087   75C402       MOV     0xc4,#0x2
   \                     ??HalUARTOpenDMA_10:
   \   00008A   9070C1       MOV     DPTR,#0x70c1
   \   00008D   E0           MOVX    A,@DPTR
   \   00008E   90....       MOV     DPTR,#dmaCfg
   \   000091   F0           MOVX    @DPTR,A
   \   000092   A3           INC     DPTR
   \   000093   E4           CLR     A
   \   000094   F0           MOVX    @DPTR,A
   \   000095   75D1F7       MOV     0xd1,#-0x9
   \   000098   75D608       MOV     0xd6,#0x8
   \   00009B                ; Setup parameters for call to function osal_memset
   \   00009B   FC           MOV     R4,A
   \   00009C   7D01         MOV     R5,#0x1
   \   00009E   E5C2         MOV     A,0xc2
   \   0000A0   F4           CPL     A
   \   0000A1   F9           MOV     R1,A
   \   0000A2   7A..         MOV     R2,#dmaCfg & 0xff
   \   0000A4   7B..         MOV     R3,#(dmaCfg >> 8) & 0xff
   \   0000A6   12....       LCALL   ??osal_memset?relay
   \   0000A9   438640       ORL     0x86,#0x40
   \   0000AC   90....       MOV     DPTR,#dmaCfg + 523
   \   0000AF   E4           CLR     A
   \   0000B0   F0           MOVX    @DPTR,A
   \   0000B1   90....       MOV     DPTR,#dmaCfg + 522
   \   0000B4   02....       LJMP    ?Subroutine0 & 0xFFFF
   \   0000B7                REQUIRE U0BAUD
   \   0000B7                REQUIRE U0GCR
   \   0000B7                REQUIRE U0UCR
   \   0000B7                REQUIRE P0SEL
   \   0000B7                REQUIRE _A_P0
   \   0000B7                REQUIRE P0DIR
   \   0000B7                REQUIRE DMAIRQ
   \   0000B7                REQUIRE DMAARM
   \   0000B7                REQUIRE U0CSR

   \                                 In  segment BANKED_CODE, align 1, keep-with-next
   \                     ??Subroutine15_0:
   \   000000   3400         ADDC    A,#0x0
   \   000002   F583         MOV     DPH,A
   \   000004   E0           MOVX    A,@DPTR
   \   000005   22           RET

   \                                 In  segment BANKED_CODE, align 1, keep-with-next
   \   static __banked_func __xdata_reentrant uint16 HalUARTReadDMA(unsigned char *, uint16)
   \                     HalUARTReadDMA:
   \   000000   74F6         MOV     A,#-0xa
   \   000002   12....       LCALL   ?BANKED_ENTER_XDATA
   \   000005                ; Saved register size: 10
   \   000005                ; Auto size: 0
   \   000005   7800         MOV     R0,#0x0
   \   000007   7900         MOV     R1,#0x0
   \   000009   802F         SJMP    ??HalUARTReadDMA_0
   \                     ??HalUARTReadDMA_1:
   \   00000B   8A82         MOV     DPL,R2
   \   00000D   8B83         MOV     DPH,R3
   \   00000F   E5..         MOV     A,?V0 + 0
   \   000011   F0           MOVX    @DPTR,A
   \   000012   A3           INC     DPTR
   \   000013   AA82         MOV     R2,DPL
   \   000015   AB83         MOV     R3,DPH
   \   000017   E5C2         MOV     A,0xc2
   \   000019   F4           CPL     A
   \   00001A   F5..         MOV     ?V0 + 1,A
   \   00001C   12....       LCALL   ?Subroutine5 & 0xFFFF
   \                     ??CrossCallReturnLabel_6:
   \   00001F   E4           CLR     A
   \   000020   F0           MOVX    @DPTR,A
   \   000021   A3           INC     DPTR
   \   000022   E5..         MOV     A,?V0 + 1
   \   000024   F0           MOVX    @DPTR,A
   \   000025   90....       MOV     DPTR,#dmaCfg + 256
   \   000028   E0           MOVX    A,@DPTR
   \   000029   04           INC     A
   \   00002A   F0           MOVX    @DPTR,A
   \   00002B   C3           CLR     C
   \   00002C   9480         SUBB    A,#-0x80
   \   00002E   4002         JC      ??HalUARTReadDMA_2
   \   000030   E4           CLR     A
   \   000031   F0           MOVX    @DPTR,A
   \                     ??HalUARTReadDMA_2:
   \   000032   E8           MOV     A,R0
   \   000033   2401         ADD     A,#0x1
   \   000035   08           INC     R0
   \   000036   E9           MOV     A,R1
   \   000037   3400         ADDC    A,#0x0
   \   000039   F9           MOV     R1,A
   \                     ??HalUARTReadDMA_0:
   \   00003A   C3           CLR     C
   \   00003B   E8           MOV     A,R0
   \   00003C   9C           SUBB    A,R4
   \   00003D   E9           MOV     A,R1
   \   00003E   9D           SUBB    A,R5
   \   00003F   500C         JNC     ??HalUARTReadDMA_3
   \   000041   12....       LCALL   ?Subroutine5 & 0xFFFF
   \                     ??CrossCallReturnLabel_7:
   \   000044   E0           MOVX    A,@DPTR
   \   000045   F5..         MOV     ?V0 + 0,A
   \   000047   A3           INC     DPTR
   \   000048   E0           MOVX    A,@DPTR
   \   000049   65C2         XRL     A,0xc2
   \   00004B   60BE         JZ      ??HalUARTReadDMA_1
   \                     ??HalUARTReadDMA_3:
   \   00004D   C285         CLR     0x80.5
   \   00004F   E8           MOV     A,R0
   \   000050   FA           MOV     R2,A
   \   000051   E9           MOV     A,R1
   \   000052   FB           MOV     R3,A
   \   000053   7F02         MOV     R7,#0x2
   \   000055   02....       LJMP    ?BANKED_LEAVE_XDATA
   \   000058                REQUIRE U0BAUD
   \   000058                REQUIRE _A_P0

   \                                 In  segment BANKED_CODE, align 1, keep-with-next
   \                     ?Subroutine5:
   \   000000   90....       MOV     DPTR,#dmaCfg + 256
   \   000003   E0           MOVX    A,@DPTR
   \   000004   C3           CLR     C
   \   000005   33           RLC     A
   \   000006   FE           MOV     R6,A
   \   000007   E4           CLR     A
   \   000008   33           RLC     A
   \   000009   FF           MOV     R7,A
   \   00000A   74..         MOV     A,#dmaCfg & 0xff
   \   00000C   2E           ADD     A,R6
   \   00000D   F582         MOV     DPL,A
   \   00000F   74..         MOV     A,#(dmaCfg >> 8) & 0xff
   \   000011   3F           ADDC    A,R7
   \   000012   F583         MOV     DPH,A
   \   000014   22           RET

   \                                 In  segment BANKED_CODE, align 1, keep-with-next
   \   static __banked_func __xdata_reentrant uint16 HalUARTWriteDMA(unsigned char *, uint16)
   \                     HalUARTWriteDMA:
   \   000000   74EF         MOV     A,#-0x11
   \   000002   12....       LCALL   ?BANKED_ENTER_XDATA
   \   000005                ; Saved register size: 17
   \   000005                ; Auto size: 0
   \   000005   EA           MOV     A,R2
   \   000006   FE           MOV     R6,A
   \   000007   EB           MOV     A,R3
   \   000008   FF           MOV     R7,A
   \   000009   12....       LCALL   ?Subroutine6 & 0xFFFF
   \                     ??CrossCallReturnLabel_26:
   \   00000C   F8           MOV     R0,A
   \   00000D   EC           MOV     A,R4
   \   00000E   28           ADD     A,R0
   \   00000F   F8           MOV     R0,A
   \   000010   ED           MOV     A,R5
   \   000011   3400         ADDC    A,#0x0
   \   000013   F9           MOV     R1,A
   \   000014   C3           CLR     C
   \   000015   E8           MOV     A,R0
   \   000016   9481         SUBB    A,#-0x7f
   \   000018   E9           MOV     A,R1
   \   000019   9400         SUBB    A,#0x0
   \   00001B   4007         JC      ??HalUARTWriteDMA_0
   \   00001D   7A00         MOV     R2,#0x0
   \   00001F   7B00         MOV     R3,#0x0
   \   000021   02....       LJMP    ??HalUARTWriteDMA_1 & 0xFFFF
   \                     ??HalUARTWriteDMA_0:
   \   000024   E5A8         MOV     A,0xa8
   \   000026   F8           MOV     R0,A
   \   000027   C2AF         CLR     0xa8.7
   \   000029   90....       MOV     DPTR,#dmaCfg + 518
   \   00002C   12....       LCALL   ?Subroutine8 & 0xFFFF
   \                     ??CrossCallReturnLabel_10:
   \   00002F   75..00       MOV     ?V0 + 1,#0x0
   \   000032   74..         MOV     A,#(dmaCfg + 4) & 0xff
   \   000034   25..         ADD     A,?V0 + 0
   \   000036   12....       LCALL   ??Subroutine14_0 & 0xFFFF
   \                     ??CrossCallReturnLabel_23:
   \   000039   F5..         MOV     ?V0 + 8,A
   \   00003B   E8           MOV     A,R0
   \   00003C   A2E7         MOV     C,0xE0 /* A   */.7
   \   00003E   A2E7         MOV     C,0xE0 /* A   */.7
   \   000040   92AF         MOV     0xa8.7,C
   \   000042   7A00         MOV     R2,#0x0
   \   000044   7B00         MOV     R3,#0x0
   \   000046   801A         SJMP    ??CrossCallReturnLabel_4
   \                     ??HalUARTWriteDMA_2:
   \   000048   12....       LCALL   ?Subroutine11 & 0xFFFF
   \                     ??CrossCallReturnLabel_17:
   \   00004B   C0E0         PUSH    A
   \   00004D   85....       MOV     ?V0 + 2,?V0 + 0
   \   000050   85....       MOV     ?V0 + 3,?V0 + 1
   \   000053   7407         MOV     A,#0x7
   \   000055   78..         MOV     R0,#?V0 + 2
   \   000057   12....       LCALL   ?S_SHL
   \   00005A   12....       LCALL   ?Subroutine7 & 0xFFFF
   \                     ??CrossCallReturnLabel_8:
   \   00005D   D0E0         POP     A
   \   00005F   12....       LCALL   ?Subroutine4 & 0xFFFF
   \                     ??CrossCallReturnLabel_4:
   \   000062   C3           CLR     C
   \   000063   EA           MOV     A,R2
   \   000064   9C           SUBB    A,R4
   \   000065   EB           MOV     A,R3
   \   000066   9D           SUBB    A,R5
   \   000067   40DF         JC      ??HalUARTWriteDMA_2
   \   000069   A2AF         MOV     C,0xa8.7
   \   00006B   E4           CLR     A
   \   00006C   33           RLC     A
   \   00006D   F5..         MOV     ?V0 + 0,A
   \   00006F   C2AF         CLR     0xa8.7
   \   000071   90....       MOV     DPTR,#dmaCfg + 518
   \   000074   E0           MOVX    A,@DPTR
   \   000075   65..         XRL     A,?V0 + 7
   \   000077   6041         JZ      ??HalUARTWriteDMA_3
   \   000079   E5..         MOV     A,?V0 + 0
   \   00007B   A2E0         MOV     C,0xE0 /* A   */.0
   \   00007D   92AF         MOV     0xa8.7,C
   \   00007F   12....       LCALL   ?Subroutine8 & 0xFFFF
   \                     ??CrossCallReturnLabel_11:
   \   000082   74..         MOV     A,#(dmaCfg + 4) & 0xff
   \   000084   25..         ADD     A,?V0 + 0
   \   000086   12....       LCALL   ??Subroutine14_0 & 0xFFFF
   \                     ??CrossCallReturnLabel_24:
   \   000089   F5..         MOV     ?V0 + 8,A
   \   00008B   7A00         MOV     R2,#0x0
   \   00008D   7B00         MOV     R3,#0x0
   \   00008F   801A         SJMP    ??CrossCallReturnLabel_5
   \                     ??HalUARTWriteDMA_4:
   \   000091   12....       LCALL   ?Subroutine11 & 0xFFFF
   \                     ??CrossCallReturnLabel_18:
   \   000094   C0E0         PUSH    A
   \   000096   85....       MOV     ?V0 + 2,?V0 + 0
   \   000099   85....       MOV     ?V0 + 3,?V0 + 1
   \   00009C   7407         MOV     A,#0x7
   \   00009E   78..         MOV     R0,#?V0 + 2
   \   0000A0   12....       LCALL   ?S_SHL
   \   0000A3   12....       LCALL   ?Subroutine7 & 0xFFFF
   \                     ??CrossCallReturnLabel_9:
   \   0000A6   D0E0         POP     A
   \   0000A8   12....       LCALL   ?Subroutine4 & 0xFFFF
   \                     ??CrossCallReturnLabel_5:
   \   0000AB   C3           CLR     C
   \   0000AC   EA           MOV     A,R2
   \   0000AD   9C           SUBB    A,R4
   \   0000AE   EB           MOV     A,R3
   \   0000AF   9D           SUBB    A,R5
   \   0000B0   40DF         JC      ??HalUARTWriteDMA_4
   \   0000B2   A2AF         MOV     C,0xa8.7
   \   0000B4   E4           CLR     A
   \   0000B5   33           RLC     A
   \   0000B6   F5..         MOV     ?V0 + 0,A
   \   0000B8   C2AF         CLR     0xa8.7
   \                     ??HalUARTWriteDMA_3:
   \   0000BA   85..82       MOV     DPL,?V0 + 7
   \   0000BD   A882         MOV     R0,DPL
   \   0000BF   12....       LCALL   ?Subroutine10 & 0xFFFF
   \                     ??CrossCallReturnLabel_15:
   \   0000C2   E5..         MOV     A,?V0 + 8
   \   0000C4   F0           MOVX    @DPTR,A
   \   0000C5   E8           MOV     A,R0
   \   0000C6   6401         XRL     A,#0x1
   \   0000C8   12....       LCALL   ??Subroutine13_0 & 0xFFFF
   \                     ??CrossCallReturnLabel_25:
   \   0000CB   7006         JNZ     ??HalUARTWriteDMA_5
   \   0000CD   90....       MOV     DPTR,#dmaCfg + 523
   \   0000D0   7401         MOV     A,#0x1
   \   0000D2   F0           MOVX    @DPTR,A
   \                     ??HalUARTWriteDMA_5:
   \   0000D3   E5..         MOV     A,?V0 + 0
   \   0000D5   A2E0         MOV     C,0xE0 /* A   */.0
   \   0000D7   92AF         MOV     0xa8.7,C
   \                     ??HalUARTWriteDMA_1:
   \   0000D9   7F09         MOV     R7,#0x9
   \   0000DB   02....       LJMP    ?BANKED_LEAVE_XDATA
   \   0000DE                REQUIRE _A_IEN0

   \                                 In  segment BANKED_CODE, align 1, keep-with-next
   \                     ?Subroutine11:
   \   000000   EE           MOV     A,R6
   \   000001   2A           ADD     A,R2
   \   000002   F582         MOV     DPL,A
   \   000004   EF           MOV     A,R7
   \   000005   3B           ADDC    A,R3
   \   000006   F583         MOV     DPH,A
   \   000008   E0           MOVX    A,@DPTR
   \   000009   22           RET

   \                                 In  segment BANKED_CODE, align 1, keep-with-next
   \                     ?Subroutine8:
   \   000000   E0           MOVX    A,@DPTR
   \   000001   F5..         MOV     ?V0 + 7,A
   \   000003   F582         MOV     DPL,A
   \   000005   8582..       MOV     ?V0 + 0,DPL
   \   000008   22           RET

   \                                 In  segment BANKED_CODE, align 1, keep-with-next
   \                     ?Subroutine7:
   \   000000   85....       MOV     ?V0 + 4,?V0 + 8
   \   000003   74..         MOV     A,#(dmaCfg + 4) & 0xff
   \   000005   25..         ADD     A,?V0 + 4
   \   000007   F8           MOV     R0,A
   \   000008   74..         MOV     A,#((dmaCfg + 260) >> 8) & 0xff
   \   00000A   3400         ADDC    A,#0x0
   \   00000C   F9           MOV     R1,A
   \   00000D   E8           MOV     A,R0
   \   00000E   25..         ADD     A,?V0 + 2
   \   000010   F582         MOV     DPL,A
   \   000012   E9           MOV     A,R1
   \   000013   35..         ADDC    A,?V0 + 3
   \   000015   F583         MOV     DPH,A
   \   000017   22           RET

   \                                 In  segment BANKED_CODE, align 1, keep-with-next
   \                     ?Subroutine6:
   \   000000   90....       MOV     DPTR,#dmaCfg + 518
   \   000003   E0           MOVX    A,@DPTR
   \   000004                REQUIRE ??Subroutine13_0
   \   000004                ; // Fall through to label ??Subroutine13_0

   \                                 In  segment BANKED_CODE, align 1, keep-with-next
   \                     ??Subroutine13_0:
   \   000000   F8           MOV     R0,A
   \   000001   74..         MOV     A,#(dmaCfg + 4) & 0xff
   \   000003   28           ADD     A,R0
   \   000004                REQUIRE ??Subroutine14_0
   \   000004                ; // Fall through to label ??Subroutine14_0

   \                                 In  segment BANKED_CODE, align 1, keep-with-next
   \                     ??Subroutine14_0:
   \   000000   F582         MOV     DPL,A
   \   000002   74..         MOV     A,#((dmaCfg + 516) >> 8) & 0xff
   \   000004                REQUIRE ??Subroutine15_0
   \   000004                ; // Fall through to label ??Subroutine15_0

   \                                 In  segment BANKED_CODE, align 1, keep-with-next
   \                     ?Subroutine4:
   \   000000   F0           MOVX    @DPTR,A
   \   000001   05..         INC     ?V0 + 8
   \   000003   EA           MOV     A,R2
   \   000004   2401         ADD     A,#0x1
   \   000006   0A           INC     R2
   \   000007   EB           MOV     A,R3
   \   000008   3400         ADDC    A,#0x0
   \   00000A   FB           MOV     R3,A
   \   00000B   22           RET

   \                                 In  segment BANKED_CODE, align 1, keep-with-next
   \                     ?Subroutine10:
   \   000000   12....       LCALL   ?Subroutine12 & 0xFFFF
   \                     ??CrossCallReturnLabel_20:
   \   000003   22           RET

   \                                 In  segment BANKED_CODE, align 1, keep-with-next
   \                     ?Subroutine12:
   \   000000   74..         MOV     A,#(dmaCfg + 4) & 0xff
   \   000002   28           ADD     A,R0
   \   000003   F582         MOV     DPL,A
   \   000005   74..         MOV     A,#((dmaCfg + 516) >> 8) & 0xff
   \   000007   3400         ADDC    A,#0x0
   \   000009   F583         MOV     DPH,A
   \   00000B   22           RET

   \                                 In  segment BANKED_CODE, align 1, keep-with-next
   \   static __banked_func __xdata_reentrant void HalUARTPollDMA(void)
   \                     HalUARTPollDMA:
   \   000000   74F5         MOV     A,#-0xb
   \   000002   12....       LCALL   ?BANKED_ENTER_XDATA
   \   000005                ; Saved register size: 11
   \   000005                ; Auto size: 0
   \   000005   7E00         MOV     R6,#0x0
   \   000007   90....       MOV     DPTR,#dmaCfg + 256
   \   00000A   E0           MOVX    A,@DPTR
   \   00000B   FA           MOV     R2,A
   \   00000C   12....       LCALL   ?Subroutine9 & 0xFFFF
   \                     ??CrossCallReturnLabel_12:
   \   00000F   7063         JNZ     ??HalUARTPollDMA_0
   \   000011   EA           MOV     A,R2
   \   000012   FF           MOV     R7,A
   \                     ??HalUARTPollDMA_1:
   \   000013   EF           MOV     A,R7
   \   000014   12....       LCALL   ?Subroutine9 & 0xFFFF
   \                     ??CrossCallReturnLabel_13:
   \   000017   700D         JNZ     ??HalUARTPollDMA_2
   \   000019   0F           INC     R7
   \   00001A   EF           MOV     A,R7
   \   00001B   C3           CLR     C
   \   00001C   9480         SUBB    A,#-0x80
   \   00001E   4002         JC      ??HalUARTPollDMA_3
   \   000020   7F00         MOV     R7,#0x0
   \                     ??HalUARTPollDMA_3:
   \   000022   EA           MOV     A,R2
   \   000023   6F           XRL     A,R7
   \   000024   70ED         JNZ     ??HalUARTPollDMA_1
   \                     ??HalUARTPollDMA_2:
   \   000026   90....       MOV     DPTR,#dmaCfg + 257
   \   000029   E0           MOVX    A,@DPTR
   \   00002A   6F           XRL     A,R7
   \   00002B   6011         JZ      ??HalUARTPollDMA_4
   \   00002D   EF           MOV     A,R7
   \   00002E   F0           MOVX    @DPTR,A
   \   00002F   A3           INC     DPTR
   \   000030   E0           MOVX    A,@DPTR
   \   000031   7004         JNZ     ??HalUARTPollDMA_5
   \   000033   E595         MOV     A,0x95
   \   000035   A3           INC     DPTR
   \   000036   F0           MOVX    @DPTR,A
   \                     ??HalUARTPollDMA_5:
   \   000037   90....       MOV     DPTR,#dmaCfg + 258
   \   00003A   74C6         MOV     A,#-0x3a
   \   00003C   801E         SJMP    ??HalUARTPollDMA_6
   \                     ??HalUARTPollDMA_4:
   \   00003E   A3           INC     DPTR
   \   00003F   E0           MOVX    A,@DPTR
   \   000040   F9           MOV     R1,A
   \   000041   601A         JZ      ??HalUARTPollDMA_7
   \   000043   A3           INC     DPTR
   \   000044   E0           MOVX    A,@DPTR
   \   000045   F8           MOV     R0,A
   \   000046   E595         MOV     A,0x95
   \   000048   C3           CLR     C
   \   000049   98           SUBB    A,R0
   \   00004A   F8           MOV     R0,A
   \   00004B   C3           CLR     C
   \   00004C   99           SUBB    A,R1
   \   00004D   90....       MOV     DPTR,#dmaCfg + 258
   \   000050   5009         JNC     ??HalUARTPollDMA_8
   \   000052   E0           MOVX    A,@DPTR
   \   000053   C3           CLR     C
   \   000054   98           SUBB    A,R0
   \   000055   F0           MOVX    @DPTR,A
   \   000056   E595         MOV     A,0x95
   \   000058   A3           INC     DPTR
   \   000059   8001         SJMP    ??HalUARTPollDMA_6
   \                     ??HalUARTPollDMA_8:
   \   00005B   E4           CLR     A
   \                     ??HalUARTPollDMA_6:
   \   00005C   F0           MOVX    @DPTR,A
   \                     ??HalUARTPollDMA_7:
   \   00005D                ; Setup parameters for call to function HalUARTRxAvailDMA
   \   00005D   12....       LCALL   ??HalUARTRxAvailDMA?relay
   \   000060   8A..         MOV     ?V0 + 0,R2
   \   000062   8B..         MOV     ?V0 + 1,R3
   \   000064   A8..         MOV     R0,?V0 + 0
   \   000066   A9..         MOV     R1,?V0 + 1
   \   000068   C3           CLR     C
   \   000069   E8           MOV     A,R0
   \   00006A   9470         SUBB    A,#0x70
   \   00006C   E9           MOV     A,R1
   \   00006D   9400         SUBB    A,#0x0
   \   00006F   400A         JC      ??HalUARTPollDMA_9
   \   000071   0E           INC     R6
   \   000072   8022         SJMP    ??HalUARTPollDMA_10
   \                     ??HalUARTPollDMA_0:
   \   000074   90....       MOV     DPTR,#dmaCfg + 258
   \   000077   E4           CLR     A
   \   000078   F0           MOVX    @DPTR,A
   \   000079   801B         SJMP    ??HalUARTPollDMA_10
   \                     ??HalUARTPollDMA_9:
   \   00007B   C3           CLR     C
   \   00007C   E8           MOV     A,R0
   \   00007D   9440         SUBB    A,#0x40
   \   00007F   E9           MOV     A,R1
   \   000080   9400         SUBB    A,#0x0
   \   000082   4006         JC      ??HalUARTPollDMA_11
   \   000084   0E           INC     R6
   \   000085   0E           INC     R6
   \   000086   D285         SETB    0x80.5
   \   000088   800C         SJMP    ??HalUARTPollDMA_10
   \                     ??HalUARTPollDMA_11:
   \   00008A   E8           MOV     A,R0
   \   00008B   49           ORL     A,R1
   \   00008C   6008         JZ      ??HalUARTPollDMA_10
   \   00008E   90....       MOV     DPTR,#dmaCfg + 258
   \   000091   E0           MOVX    A,@DPTR
   \   000092   7002         JNZ     ??HalUARTPollDMA_10
   \   000094   7E04         MOV     R6,#0x4
   \                     ??HalUARTPollDMA_10:
   \   000096   90....       MOV     DPTR,#dmaCfg + 519
   \   000099   E0           MOVX    A,@DPTR
   \   00009A   6006         JZ      ??HalUARTPollDMA_12
   \   00009C   E4           CLR     A
   \   00009D   F0           MOVX    @DPTR,A
   \   00009E   EE           MOV     A,R6
   \   00009F   D2E4         SETB    0xE0 /* A   */.4
   \   0000A1   FE           MOV     R6,A
   \                     ??HalUARTPollDMA_12:
   \   0000A2   90....       MOV     DPTR,#dmaCfg + 522
   \   0000A5   E0           MOVX    A,@DPTR
   \   0000A6   6019         JZ      ??HalUARTPollDMA_13
   \   0000A8   E595         MOV     A,0x95
   \   0000AA   F9           MOV     R1,A
   \   0000AB   90....       MOV     DPTR,#dmaCfg + 521
   \   0000AE   E0           MOVX    A,@DPTR
   \   0000AF   F8           MOV     R0,A
   \   0000B0   E9           MOV     A,R1
   \   0000B1   C3           CLR     C
   \   0000B2   98           SUBB    A,R0
   \   0000B3   F8           MOV     R0,A
   \   0000B4   90....       MOV     DPTR,#dmaCfg + 520
   \   0000B7   E0           MOVX    A,@DPTR
   \   0000B8   C3           CLR     C
   \   0000B9   98           SUBB    A,R0
   \   0000BA   5005         JNC     ??HalUARTPollDMA_13
   \   0000BC   90....       MOV     DPTR,#dmaCfg + 522
   \   0000BF   E4           CLR     A
   \   0000C0   F0           MOVX    @DPTR,A
   \                     ??HalUARTPollDMA_13:
   \   0000C1   90....       MOV     DPTR,#dmaCfg + 523
   \   0000C4   E0           MOVX    A,@DPTR
   \   0000C5   6056         JZ      ??HalUARTPollDMA_14
   \   0000C7   90....       MOV     DPTR,#dmaCfg + 522
   \   0000CA   E0           MOVX    A,@DPTR
   \   0000CB   7050         JNZ     ??HalUARTPollDMA_14
   \   0000CD   A3           INC     DPTR
   \   0000CE   E4           CLR     A
   \   0000CF   12....       LCALL   ?Subroutine3 & 0xFFFF
   \                     ??CrossCallReturnLabel_2:
   \   0000D2   12....       LCALL   ?S_SHL
   \   0000D5   74..         MOV     A,#(dmaCfg + 4) & 0xff
   \   0000D7   25..         ADD     A,?V0 + 0
   \   0000D9   74..         MOV     A,#((dmaCfg + 260) >> 8) & 0xff
   \   0000DB   35..         ADDC    A,?V0 + 1
   \   0000DD   90....       MOV     DPTR,#dmaCh1234 + 24
   \   0000E0   12....       LCALL   ?Subroutine3 & 0xFFFF
   \                     ??CrossCallReturnLabel_3:
   \   0000E3   12....       LCALL   ?S_SHL
   \   0000E6   74..         MOV     A,#(dmaCfg + 4) & 0xff
   \   0000E8   25..         ADD     A,?V0 + 0
   \   0000EA   90....       MOV     DPTR,#dmaCh1234 + 25
   \   0000ED   12....       LCALL   ?Subroutine2 & 0xFFFF
   \                     ??CrossCallReturnLabel_0:
   \   0000F0   90....       MOV     DPTR,#dmaCh1234 + 29
   \   0000F3   F0           MOVX    @DPTR,A
   \   0000F4   90....       MOV     DPTR,#dmaCh1234 + 28
   \   0000F7   E0           MOVX    A,@DPTR
   \   0000F8   54E0         ANL     A,#0xe0
   \   0000FA   F0           MOVX    @DPTR,A
   \   0000FB   90....       MOV     DPTR,#dmaCfg + 518
   \   0000FE   E0           MOVX    A,@DPTR
   \   0000FF   E0           MOVX    A,@DPTR
   \   000100   6401         XRL     A,#0x1
   \   000102   F0           MOVX    @DPTR,A
   \   000103   A2AF         MOV     C,0xa8.7
   \   000105   E4           CLR     A
   \   000106   33           RLC     A
   \   000107   F8           MOV     R0,A
   \   000108   C2AF         CLR     0xa8.7
   \   00010A   75D610       MOV     0xd6,#0x10
   \                     ??HalUARTPollDMA_15:
   \   00010D   00           NOP
   \   00010E   E5D6         MOV     A,0xd6
   \   000110   A2E4         MOV     C,0xE0 /* A   */.4
   \   000112   50F9         JNC     ??HalUARTPollDMA_15
   \   000114   75D1EF       MOV     0xd1,#-0x11
   \   000117   75D710       MOV     0xd7,#0x10
   \   00011A   E8           MOV     A,R0
   \   00011B   8023         SJMP    ??HalUARTPollDMA_16
   \                     ??HalUARTPollDMA_14:
   \   00011D   A2AF         MOV     C,0xa8.7
   \   00011F   E4           CLR     A
   \   000120   33           RLC     A
   \   000121   FA           MOV     R2,A
   \   000122   C2AF         CLR     0xa8.7
   \   000124   12....       LCALL   ?Subroutine6 & 0xFFFF
   \                     ??CrossCallReturnLabel_27:
   \   000127   6016         JZ      ??HalUARTPollDMA_17
   \   000129   E5D6         MOV     A,0xd6
   \   00012B   A2E4         MOV     C,0xE0 /* A   */.4
   \   00012D   4010         JC      ??HalUARTPollDMA_17
   \   00012F   E5D1         MOV     A,0xd1
   \   000131   A2E4         MOV     C,0xE0 /* A   */.4
   \   000133   400A         JC      ??HalUARTPollDMA_17
   \   000135   EA           MOV     A,R2
   \   000136   A2E0         MOV     C,0xE0 /* A   */.0
   \   000138   92AF         MOV     0xa8.7,C
   \   00013A                ; Setup parameters for call to function HalUARTIsrDMA
   \   00013A   12....       LCALL   ??HalUARTIsrDMA?relay
   \   00013D   8005         SJMP    ??HalUARTPollDMA_18
   \                     ??HalUARTPollDMA_17:
   \   00013F   EA           MOV     A,R2
   \                     ??HalUARTPollDMA_16:
   \   000140   A2E0         MOV     C,0xE0 /* A   */.0
   \   000142   92AF         MOV     0xa8.7,C
   \                     ??HalUARTPollDMA_18:
   \   000144   EE           MOV     A,R6
   \   000145   6019         JZ      ??HalUARTPollDMA_19
   \   000147   90....       MOV     DPTR,#dmaCfg + 524
   \   00014A   E0           MOVX    A,@DPTR
   \   00014B   F8           MOV     R0,A
   \   00014C   A3           INC     DPTR
   \   00014D   E0           MOVX    A,@DPTR
   \   00014E   F9           MOV     R1,A
   \   00014F   8882         MOV     DPL,R0
   \   000151   8983         MOV     DPH,R1
   \   000153   E582         MOV     A,DPL
   \   000155   4583         ORL     A,DPH
   \   000157   6007         JZ      ??HalUARTPollDMA_19
   \   000159                ; Setup parameters for indirect call
   \   000159   EE           MOV     A,R6
   \   00015A   FA           MOV     R2,A
   \   00015B   7900         MOV     R1,#0x0
   \   00015D   12....       LCALL   ?CALL_IND
   \                     ??HalUARTPollDMA_19:
   \   000160   7F03         MOV     R7,#0x3
   \   000162   02....       LJMP    ?BANKED_LEAVE_XDATA
   \   000165                REQUIRE U0BAUD
   \   000165                REQUIRE ST0
   \   000165                REQUIRE _A_P0
   \   000165                REQUIRE _A_IEN0
   \   000165                REQUIRE DMAARM
   \   000165                REQUIRE DMAIRQ
   \   000165                REQUIRE DMAREQ

   \                                 In  segment BANKED_CODE, align 1, keep-with-next
   \                     ?Subroutine3:
   \   000000   F0           MOVX    @DPTR,A
   \   000001   90....       MOV     DPTR,#dmaCfg + 518
   \   000004   E0           MOVX    A,@DPTR
   \   000005   F5..         MOV     ?V0 + 0,A
   \   000007   75..00       MOV     ?V0 + 1,#0x0
   \   00000A   7407         MOV     A,#0x7
   \   00000C   78..         MOV     R0,#?V0 + 0
   \   00000E   22           RET

   \                                 In  segment BANKED_CODE, align 1, keep-with-next
   \                     ?Subroutine9:
   \   000000   C3           CLR     C
   \   000001   33           RLC     A
   \   000002   F8           MOV     R0,A
   \   000003   E4           CLR     A
   \   000004   33           RLC     A
   \   000005   F9           MOV     R1,A
   \   000006   74..         MOV     A,#dmaCfg & 0xff
   \   000008   28           ADD     A,R0
   \   000009   F582         MOV     DPL,A
   \   00000B   74..         MOV     A,#(dmaCfg >> 8) & 0xff
   \   00000D   39           ADDC    A,R1
   \   00000E   F583         MOV     DPH,A
   \   000010   A3           INC     DPTR
   \   000011   E0           MOVX    A,@DPTR
   \   000012   65C2         XRL     A,0xc2
   \   000014   22           RET

   \                                 In  segment BANKED_CODE, align 1, keep-with-next
   \                     ?Subroutine2:
   \   000000   F0           MOVX    @DPTR,A
   \   000001   90....       MOV     DPTR,#dmaCfg + 518
   \   000004   E0           MOVX    A,@DPTR
   \   000005   F8           MOV     R0,A
   \   000006   12....       LCALL   ?Subroutine12 & 0xFFFF
   \                     ??CrossCallReturnLabel_19:
   \   000009   E0           MOVX    A,@DPTR
   \   00000A   22           RET

   \                                 In  segment BANKED_CODE, align 1, keep-with-next
   \   static __banked_func __xdata_reentrant uint16 HalUARTRxAvailDMA(void)
   \                     HalUARTRxAvailDMA:
   \   000000   C082         PUSH    DPL
   \   000002   C083         PUSH    DPH
   \   000004                ; Saved register size: 2
   \   000004                ; Auto size: 0
   \   000004   7A00         MOV     R2,#0x0
   \   000006   7B00         MOV     R3,#0x0
   \   000008   90....       MOV     DPTR,#dmaCfg + 256
   \   00000B   E0           MOVX    A,@DPTR
   \   00000C   12....       LCALL   ?Subroutine9 & 0xFFFF
   \                     ??CrossCallReturnLabel_14:
   \   00000F   7038         JNZ     ??HalUARTRxAvailDMA_0
   \   000011   7800         MOV     R0,#0x0
   \   000013   7900         MOV     R1,#0x0
   \                     ??HalUARTRxAvailDMA_1:
   \   000015   E8           MOV     A,R0
   \   000016   FC           MOV     R4,A
   \   000017   E9           MOV     A,R1
   \   000018   FD           MOV     R5,A
   \   000019   EC           MOV     A,R4
   \   00001A   C3           CLR     C
   \   00001B   33           RLC     A
   \   00001C   FC           MOV     R4,A
   \   00001D   ED           MOV     A,R5
   \   00001E   33           RLC     A
   \   00001F   FD           MOV     R5,A
   \   000020   74..         MOV     A,#dmaCfg & 0xff
   \   000022   2C           ADD     A,R4
   \   000023   F582         MOV     DPL,A
   \   000025   74..         MOV     A,#(dmaCfg >> 8) & 0xff
   \   000027   3D           ADDC    A,R5
   \   000028   F583         MOV     DPH,A
   \   00002A   A3           INC     DPTR
   \   00002B   E0           MOVX    A,@DPTR
   \   00002C   65C2         XRL     A,0xc2
   \   00002E   7008         JNZ     ??HalUARTRxAvailDMA_2
   \   000030   EA           MOV     A,R2
   \   000031   2401         ADD     A,#0x1
   \   000033   0A           INC     R2
   \   000034   EB           MOV     A,R3
   \   000035   3400         ADDC    A,#0x0
   \   000037   FB           MOV     R3,A
   \                     ??HalUARTRxAvailDMA_2:
   \   000038   E8           MOV     A,R0
   \   000039   2401         ADD     A,#0x1
   \   00003B   08           INC     R0
   \   00003C   E9           MOV     A,R1
   \   00003D   3400         ADDC    A,#0x0
   \   00003F   F9           MOV     R1,A
   \   000040   C3           CLR     C
   \   000041   E8           MOV     A,R0
   \   000042   9480         SUBB    A,#-0x80
   \   000044   E9           MOV     A,R1
   \   000045   9400         SUBB    A,#0x0
   \   000047   40CC         JC      ??HalUARTRxAvailDMA_1
   \                     ??HalUARTRxAvailDMA_0:
   \   000049   80..         SJMP    ??Subroutine16_0
   \   00004B                REQUIRE U0BAUD

   \                                 In  segment BANKED_CODE, align 1, keep-with-next
   \   __banked_func __xdata_reentrant void HalUARTIsrDMA(void)
   \                     HalUARTIsrDMA:
   \   000000   C082         PUSH    DPL
   \   000002   C083         PUSH    DPH
   \   000004                ; Saved register size: 2
   \   000004                ; Auto size: 0
   \   000004   75D1EF       MOV     0xd1,#-0x11
   \   000007   90....       MOV     DPTR,#dmaCfg + 518
   \   00000A   E0           MOVX    A,@DPTR
   \   00000B   6401         XRL     A,#0x1
   \   00000D   F8           MOV     R0,A
   \   00000E   12....       LCALL   ?Subroutine10 & 0xFFFF
   \                     ??CrossCallReturnLabel_16:
   \   000011   E4           CLR     A
   \   000012   F0           MOVX    @DPTR,A
   \   000013   90....       MOV     DPTR,#dmaCfg + 519
   \   000016   04           INC     A
   \   000017   F0           MOVX    @DPTR,A
   \   000018   E595         MOV     A,0x95
   \   00001A   90....       MOV     DPTR,#dmaCfg + 521
   \   00001D   F0           MOVX    @DPTR,A
   \   00001E   A3           INC     DPTR
   \   00001F   7401         MOV     A,#0x1
   \   000021   12....       LCALL   ?Subroutine2 & 0xFFFF
   \                     ??CrossCallReturnLabel_1:
   \   000024   6006         JZ      ??HalUARTIsrDMA_0
   \   000026   90....       MOV     DPTR,#dmaCfg + 523
   \   000029   7401         MOV     A,#0x1
   \   00002B   F0           MOVX    @DPTR,A
   \                     ??HalUARTIsrDMA_0:
   \   00002C   80..         SJMP    ??Subroutine16_0
   \   00002E                REQUIRE DMAIRQ
   \   00002E                REQUIRE ST0
     79          #endif
     80          #if HAL_UART_ISR
     81          #include "_hal_uart_isr.c"
     82          #endif
     83          #if HAL_UART_USB
     84          #include "_hal_uart_usb.c"
     85          #endif
     86          
     87          /******************************************************************************
     88           * @fn      HalUARTInit
     89           *
     90           * @brief   Initialize the UART
     91           *
     92           * @param   none
     93           *
     94           * @return  none
     95           *****************************************************************************/

   \                                 In  segment BANKED_CODE, align 1, keep-with-next
     96          void HalUARTInit(void)
   \                     HalUARTInit:
     97          {
   \   000000   C082         PUSH    DPL
   \   000002   C083         PUSH    DPH
   \   000004                ; Saved register size: 2
   \   000004                ; Auto size: 0
     98          #if HAL_UART_DMA
     99            HalUARTInitDMA();
   \   000004                ; Setup parameters for call to function HalUARTInitDMA
   \   000004   12....       LCALL   ??HalUARTInitDMA?relay
    100          #endif
    101          #if HAL_UART_ISR
    102            HalUARTInitISR();
    103          #endif
    104          #if HAL_UART_USB
    105            HalUARTInitUSB();
    106          #endif
    107          }
   \   000007   80..         SJMP    ??Subroutine16_0
    108          
    109          /******************************************************************************
    110           * @fn      HalUARTOpen
    111           *
    112           * @brief   Open a port according tp the configuration specified by parameter.
    113           *
    114           * @param   port   - UART port
    115           *          config - contains configuration information
    116           *
    117           * @return  Status of the function call
    118           *****************************************************************************/

   \                                 In  segment BANKED_CODE, align 1, keep-with-next
    119          uint8 HalUARTOpen(uint8 port, halUARTCfg_t *config)
   \                     HalUARTOpen:
    120          {
   \   000000   74F7         MOV     A,#-0x9
   \   000002   12....       LCALL   ?BANKED_ENTER_XDATA
   \   000005                ; Saved register size: 9
   \   000005                ; Auto size: 0
   \   000005   E9           MOV     A,R1
    121            (void)port;
    122            (void)config;
    123          
    124          #if (HAL_UART_DMA == 1)
    125            if (port == HAL_UART_PORT_0)  HalUARTOpenDMA(config);
   \   000006   7003         JNZ     ??HalUARTOpen_0
   \   000008                ; Setup parameters for call to function HalUARTOpenDMA
   \   000008   12....       LCALL   ??HalUARTOpenDMA?relay
    126          #endif
    127          #if (HAL_UART_DMA == 2)
    128            if (port == HAL_UART_PORT_1)  HalUARTOpenDMA(config);
    129          #endif
    130          #if (HAL_UART_ISR == 1)
    131            if (port == HAL_UART_PORT_0)  HalUARTOpenISR(config);
    132          #endif
    133          #if (HAL_UART_ISR == 2)
    134            if (port == HAL_UART_PORT_1)  HalUARTOpenISR(config);
    135          #endif
    136          #if (HAL_UART_USB)
    137            HalUARTOpenUSB(config);
    138          #endif
    139            
    140            return HAL_UART_SUCCESS;
   \                     ??HalUARTOpen_0:
   \   00000B   7900         MOV     R1,#0x0
   \   00000D   02....       LJMP    ?Subroutine1 & 0xFFFF
    141          }

   \                                 In  segment BANKED_CODE, align 1, keep-with-next
   \                     ?Subroutine1:
   \   000000   7F01         MOV     R7,#0x1
   \   000002   02....       LJMP    ?BANKED_LEAVE_XDATA
    142          
    143          /*****************************************************************************
    144           * @fn      HalUARTRead
    145           *
    146           * @brief   Read a buffer from the UART
    147           *
    148           * @param   port - USART module designation
    149           *          buf  - valid data buffer at least 'len' bytes in size
    150           *          len  - max length number of bytes to copy to 'buf'
    151           *
    152           * @return  length of buffer that was read
    153           *****************************************************************************/

   \                                 In  segment BANKED_CODE, align 1, keep-with-next
    154          uint16 HalUARTRead(uint8 port, uint8 *buf, uint16 len)
   \                     HalUARTRead:
    155          {
   \   000000   74F7         MOV     A,#-0x9
   \   000002   12....       LCALL   ?BANKED_ENTER_XDATA
   \   000005                ; Saved register size: 9
   \   000005                ; Auto size: 0
   \   000005   E9           MOV     A,R1
    156            (void)port;
    157            (void)buf;
    158            (void)len;
    159          
    160          #if (HAL_UART_DMA == 1)
    161            if (port == HAL_UART_PORT_0)  return HalUARTReadDMA(buf, len);
   \   000006   7005         JNZ     ??HalUARTRead_0
   \   000008                ; Setup parameters for call to function HalUARTReadDMA
   \   000008   12....       LCALL   ??HalUARTReadDMA?relay
   \   00000B   8004         SJMP    ??HalUARTRead_1
    162          #endif
    163          #if (HAL_UART_DMA == 2)
    164            if (port == HAL_UART_PORT_1)  return HalUARTReadDMA(buf, len);
    165          #endif
    166          #if (HAL_UART_ISR == 1)
    167            if (port == HAL_UART_PORT_0)  return HalUARTReadISR(buf, len);
    168          #endif
    169          #if (HAL_UART_ISR == 2)
    170            if (port == HAL_UART_PORT_1)  return HalUARTReadISR(buf, len);
    171          #endif
    172          
    173          #if HAL_UART_USB
    174            return HalUARTRx(buf, len);
    175          #else
    176            return 0;
   \                     ??HalUARTRead_0:
   \   00000D   7A00         MOV     R2,#0x0
   \   00000F   7B00         MOV     R3,#0x0
   \                     ??HalUARTRead_1:
   \   000011   02....       LJMP    ?Subroutine1 & 0xFFFF
    177          #endif
    178          }
    179          

   \                                 In  segment BANKED_CODE, align 1, keep-with-next
    180          uint8 CharToValue(uint8 string[2])
   \                     CharToValue:
    181          {
   \   000000   74F7         MOV     A,#-0x9
   \   000002   12....       LCALL   ?BANKED_ENTER_XDATA
   \   000005                ; Saved register size: 9
   \   000005                ; Auto size: 2
   \   000005   74FE         MOV     A,#-0x2
   \   000007   12....       LCALL   ?ALLOC_XSTACK8
    182           uint8 i,result;
    183           uint8 data[2];
    184            for(i=0;i<2;i++)
   \   00000A   7E00         MOV     R6,#0x0
    185              {
    186                switch(string[i])
   \                     ??CharToValue_0:
   \   00000C   8E82         MOV     DPL,R6
   \   00000E   AC82         MOV     R4,DPL
   \   000010   85..82       MOV     DPL,?XSP + 0
   \   000013   85..83       MOV     DPH,?XSP + 1
   \   000016   E582         MOV     A,DPL
   \   000018   2C           ADD     A,R4
   \   000019   F8           MOV     R0,A
   \   00001A   E583         MOV     A,DPH
   \   00001C   3400         ADDC    A,#0x0
   \   00001E   F9           MOV     R1,A
   \   00001F   EA           MOV     A,R2
   \   000020   2C           ADD     A,R4
   \   000021   F582         MOV     DPL,A
   \   000023   EB           MOV     A,R3
   \   000024   12....       LCALL   ??Subroutine15_0 & 0xFFFF
   \                     ??CrossCallReturnLabel_22:
   \   000027   24D0         ADD     A,#-0x30
   \   000029   7003         JNZ     $+5
   \   00002B   02....       LJMP    ??CharToValue_1 & 0xFFFF
   \   00002E   14           DEC     A
   \   00002F   7003         JNZ     $+5
   \   000031   02....       LJMP    ??CharToValue_2 & 0xFFFF
   \   000034   14           DEC     A
   \   000035   7003         JNZ     $+5
   \   000037   02....       LJMP    ??CharToValue_3 & 0xFFFF
   \   00003A   14           DEC     A
   \   00003B   7003         JNZ     $+5
   \   00003D   02....       LJMP    ??CharToValue_4 & 0xFFFF
   \   000040   14           DEC     A
   \   000041   7003         JNZ     $+5
   \   000043   02....       LJMP    ??CharToValue_5 & 0xFFFF
   \   000046   14           DEC     A
   \   000047   7003         JNZ     $+5
   \   000049   02....       LJMP    ??CharToValue_6 & 0xFFFF
   \   00004C   14           DEC     A
   \   00004D   607B         JZ      ??CharToValue_7
   \   00004F   14           DEC     A
   \   000050   6070         JZ      ??CharToValue_8
   \   000052   14           DEC     A
   \   000053   6065         JZ      ??CharToValue_9
   \   000055   14           DEC     A
   \   000056   605A         JZ      ??CharToValue_10
   \   000058   24F8         ADD     A,#-0x8
   \   00005A   604E         JZ      ??CharToValue_11
   \   00005C   14           DEC     A
   \   00005D   6043         JZ      ??CharToValue_12
   \   00005F   14           DEC     A
   \   000060   6038         JZ      ??CharToValue_13
   \   000062   14           DEC     A
   \   000063   602D         JZ      ??CharToValue_14
   \   000065   14           DEC     A
   \   000066   6022         JZ      ??CharToValue_15
   \   000068   14           DEC     A
   \   000069   6016         JZ      ??CharToValue_16
   \   00006B   24E5         ADD     A,#-0x1b
   \   00006D   603B         JZ      ??CharToValue_11
   \   00006F   14           DEC     A
   \   000070   6030         JZ      ??CharToValue_12
   \   000072   14           DEC     A
   \   000073   6025         JZ      ??CharToValue_13
   \   000075   14           DEC     A
   \   000076   601A         JZ      ??CharToValue_14
   \   000078   14           DEC     A
   \   000079   600F         JZ      ??CharToValue_15
   \   00007B   14           DEC     A
   \   00007C   6003         JZ      $+5
   \   00007E   02....       LJMP    ??CharToValue_17 & 0xFFFF
    187                {
    188                case 'f':
    189                case 'F':
    190                 data[i]=15;
   \                     ??CharToValue_16:
   \   000081   8882         MOV     DPL,R0
   \   000083   8983         MOV     DPH,R1
   \   000085   740F         MOV     A,#0xf
   \   000087   02....       LJMP    ??CharToValue_18 & 0xFFFF
    191                 break;
    192                case 'e':
    193                case 'E':
    194                 data[i]=14;
   \                     ??CharToValue_15:
   \   00008A   8882         MOV     DPL,R0
   \   00008C   8983         MOV     DPH,R1
   \   00008E   740E         MOV     A,#0xe
   \   000090   807A         SJMP    ??CharToValue_18
    195                 break;
    196                case 'd':
    197                case 'D':
    198                 data[i]=13;
   \                     ??CharToValue_14:
   \   000092   8882         MOV     DPL,R0
   \   000094   8983         MOV     DPH,R1
   \   000096   740D         MOV     A,#0xd
   \   000098   8072         SJMP    ??CharToValue_18
    199                 break;
    200                case 'c':
    201                case 'C':
    202                 data[i]=12;
   \                     ??CharToValue_13:
   \   00009A   8882         MOV     DPL,R0
   \   00009C   8983         MOV     DPH,R1
   \   00009E   740C         MOV     A,#0xc
   \   0000A0   806A         SJMP    ??CharToValue_18
    203                 break;
    204                case 'b':
    205                case 'B':
    206                 data[i]=11;
   \                     ??CharToValue_12:
   \   0000A2   8882         MOV     DPL,R0
   \   0000A4   8983         MOV     DPH,R1
   \   0000A6   740B         MOV     A,#0xb
   \   0000A8   8062         SJMP    ??CharToValue_18
    207                 break;
    208                case 'a':
    209                case 'A':
    210                 data[i]=10;
   \                     ??CharToValue_11:
   \   0000AA   8882         MOV     DPL,R0
   \   0000AC   8983         MOV     DPH,R1
   \   0000AE   740A         MOV     A,#0xa
   \   0000B0   805A         SJMP    ??CharToValue_18
    211                 break;
    212                case '9':
    213                 data[i]=9;
   \                     ??CharToValue_10:
   \   0000B2   8882         MOV     DPL,R0
   \   0000B4   8983         MOV     DPH,R1
   \   0000B6   7409         MOV     A,#0x9
   \   0000B8   8052         SJMP    ??CharToValue_18
    214                 break;
    215                case '8':
    216                 data[i]=8;
   \                     ??CharToValue_9:
   \   0000BA   8882         MOV     DPL,R0
   \   0000BC   8983         MOV     DPH,R1
   \   0000BE   7408         MOV     A,#0x8
   \   0000C0   804A         SJMP    ??CharToValue_18
    217                 break;
    218                case '7':
    219                 data[i]=7;
   \                     ??CharToValue_8:
   \   0000C2   8882         MOV     DPL,R0
   \   0000C4   8983         MOV     DPH,R1
   \   0000C6   7407         MOV     A,#0x7
   \   0000C8   8042         SJMP    ??CharToValue_18
    220                 break;
    221                case '6':
    222                 data[i]=6;
   \                     ??CharToValue_7:
   \   0000CA   8882         MOV     DPL,R0
   \   0000CC   8983         MOV     DPH,R1
   \   0000CE   7406         MOV     A,#0x6
   \   0000D0   803A         SJMP    ??CharToValue_18
    223                 break;
    224                case '5':
    225                 data[i]=5;
   \                     ??CharToValue_6:
   \   0000D2   8882         MOV     DPL,R0
   \   0000D4   8983         MOV     DPH,R1
   \   0000D6   7405         MOV     A,#0x5
   \   0000D8   8032         SJMP    ??CharToValue_18
    226                 break;
    227                case '4':
    228                 data[i]=4;
   \                     ??CharToValue_5:
   \   0000DA   8882         MOV     DPL,R0
   \   0000DC   8983         MOV     DPH,R1
   \   0000DE   7404         MOV     A,#0x4
   \   0000E0   802A         SJMP    ??CharToValue_18
    229                 break;
    230                case '3':
    231                 data[i]=3;
   \                     ??CharToValue_4:
   \   0000E2   8882         MOV     DPL,R0
   \   0000E4   8983         MOV     DPH,R1
   \   0000E6   7403         MOV     A,#0x3
   \   0000E8   8022         SJMP    ??CharToValue_18
    232                 break;
    233                case '2':
    234                 data[i]=2;
   \                     ??CharToValue_3:
   \   0000EA   8882         MOV     DPL,R0
   \   0000EC   8983         MOV     DPH,R1
   \   0000EE   7402         MOV     A,#0x2
   \   0000F0   801A         SJMP    ??CharToValue_18
    235                 break;
    236                case '1':
    237                 data[i]=1;
   \                     ??CharToValue_2:
   \   0000F2   8882         MOV     DPL,R0
   \   0000F4   8983         MOV     DPH,R1
   \   0000F6   7401         MOV     A,#0x1
   \   0000F8   8012         SJMP    ??CharToValue_18
    238                 break;
    239                case '0':
    240                 data[i]=0;
   \                     ??CharToValue_1:
   \   0000FA   85..82       MOV     DPL,?XSP + 0
   \   0000FD   85..83       MOV     DPH,?XSP + 1
   \   000100   E582         MOV     A,DPL
   \   000102   2C           ADD     A,R4
   \   000103   F582         MOV     DPL,A
   \   000105   E583         MOV     A,DPH
   \   000107   3400         ADDC    A,#0x0
   \   000109   F583         MOV     DPH,A
   \   00010B   E4           CLR     A
   \                     ??CharToValue_18:
   \   00010C   F0           MOVX    @DPTR,A
    241                 break;
    242                }
    243              }
   \                     ??CharToValue_17:
   \   00010D   0E           INC     R6
   \   00010E   EE           MOV     A,R6
   \   00010F   C3           CLR     C
   \   000110   9402         SUBB    A,#0x2
   \   000112   5003         JNC     $+5
   \   000114   02....       LJMP    ??CharToValue_0 & 0xFFFF
    244           result = data[0] * 16 + data[1];
    245           return result;
   \   000117   7401         MOV     A,#0x1
   \   000119   12....       LCALL   ?XSTACK_DISP0_8
   \   00011C   E0           MOVX    A,@DPTR
   \   00011D   F8           MOV     R0,A
   \   00011E   85..82       MOV     DPL,?XSP + 0
   \   000121   85..83       MOV     DPH,?XSP + 1
   \   000124   E0           MOVX    A,@DPTR
   \   000125   C4           SWAP    A
   \   000126   54F0         ANL     A,#0xf0
   \   000128   28           ADD     A,R0
   \   000129   F9           MOV     R1,A
   \   00012A   7402         MOV     A,#0x2
   \   00012C   12....       LCALL   ?DEALLOC_XSTACK8
   \   00012F                REQUIRE ?Subroutine1
   \   00012F                ; // Fall through to label ?Subroutine1
    246          }
    247          

   \                                 In  segment BANKED_CODE, align 1, keep-with-next
    248          void HalUARTReadAndFormate(uint8 port, uint8 *buf, uint16 len)
   \                     HalUARTReadAndFormate:
    249          {
   \   000000   74F2         MOV     A,#-0xe
   \   000002   12....       LCALL   ?BANKED_ENTER_XDATA
   \   000005                ; Saved register size: 14
   \   000005                ; Auto size: 2
   \   000005   74FE         MOV     A,#-0x2
   \   000007   12....       LCALL   ?ALLOC_XSTACK8
   \   00000A   89..         MOV     ?V0 + 2,R1
   \   00000C   EA           MOV     A,R2
   \   00000D   FE           MOV     R6,A
   \   00000E   EB           MOV     A,R3
   \   00000F   FF           MOV     R7,A
   \   000010   8C..         MOV     ?V0 + 0,R4
   \   000012   8D..         MOV     ?V0 + 1,R5
    250            (void)port;
    251            uint8 i;
    252            uint8 string[2];
    253            for(i = 0; i < len; i++)
   \   000014   75..00       MOV     ?V0 + 3,#0x0
   \   000017   802D         SJMP    ??HalUARTReadAndFormate_0
    254            {
    255             HalUARTRead(port, string, 2);
   \                     ??HalUARTReadAndFormate_1:
   \   000019                ; Setup parameters for call to function HalUARTRead
   \   000019   7C02         MOV     R4,#0x2
   \   00001B   7D00         MOV     R5,#0x0
   \   00001D   85..82       MOV     DPL,?XSP + 0
   \   000020   85..83       MOV     DPH,?XSP + 1
   \   000023   AA82         MOV     R2,DPL
   \   000025   AB83         MOV     R3,DPH
   \   000027   A9..         MOV     R1,?V0 + 2
   \   000029   12....       LCALL   ??HalUARTRead?relay
    256             *buf++ = CharToValue(string);
   \   00002C                ; Setup parameters for call to function CharToValue
   \   00002C   85..82       MOV     DPL,?XSP + 0
   \   00002F   85..83       MOV     DPH,?XSP + 1
   \   000032   AA82         MOV     R2,DPL
   \   000034   AB83         MOV     R3,DPH
   \   000036   12....       LCALL   ??CharToValue?relay
   \   000039   E9           MOV     A,R1
   \   00003A   8E82         MOV     DPL,R6
   \   00003C   8F83         MOV     DPH,R7
   \   00003E   F0           MOVX    @DPTR,A
   \   00003F   A3           INC     DPTR
   \   000040   AE82         MOV     R6,DPL
   \   000042   AF83         MOV     R7,DPH
    257            }
   \   000044   05..         INC     ?V0 + 3
   \                     ??HalUARTReadAndFormate_0:
   \   000046   85....       MOV     ?V0 + 4,?V0 + 3
   \   000049   C3           CLR     C
   \   00004A   E5..         MOV     A,?V0 + 4
   \   00004C   95..         SUBB    A,?V0 + 0
   \   00004E   E4           CLR     A
   \   00004F   95..         SUBB    A,?V0 + 1
   \   000051   40C6         JC      ??HalUARTReadAndFormate_1
    258          }
   \   000053   7402         MOV     A,#0x2
   \   000055   12....       LCALL   ?DEALLOC_XSTACK8
   \   000058   7F06         MOV     R7,#0x6
   \   00005A   02....       LJMP    ?BANKED_LEAVE_XDATA
    259          
    260          /******************************************************************************
    261           * @fn      HalUARTWrite
    262           *
    263           * @brief   Write a buffer to the UART.
    264           *
    265           * @param   port - UART port
    266           *          buf  - pointer to the buffer that will be written, not freed
    267           *          len  - length of
    268           *
    269           * @return  length of the buffer that was sent
    270           *****************************************************************************/

   \                                 In  segment BANKED_CODE, align 1, keep-with-next
    271          uint16 HalUARTWrite(uint8 port, uint8 *buf, uint16 len)
   \                     HalUARTWrite:
    272          {
   \   000000   74F7         MOV     A,#-0x9
   \   000002   12....       LCALL   ?BANKED_ENTER_XDATA
   \   000005                ; Saved register size: 9
   \   000005                ; Auto size: 0
   \   000005   E9           MOV     A,R1
    273            (void)port;
    274            (void)buf;
    275            (void)len;
    276          
    277          #if (HAL_UART_DMA == 1)
    278            if (port == HAL_UART_PORT_0)  return HalUARTWriteDMA(buf, len);
   \   000006   7005         JNZ     ??HalUARTWrite_0
   \   000008                ; Setup parameters for call to function HalUARTWriteDMA
   \   000008   12....       LCALL   ??HalUARTWriteDMA?relay
   \   00000B   8004         SJMP    ??HalUARTWrite_1
    279          #endif
    280          #if (HAL_UART_DMA == 2)
    281            if (port == HAL_UART_PORT_1)  return HalUARTWriteDMA(buf, len);
    282          #endif
    283          #if (HAL_UART_ISR == 1)
    284            if (port == HAL_UART_PORT_0)  return HalUARTWriteISR(buf, len);
    285          #endif
    286          #if (HAL_UART_ISR == 2)
    287            if (port == HAL_UART_PORT_1)  return HalUARTWriteISR(buf, len);
    288          #endif
    289          
    290          #if HAL_UART_USB
    291            HalUARTTx(buf, len);
    292            return len;
    293          #else
    294            return 0;
   \                     ??HalUARTWrite_0:
   \   00000D   7A00         MOV     R2,#0x0
   \   00000F   7B00         MOV     R3,#0x0
   \                     ??HalUARTWrite_1:
   \   000011   80..         SJMP    ?Subroutine1
    295          #endif
    296          }
    297          
    298          /******************************************************************************
    299           * @fn      HalUARTSuspend
    300           *
    301           * @brief   Suspend UART hardware before entering PM mode 1, 2 or 3.
    302           *
    303           * @param   None
    304           *
    305           * @return  None
    306           *****************************************************************************/

   \                                 In  segment BANKED_CODE, align 1, keep-with-next
    307          void HalUARTSuspend( void )
   \                     HalUARTSuspend:
    308          {
   \   000000                ; Saved register size: 0
   \   000000                ; Auto size: 0
    309          #if HAL_UART_DMA
    310            HalUARTSuspendDMA();
   \   000000   D285         SETB    0x80.5
   \   000002   5386BF       ANL     0x86,#0xbf
   \   000005   43AB10       ORL     0xab,#0x10
    311          #endif
    312          #if HAL_UART_ISR
    313            HalUARTSuspendISR();
    314          #endif
    315          }
   \   000008   02....       LJMP    ?BRET
   \   00000B                REQUIRE _A_P0
   \   00000B                REQUIRE U0CSR
   \   00000B                REQUIRE P0IEN
    316          
    317          /******************************************************************************
    318           * @fn      HalUARTResume
    319           *
    320           * @brief   Resume UART hardware after exiting PM mode 1, 2 or 3.
    321           *
    322           * @param   None
    323           *
    324           * @return  None
    325           *****************************************************************************/

   \                                 In  segment BANKED_CODE, align 1, keep-with-next
    326          void HalUARTResume( void )
   \                     HalUARTResume:
    327          {
   \   000000                ; Saved register size: 0
   \   000000                ; Auto size: 0
    328          #if HAL_UART_DMA
    329            HalUARTResumeDMA();
   \   000000   53ABEF       ANL     0xab,#0xef
   \   000003   43C480       ORL     0xc4,#0x80
   \   000006   438640       ORL     0x86,#0x40
   \   000009   C285         CLR     0x80.5
    330          #endif
    331          #if HAL_UART_ISR
    332            HalUARTResumeISR();
    333          #endif
    334          }
   \   00000B   02....       LJMP    ?BRET
   \   00000E                REQUIRE P0IEN
   \   00000E                REQUIRE U0UCR
   \   00000E                REQUIRE U0CSR
   \   00000E                REQUIRE _A_P0
    335          
    336          /***************************************************************************************************
    337           * @fn      HalUARTPoll
    338           *
    339           * @brief   Poll the UART.
    340           *
    341           * @param   none
    342           *
    343           * @return  none
    344           *****************************************************************************/

   \                                 In  segment BANKED_CODE, align 1, keep-with-next
    345          void HalUARTPoll(void)
   \                     HalUARTPoll:
    346          {
   \   000000   C082         PUSH    DPL
   \   000002   C083         PUSH    DPH
   \   000004                ; Saved register size: 2
   \   000004                ; Auto size: 0
    347          #if HAL_UART_DMA
    348            HalUARTPollDMA();
   \   000004                ; Setup parameters for call to function HalUARTPollDMA
   \   000004   12....       LCALL   ??HalUARTPollDMA?relay
    349          #endif
    350          #if HAL_UART_ISR
    351            HalUARTPollISR();
    352          #endif
    353          #if HAL_UART_USB
    354            HalUARTPollUSB();
    355          #endif
    356          }
   \   000007   02....       LJMP    ??Subroutine16_0 & 0xFFFF
    357          
    358          /**************************************************************************************************
    359           * @fn      Hal_UART_RxBufLen()
    360           *
    361           * @brief   Calculate Rx Buffer length - the number of bytes in the buffer.
    362           *
    363           * @param   port - UART port
    364           *
    365           * @return  length of current Rx Buffer
    366           **************************************************************************************************/

   \                                 In  segment BANKED_CODE, align 1, keep-with-next
    367          uint16 Hal_UART_RxBufLen( uint8 port )
   \                     Hal_UART_RxBufLen:
    368          {
   \   000000   74F7         MOV     A,#-0x9
   \   000002   12....       LCALL   ?BANKED_ENTER_XDATA
   \   000005                ; Saved register size: 9
   \   000005                ; Auto size: 0
   \   000005   E9           MOV     A,R1
    369            (void)port;
    370          
    371          #if (HAL_UART_DMA == 1)
    372            if (port == HAL_UART_PORT_0)  return HalUARTRxAvailDMA();
   \   000006   7005         JNZ     ??Hal_UART_RxBufLen_0
   \   000008                ; Setup parameters for call to function HalUARTRxAvailDMA
   \   000008   12....       LCALL   ??HalUARTRxAvailDMA?relay
   \   00000B   8004         SJMP    ??Hal_UART_RxBufLen_1
    373          #endif
    374          #if (HAL_UART_DMA == 2)
    375            if (port == HAL_UART_PORT_1)  return HalUARTRxAvailDMA();
    376          #endif
    377          #if (HAL_UART_ISR == 1)
    378            if (port == HAL_UART_PORT_0)  return HalUARTRxAvailISR();
    379          #endif
    380          #if (HAL_UART_ISR == 2)
    381            if (port == HAL_UART_PORT_1)  return HalUARTRxAvailISR();
    382          #endif
    383          #if HAL_UART_USB
    384            return HalUARTRxAvailUSB();
    385          #else
    386            return 0;
   \                     ??Hal_UART_RxBufLen_0:
   \   00000D   7A00         MOV     R2,#0x0
   \   00000F   7B00         MOV     R3,#0x0
   \                     ??Hal_UART_RxBufLen_1:
   \   000011   02....       LJMP    ?Subroutine1 & 0xFFFF
    387          #endif
    388          }

   \                                 In  segment BANK_RELAYS, align 1
   \                     ??HalUARTInitDMA?relay:
   \   000000   12....       LCALL   ?BDISPATCH
   \   000003   ......       DC24    HalUARTInitDMA

   \                                 In  segment BANK_RELAYS, align 1
   \                     ??HalUARTOpenDMA?relay:
   \   000000   12....       LCALL   ?BDISPATCH
   \   000003   ......       DC24    HalUARTOpenDMA

   \                                 In  segment BANK_RELAYS, align 1
   \                     ??HalUARTReadDMA?relay:
   \   000000   12....       LCALL   ?BDISPATCH
   \   000003   ......       DC24    HalUARTReadDMA

   \                                 In  segment BANK_RELAYS, align 1
   \                     ??HalUARTWriteDMA?relay:
   \   000000   12....       LCALL   ?BDISPATCH
   \   000003   ......       DC24    HalUARTWriteDMA

   \                                 In  segment BANK_RELAYS, align 1
   \                     ??HalUARTPollDMA?relay:
   \   000000   12....       LCALL   ?BDISPATCH
   \   000003   ......       DC24    HalUARTPollDMA

   \                                 In  segment BANK_RELAYS, align 1
   \                     ??HalUARTRxAvailDMA?relay:
   \   000000   12....       LCALL   ?BDISPATCH
   \   000003   ......       DC24    HalUARTRxAvailDMA

   \                                 In  segment BANK_RELAYS, align 1
   \                     ??HalUARTIsrDMA?relay:
   \   000000   12....       LCALL   ?BDISPATCH
   \   000003   ......       DC24    HalUARTIsrDMA

   \                                 In  segment BANK_RELAYS, align 1
   \                     ??HalUARTInit?relay:
   \   000000   12....       LCALL   ?BDISPATCH
   \   000003   ......       DC24    HalUARTInit

   \                                 In  segment BANK_RELAYS, align 1
   \                     ??HalUARTOpen?relay:
   \   000000   12....       LCALL   ?BDISPATCH
   \   000003   ......       DC24    HalUARTOpen

   \                                 In  segment BANK_RELAYS, align 1
   \                     ??HalUARTRead?relay:
   \   000000   12....       LCALL   ?BDISPATCH
   \   000003   ......       DC24    HalUARTRead

   \                                 In  segment BANK_RELAYS, align 1
   \                     ??CharToValue?relay:
   \   000000   12....       LCALL   ?BDISPATCH
   \   000003   ......       DC24    CharToValue

   \                                 In  segment BANK_RELAYS, align 1
   \                     ??HalUARTReadAndFormate?relay:
   \   000000   12....       LCALL   ?BDISPATCH
   \   000003   ......       DC24    HalUARTReadAndFormate

   \                                 In  segment BANK_RELAYS, align 1
   \                     ??HalUARTWrite?relay:
   \   000000   12....       LCALL   ?BDISPATCH
   \   000003   ......       DC24    HalUARTWrite

   \                                 In  segment BANK_RELAYS, align 1
   \                     ??HalUARTSuspend?relay:
   \   000000   12....       LCALL   ?BDISPATCH
   \   000003   ......       DC24    HalUARTSuspend

   \                                 In  segment BANK_RELAYS, align 1
   \                     ??HalUARTResume?relay:
   \   000000   12....       LCALL   ?BDISPATCH
   \   000003   ......       DC24    HalUARTResume

   \                                 In  segment BANK_RELAYS, align 1
   \                     ??HalUARTPoll?relay:
   \   000000   12....       LCALL   ?BDISPATCH
   \   000003   ......       DC24    HalUARTPoll

   \                                 In  segment BANK_RELAYS, align 1
   \                     ??Hal_UART_RxBufLen?relay:
   \   000000   12....       LCALL   ?BDISPATCH
   \   000003   ......       DC24    Hal_UART_RxBufLen
    389          
    390          /******************************************************************************
    391          ******************************************************************************/

   Maximum stack usage in bytes:

   ISTACK PSTACK XSTACK Function
   ------ ------ ------ --------
       0      0     27  CharToValue
       2      0      0  HalUARTInit
                          2 0  0 -> HalUARTInitDMA
       2      0      0  HalUARTInitDMA
       2      0     11  HalUARTIsrDMA
       0      0      9  HalUARTOpen
                          0 0  9 -> HalUARTOpenDMA
       2      0      9  HalUARTOpenDMA
                          2 0  0 -> osal_memset
       2      0      0  HalUARTPoll
                          2 0  0 -> HalUARTPollDMA
       0      0     11  HalUARTPollDMA
                          0 0 11 -> HalUARTIsrDMA
                          0 0 11 -> HalUARTRxAvailDMA
       0      0     25  HalUARTRead
                          0 0  9 -> HalUARTReadDMA
       1      0     16  HalUARTReadAndFormate
                          0 0 16 -> CharToValue
                          0 0 16 -> HalUARTRead
       1      0     19  HalUARTReadDMA
       0      0      0  HalUARTResume
       2      0     11  HalUARTRxAvailDMA
       0      0      0  HalUARTSuspend
       0      0      9  HalUARTWrite
                          0 0  9 -> HalUARTWriteDMA
       1      0     26  HalUARTWriteDMA
       0      0      9  Hal_UART_RxBufLen
                          0 0  9 -> HalUARTRxAvailDMA


   Segment part sizes:

   Bytes  Function/Label
   -----  --------------
       6  ??CharToValue?relay
       6  ??HalUARTInit?relay
       6  ??HalUARTInitDMA?relay
       6  ??HalUARTIsrDMA?relay
       6  ??HalUARTOpen?relay
       6  ??HalUARTOpenDMA?relay
       6  ??HalUARTPoll?relay
       6  ??HalUARTPollDMA?relay
       6  ??HalUARTRead?relay
       6  ??HalUARTReadAndFormate?relay
       6  ??HalUARTReadDMA?relay
       6  ??HalUARTResume?relay
       6  ??HalUARTRxAvailDMA?relay
       6  ??HalUARTSuspend?relay
       6  ??HalUARTWrite?relay
       6  ??HalUARTWriteDMA?relay
       6  ??Hal_UART_RxBufLen?relay
       4  ??Subroutine13_0
       4  ??Subroutine14_0
       6  ??Subroutine15_0
       7  ??Subroutine16_0
       1  ?Subroutine0
       5  ?Subroutine1
       4  ?Subroutine10
      10  ?Subroutine11
      12  ?Subroutine12
      11  ?Subroutine2
      15  ?Subroutine3
      12  ?Subroutine4
      21  ?Subroutine5
       4  ?Subroutine6
      24  ?Subroutine7
       9  ?Subroutine8
      21  ?Subroutine9
       1  ADCCFG
     303  CharToValue
       1  DMAARM
       1  DMAIRQ
       1  DMAREQ
       9  HalUARTInit
     109  HalUARTInitDMA
      46  HalUARTIsrDMA
      16  HalUARTOpen
     183  HalUARTOpenDMA
      10  HalUARTPoll
     357  HalUARTPollDMA
      20  HalUARTRead
      93  HalUARTReadAndFormate
      88  HalUARTReadDMA
      14  HalUARTResume
      75  HalUARTRxAvailDMA
      11  HalUARTSuspend
      19  HalUARTWrite
     222  HalUARTWriteDMA
      20  Hal_UART_RxBufLen
       1  P0DIR
       1  P0IEN
       1  P0SEL
       1  P2DIR
       1  PERCFG
       1  ST0
       1  U0BAUD
       1  U0CSR
       1  U0GCR
       1  U0UCR
       1  _A_IEN0
       1  _A_P0
     526  dmaCfg

 
 1 765 bytes in segment BANKED_CODE
   102 bytes in segment BANK_RELAYS
    16 bytes in segment SFR_AN
   526 bytes in segment XDATA_Z
 
 1 867 bytes of CODE  memory
     0 bytes of DATA  memory (+ 16 bytes shared)
   526 bytes of XDATA memory

Errors: none
Warnings: none
