///////////////////////////////////////////////////////////////////////////////
//                                                                            /
// IAR C/C++ Compiler V8.20.2.41139 for 8051            27/Mar/2014  17:05:51 /
// Copyright 2004-2013 IAR Systems AB.                                        /
//                                                                            /
//    Core               =  plain                                             /
//    Code model         =  banked                                            /
//    Data model         =  large                                             /
//    Calling convention =  xdata reentrant                                   /
//    Constant location  =  data_rom                                          /
//    Dptr setup         =  1,16                                              /
//                                                                            /
//    Source file        =  D:\Texas Instruments\Z-Stack Lighting             /
//                          1.0.2\Components\mac\low_level\srf04\single_chip\ /
//                          mac_mcu.c                                         /
//    Command line       =  -f "D:\Texas Instruments\Z-Stack Lighting         /
//                          1.0.2\Projects\zstack\ZLL\SampleApp\CC253x\..\..\ /
//                          ..\Tools\CC2530DB\f8wRouter.cfg" (-DCPU32MHZ      /
//                          -DROOT=__near_func -DMAC_CFG_APP_PENDING_QUEUE=TR /
//                          UE -DMAC_CFG_TX_DATA_MAX=5 -DMAC_CFG_TX_MAX=8     /
//                          -DMAC_CFG_RX_MAX=5 -DRTR_NWK) -f "D:\Texas        /
//                          Instruments\Z-Stack Lighting                      /
//                          1.0.2\Projects\zstack\ZLL\SampleApp\CC253x\..\..\ /
//                          ..\Tools\CC2530DB\f8wConfig.cfg" (-DZIGBEEPRO     /
//                          -DSECURE=1 -DZG_SECURE_DYNAMIC=0 -DREFLECTOR      /
//                          -DDEFAULT_CHANLIST=0x00000800                     /
//                          -DZDAPP_CONFIG_PAN_ID=0xFFFF                      /
//                          -DNWK_START_DELAY=100 -DEXTENDED_JOINING_RANDOM_M /
//                          ASK=0x007F -DBEACON_REQUEST_DELAY=100             /
//                          -DBEACON_REQ_DELAY_MASK=0x00FF                    /
//                          -DLINK_STATUS_JITTER_MASK=0x007F                  /
//                          -DROUTE_EXPIRY_TIME=30 -DAPSC_ACK_WAIT_DURATION_P /
//                          OLLED=3000 -DNWK_INDIRECT_MSG_TIMEOUT=7           /
//                          -DMAX_RREQ_ENTRIES=8 -DAPSC_MAX_FRAME_RETRIES=3   /
//                          -DNWK_MAX_DATA_RETRIES=2                          /
//                          -DMAX_POLL_FAILURE_RETRIES=2 -DMAX_BCAST=9        /
//                          -DAPS_MAX_GROUPS=16 -DMAX_RTG_ENTRIES=40          /
//                          -DNWK_MAX_BINDING_ENTRIES=4                       /
//                          -DMAX_BINDING_CLUSTER_IDS=4                       /
//                          "-DDEFAULT_KEY={0x01, 0x03, 0x05, 0x07, 0x09,     /
//                          0x0B, 0x0D, 0x0F, 0x00, 0x02, 0x04, 0x06, 0x08,   /
//                          0x0A, 0x0C, 0x0D}" -DMAC_MAX_FRAME_SIZE=116       /
//                          -DZDNWKMGR_MIN_TRANSMISSIONS=20 "-DCONST=const    /
//                          __code" -DGENERIC=__generic                       /
//                          -DRFD_RCVC_ALWAYS_ON=FALSE -DPOLL_RATE=1000       /
//                          -DQUEUED_POLL_RATE=100 -DRESPONSE_POLL_RATE=100   /
//                          -DREJOIN_POLL_RATE=440) -f "D:\Texas              /
//                          Instruments\Z-Stack Lighting                      /
//                          1.0.2\Projects\zstack\ZLL\SampleApp\CC253x\..\..\ /
//                          ..\Tools\CC2530DB\f8wZCL.cfg" "D:\Texas           /
//                          Instruments\Z-Stack Lighting                      /
//                          1.0.2\Components\mac\low_level\srf04\single_chip\ /
//                          mac_mcu.c" -D FEATURE_GREEN_POWER -D SECURE=1 -D  /
//                          TC_LINKKEY_JOIN -D ZDSECMGR_TC_DEVICE_MAX=2 -D    /
//                          NV_RESTORE -D HOLD_AUTO_START -D INTER_PAN -D     /
//                          ZTOOL_P1 -D MT_TASK -D MT_APP_FUNC -D             /
//                          MT_SYS_FUNC -D MT_ZDO_FUNC -D MT_ZDO_CB_FUNC -D   /
//                          MT_UTIL_FUNC -D MT_ZDO_MGMT -D LCD_SUPPORTED -D   /
//                          HAL_LCD=FALSE -D HAL_KEY=FALSE -D ZCL_BASIC -D    /
//                          ZCL_READ -D ZCL_WRITE -D ZCL_IDENTIFY -D          /
//                          ZCL_ON_OFF -D ZCL_SCENES -D ZCL_GROUPS -D         /
//                          ZCL_LIGHT_LINK_ENHANCE -D ZCL_LEVEL_CTRL -D       /
//                          ZCL_COLOR_CTRL -D xMAX_CHANNELS_24GHZ=0x02108800  /
//                          -lC "D:\Texas Instruments\Z-Stack Lighting        /
//                          1.0.2\Projects\zstack\ZLL\SampleApp\CC253x\Bridge /
//                          EB-Pro\List\" -lA "D:\Texas Instruments\Z-Stack   /
//                          Lighting 1.0.2\Projects\zstack\ZLL\SampleApp\CC25 /
//                          3x\BridgeEB-Pro\List\" --diag_suppress            /
//                          Pe001,Pa010 -o "D:\Texas Instruments\Z-Stack      /
//                          Lighting 1.0.2\Projects\zstack\ZLL\SampleApp\CC25 /
//                          3x\BridgeEB-Pro\Obj\" -e --debug --core=plain     /
//                          --dptr=16,1 --data_model=large                    /
//                          --code_model=banked --calling_convention=xdata_re /
//                          entrant --place_constants=data_rom                /
//                          --nr_virtual_regs 16 -I "D:\Texas                 /
//                          Instruments\Z-Stack Lighting                      /
//                          1.0.2\Projects\zstack\ZLL\SampleApp\CC253x\" -I   /
//                          "D:\Texas Instruments\Z-Stack Lighting            /
//                          1.0.2\Projects\zstack\ZLL\SampleApp\CC253x\..\Sou /
//                          rce\" -I "D:\Texas Instruments\Z-Stack Lighting   /
//                          1.0.2\Projects\zstack\ZLL\SampleApp\CC253x\..\..\ /
//                          Source\" -I "D:\Texas Instruments\Z-Stack         /
//                          Lighting 1.0.2\Projects\zstack\ZLL\SampleApp\CC25 /
//                          3x\..\..\..\HomeAutomation\Source\" -I "D:\Texas  /
//                          Instruments\Z-Stack Lighting                      /
//                          1.0.2\Projects\zstack\ZLL\SampleApp\CC253x\..\..\ /
//                          ..\HomeAutomation\SampleLight\Source\" -I         /
//                          "D:\Texas Instruments\Z-Stack Lighting            /
//                          1.0.2\Projects\zstack\ZLL\SampleApp\CC253x\..\..\ /
//                          ..\ZMain\TI2530DB\" -I "D:\Texas                  /
//                          Instruments\Z-Stack Lighting                      /
//                          1.0.2\Projects\zstack\ZLL\SampleApp\CC253x\..\..\ /
//                          ..\..\..\Components\hal\include\" -I "D:\Texas    /
//                          Instruments\Z-Stack Lighting                      /
//                          1.0.2\Projects\zstack\ZLL\SampleApp\CC253x\..\..\ /
//                          ..\..\..\Components\hal\target\CC2530EB\" -I      /
//                          "D:\Texas Instruments\Z-Stack Lighting            /
//                          1.0.2\Projects\zstack\ZLL\SampleApp\CC253x\..\..\ /
//                          ..\..\..\Components\mac\include\" -I "D:\Texas    /
//                          Instruments\Z-Stack Lighting                      /
//                          1.0.2\Projects\zstack\ZLL\SampleApp\CC253x\..\..\ /
//                          ..\..\..\Components\mac\high_level\" -I           /
//                          "D:\Texas Instruments\Z-Stack Lighting            /
//                          1.0.2\Projects\zstack\ZLL\SampleApp\CC253x\..\..\ /
//                          ..\..\..\Components\mac\low_level\srf04\" -I      /
//                          "D:\Texas Instruments\Z-Stack Lighting            /
//                          1.0.2\Projects\zstack\ZLL\SampleApp\CC253x\..\..\ /
//                          ..\..\..\Components\mac\low_level\srf04\single_ch /
//                          ip\" -I "D:\Texas Instruments\Z-Stack Lighting    /
//                          1.0.2\Projects\zstack\ZLL\SampleApp\CC253x\..\..\ /
//                          ..\..\..\Components\mt\" -I "D:\Texas             /
//                          Instruments\Z-Stack Lighting                      /
//                          1.0.2\Projects\zstack\ZLL\SampleApp\CC253x\..\..\ /
//                          ..\..\..\Components\osal\include\" -I "D:\Texas   /
//                          Instruments\Z-Stack Lighting                      /
//                          1.0.2\Projects\zstack\ZLL\SampleApp\CC253x\..\..\ /
//                          ..\..\..\Components\services\saddr\" -I           /
//                          "D:\Texas Instruments\Z-Stack Lighting            /
//                          1.0.2\Projects\zstack\ZLL\SampleApp\CC253x\..\..\ /
//                          ..\..\..\Components\services\sdata\" -I           /
//                          "D:\Texas Instruments\Z-Stack Lighting            /
//                          1.0.2\Projects\zstack\ZLL\SampleApp\CC253x\..\..\ /
//                          ..\..\..\Components\stack\af\" -I "D:\Texas       /
//                          Instruments\Z-Stack Lighting                      /
//                          1.0.2\Projects\zstack\ZLL\SampleApp\CC253x\..\..\ /
//                          ..\..\..\Components\stack\nwk\" -I "D:\Texas      /
//                          Instruments\Z-Stack Lighting                      /
//                          1.0.2\Projects\zstack\ZLL\SampleApp\CC253x\..\..\ /
//                          ..\..\..\Components\stack\sapi\" -I "D:\Texas     /
//                          Instruments\Z-Stack Lighting                      /
//                          1.0.2\Projects\zstack\ZLL\SampleApp\CC253x\..\..\ /
//                          ..\..\..\Components\stack\sec\" -I "D:\Texas      /
//                          Instruments\Z-Stack Lighting                      /
//                          1.0.2\Projects\zstack\ZLL\SampleApp\CC253x\..\..\ /
//                          ..\..\..\Components\stack\sys\" -I "D:\Texas      /
//                          Instruments\Z-Stack Lighting                      /
//                          1.0.2\Projects\zstack\ZLL\SampleApp\CC253x\..\..\ /
//                          ..\..\..\Components\stack\zcl\" -I "D:\Texas      /
//                          Instruments\Z-Stack Lighting                      /
//                          1.0.2\Projects\zstack\ZLL\SampleApp\CC253x\..\..\ /
//                          ..\..\..\Components\stack\zdo\" -I "D:\Texas      /
//                          Instruments\Z-Stack Lighting                      /
//                          1.0.2\Projects\zstack\ZLL\SampleApp\CC253x\..\..\ /
//                          ..\..\..\Components\zmac\" -I "D:\Texas           /
//                          Instruments\Z-Stack Lighting                      /
//                          1.0.2\Projects\zstack\ZLL\SampleApp\CC253x\..\..\ /
//                          ..\..\..\Components\zmac\f8w\" -Ohz               /
//                          --require_prototypes                              /
//    List file          =  D:\Texas Instruments\Z-Stack Lighting             /
//                          1.0.2\Projects\zstack\ZLL\SampleApp\CC253x\Bridge /
//                          EB-Pro\List\mac_mcu.s51                           /
//                                                                            /
//                                                                            /
///////////////////////////////////////////////////////////////////////////////

        NAME mac_mcu

        RTMODEL "__SystemLibrary", "CLib"
        RTMODEL "__calling_convention", "xdata_reentrant"
        RTMODEL "__code_model", "banked"
        RTMODEL "__core", "plain"
        RTMODEL "__data_model", "large"
        RTMODEL "__dptr_size", "16"
        RTMODEL "__extended_stack", "disabled"
        RTMODEL "__location_for_constants", "data"
        RTMODEL "__number_of_dptrs", "1"
        RTMODEL "__rt_version", "1"

        RSEG DOVERLAY:DATA:NOROOT(0)
        RSEG IOVERLAY:IDATA:NOROOT(0)
        RSEG ISTACK:IDATA:NOROOT(0)
        RSEG PSTACK:XDATA:NOROOT(0)
        RSEG XSTACK:XDATA:NOROOT(0)

        EXTERN ?ALLOC_XSTACK8
        EXTERN ?BANKED_ENTER_XDATA
        EXTERN ?BANKED_LEAVE_XDATA
        EXTERN ?BDISPATCH
        EXTERN ?BRET
        EXTERN ?CALL_IND
        EXTERN ?DEALLOC_XSTACK8
        EXTERN ?INTERRUPT_ENTER_XSP
        EXTERN ?INTERRUPT_LEAVE_XSP
        EXTERN ?L_ADD_TO_X
        EXTERN ?L_ADD_X
        EXTERN ?L_AND_X
        EXTERN ?L_EQ_X
        EXTERN ?L_MOV_TO_X
        EXTERN ?L_MOV_X
        EXTERN ?L_SUB_X
        EXTERN ?UL_GT_X
        EXTERN ?V0
        EXTERN ?XLOAD_R2345
        EXTERN ?XSP
        EXTERN ?XSTACK_DISP0_8
        EXTERN ?XSTORE_R2345
        EXTERN __INIT_XDATA_Z

        PUBLIC ??MAC_SetRandomSeedCB?relay
        FUNCTION ??MAC_SetRandomSeedCB?relay,0203H
        PUBLIC ??macMcuAccumulatedOverFlow?relay
        FUNCTION ??macMcuAccumulatedOverFlow?relay,0203H
        PUBLIC ??macMcuInit?relay
        FUNCTION ??macMcuInit?relay,0203H
        PUBLIC ??macMcuOverflowCapture?relay
        FUNCTION ??macMcuOverflowCapture?relay,0203H
        PUBLIC ??macMcuOverflowCount?relay
        FUNCTION ??macMcuOverflowCount?relay,0203H
        PUBLIC ??macMcuOverflowSetCompare?relay
        FUNCTION ??macMcuOverflowSetCompare?relay,0203H
        PUBLIC ??macMcuOverflowSetCount?relay
        FUNCTION ??macMcuOverflowSetCount?relay,0203H
        PUBLIC ??macMcuOverflowSetPeriod?relay
        FUNCTION ??macMcuOverflowSetPeriod?relay,0203H
        PUBLIC ??macMcuPrecisionCount?relay
        FUNCTION ??macMcuPrecisionCount?relay,0203H
        PUBLIC ??macMcuRandomByte?relay
        FUNCTION ??macMcuRandomByte?relay,0203H
        PUBLIC ??macMcuRandomWord?relay
        FUNCTION ??macMcuRandomWord?relay,0203H
        PUBLIC ??macMcuRecordMaxRssiStart?relay
        FUNCTION ??macMcuRecordMaxRssiStart?relay,0203H
        PUBLIC ??macMcuRecordMaxRssiStop?relay
        FUNCTION ??macMcuRecordMaxRssiStop?relay,0203H
        PUBWEAK `??macMcuRfErrIsr??INTVEC 3`
        PUBWEAK `??macMcuRfIsr??INTVEC 131`
        PUBWEAK `??macMcuTimer2Isr??INTVEC 83`
        PUBLIC ??macMcuTimer2OverflowWorkaround?relay
        FUNCTION ??macMcuTimer2OverflowWorkaround?relay,0203H
        PUBLIC ??macMcuTimerCapture?relay
        FUNCTION ??macMcuTimerCapture?relay,0203H
        PUBLIC ??macMcuTimerForceDelay?relay
        FUNCTION ??macMcuTimerForceDelay?relay,0203H
        PUBWEAK ADCCON1
        PUBWEAK CLKCONSTA
        PUBWEAK IEN2
        PUBWEAK IP0
        PUBWEAK IP1
        PUBLIC MAC_SetRandomSeedCB
        FUNCTION MAC_SetRandomSeedCB,0203H
        ARGFRAME XSTACK, 0, STACK
        LOCFRAME ISTACK, 2, STACK
        PUBWEAK RFERRF
        PUBWEAK RFIRQF0
        PUBWEAK RFIRQF1
        PUBWEAK RNDH
        PUBWEAK RNDL
        PUBWEAK S1CON
        PUBWEAK T2CTRL
        PUBWEAK T2IRQF
        PUBWEAK T2IRQM
        PUBWEAK T2M0
        PUBWEAK T2M1
        PUBWEAK T2MOVF0
        PUBWEAK T2MOVF1
        PUBWEAK T2MOVF2
        PUBWEAK T2MSEL
        PUBWEAK _A_IEN0
        PUBWEAK _A_IEN1
        PUBWEAK __Constant_ff000000
        PUBLIC macChipVersion
        PUBLIC macMcuAccumulatedOverFlow
        FUNCTION macMcuAccumulatedOverFlow,021203H
        ARGFRAME XSTACK, 0, STACK
        LOCFRAME XSTACK, 12, STACK
        PUBLIC macMcuInit
        FUNCTION macMcuInit,021203H
        ARGFRAME XSTACK, 0, STACK
        LOCFRAME ISTACK, 1, STACK
        LOCFRAME XSTACK, 42, STACK
        PUBLIC macMcuOverflowCapture
        FUNCTION macMcuOverflowCapture,0203H
        ARGFRAME XSTACK, 0, STACK
        LOCFRAME ISTACK, 3, STACK
        LOCFRAME XSTACK, 4, STACK
        PUBLIC macMcuOverflowCount
        FUNCTION macMcuOverflowCount,0203H
        ARGFRAME XSTACK, 16, STACK
        ARGFRAME IOVERLAY, 0, STATIC
        ARGFRAME DOVERLAY, 0, STATIC
        LOCFRAME ISTACK, 3, STACK
        LOCFRAME XSTACK, 4, STACK
        PUBLIC macMcuOverflowSetCompare
        FUNCTION macMcuOverflowSetCompare,021203H
        ARGFRAME XSTACK, 0, STACK
        LOCFRAME XSTACK, 16, STACK
        PUBLIC macMcuOverflowSetCount
        FUNCTION macMcuOverflowSetCount,021203H
        ARGFRAME XSTACK, 0, STACK
        LOCFRAME ISTACK, 2, STACK
        LOCFRAME XSTACK, 16, STACK
        PUBLIC macMcuOverflowSetPeriod
        FUNCTION macMcuOverflowSetPeriod,021203H
        ARGFRAME XSTACK, 0, STACK
        LOCFRAME XSTACK, 16, STACK
        PUBLIC macMcuPrecisionCount
        FUNCTION macMcuPrecisionCount,021203H
        ARGFRAME XSTACK, 0, STACK
        LOCFRAME ISTACK, 1, STACK
        LOCFRAME XSTACK, 16, STACK
        PUBLIC macMcuRandomByte
        FUNCTION macMcuRandomByte,0203H
        ARGFRAME XSTACK, 0, STACK
        PUBLIC macMcuRandomWord
        FUNCTION macMcuRandomWord,0203H
        ARGFRAME XSTACK, 0, STACK
        PUBLIC macMcuRecordMaxRssiStart
        FUNCTION macMcuRecordMaxRssiStart,0203H
        ARGFRAME XSTACK, 0, STACK
        LOCFRAME ISTACK, 2, STACK
        PUBLIC macMcuRecordMaxRssiStop
        FUNCTION macMcuRecordMaxRssiStop,0203H
        ARGFRAME XSTACK, 0, STACK
        LOCFRAME ISTACK, 2, STACK
        PUBLIC macMcuRfErrIsr
        FUNCTION macMcuRfErrIsr,021233H
        ARGFRAME XSTACK, 0, STACK
        LOCFRAME XSTACK, 14, STACK
        PUBLIC macMcuRfIsr
        FUNCTION macMcuRfIsr,021233H
        ARGFRAME XSTACK, 0, STACK
        LOCFRAME XSTACK, 14, STACK
        PUBLIC macMcuTimer2Isr
        FUNCTION macMcuTimer2Isr,021233H
        ARGFRAME XSTACK, 0, STACK
        LOCFRAME XSTACK, 15, STACK
        PUBLIC macMcuTimer2OverflowWorkaround
        FUNCTION macMcuTimer2OverflowWorkaround,021203H
        ARGFRAME XSTACK, 0, STACK
        LOCFRAME ISTACK, 1, STACK
        LOCFRAME XSTACK, 16, STACK
        PUBLIC macMcuTimerCapture
        FUNCTION macMcuTimerCapture,0203H
        ARGFRAME XSTACK, 0, STACK
        LOCFRAME ISTACK, 2, STACK
        PUBLIC macMcuTimerForceDelay
        FUNCTION macMcuTimerForceDelay,0203H
        ARGFRAME XSTACK, 0, STACK
        
          CFI Names cfiNames0
          CFI StackFrame CFA_SP SP IDATA
          CFI StackFrame CFA_PSP16 PSP16 XDATA
          CFI StackFrame CFA_XSP16 XSP16 XDATA
          CFI StaticOverlayFrame CFA_IOVERLAY IOVERLAY
          CFI StaticOverlayFrame CFA_DOVERLAY DOVERLAY
          CFI Resource `PSW.CY`:1, `B.BR0`:1, `B.BR1`:1, `B.BR2`:1, `B.BR3`:1
          CFI Resource `B.BR4`:1, `B.BR5`:1, `B.BR6`:1, `B.BR7`:1, `VB.BR8`:1
          CFI Resource `VB.BR9`:1, `VB.BR10`:1, `VB.BR11`:1, `VB.BR12`:1
          CFI Resource `VB.BR13`:1, `VB.BR14`:1, `VB.BR15`:1, VB:8, B:8, A:8
          CFI Resource PSW:8, DPL0:8, DPH0:8, R0:8, R1:8, R2:8, R3:8, R4:8, R5:8
          CFI Resource R6:8, R7:8, V0:8, V1:8, V2:8, V3:8, V4:8, V5:8, V6:8, V7:8
          CFI Resource V8:8, V9:8, V10:8, V11:8, V12:8, V13:8, V14:8, V15:8, SP:8
          CFI Resource PSPH:8, PSPL:8, PSP16:16, XSPH:8, XSPL:8, XSP16:16
          CFI VirtualResource ?RET:24
          CFI Resource ?BRET_EXT:8
          CFI VirtualResource ?RET_HIGH:8, ?RET_LOW:8
          CFI ResourceParts PSP16 PSPH, PSPL
          CFI ResourceParts XSP16 XSPH, XSPL
          CFI ResourceParts ?RET ?BRET_EXT, ?RET_HIGH, ?RET_LOW
          CFI EndNames cfiNames0
        
          CFI Common cfiCommon0 Using cfiNames0
          CFI CodeAlign 1
          CFI DataAlign -1
          CFI ReturnAddress ?RET CODE
          CFI CFA_DOVERLAY Used
          CFI CFA_IOVERLAY Used
          CFI CFA_SP SP+-3
          CFI CFA_PSP16 PSP16+0
          CFI CFA_XSP16 XSP16+0
          CFI `PSW.CY` SameValue
          CFI `B.BR0` SameValue
          CFI `B.BR1` SameValue
          CFI `B.BR2` SameValue
          CFI `B.BR3` SameValue
          CFI `B.BR4` SameValue
          CFI `B.BR5` SameValue
          CFI `B.BR6` SameValue
          CFI `B.BR7` SameValue
          CFI `VB.BR8` SameValue
          CFI `VB.BR9` SameValue
          CFI `VB.BR10` SameValue
          CFI `VB.BR11` SameValue
          CFI `VB.BR12` SameValue
          CFI `VB.BR13` SameValue
          CFI `VB.BR14` SameValue
          CFI `VB.BR15` SameValue
          CFI VB SameValue
          CFI B Undefined
          CFI A Undefined
          CFI PSW SameValue
          CFI DPL0 SameValue
          CFI DPH0 SameValue
          CFI R0 Undefined
          CFI R1 Undefined
          CFI R2 Undefined
          CFI R3 Undefined
          CFI R4 Undefined
          CFI R5 Undefined
          CFI R6 SameValue
          CFI R7 SameValue
          CFI V0 SameValue
          CFI V1 SameValue
          CFI V2 SameValue
          CFI V3 SameValue
          CFI V4 SameValue
          CFI V5 SameValue
          CFI V6 SameValue
          CFI V7 SameValue
          CFI V8 SameValue
          CFI V9 SameValue
          CFI V10 SameValue
          CFI V11 SameValue
          CFI V12 SameValue
          CFI V13 SameValue
          CFI V14 SameValue
          CFI V15 SameValue
          CFI PSPH Undefined
          CFI PSPL Undefined
          CFI XSPH Undefined
          CFI XSPL Undefined
          CFI ?RET Concat
          CFI ?BRET_EXT Frame(CFA_SP, 3)
          CFI ?RET_HIGH Frame(CFA_SP, 2)
          CFI ?RET_LOW Frame(CFA_SP, 1)
          CFI EndCommon cfiCommon0
        
        
          CFI Common cfiCommon1 Using cfiNames0
          CFI CodeAlign 1
          CFI DataAlign -1
          CFI ReturnAddress ?RET CODE
          CFI CFA_DOVERLAY Used
          CFI CFA_IOVERLAY Used
          CFI CFA_SP SP+-2
          CFI CFA_PSP16 PSP16+0
          CFI CFA_XSP16 XSP16+0
          CFI `PSW.CY` SameValue
          CFI `B.BR0` SameValue
          CFI `B.BR1` SameValue
          CFI `B.BR2` SameValue
          CFI `B.BR3` SameValue
          CFI `B.BR4` SameValue
          CFI `B.BR5` SameValue
          CFI `B.BR6` SameValue
          CFI `B.BR7` SameValue
          CFI `VB.BR8` SameValue
          CFI `VB.BR9` SameValue
          CFI `VB.BR10` SameValue
          CFI `VB.BR11` SameValue
          CFI `VB.BR12` SameValue
          CFI `VB.BR13` SameValue
          CFI `VB.BR14` SameValue
          CFI `VB.BR15` SameValue
          CFI VB SameValue
          CFI B SameValue
          CFI A SameValue
          CFI PSW SameValue
          CFI DPL0 SameValue
          CFI DPH0 SameValue
          CFI R0 SameValue
          CFI R1 SameValue
          CFI R2 SameValue
          CFI R3 SameValue
          CFI R4 SameValue
          CFI R5 SameValue
          CFI R6 SameValue
          CFI R7 SameValue
          CFI V0 SameValue
          CFI V1 SameValue
          CFI V2 SameValue
          CFI V3 SameValue
          CFI V4 SameValue
          CFI V5 SameValue
          CFI V6 SameValue
          CFI V7 SameValue
          CFI V8 SameValue
          CFI V9 SameValue
          CFI V10 SameValue
          CFI V11 SameValue
          CFI V12 SameValue
          CFI V13 SameValue
          CFI V14 SameValue
          CFI V15 SameValue
          CFI PSPH Undefined
          CFI PSPL Undefined
          CFI XSPH Undefined
          CFI XSPL Undefined
          CFI ?RET Concat
          CFI ?BRET_EXT SameValue
          CFI ?RET_HIGH Frame(CFA_SP, 2)
          CFI ?RET_LOW Frame(CFA_SP, 1)
          CFI EndCommon cfiCommon1
        
halAssertHandler    SYMBOL "halAssertHandler"
??halAssertHandler?relay SYMBOL "?relay", halAssertHandler
halSetMaxSleepLoopTime SYMBOL "halSetMaxSleepLoopTime"
??halSetMaxSleepLoopTime?relay SYMBOL "?relay", halSetMaxSleepLoopTime
macBackoffTimerCompareIsr SYMBOL "macBackoffTimerCompareIsr"
??macBackoffTimerCompareIsr?relay SYMBOL "?relay", macBackoffTimerCompareIsr
macBackoffTimerPeriodIsr SYMBOL "macBackoffTimerPeriodIsr"
??macBackoffTimerPeriodIsr?relay SYMBOL "?relay", macBackoffTimerPeriodIsr
macCspTxIntIsr      SYMBOL "macCspTxIntIsr"
??macCspTxIntIsr?relay SYMBOL "?relay", macCspTxIntIsr
macCspTxStopIsr     SYMBOL "macCspTxStopIsr"
??macCspTxStopIsr?relay SYMBOL "?relay", macCspTxStopIsr
macGetBackOffTimerRollover SYMBOL "macGetBackOffTimerRollover"
??macGetBackOffTimerRollover?relay SYMBOL "?relay", macGetBackOffTimerRollover
macRxAckTxDoneCallback SYMBOL "macRxAckTxDoneCallback"
??macRxAckTxDoneCallback?relay SYMBOL "?relay", macRxAckTxDoneCallback
macRxFifoOverflowIsr SYMBOL "macRxFifoOverflowIsr"
??macRxFifoOverflowIsr?relay SYMBOL "?relay", macRxFifoOverflowIsr
macRxOff            SYMBOL "macRxOff"
??macRxOff?relay    SYMBOL "?relay", macRxOff
macRxOn             SYMBOL "macRxOn"
??macRxOn?relay     SYMBOL "?relay", macRxOn
macRxThresholdIsr   SYMBOL "macRxThresholdIsr"
??macRxThresholdIsr?relay SYMBOL "?relay", macRxThresholdIsr
MAC_SetRandomSeedCB SYMBOL "MAC_SetRandomSeedCB"
??MAC_SetRandomSeedCB?relay SYMBOL "?relay", MAC_SetRandomSeedCB
macMcuAccumulatedOverFlow SYMBOL "macMcuAccumulatedOverFlow"
??macMcuAccumulatedOverFlow?relay SYMBOL "?relay", macMcuAccumulatedOverFlow
macMcuInit          SYMBOL "macMcuInit"
??macMcuInit?relay  SYMBOL "?relay", macMcuInit
macMcuOverflowCapture SYMBOL "macMcuOverflowCapture"
??macMcuOverflowCapture?relay SYMBOL "?relay", macMcuOverflowCapture
macMcuOverflowCount SYMBOL "macMcuOverflowCount"
??macMcuOverflowCount?relay SYMBOL "?relay", macMcuOverflowCount
macMcuOverflowSetCompare SYMBOL "macMcuOverflowSetCompare"
??macMcuOverflowSetCompare?relay SYMBOL "?relay", macMcuOverflowSetCompare
macMcuOverflowSetCount SYMBOL "macMcuOverflowSetCount"
??macMcuOverflowSetCount?relay SYMBOL "?relay", macMcuOverflowSetCount
macMcuOverflowSetPeriod SYMBOL "macMcuOverflowSetPeriod"
??macMcuOverflowSetPeriod?relay SYMBOL "?relay", macMcuOverflowSetPeriod
macMcuPrecisionCount SYMBOL "macMcuPrecisionCount"
??macMcuPrecisionCount?relay SYMBOL "?relay", macMcuPrecisionCount
macMcuRandomByte    SYMBOL "macMcuRandomByte"
??macMcuRandomByte?relay SYMBOL "?relay", macMcuRandomByte
macMcuRandomWord    SYMBOL "macMcuRandomWord"
??macMcuRandomWord?relay SYMBOL "?relay", macMcuRandomWord
macMcuRecordMaxRssiStart SYMBOL "macMcuRecordMaxRssiStart"
??macMcuRecordMaxRssiStart?relay SYMBOL "?relay", macMcuRecordMaxRssiStart
macMcuRecordMaxRssiStop SYMBOL "macMcuRecordMaxRssiStop"
??macMcuRecordMaxRssiStop?relay SYMBOL "?relay", macMcuRecordMaxRssiStop
macMcuRfErrIsr      SYMBOL "macMcuRfErrIsr"
`??macMcuRfErrIsr??INTVEC 3` SYMBOL "??INTVEC 3", macMcuRfErrIsr
macMcuRfIsr         SYMBOL "macMcuRfIsr"
`??macMcuRfIsr??INTVEC 131` SYMBOL "??INTVEC 131", macMcuRfIsr
macMcuTimer2Isr     SYMBOL "macMcuTimer2Isr"
`??macMcuTimer2Isr??INTVEC 83` SYMBOL "??INTVEC 83", macMcuTimer2Isr
macMcuTimer2OverflowWorkaround SYMBOL "macMcuTimer2OverflowWorkaround"
??macMcuTimer2OverflowWorkaround?relay SYMBOL "?relay", macMcuTimer2OverflowWorkaround
macMcuTimerCapture  SYMBOL "macMcuTimerCapture"
??macMcuTimerCapture?relay SYMBOL "?relay", macMcuTimerCapture
macMcuTimerForceDelay SYMBOL "macMcuTimerForceDelay"
??macMcuTimerForceDelay?relay SYMBOL "?relay", macMcuTimerForceDelay

        EXTERN ??halAssertHandler?relay
        FUNCTION ??halAssertHandler?relay,00H
        EXTERN ??halSetMaxSleepLoopTime?relay
        FUNCTION ??halSetMaxSleepLoopTime?relay,00H
        EXTERN ??macBackoffTimerCompareIsr?relay
        FUNCTION ??macBackoffTimerCompareIsr?relay,00H
        EXTERN ??macBackoffTimerPeriodIsr?relay
        FUNCTION ??macBackoffTimerPeriodIsr?relay,00H
        EXTERN ??macCspTxIntIsr?relay
        FUNCTION ??macCspTxIntIsr?relay,00H
        EXTERN ??macCspTxStopIsr?relay
        FUNCTION ??macCspTxStopIsr?relay,00H
        EXTERN ??macGetBackOffTimerRollover?relay
        FUNCTION ??macGetBackOffTimerRollover?relay,00H
        EXTERN ??macRxAckTxDoneCallback?relay
        FUNCTION ??macRxAckTxDoneCallback?relay,00H
        EXTERN ??macRxFifoOverflowIsr?relay
        FUNCTION ??macRxFifoOverflowIsr?relay,00H
        EXTERN ??macRxOff?relay
        FUNCTION ??macRxOff?relay,00H
        EXTERN ??macRxOn?relay
        FUNCTION ??macRxOn?relay,00H
        EXTERN ??macRxThresholdIsr?relay
        FUNCTION ??macRxThresholdIsr?relay,00H
        EXTERN halAssertHandler
        FUNCTION halAssertHandler,0202H
        ARGFRAME ISTACK, 0, STACK
        ARGFRAME PSTACK, 0, STACK
        ARGFRAME XSTACK, 16, STACK
        ARGFRAME IOVERLAY, 0, STATIC
        ARGFRAME DOVERLAY, 0, STATIC
        EXTERN halSetMaxSleepLoopTime
        FUNCTION halSetMaxSleepLoopTime,0202H
        ARGFRAME ISTACK, 0, STACK
        ARGFRAME PSTACK, 0, STACK
        ARGFRAME XSTACK, 16, STACK
        ARGFRAME IOVERLAY, 0, STATIC
        ARGFRAME DOVERLAY, 0, STATIC
        EXTERN macBackoffTimerCompareIsr
        FUNCTION macBackoffTimerCompareIsr,0202H
        ARGFRAME ISTACK, 0, STACK
        ARGFRAME PSTACK, 0, STACK
        ARGFRAME XSTACK, 16, STACK
        ARGFRAME IOVERLAY, 0, STATIC
        ARGFRAME DOVERLAY, 0, STATIC
        EXTERN macBackoffTimerPeriodIsr
        FUNCTION macBackoffTimerPeriodIsr,0202H
        ARGFRAME ISTACK, 0, STACK
        ARGFRAME PSTACK, 0, STACK
        ARGFRAME XSTACK, 15, STACK
        ARGFRAME IOVERLAY, 0, STATIC
        ARGFRAME DOVERLAY, 0, STATIC
        EXTERN macCspTxIntIsr
        FUNCTION macCspTxIntIsr,0202H
        ARGFRAME ISTACK, 0, STACK
        ARGFRAME PSTACK, 0, STACK
        ARGFRAME XSTACK, 14, STACK
        ARGFRAME IOVERLAY, 0, STATIC
        ARGFRAME DOVERLAY, 0, STATIC
        EXTERN macCspTxStopIsr
        FUNCTION macCspTxStopIsr,0202H
        ARGFRAME ISTACK, 0, STACK
        ARGFRAME PSTACK, 0, STACK
        ARGFRAME XSTACK, 14, STACK
        ARGFRAME IOVERLAY, 0, STATIC
        ARGFRAME DOVERLAY, 0, STATIC
        EXTERN macGetBackOffTimerRollover
        FUNCTION macGetBackOffTimerRollover,0202H
        ARGFRAME ISTACK, 0, STACK
        ARGFRAME PSTACK, 0, STACK
        ARGFRAME XSTACK, 16, STACK
        ARGFRAME IOVERLAY, 0, STATIC
        ARGFRAME DOVERLAY, 0, STATIC
        EXTERN macRxAckTxDoneCallback
        FUNCTION macRxAckTxDoneCallback,0202H
        ARGFRAME ISTACK, 0, STACK
        ARGFRAME PSTACK, 0, STACK
        ARGFRAME XSTACK, 14, STACK
        ARGFRAME IOVERLAY, 0, STATIC
        ARGFRAME DOVERLAY, 0, STATIC
        EXTERN macRxFifoOverflowIsr
        FUNCTION macRxFifoOverflowIsr,0202H
        ARGFRAME ISTACK, 0, STACK
        ARGFRAME PSTACK, 0, STACK
        ARGFRAME XSTACK, 14, STACK
        ARGFRAME IOVERLAY, 0, STATIC
        ARGFRAME DOVERLAY, 0, STATIC
        EXTERN macRxOff
        FUNCTION macRxOff,0202H
        ARGFRAME ISTACK, 0, STACK
        ARGFRAME PSTACK, 0, STACK
        ARGFRAME XSTACK, 42, STACK
        ARGFRAME IOVERLAY, 0, STATIC
        ARGFRAME DOVERLAY, 0, STATIC
        EXTERN macRxOn
        FUNCTION macRxOn,0202H
        ARGFRAME ISTACK, 0, STACK
        ARGFRAME PSTACK, 0, STACK
        ARGFRAME XSTACK, 42, STACK
        ARGFRAME IOVERLAY, 0, STATIC
        ARGFRAME DOVERLAY, 0, STATIC
        EXTERN macRxThresholdIsr
        FUNCTION macRxThresholdIsr,0202H
        ARGFRAME ISTACK, 0, STACK
        ARGFRAME PSTACK, 0, STACK
        ARGFRAME XSTACK, 14, STACK
        ARGFRAME IOVERLAY, 0, STATIC
        ARGFRAME DOVERLAY, 0, STATIC

// D:\Texas Instruments\Z-Stack Lighting 1.0.2\Components\mac\low_level\srf04\single_chip\mac_mcu.c
//    1 /**************************************************************************************************
//    2   Filename:       mac_mcu.c
//    3   Revised:        $Date: 2013-05-17 11:08:52 -0700 (Fri, 17 May 2013) $
//    4   Revision:       $Revision: 34354 $
//    5 
//    6   Description:    Describe the purpose and contents of the file.
//    7 
//    8 
//    9   Copyright 2006-2013 Texas Instruments Incorporated. All rights reserved.
//   10 
//   11   IMPORTANT: Your use of this Software is limited to those specific rights
//   12   granted under the terms of a software license agreement between the user
//   13   who downloaded the software, his/her employer (which must be your employer)
//   14   and Texas Instruments Incorporated (the "License").  You may not use this
//   15   Software unless you agree to abide by the terms of the License. The License
//   16   limits your use, and you acknowledge, that the Software may not be modified,
//   17   copied or distributed unless embedded on a Texas Instruments microcontroller
//   18   or used solely and exclusively in conjunction with a Texas Instruments radio
//   19   frequency transceiver, which is integrated into your product.  Other than for
//   20   the foregoing purpose, you may not use, reproduce, copy, prepare derivative
//   21   works of, modify, distribute, perform, display or sell this Software and/or
//   22   its documentation for any purpose.
//   23 
//   24   YOU FURTHER ACKNOWLEDGE AND AGREE THAT THE SOFTWARE AND DOCUMENTATION ARE
//   25   PROVIDED “AS IS” WITHOUT WARRANTY OF ANY KIND, EITHER EXPRESS OR IMPLIED,
//   26   INCLUDING WITHOUT LIMITATION, ANY WARRANTY OF MERCHANTABILITY, TITLE,
//   27   NON-INFRINGEMENT AND FITNESS FOR A PARTICULAR PURPOSE. IN NO EVENT SHALL
//   28   TEXAS INSTRUMENTS OR ITS LICENSORS BE LIABLE OR OBLIGATED UNDER CONTRACT,
//   29   NEGLIGENCE, STRICT LIABILITY, CONTRIBUTION, BREACH OF WARRANTY, OR OTHER
//   30   LEGAL EQUITABLE THEORY ANY DIRECT OR INDIRECT DAMAGES OR EXPENSES
//   31   INCLUDING BUT NOT LIMITED TO ANY INCIDENTAL, SPECIAL, INDIRECT, PUNITIVE
//   32   OR CONSEQUENTIAL DAMAGES, LOST PROFITS OR LOST DATA, COST OF PROCUREMENT
//   33   OF SUBSTITUTE GOODS, TECHNOLOGY, SERVICES, OR ANY CLAIMS BY THIRD PARTIES
//   34   (INCLUDING BUT NOT LIMITED TO ANY DEFENSE THEREOF), OR OTHER SIMILAR COSTS.
//   35 
//   36   Should you have any questions regarding your right to use this Software,
//   37   contact Texas Instruments Incorporated at www.TI.com.
//   38 **************************************************************************************************/
//   39 
//   40 /* ------------------------------------------------------------------------------------------------
//   41  *                                          Includes
//   42  * ------------------------------------------------------------------------------------------------
//   43  */
//   44 
//   45 /* hal */
//   46 #include "hal_defs.h"
//   47 #include "hal_mcu.h"

        ASEGN SFR_AN:DATA:NOROOT,091H
// unsigned char volatile __sfr RFIRQF1
RFIRQF1:
        DATA8
        DS 1

        ASEGN SFR_AN:DATA:NOROOT,094H
// unsigned char volatile __sfr T2CTRL
T2CTRL:
        DATA8
        DS 1

        ASEGN SFR_AN:DATA:NOROOT,09aH
// unsigned char volatile __sfr IEN2
IEN2:
        DATA8
        DS 1

        ASEGN SFR_AN:DATA:NOROOT,09bH
// unsigned char volatile __sfr S1CON
S1CON:
        DATA8
        DS 1

        ASEGN SFR_AN:DATA:NOROOT,09eH
// unsigned char volatile __sfr CLKCONSTA
CLKCONSTA:
        DATA8
        DS 1

        ASEGN SFR_AN:DATA:NOROOT,0a1H
// unsigned char volatile __sfr T2IRQF
T2IRQF:
        DATA8
        DS 1

        ASEGN SFR_AN:DATA:NOROOT,0a2H
// unsigned char volatile __sfr T2M0
T2M0:
        DATA8
        DS 1

        ASEGN SFR_AN:DATA:NOROOT,0a3H
// unsigned char volatile __sfr T2M1
T2M1:
        DATA8
        DS 1

        ASEGN SFR_AN:DATA:NOROOT,0a4H
// unsigned char volatile __sfr T2MOVF0
T2MOVF0:
        DATA8
        DS 1

        ASEGN SFR_AN:DATA:NOROOT,0a5H
// unsigned char volatile __sfr T2MOVF1
T2MOVF1:
        DATA8
        DS 1

        ASEGN SFR_AN:DATA:NOROOT,0a6H
// unsigned char volatile __sfr T2MOVF2
T2MOVF2:
        DATA8
        DS 1

        ASEGN SFR_AN:DATA:NOROOT,0a7H
// unsigned char volatile __sfr T2IRQM
T2IRQM:
        DATA8
        DS 1

        ASEGN SFR_AN:DATA:NOROOT,0a8H
// union <unnamed> volatile __sfr _A_IEN0
_A_IEN0:
        DATA8
        DS 1

        ASEGN SFR_AN:DATA:NOROOT,0a9H
// unsigned char volatile __sfr IP0
IP0:
        DATA8
        DS 1

        ASEGN SFR_AN:DATA:NOROOT,0b4H
// unsigned char volatile __sfr ADCCON1
ADCCON1:
        DATA8
        DS 1

        ASEGN SFR_AN:DATA:NOROOT,0b8H
// union <unnamed> volatile __sfr _A_IEN1
_A_IEN1:
        DATA8
        DS 1

        ASEGN SFR_AN:DATA:NOROOT,0b9H
// unsigned char volatile __sfr IP1
IP1:
        DATA8
        DS 1

        ASEGN SFR_AN:DATA:NOROOT,0bcH
// unsigned char volatile __sfr RNDL
RNDL:
        DATA8
        DS 1

        ASEGN SFR_AN:DATA:NOROOT,0bdH
// unsigned char volatile __sfr RNDH
RNDH:
        DATA8
        DS 1

        ASEGN SFR_AN:DATA:NOROOT,0bfH
// unsigned char volatile __sfr RFERRF
RFERRF:
        DATA8
        DS 1

        ASEGN SFR_AN:DATA:NOROOT,0c3H
// unsigned char volatile __sfr T2MSEL
T2MSEL:
        DATA8
        DS 1

        ASEGN SFR_AN:DATA:NOROOT,0e9H
// unsigned char volatile __sfr RFIRQF0
RFIRQF0:
        DATA8
        DS 1
//   48 
//   49 /* low-level specific */
//   50 #include "mac_rx.h"
//   51 #include "mac_tx.h"
//   52 #include "mac_backoff_timer.h"
//   53 #include "mac_csp_tx.h"
//   54 #include "mac_rx_onoff.h"
//   55 #include "mac_low_level.h"
//   56 
//   57 /* target specific */
//   58 #include "mac_mcu.h"
//   59 #include "mac_radio_defs.h"
//   60 
//   61 /* debug */
//   62 #include "mac_assert.h"
//   63 
//   64 /* high level */
//   65 #include "mac_pib.h"
//   66 
//   67 /* ------------------------------------------------------------------------------------------------
//   68  *                                           Defines
//   69  * ------------------------------------------------------------------------------------------------
//   70  */
//   71 
//   72 /* for optimized indexing of uint32's */
//   73 #if HAL_MCU_LITTLE_ENDIAN()
//   74 #define UINT32_NDX0   0
//   75 #define UINT32_NDX1   1
//   76 #define UINT32_NDX2   2
//   77 #define UINT32_NDX3   3
//   78 #else
//   79 #define UINT32_NDX0   3
//   80 #define UINT32_NDX1   2
//   81 #define UINT32_NDX2   1
//   82 #define UINT32_NDX3   0
//   83 #endif
//   84 
//   85 /* ------------------------------------------------------------------------------------------------
//   86  *                                        Local Variables
//   87  * ------------------------------------------------------------------------------------------------
//   88  */

        RSEG XDATA_Z:XDATA:NOROOT(0)
        DATA8
//   89 uint8       macChipVersion = 0;
macChipVersion:
        DS 1
        REQUIRE __INIT_XDATA_Z

        RSEG XDATA_Z:XDATA:NOROOT(0)
        DATA8
//   90 static int8 maxRssi;
maxRssi:
        DS 1
        REQUIRE __INIT_XDATA_Z

        RSEG XDATA_Z:XDATA:NOROOT(0)
        DATA32
//   91 static uint32 prevAccumulatedOverflowCount = 0;
prevAccumulatedOverflowCount:
        DS 4
        REQUIRE __INIT_XDATA_Z

        RSEG XDATA_Z:XDATA:NOROOT(0)
        DATA8
//   92 static bool updateRolloverflag = FALSE;
updateRolloverflag:
        DS 1
        REQUIRE __INIT_XDATA_Z

        RSEG XDATA_Z:XDATA:NOROOT(0)
        DATA32
//   93 static uint32 prevoverflowCount = 0;
prevoverflowCount:
        DS 4
        REQUIRE __INIT_XDATA_Z
//   94 
//   95 
//   96 /*
//   97  *  This number is used to calculate the precision count for OSAL timer update. In Beacon mode,
//   98  *  the overflow count may be initialized to zero or to a constant. The "skip" in overflow count
//   99  *  needs to be accounted for in this variable.
//  100  */

        RSEG XDATA_Z:XDATA:NOROOT(0)
        DATA32
//  101 static uint32 accumulatedOverflowCount = 0;
accumulatedOverflowCount:
        DS 4
        REQUIRE __INIT_XDATA_Z
//  102 
//  103 /* Function pointer for the random seed callback */

        RSEG XDATA_Z:XDATA:NOROOT(0)
        DATA16
//  104 static macRNGFcn_t pRandomSeedCB = NULL;
pRandomSeedCB:
        DS 2
        REQUIRE __INIT_XDATA_Z
//  105 /* ------------------------------------------------------------------------------------------------
//  106  *                                       Local Prototypes
//  107  * ------------------------------------------------------------------------------------------------
//  108  */
//  109 static void mcuRecordMaxRssiIsr(void);
//  110 static uint32 macMcuOverflowGetCompare(void);
//  111 void MAC_SetRandomSeedCB(macRNGFcn_t pCBFcn);
//  112 
//  113 /**************************************************************************************************
//  114  * @fn          MAC_SetRandomSeedCB
//  115  *
//  116  * @brief       Set the function pointer for the random seed callback.
//  117  *
//  118  * @param       pCBFcn - function pointer of the random seed callback
//  119  *
//  120  * @return      none
//  121  **************************************************************************************************
//  122  */

        RSEG BANKED_CODE:CODE:NOROOT(0)
//  123 void MAC_SetRandomSeedCB(macRNGFcn_t pCBFcn)
MAC_SetRandomSeedCB:
          CFI Block cfiBlock0 Using cfiCommon0
          CFI Function MAC_SetRandomSeedCB
        CODE
//  124 {
        PUSH    DPL
          CFI DPL0 Frame(CFA_SP, 4)
          CFI CFA_SP SP+-4
        PUSH    DPH
          CFI DPH0 Frame(CFA_SP, 5)
          CFI CFA_SP SP+-5
        ; Saved register size: 2
        ; Auto size: 0
//  125   pRandomSeedCB = pCBFcn;
        MOV     DPTR,#pRandomSeedCB
        MOV     A,R2
        MOVX    @DPTR,A
        INC     DPTR
        MOV     A,R3
        MOVX    @DPTR,A
//  126 }
        SJMP    ??Subroutine7_0
          CFI EndBlock cfiBlock0

        RSEG BANKED_CODE:CODE:NOROOT(0)
?Subroutine0:
          CFI Block cfiBlock1 Using cfiCommon0
          CFI NoFunction
          CFI CFA_SP SP+-5
          CFI CFA_XSP16 add(XSP16, 4)
          CFI DPL0 Frame(CFA_SP, 4)
          CFI DPH0 Frame(CFA_SP, 5)
        MOV     A,0xa4
        MOV     DPL,?XSP + 0
        MOV     DPH,?XSP + 1
        MOVX    @DPTR,A
        MOV     A,0xa5
        PUSH    A
          CFI CFA_SP SP+-6
        MOV     A,#0x1
        LCALL   ?XSTACK_DISP0_8
        POP     A
          CFI CFA_SP SP+-5
        MOVX    @DPTR,A
        MOV     A,0xa6
        PUSH    A
          CFI CFA_SP SP+-6
        MOV     A,#0x2
        LCALL   ?XSTACK_DISP0_8
        POP     A
          CFI CFA_SP SP+-5
        MOVX    @DPTR,A
        MOV     A,#0x3
        LCALL   ?XSTACK_DISP0_8
        CLR     A
        MOVX    @DPTR,A
        MOV     A,R0
        MOV     C,0xE0 /* A   */.7
        MOV     C,0xE0 /* A   */.7
        MOV     0xa8.7,C
        MOV     DPL,?XSP + 0
        MOV     DPH,?XSP + 1
        LCALL   ?XLOAD_R2345
        MOV     A,#0x4
        LCALL   ?DEALLOC_XSTACK8
          CFI EndBlock cfiBlock1
        REQUIRE ??Subroutine7_0
        ; // Fall through to label ??Subroutine7_0

        RSEG BANKED_CODE:CODE:NOROOT(0)
??Subroutine7_0:
          CFI Block cfiBlock2 Using cfiCommon0
          CFI NoFunction
          CFI CFA_SP SP+-5
          CFI DPL0 Frame(CFA_SP, 4)
          CFI DPH0 Frame(CFA_SP, 5)
        POP     DPH
          CFI CFA_SP SP+-4
          CFI DPH0 SameValue
        POP     DPL
          CFI CFA_SP SP+-3
          CFI DPL0 SameValue
        LJMP    ?BRET
          CFI EndBlock cfiBlock2
//  127 
//  128 /**************************************************************************************************
//  129  * @fn          macMcuInit
//  130  *
//  131  * @brief       Initialize the MCU.
//  132  *
//  133  * @param       none
//  134  *
//  135  * @return      none
//  136  **************************************************************************************************
//  137  */

        RSEG BANKED_CODE:CODE:NOROOT(0)
//  138 MAC_INTERNAL_API void macMcuInit(void)
macMcuInit:
          CFI Block cfiBlock3 Using cfiCommon0
          CFI Function macMcuInit
        CODE
//  139 {
        FUNCALL macMcuInit, macRxOn
        LOCFRAME ISTACK, 0, STACK
        LOCFRAME PSTACK, 0, STACK
        LOCFRAME XSTACK, 42, STACK
        LOCFRAME IOVERLAY, 0, STATIC
        LOCFRAME DOVERLAY, 0, STATIC
        ARGFRAME ISTACK, 0, STACK
        ARGFRAME PSTACK, 0, STACK
        ARGFRAME XSTACK, 42, STACK
        ARGFRAME IOVERLAY, 0, STATIC
        ARGFRAME DOVERLAY, 0, STATIC
        FUNCALL macMcuInit, macRxOff
        LOCFRAME ISTACK, 0, STACK
        LOCFRAME PSTACK, 0, STACK
        LOCFRAME XSTACK, 42, STACK
        LOCFRAME IOVERLAY, 0, STATIC
        LOCFRAME DOVERLAY, 0, STATIC
        ARGFRAME ISTACK, 0, STACK
        ARGFRAME PSTACK, 0, STACK
        ARGFRAME XSTACK, 42, STACK
        ARGFRAME IOVERLAY, 0, STATIC
        ARGFRAME DOVERLAY, 0, STATIC
        MOV     A,#-0xa
        LCALL   ?BANKED_ENTER_XDATA
          CFI DPH0 load(1, XDATA, add(CFA_XSP16, literal(-1)))
          CFI DPL0 load(1, XDATA, add(CFA_XSP16, literal(-2)))
          CFI ?BRET_EXT load(1, XDATA, add(CFA_XSP16, literal(-3)))
          CFI ?RET_HIGH load(1, XDATA, add(CFA_XSP16, literal(-4)))
          CFI ?RET_LOW load(1, XDATA, add(CFA_XSP16, literal(-5)))
          CFI R7 load(1, XDATA, add(CFA_XSP16, literal(-6)))
          CFI V1 load(1, XDATA, add(CFA_XSP16, literal(-7)))
          CFI V0 load(1, XDATA, add(CFA_XSP16, literal(-8)))
          CFI VB load(1, XDATA, add(CFA_XSP16, literal(-9)))
          CFI R6 load(1, XDATA, add(CFA_XSP16, literal(-10)))
          CFI CFA_SP SP+0
          CFI CFA_XSP16 add(XSP16, 10)
        ; Saved register size: 10
        ; Auto size: 32
        MOV     A,#-0x20
        LCALL   ?ALLOC_XSTACK8
          CFI CFA_XSP16 add(XSP16, 42)
//  140   halIntState_t  s;
//  141 
//  142   /* This CORR_THR value should be changed to 0x14 before attempting RX. Testing has shown that
//  143    * too many false frames are received if the reset value is used. Make it more likely to detect
//  144    * sync by removing the requirement that both symbols in the SFD must have a correlation value
//  145    * above the correlation threshold, and make sync word detection less likely by raising the
//  146    * correlation threshold.
//  147    */
//  148   MDMCTRL1 = CORR_THR;
        MOV     DPTR,#0x61a9
        MOV     A,#0x14
        MOVX    @DPTR,A
//  149 
//  150 #ifdef FEATURE_CC253X_LOW_POWER_RX
//  151   /* Reduce RX power consumption current to 20mA at the cost of some sensitivity
//  152    * Note: This feature can be applied to CC2530 and CC2533 only.
//  153    */
//  154   RXCTRL = 0x00;
//  155   FSCTRL = 0x50;
//  156 #else
//  157   /* tuning adjustments for optimal radio performance; details available in datasheet */
//  158   RXCTRL = 0x3F;
        MOV     DPTR,#0x61ab
        MOV     A,#0x3f
        MOVX    @DPTR,A
//  159   
//  160   /* Adjust current in synthesizer; details available in datasheet. */
//  161   FSCTRL = 0x55;
        INC     DPTR
        MOV     A,#0x55
        MOVX    @DPTR,A
//  162 #endif /* #ifdef FEATURE_CC253X_LOW_POWER_RX */ 
//  163 
//  164 #if !(defined HAL_PA_LNA || defined HAL_PA_LNA_CC2590)
//  165   /* Raises the CCA threshold from about -108 dBm to about -80 dBm input level.
//  166    */
//  167   CCACTRL0 = CCA_THR;
        MOV     DPTR,#0x6196
        MOV     A,#-0x4
        MOVX    @DPTR,A
//  168 #endif
//  169 
//  170   /* Makes sync word detection less likely by requiring two zero symbols before the sync word.
//  171    * details available in datasheet.
//  172    */
//  173   MDMCTRL0 = 0x85;
        MOV     DPTR,#0x61a8
        MOV     A,#-0x7b
        MOVX    @DPTR,A
//  174 
//  175   /* In order to make a single library build, CC2533 specific accesses need to
//  176    * be detected by reading the Chip ID
//  177    */
//  178   if ((*(uint8 *)(P_INFOPAGE+0x03) == 0x95) || (*(uint8 *)(P_INFOPAGE+0x03) == 0x34))
        MOV     DPTR,#0x7803
        MOVX    A,@DPTR
        MOV     R0,A
        MOV     A,#-0x6b
        XRL     A,R0
        JZ      ??macMcuInit_0
        MOV     A,#0x34
        XRL     A,R0
        JNZ     ??macMcuInit_1
//  179   {
//  180     /* In case the device is a 2533, just update the IVCTRL regoster which is 2533 specific */
//  181     #define IVCTRL          XREG( 0x6265 )
//  182     IVCTRL = 0xF;
??macMcuInit_0:
        MOV     DPTR,#0x6265
        MOV     A,#0xf
        MOVX    @DPTR,A
//  183     CCACTRL0 = CCA_THR_CC2533; 
        MOV     DPTR,#0x6196
        MOV     A,#-0x8
        MOVX    @DPTR,A
//  184   }
//  185 
//  186   /* Adjust current in VCO; details available in datasheet. */
//  187 #ifdef FEATURE_VCO_ALTERNATE_SETTING
//  188   FSCAL1 = 0x80;
//  189 #else
//  190   FSCAL1 = 0x00;
??macMcuInit_1:
        MOV     DPTR,#0x61ae
        CLR     A
        MOVX    @DPTR,A
//  191 #endif
//  192 
//  193   /* Adjust target value for AGC control loop; details available in datasheet. */
//  194   AGCCTRL1 = 0x15;
        MOV     DPTR,#0x61b2
        MOV     A,#0x15
        MOVX    @DPTR,A
//  195 
//  196   /* Disable source address matching an autopend for now */
//  197   SRCMATCH = 0;
        MOV     DPTR,#0x6182
        CLR     A
        MOVX    @DPTR,A
//  198 
//  199   /* Tune ADC performance, details available in datasheet. */
//  200   ADCTEST0 = 0x10;
        MOV     DPTR,#0x61b5
        MOV     A,#0x10
        MOVX    @DPTR,A
//  201   ADCTEST1 = 0x0E;
        INC     DPTR
        MOV     A,#0xe
        MOVX    @DPTR,A
//  202   ADCTEST2 = 0x03;
        INC     DPTR
        MOV     A,#0x3
        MOVX    @DPTR,A
//  203 
//  204   /* Sets TX anti-aliasing filter to appropriate bandwidth.
//  205    * Reduces spurious emissions close to signal.
//  206    */
//  207   TXFILTCFG = TXFILTCFG_RESET_VALUE;
        MOV     DPTR,#0x61fa
        MOV     A,#0x9
        MOVX    @DPTR,A
//  208 
//  209   /* disable the CSPT register compare function */
//  210   CSPT = 0xFF;
        MOV     DPTR,#0x61e5
        MOV     A,#-0x1
        MOVX    @DPTR,A
//  211 
//  212   /* enable general RF interrupts */
//  213   IEN2 |= RFIE;
        ORL     0x9a,#0x1
//  214 
//  215   /* enable general REERR interrupts */
//  216   IEN0 |= RFERRIE;
        SETB    0xa8.0
//  217 
//  218   /* set RF interrupts one notch above lowest priority (four levels available) */
//  219   IP0 |=  IP_RFERR_RF_DMA_BV;
        ORL     0xa9,#0x1
//  220   IP1 &= ~IP_RFERR_RF_DMA_BV;
        ANL     0xb9,#0xfe
//  221 
//  222   /* set T2 interrupts one notch above lowest priority (four levels available)
//  223    * This effectively turned off nested interrupt between T2 and RF.
//  224    */
//  225   IP0 |=  IP_RXTX0_T2_BV;
        ORL     0xa9,#0x4
//  226   IP1 &= ~IP_RXTX0_T2_BV;
        ANL     0xb9,#0xfb
//  227 
//  228   /* read chip version */
//  229   macChipVersion = CHVER;
        MOV     DPTR,#0x6249
        MOVX    A,@DPTR
        MOV     DPTR,#macChipVersion
        MOVX    @DPTR,A
//  230 
//  231   /*-------------------------------------------------------------------------------
//  232    *  Initialize MAC timer.
//  233    */
//  234 
//  235   /* set timer rollover */
//  236   HAL_ENTER_CRITICAL_SECTION(s);
        MOV     A,0xa8
        CLR     0xa8.7
//  237   MAC_MCU_T2_ACCESS_PERIOD_VALUE();
        MOV     0xc3,#0x2
//  238   T2M0 = MAC_RADIO_TIMER_TICKS_PER_BACKOFF() & 0xFF;
        MOV     0xa2,#0x0
//  239   T2M1 = MAC_RADIO_TIMER_TICKS_PER_BACKOFF() >> 8;
        MOV     0xa3,#0x28
//  240   HAL_EXIT_CRITICAL_SECTION(s);
        MOV     C,0xE0 /* A   */.7
        MOV     C,0xE0 /* A   */.7
        MOV     0xa8.7,C
//  241 
//  242   /* start timer */
//  243   MAC_RADIO_TIMER_WAKE_UP();
??macMcuInit_2:
        MOV     A,0x9e
        JNZ     ??macMcuInit_2
        ORL     0x94,#0x3
??macMcuInit_3:
        MOV     A,0x94
        MOV     C,0xE0 /* A   */.2
        JNC     ??macMcuInit_3
//  244 
//  245   /* Enable latch mode and T2 SYNC start. OSAL timer is based on MAC timer.
//  246    * The SYNC start msut be on when POWER_SAVING is on for this design to work.
//  247    */
//  248   T2CTRL |= (LATCH_MODE | TIMER2_SYNC);
        ORL     0x94,#0xa
//  249 
//  250   /* enable timer interrupts */
//  251   T2IE = 1;
        SETB    0xb8.2
//  252 
//  253  /*----------------------------------------------------------------------------------------------
//  254   *  Initialize random seed value.
//  255   */
//  256 
//  257   /*
//  258    *  Set radio for infinite reception.  Once radio reaches this state,
//  259    *  it will stay in receive mode regardless RF activity.
//  260    */
//  261   FRMCTRL0 = FRMCTRL0_RESET_VALUE | RX_MODE_INFINITE_RECEPTION;
        MOV     DPTR,#0x6189
        MOV     A,#0x48
        MOVX    @DPTR,A
//  262 
//  263   /* turn on the receiver */
//  264   macRxOn();
        ; Setup parameters for call to function macRxOn
        LCALL   ??macRxOn?relay
//  265 
//  266   /*
//  267    *  Wait for radio to reach infinite reception state by checking RSSI valid flag.
//  268    *  Once it does, the least significant bit of ADTSTH should be pretty random.
//  269    */
//  270   while (!(RSSISTAT & 0x01));
??macMcuInit_4:
        MOV     DPTR,#0x6199
        MOVX    A,@DPTR
        MOV     C,0xE0 /* A   */.0
        JNC     ??macMcuInit_4
//  271 
//  272   /* put 16 random bits into the seed value */
//  273   {
//  274     uint16 rndSeed;
//  275     uint8  i;
//  276     rndSeed = 0;
        MOV     R0,#0x0
        MOV     R1,#0x0
//  277 
//  278     for(i=0; i<16; i++)
        MOV     R4,#0x10
//  279     {
//  280       /* use most random bit of analog to digital receive conversion to populate the random seed */
//  281       rndSeed = (rndSeed << 1) | (RFRND & 0x01);
??macMcuInit_5:
        MOV     A,R0
        CLR     C
        RLC     A
        MOV     R0,A
        MOV     A,R1
        RLC     A
        MOV     R1,A
        MOV     DPTR,#0x61a7
        MOVX    A,@DPTR
        MOV     C,0xE0 /* A   */.0
        CLR     A
        RLC     A
        MOV     R2,A
        MOV     A,R0
        ORL     A,R2
        MOV     R0,A
//  282     }
        DEC     R4
        MOV     A,R4
        JNZ     ??macMcuInit_5
//  283 
//  284     /*
//  285      *  The seed value must not be zero or 0x0380 (0x8003 in the polynomial).  If it is, the psuedo
//  286      *  random sequence won’t be random.  There is an extremely small chance this seed could randomly
//  287      *  be zero or 0x0380.  The following check makes sure this does not happen.
//  288      */
//  289     if (rndSeed == 0x0000 || rndSeed == 0x0380)
        MOV     A,R0
        ORL     A,R1
        JZ      ??macMcuInit_6
        MOV     A,#-0x80
        XRL     A,R0
        JNZ     ??macMcuInit_7
        MOV     A,#0x3
        XRL     A,R1
??macMcuInit_7:
        JNZ     ??macMcuInit_8
//  290     {
//  291       rndSeed = 0xBABE; /* completely arbitrary "random" value */
??macMcuInit_6:
        MOV     R0,#-0x42
        MOV     R1,#-0x46
//  292     }
//  293 
//  294     /*
//  295      *  Two writes to RNDL will set the random seed.  A write to RNDL copies current contents
//  296      *  of RNDL to RNDH before writing new the value to RNDL.
//  297      */
//  298     RNDL = rndSeed & 0xFF;
??macMcuInit_8:
        MOV     A,R0
        MOV     0xbc,A
//  299     RNDL = rndSeed >> 8;
        MOV     A,R1
        MOV     0xbc,A
//  300   }
//  301 
//  302   /* Read MAC_RANDOM_SEED_LEN*8 random bits and store them in flash for
//  303    * future use in random key generation for CBKE key establishment
//  304    */
//  305   if( pRandomSeedCB )
        MOV     DPTR,#pRandomSeedCB
        MOVX    A,@DPTR
        MOV     R0,A
        INC     DPTR
        MOVX    A,@DPTR
        MOV     R1,A
        MOV     A,R0
        ORL     A,R1
        JZ      ??macMcuInit_9
//  306   {
//  307     uint8 randomSeed[MAC_RANDOM_SEED_LEN];
//  308     uint8 i,j;
//  309 
//  310     for(i = 0; i < MAC_RANDOM_SEED_LEN; i++)
        MOV     R0,#0x0
//  311     {
//  312       uint8 rndByte = 0;
??macMcuInit_10:
        MOV     R3,#0x0
//  313       for(j = 0; j < 8; j++)
        MOV     R2,#0x8
//  314       {
//  315         /* use most random bit of analog to digital receive conversion to
//  316            populate the random seed */
//  317         rndByte = (rndByte << 1) | (RFRND & 0x01);
??macMcuInit_11:
        MOV     DPTR,#0x61a7
        MOVX    A,@DPTR
        MOV     C,0xE0 /* A   */.0
        CLR     A
        RLC     A
        MOV     R1,A
        MOV     A,R3
        RLC     A
        ORL     A,R1
        MOV     R3,A
//  318       }
        DEC     R2
        MOV     A,R2
        JNZ     ??macMcuInit_11
//  319       randomSeed[i] = rndByte;
        MOV     ?V0 + 0,R0
        MOV     DPL,?XSP + 0
        MOV     DPH,?XSP + 1
        MOV     A,DPL
        ADD     A,?V0 + 0
        MOV     DPL,A
        MOV     A,DPH
        ADDC    A,#0x0
        MOV     DPH,A
        MOV     A,R3
        MOVX    @DPTR,A
//  320 
//  321     }
        INC     R0
        MOV     A,R0
        CLR     C
        SUBB    A,#0x20
        JC      ??macMcuInit_10
//  322     pRandomSeedCB( randomSeed );
        ; Setup parameters for indirect call
        MOV     DPL,?XSP + 0
        MOV     DPH,?XSP + 1
        MOV     R2,DPL
        MOV     R3,DPH
        MOV     DPTR,#pRandomSeedCB
        MOVX    A,@DPTR
        MOV     R0,A
        INC     DPTR
        MOVX    A,@DPTR
        MOV     DPH,A
        MOV     DPL,R0
        LCALL   ?CALL_IND
//  323   }
//  324 
//  325   /* turn off the receiver */
//  326   macRxOff();
??macMcuInit_9:
        ; Setup parameters for call to function macRxOff
        LCALL   ??macRxOff?relay
//  327 
//  328   /* take receiver out of infinite reception mode; set back to normal operation */
//  329   FRMCTRL0 = FRMCTRL0_RESET_VALUE | RX_MODE_NORMAL_OPERATION;
        MOV     DPTR,#0x6189
        MOV     A,#0x40
        MOVX    @DPTR,A
//  330 
//  331   /* Turn on autoack */
//  332   MAC_RADIO_TURN_ON_AUTO_ACK();
        MOVX    A,@DPTR
        SETB    0xE0 /* A   */.5
        MOVX    @DPTR,A
//  333 
//  334   /* Initialize SRCEXTPENDEN and SRCSHORTPENDEN to zeros */
//  335   MAC_RADIO_SRC_MATCH_INIT_EXTPENDEN();
        MOV     DPTR,#0x6164
        CLR     A
        MOVX    @DPTR,A
        INC     DPTR
        MOVX    @DPTR,A
        INC     DPTR
        MOVX    @DPTR,A
//  336   MAC_RADIO_SRC_MATCH_INIT_SHORTPENDEN();
        INC     DPTR
        MOVX    @DPTR,A
        INC     DPTR
        MOVX    @DPTR,A
        INC     DPTR
        MOVX    @DPTR,A
//  337 }
        MOV     A,#0x20
        LCALL   ?DEALLOC_XSTACK8
          CFI CFA_XSP16 add(XSP16, 10)
        MOV     R7,#0x2
        LJMP    ?BANKED_LEAVE_XDATA
          CFI EndBlock cfiBlock3
        REQUIRE IEN2
        REQUIRE _A_IEN0
        REQUIRE IP0
        REQUIRE IP1
        REQUIRE T2MSEL
        REQUIRE T2M0
        REQUIRE T2M1
        REQUIRE CLKCONSTA
        REQUIRE T2CTRL
        REQUIRE _A_IEN1
        REQUIRE RNDL
//  338 
//  339 
//  340 /**************************************************************************************************
//  341  * @fn          macMcuRandomByte
//  342  *
//  343  * @brief       Returns a random byte using a special hardware feature that generates new
//  344  *              random values based on the truly random seed set earlier.
//  345  *
//  346  * @param       none
//  347  *
//  348  * @return      a random byte
//  349  **************************************************************************************************
//  350  */

        RSEG BANKED_CODE:CODE:NOROOT(0)
//  351 MAC_INTERNAL_API uint8 macMcuRandomByte(void)
macMcuRandomByte:
          CFI Block cfiBlock4 Using cfiCommon0
          CFI Function macMcuRandomByte
        CODE
//  352 {
        ; Saved register size: 0
        ; Auto size: 0
//  353   /* clock the random generator to get a new random value */
//  354   ADCCON1 = (ADCCON1 & ~RCTRL_BITS) | RCTRL_CLOCK_LFSR;
        LCALL   ?Subroutine4 & 0xFFFF
//  355 
//  356   /* return new randomized value from hardware */
//  357   return(RNDH);
??CrossCallReturnLabel_2:
        LJMP    ?BRET
          CFI EndBlock cfiBlock4
        REQUIRE ADCCON1
        REQUIRE RNDH
//  358 }
//  359 
//  360 
//  361 /**************************************************************************************************
//  362  * @fn          macMcuRandomWord
//  363  *
//  364  * @brief       Returns a random word using a special hardware feature that generates new
//  365  *              random values based on the truly random seed set earlier.
//  366  *
//  367  * @param       none
//  368  *
//  369  * @return      a random word
//  370  **************************************************************************************************
//  371  */

        RSEG BANKED_CODE:CODE:NOROOT(0)
//  372 MAC_INTERNAL_API uint16 macMcuRandomWord(void)
macMcuRandomWord:
          CFI Block cfiBlock5 Using cfiCommon0
          CFI Function macMcuRandomWord
        CODE
//  373 {
        ; Saved register size: 0
        ; Auto size: 0
//  374   uint16 random_word;
//  375 
//  376   /* clock the random generator to get a new random value */
//  377   ADCCON1 = (ADCCON1 & ~RCTRL_BITS) | RCTRL_CLOCK_LFSR;
        LCALL   ?Subroutine4 & 0xFFFF
//  378 
//  379   /* read random word */
//  380   random_word  = (RNDH << 8);
//  381   random_word +=  RNDL;
//  382 
//  383   /* return new randomized value from hardware */
//  384   return(random_word);
??CrossCallReturnLabel_3:
        MOV     A,0xbc
        MOV     R2,A
        MOV     A,R1
        MOV     R3,A
        LJMP    ?BRET
          CFI EndBlock cfiBlock5
        REQUIRE ADCCON1
        REQUIRE RNDH
        REQUIRE RNDL
//  385 }

        RSEG BANKED_CODE:CODE:NOROOT(0)
?Subroutine4:
          CFI Block cfiCond6 Using cfiCommon0
          CFI Function macMcuRandomByte
          CFI Conditional ??CrossCallReturnLabel_2
          CFI Block cfiCond7 Using cfiCommon0
          CFI (cfiCond7) Function macMcuRandomWord
          CFI (cfiCond7) Conditional ??CrossCallReturnLabel_3
          CFI Block cfiPicker8 Using cfiCommon1
          CFI (cfiPicker8) NoFunction
          CFI (cfiPicker8) Picker
        MOV     A,0xb4
        ANL     A,#0xf3
        ORL     A,#0x4
        MOV     0xb4,A
        MOV     A,0xbd
        MOV     R1,A
        RET
          CFI EndBlock cfiCond6
          CFI EndBlock cfiCond7
          CFI EndBlock cfiPicker8
//  386 
//  387 
//  388 /**************************************************************************************************
//  389  * @fn          macMcuTimerForceDelay
//  390  *
//  391  * @brief       Delay the timer by the requested number of ticks.
//  392  *
//  393  * @param       none
//  394  *
//  395  * @return      none
//  396  **************************************************************************************************
//  397  */

        RSEG BANKED_CODE:CODE:NOROOT(0)
//  398 MAC_INTERNAL_API void macMcuTimerForceDelay(uint16 x)
macMcuTimerForceDelay:
          CFI Block cfiBlock9 Using cfiCommon0
          CFI Function macMcuTimerForceDelay
        CODE
//  399 {
        ; Saved register size: 0
        ; Auto size: 0
//  400   halIntState_t  s;
//  401 
//  402   HAL_ENTER_CRITICAL_SECTION(s);
        MOV     A,0xa8
        MOV     R0,A
        CLR     0xa8.7
//  403   MAC_MCU_T2_ACCESS_COUNT_VALUE();
        MOV     0xc3,#0x0
//  404   T2M0 = (x) & 0xFF;
        MOV     A,R2
        MOV     0xa2,A
//  405   T2M1 = (x) >> 8;
        MOV     A,R3
        MOV     0xa3,A
//  406   HAL_EXIT_CRITICAL_SECTION(s);
        MOV     A,R0
        MOV     C,0xE0 /* A   */.7
        MOV     C,0xE0 /* A   */.7
        MOV     0xa8.7,C
//  407 }
        LJMP    ?BRET
          CFI EndBlock cfiBlock9
        REQUIRE _A_IEN0
        REQUIRE T2MSEL
        REQUIRE T2M0
        REQUIRE T2M1
//  408 
//  409 /**************************************************************************************************
//  410  * @fn          macMcuTimerCapture
//  411  *
//  412  * @brief       Returns the last timer capture.  This capture should have occurred at the
//  413  *              receive time of the last frame (the last time SFD transitioned to active).
//  414  *
//  415  * @param       none
//  416  *
//  417  * @return      last capture of hardware timer (full 16-bit value)
//  418  **************************************************************************************************
//  419  */

        RSEG BANKED_CODE:CODE:NOROOT(0)
//  420 MAC_INTERNAL_API uint16 macMcuTimerCapture(void)
macMcuTimerCapture:
          CFI Block cfiBlock10 Using cfiCommon0
          CFI Function macMcuTimerCapture
        CODE
//  421 {
        PUSH    ?V0 + 0
          CFI V0 Frame(CFA_SP, 4)
          CFI CFA_SP SP+-4
        ; Saved register size: 2
        ; Auto size: 0
//  422   uint16         timerCapture;
//  423   halIntState_t  s;
//  424 
//  425   HAL_ENTER_CRITICAL_SECTION(s);
        MOV     A,0xa8
        MOV     R0,A
        CLR     0xa8.7
//  426   MAC_MCU_T2_ACCESS_CAPTURE_VALUE();
        MOV     0xc3,#0x1
//  427   timerCapture = T2M1 << 8;
        MOV     A,0xa3
        MOV     R1,A
//  428   timerCapture |= T2M0;
        MOV     A,0xa2
        MOV     ?V0 + 0,A
//  429   HAL_EXIT_CRITICAL_SECTION(s);
        MOV     A,R0
        MOV     C,0xE0 /* A   */.7
        MOV     C,0xE0 /* A   */.7
        MOV     0xa8.7,C
//  430 
//  431   return (timerCapture);
        MOV     R2,?V0 + 0
        MOV     A,R1
        MOV     R3,A
        POP     ?V0 + 0
          CFI V0 SameValue
          CFI CFA_SP SP+-3
        LJMP    ?BRET
          CFI EndBlock cfiBlock10
        REQUIRE _A_IEN0
        REQUIRE T2MSEL
        REQUIRE T2M1
        REQUIRE T2M0
//  432 }
//  433 
//  434 
//  435 /**************************************************************************************************
//  436  * @fn          macMcuOverflowCount
//  437  *
//  438  * @brief       Returns the value of the overflow counter which is a special hardware feature.
//  439  *              The overflow count actually is 24 bits of information.
//  440  *
//  441  * @param       none
//  442  *
//  443  * @return      value of overflow counter
//  444  **************************************************************************************************
//  445  */

        RSEG BANKED_CODE:CODE:NOROOT(0)
//  446 MAC_INTERNAL_API uint32 macMcuOverflowCount(void)
macMcuOverflowCount:
          CFI Block cfiBlock11 Using cfiCommon0
          CFI Function macMcuOverflowCount
        CODE
//  447 {
        PUSH    DPL
          CFI DPL0 Frame(CFA_SP, 4)
          CFI CFA_SP SP+-4
        PUSH    DPH
          CFI DPH0 Frame(CFA_SP, 5)
          CFI CFA_SP SP+-5
        ; Saved register size: 2
        ; Auto size: 4
        MOV     A,#-0x4
        LCALL   ?ALLOC_XSTACK8
          CFI CFA_XSP16 add(XSP16, 4)
//  448   uint32         overflowCount;
//  449   halIntState_t  s;
//  450 
//  451   /* for efficiency, the 32-bit value is encoded using endian abstracted indexing */
//  452 
//  453   HAL_ENTER_CRITICAL_SECTION(s);
        MOV     A,0xa8
        MOV     R0,A
        CLR     0xa8.7
//  454 
//  455   /* This T2 access macro allows accessing both T2MOVFx and T2Mx */
//  456   MAC_MCU_T2_ACCESS_OVF_COUNT_VALUE();
        MOV     0xc3,#0x0
//  457 
//  458   /* Latch the entire T2MOVFx first by reading T2M0. */
//  459   T2M0;
        MOV     A,0xa2
//  460   ((uint8 *)&overflowCount)[UINT32_NDX0] = T2MOVF0;
        LJMP    ?Subroutine0 & 0xFFFF
          CFI EndBlock cfiBlock11
        REQUIRE _A_IEN0
        REQUIRE T2MSEL
        REQUIRE T2M0
        REQUIRE T2MOVF0
        REQUIRE T2MOVF1
        REQUIRE T2MOVF2
//  461   ((uint8 *)&overflowCount)[UINT32_NDX1] = T2MOVF1;
//  462   ((uint8 *)&overflowCount)[UINT32_NDX2] = T2MOVF2;
//  463   ((uint8 *)&overflowCount)[UINT32_NDX3] = 0;
//  464   HAL_EXIT_CRITICAL_SECTION(s);
//  465 
//  466   return (overflowCount);
//  467 }
//  468 
//  469 
//  470 /**************************************************************************************************
//  471  * @fn          macMcuOverflowCapture
//  472  *
//  473  * @brief       Returns the last capture of the overflow counter.  A special hardware feature
//  474  *              captures the overflow counter when the regular hardware timer is captured.
//  475  *
//  476  * @param       none
//  477  *
//  478  * @return      last capture of overflow count
//  479  **************************************************************************************************
//  480  */

        RSEG BANKED_CODE:CODE:NOROOT(0)
//  481 MAC_INTERNAL_API uint32 macMcuOverflowCapture(void)
macMcuOverflowCapture:
          CFI Block cfiBlock12 Using cfiCommon0
          CFI Function macMcuOverflowCapture
        CODE
//  482 {
        PUSH    DPL
          CFI DPL0 Frame(CFA_SP, 4)
          CFI CFA_SP SP+-4
        PUSH    DPH
          CFI DPH0 Frame(CFA_SP, 5)
          CFI CFA_SP SP+-5
        ; Saved register size: 2
        ; Auto size: 4
        MOV     A,#-0x4
        LCALL   ?ALLOC_XSTACK8
          CFI CFA_XSP16 add(XSP16, 4)
//  483   uint32         overflowCapture;
//  484   halIntState_t  s;
//  485 
//  486   /* for efficiency, the 32-bit value is encoded using endian abstracted indexing */
//  487   HAL_ENTER_CRITICAL_SECTION(s);
        MOV     A,0xa8
        MOV     R0,A
        CLR     0xa8.7
//  488   MAC_MCU_T2_ACCESS_OVF_CAPTURE_VALUE();
        MOV     0xc3,#0x10
//  489   ((uint8 *)&overflowCapture)[UINT32_NDX0] = T2MOVF0;
        LJMP    ?Subroutine0 & 0xFFFF
          CFI EndBlock cfiBlock12
        REQUIRE _A_IEN0
        REQUIRE T2MSEL
        REQUIRE T2MOVF0
        REQUIRE T2MOVF1
        REQUIRE T2MOVF2
//  490   ((uint8 *)&overflowCapture)[UINT32_NDX1] = T2MOVF1;
//  491   ((uint8 *)&overflowCapture)[UINT32_NDX2] = T2MOVF2;
//  492   ((uint8 *)&overflowCapture)[UINT32_NDX3] = 0;
//  493   HAL_EXIT_CRITICAL_SECTION(s);
//  494 
//  495   return (overflowCapture);
//  496 }
//  497 
//  498 
//  499 /**************************************************************************************************
//  500  * @fn          macMcuOverflowSetCount
//  501  *
//  502  * @brief       Sets the value of the hardware overflow counter.
//  503  *
//  504  * @param       count - new overflow count value
//  505  *
//  506  * @return      none
//  507  **************************************************************************************************
//  508  */

        RSEG BANKED_CODE:CODE:NOROOT(0)
//  509 MAC_INTERNAL_API void macMcuOverflowSetCount(uint32 count)
macMcuOverflowSetCount:
          CFI Block cfiBlock13 Using cfiCommon0
          CFI Function macMcuOverflowSetCount
        CODE
//  510 {
        FUNCALL macMcuOverflowSetCount, halAssertHandler
        LOCFRAME ISTACK, 0, STACK
        LOCFRAME PSTACK, 0, STACK
        LOCFRAME XSTACK, 16, STACK
        LOCFRAME IOVERLAY, 0, STATIC
        LOCFRAME DOVERLAY, 0, STATIC
        ARGFRAME ISTACK, 0, STACK
        ARGFRAME PSTACK, 0, STACK
        ARGFRAME XSTACK, 16, STACK
        ARGFRAME IOVERLAY, 0, STATIC
        ARGFRAME DOVERLAY, 0, STATIC
        FUNCALL macMcuOverflowSetCount, macMcuOverflowCount
        LOCFRAME ISTACK, 2, STACK
        LOCFRAME PSTACK, 0, STACK
        LOCFRAME XSTACK, 16, STACK
        LOCFRAME IOVERLAY, 0, STATIC
        LOCFRAME DOVERLAY, 0, STATIC
        ARGFRAME ISTACK, 2, STACK
        ARGFRAME PSTACK, 0, STACK
        ARGFRAME XSTACK, 16, STACK
        ARGFRAME IOVERLAY, 0, STATIC
        ARGFRAME DOVERLAY, 0, STATIC
        MOV     A,#-0xc
        LCALL   ?BANKED_ENTER_XDATA
          CFI DPH0 load(1, XDATA, add(CFA_XSP16, literal(-1)))
          CFI DPL0 load(1, XDATA, add(CFA_XSP16, literal(-2)))
          CFI ?BRET_EXT load(1, XDATA, add(CFA_XSP16, literal(-3)))
          CFI ?RET_HIGH load(1, XDATA, add(CFA_XSP16, literal(-4)))
          CFI ?RET_LOW load(1, XDATA, add(CFA_XSP16, literal(-5)))
          CFI R7 load(1, XDATA, add(CFA_XSP16, literal(-6)))
          CFI V3 load(1, XDATA, add(CFA_XSP16, literal(-7)))
          CFI V2 load(1, XDATA, add(CFA_XSP16, literal(-8)))
          CFI V1 load(1, XDATA, add(CFA_XSP16, literal(-9)))
          CFI V0 load(1, XDATA, add(CFA_XSP16, literal(-10)))
          CFI VB load(1, XDATA, add(CFA_XSP16, literal(-11)))
          CFI R6 load(1, XDATA, add(CFA_XSP16, literal(-12)))
          CFI CFA_SP SP+0
          CFI CFA_XSP16 add(XSP16, 12)
        ; Saved register size: 12
        ; Auto size: 4
        MOV     A,#-0x4
        LCALL   ?ALLOC_XSTACK8
          CFI CFA_XSP16 add(XSP16, 16)
        LCALL   ?Subroutine6 & 0xFFFF
//  511   halIntState_t  s;
//  512 
//  513   MAC_ASSERT(! (count >> 24) );   /* illegal count value */
??CrossCallReturnLabel_7:
        MOV     DPL,?XSP + 0
        MOV     DPH,?XSP + 1
        MOV     R0,#?V0 + 0
        LCALL   ?L_MOV_X
        MOV     DPTR,#__Constant_ff000000
        MOV     R0,#?V0 + 0
        LCALL   ?L_AND_X
        LCALL   ?Subroutine5 & 0xFFFF
??CrossCallReturnLabel_4:
        JZ      ??macMcuOverflowSetCount_0
        ; Setup parameters for call to function halAssertHandler
        LCALL   ??halAssertHandler?relay
//  514 
//  515   /* save the current overflow count */
//  516   accumulatedOverflowCount += macMcuOverflowCount();
//  517 
//  518   /* deduct the initial count */
//  519   accumulatedOverflowCount -= count;
??macMcuOverflowSetCount_0:
        MOV     DPTR,#accumulatedOverflowCount
        PUSH    DPL
          CFI CFA_SP SP+-1
        PUSH    DPH
          CFI CFA_SP SP+-2
        ; Setup parameters for call to function macMcuOverflowCount
        LCALL   ??macMcuOverflowCount?relay
        MOV     ?V0 + 0,R2
        MOV     ?V0 + 1,R3
        MOV     ?V0 + 2,R4
        MOV     ?V0 + 3,R5
        POP     DPH
          CFI CFA_SP SP+-1
        POP     DPL
          CFI CFA_SP SP+0
        MOV     R0,#?V0 + 0
        LCALL   ?L_ADD_X
        MOV     DPL,?XSP + 0
        MOV     DPH,?XSP + 1
        MOV     R0,#?V0 + 0
        LCALL   ?L_SUB_X
        MOV     DPTR,#accumulatedOverflowCount
        MOV     R0,#?V0 + 0
        LCALL   ?L_MOV_TO_X
//  520 
//  521   HAL_ENTER_CRITICAL_SECTION(s);
        MOV     A,0xa8
        MOV     R0,A
        CLR     0xa8.7
//  522   MAC_MCU_T2_ACCESS_OVF_COUNT_VALUE();
        MOV     0xc3,#0x0
//  523 
//  524   /* for efficiency, the 32-bit value is decoded using endian abstracted indexing */
//  525   /* T2OF2 must be written last */
//  526   T2MOVF0 = ((uint8 *)&count)[UINT32_NDX0];
        MOV     DPL,?XSP + 0
        MOV     DPH,?XSP + 1
        MOVX    A,@DPTR
        MOV     0xa4,A
//  527   T2MOVF1 = ((uint8 *)&count)[UINT32_NDX1];
        MOV     A,#0x1
        LCALL   ?XSTACK_DISP0_8
        MOVX    A,@DPTR
        MOV     0xa5,A
//  528   T2MOVF2 = ((uint8 *)&count)[UINT32_NDX2];
        MOV     A,#0x2
        LCALL   ?XSTACK_DISP0_8
        MOVX    A,@DPTR
        MOV     0xa6,A
//  529   HAL_EXIT_CRITICAL_SECTION(s);
        MOV     A,R0
        MOV     C,0xE0 /* A   */.7
        MOV     C,0xE0 /* A   */.7
        LJMP    ??Subroutine8_0 & 0xFFFF
          CFI EndBlock cfiBlock13
        REQUIRE _A_IEN0
        REQUIRE T2MSEL
        REQUIRE T2MOVF0
        REQUIRE T2MOVF1
        REQUIRE T2MOVF2
//  530 }
//  531 
//  532 
//  533 /**************************************************************************************************
//  534  * @fn          macMcuOverflowSetCompare
//  535  *
//  536  * @brief       Set overflow count compare value.  An interrupt is triggered when the overflow
//  537  *              count equals this compare value.
//  538  *
//  539  * @param       count - overflow count compare value
//  540  *
//  541  * @return      none
//  542  **************************************************************************************************
//  543  */

        RSEG BANKED_CODE:CODE:NOROOT(0)
//  544 MAC_INTERNAL_API void macMcuOverflowSetCompare(uint32 count)
macMcuOverflowSetCompare:
          CFI Block cfiBlock14 Using cfiCommon0
          CFI Function macMcuOverflowSetCompare
        CODE
//  545 {
        FUNCALL macMcuOverflowSetCompare, halAssertHandler
        LOCFRAME ISTACK, 0, STACK
        LOCFRAME PSTACK, 0, STACK
        LOCFRAME XSTACK, 16, STACK
        LOCFRAME IOVERLAY, 0, STATIC
        LOCFRAME DOVERLAY, 0, STATIC
        ARGFRAME ISTACK, 0, STACK
        ARGFRAME PSTACK, 0, STACK
        ARGFRAME XSTACK, 16, STACK
        ARGFRAME IOVERLAY, 0, STATIC
        ARGFRAME DOVERLAY, 0, STATIC
        MOV     A,#-0xc
        LCALL   ?BANKED_ENTER_XDATA
          CFI DPH0 load(1, XDATA, add(CFA_XSP16, literal(-1)))
          CFI DPL0 load(1, XDATA, add(CFA_XSP16, literal(-2)))
          CFI ?BRET_EXT load(1, XDATA, add(CFA_XSP16, literal(-3)))
          CFI ?RET_HIGH load(1, XDATA, add(CFA_XSP16, literal(-4)))
          CFI ?RET_LOW load(1, XDATA, add(CFA_XSP16, literal(-5)))
          CFI R7 load(1, XDATA, add(CFA_XSP16, literal(-6)))
          CFI V3 load(1, XDATA, add(CFA_XSP16, literal(-7)))
          CFI V2 load(1, XDATA, add(CFA_XSP16, literal(-8)))
          CFI V1 load(1, XDATA, add(CFA_XSP16, literal(-9)))
          CFI V0 load(1, XDATA, add(CFA_XSP16, literal(-10)))
          CFI VB load(1, XDATA, add(CFA_XSP16, literal(-11)))
          CFI R6 load(1, XDATA, add(CFA_XSP16, literal(-12)))
          CFI CFA_SP SP+0
          CFI CFA_XSP16 add(XSP16, 12)
        ; Saved register size: 12
        ; Auto size: 4
        MOV     A,#-0x4
        LCALL   ?ALLOC_XSTACK8
          CFI CFA_XSP16 add(XSP16, 16)
        LCALL   ?Subroutine3 & 0xFFFF
//  546   halIntState_t  s;
//  547   uint8 enableCompareInt = 0;
//  548 
//  549   MAC_ASSERT( !(count >> 24) );   /* illegal count value */
??CrossCallReturnLabel_0:
        LCALL   ?L_MOV_X
        MOV     DPTR,#__Constant_ff000000
        MOV     R0,#?V0 + 0
        LCALL   ?L_AND_X
        LCALL   ?Subroutine5 & 0xFFFF
??CrossCallReturnLabel_5:
        JZ      ??macMcuOverflowSetCompare_0
        ; Setup parameters for call to function halAssertHandler
        LCALL   ??halAssertHandler?relay
//  550 
//  551   HAL_ENTER_CRITICAL_SECTION(s);
??macMcuOverflowSetCompare_0:
        MOV     C,0xa8.7
        CLR     A
        RLC     A
        MOV     R0,A
        CLR     0xa8.7
//  552 
//  553   /*  Disable overflow compare interrupts. */
//  554   if (T2IRQM & TIMER2_OVF_COMPARE1M)
        MOV     A,0xa7
        MOV     C,0xE0 /* A   */.4
        JNC     ??macMcuOverflowSetCompare_1
//  555   {
//  556     enableCompareInt = 1;
        INC     R6
//  557     T2IRQM &= ~TIMER2_OVF_COMPARE1M;
        ANL     0xa7,#0xef
//  558   }
//  559 
//  560   MAC_MCU_T2_ACCESS_OVF_CMP1_VALUE();
??macMcuOverflowSetCompare_1:
        MOV     0xc3,#0x30
//  561 
//  562   /* for efficiency, the 32-bit value is decoded using endian abstracted indexing */
//  563   T2MOVF0 = ((uint8 *)&count)[UINT32_NDX0];
        MOV     DPL,?XSP + 0
        MOV     DPH,?XSP + 1
        MOVX    A,@DPTR
        MOV     0xa4,A
//  564   T2MOVF1 = ((uint8 *)&count)[UINT32_NDX1];
        MOV     A,#0x1
        LCALL   ?XSTACK_DISP0_8
        MOVX    A,@DPTR
        MOV     0xa5,A
//  565   T2MOVF2 = ((uint8 *)&count)[UINT32_NDX2];
        MOV     A,#0x2
        LCALL   ?XSTACK_DISP0_8
        MOVX    A,@DPTR
        MOV     0xa6,A
//  566 
//  567   /*
//  568    *  Now that new compare value is stored, clear the interrupt flag.  This is important just
//  569    *  in case a false match was generated as the multi-byte compare value was written.
//  570    */
//  571   T2IRQF = (TIMER2_OVF_COMPARE1F ^ 0xFF);
        MOV     0xa1,#-0x11
//  572 
//  573   /* re-enable overflow compare interrupts if they were previously enabled */
//  574   if (enableCompareInt)
        MOV     A,R6
        MOV     C,0xE0 /* A   */.0
        JNC     ??macMcuOverflowSetCompare_2
//  575   {
//  576     T2IRQM |= TIMER2_OVF_COMPARE1M;
        ORL     0xa7,#0x10
//  577   }
//  578 
//  579   HAL_EXIT_CRITICAL_SECTION(s);
??macMcuOverflowSetCompare_2:
        MOV     A,R0
        LJMP    ?Subroutine1 & 0xFFFF
          CFI EndBlock cfiBlock14
        REQUIRE _A_IEN0
        REQUIRE T2IRQM
        REQUIRE T2MSEL
        REQUIRE T2MOVF0
        REQUIRE T2MOVF1
        REQUIRE T2MOVF2
        REQUIRE T2IRQF
//  580 }

        RSEG BANKED_CODE:CODE:NOROOT(0)
?Subroutine5:
          CFI Block cfiCond15 Using cfiCommon0
          CFI Function macMcuOverflowSetCount
          CFI Conditional ??CrossCallReturnLabel_4
          CFI R6 load(1, XDATA, add(CFA_XSP16, literal(-12)))
          CFI VB load(1, XDATA, add(CFA_XSP16, literal(-11)))
          CFI V0 load(1, XDATA, add(CFA_XSP16, literal(-10)))
          CFI V1 load(1, XDATA, add(CFA_XSP16, literal(-9)))
          CFI V2 load(1, XDATA, add(CFA_XSP16, literal(-8)))
          CFI V3 load(1, XDATA, add(CFA_XSP16, literal(-7)))
          CFI R7 load(1, XDATA, add(CFA_XSP16, literal(-6)))
          CFI ?RET_LOW load(1, XDATA, add(CFA_XSP16, literal(-5)))
          CFI ?RET_HIGH load(1, XDATA, add(CFA_XSP16, literal(-4)))
          CFI ?BRET_EXT load(1, XDATA, add(CFA_XSP16, literal(-3)))
          CFI DPL0 load(1, XDATA, add(CFA_XSP16, literal(-2)))
          CFI DPH0 load(1, XDATA, add(CFA_XSP16, literal(-1)))
          CFI CFA_SP SP+0
          CFI CFA_XSP16 add(XSP16, 16)
          CFI Block cfiCond16 Using cfiCommon0
          CFI (cfiCond16) Function macMcuOverflowSetCompare
          CFI (cfiCond16) Conditional ??CrossCallReturnLabel_5
          CFI (cfiCond16) R6 load(1, XDATA, add(CFA_XSP16, literal(-12)))
          CFI (cfiCond16) VB load(1, XDATA, add(CFA_XSP16, literal(-11)))
          CFI (cfiCond16) V0 load(1, XDATA, add(CFA_XSP16, literal(-10)))
          CFI (cfiCond16) V1 load(1, XDATA, add(CFA_XSP16, literal(-9)))
          CFI (cfiCond16) V2 load(1, XDATA, add(CFA_XSP16, literal(-8)))
          CFI (cfiCond16) V3 load(1, XDATA, add(CFA_XSP16, literal(-7)))
          CFI (cfiCond16) R7 load(1, XDATA, add(CFA_XSP16, literal(-6)))
          CFI (cfiCond16) ?RET_LOW load(1, XDATA, add(CFA_XSP16, literal(-5)))
          CFI (cfiCond16) ?RET_HIGH load(1, XDATA, add(CFA_XSP16, literal(-4)))
          CFI (cfiCond16) ?BRET_EXT load(1, XDATA, add(CFA_XSP16, literal(-3)))
          CFI (cfiCond16) DPL0 load(1, XDATA, add(CFA_XSP16, literal(-2)))
          CFI (cfiCond16) DPH0 load(1, XDATA, add(CFA_XSP16, literal(-1)))
          CFI (cfiCond16) CFA_SP SP+0
          CFI (cfiCond16) CFA_XSP16 add(XSP16, 16)
          CFI Block cfiCond17 Using cfiCommon0
          CFI (cfiCond17) Function macMcuOverflowSetPeriod
          CFI (cfiCond17) Conditional ??CrossCallReturnLabel_6
          CFI (cfiCond17) R6 load(1, XDATA, add(CFA_XSP16, literal(-12)))
          CFI (cfiCond17) VB load(1, XDATA, add(CFA_XSP16, literal(-11)))
          CFI (cfiCond17) V0 load(1, XDATA, add(CFA_XSP16, literal(-10)))
          CFI (cfiCond17) V1 load(1, XDATA, add(CFA_XSP16, literal(-9)))
          CFI (cfiCond17) V2 load(1, XDATA, add(CFA_XSP16, literal(-8)))
          CFI (cfiCond17) V3 load(1, XDATA, add(CFA_XSP16, literal(-7)))
          CFI (cfiCond17) R7 load(1, XDATA, add(CFA_XSP16, literal(-6)))
          CFI (cfiCond17) ?RET_LOW load(1, XDATA, add(CFA_XSP16, literal(-5)))
          CFI (cfiCond17) ?RET_HIGH load(1, XDATA, add(CFA_XSP16, literal(-4)))
          CFI (cfiCond17) ?BRET_EXT load(1, XDATA, add(CFA_XSP16, literal(-3)))
          CFI (cfiCond17) DPL0 load(1, XDATA, add(CFA_XSP16, literal(-2)))
          CFI (cfiCond17) DPH0 load(1, XDATA, add(CFA_XSP16, literal(-1)))
          CFI (cfiCond17) CFA_SP SP+0
          CFI (cfiCond17) CFA_XSP16 add(XSP16, 16)
          CFI Block cfiPicker18 Using cfiCommon1
          CFI (cfiPicker18) NoFunction
          CFI (cfiPicker18) Picker
        MOV     A,?V0 + 0
        ORL     A,?V0 + 1
        ORL     A,?V0 + 2
        ORL     A,?V0 + 3
        RET
          CFI EndBlock cfiCond15
          CFI EndBlock cfiCond16
          CFI EndBlock cfiCond17
          CFI EndBlock cfiPicker18
//  581 
//  582 
//  583 /**************************************************************************************************
//  584  * @fn          macMcuOverflowSetPeriod
//  585  *
//  586  * @brief       Set overflow count period value.  An interrupt is triggered when the overflow
//  587  *              count equals this period value.
//  588  *
//  589  * @param       count - overflow count compare value
//  590  *
//  591  * @return      none
//  592  **************************************************************************************************
//  593  */

        RSEG BANKED_CODE:CODE:NOROOT(0)
//  594 MAC_INTERNAL_API void macMcuOverflowSetPeriod(uint32 count)
macMcuOverflowSetPeriod:
          CFI Block cfiBlock19 Using cfiCommon0
          CFI Function macMcuOverflowSetPeriod
        CODE
//  595 {
        FUNCALL macMcuOverflowSetPeriod, halAssertHandler
        LOCFRAME ISTACK, 0, STACK
        LOCFRAME PSTACK, 0, STACK
        LOCFRAME XSTACK, 16, STACK
        LOCFRAME IOVERLAY, 0, STATIC
        LOCFRAME DOVERLAY, 0, STATIC
        ARGFRAME ISTACK, 0, STACK
        ARGFRAME PSTACK, 0, STACK
        ARGFRAME XSTACK, 16, STACK
        ARGFRAME IOVERLAY, 0, STATIC
        ARGFRAME DOVERLAY, 0, STATIC
        FUNCALL macMcuOverflowSetPeriod, halSetMaxSleepLoopTime
        LOCFRAME ISTACK, 0, STACK
        LOCFRAME PSTACK, 0, STACK
        LOCFRAME XSTACK, 16, STACK
        LOCFRAME IOVERLAY, 0, STATIC
        LOCFRAME DOVERLAY, 0, STATIC
        ARGFRAME ISTACK, 0, STACK
        ARGFRAME PSTACK, 0, STACK
        ARGFRAME XSTACK, 16, STACK
        ARGFRAME IOVERLAY, 0, STATIC
        ARGFRAME DOVERLAY, 0, STATIC
        MOV     A,#-0xc
        LCALL   ?BANKED_ENTER_XDATA
          CFI DPH0 load(1, XDATA, add(CFA_XSP16, literal(-1)))
          CFI DPL0 load(1, XDATA, add(CFA_XSP16, literal(-2)))
          CFI ?BRET_EXT load(1, XDATA, add(CFA_XSP16, literal(-3)))
          CFI ?RET_HIGH load(1, XDATA, add(CFA_XSP16, literal(-4)))
          CFI ?RET_LOW load(1, XDATA, add(CFA_XSP16, literal(-5)))
          CFI R7 load(1, XDATA, add(CFA_XSP16, literal(-6)))
          CFI V3 load(1, XDATA, add(CFA_XSP16, literal(-7)))
          CFI V2 load(1, XDATA, add(CFA_XSP16, literal(-8)))
          CFI V1 load(1, XDATA, add(CFA_XSP16, literal(-9)))
          CFI V0 load(1, XDATA, add(CFA_XSP16, literal(-10)))
          CFI VB load(1, XDATA, add(CFA_XSP16, literal(-11)))
          CFI R6 load(1, XDATA, add(CFA_XSP16, literal(-12)))
          CFI CFA_SP SP+0
          CFI CFA_XSP16 add(XSP16, 12)
        ; Saved register size: 12
        ; Auto size: 4
        MOV     A,#-0x4
        LCALL   ?ALLOC_XSTACK8
          CFI CFA_XSP16 add(XSP16, 16)
        LCALL   ?Subroutine3 & 0xFFFF
//  596   halIntState_t  s;
//  597   uint8 enableCompareInt = 0;
//  598 
//  599   MAC_ASSERT( !(count >> 24) );   /* illegal count value */
??CrossCallReturnLabel_1:
        LCALL   ?L_MOV_X
        MOV     DPTR,#__Constant_ff000000
        MOV     R0,#?V0 + 0
        LCALL   ?L_AND_X
        LCALL   ?Subroutine5 & 0xFFFF
??CrossCallReturnLabel_6:
        JZ      ??macMcuOverflowSetPeriod_0
        ; Setup parameters for call to function halAssertHandler
        LCALL   ??halAssertHandler?relay
//  600 
//  601   HAL_ENTER_CRITICAL_SECTION(s);
??macMcuOverflowSetPeriod_0:
        MOV     C,0xa8.7
        CLR     A
        RLC     A
        MOV     R7,A
        CLR     0xa8.7
//  602 
//  603   /*  Disable overflow compare interrupts. */
//  604   if (T2IRQM & TIMER2_OVF_PERM)
        MOV     A,0xa7
        MOV     C,0xE0 /* A   */.3
        JNC     ??macMcuOverflowSetPeriod_1
//  605   {
//  606     enableCompareInt = 1;
        INC     R6
//  607     T2IRQM &= ~TIMER2_OVF_PERM;
        ANL     0xa7,#0xf7
//  608   }
//  609 
//  610   MAC_MCU_T2_ACCESS_OVF_PERIOD_VALUE();
??macMcuOverflowSetPeriod_1:
        MOV     0xc3,#0x20
//  611 
//  612   /* for efficiency, the 32-bit value is decoded using endian abstracted indexing */
//  613   T2MOVF0 = ((uint8 *)&count)[UINT32_NDX0];
        MOV     DPL,?XSP + 0
        MOV     DPH,?XSP + 1
        MOVX    A,@DPTR
        MOV     0xa4,A
//  614   T2MOVF1 = ((uint8 *)&count)[UINT32_NDX1];
        MOV     A,#0x1
        LCALL   ?XSTACK_DISP0_8
        MOVX    A,@DPTR
        MOV     0xa5,A
//  615   T2MOVF2 = ((uint8 *)&count)[UINT32_NDX2];
        MOV     A,#0x2
        LCALL   ?XSTACK_DISP0_8
        MOVX    A,@DPTR
        MOV     0xa6,A
//  616 
//  617   /*
//  618    *  Now that new compare value is stored, clear the interrupt flag.  This is important just
//  619    *  in case a false match was generated as the multi-byte compare value was written.
//  620    */
//  621   T2IRQF &= ~TIMER2_OVF_PERF;
        ANL     0xa1,#0xf7
//  622 
//  623   /* re-enable overflow compare interrupts if they were previously enabled */
//  624   if (enableCompareInt)
        MOV     A,R6
        MOV     C,0xE0 /* A   */.0
        JNC     ??macMcuOverflowSetPeriod_2
//  625   {
//  626     T2IRQM |= TIMER2_OVF_PERM;
        ORL     0xa7,#0x8
//  627   }
//  628   halSetMaxSleepLoopTime(count);
??macMcuOverflowSetPeriod_2:
        ; Setup parameters for call to function halSetMaxSleepLoopTime
        MOV     DPL,?XSP + 0
        MOV     DPH,?XSP + 1
        LCALL   ?XLOAD_R2345
        LCALL   ??halSetMaxSleepLoopTime?relay
//  629   HAL_EXIT_CRITICAL_SECTION(s);
        MOV     A,R7
        LJMP    ?Subroutine1 & 0xFFFF
          CFI EndBlock cfiBlock19
        REQUIRE _A_IEN0
        REQUIRE T2IRQM
        REQUIRE T2MSEL
        REQUIRE T2MOVF0
        REQUIRE T2MOVF1
        REQUIRE T2MOVF2
        REQUIRE T2IRQF
//  630 }

        RSEG BANKED_CODE:CODE:NOROOT(0)
?Subroutine3:
          CFI Block cfiCond20 Using cfiCommon0
          CFI Function macMcuOverflowSetCompare
          CFI Conditional ??CrossCallReturnLabel_0
          CFI R6 load(1, XDATA, add(CFA_XSP16, literal(-12)))
          CFI VB load(1, XDATA, add(CFA_XSP16, literal(-11)))
          CFI V0 load(1, XDATA, add(CFA_XSP16, literal(-10)))
          CFI V1 load(1, XDATA, add(CFA_XSP16, literal(-9)))
          CFI V2 load(1, XDATA, add(CFA_XSP16, literal(-8)))
          CFI V3 load(1, XDATA, add(CFA_XSP16, literal(-7)))
          CFI R7 load(1, XDATA, add(CFA_XSP16, literal(-6)))
          CFI ?RET_LOW load(1, XDATA, add(CFA_XSP16, literal(-5)))
          CFI ?RET_HIGH load(1, XDATA, add(CFA_XSP16, literal(-4)))
          CFI ?BRET_EXT load(1, XDATA, add(CFA_XSP16, literal(-3)))
          CFI DPL0 load(1, XDATA, add(CFA_XSP16, literal(-2)))
          CFI DPH0 load(1, XDATA, add(CFA_XSP16, literal(-1)))
          CFI CFA_SP SP+0
          CFI CFA_XSP16 add(XSP16, 16)
          CFI Block cfiCond21 Using cfiCommon0
          CFI (cfiCond21) Function macMcuOverflowSetPeriod
          CFI (cfiCond21) Conditional ??CrossCallReturnLabel_1
          CFI (cfiCond21) R6 load(1, XDATA, add(CFA_XSP16, literal(-12)))
          CFI (cfiCond21) VB load(1, XDATA, add(CFA_XSP16, literal(-11)))
          CFI (cfiCond21) V0 load(1, XDATA, add(CFA_XSP16, literal(-10)))
          CFI (cfiCond21) V1 load(1, XDATA, add(CFA_XSP16, literal(-9)))
          CFI (cfiCond21) V2 load(1, XDATA, add(CFA_XSP16, literal(-8)))
          CFI (cfiCond21) V3 load(1, XDATA, add(CFA_XSP16, literal(-7)))
          CFI (cfiCond21) R7 load(1, XDATA, add(CFA_XSP16, literal(-6)))
          CFI (cfiCond21) ?RET_LOW load(1, XDATA, add(CFA_XSP16, literal(-5)))
          CFI (cfiCond21) ?RET_HIGH load(1, XDATA, add(CFA_XSP16, literal(-4)))
          CFI (cfiCond21) ?BRET_EXT load(1, XDATA, add(CFA_XSP16, literal(-3)))
          CFI (cfiCond21) DPL0 load(1, XDATA, add(CFA_XSP16, literal(-2)))
          CFI (cfiCond21) DPH0 load(1, XDATA, add(CFA_XSP16, literal(-1)))
          CFI (cfiCond21) CFA_SP SP+0
          CFI (cfiCond21) CFA_XSP16 add(XSP16, 16)
          CFI Block cfiPicker22 Using cfiCommon1
          CFI (cfiPicker22) NoFunction
          CFI (cfiPicker22) Picker
        LCALL   ?Subroutine6 & 0xFFFF
??CrossCallReturnLabel_8:
        MOV     R6,#0x0
        MOV     DPL,?XSP + 0
        MOV     DPH,?XSP + 1
        MOV     R0,#?V0 + 0
        RET
          CFI EndBlock cfiCond20
          CFI EndBlock cfiCond21
          CFI EndBlock cfiPicker22

        RSEG BANKED_CODE:CODE:NOROOT(0)
?Subroutine6:
          CFI Block cfiCond23 Using cfiCommon0
          CFI Function macMcuOverflowSetCount
          CFI Conditional ??CrossCallReturnLabel_7
          CFI R6 load(1, XDATA, add(CFA_XSP16, literal(-12)))
          CFI VB load(1, XDATA, add(CFA_XSP16, literal(-11)))
          CFI V0 load(1, XDATA, add(CFA_XSP16, literal(-10)))
          CFI V1 load(1, XDATA, add(CFA_XSP16, literal(-9)))
          CFI V2 load(1, XDATA, add(CFA_XSP16, literal(-8)))
          CFI V3 load(1, XDATA, add(CFA_XSP16, literal(-7)))
          CFI R7 load(1, XDATA, add(CFA_XSP16, literal(-6)))
          CFI ?RET_LOW load(1, XDATA, add(CFA_XSP16, literal(-5)))
          CFI ?RET_HIGH load(1, XDATA, add(CFA_XSP16, literal(-4)))
          CFI ?BRET_EXT load(1, XDATA, add(CFA_XSP16, literal(-3)))
          CFI DPL0 load(1, XDATA, add(CFA_XSP16, literal(-2)))
          CFI DPH0 load(1, XDATA, add(CFA_XSP16, literal(-1)))
          CFI CFA_SP SP+0
          CFI CFA_XSP16 add(XSP16, 16)
          CFI Block cfiCond24 Using cfiCommon0
          CFI (cfiCond24) Function macMcuOverflowSetCompare
          CFI (cfiCond24) Conditional ??CrossCallReturnLabel_8, ??CrossCallReturnLabel_0
          CFI (cfiCond24) R6 load(1, XDATA, add(CFA_XSP16, literal(-12)))
          CFI (cfiCond24) VB load(1, XDATA, add(CFA_XSP16, literal(-11)))
          CFI (cfiCond24) V0 load(1, XDATA, add(CFA_XSP16, literal(-10)))
          CFI (cfiCond24) V1 load(1, XDATA, add(CFA_XSP16, literal(-9)))
          CFI (cfiCond24) V2 load(1, XDATA, add(CFA_XSP16, literal(-8)))
          CFI (cfiCond24) V3 load(1, XDATA, add(CFA_XSP16, literal(-7)))
          CFI (cfiCond24) R7 load(1, XDATA, add(CFA_XSP16, literal(-6)))
          CFI (cfiCond24) ?RET_LOW load(1, XDATA, add(CFA_XSP16, literal(-5)))
          CFI (cfiCond24) ?RET_HIGH load(1, XDATA, add(CFA_XSP16, literal(-4)))
          CFI (cfiCond24) ?BRET_EXT load(1, XDATA, add(CFA_XSP16, literal(-3)))
          CFI (cfiCond24) DPL0 load(1, XDATA, add(CFA_XSP16, literal(-2)))
          CFI (cfiCond24) DPH0 load(1, XDATA, add(CFA_XSP16, literal(-1)))
          CFI (cfiCond24) CFA_SP SP+0
          CFI (cfiCond24) CFA_XSP16 add(XSP16, 16)
          CFI Block cfiCond25 Using cfiCommon0
          CFI (cfiCond25) Function macMcuOverflowSetPeriod
          CFI (cfiCond25) Conditional ??CrossCallReturnLabel_8, ??CrossCallReturnLabel_1
          CFI (cfiCond25) R6 load(1, XDATA, add(CFA_XSP16, literal(-12)))
          CFI (cfiCond25) VB load(1, XDATA, add(CFA_XSP16, literal(-11)))
          CFI (cfiCond25) V0 load(1, XDATA, add(CFA_XSP16, literal(-10)))
          CFI (cfiCond25) V1 load(1, XDATA, add(CFA_XSP16, literal(-9)))
          CFI (cfiCond25) V2 load(1, XDATA, add(CFA_XSP16, literal(-8)))
          CFI (cfiCond25) V3 load(1, XDATA, add(CFA_XSP16, literal(-7)))
          CFI (cfiCond25) R7 load(1, XDATA, add(CFA_XSP16, literal(-6)))
          CFI (cfiCond25) ?RET_LOW load(1, XDATA, add(CFA_XSP16, literal(-5)))
          CFI (cfiCond25) ?RET_HIGH load(1, XDATA, add(CFA_XSP16, literal(-4)))
          CFI (cfiCond25) ?BRET_EXT load(1, XDATA, add(CFA_XSP16, literal(-3)))
          CFI (cfiCond25) DPL0 load(1, XDATA, add(CFA_XSP16, literal(-2)))
          CFI (cfiCond25) DPH0 load(1, XDATA, add(CFA_XSP16, literal(-1)))
          CFI (cfiCond25) CFA_SP SP+0
          CFI (cfiCond25) CFA_XSP16 add(XSP16, 16)
          CFI Block cfiPicker26 Using cfiCommon1
          CFI (cfiPicker26) NoFunction
          CFI (cfiPicker26) Picker
        MOV     DPL,?XSP + 0
        MOV     DPH,?XSP + 1
        MOV     A,R2
        MOVX    @DPTR,A
        INC     DPTR
        MOV     A,R3
        MOVX    @DPTR,A
        INC     DPTR
        MOV     A,R4
        MOVX    @DPTR,A
        INC     DPTR
        MOV     A,R5
        MOVX    @DPTR,A
        RET
          CFI EndBlock cfiCond23
          CFI EndBlock cfiCond24
          CFI EndBlock cfiCond25
          CFI EndBlock cfiPicker26
//  631 
//  632 
//  633 /**************************************************************************************************
//  634  * @fn          macMcuOverflowGetCompare
//  635  *
//  636  * @brief       Get overflow count compare value.
//  637  *
//  638  * @param       none
//  639  *
//  640  * @return      overflow count compare value
//  641  **************************************************************************************************
//  642  */
//  643 MAC_INTERNAL_API uint32 macMcuOverflowGetCompare(void)
//  644 {
//  645   halIntState_t  s;
//  646   uint32         compare;
//  647 
//  648   HAL_ENTER_CRITICAL_SECTION(s);
//  649 
//  650   MAC_MCU_T2_ACCESS_OVF_CMP1_VALUE();
//  651 
//  652   /* for efficiency, the 32-bit value is decoded using endian abstracted indexing */
//  653   ((uint8 *)&compare)[UINT32_NDX0] = T2MOVF0;
//  654   ((uint8 *)&compare)[UINT32_NDX1] = T2MOVF1;
//  655   ((uint8 *)&compare)[UINT32_NDX2] = T2MOVF2;
//  656   ((uint8 *)&compare)[UINT32_NDX3] = 0;
//  657 
//  658   HAL_EXIT_CRITICAL_SECTION(s);
//  659 
//  660   return(compare);
//  661 }
//  662 
//  663 
//  664 /**************************************************************************************************
//  665  * @fn          macMcuTimer2Isr
//  666  *
//  667  * @brief       Interrupt service routine for timer2, the MAC timer.
//  668  *
//  669  * @param       none
//  670  *
//  671  * @return      none
//  672  **************************************************************************************************
//  673  */

        RSEG NEAR_CODE:CODE:NOROOT(0)
//  674 HAL_ISR_FUNCTION( macMcuTimer2Isr, T2_VECTOR )
macMcuTimer2Isr:
          CFI Block cfiBlock27 Using cfiCommon1
          CFI Function macMcuTimer2Isr
        CODE
//  675 {
        FUNCALL macMcuTimer2Isr, macBackoffTimerCompareIsr
        LOCFRAME ISTACK, 0, STACK
        LOCFRAME PSTACK, 0, STACK
        LOCFRAME XSTACK, 15, STACK
        LOCFRAME IOVERLAY, 0, STATIC
        LOCFRAME DOVERLAY, 0, STATIC
        ARGFRAME ISTACK, 0, STACK
        ARGFRAME PSTACK, 0, STACK
        ARGFRAME XSTACK, 15, STACK
        ARGFRAME IOVERLAY, 0, STATIC
        ARGFRAME DOVERLAY, 0, STATIC
        FUNCALL macMcuTimer2Isr, macBackoffTimerPeriodIsr
        LOCFRAME ISTACK, 0, STACK
        LOCFRAME PSTACK, 0, STACK
        LOCFRAME XSTACK, 15, STACK
        LOCFRAME IOVERLAY, 0, STATIC
        LOCFRAME DOVERLAY, 0, STATIC
        ARGFRAME ISTACK, 0, STACK
        ARGFRAME PSTACK, 0, STACK
        ARGFRAME XSTACK, 15, STACK
        ARGFRAME IOVERLAY, 0, STATIC
        ARGFRAME DOVERLAY, 0, STATIC
        PUSH    A
          CFI A Frame(CFA_SP, 3)
          CFI CFA_SP SP+-3
        MOV     A,#-0xf
        LCALL   ?INTERRUPT_ENTER_XSP
          CFI B load(1, XDATA, add(CFA_XSP16, literal(-1)))
          CFI VB load(1, XDATA, add(CFA_XSP16, literal(-2)))
          CFI PSW load(1, XDATA, add(CFA_XSP16, literal(-3)))
          CFI DPL0 load(1, XDATA, add(CFA_XSP16, literal(-4)))
          CFI DPH0 load(1, XDATA, add(CFA_XSP16, literal(-5)))
          CFI R7 load(1, XDATA, add(CFA_XSP16, literal(-6)))
          CFI R6 load(1, XDATA, add(CFA_XSP16, literal(-7)))
          CFI R5 load(1, XDATA, add(CFA_XSP16, literal(-8)))
          CFI R4 load(1, XDATA, add(CFA_XSP16, literal(-9)))
          CFI V1 load(1, XDATA, add(CFA_XSP16, literal(-10)))
          CFI V0 load(1, XDATA, add(CFA_XSP16, literal(-11)))
          CFI R3 load(1, XDATA, add(CFA_XSP16, literal(-12)))
          CFI R2 load(1, XDATA, add(CFA_XSP16, literal(-13)))
          CFI R1 load(1, XDATA, add(CFA_XSP16, literal(-14)))
          CFI R0 load(1, XDATA, add(CFA_XSP16, literal(-15)))
          CFI CFA_XSP16 add(XSP16, 15)
        ; Saved register size: 15
        ; Auto size: 0
//  676   uint8 t2irqm;
//  677   uint8 t2irqf;
//  678 
//  679   HAL_ENTER_ISR();
        MOV     C,0xa8.7
        CLR     A
        RLC     A
        MOV     R6,A
        SETB    0xa8.7
//  680 
//  681   t2irqm = T2IRQM;
        MOV     A,0xa7
        MOV     R7,A
//  682   t2irqf = T2IRQF;
        MOV     A,0xa1
        MOV     ?V0 + 0,A
//  683 
//  684   /*------------------------------------------------------------------------------------------------
//  685    *  Overflow compare interrupt - triggers when then overflow counter is
//  686    *  equal to the overflow compare register.
//  687    */
//  688   if ((t2irqf & TIMER2_OVF_COMPARE1F) & t2irqm)
        ANL     A,R7
        MOV     ?V0 + 1,A
        MOV     A,#0x10
        ANL     A,?V0 + 1
        JZ      ??macMcuTimer2Isr_0
//  689   {
//  690 
//  691     /* call function for dealing with the timer compare interrupt */
//  692     macBackoffTimerCompareIsr();
        ; Setup parameters for call to function macBackoffTimerCompareIsr
        LCALL   ??macBackoffTimerCompareIsr?relay
//  693 
//  694     /* clear overflow compare interrupt flag */
//  695     T2IRQF = (TIMER2_OVF_COMPARE1F ^ 0xFF);
        MOV     0xa1,#-0x11
//  696   }
//  697 
//  698   /*------------------------------------------------------------------------------------------------
//  699    *  Overflow compare interrupt - triggers when then overflow counter is
//  700    *  equal to the overflow compare register.
//  701    */
//  702   if ((t2irqf & TIMER2_OVF_PERF) & t2irqm)
??macMcuTimer2Isr_0:
        MOV     A,#0x8
        ANL     A,?V0 + 1
        JZ      ??macMcuTimer2Isr_1
//  703   {
//  704 
//  705     /* call function for dealing with the timer compare interrupt */
//  706     macBackoffTimerPeriodIsr();
        ; Setup parameters for call to function macBackoffTimerPeriodIsr
        LCALL   ??macBackoffTimerPeriodIsr?relay
//  707 
//  708     /* clear overflow compare interrupt flag */
//  709     T2IRQF = (TIMER2_OVF_PERF ^ 0xFF);
        MOV     0xa1,#-0x9
        SJMP    ??macMcuTimer2Isr_2
//  710   }
//  711 
//  712   /*------------------------------------------------------------------------------------------------
//  713    *  Overflow interrupt - triggers when the hardware timer rolls over.
//  714    */
//  715   else if ((t2irqf & TIMER2_PERF) & t2irqm)
??macMcuTimer2Isr_1:
        MOV     A,?V0 + 0
        MOV     C,0xE0 /* A   */.0
        MOV     B.0,C
        MOV     A,R7
        MOV     C,0xE0 /* A   */.0
        ANL     C,B.0
        JNC     ??macMcuTimer2Isr_2
//  716   {
//  717     /* call energy detect interrupt function, this interrupt not used for any other functionality */
//  718     mcuRecordMaxRssiIsr();
        MOV     DPTR,#0x6198
        MOVX    A,@DPTR
        MOV     R0,A
        MOV     DPTR,#maxRssi
        MOVX    A,@DPTR
        CLR     C
        SUBB    A,R0
        MOV     C,0xD0 /* PSW */.2
        XRL     A,PSW
        RLC     A
        JNC     ??macMcuTimer2Isr_3
        MOV     A,R0
        MOVX    @DPTR,A
//  719 
//  720     /* clear the interrupt flag */
//  721     T2IRQF = (TIMER2_PERF ^ 0xFF);
??macMcuTimer2Isr_3:
        MOV     0xa1,#-0x2
//  722   }
//  723 
//  724   CLEAR_SLEEP_MODE();
//  725   HAL_EXIT_ISR();
??macMcuTimer2Isr_2:
        MOV     A,R6
        MOV     C,0xE0 /* A   */.0
        MOV     0xa8.7,C
//  726 }
        MOV     R7,#0x2
        LJMP    ?INTERRUPT_LEAVE_XSP
          CFI EndBlock cfiBlock27
        REQUIRE _A_IEN0
        REQUIRE T2IRQM
        REQUIRE T2IRQF
//  727 
//  728 
//  729 /**************************************************************************************************
//  730  * @fn          macMcuTimer2OverflowWorkaround
//  731  *
//  732  * @brief       For CC2530, T2 interrupt won’t be generated when the current count is greater than
//  733  *              the comparator. The interrupt is only generated when the current count is equal to
//  734  *              the comparator. When the CC2530 is waking up from sleep, there is a small window
//  735  *              that the count may be grater than the comparator, therefore, missing the interrupt.
//  736  *              This workaround will call the T2 ISR when the current T2 count is greater than the
//  737  *              comparator.
//  738  *
//  739  * @param       none
//  740  *
//  741  * @return      none
//  742  **************************************************************************************************
//  743  */

        RSEG BANKED_CODE:CODE:NOROOT(0)
//  744 void macMcuTimer2OverflowWorkaround(void)
macMcuTimer2OverflowWorkaround:
          CFI Block cfiBlock28 Using cfiCommon0
          CFI Function macMcuTimer2OverflowWorkaround
        CODE
//  745 {
        FUNCALL macMcuTimer2OverflowWorkaround, macMcuOverflowCount
        LOCFRAME ISTACK, 0, STACK
        LOCFRAME PSTACK, 0, STACK
        LOCFRAME XSTACK, 16, STACK
        LOCFRAME IOVERLAY, 0, STATIC
        LOCFRAME DOVERLAY, 0, STATIC
        ARGFRAME ISTACK, 0, STACK
        ARGFRAME PSTACK, 0, STACK
        ARGFRAME XSTACK, 16, STACK
        ARGFRAME IOVERLAY, 0, STATIC
        ARGFRAME DOVERLAY, 0, STATIC
        FUNCALL macMcuTimer2OverflowWorkaround, macBackoffTimerCompareIsr
        LOCFRAME ISTACK, 0, STACK
        LOCFRAME PSTACK, 0, STACK
        LOCFRAME XSTACK, 16, STACK
        LOCFRAME IOVERLAY, 0, STATIC
        LOCFRAME DOVERLAY, 0, STATIC
        ARGFRAME ISTACK, 0, STACK
        ARGFRAME PSTACK, 0, STACK
        ARGFRAME XSTACK, 16, STACK
        ARGFRAME IOVERLAY, 0, STATIC
        ARGFRAME DOVERLAY, 0, STATIC
        MOV     A,#-0xc
        LCALL   ?BANKED_ENTER_XDATA
          CFI DPH0 load(1, XDATA, add(CFA_XSP16, literal(-1)))
          CFI DPL0 load(1, XDATA, add(CFA_XSP16, literal(-2)))
          CFI ?BRET_EXT load(1, XDATA, add(CFA_XSP16, literal(-3)))
          CFI ?RET_HIGH load(1, XDATA, add(CFA_XSP16, literal(-4)))
          CFI ?RET_LOW load(1, XDATA, add(CFA_XSP16, literal(-5)))
          CFI R7 load(1, XDATA, add(CFA_XSP16, literal(-6)))
          CFI V3 load(1, XDATA, add(CFA_XSP16, literal(-7)))
          CFI V2 load(1, XDATA, add(CFA_XSP16, literal(-8)))
          CFI V1 load(1, XDATA, add(CFA_XSP16, literal(-9)))
          CFI V0 load(1, XDATA, add(CFA_XSP16, literal(-10)))
          CFI VB load(1, XDATA, add(CFA_XSP16, literal(-11)))
          CFI R6 load(1, XDATA, add(CFA_XSP16, literal(-12)))
          CFI CFA_SP SP+0
          CFI CFA_XSP16 add(XSP16, 12)
        ; Saved register size: 12
        ; Auto size: 4
        MOV     A,#-0x4
        LCALL   ?ALLOC_XSTACK8
          CFI CFA_XSP16 add(XSP16, 16)
//  746   if (T2IRQM & TIMER2_OVF_COMPARE1F)
        MOV     A,0xa7
        MOV     C,0xE0 /* A   */.4
        JNC     ??macMcuTimer2OverflowWorkaround_0
//  747   {
//  748     /* T2 comapre 1 interrupt is enabled but T2 compare 1 intererrupt is not generated */
//  749     if (!(T2IRQF & TIMER2_OVF_COMPARE1F))
        MOV     A,0xa1
        MOV     C,0xE0 /* A   */.4
        JC      ??macMcuTimer2OverflowWorkaround_0
//  750     {
//  751       if (MAC_RADIO_BACKOFF_COUNT() > macMcuOverflowGetCompare())
        MOV     A,0xa8
        MOV     R0,A
        CLR     0xa8.7
        MOV     0xc3,#0x30
        MOV     A,0xa4
        MOV     DPL,?XSP + 0
        MOV     DPH,?XSP + 1
        MOVX    @DPTR,A
        MOV     A,0xa5
        PUSH    A
          CFI CFA_SP SP+-1
        MOV     A,#0x1
        LCALL   ?XSTACK_DISP0_8
        POP     A
          CFI CFA_SP SP+0
        MOVX    @DPTR,A
        MOV     A,0xa6
        PUSH    A
          CFI CFA_SP SP+-1
        MOV     A,#0x2
        LCALL   ?XSTACK_DISP0_8
        POP     A
          CFI CFA_SP SP+0
        MOVX    @DPTR,A
        MOV     A,#0x3
        LCALL   ?XSTACK_DISP0_8
        CLR     A
        MOVX    @DPTR,A
        MOV     A,R0
        MOV     C,0xE0 /* A   */.7
        MOV     0xa8.7,C
        ; Setup parameters for call to function macMcuOverflowCount
        LCALL   ??macMcuOverflowCount?relay
        MOV     ?V0 + 0,R2
        MOV     ?V0 + 1,R3
        MOV     ?V0 + 2,R4
        MOV     ?V0 + 3,R5
        MOV     DPL,?XSP + 0
        MOV     DPH,?XSP + 1
        MOV     R0,#?V0 + 0
        LCALL   ?UL_GT_X
        JNC     ??macMcuTimer2OverflowWorkaround_0
//  752       {
//  753         /* Set the flag to trigger the timer compare interrupt */
//  754         macBackoffTimerCompareIsr();
        ; Setup parameters for call to function macBackoffTimerCompareIsr
        LCALL   ??macBackoffTimerCompareIsr?relay
//  755         T2IRQF = (TIMER2_OVF_COMPARE1F ^ 0xFF);
        MOV     0xa1,#-0x11
//  756       }
//  757     }
//  758   }
//  759 }
??macMcuTimer2OverflowWorkaround_0:
        SJMP    ??Subroutine9_0
          CFI EndBlock cfiBlock28
        REQUIRE T2IRQM
        REQUIRE T2IRQF
        REQUIRE _A_IEN0
        REQUIRE T2MSEL
        REQUIRE T2MOVF0
        REQUIRE T2MOVF1
        REQUIRE T2MOVF2

        RSEG BANKED_CODE:CODE:NOROOT(0)
?Subroutine1:
          CFI Block cfiBlock29 Using cfiCommon0
          CFI NoFunction
          CFI CFA_SP SP+0
          CFI CFA_XSP16 add(XSP16, 16)
          CFI VB load(1, XDATA, add(CFA_XSP16, literal(-11)))
          CFI DPL0 load(1, XDATA, add(CFA_XSP16, literal(-2)))
          CFI DPH0 load(1, XDATA, add(CFA_XSP16, literal(-1)))
          CFI R6 load(1, XDATA, add(CFA_XSP16, literal(-12)))
          CFI R7 load(1, XDATA, add(CFA_XSP16, literal(-6)))
          CFI V0 load(1, XDATA, add(CFA_XSP16, literal(-10)))
          CFI V1 load(1, XDATA, add(CFA_XSP16, literal(-9)))
          CFI V2 load(1, XDATA, add(CFA_XSP16, literal(-8)))
          CFI V3 load(1, XDATA, add(CFA_XSP16, literal(-7)))
          CFI ?BRET_EXT load(1, XDATA, add(CFA_XSP16, literal(-3)))
          CFI ?RET_HIGH load(1, XDATA, add(CFA_XSP16, literal(-4)))
          CFI ?RET_LOW load(1, XDATA, add(CFA_XSP16, literal(-5)))
        MOV     C,0xE0 /* A   */.0
          CFI EndBlock cfiBlock29
        REQUIRE ??Subroutine8_0
        ; // Fall through to label ??Subroutine8_0

        RSEG BANKED_CODE:CODE:NOROOT(0)
??Subroutine8_0:
          CFI Block cfiBlock30 Using cfiCommon0
          CFI NoFunction
          CFI CFA_SP SP+0
          CFI CFA_XSP16 add(XSP16, 16)
          CFI VB load(1, XDATA, add(CFA_XSP16, literal(-11)))
          CFI DPL0 load(1, XDATA, add(CFA_XSP16, literal(-2)))
          CFI DPH0 load(1, XDATA, add(CFA_XSP16, literal(-1)))
          CFI R6 load(1, XDATA, add(CFA_XSP16, literal(-12)))
          CFI R7 load(1, XDATA, add(CFA_XSP16, literal(-6)))
          CFI V0 load(1, XDATA, add(CFA_XSP16, literal(-10)))
          CFI V1 load(1, XDATA, add(CFA_XSP16, literal(-9)))
          CFI V2 load(1, XDATA, add(CFA_XSP16, literal(-8)))
          CFI V3 load(1, XDATA, add(CFA_XSP16, literal(-7)))
          CFI ?BRET_EXT load(1, XDATA, add(CFA_XSP16, literal(-3)))
          CFI ?RET_HIGH load(1, XDATA, add(CFA_XSP16, literal(-4)))
          CFI ?RET_LOW load(1, XDATA, add(CFA_XSP16, literal(-5)))
        MOV     0xa8.7,C
          CFI EndBlock cfiBlock30
        REQUIRE ??Subroutine9_0
        ; // Fall through to label ??Subroutine9_0

        RSEG BANKED_CODE:CODE:NOROOT(0)
??Subroutine9_0:
          CFI Block cfiBlock31 Using cfiCommon0
          CFI NoFunction
          CFI CFA_SP SP+0
          CFI CFA_XSP16 add(XSP16, 16)
          CFI VB load(1, XDATA, add(CFA_XSP16, literal(-11)))
          CFI DPL0 load(1, XDATA, add(CFA_XSP16, literal(-2)))
          CFI DPH0 load(1, XDATA, add(CFA_XSP16, literal(-1)))
          CFI R6 load(1, XDATA, add(CFA_XSP16, literal(-12)))
          CFI R7 load(1, XDATA, add(CFA_XSP16, literal(-6)))
          CFI V0 load(1, XDATA, add(CFA_XSP16, literal(-10)))
          CFI V1 load(1, XDATA, add(CFA_XSP16, literal(-9)))
          CFI V2 load(1, XDATA, add(CFA_XSP16, literal(-8)))
          CFI V3 load(1, XDATA, add(CFA_XSP16, literal(-7)))
          CFI ?BRET_EXT load(1, XDATA, add(CFA_XSP16, literal(-3)))
          CFI ?RET_HIGH load(1, XDATA, add(CFA_XSP16, literal(-4)))
          CFI ?RET_LOW load(1, XDATA, add(CFA_XSP16, literal(-5)))
        MOV     A,#0x4
        LCALL   ?DEALLOC_XSTACK8
          CFI EndBlock cfiBlock31
        REQUIRE ??Subroutine10_0
        ; // Fall through to label ??Subroutine10_0

        RSEG BANKED_CODE:CODE:NOROOT(0)
??Subroutine10_0:
          CFI Block cfiBlock32 Using cfiCommon0
          CFI NoFunction
          CFI CFA_SP SP+0
          CFI CFA_XSP16 add(XSP16, 12)
          CFI VB load(1, XDATA, add(CFA_XSP16, literal(-11)))
          CFI DPL0 load(1, XDATA, add(CFA_XSP16, literal(-2)))
          CFI DPH0 load(1, XDATA, add(CFA_XSP16, literal(-1)))
          CFI R6 load(1, XDATA, add(CFA_XSP16, literal(-12)))
          CFI R7 load(1, XDATA, add(CFA_XSP16, literal(-6)))
          CFI V0 load(1, XDATA, add(CFA_XSP16, literal(-10)))
          CFI V1 load(1, XDATA, add(CFA_XSP16, literal(-9)))
          CFI V2 load(1, XDATA, add(CFA_XSP16, literal(-8)))
          CFI V3 load(1, XDATA, add(CFA_XSP16, literal(-7)))
          CFI ?BRET_EXT load(1, XDATA, add(CFA_XSP16, literal(-3)))
          CFI ?RET_HIGH load(1, XDATA, add(CFA_XSP16, literal(-4)))
          CFI ?RET_LOW load(1, XDATA, add(CFA_XSP16, literal(-5)))
        MOV     R7,#0x4
        LJMP    ?BANKED_LEAVE_XDATA
          CFI EndBlock cfiBlock32
//  760 
//  761 
//  762 /**************************************************************************************************
//  763  * @fn          macMcuPrecisionCount
//  764  *
//  765  * @brief       This function is used by higher layer to read a free running counter driven by
//  766  *              MAC timer.
//  767  *
//  768  * @param       none
//  769  *
//  770  * @return      overflowCount
//  771  **************************************************************************************************
//  772  */

        RSEG BANKED_CODE:CODE:NOROOT(0)
//  773 uint32 macMcuPrecisionCount(void)
macMcuPrecisionCount:
          CFI Block cfiBlock33 Using cfiCommon0
          CFI Function macMcuPrecisionCount
        CODE
//  774 {
        FUNCALL macMcuPrecisionCount, macGetBackOffTimerRollover
        LOCFRAME ISTACK, 0, STACK
        LOCFRAME PSTACK, 0, STACK
        LOCFRAME XSTACK, 16, STACK
        LOCFRAME IOVERLAY, 0, STATIC
        LOCFRAME DOVERLAY, 0, STATIC
        ARGFRAME ISTACK, 0, STACK
        ARGFRAME PSTACK, 0, STACK
        ARGFRAME XSTACK, 16, STACK
        ARGFRAME IOVERLAY, 0, STATIC
        ARGFRAME DOVERLAY, 0, STATIC
        FUNCALL macMcuPrecisionCount, macGetBackOffTimerRollover
        LOCFRAME ISTACK, 0, STACK
        LOCFRAME PSTACK, 0, STACK
        LOCFRAME XSTACK, 16, STACK
        LOCFRAME IOVERLAY, 0, STATIC
        LOCFRAME DOVERLAY, 0, STATIC
        ARGFRAME ISTACK, 0, STACK
        ARGFRAME PSTACK, 0, STACK
        ARGFRAME XSTACK, 16, STACK
        ARGFRAME IOVERLAY, 0, STATIC
        ARGFRAME DOVERLAY, 0, STATIC
        MOV     A,#-0xc
        LCALL   ?BANKED_ENTER_XDATA
          CFI DPH0 load(1, XDATA, add(CFA_XSP16, literal(-1)))
          CFI DPL0 load(1, XDATA, add(CFA_XSP16, literal(-2)))
          CFI ?BRET_EXT load(1, XDATA, add(CFA_XSP16, literal(-3)))
          CFI ?RET_HIGH load(1, XDATA, add(CFA_XSP16, literal(-4)))
          CFI ?RET_LOW load(1, XDATA, add(CFA_XSP16, literal(-5)))
          CFI R7 load(1, XDATA, add(CFA_XSP16, literal(-6)))
          CFI V3 load(1, XDATA, add(CFA_XSP16, literal(-7)))
          CFI V2 load(1, XDATA, add(CFA_XSP16, literal(-8)))
          CFI V1 load(1, XDATA, add(CFA_XSP16, literal(-9)))
          CFI V0 load(1, XDATA, add(CFA_XSP16, literal(-10)))
          CFI VB load(1, XDATA, add(CFA_XSP16, literal(-11)))
          CFI R6 load(1, XDATA, add(CFA_XSP16, literal(-12)))
          CFI CFA_SP SP+0
          CFI CFA_XSP16 add(XSP16, 12)
        ; Saved register size: 12
        ; Auto size: 4
        MOV     A,#-0x4
        LCALL   ?ALLOC_XSTACK8
          CFI CFA_XSP16 add(XSP16, 16)
//  775   uint32         overflowCount = 0;
        MOV     DPL,?XSP + 0
        MOV     DPH,?XSP + 1
        CLR     A
        MOVX    @DPTR,A
        INC     DPTR
        MOVX    @DPTR,A
        INC     DPTR
        MOVX    @DPTR,A
        INC     DPTR
        MOVX    @DPTR,A
//  776   halIntState_t  s;
//  777 
//  778   HAL_ENTER_CRITICAL_SECTION(s);
        MOV     C,0xa8.7
        RLC     A
        MOV     R6,A
        CLR     0xa8.7
//  779 
//  780   /* This T2 access macro allows accessing both T2MOVFx and T2Mx */
//  781   MAC_MCU_T2_ACCESS_OVF_COUNT_VALUE();
        MOV     0xc3,#0x0
//  782 
//  783   /* Latch the entire T2MOVFx first by reading T2M0.
//  784    * T2M0 is discarded.
//  785    */
//  786   T2M0;
        MOV     A,0xa2
//  787   ((uint8 *)&overflowCount)[UINT32_NDX0] = T2MOVF0;
        MOV     A,0xa4
        MOV     DPL,?XSP + 0
        MOV     DPH,?XSP + 1
        MOVX    @DPTR,A
//  788   ((uint8 *)&overflowCount)[UINT32_NDX1] = T2MOVF1;
        MOV     A,0xa5
        PUSH    A
          CFI CFA_SP SP+-1
        MOV     A,#0x1
        LCALL   ?XSTACK_DISP0_8
        POP     A
          CFI CFA_SP SP+0
        MOVX    @DPTR,A
//  789   ((uint8 *)&overflowCount)[UINT32_NDX2] = T2MOVF2;
        MOV     A,0xa6
        PUSH    A
          CFI CFA_SP SP+-1
        MOV     A,#0x2
        LCALL   ?XSTACK_DISP0_8
        POP     A
          CFI CFA_SP SP+0
        MOVX    @DPTR,A
//  790 
//  791   /* the overflowCount needs to account for the accumulated overflow count in Beacon mode */
//  792   overflowCount += accumulatedOverflowCount;
        MOV     DPTR,#accumulatedOverflowCount
        MOV     R0,#?V0 + 0
        LCALL   ?L_MOV_X
        MOV     DPL,?XSP + 0
        MOV     DPH,?XSP + 1
        MOV     R0,#?V0 + 0
        LCALL   ?L_ADD_TO_X
//  793 
//  794   /*
//  795    * Workaround to take care of the case where a rollover just occured and the call to
//  796    * macBackoffTimerPeriodIsr() hasn't yet occured or if one rollover occured during
//  797    * sleep then update the accumulatedoverflowCount with the rollover
//  798    */
//  799   if((prevoverflowCount > overflowCount) && (prevAccumulatedOverflowCount == accumulatedOverflowCount))
        MOV     DPTR,#prevoverflowCount
        MOV     R0,#?V0 + 0
        LCALL   ?L_MOV_X
        MOV     DPL,?XSP + 0
        MOV     DPH,?XSP + 1
        MOV     R0,#?V0 + 0
        LCALL   ?UL_GT_X
        JNC     ??macMcuPrecisionCount_0
        MOV     DPTR,#accumulatedOverflowCount
        MOV     R0,#?V0 + 0
        LCALL   ?L_MOV_X
        MOV     DPTR,#prevAccumulatedOverflowCount
        MOV     R0,#?V0 + 0
        LCALL   ?L_EQ_X
        JNZ     ??macMcuPrecisionCount_0
//  800   {
//  801     accumulatedOverflowCount += macGetBackOffTimerRollover();
        ; Setup parameters for call to function macGetBackOffTimerRollover
        LCALL   ??macGetBackOffTimerRollover?relay
        MOV     ?V0 + 0,R2
        MOV     ?V0 + 1,R3
        MOV     ?V0 + 2,R4
        MOV     ?V0 + 3,R5
        MOV     DPTR,#accumulatedOverflowCount
        MOV     R0,#?V0 + 0
        LCALL   ?L_ADD_TO_X
//  802     overflowCount += macGetBackOffTimerRollover();
        ; Setup parameters for call to function macGetBackOffTimerRollover
        LCALL   ??macGetBackOffTimerRollover?relay
        MOV     ?V0 + 0,R2
        MOV     ?V0 + 1,R3
        MOV     ?V0 + 2,R4
        MOV     ?V0 + 3,R5
        MOV     DPL,?XSP + 0
        MOV     DPH,?XSP + 1
        MOV     R0,#?V0 + 0
        LCALL   ?L_ADD_TO_X
//  803     /*don't update the rollover since it has been updated already */
//  804     updateRolloverflag = TRUE;
        MOV     DPTR,#updateRolloverflag
        MOV     A,#0x1
        MOVX    @DPTR,A
//  805   }
//  806 
//  807   /* store the current value of overflowcount and accumulatedOverflowCount */
//  808   prevoverflowCount = overflowCount;
??macMcuPrecisionCount_0:
        MOV     DPL,?XSP + 0
        MOV     DPH,?XSP + 1
        LCALL   ?XLOAD_R2345
        MOV     DPTR,#prevoverflowCount
        LCALL   ?XSTORE_R2345
//  809   prevAccumulatedOverflowCount = accumulatedOverflowCount;
        MOV     DPTR,#accumulatedOverflowCount
        LCALL   ?XLOAD_R2345
        MOV     DPTR,#prevAccumulatedOverflowCount
        LCALL   ?XSTORE_R2345
//  810 
//  811   HAL_EXIT_CRITICAL_SECTION(s);
        MOV     A,R6
        MOV     C,0xE0 /* A   */.0
        MOV     0xa8.7,C
//  812 
//  813   return(overflowCount);
        MOV     DPL,?XSP + 0
        MOV     DPH,?XSP + 1
        LCALL   ?XLOAD_R2345
        LJMP    ??Subroutine9_0 & 0xFFFF
          CFI EndBlock cfiBlock33
        REQUIRE _A_IEN0
        REQUIRE T2MSEL
        REQUIRE T2M0
        REQUIRE T2MOVF0
        REQUIRE T2MOVF1
        REQUIRE T2MOVF2
//  814 }
//  815 
//  816 
//  817 /**************************************************************************************************
//  818  * @fn          macMcuRfIsr
//  819  *
//  820  * @brief       Interrupt service routine that handles all RF interrupts.  There are a number
//  821  *              of conditions "ganged" onto this one ISR so each condition must be tested for.
//  822  *
//  823  * @param       none
//  824  *
//  825  * @return      none
//  826  **************************************************************************************************
//  827  */

        RSEG NEAR_CODE:CODE:NOROOT(0)
//  828 HAL_ISR_FUNCTION( macMcuRfIsr, RF_VECTOR )
macMcuRfIsr:
          CFI Block cfiBlock34 Using cfiCommon1
          CFI Function macMcuRfIsr
        CODE
//  829 {
        FUNCALL macMcuRfIsr, macCspTxIntIsr
        LOCFRAME ISTACK, 0, STACK
        LOCFRAME PSTACK, 0, STACK
        LOCFRAME XSTACK, 14, STACK
        LOCFRAME IOVERLAY, 0, STATIC
        LOCFRAME DOVERLAY, 0, STATIC
        ARGFRAME ISTACK, 0, STACK
        ARGFRAME PSTACK, 0, STACK
        ARGFRAME XSTACK, 14, STACK
        ARGFRAME IOVERLAY, 0, STATIC
        ARGFRAME DOVERLAY, 0, STATIC
        FUNCALL macMcuRfIsr, macCspTxStopIsr
        LOCFRAME ISTACK, 0, STACK
        LOCFRAME PSTACK, 0, STACK
        LOCFRAME XSTACK, 14, STACK
        LOCFRAME IOVERLAY, 0, STATIC
        LOCFRAME DOVERLAY, 0, STATIC
        ARGFRAME ISTACK, 0, STACK
        ARGFRAME PSTACK, 0, STACK
        ARGFRAME XSTACK, 14, STACK
        ARGFRAME IOVERLAY, 0, STATIC
        ARGFRAME DOVERLAY, 0, STATIC
        FUNCALL macMcuRfIsr, macRxAckTxDoneCallback
        LOCFRAME ISTACK, 0, STACK
        LOCFRAME PSTACK, 0, STACK
        LOCFRAME XSTACK, 14, STACK
        LOCFRAME IOVERLAY, 0, STATIC
        LOCFRAME DOVERLAY, 0, STATIC
        ARGFRAME ISTACK, 0, STACK
        ARGFRAME PSTACK, 0, STACK
        ARGFRAME XSTACK, 14, STACK
        ARGFRAME IOVERLAY, 0, STATIC
        ARGFRAME DOVERLAY, 0, STATIC
        FUNCALL macMcuRfIsr, macRxThresholdIsr
        LOCFRAME ISTACK, 0, STACK
        LOCFRAME PSTACK, 0, STACK
        LOCFRAME XSTACK, 14, STACK
        LOCFRAME IOVERLAY, 0, STATIC
        LOCFRAME DOVERLAY, 0, STATIC
        ARGFRAME ISTACK, 0, STACK
        ARGFRAME PSTACK, 0, STACK
        ARGFRAME XSTACK, 14, STACK
        ARGFRAME IOVERLAY, 0, STATIC
        ARGFRAME DOVERLAY, 0, STATIC
        PUSH    A
          CFI A Frame(CFA_SP, 3)
          CFI CFA_SP SP+-3
        MOV     A,#-0xe
        LCALL   ?INTERRUPT_ENTER_XSP
          CFI B load(1, XDATA, add(CFA_XSP16, literal(-1)))
          CFI VB load(1, XDATA, add(CFA_XSP16, literal(-2)))
          CFI PSW load(1, XDATA, add(CFA_XSP16, literal(-3)))
          CFI DPL0 load(1, XDATA, add(CFA_XSP16, literal(-4)))
          CFI DPH0 load(1, XDATA, add(CFA_XSP16, literal(-5)))
          CFI R7 load(1, XDATA, add(CFA_XSP16, literal(-6)))
          CFI R6 load(1, XDATA, add(CFA_XSP16, literal(-7)))
          CFI R5 load(1, XDATA, add(CFA_XSP16, literal(-8)))
          CFI R4 load(1, XDATA, add(CFA_XSP16, literal(-9)))
          CFI V0 load(1, XDATA, add(CFA_XSP16, literal(-10)))
          CFI R3 load(1, XDATA, add(CFA_XSP16, literal(-11)))
          CFI R2 load(1, XDATA, add(CFA_XSP16, literal(-12)))
          CFI R1 load(1, XDATA, add(CFA_XSP16, literal(-13)))
          CFI R0 load(1, XDATA, add(CFA_XSP16, literal(-14)))
          CFI CFA_XSP16 add(XSP16, 14)
        ; Saved register size: 14
        ; Auto size: 0
//  830   uint8 rfim;
//  831 
//  832   HAL_ENTER_ISR();
        MOV     C,0xa8.7
        CLR     A
        RLC     A
        MOV     R6,A
        SETB    0xa8.7
//  833 
//  834   rfim = RFIRQM1;
        MOV     DPTR,#0x61a4
        MOVX    A,@DPTR
        MOV     R0,A
//  835 
//  836   /*  The CPU level RF interrupt flag must be cleared here (before clearing RFIRQFx).
//  837    *  to allow the interrupts to be nested.
//  838    */
//  839   S1CON = 0x00;
        MOV     0x9b,#0x0
//  840 
//  841   if ((RFIRQF1 & IRQ_CSP_MANINT) & rfim)
        MOV     A,0x91
        ANL     A,R0
        ANL     A,#0x8
        JZ      ??macMcuRfIsr_0
//  842   {
//  843     /*
//  844      *  Important!  Because of how the CSP programs are written, CSP_INT interrupts should
//  845      *  be processed before CSP_STOP interrupts.  This becomes an issue when there are
//  846      *  long critical sections.
//  847      */
//  848     /* clear flag */
//  849     RFIRQF1 = (IRQ_CSP_MANINT ^ 0xFF);
        MOV     0x91,#-0x9
//  850     macCspTxIntIsr();
        ; Setup parameters for call to function macCspTxIntIsr
        LCALL   ??macCspTxIntIsr?relay
        SJMP    ??macMcuRfIsr_1
//  851   }
//  852   else if ((RFIRQF1 & IRQ_CSP_STOP) & rfim)
??macMcuRfIsr_0:
        MOV     A,0x91
        ANL     A,R0
        ANL     A,#0x10
        JZ      ??macMcuRfIsr_2
//  853   {
//  854     /* clear flag */
//  855     RFIRQF1 = (IRQ_CSP_STOP ^ 0xFF);
        MOV     0x91,#-0x11
//  856     macCspTxStopIsr();
        ; Setup parameters for call to function macCspTxStopIsr
        LCALL   ??macCspTxStopIsr?relay
        SJMP    ??macMcuRfIsr_1
//  857   }
//  858   else if ((RFIRQF1 & IRQ_TXACKDONE) & rfim)
??macMcuRfIsr_2:
        MOV     A,0x91
        MOV     C,0xE0 /* A   */.0
        MOV     B.0,C
        MOV     A,R0
        MOV     C,0xE0 /* A   */.0
        ANL     C,B.0
        JNC     ??macMcuRfIsr_1
//  859   {
//  860     /* disable interrupt - set up is for "one shot" operation */
//  861     RFIRQM1 &= ~IM_TXACKDONE;
        MOVX    A,@DPTR
        CLR     0xE0 /* A   */.0
        MOVX    @DPTR,A
//  862     macRxAckTxDoneCallback();
        ; Setup parameters for call to function macRxAckTxDoneCallback
        LCALL   ??macRxAckTxDoneCallback?relay
//  863   }
//  864 
//  865   rfim = RFIRQM0;
??macMcuRfIsr_1:
        MOV     DPTR,#0x61a3
        MOVX    A,@DPTR
        MOV     R0,A
//  866 
//  867   /* process RFIRQF0 next */
//  868   if ((RFIRQF0 & IRQ_FIFOP) & rfim)
        MOV     A,0xe9
        ANL     A,R0
        ANL     A,#0x4
        JZ      ??macMcuRfIsr_3
//  869   {
//  870     /* continue to execute interrup                                                                                                                                                                                                                                                                                                                                                                                                                                                                                                                                                                                        t handler as long as FIFOP is active */
//  871     do
//  872     {
//  873       macRxThresholdIsr();
??macMcuRfIsr_4:
        ; Setup parameters for call to function macRxThresholdIsr
        LCALL   ??macRxThresholdIsr?relay
//  874       RFIRQF0 = (IRQ_FIFOP ^ 0xFF);
        MOV     0xe9,#-0x5
//  875     } while (FSMSTAT1 & FIFOP);
        MOV     DPTR,#0x6193
        MOVX    A,@DPTR
        MOV     C,0xE0 /* A   */.6
        JC      ??macMcuRfIsr_4
          CFI EndBlock cfiBlock34
//  876   }
//  877 
//  878   CLEAR_SLEEP_MODE();
//  879   HAL_EXIT_ISR();
??macMcuRfIsr_3:
        REQUIRE ?Subroutine2
        REQUIRE _A_IEN0
        REQUIRE S1CON
        REQUIRE RFIRQF1
        REQUIRE RFIRQF0
        ; // Fall through to label ?Subroutine2
//  880 }

        RSEG NEAR_CODE:CODE:NOROOT(0)
?Subroutine2:
          CFI Block cfiBlock35 Using cfiCommon1
          CFI NoFunction
          CFI CFA_SP SP+-3
          CFI CFA_XSP16 add(XSP16, 14)
          CFI VB load(1, XDATA, add(CFA_XSP16, literal(-2)))
          CFI B load(1, XDATA, add(CFA_XSP16, literal(-1)))
          CFI A Frame(CFA_SP, 3)
          CFI PSW load(1, XDATA, add(CFA_XSP16, literal(-3)))
          CFI DPL0 load(1, XDATA, add(CFA_XSP16, literal(-4)))
          CFI DPH0 load(1, XDATA, add(CFA_XSP16, literal(-5)))
          CFI R0 load(1, XDATA, add(CFA_XSP16, literal(-14)))
          CFI R1 load(1, XDATA, add(CFA_XSP16, literal(-13)))
          CFI R2 load(1, XDATA, add(CFA_XSP16, literal(-12)))
          CFI R3 load(1, XDATA, add(CFA_XSP16, literal(-11)))
          CFI R4 load(1, XDATA, add(CFA_XSP16, literal(-9)))
          CFI R5 load(1, XDATA, add(CFA_XSP16, literal(-8)))
          CFI R6 load(1, XDATA, add(CFA_XSP16, literal(-7)))
          CFI R7 load(1, XDATA, add(CFA_XSP16, literal(-6)))
          CFI V0 load(1, XDATA, add(CFA_XSP16, literal(-10)))
        MOV     A,R6
        MOV     C,0xE0 /* A   */.0
        MOV     0xa8.7,C
        MOV     R7,#0x1
        LJMP    ?INTERRUPT_LEAVE_XSP
          CFI EndBlock cfiBlock35
//  881 
//  882 
//  883 /**************************************************************************************************
//  884  * @fn          macMcuRfErrIsr
//  885  *
//  886  * @brief       Interrupt service routine that handles all RF Error interrupts.  Only the RX FIFO
//  887  *              overflow condition is handled.
//  888  *
//  889  * @param       none
//  890  *
//  891  * @return      none
//  892  **************************************************************************************************
//  893  */

        RSEG NEAR_CODE:CODE:NOROOT(0)
//  894 HAL_ISR_FUNCTION( macMcuRfErrIsr, RFERR_VECTOR )
macMcuRfErrIsr:
          CFI Block cfiBlock36 Using cfiCommon1
          CFI Function macMcuRfErrIsr
        CODE
//  895 {
        FUNCALL macMcuRfErrIsr, macRxFifoOverflowIsr
        LOCFRAME ISTACK, 0, STACK
        LOCFRAME PSTACK, 0, STACK
        LOCFRAME XSTACK, 14, STACK
        LOCFRAME IOVERLAY, 0, STATIC
        LOCFRAME DOVERLAY, 0, STATIC
        ARGFRAME ISTACK, 0, STACK
        ARGFRAME PSTACK, 0, STACK
        ARGFRAME XSTACK, 14, STACK
        ARGFRAME IOVERLAY, 0, STATIC
        ARGFRAME DOVERLAY, 0, STATIC
        PUSH    A
          CFI A Frame(CFA_SP, 3)
          CFI CFA_SP SP+-3
        MOV     A,#-0xe
        LCALL   ?INTERRUPT_ENTER_XSP
          CFI B load(1, XDATA, add(CFA_XSP16, literal(-1)))
          CFI VB load(1, XDATA, add(CFA_XSP16, literal(-2)))
          CFI PSW load(1, XDATA, add(CFA_XSP16, literal(-3)))
          CFI DPL0 load(1, XDATA, add(CFA_XSP16, literal(-4)))
          CFI DPH0 load(1, XDATA, add(CFA_XSP16, literal(-5)))
          CFI R7 load(1, XDATA, add(CFA_XSP16, literal(-6)))
          CFI R6 load(1, XDATA, add(CFA_XSP16, literal(-7)))
          CFI R5 load(1, XDATA, add(CFA_XSP16, literal(-8)))
          CFI R4 load(1, XDATA, add(CFA_XSP16, literal(-9)))
          CFI V0 load(1, XDATA, add(CFA_XSP16, literal(-10)))
          CFI R3 load(1, XDATA, add(CFA_XSP16, literal(-11)))
          CFI R2 load(1, XDATA, add(CFA_XSP16, literal(-12)))
          CFI R1 load(1, XDATA, add(CFA_XSP16, literal(-13)))
          CFI R0 load(1, XDATA, add(CFA_XSP16, literal(-14)))
          CFI CFA_XSP16 add(XSP16, 14)
        ; Saved register size: 14
        ; Auto size: 0
//  896   uint8 rferrm;
//  897 
//  898   HAL_ENTER_ISR();
        MOV     C,0xa8.7
        CLR     A
        RLC     A
        MOV     R6,A
        SETB    0xa8.7
//  899 
//  900   rferrm = RFERRM;
        MOV     DPTR,#0x61a5
        MOVX    A,@DPTR
        MOV     R0,A
//  901 
//  902   if ((RFERRF & RFERR_RXOVERF) & rferrm)
        MOV     A,0xbf
        ANL     A,R0
        ANL     A,#0x4
        JZ      ??macMcuRfErrIsr_0
//  903   {
//  904     RFERRF = (RFERR_RXOVERF ^ 0xFF);
        MOV     0xbf,#-0x5
//  905     macRxFifoOverflowIsr();
        ; Setup parameters for call to function macRxFifoOverflowIsr
        LCALL   ??macRxFifoOverflowIsr?relay
//  906   }
//  907 
//  908   CLEAR_SLEEP_MODE();
//  909   HAL_EXIT_ISR();
??macMcuRfErrIsr_0:
        SJMP    ?Subroutine2
          CFI EndBlock cfiBlock36
        REQUIRE _A_IEN0
        REQUIRE RFERRF
//  910 }
//  911 
//  912 
//  913 /**************************************************************************************************
//  914  * @fn          macMcuRecordMaxRssiStart
//  915  *
//  916  * @brief       Starts recording of the maximum received RSSI value.
//  917  *
//  918  * @param       none
//  919  *
//  920  * @return      none
//  921  **************************************************************************************************
//  922  */

        RSEG BANKED_CODE:CODE:NOROOT(0)
//  923 MAC_INTERNAL_API void macMcuRecordMaxRssiStart(void)
macMcuRecordMaxRssiStart:
          CFI Block cfiBlock37 Using cfiCommon0
          CFI Function macMcuRecordMaxRssiStart
        CODE
//  924 {
        PUSH    DPL
          CFI DPL0 Frame(CFA_SP, 4)
          CFI CFA_SP SP+-4
        PUSH    DPH
          CFI DPH0 Frame(CFA_SP, 5)
          CFI CFA_SP SP+-5
        ; Saved register size: 2
        ; Auto size: 0
//  925   /* start maximum recorded value at the lowest possible value */
//  926   maxRssi = -128;
        MOV     DPTR,#maxRssi
        MOV     A,#-0x80
        MOVX    @DPTR,A
//  927 
//  928   /* enable timer overflow interrupt */
//  929   T2IRQM |= TIMER2_PERM;
        ORL     0xa7,#0x1
//  930 }
        LJMP    ??Subroutine7_0 & 0xFFFF
          CFI EndBlock cfiBlock37
        REQUIRE T2IRQM
//  931 
//  932 
//  933 /**************************************************************************************************
//  934  * @fn          macMcuRecordMaxRssiStop
//  935  *
//  936  * @brief       Stops recording of the maximum received RSSI.  It returns the maximum value
//  937  *              received since starting the recording.
//  938  *
//  939  * @param       none
//  940  *
//  941  * @return      maximum received RSSI value
//  942  **************************************************************************************************
//  943  */

        RSEG BANKED_CODE:CODE:NOROOT(0)
//  944 MAC_INTERNAL_API int8 macMcuRecordMaxRssiStop(void)
macMcuRecordMaxRssiStop:
          CFI Block cfiBlock38 Using cfiCommon0
          CFI Function macMcuRecordMaxRssiStop
        CODE
//  945 {
        PUSH    DPL
          CFI DPL0 Frame(CFA_SP, 4)
          CFI CFA_SP SP+-4
        PUSH    DPH
          CFI DPH0 Frame(CFA_SP, 5)
          CFI CFA_SP SP+-5
        ; Saved register size: 2
        ; Auto size: 0
//  946   /* disable timer overflow interrupt */
//  947   T2IRQM &= ~TIMER2_PERM;
        ANL     0xa7,#0xfe
//  948 
//  949   return(maxRssi);
        MOV     DPTR,#maxRssi
        MOVX    A,@DPTR
        MOV     R1,A
        LJMP    ??Subroutine7_0 & 0xFFFF
          CFI EndBlock cfiBlock38
        REQUIRE T2IRQM
//  950 }
//  951 
//  952 
//  953 /*=================================================================================================
//  954  * @fn          macMcuRecordMaxRssiIsr
//  955  *
//  956  * @brief       Interrupt service routine called during recording of max RSSI value.
//  957  *
//  958  * @param       none
//  959  *
//  960  * @return      none
//  961  *=================================================================================================
//  962  */
//  963 static void mcuRecordMaxRssiIsr(void)
//  964 {
//  965   int8 rssi;
//  966 
//  967   /* read latest RSSI value */
//  968   rssi = RSSI;
//  969 
//  970   /* if new RSSI value is greater than the maximum already received, it is the new maximum */
//  971   if (rssi > maxRssi)
//  972   {
//  973     maxRssi = rssi;
//  974   }
//  975 }
//  976 
//  977 /**************************************************************************************************
//  978  * @fn          macMcuAccumulatedOverFlow
//  979  *
//  980  * @brief       This function is used to accumulate timer 2 overflow if applicable
//  981  *              on the relevant platform
//  982  *
//  983  * @param       none
//  984  *
//  985  * @return      none
//  986  **************************************************************************************************
//  987  */

        RSEG BANKED_CODE:CODE:NOROOT(0)
//  988 MAC_INTERNAL_API void macMcuAccumulatedOverFlow(void)
macMcuAccumulatedOverFlow:
          CFI Block cfiBlock39 Using cfiCommon0
          CFI Function macMcuAccumulatedOverFlow
        CODE
//  989 {
        FUNCALL macMcuAccumulatedOverFlow, macGetBackOffTimerRollover
        LOCFRAME ISTACK, 0, STACK
        LOCFRAME PSTACK, 0, STACK
        LOCFRAME XSTACK, 12, STACK
        LOCFRAME IOVERLAY, 0, STATIC
        LOCFRAME DOVERLAY, 0, STATIC
        ARGFRAME ISTACK, 0, STACK
        ARGFRAME PSTACK, 0, STACK
        ARGFRAME XSTACK, 12, STACK
        ARGFRAME IOVERLAY, 0, STATIC
        ARGFRAME DOVERLAY, 0, STATIC
        MOV     A,#-0xc
        LCALL   ?BANKED_ENTER_XDATA
          CFI DPH0 load(1, XDATA, add(CFA_XSP16, literal(-1)))
          CFI DPL0 load(1, XDATA, add(CFA_XSP16, literal(-2)))
          CFI ?BRET_EXT load(1, XDATA, add(CFA_XSP16, literal(-3)))
          CFI ?RET_HIGH load(1, XDATA, add(CFA_XSP16, literal(-4)))
          CFI ?RET_LOW load(1, XDATA, add(CFA_XSP16, literal(-5)))
          CFI R7 load(1, XDATA, add(CFA_XSP16, literal(-6)))
          CFI V3 load(1, XDATA, add(CFA_XSP16, literal(-7)))
          CFI V2 load(1, XDATA, add(CFA_XSP16, literal(-8)))
          CFI V1 load(1, XDATA, add(CFA_XSP16, literal(-9)))
          CFI V0 load(1, XDATA, add(CFA_XSP16, literal(-10)))
          CFI VB load(1, XDATA, add(CFA_XSP16, literal(-11)))
          CFI R6 load(1, XDATA, add(CFA_XSP16, literal(-12)))
          CFI CFA_SP SP+0
          CFI CFA_XSP16 add(XSP16, 12)
        ; Saved register size: 12
        ; Auto size: 0
//  990   halIntState_t  s;
//  991   HAL_ENTER_CRITICAL_SECTION(s);
        MOV     C,0xa8.7
        CLR     A
        RLC     A
        MOV     R6,A
        CLR     0xa8.7
//  992 
//  993   if(updateRolloverflag == FALSE)
        MOV     DPTR,#updateRolloverflag
        MOVX    A,@DPTR
        JNZ     ??macMcuAccumulatedOverFlow_0
//  994   {
//  995     accumulatedOverflowCount += macGetBackOffTimerRollover();
        ; Setup parameters for call to function macGetBackOffTimerRollover
        LCALL   ??macGetBackOffTimerRollover?relay
        MOV     ?V0 + 0,R2
        MOV     ?V0 + 1,R3
        MOV     ?V0 + 2,R4
        MOV     ?V0 + 3,R5
        MOV     DPTR,#accumulatedOverflowCount
        MOV     R0,#?V0 + 0
        LCALL   ?L_ADD_TO_X
        SJMP    ??macMcuAccumulatedOverFlow_1
//  996   }
//  997   else
//  998   {
//  999     updateRolloverflag = FALSE;
??macMcuAccumulatedOverFlow_0:
        CLR     A
        MOVX    @DPTR,A
// 1000   }
// 1001 
// 1002   HAL_EXIT_CRITICAL_SECTION(s);
??macMcuAccumulatedOverFlow_1:
        MOV     A,R6
        MOV     C,0xE0 /* A   */.0
        MOV     0xa8.7,C
// 1003 }
        LJMP    ??Subroutine10_0 & 0xFFFF
          CFI EndBlock cfiBlock39
        REQUIRE _A_IEN0

        COMMON INTVEC:CODE:ROOT(0)
        ORG 3
`??macMcuRfErrIsr??INTVEC 3`:
        LJMP       (macMcuRfErrIsr)

        COMMON INTVEC:CODE:ROOT(0)
        ORG 83
`??macMcuTimer2Isr??INTVEC 83`:
        LJMP       (macMcuTimer2Isr)

        COMMON INTVEC:CODE:ROOT(0)
        ORG 131
`??macMcuRfIsr??INTVEC 131`:
        LJMP       (macMcuRfIsr)

        RSEG XDATA_ROM_C:CONST:REORDER:NOROOT(0)
        DATA32
__Constant_ff000000:
        DD 4278190080

        RSEG BANK_RELAYS:CODE:REORDER:NOROOT(0)
??MAC_SetRandomSeedCB?relay:
        CODE
        LCALL   ?BDISPATCH
        DATA24
        DC24    MAC_SetRandomSeedCB

        RSEG BANK_RELAYS:CODE:REORDER:NOROOT(0)
??macMcuInit?relay:
        CODE
        LCALL   ?BDISPATCH
        DATA24
        DC24    macMcuInit

        RSEG BANK_RELAYS:CODE:REORDER:NOROOT(0)
??macMcuRandomByte?relay:
        CODE
        LCALL   ?BDISPATCH
        DATA24
        DC24    macMcuRandomByte

        RSEG BANK_RELAYS:CODE:REORDER:NOROOT(0)
??macMcuRandomWord?relay:
        CODE
        LCALL   ?BDISPATCH
        DATA24
        DC24    macMcuRandomWord

        RSEG BANK_RELAYS:CODE:REORDER:NOROOT(0)
??macMcuTimerForceDelay?relay:
        CODE
        LCALL   ?BDISPATCH
        DATA24
        DC24    macMcuTimerForceDelay

        RSEG BANK_RELAYS:CODE:REORDER:NOROOT(0)
??macMcuTimerCapture?relay:
        CODE
        LCALL   ?BDISPATCH
        DATA24
        DC24    macMcuTimerCapture

        RSEG BANK_RELAYS:CODE:REORDER:NOROOT(0)
??macMcuOverflowCount?relay:
        CODE
        LCALL   ?BDISPATCH
        DATA24
        DC24    macMcuOverflowCount

        RSEG BANK_RELAYS:CODE:REORDER:NOROOT(0)
??macMcuOverflowCapture?relay:
        CODE
        LCALL   ?BDISPATCH
        DATA24
        DC24    macMcuOverflowCapture

        RSEG BANK_RELAYS:CODE:REORDER:NOROOT(0)
??macMcuOverflowSetCount?relay:
        CODE
        LCALL   ?BDISPATCH
        DATA24
        DC24    macMcuOverflowSetCount

        RSEG BANK_RELAYS:CODE:REORDER:NOROOT(0)
??macMcuOverflowSetCompare?relay:
        CODE
        LCALL   ?BDISPATCH
        DATA24
        DC24    macMcuOverflowSetCompare

        RSEG BANK_RELAYS:CODE:REORDER:NOROOT(0)
??macMcuOverflowSetPeriod?relay:
        CODE
        LCALL   ?BDISPATCH
        DATA24
        DC24    macMcuOverflowSetPeriod

        RSEG BANK_RELAYS:CODE:REORDER:NOROOT(0)
??macMcuTimer2OverflowWorkaround?relay:
        CODE
        LCALL   ?BDISPATCH
        DATA24
        DC24    macMcuTimer2OverflowWorkaround

        RSEG BANK_RELAYS:CODE:REORDER:NOROOT(0)
??macMcuPrecisionCount?relay:
        CODE
        LCALL   ?BDISPATCH
        DATA24
        DC24    macMcuPrecisionCount

        RSEG BANK_RELAYS:CODE:REORDER:NOROOT(0)
??macMcuRecordMaxRssiStart?relay:
        CODE
        LCALL   ?BDISPATCH
        DATA24
        DC24    macMcuRecordMaxRssiStart

        RSEG BANK_RELAYS:CODE:REORDER:NOROOT(0)
??macMcuRecordMaxRssiStop?relay:
        CODE
        LCALL   ?BDISPATCH
        DATA24
        DC24    macMcuRecordMaxRssiStop

        RSEG BANK_RELAYS:CODE:REORDER:NOROOT(0)
??macMcuAccumulatedOverFlow?relay:
        CODE
        LCALL   ?BDISPATCH
        DATA24
        DC24    macMcuAccumulatedOverFlow

        END
// 1004 
// 1005 
// 1006 /**************************************************************************************************
// 1007  *                                  Compile Time Integrity Checks
// 1008  **************************************************************************************************
// 1009  */
// 1010 #if ((IRQ_SFD != IM_SFD) || (IRQ_FIFOP != IM_FIFOP) || (IRQ_TXACKDONE != IM_TXACKDONE))
// 1011 #error "ERROR: Compile time error with RFIRQFx vs RFIRQMx register defines."
// 1012 #endif
// 1013 
// 1014 #if defined (FEATURE_CC253X_LOW_POWER_RX) && !(defined (HAL_MCU_CC2530) || defined (HAL_MCU_CC2533))
// 1015 #error "ERROR: FEATURE_CC253X_LOW_POWER_RX can only be used with CC2530 or CC2533."
// 1016 #endif
// 1017 
// 1018 /**************************************************************************************************
// 1019 */
// 
// 1 357 bytes in segment BANKED_CODE
//    96 bytes in segment BANK_RELAYS
//     9 bytes in segment INTVEC
//   238 bytes in segment NEAR_CODE
//    22 bytes in segment SFR_AN
//     4 bytes in segment XDATA_ROM_C
//    17 bytes in segment XDATA_Z
// 
// 1 691 bytes of CODE  memory (+  9 bytes shared)
//     0 bytes of CONST memory (+  4 bytes shared)
//     0 bytes of DATA  memory (+ 22 bytes shared)
//    17 bytes of XDATA memory
//
//Errors: none
//Warnings: none
