###############################################################################
#                                                                             #
# IAR C/C++ Compiler V8.20.2.41139 for 8051             27/Mar/2014  17:05:52 #
# Copyright 2004-2013 IAR Systems AB.                                         #
#                                                                             #
#    Core               =  plain                                              #
#    Code model         =  banked                                             #
#    Data model         =  large                                              #
#    Calling convention =  xdata reentrant                                    #
#    Constant location  =  data_rom                                           #
#    Dptr setup         =  1,16                                               #
#                                                                             #
#    Source file        =  D:\Texas Instruments\Z-Stack Lighting              #
#                          1.0.2\Components\mac\high_level\mac_pib.c          #
#    Command line       =  -f "D:\Texas Instruments\Z-Stack Lighting          #
#                          1.0.2\Projects\zstack\ZLL\SampleApp\CC253x\..\..\. #
#                          .\Tools\CC2530DB\f8wRouter.cfg" (-DCPU32MHZ        #
#                          -DROOT=__near_func -DMAC_CFG_APP_PENDING_QUEUE=TRU #
#                          E -DMAC_CFG_TX_DATA_MAX=5 -DMAC_CFG_TX_MAX=8       #
#                          -DMAC_CFG_RX_MAX=5 -DRTR_NWK) -f "D:\Texas         #
#                          Instruments\Z-Stack Lighting                       #
#                          1.0.2\Projects\zstack\ZLL\SampleApp\CC253x\..\..\. #
#                          .\Tools\CC2530DB\f8wConfig.cfg" (-DZIGBEEPRO       #
#                          -DSECURE=1 -DZG_SECURE_DYNAMIC=0 -DREFLECTOR       #
#                          -DDEFAULT_CHANLIST=0x00000800                      #
#                          -DZDAPP_CONFIG_PAN_ID=0xFFFF                       #
#                          -DNWK_START_DELAY=100 -DEXTENDED_JOINING_RANDOM_MA #
#                          SK=0x007F -DBEACON_REQUEST_DELAY=100               #
#                          -DBEACON_REQ_DELAY_MASK=0x00FF                     #
#                          -DLINK_STATUS_JITTER_MASK=0x007F                   #
#                          -DROUTE_EXPIRY_TIME=30 -DAPSC_ACK_WAIT_DURATION_PO #
#                          LLED=3000 -DNWK_INDIRECT_MSG_TIMEOUT=7             #
#                          -DMAX_RREQ_ENTRIES=8 -DAPSC_MAX_FRAME_RETRIES=3    #
#                          -DNWK_MAX_DATA_RETRIES=2                           #
#                          -DMAX_POLL_FAILURE_RETRIES=2 -DMAX_BCAST=9         #
#                          -DAPS_MAX_GROUPS=16 -DMAX_RTG_ENTRIES=40           #
#                          -DNWK_MAX_BINDING_ENTRIES=4                        #
#                          -DMAX_BINDING_CLUSTER_IDS=4 "-DDEFAULT_KEY={0x01,  #
#                          0x03, 0x05, 0x07, 0x09, 0x0B, 0x0D, 0x0F, 0x00,    #
#                          0x02, 0x04, 0x06, 0x08, 0x0A, 0x0C, 0x0D}"         #
#                          -DMAC_MAX_FRAME_SIZE=116                           #
#                          -DZDNWKMGR_MIN_TRANSMISSIONS=20 "-DCONST=const     #
#                          __code" -DGENERIC=__generic                        #
#                          -DRFD_RCVC_ALWAYS_ON=FALSE -DPOLL_RATE=1000        #
#                          -DQUEUED_POLL_RATE=100 -DRESPONSE_POLL_RATE=100    #
#                          -DREJOIN_POLL_RATE=440) -f "D:\Texas               #
#                          Instruments\Z-Stack Lighting                       #
#                          1.0.2\Projects\zstack\ZLL\SampleApp\CC253x\..\..\. #
#                          .\Tools\CC2530DB\f8wZCL.cfg" "D:\Texas             #
#                          Instruments\Z-Stack Lighting                       #
#                          1.0.2\Components\mac\high_level\mac_pib.c" -D      #
#                          FEATURE_GREEN_POWER -D SECURE=1 -D                 #
#                          TC_LINKKEY_JOIN -D ZDSECMGR_TC_DEVICE_MAX=2 -D     #
#                          NV_RESTORE -D HOLD_AUTO_START -D INTER_PAN -D      #
#                          ZTOOL_P1 -D MT_TASK -D MT_APP_FUNC -D MT_SYS_FUNC  #
#                          -D MT_ZDO_FUNC -D MT_ZDO_CB_FUNC -D MT_UTIL_FUNC   #
#                          -D MT_ZDO_MGMT -D LCD_SUPPORTED -D HAL_LCD=FALSE   #
#                          -D HAL_KEY=FALSE -D ZCL_BASIC -D ZCL_READ -D       #
#                          ZCL_WRITE -D ZCL_IDENTIFY -D ZCL_ON_OFF -D         #
#                          ZCL_SCENES -D ZCL_GROUPS -D                        #
#                          ZCL_LIGHT_LINK_ENHANCE -D ZCL_LEVEL_CTRL -D        #
#                          ZCL_COLOR_CTRL -D xMAX_CHANNELS_24GHZ=0x02108800   #
#                          -lC "D:\Texas Instruments\Z-Stack Lighting         #
#                          1.0.2\Projects\zstack\ZLL\SampleApp\CC253x\BridgeE #
#                          B-Pro\List\" -lA "D:\Texas Instruments\Z-Stack     #
#                          Lighting 1.0.2\Projects\zstack\ZLL\SampleApp\CC253 #
#                          x\BridgeEB-Pro\List\" --diag_suppress Pe001,Pa010  #
#                          -o "D:\Texas Instruments\Z-Stack Lighting          #
#                          1.0.2\Projects\zstack\ZLL\SampleApp\CC253x\BridgeE #
#                          B-Pro\Obj\" -e --debug --core=plain --dptr=16,1    #
#                          --data_model=large --code_model=banked             #
#                          --calling_convention=xdata_reentrant               #
#                          --place_constants=data_rom --nr_virtual_regs 16    #
#                          -I "D:\Texas Instruments\Z-Stack Lighting          #
#                          1.0.2\Projects\zstack\ZLL\SampleApp\CC253x\" -I    #
#                          "D:\Texas Instruments\Z-Stack Lighting             #
#                          1.0.2\Projects\zstack\ZLL\SampleApp\CC253x\..\Sour #
#                          ce\" -I "D:\Texas Instruments\Z-Stack Lighting     #
#                          1.0.2\Projects\zstack\ZLL\SampleApp\CC253x\..\..\S #
#                          ource\" -I "D:\Texas Instruments\Z-Stack Lighting  #
#                          1.0.2\Projects\zstack\ZLL\SampleApp\CC253x\..\..\. #
#                          .\HomeAutomation\Source\" -I "D:\Texas             #
#                          Instruments\Z-Stack Lighting                       #
#                          1.0.2\Projects\zstack\ZLL\SampleApp\CC253x\..\..\. #
#                          .\HomeAutomation\SampleLight\Source\" -I           #
#                          "D:\Texas Instruments\Z-Stack Lighting             #
#                          1.0.2\Projects\zstack\ZLL\SampleApp\CC253x\..\..\. #
#                          .\ZMain\TI2530DB\" -I "D:\Texas                    #
#                          Instruments\Z-Stack Lighting                       #
#                          1.0.2\Projects\zstack\ZLL\SampleApp\CC253x\..\..\. #
#                          .\..\..\Components\hal\include\" -I "D:\Texas      #
#                          Instruments\Z-Stack Lighting                       #
#                          1.0.2\Projects\zstack\ZLL\SampleApp\CC253x\..\..\. #
#                          .\..\..\Components\hal\target\CC2530EB\" -I        #
#                          "D:\Texas Instruments\Z-Stack Lighting             #
#                          1.0.2\Projects\zstack\ZLL\SampleApp\CC253x\..\..\. #
#                          .\..\..\Components\mac\include\" -I "D:\Texas      #
#                          Instruments\Z-Stack Lighting                       #
#                          1.0.2\Projects\zstack\ZLL\SampleApp\CC253x\..\..\. #
#                          .\..\..\Components\mac\high_level\" -I "D:\Texas   #
#                          Instruments\Z-Stack Lighting                       #
#                          1.0.2\Projects\zstack\ZLL\SampleApp\CC253x\..\..\. #
#                          .\..\..\Components\mac\low_level\srf04\" -I        #
#                          "D:\Texas Instruments\Z-Stack Lighting             #
#                          1.0.2\Projects\zstack\ZLL\SampleApp\CC253x\..\..\. #
#                          .\..\..\Components\mac\low_level\srf04\single_chip #
#                          \" -I "D:\Texas Instruments\Z-Stack Lighting       #
#                          1.0.2\Projects\zstack\ZLL\SampleApp\CC253x\..\..\. #
#                          .\..\..\Components\mt\" -I "D:\Texas               #
#                          Instruments\Z-Stack Lighting                       #
#                          1.0.2\Projects\zstack\ZLL\SampleApp\CC253x\..\..\. #
#                          .\..\..\Components\osal\include\" -I "D:\Texas     #
#                          Instruments\Z-Stack Lighting                       #
#                          1.0.2\Projects\zstack\ZLL\SampleApp\CC253x\..\..\. #
#                          .\..\..\Components\services\saddr\" -I "D:\Texas   #
#                          Instruments\Z-Stack Lighting                       #
#                          1.0.2\Projects\zstack\ZLL\SampleApp\CC253x\..\..\. #
#                          .\..\..\Components\services\sdata\" -I "D:\Texas   #
#                          Instruments\Z-Stack Lighting                       #
#                          1.0.2\Projects\zstack\ZLL\SampleApp\CC253x\..\..\. #
#                          .\..\..\Components\stack\af\" -I "D:\Texas         #
#                          Instruments\Z-Stack Lighting                       #
#                          1.0.2\Projects\zstack\ZLL\SampleApp\CC253x\..\..\. #
#                          .\..\..\Components\stack\nwk\" -I "D:\Texas        #
#                          Instruments\Z-Stack Lighting                       #
#                          1.0.2\Projects\zstack\ZLL\SampleApp\CC253x\..\..\. #
#                          .\..\..\Components\stack\sapi\" -I "D:\Texas       #
#                          Instruments\Z-Stack Lighting                       #
#                          1.0.2\Projects\zstack\ZLL\SampleApp\CC253x\..\..\. #
#                          .\..\..\Components\stack\sec\" -I "D:\Texas        #
#                          Instruments\Z-Stack Lighting                       #
#                          1.0.2\Projects\zstack\ZLL\SampleApp\CC253x\..\..\. #
#                          .\..\..\Components\stack\sys\" -I "D:\Texas        #
#                          Instruments\Z-Stack Lighting                       #
#                          1.0.2\Projects\zstack\ZLL\SampleApp\CC253x\..\..\. #
#                          .\..\..\Components\stack\zcl\" -I "D:\Texas        #
#                          Instruments\Z-Stack Lighting                       #
#                          1.0.2\Projects\zstack\ZLL\SampleApp\CC253x\..\..\. #
#                          .\..\..\Components\stack\zdo\" -I "D:\Texas        #
#                          Instruments\Z-Stack Lighting                       #
#                          1.0.2\Projects\zstack\ZLL\SampleApp\CC253x\..\..\. #
#                          .\..\..\Components\zmac\" -I "D:\Texas             #
#                          Instruments\Z-Stack Lighting                       #
#                          1.0.2\Projects\zstack\ZLL\SampleApp\CC253x\..\..\. #
#                          .\..\..\Components\zmac\f8w\" -Ohz                 #
#                          --require_prototypes                               #
#    List file          =  D:\Texas Instruments\Z-Stack Lighting              #
#                          1.0.2\Projects\zstack\ZLL\SampleApp\CC253x\BridgeE #
#                          B-Pro\List\mac_pib.lst                             #
#    Object file        =  D:\Texas Instruments\Z-Stack Lighting              #
#                          1.0.2\Projects\zstack\ZLL\SampleApp\CC253x\BridgeE #
#                          B-Pro\Obj\mac_pib.r51                              #
#                                                                             #
#                                                                             #
###############################################################################

D:\Texas Instruments\Z-Stack Lighting 1.0.2\Components\mac\high_level\mac_pib.c
      1          /**************************************************************************************************
      2            Filename:       mac_pib.c
      3            Revised:        $Date: 2013-06-13 09:40:13 -0700 (Thu, 13 Jun 2013) $
      4            Revision:       $Revision: 34575 $
      5          
      6            Description:    This module contains procedures for the MAC PIB.
      7          
      8          
      9            Copyright 2006-2013 Texas Instruments Incorporated. All rights reserved.
     10          
     11            IMPORTANT: Your use of this Software is limited to those specific rights
     12            granted under the terms of a software license agreement between the user
     13            who downloaded the software, his/her employer (which must be your employer)
     14            and Texas Instruments Incorporated (the "License").  You may not use this
     15            Software unless you agree to abide by the terms of the License. The License
     16            limits your use, and you acknowledge, that the Software may not be modified,
     17            copied or distributed unless embedded on a Texas Instruments microcontroller
     18            or used solely and exclusively in conjunction with a Texas Instruments radio
     19            frequency transceiver, which is integrated into your product.  Other than for
     20            the foregoing purpose, you may not use, reproduce, copy, prepare derivative
     21            works of, modify, distribute, perform, display or sell this Software and/or
     22            its documentation for any purpose.
     23          
     24            YOU FURTHER ACKNOWLEDGE AND AGREE THAT THE SOFTWARE AND DOCUMENTATION ARE
     25            PROVIDED “AS IS” WITHOUT WARRANTY OF ANY KIND, EITHER EXPRESS OR IMPLIED,
     26            INCLUDING WITHOUT LIMITATION, ANY WARRANTY OF MERCHANTABILITY, TITLE,
     27            NON-INFRINGEMENT AND FITNESS FOR A PARTICULAR PURPOSE. IN NO EVENT SHALL
     28            TEXAS INSTRUMENTS OR ITS LICENSORS BE LIABLE OR OBLIGATED UNDER CONTRACT,
     29            NEGLIGENCE, STRICT LIABILITY, CONTRIBUTION, BREACH OF WARRANTY, OR OTHER
     30            LEGAL EQUITABLE THEORY ANY DIRECT OR INDIRECT DAMAGES OR EXPENSES
     31            INCLUDING BUT NOT LIMITED TO ANY INCIDENTAL, SPECIAL, INDIRECT, PUNITIVE
     32            OR CONSEQUENTIAL DAMAGES, LOST PROFITS OR LOST DATA, COST OF PROCUREMENT
     33            OF SUBSTITUTE GOODS, TECHNOLOGY, SERVICES, OR ANY CLAIMS BY THIRD PARTIES
     34            (INCLUDING BUT NOT LIMITED TO ANY DEFENSE THEREOF), OR OTHER SIMILAR COSTS.
     35          
     36            Should you have any questions regarding your right to use this Software,
     37            contact Texas Instruments Incorporated at www.TI.com.
     38          **************************************************************************************************/
     39          
     40          /* ------------------------------------------------------------------------------------------------
     41           *                                          Includes
     42           * ------------------------------------------------------------------------------------------------
     43           */
     44          #include "hal_mcu.h"

   \                                 In  segment SFR_AN, at 0xa8
   \   union <unnamed> volatile __sfr _A_IEN0
   \                     _A_IEN0:
   \   000000                DS 1
     45          #include "hal_board.h"
     46          #include "mac_api.h"
     47          #include "mac_spec.h"
     48          #include "mac_low_level.h"
     49          #include "mac_radio_defs.h"
     50          #include "mac_main.h"
     51          #include "mac_pib.h"
     52          #include "OSAL.h"
     53          #include <stddef.h>
     54          
     55          #if defined( CC26XX )
     56            #include "flash_JT.h"
     57          #endif /* CC26XX */
     58          
     59          /* ------------------------------------------------------------------------------------------------
     60           *                                           Constants
     61           * ------------------------------------------------------------------------------------------------
     62           */
     63          
     64          /* Attribute index constants, based on attribute ID values from spec */
     65          #define MAC_ATTR_SET1_START       0x40
     66          #define MAC_ATTR_SET1_END         0x5D
     67          #define MAC_ATTR_SET1_OFFSET      0
     68          #define MAC_ATTR_SET2_START       0xE0
     69          #define MAC_ATTR_SET2_END         0xE5
     70          #define MAC_ATTR_SET2_OFFSET      (MAC_ATTR_SET1_END - MAC_ATTR_SET1_START + MAC_ATTR_SET1_OFFSET + 1)
     71          
     72          /* frame response values */
     73          #define MAC_MAX_FRAME_RESPONSE_MIN  143
     74          #define MAC_MAX_FRAME_RESPONSE_MAX  25776
     75          
     76          /* ------------------------------------------------------------------------------------------------
     77           *                                           Typedefs
     78           * ------------------------------------------------------------------------------------------------
     79           */
     80          
     81          /* PIB access and min/max table type */
     82          typedef struct
     83          {
     84            uint8     offset;
     85            uint8     len;
     86            uint8     min;
     87            uint8     max;
     88          } macPibTbl_t;
     89          
     90          /* ------------------------------------------------------------------------------------------------
     91           *                                           Local Variables
     92           * ------------------------------------------------------------------------------------------------
     93           */
     94          
     95          /* PIB default values */

   \                                 In  segment CODE_C, align 1
     96          static CODE const macPib_t macPibDefaults =
   \                     macPibDefaults:
   \   000000   36           DB 54
   \   000001   00           DB 0
   \   000002   01           DB 1
   \   000003   00           DB 0
   \   000004   06           DB 6
   \   000005   0000         DW 0H
   \   000007   00           DB 0
   \   000008   0F           DB 15
   \   000009   00000000     DD 0
   \   00000D   00           DB 0
   \   00000E   0000         DW 0
   \   000010   00000000     DB 0, 0, 0, 0, 0, 0
   \            0000    
   \   000016   03           DB 3
   \   000017   FFFF         DW 65535
   \   000019   00           DB 0
   \   00001A   00           DB 0
   \   00001B   04           DB 4
   \   00001C   03           DB 3
   \   00001D   FFFF         DW 65535
   \   00001F   00           DB 0
   \   000020   00           DB 0
   \   000021   FFFF         DW 65535
   \   000023   0F           DB 15
   \   000024   F401         DW 500
   \   000026   00           DB 0
   \   000027   05           DB 5
   \   000028   C404         DW 1220
   \   00002A   03           DB 3
   \   00002B   20           DB 32
   \   00002C   00           DB 0
   \   00002D   01           DB 1
   \   00002E   00           DB 0
   \   00002F   00           DB 0
   \   000030   0B           DB 11
   \   000031   0000         DW 0
   \   000033   00000000     DB 0, 0, 0, 0, 0, 0
   \            0000    
   \   000039   03           DB 3
   \   00003A   01           DB 1
   \   00003B   0F           DB 15
   \   00003C   00           DB 0
     97          {
     98            54,                                         /* ackWaitDuration */
     99            FALSE,                                      /* associationPermit */
    100            TRUE,                                       /* autoRequest */
    101            FALSE,                                      /* battLifeExt */
    102            6,                                          /* battLifeExtPeriods */
    103          
    104            NULL,                                       /* *pMacBeaconPayload */
    105            0,                                          /* beaconPayloadLength */
    106            MAC_BO_NON_BEACON,                          /* beaconOrder */
    107            0,                                          /* beaconTxTime */
    108            0,                                          /* bsn */
    109          
    110            {0, SADDR_MODE_EXT},                        /* coordExtendedAddress */
    111            MAC_SHORT_ADDR_NONE,                        /* coordShortAddress */
    112            0,                                          /* dsn */
    113            FALSE,                                      /* gtsPermit */
    114            4,                                          /* maxCsmaBackoffs */
    115          
    116            3,                                          /* minBe */
    117            0xFFFF,                                     /* panId */
    118            FALSE,                                      /* promiscuousMode */
    119            FALSE,                                      /* rxOnWhenIdle */
    120            MAC_SHORT_ADDR_NONE,                        /* shortAddress */
    121          
    122            MAC_SO_NONE,                                /* superframeOrder */
    123            0x01F4,                                     /* transactionPersistenceTime */
    124            FALSE,                                      /* assocciatedPanCoord */
    125            5,                                          /* maxBe */
    126            1220,                                       /* maxFrameTotalWaitTime */
    127          
    128            3,                                          /* maxFrameRetries */
    129            32,                                         /* ResponseWaitTime */
    130            0,                                          /* syncSymbolOffset */
    131            TRUE,                                       /* timeStampSupported */
    132            FALSE,                                      /* securityEnabled */
    133          
    134            /* Proprietary */
    135          #if defined (HAL_PA_LNA)
    136            19,                                         /* phyTransmitPower for CC2591 */
    137          #elif defined (HAL_PA_LNA_CC2590)
    138            11,                                         /* phyTransmitPower for CC2590 */
    139          #else
    140            0,                                          /* phyTransmitPower without frontend */
    141          #endif
    142            MAC_CHAN_11,                                /* logicalChannel */
    143            {0, SADDR_MODE_EXT},                        /* extendedAddress */
    144            1,                                          /* altBe */
    145            MAC_BO_NON_BEACON,                          /* deviceBeaconOrder */
    146            0,                                          /* power savings for rf4ce */
    147          };
    148          
    149          /* PIB access and min/max table.  min/max of 0/0 means not checked; if min/max are
    150           * equal, element is read-only
    151           */

   \                                 In  segment CODE_C, align 1
    152          static CODE const macPibTbl_t macPibTbl[] =
   \                     macPibTbl:
   \   000000   00           DB 0
   \   000001   01           DB 1
   \   000002   36           DB 54
   \   000003   36           DB 54
   \   000004   01           DB 1
   \   000005   01           DB 1
   \   000006   00           DB 0
   \   000007   01           DB 1
   \   000008   02           DB 2
   \   000009   01           DB 1
   \   00000A   00           DB 0
   \   00000B   01           DB 1
   \   00000C   03           DB 3
   \   00000D   01           DB 1
   \   00000E   00           DB 0
   \   00000F   01           DB 1
   \   000010   04           DB 4
   \   000011   01           DB 1
   \   000012   06           DB 6
   \   000013   06           DB 6
   \   000014   05           DB 5
   \   000015   02           DB 2
   \   000016   00           DB 0
   \   000017   00           DB 0
   \   000018   07           DB 7
   \   000019   01           DB 1
   \   00001A   00           DB 0
   \   00001B   34           DB 52
   \   00001C   08           DB 8
   \   00001D   01           DB 1
   \   00001E   00           DB 0
   \   00001F   0F           DB 15
   \   000020   09           DB 9
   \   000021   04           DB 4
   \   000022   01           DB 1
   \   000023   01           DB 1
   \   000024   0D           DB 13
   \   000025   01           DB 1
   \   000026   00           DB 0
   \   000027   FF           DB 255
   \   000028   0E           DB 14
   \   000029   08           DB 8
   \   00002A   00           DB 0
   \   00002B   00           DB 0
   \   00002C   17           DB 23
   \   00002D   02           DB 2
   \   00002E   00           DB 0
   \   00002F   00           DB 0
   \   000030   19           DB 25
   \   000031   01           DB 1
   \   000032   00           DB 0
   \   000033   FF           DB 255
   \   000034   1A           DB 26
   \   000035   01           DB 1
   \   000036   00           DB 0
   \   000037   01           DB 1
   \   000038   1B           DB 27
   \   000039   01           DB 1
   \   00003A   00           DB 0
   \   00003B   FE           DB 254
   \   00003C   1C           DB 28
   \   00003D   01           DB 1
   \   00003E   00           DB 0
   \   00003F   08           DB 8
   \   000040   1D           DB 29
   \   000041   02           DB 2
   \   000042   00           DB 0
   \   000043   00           DB 0
   \   000044   1F           DB 31
   \   000045   01           DB 1
   \   000046   00           DB 0
   \   000047   01           DB 1
   \   000048   20           DB 32
   \   000049   01           DB 1
   \   00004A   00           DB 0
   \   00004B   01           DB 1
   \   00004C   21           DB 33
   \   00004D   02           DB 2
   \   00004E   00           DB 0
   \   00004F   00           DB 0
   \   000050   23           DB 35
   \   000051   01           DB 1
   \   000052   00           DB 0
   \   000053   0F           DB 15
   \   000054   24           DB 36
   \   000055   02           DB 2
   \   000056   00           DB 0
   \   000057   00           DB 0
   \   000058   26           DB 38
   \   000059   01           DB 1
   \   00005A   00           DB 0
   \   00005B   01           DB 1
   \   00005C   27           DB 39
   \   00005D   01           DB 1
   \   00005E   00           DB 0
   \   00005F   08           DB 8
   \   000060   28           DB 40
   \   000061   02           DB 2
   \   000062   00           DB 0
   \   000063   FF           DB 255
   \   000064   2A           DB 42
   \   000065   01           DB 1
   \   000066   00           DB 0
   \   000067   07           DB 7
   \   000068   2B           DB 43
   \   000069   01           DB 1
   \   00006A   02           DB 2
   \   00006B   40           DB 64
   \   00006C   2C           DB 44
   \   00006D   01           DB 1
   \   00006E   00           DB 0
   \   00006F   00           DB 0
   \   000070   2D           DB 45
   \   000071   01           DB 1
   \   000072   00           DB 0
   \   000073   01           DB 1
   \   000074   2E           DB 46
   \   000075   01           DB 1
   \   000076   00           DB 0
   \   000077   01           DB 1
   \   000078   2F           DB 47
   \   000079   01           DB 1
   \   00007A   00           DB 0
   \   00007B   FF           DB 255
   \   00007C   30           DB 48
   \   00007D   01           DB 1
   \   00007E   0B           DB 11
   \   00007F   1C           DB 28
   \   000080   31           DB 49
   \   000081   08           DB 8
   \   000082   00           DB 0
   \   000083   00           DB 0
   \   000084   3A           DB 58
   \   000085   01           DB 1
   \   000086   00           DB 0
   \   000087   08           DB 8
   \   000088   3B           DB 59
   \   000089   01           DB 1
   \   00008A   00           DB 0
   \   00008B   0F           DB 15
   \   00008C   3C           DB 60
   \   00008D   01           DB 1
   \   00008E   00           DB 0
   \   00008F   01           DB 1
    153          {
    154            {offsetof(macPib_t, ackWaitDuration), sizeof(uint8), 54, 54},                      /* MAC_ACK_WAIT_DURATION */
    155            {offsetof(macPib_t, associationPermit), sizeof(bool), FALSE, TRUE},                /* MAC_ASSOCIATION_PERMIT */
    156            {offsetof(macPib_t, autoRequest), sizeof(bool), FALSE, TRUE},                      /* MAC_AUTO_REQUEST */
    157            {offsetof(macPib_t, battLifeExt), sizeof(bool), FALSE, TRUE},                      /* MAC_BATT_LIFE_EXT */
    158            {offsetof(macPib_t, battLifeExtPeriods), sizeof(uint8), 6, 6},                     /* MAC_BATT_LIFE_EXT_PERIODS */
    159          
    160            {offsetof(macPib_t, pBeaconPayload), sizeof(uint8 *), 0, 0},                       /* MAC_BEACON_PAYLOAD */
    161            {offsetof(macPib_t, beaconPayloadLength), sizeof(uint8), 0, 52},                   /* MAC_BEACON_PAYLOAD_LENGTH */
    162            {offsetof(macPib_t, beaconOrder), sizeof(uint8), 0, 15},                           /* MAC_BEACON_ORDER */
    163            {offsetof(macPib_t, beaconTxTime), sizeof(uint32), 1, 1},                          /* MAC_BEACON_TX_TIME */
    164            {offsetof(macPib_t, bsn), sizeof(uint8), 0x00, 0xFF},                              /* MAC_BSN */
    165          
    166            {offsetof(macPib_t, coordExtendedAddress.addr.extAddr), sizeof(sAddrExt_t), 0, 0}, /* MAC_COORD_EXTENDED_ADDRESS */
    167            {offsetof(macPib_t, coordShortAddress), sizeof(uint16), 0, 0},                     /* MAC_COORD_SHORT_ADDRESS */
    168            {offsetof(macPib_t, dsn), sizeof(uint8), 0x00, 0xFF},                              /* MAC_DSN */
    169            {offsetof(macPib_t, gtsPermit), sizeof(bool), FALSE, TRUE},                        /* MAC_GTS_PERMIT */
    170          
    171            /* Range of maxCsmaBackoffs is between 0 and 5 in IEEE 802.15.4.
    172             * Such restriction is removed here to allow 802.15.4 non-compliant experimental
    173             * applications.
    174             * To be compliant with 802.15.4, application or upper layer must not set this
    175             * PIB attribute out of range of 802.15.4.
    176             * The range is still restricted to 254 since value 255 would cause backoff
    177             * counter to overflow, wrap around and loop infinitely. */
    178            {offsetof(macPib_t, maxCsmaBackoffs), sizeof(uint8), 0, 254},                      /* MAC_MAX_CSMA_BACKOFFS */
    179          
    180            {offsetof(macPib_t, minBe), sizeof(uint8), 0, 8},                                  /* MAC_MIN_BE */
    181            {offsetof(macPib_t, panId), sizeof(uint16), 0, 0},                                 /* MAC_PAN_ID */
    182            {offsetof(macPib_t, promiscuousMode), sizeof(bool), FALSE, TRUE},                  /* MAC_PROMISCUOUS_MODE */
    183            {offsetof(macPib_t, rxOnWhenIdle), sizeof(bool), FALSE, TRUE},                     /* MAC_RX_ON_WHEN_IDLE */
    184            {offsetof(macPib_t, shortAddress), sizeof(uint16), 0, 0},                          /* MAC_SHORT_ADDRESS */
    185          
    186            {offsetof(macPib_t, superframeOrder), sizeof(uint8), 0, 15},                       /* MAC_SUPERFRAME_ORDER */
    187            {offsetof(macPib_t, transactionPersistenceTime), sizeof(uint16), 0, 0},            /* MAC_TRANSACTION_PERSISTENCE_TIME */
    188            {offsetof(macPib_t, associatedPanCoord), sizeof(bool), FALSE, TRUE},               /* MAC_ASSOCIATED_PAN_COORD */
    189          
    190            /* Range of maxBe is between 3 and 8 in IEEE 802.15.4.
    191             * Such restriction is removed here to allow 802.15.4 non-compliant experimental
    192             * applications.
    193             * To be compliant with 802.15.4, application or upper layer must not set this
    194             * PIB attribute out of range of 802.15.4. */
    195            {offsetof(macPib_t, maxBe), sizeof(uint8), 0, 8},                                  /* MAC_MAX_BE */
    196            {offsetof(macPib_t, maxFrameTotalWaitTime), sizeof(uint16), 0x00, 0xFF},           /* MAC_MAX_FRAME_RESPONSE_TIME */
    197          
    198            {offsetof(macPib_t, maxFrameRetries), sizeof(uint8), 0, 7},                        /* MAC_MAX_FRAME_RETRIES */
    199            {offsetof(macPib_t, responseWaitTime), sizeof(uint8), 2, 64},                      /* MAC_RESPONSE_WAIT_TIME */
    200            {offsetof(macPib_t, syncSymbolOffset), sizeof(uint8), 0, 0},                       /* MAC_SYNC_SYMBOL_OFFSET */
    201            {offsetof(macPib_t, timeStampSupported), sizeof(bool), FALSE, TRUE},               /* MAC_TIMESTAMP_SUPPORTED */
    202            {offsetof(macPib_t, securityEnabled), sizeof(bool), FALSE, TRUE},                  /* MAC_SECURITY_ENABLED */
    203          
    204            /* Proprietary PIBs */
    205            {offsetof(macPib_t, phyTransmitPower), sizeof(uint8), 0, 0xFF},                    /* MAC_PHY_TRANSMIT_POWER_SIGNED */
    206            {offsetof(macPib_t, logicalChannel), sizeof(uint8), MAC_CHAN_11, MAC_CHAN_28},     /* MAC_LOGICAL_CHANNEL */
    207            {offsetof(macPib_t, extendedAddress.addr.extAddr), sizeof(sAddrExt_t), 0, 0},      /* MAC_EXTENDED_ADDRESS */
    208            {offsetof(macPib_t, altBe), sizeof(uint8), 0, 8},                                  /* MAC_ALT_BE */
    209            {offsetof(macPib_t, deviceBeaconOrder), sizeof(uint8), 0, 15},                     /* MAC_DEVICE_BEACON_ORDER */
    210            {offsetof(macPib_t, rf4cepowerSavings), sizeof(uint8), 0, 1},                      /* MAC_RF4CE_POWER_SAVINGS */
    211          };
    212          
    213          /* Invalid PIB table index used for error code */
    214          #define MAC_PIB_INVALID     ((uint8) (sizeof(macPibTbl) / sizeof(macPibTbl[0])))
    215          
    216          /* ------------------------------------------------------------------------------------------------
    217           *                                           Global Variables
    218           * ------------------------------------------------------------------------------------------------
    219           */
    220          
    221          /* MAC PIB */

   \                                 In  segment XDATA_Z, align 1, keep-with-next
    222          macPib_t macPib;
   \                     macPib:
   \   000000                DS 61
   \   00003D                REQUIRE __INIT_XDATA_Z
    223          
    224          extern uint8 MAC_MlmeGetReqSize( uint8 pibAttribute );
    225          
    226          /**************************************************************************************************
    227           * @fn          macPibReset
    228           *
    229           * @brief       This function initializes the PIB.
    230           *
    231           * input parameters
    232           *
    233           * @param       None.
    234           *
    235           * output parameters
    236           *
    237           * None.
    238           *
    239           * @return      None.
    240           **************************************************************************************************
    241           */

   \                                 In  segment BANKED_CODE, align 1, keep-with-next
    242          MAC_INTERNAL_API void macPibReset(void)
   \                     macPibReset:
    243          {
   \   000000   C082         PUSH    DPL
   \   000002   C083         PUSH    DPH
   \   000004                ; Saved register size: 2
   \   000004                ; Auto size: 0
    244            /* copy PIB defaults */
    245            macPib = macPibDefaults;
   \   000004   90....       MOV     DPTR,#macPibDefaults
   \   000007   7C..         MOV     R4,#macPib & 0xff
   \   000009   7D..         MOV     R5,#(macPib >> 8) & 0xff
   \   00000B   743D         MOV     A,#0x3d
   \   00000D   12....       LCALL   ?MOVE_LONG8_XDATA_CODE
    246          
    247            /* initialize random sequence numbers */
    248            macPib.dsn = macRadioRandomByte();
   \   000010                ; Setup parameters for call to function macRadioRandomByte
   \   000010   12....       LCALL   ??macRadioRandomByte?relay
   \   000013   E9           MOV     A,R1
   \   000014   90....       MOV     DPTR,#macPib + 25
   \   000017   F0           MOVX    @DPTR,A
    249            macPib.bsn = macRadioRandomByte();
   \   000018                ; Setup parameters for call to function macRadioRandomByte
   \   000018   12....       LCALL   ??macRadioRandomByte?relay
   \   00001B   E9           MOV     A,R1
   \   00001C   90....       MOV     DPTR,#macPib + 13
   \   00001F   F0           MOVX    @DPTR,A
    250          }
   \   000020   D083         POP     DPH
   \   000022   D082         POP     DPL
   \   000024   02....       LJMP    ?BRET
    251          
    252          /**************************************************************************************************
    253           * @fn          macPibIndex
    254           *
    255           * @brief       This function takes an PIB attribute and returns the index in to
    256           *              macPibTbl for the attribute.
    257           *
    258           * input parameters
    259           *
    260           * @param       pibAttribute - PIB attribute to look up.
    261           *
    262           * output parameters
    263           *
    264           * None.
    265           *
    266           * @return      Index in to macPibTbl for the attribute or MAC_PIB_INVALID.
    267           **************************************************************************************************
    268           */

   \                                 In  segment BANKED_CODE, align 1, keep-with-next
    269          static uint8 macPibIndex(uint8 pibAttribute)
   \                     macPibIndex:
    270          {
   \   000000                ; Saved register size: 0
   \   000000                ; Auto size: 0
   \   000000   E9           MOV     A,R1
   \   000001   F8           MOV     R0,A
    271            if ((pibAttribute >= MAC_ATTR_SET1_START) && (pibAttribute <= MAC_ATTR_SET1_END))
   \   000002   74C0         MOV     A,#-0x40
   \   000004   28           ADD     A,R0
   \   000005   F9           MOV     R1,A
   \   000006   C3           CLR     C
   \   000007   941E         SUBB    A,#0x1e
   \   000009   4010         JC      ??macPibIndex_0
    272            {
    273              return (pibAttribute - MAC_ATTR_SET1_START + MAC_ATTR_SET1_OFFSET);
    274            }
    275            else if ((pibAttribute >= MAC_ATTR_SET2_START) && (pibAttribute <= MAC_ATTR_SET2_END))
   \   00000B   7420         MOV     A,#0x20
   \   00000D   28           ADD     A,R0
   \   00000E   C3           CLR     C
   \   00000F   9406         SUBB    A,#0x6
   \   000011   5006         JNC     ??macPibIndex_1
    276            {
    277              return (pibAttribute - MAC_ATTR_SET2_START + MAC_ATTR_SET2_OFFSET);
   \   000013   743E         MOV     A,#0x3e
   \   000015   28           ADD     A,R0
   \   000016   F9           MOV     R1,A
   \   000017   8002         SJMP    ??macPibIndex_0
    278            }
    279            else
    280            {
    281              return MAC_PIB_INVALID;
   \                     ??macPibIndex_1:
   \   000019   7924         MOV     R1,#0x24
   \                     ??macPibIndex_0:
   \   00001B   02....       LJMP    ?BRET
    282            }
    283          }
    284          
    285          
    286          /**************************************************************************************************
    287           * @fn          MAC_MlmeGetReq
    288           *
    289           * @brief       This direct execute function retrieves an attribute value
    290           *              from the MAC PIB.
    291           *
    292           * input parameters
    293           *
    294           * @param       pibAttribute - The attribute identifier.
    295           * @param       pValue - pointer to the attribute value.
    296           *
    297           * output parameters
    298           *
    299           * @param       pValue - pointer to the attribute value.
    300           *
    301           * @return      The status of the request, as follows:
    302           *              MAC_SUCCESS Operation successful.
    303           *              MAC_UNSUPPORTED_ATTRIBUTE Attribute not found.
    304           *
    305           **************************************************************************************************
    306           */

   \                                 In  segment BANKED_CODE, align 1, keep-with-next
    307          uint8 MAC_MlmeGetReq(uint8 pibAttribute, void *pValue)
   \                     MAC_MlmeGetReq:
    308          {
   \   000000   74F3         MOV     A,#-0xd
   \   000002   12....       LCALL   ?BANKED_ENTER_XDATA
   \   000005                ; Saved register size: 13
   \   000005                ; Auto size: 0
   \   000005   EA           MOV     A,R2
   \   000006   FE           MOV     R6,A
   \   000007   EB           MOV     A,R3
   \   000008   FF           MOV     R7,A
    309            uint8         i;
    310            halIntState_t intState;
    311          
    312            if ((i = macPibIndex(pibAttribute)) == MAC_PIB_INVALID)
   \   000009                ; Setup parameters for call to function macPibIndex
   \   000009   12....       LCALL   ??macPibIndex?relay
   \   00000C   E9           MOV     A,R1
   \   00000D   F5..         MOV     ?V0 + 0,A
   \   00000F   7424         MOV     A,#0x24
   \   000011   65..         XRL     A,?V0 + 0
   \   000013   7004         JNZ     ??MAC_MlmeGetReq_0
    313            {
    314              return MAC_UNSUPPORTED_ATTRIBUTE;
   \   000015   79F4         MOV     R1,#-0xc
   \   000017   8054         SJMP    ??MAC_MlmeGetReq_1
    315            }
    316          
    317            HAL_ENTER_CRITICAL_SECTION(intState);
   \                     ??MAC_MlmeGetReq_0:
   \   000019   E5A8         MOV     A,0xa8
   \   00001B   F5..         MOV     ?V0 + 4,A
   \   00001D   C2AF         CLR     0xa8.7
    318            osal_memcpy(pValue, (uint8 *) &macPib + macPibTbl[i].offset, macPibTbl[i].len);
   \   00001F   75..00       MOV     ?V0 + 1,#0x0
   \   000022   7402         MOV     A,#0x2
   \   000024   78..         MOV     R0,#?V0 + 0
   \   000026   12....       LCALL   ?S_SHL
   \   000029   74..         MOV     A,#macPibTbl & 0xff
   \   00002B   25..         ADD     A,?V0 + 0
   \   00002D   FA           MOV     R2,A
   \   00002E   74..         MOV     A,#(macPibTbl >> 8) & 0xff
   \   000030   35..         ADDC    A,?V0 + 1
   \   000032   FB           MOV     R3,A
   \   000033                ; Setup parameters for call to function osal_memcpy
   \   000033   8A82         MOV     DPL,R2
   \   000035   8B83         MOV     DPH,R3
   \   000037   E4           CLR     A
   \   000038   93           MOVC    A,@A+DPTR
   \   000039   F8           MOV     R0,A
   \   00003A   74..         MOV     A,#macPib & 0xff
   \   00003C   28           ADD     A,R0
   \   00003D   F5..         MOV     ?V0 + 0,A
   \   00003F   74..         MOV     A,#(macPib >> 8) & 0xff
   \   000041   3400         ADDC    A,#0x0
   \   000043   F5..         MOV     ?V0 + 1,A
   \   000045   75..00       MOV     ?V0 + 2,#0x0
   \   000048   78..         MOV     R0,#?V0 + 0
   \   00004A   12....       LCALL   ?PUSH_XSTACK_I_THREE
   \   00004D   8A82         MOV     DPL,R2
   \   00004F   8B83         MOV     DPH,R3
   \   000051   A3           INC     DPTR
   \   000052   E4           CLR     A
   \   000053   93           MOVC    A,@A+DPTR
   \   000054   FC           MOV     R4,A
   \   000055   7D00         MOV     R5,#0x0
   \   000057   EE           MOV     A,R6
   \   000058   FA           MOV     R2,A
   \   000059   EF           MOV     A,R7
   \   00005A   FB           MOV     R3,A
   \   00005B   12....       LCALL   ??osal_memcpy?relay
   \   00005E   7403         MOV     A,#0x3
   \   000060   12....       LCALL   ?DEALLOC_XSTACK8
    319            HAL_EXIT_CRITICAL_SECTION(intState);
   \   000063   E5..         MOV     A,?V0 + 4
   \   000065   A2E7         MOV     C,0xE0 /* A   */.7
   \   000067   A2E7         MOV     C,0xE0 /* A   */.7
   \   000069   92AF         MOV     0xa8.7,C
    320            return MAC_SUCCESS;
   \   00006B   7900         MOV     R1,#0x0
   \                     ??MAC_MlmeGetReq_1:
   \   00006D   7F05         MOV     R7,#0x5
   \   00006F   02....       LJMP    ?BANKED_LEAVE_XDATA
   \   000072                REQUIRE _A_IEN0
    321          }
    322          
    323          /**************************************************************************************************
    324           * @fn          MAC_MlmeGetReqSize
    325           *
    326           * @brief       This direct execute function gets the MAC PIB attribute size
    327           *
    328           * input parameters
    329           *
    330           * @param       pibAttribute - The attribute identifier.
    331           *
    332           * output parameters
    333           *
    334           * None.
    335           *
    336           * @return      size in bytes
    337           *
    338           **************************************************************************************************
    339           */

   \                                 In  segment BANKED_CODE, align 1, keep-with-next
    340          uint8 MAC_MlmeGetReqSize( uint8 pibAttribute )
   \                     MAC_MlmeGetReqSize:
    341          {
   \   000000   74F6         MOV     A,#-0xa
   \   000002   12....       LCALL   ?BANKED_ENTER_XDATA
   \   000005                ; Saved register size: 10
   \   000005                ; Auto size: 0
    342            uint8 index;
    343          
    344            if ((index = macPibIndex(pibAttribute)) == MAC_PIB_INVALID)
   \   000005                ; Setup parameters for call to function macPibIndex
   \   000005   12....       LCALL   ??macPibIndex?relay
   \   000008   E9           MOV     A,R1
   \   000009   F5..         MOV     ?V0 + 0,A
   \   00000B   7424         MOV     A,#0x24
   \   00000D   65..         XRL     A,?V0 + 0
   \   00000F   7004         JNZ     ??MAC_MlmeGetReqSize_0
    345            {
    346              return 0;
   \   000011   7900         MOV     R1,#0x0
   \   000013   8019         SJMP    ??MAC_MlmeGetReqSize_1
    347            }
    348          
    349            return ( macPibTbl[index].len );
   \                     ??MAC_MlmeGetReqSize_0:
   \   000015   75..00       MOV     ?V0 + 1,#0x0
   \   000018   7402         MOV     A,#0x2
   \   00001A   78..         MOV     R0,#?V0 + 0
   \   00001C   12....       LCALL   ?S_SHL
   \   00001F   74..         MOV     A,#(macPibTbl + 1) & 0xff
   \   000021   25..         ADD     A,?V0 + 0
   \   000023   F582         MOV     DPL,A
   \   000025   74..         MOV     A,#((macPibTbl + 1) >> 8) & 0xff
   \   000027   35..         ADDC    A,?V0 + 1
   \   000029   F583         MOV     DPH,A
   \   00002B   E4           CLR     A
   \   00002C   93           MOVC    A,@A+DPTR
   \   00002D   F9           MOV     R1,A
   \                     ??MAC_MlmeGetReqSize_1:
   \   00002E   7F02         MOV     R7,#0x2
   \   000030   02....       LJMP    ?BANKED_LEAVE_XDATA
    350          }
    351          
    352          /**************************************************************************************************
    353           * @fn          MAC_MlmeSetReq
    354           *
    355           * @brief       This direct execute function sets an attribute value
    356           *              in the MAC PIB.
    357           *
    358           * input parameters
    359           *
    360           * @param       pibAttribute - The attribute identifier.
    361           * @param       pValue - pointer to the attribute value.
    362           *
    363           * output parameters
    364           *
    365           * None.
    366           *
    367           * @return      The status of the request, as follows:
    368           *              MAC_SUCCESS Operation successful.
    369           *              MAC_UNSUPPORTED_ATTRIBUTE Attribute not found.
    370           *
    371           **************************************************************************************************
    372           */

   \                                 In  segment BANKED_CODE, align 1, keep-with-next
    373          uint8 MAC_MlmeSetReq(uint8 pibAttribute, void *pValue)
   \                     MAC_MlmeSetReq:
    374          {
   \   000000   74F1         MOV     A,#-0xf
   \   000002   12....       LCALL   ?BANKED_ENTER_XDATA
   \   000005                ; Saved register size: 15
   \   000005                ; Auto size: 0
   \   000005   89..         MOV     ?V0 + 0,R1
   \   000007   EA           MOV     A,R2
   \   000008   FE           MOV     R6,A
   \   000009   EB           MOV     A,R3
   \   00000A   FF           MOV     R7,A
    375            uint8         i;
    376            halIntState_t intState;
    377          
    378            if (pibAttribute == MAC_BEACON_PAYLOAD)
   \   00000B   7445         MOV     A,#0x45
   \   00000D   65..         XRL     A,?V0 + 0
   \   00000F   700A         JNZ     ??MAC_MlmeSetReq_0
    379            {
    380              macPib.pBeaconPayload = pValue;
   \   000011   90....       MOV     DPTR,#macPib + 5
   \   000014   EE           MOV     A,R6
   \   000015   F0           MOVX    @DPTR,A
   \   000016   A3           INC     DPTR
   \   000017   EF           MOV     A,R7
   \   000018   02....       LJMP    ??MAC_MlmeSetReq_1 & 0xFFFF
    381              return MAC_SUCCESS;
    382            }
    383          
    384            /* look up attribute in PIB table */
    385            if ((i = macPibIndex(pibAttribute)) == MAC_PIB_INVALID)
   \                     ??MAC_MlmeSetReq_0:
   \   00001B                ; Setup parameters for call to function macPibIndex
   \   00001B   12....       LCALL   ??macPibIndex?relay
   \   00001E   E9           MOV     A,R1
   \   00001F   F5..         MOV     ?V0 + 2,A
   \   000021   7424         MOV     A,#0x24
   \   000023   65..         XRL     A,?V0 + 2
   \   000025   7005         JNZ     ??MAC_MlmeSetReq_2
    386            {
    387              return MAC_UNSUPPORTED_ATTRIBUTE;
   \   000027   79F4         MOV     R1,#-0xc
   \   000029   02....       LJMP    ??MAC_MlmeSetReq_3 & 0xFFFF
    388            }
    389          
    390            /* do range check; no range check if min and max are zero */
    391            if ((macPibTbl[i].min != 0) || (macPibTbl[i].max != 0))
   \                     ??MAC_MlmeSetReq_2:
   \   00002C   75..00       MOV     ?V0 + 3,#0x0
   \   00002F   7402         MOV     A,#0x2
   \   000031   78..         MOV     R0,#?V0 + 2
   \   000033   12....       LCALL   ?S_SHL
   \   000036   74..         MOV     A,#macPibTbl & 0xff
   \   000038   25..         ADD     A,?V0 + 2
   \   00003A   FA           MOV     R2,A
   \   00003B   74..         MOV     A,#(macPibTbl >> 8) & 0xff
   \   00003D   35..         ADDC    A,?V0 + 3
   \   00003F   FB           MOV     R3,A
   \   000040   EA           MOV     A,R2
   \   000041   2402         ADD     A,#0x2
   \   000043   F8           MOV     R0,A
   \   000044   EB           MOV     A,R3
   \   000045   3400         ADDC    A,#0x0
   \   000047   F9           MOV     R1,A
   \   000048   8882         MOV     DPL,R0
   \   00004A   8983         MOV     DPH,R1
   \   00004C   E4           CLR     A
   \   00004D   93           MOVC    A,@A+DPTR
   \   00004E   F5..         MOV     ?V0 + 1,A
   \   000050   EA           MOV     A,R2
   \   000051   2403         ADD     A,#0x3
   \   000053   FC           MOV     R4,A
   \   000054   EB           MOV     A,R3
   \   000055   3400         ADDC    A,#0x0
   \   000057   FD           MOV     R5,A
   \   000058   E5..         MOV     A,?V0 + 1
   \   00005A   7008         JNZ     ??MAC_MlmeSetReq_4
   \   00005C   8C82         MOV     DPL,R4
   \   00005E   8D83         MOV     DPH,R5
   \   000060   E4           CLR     A
   \   000061   93           MOVC    A,@A+DPTR
   \   000062   6053         JZ      ??MAC_MlmeSetReq_5
    392            {
    393              /* if min == max, this is a read-only attribute */
    394              if (macPibTbl[i].min == macPibTbl[i].max)
   \                     ??MAC_MlmeSetReq_4:
   \   000064   8C82         MOV     DPL,R4
   \   000066   8D83         MOV     DPH,R5
   \   000068   E4           CLR     A
   \   000069   93           MOVC    A,@A+DPTR
   \   00006A   65..         XRL     A,?V0 + 1
   \   00006C   7005         JNZ     ??MAC_MlmeSetReq_6
    395              {
    396                return MAC_READ_ONLY;
   \   00006E   79FB         MOV     R1,#-0x5
   \   000070   02....       LJMP    ??MAC_MlmeSetReq_3 & 0xFFFF
    397              }
    398          
    399              /* check for special cases */
    400              if (pibAttribute == MAC_MAX_FRAME_TOTAL_WAIT_TIME)
   \                     ??MAC_MlmeSetReq_6:
   \   000073   7458         MOV     A,#0x58
   \   000075   65..         XRL     A,?V0 + 0
   \   000077   701A         JNZ     ??MAC_MlmeSetReq_7
    401              {
    402                if ((*((uint16 *) pValue) < MAC_MAX_FRAME_RESPONSE_MIN) ||
    403                    (*((uint16 *) pValue) > MAC_MAX_FRAME_RESPONSE_MAX))
   \   000079   8E82         MOV     DPL,R6
   \   00007B   8F83         MOV     DPH,R7
   \   00007D   E0           MOVX    A,@DPTR
   \   00007E   2471         ADD     A,#0x71
   \   000080   F5..         MOV     ?V0 + 2,A
   \   000082   A3           INC     DPTR
   \   000083   E0           MOVX    A,@DPTR
   \   000084   34FF         ADDC    A,#-0x1
   \   000086   F5..         MOV     ?V0 + 3,A
   \   000088   C3           CLR     C
   \   000089   E5..         MOV     A,?V0 + 2
   \   00008B   9422         SUBB    A,#0x22
   \   00008D   E5..         MOV     A,?V0 + 3
   \   00008F   9464         SUBB    A,#0x64
   \   000091   501F         JNC     ??MAC_MlmeSetReq_8
    404                {
    405                  return MAC_INVALID_PARAMETER;
    406                }
    407              }
    408          
    409              /* range check for general case */
    410              if ((*((uint8 *) pValue) < macPibTbl[i].min) || (*((uint8 *) pValue) > macPibTbl[i].max))
   \                     ??MAC_MlmeSetReq_7:
   \   000093   8E82         MOV     DPL,R6
   \   000095   8F83         MOV     DPH,R7
   \   000097   E0           MOVX    A,@DPTR
   \   000098   F5..         MOV     ?V0 + 1,A
   \   00009A   8882         MOV     DPL,R0
   \   00009C   8983         MOV     DPH,R1
   \   00009E   E4           CLR     A
   \   00009F   93           MOVC    A,@A+DPTR
   \   0000A0   F8           MOV     R0,A
   \   0000A1   E5..         MOV     A,?V0 + 1
   \   0000A3   C3           CLR     C
   \   0000A4   98           SUBB    A,R0
   \   0000A5   400B         JC      ??MAC_MlmeSetReq_8
   \   0000A7   8C82         MOV     DPL,R4
   \   0000A9   8D83         MOV     DPH,R5
   \   0000AB   E4           CLR     A
   \   0000AC   93           MOVC    A,@A+DPTR
   \   0000AD   C3           CLR     C
   \   0000AE   95..         SUBB    A,?V0 + 1
   \   0000B0   5005         JNC     ??MAC_MlmeSetReq_5
    411              {
    412                return MAC_INVALID_PARAMETER;
   \                     ??MAC_MlmeSetReq_8:
   \   0000B2   79E8         MOV     R1,#-0x18
   \   0000B4   02....       LJMP    ??MAC_MlmeSetReq_3 & 0xFFFF
    413              }
    414          
    415            }
    416          
    417            /* set value in PIB */
    418            HAL_ENTER_CRITICAL_SECTION(intState);
   \                     ??MAC_MlmeSetReq_5:
   \   0000B7   E5A8         MOV     A,0xa8
   \   0000B9   F5..         MOV     ?V0 + 1,A
   \   0000BB   C2AF         CLR     0xa8.7
    419            osal_memcpy((uint8 *) &macPib + macPibTbl[i].offset, pValue, macPibTbl[i].len);
   \   0000BD                ; Setup parameters for call to function osal_memcpy
   \   0000BD   8E..         MOV     ?V0 + 4,R6
   \   0000BF   8F..         MOV     ?V0 + 5,R7
   \   0000C1   75..00       MOV     ?V0 + 6,#0x0
   \   0000C4   78..         MOV     R0,#?V0 + 4
   \   0000C6   12....       LCALL   ?PUSH_XSTACK_I_THREE
   \   0000C9   8A82         MOV     DPL,R2
   \   0000CB   8B83         MOV     DPH,R3
   \   0000CD   A3           INC     DPTR
   \   0000CE   E4           CLR     A
   \   0000CF   93           MOVC    A,@A+DPTR
   \   0000D0   FC           MOV     R4,A
   \   0000D1   7D00         MOV     R5,#0x0
   \   0000D3   8A82         MOV     DPL,R2
   \   0000D5   8B83         MOV     DPH,R3
   \   0000D7   E4           CLR     A
   \   0000D8   93           MOVC    A,@A+DPTR
   \   0000D9   F8           MOV     R0,A
   \   0000DA   74..         MOV     A,#macPib & 0xff
   \   0000DC   28           ADD     A,R0
   \   0000DD   FA           MOV     R2,A
   \   0000DE   74..         MOV     A,#(macPib >> 8) & 0xff
   \   0000E0   3400         ADDC    A,#0x0
   \   0000E2   FB           MOV     R3,A
   \   0000E3   12....       LCALL   ??osal_memcpy?relay
   \   0000E6   7403         MOV     A,#0x3
   \   0000E8   12....       LCALL   ?DEALLOC_XSTACK8
    420            HAL_EXIT_CRITICAL_SECTION(intState);
   \   0000EB   E5..         MOV     A,?V0 + 1
   \   0000ED   A2E7         MOV     C,0xE0 /* A   */.7
   \   0000EF   A2E7         MOV     C,0xE0 /* A   */.7
   \   0000F1   92AF         MOV     0xa8.7,C
    421          
    422            /* handle special cases */
    423            switch (pibAttribute)
   \   0000F3   E5..         MOV     A,?V0 + 0
   \   0000F5   24B0         ADD     A,#-0x50
   \   0000F7   6017         JZ      ??MAC_MlmeSetReq_9
   \   0000F9   24FE         ADD     A,#-0x2
   \   0000FB   602D         JZ      ??MAC_MlmeSetReq_10
   \   0000FD   14           DEC     A
   \   0000FE   601D         JZ      ??MAC_MlmeSetReq_11
   \   000100   2473         ADD     A,#0x73
   \   000102   604B         JZ      ??MAC_MlmeSetReq_12
   \   000104   14           DEC     A
   \   000105   6035         JZ      ??MAC_MlmeSetReq_13
   \   000107   14           DEC     A
   \   000108   603C         JZ      ??MAC_MlmeSetReq_14
   \   00010A   24FD         ADD     A,#-0x3
   \   00010C   604B         JZ      ??MAC_MlmeSetReq_15
   \   00010E   8052         SJMP    ??MAC_MlmeSetReq_16
    424            {
    425              case MAC_PAN_ID:
    426                /* set pan id in radio */
    427                macRadioSetPanID(macPib.panId);
   \                     ??MAC_MlmeSetReq_9:
   \   000110                ; Setup parameters for call to function macRadioSetPanID
   \   000110   90....       MOV     DPTR,#macPib + 29
   \   000113   E0           MOVX    A,@DPTR
   \   000114   FA           MOV     R2,A
   \   000115   A3           INC     DPTR
   \   000116   E0           MOVX    A,@DPTR
   \   000117   FB           MOV     R3,A
   \   000118   12....       LCALL   ??macRadioSetPanID?relay
    428                break;
   \   00011B   8045         SJMP    ??MAC_MlmeSetReq_16
    429          
    430              case MAC_SHORT_ADDRESS:
    431                /* set short address in radio */
    432                macRadioSetShortAddr(macPib.shortAddress);
   \                     ??MAC_MlmeSetReq_11:
   \   00011D                ; Setup parameters for call to function macRadioSetShortAddr
   \   00011D   90....       MOV     DPTR,#macPib + 33
   \   000120   E0           MOVX    A,@DPTR
   \   000121   FA           MOV     R2,A
   \   000122   A3           INC     DPTR
   \   000123   E0           MOVX    A,@DPTR
   \   000124   FB           MOV     R3,A
   \   000125   12....       LCALL   ??macRadioSetShortAddr?relay
    433                break;
   \   000128   8038         SJMP    ??MAC_MlmeSetReq_16
    434          
    435              case MAC_RX_ON_WHEN_IDLE:
    436                /* turn rx on or off */
    437                if (macPib.rxOnWhenIdle)
   \                     ??MAC_MlmeSetReq_10:
   \   00012A   90....       MOV     DPTR,#macPib + 32
   \   00012D   E0           MOVX    A,@DPTR
   \   00012E   7902         MOV     R1,#0x2
   \   000130   6005         JZ      ??MAC_MlmeSetReq_17
    438                {
    439                  macRxEnable(MAC_RX_WHEN_IDLE);
   \   000132                ; Setup parameters for call to function macRxEnable
   \   000132   12....       LCALL   ??macRxEnable?relay
   \   000135   802B         SJMP    ??MAC_MlmeSetReq_16
    440                }
    441                else
    442                {
    443                  macRxDisable(MAC_RX_WHEN_IDLE);
   \                     ??MAC_MlmeSetReq_17:
   \   000137                ; Setup parameters for call to function macRxDisable
   \   000137   12....       LCALL   ??macRxDisable?relay
   \   00013A   8026         SJMP    ??MAC_MlmeSetReq_16
    444                }
    445                break;
    446          
    447              case MAC_LOGICAL_CHANNEL:
    448                macRadioSetChannel(macPib.logicalChannel);
   \                     ??MAC_MlmeSetReq_13:
   \   00013C                ; Setup parameters for call to function macRadioSetChannel
   \   00013C   90....       MOV     DPTR,#macPib + 48
   \   00013F   E0           MOVX    A,@DPTR
   \   000140   F9           MOV     R1,A
   \   000141   12....       LCALL   ??macRadioSetChannel?relay
    449                break;
   \   000144   801C         SJMP    ??MAC_MlmeSetReq_16
    450          
    451              case MAC_EXTENDED_ADDRESS:
    452                /* set ext address in radio */
    453                macRadioSetIEEEAddr(macPib.extendedAddress.addr.extAddr);
   \                     ??MAC_MlmeSetReq_14:
   \   000146                ; Setup parameters for call to function macRadioSetIEEEAddr
   \   000146   7A..         MOV     R2,#(macPib + 49) & 0xff
   \   000148   7B..         MOV     R3,#((macPib + 49) >> 8) & 0xff
   \   00014A   12....       LCALL   ??macRadioSetIEEEAddr?relay
    454                break;
   \   00014D   8013         SJMP    ??MAC_MlmeSetReq_16
    455          
    456              case MAC_PHY_TRANSMIT_POWER_SIGNED:
    457                (void)macRadioSetTxPower(macPib.phyTransmitPower);
   \                     ??MAC_MlmeSetReq_12:
   \   00014F                ; Setup parameters for call to function macRadioSetTxPower
   \   00014F   90....       MOV     DPTR,#macPib + 47
   \   000152   E0           MOVX    A,@DPTR
   \   000153   F9           MOV     R1,A
   \   000154   12....       LCALL   ??macRadioSetTxPower?relay
    458                break;
   \   000157   8009         SJMP    ??MAC_MlmeSetReq_16
    459          
    460              case MAC_RF4CE_POWER_SAVINGS:
    461                macPib.rf4cepowerSavings = *(uint8 *)pValue;
   \                     ??MAC_MlmeSetReq_15:
   \   000159   8E82         MOV     DPL,R6
   \   00015B   8F83         MOV     DPH,R7
   \   00015D   E0           MOVX    A,@DPTR
   \   00015E   90....       MOV     DPTR,#macPib + 60
   \                     ??MAC_MlmeSetReq_1:
   \   000161   F0           MOVX    @DPTR,A
    462                break;
    463          
    464              default:
    465                break;
    466            }
    467          
    468            return MAC_SUCCESS;
   \                     ??MAC_MlmeSetReq_16:
   \   000162   7900         MOV     R1,#0x0
   \                     ??MAC_MlmeSetReq_3:
   \   000164   7F07         MOV     R7,#0x7
   \   000166   02....       LJMP    ?BANKED_LEAVE_XDATA
   \   000169                REQUIRE _A_IEN0
    469          }

   \                                 In  segment BANK_RELAYS, align 1
   \                     ??macPibReset?relay:
   \   000000   12....       LCALL   ?BDISPATCH
   \   000003   ......       DC24    macPibReset

   \                                 In  segment BANK_RELAYS, align 1
   \                     ??macPibIndex?relay:
   \   000000   12....       LCALL   ?BDISPATCH
   \   000003   ......       DC24    macPibIndex

   \                                 In  segment BANK_RELAYS, align 1
   \                     ??MAC_MlmeGetReq?relay:
   \   000000   12....       LCALL   ?BDISPATCH
   \   000003   ......       DC24    MAC_MlmeGetReq

   \                                 In  segment BANK_RELAYS, align 1
   \                     ??MAC_MlmeGetReqSize?relay:
   \   000000   12....       LCALL   ?BDISPATCH
   \   000003   ......       DC24    MAC_MlmeGetReqSize

   \                                 In  segment BANK_RELAYS, align 1
   \                     ??MAC_MlmeSetReq?relay:
   \   000000   12....       LCALL   ?BDISPATCH
   \   000003   ......       DC24    MAC_MlmeSetReq
    470          

   Maximum stack usage in bytes:

   ISTACK PSTACK XSTACK Function
   ------ ------ ------ --------
       0      0     16  MAC_MlmeGetReq
                          0 0 13 -> macPibIndex
                          0 0 16 -> osal_memcpy
       0      0     10  MAC_MlmeGetReqSize
                          0 0 10 -> macPibIndex
       0      0     18  MAC_MlmeSetReq
                          0 0 15 -> macPibIndex
                          0 0 15 -> macRadioSetChannel
                          0 0 15 -> macRadioSetIEEEAddr
                          0 0 15 -> macRadioSetPanID
                          0 0 15 -> macRadioSetShortAddr
                          0 0 15 -> macRadioSetTxPower
                          0 0 15 -> macRxDisable
                          0 0 15 -> macRxEnable
                          0 0 18 -> osal_memcpy
       0      0     15  macPibIndex
       2      0      0  macPibReset
                          2 0  0 -> macRadioRandomByte


   Segment part sizes:

   Bytes  Function/Label
   -----  --------------
       6  ??MAC_MlmeGetReq?relay
       6  ??MAC_MlmeGetReqSize?relay
       6  ??MAC_MlmeSetReq?relay
       6  ??macPibIndex?relay
       6  ??macPibReset?relay
     114  MAC_MlmeGetReq
      51  MAC_MlmeGetReqSize
     361  MAC_MlmeSetReq
       1  _A_IEN0
      61  macPib
      61  macPibDefaults
      30  macPibIndex
      39  macPibReset
     144  macPibTbl

 
 595 bytes in segment BANKED_CODE
  30 bytes in segment BANK_RELAYS
 205 bytes in segment CODE_C
   1 byte  in segment SFR_AN
  61 bytes in segment XDATA_Z
 
 830 bytes of CODE  memory
   0 bytes of DATA  memory (+ 1 byte shared)
  61 bytes of XDATA memory

Errors: none
Warnings: none
