///////////////////////////////////////////////////////////////////////////////
//                                                                            /
// IAR C/C++ Compiler V8.20.2.41139 for 8051            27/Mar/2014  17:05:49 /
// Copyright 2004-2013 IAR Systems AB.                                        /
//                                                                            /
//    Core               =  plain                                             /
//    Code model         =  banked                                            /
//    Data model         =  large                                             /
//    Calling convention =  xdata reentrant                                   /
//    Constant location  =  data_rom                                          /
//    Dptr setup         =  1,16                                              /
//                                                                            /
//    Source file        =  D:\Texas Instruments\Z-Stack Lighting             /
//                          1.0.2\Components\mac\low_level\srf04\mac_autopend /
//                          .c                                                /
//    Command line       =  -f "D:\Texas Instruments\Z-Stack Lighting         /
//                          1.0.2\Projects\zstack\ZLL\SampleApp\CC253x\..\..\ /
//                          ..\Tools\CC2530DB\f8wRouter.cfg" (-DCPU32MHZ      /
//                          -DROOT=__near_func -DMAC_CFG_APP_PENDING_QUEUE=TR /
//                          UE -DMAC_CFG_TX_DATA_MAX=5 -DMAC_CFG_TX_MAX=8     /
//                          -DMAC_CFG_RX_MAX=5 -DRTR_NWK) -f "D:\Texas        /
//                          Instruments\Z-Stack Lighting                      /
//                          1.0.2\Projects\zstack\ZLL\SampleApp\CC253x\..\..\ /
//                          ..\Tools\CC2530DB\f8wConfig.cfg" (-DZIGBEEPRO     /
//                          -DSECURE=1 -DZG_SECURE_DYNAMIC=0 -DREFLECTOR      /
//                          -DDEFAULT_CHANLIST=0x00000800                     /
//                          -DZDAPP_CONFIG_PAN_ID=0xFFFF                      /
//                          -DNWK_START_DELAY=100 -DEXTENDED_JOINING_RANDOM_M /
//                          ASK=0x007F -DBEACON_REQUEST_DELAY=100             /
//                          -DBEACON_REQ_DELAY_MASK=0x00FF                    /
//                          -DLINK_STATUS_JITTER_MASK=0x007F                  /
//                          -DROUTE_EXPIRY_TIME=30 -DAPSC_ACK_WAIT_DURATION_P /
//                          OLLED=3000 -DNWK_INDIRECT_MSG_TIMEOUT=7           /
//                          -DMAX_RREQ_ENTRIES=8 -DAPSC_MAX_FRAME_RETRIES=3   /
//                          -DNWK_MAX_DATA_RETRIES=2                          /
//                          -DMAX_POLL_FAILURE_RETRIES=2 -DMAX_BCAST=9        /
//                          -DAPS_MAX_GROUPS=16 -DMAX_RTG_ENTRIES=40          /
//                          -DNWK_MAX_BINDING_ENTRIES=4                       /
//                          -DMAX_BINDING_CLUSTER_IDS=4                       /
//                          "-DDEFAULT_KEY={0x01, 0x03, 0x05, 0x07, 0x09,     /
//                          0x0B, 0x0D, 0x0F, 0x00, 0x02, 0x04, 0x06, 0x08,   /
//                          0x0A, 0x0C, 0x0D}" -DMAC_MAX_FRAME_SIZE=116       /
//                          -DZDNWKMGR_MIN_TRANSMISSIONS=20 "-DCONST=const    /
//                          __code" -DGENERIC=__generic                       /
//                          -DRFD_RCVC_ALWAYS_ON=FALSE -DPOLL_RATE=1000       /
//                          -DQUEUED_POLL_RATE=100 -DRESPONSE_POLL_RATE=100   /
//                          -DREJOIN_POLL_RATE=440) -f "D:\Texas              /
//                          Instruments\Z-Stack Lighting                      /
//                          1.0.2\Projects\zstack\ZLL\SampleApp\CC253x\..\..\ /
//                          ..\Tools\CC2530DB\f8wZCL.cfg" "D:\Texas           /
//                          Instruments\Z-Stack Lighting                      /
//                          1.0.2\Components\mac\low_level\srf04\mac_autopend /
//                          .c" -D FEATURE_GREEN_POWER -D SECURE=1 -D         /
//                          TC_LINKKEY_JOIN -D ZDSECMGR_TC_DEVICE_MAX=2 -D    /
//                          NV_RESTORE -D HOLD_AUTO_START -D INTER_PAN -D     /
//                          ZTOOL_P1 -D MT_TASK -D MT_APP_FUNC -D             /
//                          MT_SYS_FUNC -D MT_ZDO_FUNC -D MT_ZDO_CB_FUNC -D   /
//                          MT_UTIL_FUNC -D MT_ZDO_MGMT -D LCD_SUPPORTED -D   /
//                          HAL_LCD=FALSE -D HAL_KEY=FALSE -D ZCL_BASIC -D    /
//                          ZCL_READ -D ZCL_WRITE -D ZCL_IDENTIFY -D          /
//                          ZCL_ON_OFF -D ZCL_SCENES -D ZCL_GROUPS -D         /
//                          ZCL_LIGHT_LINK_ENHANCE -D ZCL_LEVEL_CTRL -D       /
//                          ZCL_COLOR_CTRL -D xMAX_CHANNELS_24GHZ=0x02108800  /
//                          -lC "D:\Texas Instruments\Z-Stack Lighting        /
//                          1.0.2\Projects\zstack\ZLL\SampleApp\CC253x\Bridge /
//                          EB-Pro\List\" -lA "D:\Texas Instruments\Z-Stack   /
//                          Lighting 1.0.2\Projects\zstack\ZLL\SampleApp\CC25 /
//                          3x\BridgeEB-Pro\List\" --diag_suppress            /
//                          Pe001,Pa010 -o "D:\Texas Instruments\Z-Stack      /
//                          Lighting 1.0.2\Projects\zstack\ZLL\SampleApp\CC25 /
//                          3x\BridgeEB-Pro\Obj\" -e --debug --core=plain     /
//                          --dptr=16,1 --data_model=large                    /
//                          --code_model=banked --calling_convention=xdata_re /
//                          entrant --place_constants=data_rom                /
//                          --nr_virtual_regs 16 -I "D:\Texas                 /
//                          Instruments\Z-Stack Lighting                      /
//                          1.0.2\Projects\zstack\ZLL\SampleApp\CC253x\" -I   /
//                          "D:\Texas Instruments\Z-Stack Lighting            /
//                          1.0.2\Projects\zstack\ZLL\SampleApp\CC253x\..\Sou /
//                          rce\" -I "D:\Texas Instruments\Z-Stack Lighting   /
//                          1.0.2\Projects\zstack\ZLL\SampleApp\CC253x\..\..\ /
//                          Source\" -I "D:\Texas Instruments\Z-Stack         /
//                          Lighting 1.0.2\Projects\zstack\ZLL\SampleApp\CC25 /
//                          3x\..\..\..\HomeAutomation\Source\" -I "D:\Texas  /
//                          Instruments\Z-Stack Lighting                      /
//                          1.0.2\Projects\zstack\ZLL\SampleApp\CC253x\..\..\ /
//                          ..\HomeAutomation\SampleLight\Source\" -I         /
//                          "D:\Texas Instruments\Z-Stack Lighting            /
//                          1.0.2\Projects\zstack\ZLL\SampleApp\CC253x\..\..\ /
//                          ..\ZMain\TI2530DB\" -I "D:\Texas                  /
//                          Instruments\Z-Stack Lighting                      /
//                          1.0.2\Projects\zstack\ZLL\SampleApp\CC253x\..\..\ /
//                          ..\..\..\Components\hal\include\" -I "D:\Texas    /
//                          Instruments\Z-Stack Lighting                      /
//                          1.0.2\Projects\zstack\ZLL\SampleApp\CC253x\..\..\ /
//                          ..\..\..\Components\hal\target\CC2530EB\" -I      /
//                          "D:\Texas Instruments\Z-Stack Lighting            /
//                          1.0.2\Projects\zstack\ZLL\SampleApp\CC253x\..\..\ /
//                          ..\..\..\Components\mac\include\" -I "D:\Texas    /
//                          Instruments\Z-Stack Lighting                      /
//                          1.0.2\Projects\zstack\ZLL\SampleApp\CC253x\..\..\ /
//                          ..\..\..\Components\mac\high_level\" -I           /
//                          "D:\Texas Instruments\Z-Stack Lighting            /
//                          1.0.2\Projects\zstack\ZLL\SampleApp\CC253x\..\..\ /
//                          ..\..\..\Components\mac\low_level\srf04\" -I      /
//                          "D:\Texas Instruments\Z-Stack Lighting            /
//                          1.0.2\Projects\zstack\ZLL\SampleApp\CC253x\..\..\ /
//                          ..\..\..\Components\mac\low_level\srf04\single_ch /
//                          ip\" -I "D:\Texas Instruments\Z-Stack Lighting    /
//                          1.0.2\Projects\zstack\ZLL\SampleApp\CC253x\..\..\ /
//                          ..\..\..\Components\mt\" -I "D:\Texas             /
//                          Instruments\Z-Stack Lighting                      /
//                          1.0.2\Projects\zstack\ZLL\SampleApp\CC253x\..\..\ /
//                          ..\..\..\Components\osal\include\" -I "D:\Texas   /
//                          Instruments\Z-Stack Lighting                      /
//                          1.0.2\Projects\zstack\ZLL\SampleApp\CC253x\..\..\ /
//                          ..\..\..\Components\services\saddr\" -I           /
//                          "D:\Texas Instruments\Z-Stack Lighting            /
//                          1.0.2\Projects\zstack\ZLL\SampleApp\CC253x\..\..\ /
//                          ..\..\..\Components\services\sdata\" -I           /
//                          "D:\Texas Instruments\Z-Stack Lighting            /
//                          1.0.2\Projects\zstack\ZLL\SampleApp\CC253x\..\..\ /
//                          ..\..\..\Components\stack\af\" -I "D:\Texas       /
//                          Instruments\Z-Stack Lighting                      /
//                          1.0.2\Projects\zstack\ZLL\SampleApp\CC253x\..\..\ /
//                          ..\..\..\Components\stack\nwk\" -I "D:\Texas      /
//                          Instruments\Z-Stack Lighting                      /
//                          1.0.2\Projects\zstack\ZLL\SampleApp\CC253x\..\..\ /
//                          ..\..\..\Components\stack\sapi\" -I "D:\Texas     /
//                          Instruments\Z-Stack Lighting                      /
//                          1.0.2\Projects\zstack\ZLL\SampleApp\CC253x\..\..\ /
//                          ..\..\..\Components\stack\sec\" -I "D:\Texas      /
//                          Instruments\Z-Stack Lighting                      /
//                          1.0.2\Projects\zstack\ZLL\SampleApp\CC253x\..\..\ /
//                          ..\..\..\Components\stack\sys\" -I "D:\Texas      /
//                          Instruments\Z-Stack Lighting                      /
//                          1.0.2\Projects\zstack\ZLL\SampleApp\CC253x\..\..\ /
//                          ..\..\..\Components\stack\zcl\" -I "D:\Texas      /
//                          Instruments\Z-Stack Lighting                      /
//                          1.0.2\Projects\zstack\ZLL\SampleApp\CC253x\..\..\ /
//                          ..\..\..\Components\stack\zdo\" -I "D:\Texas      /
//                          Instruments\Z-Stack Lighting                      /
//                          1.0.2\Projects\zstack\ZLL\SampleApp\CC253x\..\..\ /
//                          ..\..\..\Components\zmac\" -I "D:\Texas           /
//                          Instruments\Z-Stack Lighting                      /
//                          1.0.2\Projects\zstack\ZLL\SampleApp\CC253x\..\..\ /
//                          ..\..\..\Components\zmac\f8w\" -Ohz               /
//                          --require_prototypes                              /
//    List file          =  D:\Texas Instruments\Z-Stack Lighting             /
//                          1.0.2\Projects\zstack\ZLL\SampleApp\CC253x\Bridge /
//                          EB-Pro\List\mac_autopend.s51                      /
//                                                                            /
//                                                                            /
///////////////////////////////////////////////////////////////////////////////

        NAME mac_autopend

        RTMODEL "__SystemLibrary", "CLib"
        RTMODEL "__calling_convention", "xdata_reentrant"
        RTMODEL "__code_model", "banked"
        RTMODEL "__core", "plain"
        RTMODEL "__data_model", "large"
        RTMODEL "__dptr_size", "16"
        RTMODEL "__extended_stack", "disabled"
        RTMODEL "__location_for_constants", "data"
        RTMODEL "__number_of_dptrs", "1"
        RTMODEL "__rt_version", "1"

        RSEG DOVERLAY:DATA:NOROOT(0)
        RSEG IOVERLAY:IDATA:NOROOT(0)
        RSEG ISTACK:IDATA:NOROOT(0)
        RSEG PSTACK:XDATA:NOROOT(0)
        RSEG XSTACK:XDATA:NOROOT(0)

        EXTERN ?ALLOC_XSTACK8
        EXTERN ?BANKED_ENTER_XDATA
        EXTERN ?BANKED_LEAVE_XDATA
        EXTERN ?BDISPATCH
        EXTERN ?BRET
        EXTERN ?DEALLOC_XSTACK8
        EXTERN ?L_AND
        EXTERN ?L_IOR
        EXTERN ?L_NOT
        EXTERN ?L_SHL
        EXTERN ?PUSH_XSTACK_I_FOUR
        EXTERN ?PUSH_XSTACK_I_THREE
        EXTERN ?S_SHL
        EXTERN ?V0
        EXTERN ?XSP
        EXTERN ?XSTACK_DISP0_8
        EXTERN __INIT_XDATA_Z

        PUBLIC ??MAC_SrcMatchAckAllPending?relay
        FUNCTION ??MAC_SrcMatchAckAllPending?relay,0203H
        PUBLIC ??MAC_SrcMatchAddEntry?relay
        FUNCTION ??MAC_SrcMatchAddEntry?relay,0203H
        PUBLIC ??MAC_SrcMatchCheckAllPending?relay
        FUNCTION ??MAC_SrcMatchCheckAllPending?relay,0203H
        PUBLIC ??MAC_SrcMatchCheckResult?relay
        FUNCTION ??MAC_SrcMatchCheckResult?relay,0203H
        PUBLIC ??MAC_SrcMatchDeleteEntry?relay
        FUNCTION ??MAC_SrcMatchDeleteEntry?relay,0203H
        PUBLIC ??MAC_SrcMatchEnable?relay
        FUNCTION ??MAC_SrcMatchEnable?relay,0203H
        FUNCTION ??macSrcMatchCheckSrcAddr?relay,0203H
        FUNCTION ??macSrcMatchGetExtAddrEnableBit?relay,0203H
        FUNCTION ??macSrcMatchGetShortAddrEnableBit?relay,0203H
        FUNCTION ??macSrcMatchSetEnableBit?relay,0203H
        PUBLIC MAC_SrcMatchAckAllPending
        FUNCTION MAC_SrcMatchAckAllPending,0203H
        ARGFRAME XSTACK, 0, STACK
        LOCFRAME ISTACK, 2, STACK
        PUBLIC MAC_SrcMatchAddEntry
        FUNCTION MAC_SrcMatchAddEntry,021203H
        ARGFRAME XSTACK, 0, STACK
        LOCFRAME ISTACK, 1, STACK
        LOCFRAME XSTACK, 43, STACK
        PUBLIC MAC_SrcMatchCheckAllPending
        FUNCTION MAC_SrcMatchCheckAllPending,0203H
        ARGFRAME XSTACK, 0, STACK
        LOCFRAME ISTACK, 2, STACK
        PUBLIC MAC_SrcMatchCheckResult
        FUNCTION MAC_SrcMatchCheckResult,0203H
        ARGFRAME XSTACK, 0, STACK
        LOCFRAME ISTACK, 2, STACK
        PUBLIC MAC_SrcMatchDeleteEntry
        FUNCTION MAC_SrcMatchDeleteEntry,021203H
        ARGFRAME XSTACK, 0, STACK
        LOCFRAME XSTACK, 9, STACK
        PUBLIC MAC_SrcMatchEnable
        FUNCTION MAC_SrcMatchEnable,0203H
        ARGFRAME XSTACK, 0, STACK
        LOCFRAME ISTACK, 2, STACK
        FUNCTION macSrcMatchCheckSrcAddr,021203H
        ARGFRAME XSTACK, 39, STACK
        ARGFRAME IOVERLAY, 0, STATIC
        ARGFRAME DOVERLAY, 0, STATIC
        LOCFRAME ISTACK, 1, STACK
        LOCFRAME XSTACK, 39, STACK
        FUNCTION macSrcMatchGetExtAddrEnableBit,021203H
        ARGFRAME XSTACK, 39, STACK
        ARGFRAME IOVERLAY, 0, STATIC
        ARGFRAME DOVERLAY, 0, STATIC
        LOCFRAME ISTACK, 2, STACK
        LOCFRAME XSTACK, 3, STACK
        FUNCTION macSrcMatchGetShortAddrEnableBit,021203H
        ARGFRAME XSTACK, 39, STACK
        ARGFRAME IOVERLAY, 0, STATIC
        ARGFRAME DOVERLAY, 0, STATIC
        LOCFRAME ISTACK, 2, STACK
        LOCFRAME XSTACK, 3, STACK
        PUBLIC macSrcMatchIsAckAllPending
        PUBLIC macSrcMatchIsEnabled
        FUNCTION macSrcMatchSetEnableBit,021203H
        ARGFRAME XSTACK, 39, STACK
        ARGFRAME IOVERLAY, 0, STATIC
        ARGFRAME DOVERLAY, 0, STATIC
        LOCFRAME XSTACK, 21, STACK
        
          CFI Names cfiNames0
          CFI StackFrame CFA_SP SP IDATA
          CFI StackFrame CFA_PSP16 PSP16 XDATA
          CFI StackFrame CFA_XSP16 XSP16 XDATA
          CFI StaticOverlayFrame CFA_IOVERLAY IOVERLAY
          CFI StaticOverlayFrame CFA_DOVERLAY DOVERLAY
          CFI Resource `PSW.CY`:1, `B.BR0`:1, `B.BR1`:1, `B.BR2`:1, `B.BR3`:1
          CFI Resource `B.BR4`:1, `B.BR5`:1, `B.BR6`:1, `B.BR7`:1, `VB.BR8`:1
          CFI Resource `VB.BR9`:1, `VB.BR10`:1, `VB.BR11`:1, `VB.BR12`:1
          CFI Resource `VB.BR13`:1, `VB.BR14`:1, `VB.BR15`:1, VB:8, B:8, A:8
          CFI Resource PSW:8, DPL0:8, DPH0:8, R0:8, R1:8, R2:8, R3:8, R4:8, R5:8
          CFI Resource R6:8, R7:8, V0:8, V1:8, V2:8, V3:8, V4:8, V5:8, V6:8, V7:8
          CFI Resource V8:8, V9:8, V10:8, V11:8, V12:8, V13:8, V14:8, V15:8, SP:8
          CFI Resource PSPH:8, PSPL:8, PSP16:16, XSPH:8, XSPL:8, XSP16:16
          CFI VirtualResource ?RET:24
          CFI Resource ?BRET_EXT:8
          CFI VirtualResource ?RET_HIGH:8, ?RET_LOW:8
          CFI ResourceParts PSP16 PSPH, PSPL
          CFI ResourceParts XSP16 XSPH, XSPL
          CFI ResourceParts ?RET ?BRET_EXT, ?RET_HIGH, ?RET_LOW
          CFI EndNames cfiNames0
        
          CFI Common cfiCommon0 Using cfiNames0
          CFI CodeAlign 1
          CFI DataAlign -1
          CFI ReturnAddress ?RET CODE
          CFI CFA_DOVERLAY Used
          CFI CFA_IOVERLAY Used
          CFI CFA_SP SP+-3
          CFI CFA_PSP16 PSP16+0
          CFI CFA_XSP16 XSP16+0
          CFI `PSW.CY` SameValue
          CFI `B.BR0` SameValue
          CFI `B.BR1` SameValue
          CFI `B.BR2` SameValue
          CFI `B.BR3` SameValue
          CFI `B.BR4` SameValue
          CFI `B.BR5` SameValue
          CFI `B.BR6` SameValue
          CFI `B.BR7` SameValue
          CFI `VB.BR8` SameValue
          CFI `VB.BR9` SameValue
          CFI `VB.BR10` SameValue
          CFI `VB.BR11` SameValue
          CFI `VB.BR12` SameValue
          CFI `VB.BR13` SameValue
          CFI `VB.BR14` SameValue
          CFI `VB.BR15` SameValue
          CFI VB SameValue
          CFI B Undefined
          CFI A Undefined
          CFI PSW SameValue
          CFI DPL0 SameValue
          CFI DPH0 SameValue
          CFI R0 Undefined
          CFI R1 Undefined
          CFI R2 Undefined
          CFI R3 Undefined
          CFI R4 Undefined
          CFI R5 Undefined
          CFI R6 SameValue
          CFI R7 SameValue
          CFI V0 SameValue
          CFI V1 SameValue
          CFI V2 SameValue
          CFI V3 SameValue
          CFI V4 SameValue
          CFI V5 SameValue
          CFI V6 SameValue
          CFI V7 SameValue
          CFI V8 SameValue
          CFI V9 SameValue
          CFI V10 SameValue
          CFI V11 SameValue
          CFI V12 SameValue
          CFI V13 SameValue
          CFI V14 SameValue
          CFI V15 SameValue
          CFI PSPH Undefined
          CFI PSPL Undefined
          CFI XSPH Undefined
          CFI XSPL Undefined
          CFI ?RET Concat
          CFI ?BRET_EXT Frame(CFA_SP, 3)
          CFI ?RET_HIGH Frame(CFA_SP, 2)
          CFI ?RET_LOW Frame(CFA_SP, 1)
          CFI EndCommon cfiCommon0
        
        
          CFI Common cfiCommon1 Using cfiNames0
          CFI CodeAlign 1
          CFI DataAlign -1
          CFI ReturnAddress ?RET CODE
          CFI CFA_DOVERLAY Used
          CFI CFA_IOVERLAY Used
          CFI CFA_SP SP+-2
          CFI CFA_PSP16 PSP16+0
          CFI CFA_XSP16 XSP16+0
          CFI `PSW.CY` SameValue
          CFI `B.BR0` SameValue
          CFI `B.BR1` SameValue
          CFI `B.BR2` SameValue
          CFI `B.BR3` SameValue
          CFI `B.BR4` SameValue
          CFI `B.BR5` SameValue
          CFI `B.BR6` SameValue
          CFI `B.BR7` SameValue
          CFI `VB.BR8` SameValue
          CFI `VB.BR9` SameValue
          CFI `VB.BR10` SameValue
          CFI `VB.BR11` SameValue
          CFI `VB.BR12` SameValue
          CFI `VB.BR13` SameValue
          CFI `VB.BR14` SameValue
          CFI `VB.BR15` SameValue
          CFI VB SameValue
          CFI B SameValue
          CFI A SameValue
          CFI PSW SameValue
          CFI DPL0 SameValue
          CFI DPH0 SameValue
          CFI R0 SameValue
          CFI R1 SameValue
          CFI R2 SameValue
          CFI R3 SameValue
          CFI R4 SameValue
          CFI R5 SameValue
          CFI R6 SameValue
          CFI R7 SameValue
          CFI V0 SameValue
          CFI V1 SameValue
          CFI V2 SameValue
          CFI V3 SameValue
          CFI V4 SameValue
          CFI V5 SameValue
          CFI V6 SameValue
          CFI V7 SameValue
          CFI V8 SameValue
          CFI V9 SameValue
          CFI V10 SameValue
          CFI V11 SameValue
          CFI V12 SameValue
          CFI V13 SameValue
          CFI V14 SameValue
          CFI V15 SameValue
          CFI PSPH Undefined
          CFI PSPL Undefined
          CFI XSPH Undefined
          CFI XSPL Undefined
          CFI ?RET Concat
          CFI ?BRET_EXT SameValue
          CFI ?RET_HIGH Frame(CFA_SP, 2)
          CFI ?RET_LOW Frame(CFA_SP, 1)
          CFI EndCommon cfiCommon1
        
macMemReadRam       SYMBOL "macMemReadRam"
??macMemReadRam?relay SYMBOL "?relay", macMemReadRam
macMemWriteRam      SYMBOL "macMemWriteRam"
??macMemWriteRam?relay SYMBOL "?relay", macMemWriteRam
osal_buffer_uint24  SYMBOL "osal_buffer_uint24"
??osal_buffer_uint24?relay SYMBOL "?relay", osal_buffer_uint24
osal_build_uint32   SYMBOL "osal_build_uint32"
??osal_build_uint32?relay SYMBOL "?relay", osal_build_uint32
osal_memcmp         SYMBOL "osal_memcmp"
??osal_memcmp?relay SYMBOL "?relay", osal_memcmp
MAC_SrcMatchAckAllPending SYMBOL "MAC_SrcMatchAckAllPending"
??MAC_SrcMatchAckAllPending?relay SYMBOL "?relay", MAC_SrcMatchAckAllPending
MAC_SrcMatchAddEntry SYMBOL "MAC_SrcMatchAddEntry"
??MAC_SrcMatchAddEntry?relay SYMBOL "?relay", MAC_SrcMatchAddEntry
MAC_SrcMatchCheckAllPending SYMBOL "MAC_SrcMatchCheckAllPending"
??MAC_SrcMatchCheckAllPending?relay SYMBOL "?relay", MAC_SrcMatchCheckAllPending
MAC_SrcMatchCheckResult SYMBOL "MAC_SrcMatchCheckResult"
??MAC_SrcMatchCheckResult?relay SYMBOL "?relay", MAC_SrcMatchCheckResult
MAC_SrcMatchDeleteEntry SYMBOL "MAC_SrcMatchDeleteEntry"
??MAC_SrcMatchDeleteEntry?relay SYMBOL "?relay", MAC_SrcMatchDeleteEntry
MAC_SrcMatchEnable  SYMBOL "MAC_SrcMatchEnable"
??MAC_SrcMatchEnable?relay SYMBOL "?relay", MAC_SrcMatchEnable

        EXTERN ??macMemReadRam?relay
        FUNCTION ??macMemReadRam?relay,00H
        EXTERN ??macMemWriteRam?relay
        FUNCTION ??macMemWriteRam?relay,00H
        EXTERN ??osal_buffer_uint24?relay
        FUNCTION ??osal_buffer_uint24?relay,00H
        EXTERN ??osal_build_uint32?relay
        FUNCTION ??osal_build_uint32?relay,00H
        EXTERN ??osal_memcmp?relay
        FUNCTION ??osal_memcmp?relay,00H
        EXTERN macMemReadRam
        FUNCTION macMemReadRam,0202H
        ARGFRAME ISTACK, 2, STACK
        ARGFRAME PSTACK, 0, STACK
        ARGFRAME XSTACK, 39, STACK
        ARGFRAME IOVERLAY, 0, STATIC
        ARGFRAME DOVERLAY, 0, STATIC
        EXTERN macMemWriteRam
        FUNCTION macMemWriteRam,0202H
        ARGFRAME ISTACK, 0, STACK
        ARGFRAME PSTACK, 0, STACK
        ARGFRAME XSTACK, 39, STACK
        ARGFRAME IOVERLAY, 0, STATIC
        ARGFRAME DOVERLAY, 0, STATIC
        EXTERN osal_buffer_uint24
        FUNCTION osal_buffer_uint24,0202H
        ARGFRAME ISTACK, 0, STACK
        ARGFRAME PSTACK, 0, STACK
        ARGFRAME XSTACK, 43, STACK
        ARGFRAME IOVERLAY, 0, STATIC
        ARGFRAME DOVERLAY, 0, STATIC
        EXTERN osal_build_uint32
        FUNCTION osal_build_uint32,0202H
        ARGFRAME ISTACK, 2, STACK
        ARGFRAME PSTACK, 0, STACK
        ARGFRAME XSTACK, 39, STACK
        ARGFRAME IOVERLAY, 0, STATIC
        ARGFRAME DOVERLAY, 0, STATIC
        EXTERN osal_memcmp
        FUNCTION osal_memcmp,0202H
        ARGFRAME ISTACK, 0, STACK
        ARGFRAME PSTACK, 0, STACK
        ARGFRAME XSTACK, 39, STACK
        ARGFRAME IOVERLAY, 0, STATIC
        ARGFRAME DOVERLAY, 0, STATIC

// D:\Texas Instruments\Z-Stack Lighting 1.0.2\Components\mac\low_level\srf04\mac_autopend.c
//    1 /**************************************************************************************************
//    2   Filename:       mac_autopend.c
//    3   Revised:        $Date: 2013-05-17 11:08:52 -0700 (Fri, 17 May 2013) $
//    4   Revision:       $Revision: 34354 $
//    5 
//    6   Description:    This file implements the TIMAC Autopend feature.
//    7 
//    8 
//    9   Copyright 2006-2013 Texas Instruments Incorporated. All rights reserved.
//   10 
//   11   IMPORTANT: Your use of this Software is limited to those specific rights
//   12   granted under the terms of a software license agreement between the user
//   13   who downloaded the software, his/her employer (which must be your employer)
//   14   and Texas Instruments Incorporated (the "License").  You may not use this
//   15   Software unless you agree to abide by the terms of the License. The License
//   16   limits your use, and you acknowledge, that the Software may not be modified,
//   17   copied or distributed unless embedded on a Texas Instruments microcontroller
//   18   or used solely and exclusively in conjunction with a Texas Instruments radio
//   19   frequency transceiver, which is integrated into your product.  Other than for
//   20   the foregoing purpose, you may not use, reproduce, copy, prepare derivative
//   21   works of, modify, distribute, perform, display or sell this Software and/or
//   22   its documentation for any purpose.
//   23 
//   24   YOU FURTHER ACKNOWLEDGE AND AGREE THAT THE SOFTWARE AND DOCUMENTATION ARE
//   25   PROVIDED “AS IS” WITHOUT WARRANTY OF ANY KIND, EITHER EXPRESS OR IMPLIED,
//   26   INCLUDING WITHOUT LIMITATION, ANY WARRANTY OF MERCHANTABILITY, TITLE,
//   27   NON-INFRINGEMENT AND FITNESS FOR A PARTICULAR PURPOSE. IN NO EVENT SHALL
//   28   TEXAS INSTRUMENTS OR ITS LICENSORS BE LIABLE OR OBLIGATED UNDER CONTRACT,
//   29   NEGLIGENCE, STRICT LIABILITY, CONTRIBUTION, BREACH OF WARRANTY, OR OTHER
//   30   LEGAL EQUITABLE THEORY ANY DIRECT OR INDIRECT DAMAGES OR EXPENSES
//   31   INCLUDING BUT NOT LIMITED TO ANY INCIDENTAL, SPECIAL, INDIRECT, PUNITIVE
//   32   OR CONSEQUENTIAL DAMAGES, LOST PROFITS OR LOST DATA, COST OF PROCUREMENT
//   33   OF SUBSTITUTE GOODS, TECHNOLOGY, SERVICES, OR ANY CLAIMS BY THIRD PARTIES
//   34   (INCLUDING BUT NOT LIMITED TO ANY DEFENSE THEREOF), OR OTHER SIMILAR COSTS.
//   35 
//   36   Should you have any questions regarding your right to use this Software,
//   37   contact Texas Instruments Incorporated at www.TI.com.
//   38 **************************************************************************************************/
//   39 
//   40 /* low-level */
//   41 #include "mac_api.h"
//   42 #include "mac_radio_defs.h"
//   43 
//   44 /* osal */
//   45 #include "OSAL.h"
//   46 #include "saddr.h"
//   47 #include "ZComDef.h"
//   48 
//   49 #include "mac_autopend.h"
//   50 
//   51 /* ------------------------------------------------------------------------------------------------
//   52  *                                           Defines
//   53  * ------------------------------------------------------------------------------------------------
//   54  */
//   55 #define MAC_SRCMATCH_INVALID_INDEX           0xFF
//   56 
//   57 #define MAC_SRCMATCH_SHORT_ENTRY_SIZE        4
//   58 #define MAC_SRCMATCH_EXT_ENTRY_SIZE          Z_EXTADDR_LEN
//   59 
//   60 #define MAC_SRCMATCH_SHORT_MAX_NUM_ENTRIES   24
//   61 #define MAC_SRCMATCH_EXT_MAX_NUM_ENTRIES     12
//   62 
//   63 #define MAC_SRCMATCH_ENABLE_BITMAP_LEN       3
//   64 
//   65 #define EXT_ADDR_INDEX_SIZE                  2
//   66 #define SHORT_ADDR_INDEX_SIZE                1
//   67           
//   68 /* ------------------------------------------------------------------------------------------------
//   69  *                                      Global Variables
//   70  * ------------------------------------------------------------------------------------------------
//   71  */

        RSEG XDATA_Z:XDATA:NOROOT(0)
        DATA8
//   72 bool macSrcMatchIsEnabled = FALSE; 
macSrcMatchIsEnabled:
        DS 1
        REQUIRE __INIT_XDATA_Z
//   73 
//   74 /* ------------------------------------------------------------------------------------------------
//   75  *                                         Local Variables
//   76  * ------------------------------------------------------------------------------------------------
//   77  */
//   78 
//   79 /* 
//   80  The following local Varables are only set in MAC_SrcMatchEnable()  
//   81  They are read only to the rest of the module.
//   82  */

        RSEG XDATA_Z:XDATA:NOROOT(0)
        DATA8
//   83 bool macSrcMatchIsAckAllPending = FALSE;
macSrcMatchIsAckAllPending:
        DS 1
        REQUIRE __INIT_XDATA_Z
//   84 
//   85 /* ------------------------------------------------------------------------------------------------
//   86  *                                         Local Functions
//   87  * ------------------------------------------------------------------------------------------------
//   88  */
//   89 static uint8 macSrcMatchFindEmptyEntry( uint8 macSrcMatchAddrMode );
//   90 static uint8 macSrcMatchCheckSrcAddr ( sAddr_t *addr, uint16 panID  );
//   91 static void macSrcMatchSetPendEnBit( uint8 index, uint8 macSrcMatchAddrMode );
//   92 static void macSrcMatchSetEnableBit( uint8 index, bool option, uint8 macSrcMatchAddrMode );
//   93 static bool macSrcMatchCheckEnableBit( uint8 index, uint24 enable );
//   94 static uint24 macSrcMatchGetShortAddrPendEnBit( void );
//   95 static uint24 macSrcMatchGetExtAddrPendEnBit( void );
//   96 static uint24 macSrcMatchGetShortAddrEnableBit( void );
//   97 static uint24 macSrcMatchGetExtAddrEnableBit( void );
//   98 
//   99 /*********************************************************************
//  100  * @fn          MAC_SrcMatchEnable
//  101  *
//  102  * @brief      Enabled AUTOPEND and source address matching. 
//  103  *             This function shall be not be called from 
//  104  *             ISR. It is not thread safe.
//  105  *
//  106  * @param     none 
//  107  *
//  108  * @return     none
//  109  */

        RSEG BANKED_CODE:CODE:NOROOT(0)
//  110 void MAC_SrcMatchEnable (void)
MAC_SrcMatchEnable:
          CFI Block cfiBlock0 Using cfiCommon0
          CFI Function MAC_SrcMatchEnable
        CODE
//  111 {
        PUSH    DPL
          CFI DPL0 Frame(CFA_SP, 4)
          CFI CFA_SP SP+-4
        PUSH    DPH
          CFI DPH0 Frame(CFA_SP, 5)
          CFI CFA_SP SP+-5
        ; Saved register size: 2
        ; Auto size: 0
//  112   /* Turn on Frame Filter (TIMAC enables frame filter by default), TBD */
//  113   MAC_RADIO_TURN_ON_RX_FRAME_FILTERING();
        MOV     DPTR,#0x6180
        CLR     A
        MOVX    @DPTR,A
        MOVX    A,@DPTR
        ORL     A,#0x9
        MOVX    @DPTR,A
//  114   
//  115   /* Turn on Auto ACK (TIMAC turn on Auto ACK by default), TBD */
//  116   MAC_RADIO_TURN_ON_AUTO_ACK();
        MOV     DPTR,#0x6189
        MOVX    A,@DPTR
        SETB    0xE0 /* A   */.5
        MOVX    @DPTR,A
//  117   
//  118   /* Turn on Autopend: set SRCMATCH.AUTOPEND and SRCMATCH.SRC_MATCH_EN */
//  119   MAC_RADIO_TURN_ON_SRC_MATCH();
        MOV     DPTR,#0x6182
        MOVX    A,@DPTR
        SETB    0xE0 /* A   */.0
        MOVX    @DPTR,A
//  120  
//  121   /* Set SRCMATCH.AUTOPEND */
//  122   MAC_RADIO_TURN_ON_AUTOPEND();
        MOVX    A,@DPTR
        SETB    0xE0 /* A   */.1
        MOVX    @DPTR,A
//  123   
//  124   /* Configure all the globals */
//  125   macSrcMatchIsEnabled = TRUE;           
        MOV     DPTR,#macSrcMatchIsEnabled
        MOV     A,#0x1
        MOVX    @DPTR,A
//  126 }
        LJMP    ??Subroutine7_0 & 0xFFFF
          CFI EndBlock cfiBlock0
//  127 
//  128 /*********************************************************************
//  129  * @fn          MAC_SrcMatchAddEntry
//  130  *
//  131  * @brief       Add a short or extended address to source address table. This 
//  132  *              function shall be not be called from ISR. It is not thread safe.
//  133  *
//  134  * @param       addr  - a pointer to sAddr_t which contains addrMode 
//  135  *                      and a union of a short 16-bit MAC address or an extended 
//  136  *                      64-bit MAC address to be added to the source address 
//  137 *                       table. 
//  138  * @param       panID - the device PAN ID. It is only used when the addr is 
//  139  *                      using short address 
//  140 
//  141  * @return      MAC_SUCCESS or MAC_NO_RESOURCES (source address table full) 
//  142  *              or MAC_DUPLICATED_ENTRY (the entry added is duplicated),
//  143  *              or MAC_INVALID_PARAMETER if the input parameters are invalid.
//  144  */

        RSEG BANKED_CODE:CODE:NOROOT(0)
//  145 uint8 MAC_SrcMatchAddEntry ( sAddr_t *addr, uint16 panID )
MAC_SrcMatchAddEntry:
          CFI Block cfiBlock1 Using cfiCommon0
          CFI Function MAC_SrcMatchAddEntry
        CODE
//  146 {
        FUNCALL MAC_SrcMatchAddEntry, macSrcMatchCheckSrcAddr
        LOCFRAME ISTACK, 0, STACK
        LOCFRAME PSTACK, 0, STACK
        LOCFRAME XSTACK, 39, STACK
        LOCFRAME IOVERLAY, 0, STATIC
        LOCFRAME DOVERLAY, 0, STATIC
        ARGFRAME ISTACK, 0, STACK
        ARGFRAME PSTACK, 0, STACK
        ARGFRAME XSTACK, 39, STACK
        ARGFRAME IOVERLAY, 0, STATIC
        ARGFRAME DOVERLAY, 0, STATIC
        FUNCALL MAC_SrcMatchAddEntry, macSrcMatchGetShortAddrEnableBit
        LOCFRAME ISTACK, 0, STACK
        LOCFRAME PSTACK, 0, STACK
        LOCFRAME XSTACK, 39, STACK
        LOCFRAME IOVERLAY, 0, STATIC
        LOCFRAME DOVERLAY, 0, STATIC
        ARGFRAME ISTACK, 0, STACK
        ARGFRAME PSTACK, 0, STACK
        ARGFRAME XSTACK, 39, STACK
        ARGFRAME IOVERLAY, 0, STATIC
        ARGFRAME DOVERLAY, 0, STATIC
        FUNCALL MAC_SrcMatchAddEntry, macSrcMatchGetExtAddrEnableBit
        LOCFRAME ISTACK, 0, STACK
        LOCFRAME PSTACK, 0, STACK
        LOCFRAME XSTACK, 39, STACK
        LOCFRAME IOVERLAY, 0, STATIC
        LOCFRAME DOVERLAY, 0, STATIC
        ARGFRAME ISTACK, 0, STACK
        ARGFRAME PSTACK, 0, STACK
        ARGFRAME XSTACK, 39, STACK
        ARGFRAME IOVERLAY, 0, STATIC
        ARGFRAME DOVERLAY, 0, STATIC
        FUNCALL MAC_SrcMatchAddEntry, macMemWriteRam
        LOCFRAME ISTACK, 0, STACK
        LOCFRAME PSTACK, 0, STACK
        LOCFRAME XSTACK, 39, STACK
        LOCFRAME IOVERLAY, 0, STATIC
        LOCFRAME DOVERLAY, 0, STATIC
        ARGFRAME ISTACK, 0, STACK
        ARGFRAME PSTACK, 0, STACK
        ARGFRAME XSTACK, 39, STACK
        ARGFRAME IOVERLAY, 0, STATIC
        ARGFRAME DOVERLAY, 0, STATIC
        FUNCALL MAC_SrcMatchAddEntry, macMemWriteRam
        LOCFRAME ISTACK, 0, STACK
        LOCFRAME PSTACK, 0, STACK
        LOCFRAME XSTACK, 39, STACK
        LOCFRAME IOVERLAY, 0, STATIC
        LOCFRAME DOVERLAY, 0, STATIC
        ARGFRAME ISTACK, 0, STACK
        ARGFRAME PSTACK, 0, STACK
        ARGFRAME XSTACK, 39, STACK
        ARGFRAME IOVERLAY, 0, STATIC
        ARGFRAME DOVERLAY, 0, STATIC
        FUNCALL MAC_SrcMatchAddEntry, macMemReadRam
        LOCFRAME ISTACK, 0, STACK
        LOCFRAME PSTACK, 0, STACK
        LOCFRAME XSTACK, 39, STACK
        LOCFRAME IOVERLAY, 0, STATIC
        LOCFRAME DOVERLAY, 0, STATIC
        ARGFRAME ISTACK, 0, STACK
        ARGFRAME PSTACK, 0, STACK
        ARGFRAME XSTACK, 39, STACK
        ARGFRAME IOVERLAY, 0, STATIC
        ARGFRAME DOVERLAY, 0, STATIC
        FUNCALL MAC_SrcMatchAddEntry, osal_build_uint32
        LOCFRAME ISTACK, 0, STACK
        LOCFRAME PSTACK, 0, STACK
        LOCFRAME XSTACK, 39, STACK
        LOCFRAME IOVERLAY, 0, STATIC
        LOCFRAME DOVERLAY, 0, STATIC
        ARGFRAME ISTACK, 0, STACK
        ARGFRAME PSTACK, 0, STACK
        ARGFRAME XSTACK, 39, STACK
        ARGFRAME IOVERLAY, 0, STATIC
        ARGFRAME DOVERLAY, 0, STATIC
        FUNCALL MAC_SrcMatchAddEntry, osal_buffer_uint24
        LOCFRAME ISTACK, 0, STACK
        LOCFRAME PSTACK, 0, STACK
        LOCFRAME XSTACK, 43, STACK
        LOCFRAME IOVERLAY, 0, STATIC
        LOCFRAME DOVERLAY, 0, STATIC
        ARGFRAME ISTACK, 0, STACK
        ARGFRAME PSTACK, 0, STACK
        ARGFRAME XSTACK, 43, STACK
        ARGFRAME IOVERLAY, 0, STATIC
        ARGFRAME DOVERLAY, 0, STATIC
        FUNCALL MAC_SrcMatchAddEntry, macMemWriteRam
        LOCFRAME ISTACK, 0, STACK
        LOCFRAME PSTACK, 0, STACK
        LOCFRAME XSTACK, 39, STACK
        LOCFRAME IOVERLAY, 0, STATIC
        LOCFRAME DOVERLAY, 0, STATIC
        ARGFRAME ISTACK, 0, STACK
        ARGFRAME PSTACK, 0, STACK
        ARGFRAME XSTACK, 39, STACK
        ARGFRAME IOVERLAY, 0, STATIC
        ARGFRAME DOVERLAY, 0, STATIC
        FUNCALL MAC_SrcMatchAddEntry, macMemReadRam
        LOCFRAME ISTACK, 0, STACK
        LOCFRAME PSTACK, 0, STACK
        LOCFRAME XSTACK, 39, STACK
        LOCFRAME IOVERLAY, 0, STATIC
        LOCFRAME DOVERLAY, 0, STATIC
        ARGFRAME ISTACK, 0, STACK
        ARGFRAME PSTACK, 0, STACK
        ARGFRAME XSTACK, 39, STACK
        ARGFRAME IOVERLAY, 0, STATIC
        ARGFRAME DOVERLAY, 0, STATIC
        FUNCALL MAC_SrcMatchAddEntry, osal_build_uint32
        LOCFRAME ISTACK, 0, STACK
        LOCFRAME PSTACK, 0, STACK
        LOCFRAME XSTACK, 39, STACK
        LOCFRAME IOVERLAY, 0, STATIC
        LOCFRAME DOVERLAY, 0, STATIC
        ARGFRAME ISTACK, 0, STACK
        ARGFRAME PSTACK, 0, STACK
        ARGFRAME XSTACK, 39, STACK
        ARGFRAME IOVERLAY, 0, STATIC
        ARGFRAME DOVERLAY, 0, STATIC
        FUNCALL MAC_SrcMatchAddEntry, osal_buffer_uint24
        LOCFRAME ISTACK, 0, STACK
        LOCFRAME PSTACK, 0, STACK
        LOCFRAME XSTACK, 43, STACK
        LOCFRAME IOVERLAY, 0, STATIC
        LOCFRAME DOVERLAY, 0, STATIC
        ARGFRAME ISTACK, 0, STACK
        ARGFRAME PSTACK, 0, STACK
        ARGFRAME XSTACK, 43, STACK
        ARGFRAME IOVERLAY, 0, STATIC
        ARGFRAME DOVERLAY, 0, STATIC
        FUNCALL MAC_SrcMatchAddEntry, macMemWriteRam
        LOCFRAME ISTACK, 0, STACK
        LOCFRAME PSTACK, 0, STACK
        LOCFRAME XSTACK, 39, STACK
        LOCFRAME IOVERLAY, 0, STATIC
        LOCFRAME DOVERLAY, 0, STATIC
        ARGFRAME ISTACK, 0, STACK
        ARGFRAME PSTACK, 0, STACK
        ARGFRAME XSTACK, 39, STACK
        ARGFRAME IOVERLAY, 0, STATIC
        ARGFRAME DOVERLAY, 0, STATIC
        FUNCALL MAC_SrcMatchAddEntry, macSrcMatchSetEnableBit
        LOCFRAME ISTACK, 0, STACK
        LOCFRAME PSTACK, 0, STACK
        LOCFRAME XSTACK, 39, STACK
        LOCFRAME IOVERLAY, 0, STATIC
        LOCFRAME DOVERLAY, 0, STATIC
        ARGFRAME ISTACK, 0, STACK
        ARGFRAME PSTACK, 0, STACK
        ARGFRAME XSTACK, 39, STACK
        ARGFRAME IOVERLAY, 0, STATIC
        ARGFRAME DOVERLAY, 0, STATIC
        MOV     A,#-0x18
        LCALL   ?BANKED_ENTER_XDATA
          CFI DPH0 load(1, XDATA, add(CFA_XSP16, literal(-1)))
          CFI DPL0 load(1, XDATA, add(CFA_XSP16, literal(-2)))
          CFI ?BRET_EXT load(1, XDATA, add(CFA_XSP16, literal(-3)))
          CFI ?RET_HIGH load(1, XDATA, add(CFA_XSP16, literal(-4)))
          CFI ?RET_LOW load(1, XDATA, add(CFA_XSP16, literal(-5)))
          CFI R7 load(1, XDATA, add(CFA_XSP16, literal(-6)))
          CFI V15 load(1, XDATA, add(CFA_XSP16, literal(-7)))
          CFI V14 load(1, XDATA, add(CFA_XSP16, literal(-8)))
          CFI V13 load(1, XDATA, add(CFA_XSP16, literal(-9)))
          CFI V12 load(1, XDATA, add(CFA_XSP16, literal(-10)))
          CFI V11 load(1, XDATA, add(CFA_XSP16, literal(-11)))
          CFI V10 load(1, XDATA, add(CFA_XSP16, literal(-12)))
          CFI V9 load(1, XDATA, add(CFA_XSP16, literal(-13)))
          CFI V8 load(1, XDATA, add(CFA_XSP16, literal(-14)))
          CFI V7 load(1, XDATA, add(CFA_XSP16, literal(-15)))
          CFI V6 load(1, XDATA, add(CFA_XSP16, literal(-16)))
          CFI V5 load(1, XDATA, add(CFA_XSP16, literal(-17)))
          CFI V4 load(1, XDATA, add(CFA_XSP16, literal(-18)))
          CFI V3 load(1, XDATA, add(CFA_XSP16, literal(-19)))
          CFI V2 load(1, XDATA, add(CFA_XSP16, literal(-20)))
          CFI V1 load(1, XDATA, add(CFA_XSP16, literal(-21)))
          CFI V0 load(1, XDATA, add(CFA_XSP16, literal(-22)))
          CFI VB load(1, XDATA, add(CFA_XSP16, literal(-23)))
          CFI R6 load(1, XDATA, add(CFA_XSP16, literal(-24)))
          CFI CFA_SP SP+0
          CFI CFA_XSP16 add(XSP16, 24)
        ; Saved register size: 24
        ; Auto size: 15
        MOV     A,#-0xf
        LCALL   ?ALLOC_XSTACK8
          CFI CFA_XSP16 add(XSP16, 39)
        MOV     A,#0x3
        LCALL   ?XSTACK_DISP0_8
        MOV     A,R2
        MOVX    @DPTR,A
        INC     DPTR
        MOV     A,R3
        MOVX    @DPTR,A
        MOV     A,R4
        MOV     R6,A
        MOV     A,R5
        MOV     R7,A
//  147   uint8 index;
//  148   uint8 entry[MAC_SRCMATCH_SHORT_ENTRY_SIZE];
//  149   
//  150   /* Check if the input parameters are valid */
//  151   if ( addr == NULL || (addr->addrMode !=  SADDR_MODE_SHORT && addr->addrMode !=  SADDR_MODE_EXT))
        MOV     A,#0x3
        LCALL   ?XSTACK_DISP0_8
        MOVX    A,@DPTR
        MOV     R0,A
        INC     DPTR
        MOVX    A,@DPTR
        MOV     R1,A
        MOV     A,R0
        ORL     A,R1
        JZ      ??MAC_SrcMatchAddEntry_0
        MOV     A,#0x3
        LCALL   ?XSTACK_DISP0_8
        MOVX    A,@DPTR
        ADD     A,#0x8
        MOV     R0,A
        INC     DPTR
        MOVX    A,@DPTR
        ADDC    A,#0x0
        MOV     R1,A
        MOV     A,#0x1
        LCALL   ?XSTACK_DISP0_8
        MOV     A,R0
        MOVX    @DPTR,A
        INC     DPTR
        MOV     A,R1
        MOVX    @DPTR,A
        MOV     A,#0x1
        LCALL   ?XSTACK_DISP0_8
        LCALL   ?Subroutine3 & 0xFFFF
??CrossCallReturnLabel_3:
        MOV     R0,A
        MOV     A,#0x2
        XRL     A,R0
        JZ      ??MAC_SrcMatchAddEntry_1
        MOV     A,#0x3
        XRL     A,R0
        JZ      ??MAC_SrcMatchAddEntry_1
//  152   {
//  153     return MAC_INVALID_PARAMETER;  
??MAC_SrcMatchAddEntry_0:
        MOV     R1,#-0x18
        LJMP    ??MAC_SrcMatchAddEntry_2 & 0xFFFF
//  154   }
//  155   
//  156   /* Check if the entry already exists. Do not add duplicated entry */
//  157   if ( macSrcMatchCheckSrcAddr( addr, panID ) != MAC_SRCMATCH_INVALID_INDEX )
??MAC_SrcMatchAddEntry_1:
        ; Setup parameters for call to function macSrcMatchCheckSrcAddr
        MOV     A,#0x3
        LCALL   ?XSTACK_DISP0_8
        MOVX    A,@DPTR
        MOV     R2,A
        INC     DPTR
        MOVX    A,@DPTR
        MOV     R3,A
        LCALL   ??macSrcMatchCheckSrcAddr?relay
        MOV     A,R1
        CPL     A
        JZ      ??MAC_SrcMatchAddEntry_3
//  158   {
//  159     return MAC_DUPLICATED_ENTRY; 
        MOV     R1,#0x1e
        LJMP    ??MAC_SrcMatchAddEntry_2 & 0xFFFF
//  160   }
//  161   
//  162   /* If not duplicated, write to the radio RAM and enable the control bit */
//  163   
//  164   /* Find the first empty entry */
//  165   index = macSrcMatchFindEmptyEntry(addr->addrMode);
??MAC_SrcMatchAddEntry_3:
        MOV     A,#0x1
        LCALL   ?XSTACK_DISP0_8
        LCALL   ?Subroutine3 & 0xFFFF
??CrossCallReturnLabel_4:
        MOV     ?V0 + 12,A
        ; Setup parameters for call to function macSrcMatchGetShortAddrEnableBit
        LCALL   ??macSrcMatchGetShortAddrEnableBit?relay
        MOV     ?V0 + 4,R2
        MOV     ?V0 + 5,R3
        MOV     ?V0 + 6,R4
        MOV     ?V0 + 7,R5
        ; Setup parameters for call to function macSrcMatchGetExtAddrEnableBit
        LCALL   ??macSrcMatchGetExtAddrEnableBit?relay
        MOV     ?V0 + 8,R2
        MOV     ?V0 + 9,R3
        MOV     ?V0 + 10,R4
        MOV     ?V0 + 11,R5
        MOV     ?V0 + 0,?V0 + 4
        MOV     ?V0 + 1,?V0 + 5
        MOV     ?V0 + 2,?V0 + 6
        MOV     ?V0 + 3,?V0 + 7
        MOV     R0,#?V0 + 0
        MOV     R1,#?V0 + 8
        LCALL   ?L_IOR
        MOV     A,#0x2
        XRL     A,?V0 + 12
        MOV     DPL,?XSP + 0
        MOV     DPH,?XSP + 1
        JNZ     ??MAC_SrcMatchAddEntry_4
        CLR     A
        MOVX    @DPTR,A
??MAC_SrcMatchAddEntry_5:
        MOV     ?V0 + 0,R2
        MOV     ?V0 + 1,R3
        MOV     ?V0 + 2,R4
        MOV     ?V0 + 3,R5
        MOV     ?V0 + 12,#0x1
        MOV     ?V0 + 13,#0x0
        MOV     ?V0 + 14,#0x0
        MOV     ?V0 + 15,#0x0
        MOVX    A,@DPTR
        ANL     A,#0xfe
        MOV     R0,#?V0 + 12
        LCALL   ?L_SHL
        MOV     R0,#?V0 + 0
        MOV     R1,#?V0 + 12
        LCALL   ?L_AND
        LCALL   ?Subroutine4 & 0xFFFF
??CrossCallReturnLabel_8:
        JNZ     ??MAC_SrcMatchAddEntry_6
        MOV     ?V0 + 0,?V0 + 4
        MOV     ?V0 + 1,?V0 + 5
        MOV     ?V0 + 2,?V0 + 6
        MOV     ?V0 + 3,?V0 + 7
        MOV     ?V0 + 12,#0x1
        MOV     ?V0 + 13,#0x0
        MOV     ?V0 + 14,#0x0
        MOV     ?V0 + 15,#0x0
        MOVX    A,@DPTR
        MOV     R0,#?V0 + 12
        LCALL   ?L_SHL
        MOV     R0,#?V0 + 0
        MOV     R1,#?V0 + 12
        LCALL   ?L_AND
        LCALL   ?Subroutine4 & 0xFFFF
??CrossCallReturnLabel_9:
        JZ      ??MAC_SrcMatchAddEntry_7
??MAC_SrcMatchAddEntry_6:
        MOVX    A,@DPTR
        INC     A
        MOVX    @DPTR,A
        CLR     C
        SUBB    A,#0x18
        JNC     ??MAC_SrcMatchAddEntry_7
        SJMP    ??MAC_SrcMatchAddEntry_5
??MAC_SrcMatchAddEntry_4:
        CLR     A
        MOVX    @DPTR,A
??MAC_SrcMatchAddEntry_8:
        MOV     ?V0 + 4,?V0 + 0
        MOV     ?V0 + 5,?V0 + 1
        MOV     ?V0 + 6,?V0 + 2
        MOV     ?V0 + 7,?V0 + 3
        MOV     ?V0 + 8,#0x3
        MOV     ?V0 + 9,#0x0
        MOV     ?V0 + 10,#0x0
        MOV     ?V0 + 11,#0x0
        MOVX    A,@DPTR
        CLR     C
        RLC     A
        MOV     R0,#?V0 + 8
        LCALL   ?L_SHL
        MOV     R0,#?V0 + 4
        MOV     R1,#?V0 + 8
        LCALL   ?L_AND
        MOV     A,?V0 + 4
        ORL     A,?V0 + 5
        ORL     A,?V0 + 6
        ORL     A,?V0 + 7
        JZ      ??MAC_SrcMatchAddEntry_7
        MOVX    A,@DPTR
        INC     A
        MOVX    @DPTR,A
        CLR     C
        SUBB    A,#0xc
        JC      ??MAC_SrcMatchAddEntry_8
//  166   
//  167 
//  168   if ( (index == MAC_SRCMATCH_SHORT_MAX_NUM_ENTRIES && addr->addrMode == SADDR_MODE_SHORT) || 
//  169        (index == MAC_SRCMATCH_EXT_MAX_NUM_ENTRIES && addr->addrMode == SADDR_MODE_EXT) )
??MAC_SrcMatchAddEntry_7:
        MOVX    A,@DPTR
        XRL     A,#0x18
        JNZ     ??MAC_SrcMatchAddEntry_9
        MOV     A,#0x1
        LCALL   ?XSTACK_DISP0_8
        LCALL   ?Subroutine2 & 0xFFFF
??CrossCallReturnLabel_0:
        JZ      ??MAC_SrcMatchAddEntry_10
//  170   {
//  171     return MAC_NO_RESOURCES;   /* Table is full */
//  172   }
//  173   
//  174   if ( addr->addrMode == SADDR_MODE_SHORT )
??MAC_SrcMatchAddEntry_11:
        MOV     DPL,?XSP + 0
        MOV     DPH,?XSP + 1
        MOVX    A,@DPTR
        MOV     ?V0 + 0,A
        MOV     ?V0 + 1,#0x0
        MOV     A,#0x1
        LCALL   ?XSTACK_DISP0_8
        LCALL   ?Subroutine2 & 0xFFFF
??CrossCallReturnLabel_1:
        JNZ     ??MAC_SrcMatchAddEntry_12
//  175   {
//  176     /* Write the PanID and short address */
//  177     entry[0] = LO_UINT16( panID );  /* Little Endian for the radio RAM */
        MOV     A,#0xb
        LCALL   ?XSTACK_DISP0_8
        MOV     A,R6
        MOVX    @DPTR,A
//  178     entry[1] = HI_UINT16( panID );
        MOV     A,#0xc
        LCALL   ?XSTACK_DISP0_8
        MOV     A,R7
        MOVX    @DPTR,A
//  179     entry[2] = LO_UINT16( addr->addr.shortAddr );
        MOV     A,#0x3
        LCALL   ?XSTACK_DISP0_8
        LCALL   ?Subroutine3 & 0xFFFF
??CrossCallReturnLabel_5:
        PUSH    A
          CFI CFA_SP SP+-1
        MOV     A,#0xd
        LCALL   ?XSTACK_DISP0_8
        POP     A
          CFI CFA_SP SP+0
        MOVX    @DPTR,A
//  180     entry[3] = HI_UINT16( addr->addr.shortAddr );
        MOV     A,#0x3
        LCALL   ?XSTACK_DISP0_8
        LCALL   ?Subroutine6 & 0xFFFF
??CrossCallReturnLabel_13:
        INC     DPTR
        MOVX    A,@DPTR
        PUSH    A
          CFI CFA_SP SP+-1
        MOV     A,#0xe
        LCALL   ?XSTACK_DISP0_8
        POP     A
          CFI CFA_SP SP+0
        MOVX    @DPTR,A
//  181     MAC_RADIO_SRC_MATCH_TABLE_WRITE( ( index * MAC_SRCMATCH_SHORT_ENTRY_SIZE ), 
//  182                    entry, MAC_SRCMATCH_SHORT_ENTRY_SIZE );
        ; Setup parameters for call to function macMemWriteRam
        MOV     R1,#0x4
        MOV     A,#0xb
        LCALL   ?XSTACK_DISP0_8
        MOV     R4,DPL
        MOV     R5,DPH
        MOV     A,#0x2
        SJMP    ??MAC_SrcMatchAddEntry_13
//  183   }
??MAC_SrcMatchAddEntry_9:
        MOVX    A,@DPTR
        XRL     A,#0xc
        JNZ     ??MAC_SrcMatchAddEntry_11
        MOV     A,#0x1
        LCALL   ?XSTACK_DISP0_8
        LCALL   ?Subroutine3 & 0xFFFF
??CrossCallReturnLabel_6:
        XRL     A,#0x3
        JNZ     ??MAC_SrcMatchAddEntry_11
??MAC_SrcMatchAddEntry_10:
        MOV     R1,#0x1a
        LJMP    ??MAC_SrcMatchAddEntry_2 & 0xFFFF
//  184   else
//  185   {
//  186     /* Write the extended address */
//  187     MAC_RADIO_SRC_MATCH_TABLE_WRITE( ( index * MAC_SRCMATCH_EXT_ENTRY_SIZE ), 
//  188                    addr->addr.extAddr, MAC_SRCMATCH_EXT_ENTRY_SIZE ); 
??MAC_SrcMatchAddEntry_12:
        ; Setup parameters for call to function macMemWriteRam
        MOV     R1,#0x8
        MOV     A,#0x3
        LCALL   ?XSTACK_DISP0_8
        MOVX    A,@DPTR
        MOV     R4,A
        INC     DPTR
        MOVX    A,@DPTR
        MOV     R5,A
        MOV     A,#0x3
??MAC_SrcMatchAddEntry_13:
        MOV     R0,#?V0 + 0
        LCALL   ?S_SHL
        ADD     A,?V0 + 0
        MOV     R2,A
        MOV     A,#0x61
        ADDC    A,?V0 + 1
        MOV     R3,A
        LCALL   ??macMemWriteRam?relay
//  189   }
//  190   
//  191   /* Set the Autopend enable bits */
//  192   macSrcMatchSetPendEnBit( index, addr->addrMode );
        MOV     A,#0x1
        LCALL   ?XSTACK_DISP0_8
        LCALL   ?Subroutine2 & 0xFFFF
??CrossCallReturnLabel_2:
        MOV     R1,#0x3
        JNZ     ??MAC_SrcMatchAddEntry_14
        ; Setup parameters for call to function macMemReadRam
        MOV     A,#0x5
        LCALL   ?XSTACK_DISP0_8
        MOV     R4,DPL
        MOV     R5,DPH
        MOV     R2,#0x67
        MOV     R3,#0x61
        LCALL   ??macMemReadRam?relay
        ; Setup parameters for call to function osal_buffer_uint24
        ; Setup parameters for call to function osal_build_uint32
        MOV     R1,#0x3
        MOV     A,#0x5
        LCALL   ?XSTACK_DISP0_8
        MOV     R2,DPL
        MOV     R3,DPH
        LCALL   ??osal_build_uint32?relay
        MOV     ?V0 + 0,R2
        MOV     ?V0 + 1,R3
        MOV     ?V0 + 2,R4
        MOV     ?V0 + 3,R5
        MOV     ?V0 + 4,#0x1
        MOV     ?V0 + 5,#0x0
        MOV     ?V0 + 6,#0x0
        MOV     ?V0 + 7,#0x0
        MOV     DPL,?XSP + 0
        MOV     DPH,?XSP + 1
        MOVX    A,@DPTR
        MOV     R0,#?V0 + 4
        LCALL   ?L_SHL
        MOV     R0,#?V0 + 0
        MOV     R1,#?V0 + 4
        LCALL   ?L_IOR
        MOV     R0,#?V0 + 0
        LCALL   ?PUSH_XSTACK_I_FOUR
          CFI CFA_XSP16 add(XSP16, 43)
        MOV     A,#0xc
        LCALL   ?XSTACK_DISP0_8
        MOV     R2,DPL
        MOV     R3,DPH
        LCALL   ??osal_buffer_uint24?relay
        MOV     A,#0x4
        LCALL   ?DEALLOC_XSTACK8
          CFI CFA_XSP16 add(XSP16, 39)
        ; Setup parameters for call to function macMemWriteRam
        MOV     R1,#0x3
        MOV     A,#0x8
        LCALL   ?XSTACK_DISP0_8
        MOV     R4,DPL
        MOV     R5,DPH
        MOV     R2,#0x67
        LJMP    ??MAC_SrcMatchAddEntry_15 & 0xFFFF
??MAC_SrcMatchAddEntry_14:
        ; Setup parameters for call to function macMemReadRam
        MOV     A,#0x5
        LCALL   ?XSTACK_DISP0_8
        MOV     R4,DPL
        MOV     R5,DPH
        MOV     R2,#0x64
        MOV     R3,#0x61
        LCALL   ??macMemReadRam?relay
        MOV     DPL,?XSP + 0
        MOV     DPH,?XSP + 1
        MOVX    A,@DPTR
        CLR     C
        RLC     A
        MOV     R6,A
        ; Setup parameters for call to function osal_buffer_uint24
        ; Setup parameters for call to function osal_build_uint32
        MOV     R1,#0x3
        MOV     A,#0x5
        LCALL   ?XSTACK_DISP0_8
        MOV     R2,DPL
        MOV     R3,DPH
        LCALL   ??osal_build_uint32?relay
        MOV     ?V0 + 0,R2
        MOV     ?V0 + 1,R3
        MOV     ?V0 + 2,R4
        MOV     ?V0 + 3,R5
        MOV     ?V0 + 4,#0x1
        MOV     ?V0 + 5,#0x0
        MOV     ?V0 + 6,#0x0
        MOV     ?V0 + 7,#0x0
        MOV     A,R6
        MOV     R0,#?V0 + 4
        LCALL   ?L_SHL
        MOV     R0,#?V0 + 0
        MOV     R1,#?V0 + 4
        LCALL   ?L_IOR
        MOV     ?V0 + 4,#0x1
        MOV     ?V0 + 5,#0x0
        MOV     ?V0 + 6,#0x0
        MOV     ?V0 + 7,#0x0
        MOV     A,#0x1
        ADD     A,R6
        MOV     R0,#?V0 + 4
        LCALL   ?L_SHL
        MOV     R0,#?V0 + 0
        MOV     R1,#?V0 + 4
        LCALL   ?L_IOR
        MOV     R0,#?V0 + 0
        LCALL   ?PUSH_XSTACK_I_FOUR
          CFI CFA_XSP16 add(XSP16, 43)
        MOV     A,#0xc
        LCALL   ?XSTACK_DISP0_8
        MOV     R2,DPL
        MOV     R3,DPH
        LCALL   ??osal_buffer_uint24?relay
        MOV     A,#0x4
        LCALL   ?DEALLOC_XSTACK8
          CFI CFA_XSP16 add(XSP16, 39)
        ; Setup parameters for call to function macMemWriteRam
        MOV     R1,#0x3
        MOV     A,#0x8
        LCALL   ?XSTACK_DISP0_8
        MOV     R4,DPL
        MOV     R5,DPH
        MOV     R2,#0x64
??MAC_SrcMatchAddEntry_15:
        MOV     R3,#0x61
        LCALL   ??macMemWriteRam?relay
//  193   
//  194   /* Set the Src Match enable bits */
//  195   macSrcMatchSetEnableBit( index, TRUE, addr->addrMode);
        ; Setup parameters for call to function macSrcMatchSetEnableBit
        MOV     A,#0x1
        LCALL   ?XSTACK_DISP0_8
        LCALL   ?Subroutine3 & 0xFFFF
??CrossCallReturnLabel_7:
        MOV     R3,A
        MOV     R2,#0x1
        MOV     DPL,?XSP + 0
        MOV     DPH,?XSP + 1
        MOVX    A,@DPTR
        MOV     R1,A
        LCALL   ??macSrcMatchSetEnableBit?relay
//  196   
//  197   return MAC_SUCCESS;
        MOV     R1,#0x0
??MAC_SrcMatchAddEntry_2:
        MOV     A,#0xf
          CFI EndBlock cfiBlock1
        REQUIRE ?Subroutine1
        ; // Fall through to label ?Subroutine1
//  198 }

        RSEG BANKED_CODE:CODE:NOROOT(0)
?Subroutine1:
          CFI Block cfiBlock2 Using cfiCommon0
          CFI NoFunction
          CFI CFA_SP SP+0
          CFI CFA_XSP16 add(XSP16, 39)
          CFI VB load(1, XDATA, add(CFA_XSP16, literal(-23)))
          CFI DPL0 load(1, XDATA, add(CFA_XSP16, literal(-2)))
          CFI DPH0 load(1, XDATA, add(CFA_XSP16, literal(-1)))
          CFI R6 load(1, XDATA, add(CFA_XSP16, literal(-24)))
          CFI R7 load(1, XDATA, add(CFA_XSP16, literal(-6)))
          CFI V0 load(1, XDATA, add(CFA_XSP16, literal(-22)))
          CFI V1 load(1, XDATA, add(CFA_XSP16, literal(-21)))
          CFI V2 load(1, XDATA, add(CFA_XSP16, literal(-20)))
          CFI V3 load(1, XDATA, add(CFA_XSP16, literal(-19)))
          CFI V4 load(1, XDATA, add(CFA_XSP16, literal(-18)))
          CFI V5 load(1, XDATA, add(CFA_XSP16, literal(-17)))
          CFI V6 load(1, XDATA, add(CFA_XSP16, literal(-16)))
          CFI V7 load(1, XDATA, add(CFA_XSP16, literal(-15)))
          CFI V8 load(1, XDATA, add(CFA_XSP16, literal(-14)))
          CFI V9 load(1, XDATA, add(CFA_XSP16, literal(-13)))
          CFI V10 load(1, XDATA, add(CFA_XSP16, literal(-12)))
          CFI V11 load(1, XDATA, add(CFA_XSP16, literal(-11)))
          CFI V12 load(1, XDATA, add(CFA_XSP16, literal(-10)))
          CFI V13 load(1, XDATA, add(CFA_XSP16, literal(-9)))
          CFI V14 load(1, XDATA, add(CFA_XSP16, literal(-8)))
          CFI V15 load(1, XDATA, add(CFA_XSP16, literal(-7)))
          CFI ?BRET_EXT load(1, XDATA, add(CFA_XSP16, literal(-3)))
          CFI ?RET_HIGH load(1, XDATA, add(CFA_XSP16, literal(-4)))
          CFI ?RET_LOW load(1, XDATA, add(CFA_XSP16, literal(-5)))
          CFI Invalid
        LCALL   ?DEALLOC_XSTACK8
          CFI CFA_XSP16 add(XSP16, 24)
          CFI Valid
        MOV     R7,#0x10
        LJMP    ?BANKED_LEAVE_XDATA
          CFI EndBlock cfiBlock2

        RSEG BANKED_CODE:CODE:NOROOT(0)
?Subroutine3:
          CFI Block cfiCond3 Using cfiCommon0
          CFI Function MAC_SrcMatchAddEntry
          CFI Conditional ??CrossCallReturnLabel_3
          CFI R6 load(1, XDATA, add(CFA_XSP16, literal(-24)))
          CFI VB load(1, XDATA, add(CFA_XSP16, literal(-23)))
          CFI V0 load(1, XDATA, add(CFA_XSP16, literal(-22)))
          CFI V1 load(1, XDATA, add(CFA_XSP16, literal(-21)))
          CFI V2 load(1, XDATA, add(CFA_XSP16, literal(-20)))
          CFI V3 load(1, XDATA, add(CFA_XSP16, literal(-19)))
          CFI V4 load(1, XDATA, add(CFA_XSP16, literal(-18)))
          CFI V5 load(1, XDATA, add(CFA_XSP16, literal(-17)))
          CFI V6 load(1, XDATA, add(CFA_XSP16, literal(-16)))
          CFI V7 load(1, XDATA, add(CFA_XSP16, literal(-15)))
          CFI V8 load(1, XDATA, add(CFA_XSP16, literal(-14)))
          CFI V9 load(1, XDATA, add(CFA_XSP16, literal(-13)))
          CFI V10 load(1, XDATA, add(CFA_XSP16, literal(-12)))
          CFI V11 load(1, XDATA, add(CFA_XSP16, literal(-11)))
          CFI V12 load(1, XDATA, add(CFA_XSP16, literal(-10)))
          CFI V13 load(1, XDATA, add(CFA_XSP16, literal(-9)))
          CFI V14 load(1, XDATA, add(CFA_XSP16, literal(-8)))
          CFI V15 load(1, XDATA, add(CFA_XSP16, literal(-7)))
          CFI R7 load(1, XDATA, add(CFA_XSP16, literal(-6)))
          CFI ?RET_LOW load(1, XDATA, add(CFA_XSP16, literal(-5)))
          CFI ?RET_HIGH load(1, XDATA, add(CFA_XSP16, literal(-4)))
          CFI ?BRET_EXT load(1, XDATA, add(CFA_XSP16, literal(-3)))
          CFI DPL0 load(1, XDATA, add(CFA_XSP16, literal(-2)))
          CFI DPH0 load(1, XDATA, add(CFA_XSP16, literal(-1)))
          CFI CFA_SP SP+0
          CFI CFA_XSP16 add(XSP16, 39)
          CFI Block cfiCond4 Using cfiCommon0
          CFI (cfiCond4) Function MAC_SrcMatchAddEntry
          CFI (cfiCond4) Conditional ??CrossCallReturnLabel_4
          CFI (cfiCond4) R6 load(1, XDATA, add(CFA_XSP16, literal(-24)))
          CFI (cfiCond4) VB load(1, XDATA, add(CFA_XSP16, literal(-23)))
          CFI (cfiCond4) V0 load(1, XDATA, add(CFA_XSP16, literal(-22)))
          CFI (cfiCond4) V1 load(1, XDATA, add(CFA_XSP16, literal(-21)))
          CFI (cfiCond4) V2 load(1, XDATA, add(CFA_XSP16, literal(-20)))
          CFI (cfiCond4) V3 load(1, XDATA, add(CFA_XSP16, literal(-19)))
          CFI (cfiCond4) V4 load(1, XDATA, add(CFA_XSP16, literal(-18)))
          CFI (cfiCond4) V5 load(1, XDATA, add(CFA_XSP16, literal(-17)))
          CFI (cfiCond4) V6 load(1, XDATA, add(CFA_XSP16, literal(-16)))
          CFI (cfiCond4) V7 load(1, XDATA, add(CFA_XSP16, literal(-15)))
          CFI (cfiCond4) V8 load(1, XDATA, add(CFA_XSP16, literal(-14)))
          CFI (cfiCond4) V9 load(1, XDATA, add(CFA_XSP16, literal(-13)))
          CFI (cfiCond4) V10 load(1, XDATA, add(CFA_XSP16, literal(-12)))
          CFI (cfiCond4) V11 load(1, XDATA, add(CFA_XSP16, literal(-11)))
          CFI (cfiCond4) V12 load(1, XDATA, add(CFA_XSP16, literal(-10)))
          CFI (cfiCond4) V13 load(1, XDATA, add(CFA_XSP16, literal(-9)))
          CFI (cfiCond4) V14 load(1, XDATA, add(CFA_XSP16, literal(-8)))
          CFI (cfiCond4) V15 load(1, XDATA, add(CFA_XSP16, literal(-7)))
          CFI (cfiCond4) R7 load(1, XDATA, add(CFA_XSP16, literal(-6)))
          CFI (cfiCond4) ?RET_LOW load(1, XDATA, add(CFA_XSP16, literal(-5)))
          CFI (cfiCond4) ?RET_HIGH load(1, XDATA, add(CFA_XSP16, literal(-4)))
          CFI (cfiCond4) ?BRET_EXT load(1, XDATA, add(CFA_XSP16, literal(-3)))
          CFI (cfiCond4) DPL0 load(1, XDATA, add(CFA_XSP16, literal(-2)))
          CFI (cfiCond4) DPH0 load(1, XDATA, add(CFA_XSP16, literal(-1)))
          CFI (cfiCond4) CFA_SP SP+0
          CFI (cfiCond4) CFA_XSP16 add(XSP16, 39)
          CFI Block cfiCond5 Using cfiCommon0
          CFI (cfiCond5) Function MAC_SrcMatchAddEntry
          CFI (cfiCond5) Conditional ??CrossCallReturnLabel_5
          CFI (cfiCond5) R6 load(1, XDATA, add(CFA_XSP16, literal(-24)))
          CFI (cfiCond5) VB load(1, XDATA, add(CFA_XSP16, literal(-23)))
          CFI (cfiCond5) V0 load(1, XDATA, add(CFA_XSP16, literal(-22)))
          CFI (cfiCond5) V1 load(1, XDATA, add(CFA_XSP16, literal(-21)))
          CFI (cfiCond5) V2 load(1, XDATA, add(CFA_XSP16, literal(-20)))
          CFI (cfiCond5) V3 load(1, XDATA, add(CFA_XSP16, literal(-19)))
          CFI (cfiCond5) V4 load(1, XDATA, add(CFA_XSP16, literal(-18)))
          CFI (cfiCond5) V5 load(1, XDATA, add(CFA_XSP16, literal(-17)))
          CFI (cfiCond5) V6 load(1, XDATA, add(CFA_XSP16, literal(-16)))
          CFI (cfiCond5) V7 load(1, XDATA, add(CFA_XSP16, literal(-15)))
          CFI (cfiCond5) V8 load(1, XDATA, add(CFA_XSP16, literal(-14)))
          CFI (cfiCond5) V9 load(1, XDATA, add(CFA_XSP16, literal(-13)))
          CFI (cfiCond5) V10 load(1, XDATA, add(CFA_XSP16, literal(-12)))
          CFI (cfiCond5) V11 load(1, XDATA, add(CFA_XSP16, literal(-11)))
          CFI (cfiCond5) V12 load(1, XDATA, add(CFA_XSP16, literal(-10)))
          CFI (cfiCond5) V13 load(1, XDATA, add(CFA_XSP16, literal(-9)))
          CFI (cfiCond5) V14 load(1, XDATA, add(CFA_XSP16, literal(-8)))
          CFI (cfiCond5) V15 load(1, XDATA, add(CFA_XSP16, literal(-7)))
          CFI (cfiCond5) R7 load(1, XDATA, add(CFA_XSP16, literal(-6)))
          CFI (cfiCond5) ?RET_LOW load(1, XDATA, add(CFA_XSP16, literal(-5)))
          CFI (cfiCond5) ?RET_HIGH load(1, XDATA, add(CFA_XSP16, literal(-4)))
          CFI (cfiCond5) ?BRET_EXT load(1, XDATA, add(CFA_XSP16, literal(-3)))
          CFI (cfiCond5) DPL0 load(1, XDATA, add(CFA_XSP16, literal(-2)))
          CFI (cfiCond5) DPH0 load(1, XDATA, add(CFA_XSP16, literal(-1)))
          CFI (cfiCond5) CFA_SP SP+0
          CFI (cfiCond5) CFA_XSP16 add(XSP16, 39)
          CFI Block cfiCond6 Using cfiCommon0
          CFI (cfiCond6) Function MAC_SrcMatchAddEntry
          CFI (cfiCond6) Conditional ??CrossCallReturnLabel_6
          CFI (cfiCond6) R6 load(1, XDATA, add(CFA_XSP16, literal(-24)))
          CFI (cfiCond6) VB load(1, XDATA, add(CFA_XSP16, literal(-23)))
          CFI (cfiCond6) V0 load(1, XDATA, add(CFA_XSP16, literal(-22)))
          CFI (cfiCond6) V1 load(1, XDATA, add(CFA_XSP16, literal(-21)))
          CFI (cfiCond6) V2 load(1, XDATA, add(CFA_XSP16, literal(-20)))
          CFI (cfiCond6) V3 load(1, XDATA, add(CFA_XSP16, literal(-19)))
          CFI (cfiCond6) V4 load(1, XDATA, add(CFA_XSP16, literal(-18)))
          CFI (cfiCond6) V5 load(1, XDATA, add(CFA_XSP16, literal(-17)))
          CFI (cfiCond6) V6 load(1, XDATA, add(CFA_XSP16, literal(-16)))
          CFI (cfiCond6) V7 load(1, XDATA, add(CFA_XSP16, literal(-15)))
          CFI (cfiCond6) V8 load(1, XDATA, add(CFA_XSP16, literal(-14)))
          CFI (cfiCond6) V9 load(1, XDATA, add(CFA_XSP16, literal(-13)))
          CFI (cfiCond6) V10 load(1, XDATA, add(CFA_XSP16, literal(-12)))
          CFI (cfiCond6) V11 load(1, XDATA, add(CFA_XSP16, literal(-11)))
          CFI (cfiCond6) V12 load(1, XDATA, add(CFA_XSP16, literal(-10)))
          CFI (cfiCond6) V13 load(1, XDATA, add(CFA_XSP16, literal(-9)))
          CFI (cfiCond6) V14 load(1, XDATA, add(CFA_XSP16, literal(-8)))
          CFI (cfiCond6) V15 load(1, XDATA, add(CFA_XSP16, literal(-7)))
          CFI (cfiCond6) R7 load(1, XDATA, add(CFA_XSP16, literal(-6)))
          CFI (cfiCond6) ?RET_LOW load(1, XDATA, add(CFA_XSP16, literal(-5)))
          CFI (cfiCond6) ?RET_HIGH load(1, XDATA, add(CFA_XSP16, literal(-4)))
          CFI (cfiCond6) ?BRET_EXT load(1, XDATA, add(CFA_XSP16, literal(-3)))
          CFI (cfiCond6) DPL0 load(1, XDATA, add(CFA_XSP16, literal(-2)))
          CFI (cfiCond6) DPH0 load(1, XDATA, add(CFA_XSP16, literal(-1)))
          CFI (cfiCond6) CFA_SP SP+0
          CFI (cfiCond6) CFA_XSP16 add(XSP16, 39)
          CFI Block cfiCond7 Using cfiCommon0
          CFI (cfiCond7) Function MAC_SrcMatchAddEntry
          CFI (cfiCond7) Conditional ??CrossCallReturnLabel_7
          CFI (cfiCond7) R6 load(1, XDATA, add(CFA_XSP16, literal(-24)))
          CFI (cfiCond7) VB load(1, XDATA, add(CFA_XSP16, literal(-23)))
          CFI (cfiCond7) V0 load(1, XDATA, add(CFA_XSP16, literal(-22)))
          CFI (cfiCond7) V1 load(1, XDATA, add(CFA_XSP16, literal(-21)))
          CFI (cfiCond7) V2 load(1, XDATA, add(CFA_XSP16, literal(-20)))
          CFI (cfiCond7) V3 load(1, XDATA, add(CFA_XSP16, literal(-19)))
          CFI (cfiCond7) V4 load(1, XDATA, add(CFA_XSP16, literal(-18)))
          CFI (cfiCond7) V5 load(1, XDATA, add(CFA_XSP16, literal(-17)))
          CFI (cfiCond7) V6 load(1, XDATA, add(CFA_XSP16, literal(-16)))
          CFI (cfiCond7) V7 load(1, XDATA, add(CFA_XSP16, literal(-15)))
          CFI (cfiCond7) V8 load(1, XDATA, add(CFA_XSP16, literal(-14)))
          CFI (cfiCond7) V9 load(1, XDATA, add(CFA_XSP16, literal(-13)))
          CFI (cfiCond7) V10 load(1, XDATA, add(CFA_XSP16, literal(-12)))
          CFI (cfiCond7) V11 load(1, XDATA, add(CFA_XSP16, literal(-11)))
          CFI (cfiCond7) V12 load(1, XDATA, add(CFA_XSP16, literal(-10)))
          CFI (cfiCond7) V13 load(1, XDATA, add(CFA_XSP16, literal(-9)))
          CFI (cfiCond7) V14 load(1, XDATA, add(CFA_XSP16, literal(-8)))
          CFI (cfiCond7) V15 load(1, XDATA, add(CFA_XSP16, literal(-7)))
          CFI (cfiCond7) R7 load(1, XDATA, add(CFA_XSP16, literal(-6)))
          CFI (cfiCond7) ?RET_LOW load(1, XDATA, add(CFA_XSP16, literal(-5)))
          CFI (cfiCond7) ?RET_HIGH load(1, XDATA, add(CFA_XSP16, literal(-4)))
          CFI (cfiCond7) ?BRET_EXT load(1, XDATA, add(CFA_XSP16, literal(-3)))
          CFI (cfiCond7) DPL0 load(1, XDATA, add(CFA_XSP16, literal(-2)))
          CFI (cfiCond7) DPH0 load(1, XDATA, add(CFA_XSP16, literal(-1)))
          CFI (cfiCond7) CFA_SP SP+0
          CFI (cfiCond7) CFA_XSP16 add(XSP16, 39)
          CFI Block cfiPicker8 Using cfiCommon1
          CFI (cfiPicker8) NoFunction
          CFI (cfiPicker8) Picker
        LCALL   ?Subroutine5 & 0xFFFF
??CrossCallReturnLabel_12:
        RET
          CFI EndBlock cfiCond3
          CFI EndBlock cfiCond4
          CFI EndBlock cfiCond5
          CFI EndBlock cfiCond6
          CFI EndBlock cfiCond7
          CFI EndBlock cfiPicker8

        RSEG BANKED_CODE:CODE:NOROOT(0)
?Subroutine5:
          CFI Block cfiCond9 Using cfiCommon0
          CFI Function MAC_SrcMatchAddEntry
          CFI Conditional ??CrossCallReturnLabel_12, ??CrossCallReturnLabel_3
          CFI R6 load(1, XDATA, add(CFA_XSP16, literal(-24)))
          CFI VB load(1, XDATA, add(CFA_XSP16, literal(-23)))
          CFI V0 load(1, XDATA, add(CFA_XSP16, literal(-22)))
          CFI V1 load(1, XDATA, add(CFA_XSP16, literal(-21)))
          CFI V2 load(1, XDATA, add(CFA_XSP16, literal(-20)))
          CFI V3 load(1, XDATA, add(CFA_XSP16, literal(-19)))
          CFI V4 load(1, XDATA, add(CFA_XSP16, literal(-18)))
          CFI V5 load(1, XDATA, add(CFA_XSP16, literal(-17)))
          CFI V6 load(1, XDATA, add(CFA_XSP16, literal(-16)))
          CFI V7 load(1, XDATA, add(CFA_XSP16, literal(-15)))
          CFI V8 load(1, XDATA, add(CFA_XSP16, literal(-14)))
          CFI V9 load(1, XDATA, add(CFA_XSP16, literal(-13)))
          CFI V10 load(1, XDATA, add(CFA_XSP16, literal(-12)))
          CFI V11 load(1, XDATA, add(CFA_XSP16, literal(-11)))
          CFI V12 load(1, XDATA, add(CFA_XSP16, literal(-10)))
          CFI V13 load(1, XDATA, add(CFA_XSP16, literal(-9)))
          CFI V14 load(1, XDATA, add(CFA_XSP16, literal(-8)))
          CFI V15 load(1, XDATA, add(CFA_XSP16, literal(-7)))
          CFI R7 load(1, XDATA, add(CFA_XSP16, literal(-6)))
          CFI ?RET_LOW load(1, XDATA, add(CFA_XSP16, literal(-5)))
          CFI ?RET_HIGH load(1, XDATA, add(CFA_XSP16, literal(-4)))
          CFI ?BRET_EXT load(1, XDATA, add(CFA_XSP16, literal(-3)))
          CFI DPL0 load(1, XDATA, add(CFA_XSP16, literal(-2)))
          CFI DPH0 load(1, XDATA, add(CFA_XSP16, literal(-1)))
          CFI CFA_SP SP+0
          CFI CFA_XSP16 add(XSP16, 39)
          CFI Block cfiCond10 Using cfiCommon0
          CFI (cfiCond10) Function MAC_SrcMatchAddEntry
          CFI (cfiCond10) Conditional ??CrossCallReturnLabel_12, ??CrossCallReturnLabel_4
          CFI (cfiCond10) R6 load(1, XDATA, add(CFA_XSP16, literal(-24)))
          CFI (cfiCond10) VB load(1, XDATA, add(CFA_XSP16, literal(-23)))
          CFI (cfiCond10) V0 load(1, XDATA, add(CFA_XSP16, literal(-22)))
          CFI (cfiCond10) V1 load(1, XDATA, add(CFA_XSP16, literal(-21)))
          CFI (cfiCond10) V2 load(1, XDATA, add(CFA_XSP16, literal(-20)))
          CFI (cfiCond10) V3 load(1, XDATA, add(CFA_XSP16, literal(-19)))
          CFI (cfiCond10) V4 load(1, XDATA, add(CFA_XSP16, literal(-18)))
          CFI (cfiCond10) V5 load(1, XDATA, add(CFA_XSP16, literal(-17)))
          CFI (cfiCond10) V6 load(1, XDATA, add(CFA_XSP16, literal(-16)))
          CFI (cfiCond10) V7 load(1, XDATA, add(CFA_XSP16, literal(-15)))
          CFI (cfiCond10) V8 load(1, XDATA, add(CFA_XSP16, literal(-14)))
          CFI (cfiCond10) V9 load(1, XDATA, add(CFA_XSP16, literal(-13)))
          CFI (cfiCond10) V10 load(1, XDATA, add(CFA_XSP16, literal(-12)))
          CFI (cfiCond10) V11 load(1, XDATA, add(CFA_XSP16, literal(-11)))
          CFI (cfiCond10) V12 load(1, XDATA, add(CFA_XSP16, literal(-10)))
          CFI (cfiCond10) V13 load(1, XDATA, add(CFA_XSP16, literal(-9)))
          CFI (cfiCond10) V14 load(1, XDATA, add(CFA_XSP16, literal(-8)))
          CFI (cfiCond10) V15 load(1, XDATA, add(CFA_XSP16, literal(-7)))
          CFI (cfiCond10) R7 load(1, XDATA, add(CFA_XSP16, literal(-6)))
          CFI (cfiCond10) ?RET_LOW load(1, XDATA, add(CFA_XSP16, literal(-5)))
          CFI (cfiCond10) ?RET_HIGH load(1, XDATA, add(CFA_XSP16, literal(-4)))
          CFI (cfiCond10) ?BRET_EXT load(1, XDATA, add(CFA_XSP16, literal(-3)))
          CFI (cfiCond10) DPL0 load(1, XDATA, add(CFA_XSP16, literal(-2)))
          CFI (cfiCond10) DPH0 load(1, XDATA, add(CFA_XSP16, literal(-1)))
          CFI (cfiCond10) CFA_SP SP+0
          CFI (cfiCond10) CFA_XSP16 add(XSP16, 39)
          CFI Block cfiCond11 Using cfiCommon0
          CFI (cfiCond11) Function MAC_SrcMatchAddEntry
          CFI (cfiCond11) Conditional ??CrossCallReturnLabel_12, ??CrossCallReturnLabel_5
          CFI (cfiCond11) R6 load(1, XDATA, add(CFA_XSP16, literal(-24)))
          CFI (cfiCond11) VB load(1, XDATA, add(CFA_XSP16, literal(-23)))
          CFI (cfiCond11) V0 load(1, XDATA, add(CFA_XSP16, literal(-22)))
          CFI (cfiCond11) V1 load(1, XDATA, add(CFA_XSP16, literal(-21)))
          CFI (cfiCond11) V2 load(1, XDATA, add(CFA_XSP16, literal(-20)))
          CFI (cfiCond11) V3 load(1, XDATA, add(CFA_XSP16, literal(-19)))
          CFI (cfiCond11) V4 load(1, XDATA, add(CFA_XSP16, literal(-18)))
          CFI (cfiCond11) V5 load(1, XDATA, add(CFA_XSP16, literal(-17)))
          CFI (cfiCond11) V6 load(1, XDATA, add(CFA_XSP16, literal(-16)))
          CFI (cfiCond11) V7 load(1, XDATA, add(CFA_XSP16, literal(-15)))
          CFI (cfiCond11) V8 load(1, XDATA, add(CFA_XSP16, literal(-14)))
          CFI (cfiCond11) V9 load(1, XDATA, add(CFA_XSP16, literal(-13)))
          CFI (cfiCond11) V10 load(1, XDATA, add(CFA_XSP16, literal(-12)))
          CFI (cfiCond11) V11 load(1, XDATA, add(CFA_XSP16, literal(-11)))
          CFI (cfiCond11) V12 load(1, XDATA, add(CFA_XSP16, literal(-10)))
          CFI (cfiCond11) V13 load(1, XDATA, add(CFA_XSP16, literal(-9)))
          CFI (cfiCond11) V14 load(1, XDATA, add(CFA_XSP16, literal(-8)))
          CFI (cfiCond11) V15 load(1, XDATA, add(CFA_XSP16, literal(-7)))
          CFI (cfiCond11) R7 load(1, XDATA, add(CFA_XSP16, literal(-6)))
          CFI (cfiCond11) ?RET_LOW load(1, XDATA, add(CFA_XSP16, literal(-5)))
          CFI (cfiCond11) ?RET_HIGH load(1, XDATA, add(CFA_XSP16, literal(-4)))
          CFI (cfiCond11) ?BRET_EXT load(1, XDATA, add(CFA_XSP16, literal(-3)))
          CFI (cfiCond11) DPL0 load(1, XDATA, add(CFA_XSP16, literal(-2)))
          CFI (cfiCond11) DPH0 load(1, XDATA, add(CFA_XSP16, literal(-1)))
          CFI (cfiCond11) CFA_SP SP+0
          CFI (cfiCond11) CFA_XSP16 add(XSP16, 39)
          CFI Block cfiCond12 Using cfiCommon0
          CFI (cfiCond12) Function MAC_SrcMatchAddEntry
          CFI (cfiCond12) Conditional ??CrossCallReturnLabel_12, ??CrossCallReturnLabel_6
          CFI (cfiCond12) R6 load(1, XDATA, add(CFA_XSP16, literal(-24)))
          CFI (cfiCond12) VB load(1, XDATA, add(CFA_XSP16, literal(-23)))
          CFI (cfiCond12) V0 load(1, XDATA, add(CFA_XSP16, literal(-22)))
          CFI (cfiCond12) V1 load(1, XDATA, add(CFA_XSP16, literal(-21)))
          CFI (cfiCond12) V2 load(1, XDATA, add(CFA_XSP16, literal(-20)))
          CFI (cfiCond12) V3 load(1, XDATA, add(CFA_XSP16, literal(-19)))
          CFI (cfiCond12) V4 load(1, XDATA, add(CFA_XSP16, literal(-18)))
          CFI (cfiCond12) V5 load(1, XDATA, add(CFA_XSP16, literal(-17)))
          CFI (cfiCond12) V6 load(1, XDATA, add(CFA_XSP16, literal(-16)))
          CFI (cfiCond12) V7 load(1, XDATA, add(CFA_XSP16, literal(-15)))
          CFI (cfiCond12) V8 load(1, XDATA, add(CFA_XSP16, literal(-14)))
          CFI (cfiCond12) V9 load(1, XDATA, add(CFA_XSP16, literal(-13)))
          CFI (cfiCond12) V10 load(1, XDATA, add(CFA_XSP16, literal(-12)))
          CFI (cfiCond12) V11 load(1, XDATA, add(CFA_XSP16, literal(-11)))
          CFI (cfiCond12) V12 load(1, XDATA, add(CFA_XSP16, literal(-10)))
          CFI (cfiCond12) V13 load(1, XDATA, add(CFA_XSP16, literal(-9)))
          CFI (cfiCond12) V14 load(1, XDATA, add(CFA_XSP16, literal(-8)))
          CFI (cfiCond12) V15 load(1, XDATA, add(CFA_XSP16, literal(-7)))
          CFI (cfiCond12) R7 load(1, XDATA, add(CFA_XSP16, literal(-6)))
          CFI (cfiCond12) ?RET_LOW load(1, XDATA, add(CFA_XSP16, literal(-5)))
          CFI (cfiCond12) ?RET_HIGH load(1, XDATA, add(CFA_XSP16, literal(-4)))
          CFI (cfiCond12) ?BRET_EXT load(1, XDATA, add(CFA_XSP16, literal(-3)))
          CFI (cfiCond12) DPL0 load(1, XDATA, add(CFA_XSP16, literal(-2)))
          CFI (cfiCond12) DPH0 load(1, XDATA, add(CFA_XSP16, literal(-1)))
          CFI (cfiCond12) CFA_SP SP+0
          CFI (cfiCond12) CFA_XSP16 add(XSP16, 39)
          CFI Block cfiCond13 Using cfiCommon0
          CFI (cfiCond13) Function MAC_SrcMatchAddEntry
          CFI (cfiCond13) Conditional ??CrossCallReturnLabel_12, ??CrossCallReturnLabel_7
          CFI (cfiCond13) R6 load(1, XDATA, add(CFA_XSP16, literal(-24)))
          CFI (cfiCond13) VB load(1, XDATA, add(CFA_XSP16, literal(-23)))
          CFI (cfiCond13) V0 load(1, XDATA, add(CFA_XSP16, literal(-22)))
          CFI (cfiCond13) V1 load(1, XDATA, add(CFA_XSP16, literal(-21)))
          CFI (cfiCond13) V2 load(1, XDATA, add(CFA_XSP16, literal(-20)))
          CFI (cfiCond13) V3 load(1, XDATA, add(CFA_XSP16, literal(-19)))
          CFI (cfiCond13) V4 load(1, XDATA, add(CFA_XSP16, literal(-18)))
          CFI (cfiCond13) V5 load(1, XDATA, add(CFA_XSP16, literal(-17)))
          CFI (cfiCond13) V6 load(1, XDATA, add(CFA_XSP16, literal(-16)))
          CFI (cfiCond13) V7 load(1, XDATA, add(CFA_XSP16, literal(-15)))
          CFI (cfiCond13) V8 load(1, XDATA, add(CFA_XSP16, literal(-14)))
          CFI (cfiCond13) V9 load(1, XDATA, add(CFA_XSP16, literal(-13)))
          CFI (cfiCond13) V10 load(1, XDATA, add(CFA_XSP16, literal(-12)))
          CFI (cfiCond13) V11 load(1, XDATA, add(CFA_XSP16, literal(-11)))
          CFI (cfiCond13) V12 load(1, XDATA, add(CFA_XSP16, literal(-10)))
          CFI (cfiCond13) V13 load(1, XDATA, add(CFA_XSP16, literal(-9)))
          CFI (cfiCond13) V14 load(1, XDATA, add(CFA_XSP16, literal(-8)))
          CFI (cfiCond13) V15 load(1, XDATA, add(CFA_XSP16, literal(-7)))
          CFI (cfiCond13) R7 load(1, XDATA, add(CFA_XSP16, literal(-6)))
          CFI (cfiCond13) ?RET_LOW load(1, XDATA, add(CFA_XSP16, literal(-5)))
          CFI (cfiCond13) ?RET_HIGH load(1, XDATA, add(CFA_XSP16, literal(-4)))
          CFI (cfiCond13) ?BRET_EXT load(1, XDATA, add(CFA_XSP16, literal(-3)))
          CFI (cfiCond13) DPL0 load(1, XDATA, add(CFA_XSP16, literal(-2)))
          CFI (cfiCond13) DPH0 load(1, XDATA, add(CFA_XSP16, literal(-1)))
          CFI (cfiCond13) CFA_SP SP+0
          CFI (cfiCond13) CFA_XSP16 add(XSP16, 39)
          CFI Block cfiCond14 Using cfiCommon0
          CFI (cfiCond14) Function MAC_SrcMatchAddEntry
          CFI (cfiCond14) Conditional ??CrossCallReturnLabel_11, ??CrossCallReturnLabel_0
          CFI (cfiCond14) R6 load(1, XDATA, add(CFA_XSP16, literal(-24)))
          CFI (cfiCond14) VB load(1, XDATA, add(CFA_XSP16, literal(-23)))
          CFI (cfiCond14) V0 load(1, XDATA, add(CFA_XSP16, literal(-22)))
          CFI (cfiCond14) V1 load(1, XDATA, add(CFA_XSP16, literal(-21)))
          CFI (cfiCond14) V2 load(1, XDATA, add(CFA_XSP16, literal(-20)))
          CFI (cfiCond14) V3 load(1, XDATA, add(CFA_XSP16, literal(-19)))
          CFI (cfiCond14) V4 load(1, XDATA, add(CFA_XSP16, literal(-18)))
          CFI (cfiCond14) V5 load(1, XDATA, add(CFA_XSP16, literal(-17)))
          CFI (cfiCond14) V6 load(1, XDATA, add(CFA_XSP16, literal(-16)))
          CFI (cfiCond14) V7 load(1, XDATA, add(CFA_XSP16, literal(-15)))
          CFI (cfiCond14) V8 load(1, XDATA, add(CFA_XSP16, literal(-14)))
          CFI (cfiCond14) V9 load(1, XDATA, add(CFA_XSP16, literal(-13)))
          CFI (cfiCond14) V10 load(1, XDATA, add(CFA_XSP16, literal(-12)))
          CFI (cfiCond14) V11 load(1, XDATA, add(CFA_XSP16, literal(-11)))
          CFI (cfiCond14) V12 load(1, XDATA, add(CFA_XSP16, literal(-10)))
          CFI (cfiCond14) V13 load(1, XDATA, add(CFA_XSP16, literal(-9)))
          CFI (cfiCond14) V14 load(1, XDATA, add(CFA_XSP16, literal(-8)))
          CFI (cfiCond14) V15 load(1, XDATA, add(CFA_XSP16, literal(-7)))
          CFI (cfiCond14) R7 load(1, XDATA, add(CFA_XSP16, literal(-6)))
          CFI (cfiCond14) ?RET_LOW load(1, XDATA, add(CFA_XSP16, literal(-5)))
          CFI (cfiCond14) ?RET_HIGH load(1, XDATA, add(CFA_XSP16, literal(-4)))
          CFI (cfiCond14) ?BRET_EXT load(1, XDATA, add(CFA_XSP16, literal(-3)))
          CFI (cfiCond14) DPL0 load(1, XDATA, add(CFA_XSP16, literal(-2)))
          CFI (cfiCond14) DPH0 load(1, XDATA, add(CFA_XSP16, literal(-1)))
          CFI (cfiCond14) CFA_SP SP+0
          CFI (cfiCond14) CFA_XSP16 add(XSP16, 39)
          CFI Block cfiCond15 Using cfiCommon0
          CFI (cfiCond15) Function MAC_SrcMatchAddEntry
          CFI (cfiCond15) Conditional ??CrossCallReturnLabel_11, ??CrossCallReturnLabel_1
          CFI (cfiCond15) R6 load(1, XDATA, add(CFA_XSP16, literal(-24)))
          CFI (cfiCond15) VB load(1, XDATA, add(CFA_XSP16, literal(-23)))
          CFI (cfiCond15) V0 load(1, XDATA, add(CFA_XSP16, literal(-22)))
          CFI (cfiCond15) V1 load(1, XDATA, add(CFA_XSP16, literal(-21)))
          CFI (cfiCond15) V2 load(1, XDATA, add(CFA_XSP16, literal(-20)))
          CFI (cfiCond15) V3 load(1, XDATA, add(CFA_XSP16, literal(-19)))
          CFI (cfiCond15) V4 load(1, XDATA, add(CFA_XSP16, literal(-18)))
          CFI (cfiCond15) V5 load(1, XDATA, add(CFA_XSP16, literal(-17)))
          CFI (cfiCond15) V6 load(1, XDATA, add(CFA_XSP16, literal(-16)))
          CFI (cfiCond15) V7 load(1, XDATA, add(CFA_XSP16, literal(-15)))
          CFI (cfiCond15) V8 load(1, XDATA, add(CFA_XSP16, literal(-14)))
          CFI (cfiCond15) V9 load(1, XDATA, add(CFA_XSP16, literal(-13)))
          CFI (cfiCond15) V10 load(1, XDATA, add(CFA_XSP16, literal(-12)))
          CFI (cfiCond15) V11 load(1, XDATA, add(CFA_XSP16, literal(-11)))
          CFI (cfiCond15) V12 load(1, XDATA, add(CFA_XSP16, literal(-10)))
          CFI (cfiCond15) V13 load(1, XDATA, add(CFA_XSP16, literal(-9)))
          CFI (cfiCond15) V14 load(1, XDATA, add(CFA_XSP16, literal(-8)))
          CFI (cfiCond15) V15 load(1, XDATA, add(CFA_XSP16, literal(-7)))
          CFI (cfiCond15) R7 load(1, XDATA, add(CFA_XSP16, literal(-6)))
          CFI (cfiCond15) ?RET_LOW load(1, XDATA, add(CFA_XSP16, literal(-5)))
          CFI (cfiCond15) ?RET_HIGH load(1, XDATA, add(CFA_XSP16, literal(-4)))
          CFI (cfiCond15) ?BRET_EXT load(1, XDATA, add(CFA_XSP16, literal(-3)))
          CFI (cfiCond15) DPL0 load(1, XDATA, add(CFA_XSP16, literal(-2)))
          CFI (cfiCond15) DPH0 load(1, XDATA, add(CFA_XSP16, literal(-1)))
          CFI (cfiCond15) CFA_SP SP+0
          CFI (cfiCond15) CFA_XSP16 add(XSP16, 39)
          CFI Block cfiCond16 Using cfiCommon0
          CFI (cfiCond16) Function MAC_SrcMatchAddEntry
          CFI (cfiCond16) Conditional ??CrossCallReturnLabel_11, ??CrossCallReturnLabel_2
          CFI (cfiCond16) R6 load(1, XDATA, add(CFA_XSP16, literal(-24)))
          CFI (cfiCond16) VB load(1, XDATA, add(CFA_XSP16, literal(-23)))
          CFI (cfiCond16) V0 load(1, XDATA, add(CFA_XSP16, literal(-22)))
          CFI (cfiCond16) V1 load(1, XDATA, add(CFA_XSP16, literal(-21)))
          CFI (cfiCond16) V2 load(1, XDATA, add(CFA_XSP16, literal(-20)))
          CFI (cfiCond16) V3 load(1, XDATA, add(CFA_XSP16, literal(-19)))
          CFI (cfiCond16) V4 load(1, XDATA, add(CFA_XSP16, literal(-18)))
          CFI (cfiCond16) V5 load(1, XDATA, add(CFA_XSP16, literal(-17)))
          CFI (cfiCond16) V6 load(1, XDATA, add(CFA_XSP16, literal(-16)))
          CFI (cfiCond16) V7 load(1, XDATA, add(CFA_XSP16, literal(-15)))
          CFI (cfiCond16) V8 load(1, XDATA, add(CFA_XSP16, literal(-14)))
          CFI (cfiCond16) V9 load(1, XDATA, add(CFA_XSP16, literal(-13)))
          CFI (cfiCond16) V10 load(1, XDATA, add(CFA_XSP16, literal(-12)))
          CFI (cfiCond16) V11 load(1, XDATA, add(CFA_XSP16, literal(-11)))
          CFI (cfiCond16) V12 load(1, XDATA, add(CFA_XSP16, literal(-10)))
          CFI (cfiCond16) V13 load(1, XDATA, add(CFA_XSP16, literal(-9)))
          CFI (cfiCond16) V14 load(1, XDATA, add(CFA_XSP16, literal(-8)))
          CFI (cfiCond16) V15 load(1, XDATA, add(CFA_XSP16, literal(-7)))
          CFI (cfiCond16) R7 load(1, XDATA, add(CFA_XSP16, literal(-6)))
          CFI (cfiCond16) ?RET_LOW load(1, XDATA, add(CFA_XSP16, literal(-5)))
          CFI (cfiCond16) ?RET_HIGH load(1, XDATA, add(CFA_XSP16, literal(-4)))
          CFI (cfiCond16) ?BRET_EXT load(1, XDATA, add(CFA_XSP16, literal(-3)))
          CFI (cfiCond16) DPL0 load(1, XDATA, add(CFA_XSP16, literal(-2)))
          CFI (cfiCond16) DPH0 load(1, XDATA, add(CFA_XSP16, literal(-1)))
          CFI (cfiCond16) CFA_SP SP+0
          CFI (cfiCond16) CFA_XSP16 add(XSP16, 39)
          CFI Block cfiPicker17 Using cfiCommon1
          CFI (cfiPicker17) NoFunction
          CFI (cfiPicker17) Picker
        LCALL   ?Subroutine6 & 0xFFFF
??CrossCallReturnLabel_14:
        MOVX    A,@DPTR
        RET
          CFI EndBlock cfiCond9
          CFI EndBlock cfiCond10
          CFI EndBlock cfiCond11
          CFI EndBlock cfiCond12
          CFI EndBlock cfiCond13
          CFI EndBlock cfiCond14
          CFI EndBlock cfiCond15
          CFI EndBlock cfiCond16
          CFI EndBlock cfiPicker17

        RSEG BANKED_CODE:CODE:NOROOT(0)
?Subroutine6:
          CFI Block cfiCond18 Using cfiCommon0
          CFI Function MAC_SrcMatchAddEntry
          CFI Conditional ??CrossCallReturnLabel_13
          CFI R6 load(1, XDATA, add(CFA_XSP16, literal(-24)))
          CFI VB load(1, XDATA, add(CFA_XSP16, literal(-23)))
          CFI V0 load(1, XDATA, add(CFA_XSP16, literal(-22)))
          CFI V1 load(1, XDATA, add(CFA_XSP16, literal(-21)))
          CFI V2 load(1, XDATA, add(CFA_XSP16, literal(-20)))
          CFI V3 load(1, XDATA, add(CFA_XSP16, literal(-19)))
          CFI V4 load(1, XDATA, add(CFA_XSP16, literal(-18)))
          CFI V5 load(1, XDATA, add(CFA_XSP16, literal(-17)))
          CFI V6 load(1, XDATA, add(CFA_XSP16, literal(-16)))
          CFI V7 load(1, XDATA, add(CFA_XSP16, literal(-15)))
          CFI V8 load(1, XDATA, add(CFA_XSP16, literal(-14)))
          CFI V9 load(1, XDATA, add(CFA_XSP16, literal(-13)))
          CFI V10 load(1, XDATA, add(CFA_XSP16, literal(-12)))
          CFI V11 load(1, XDATA, add(CFA_XSP16, literal(-11)))
          CFI V12 load(1, XDATA, add(CFA_XSP16, literal(-10)))
          CFI V13 load(1, XDATA, add(CFA_XSP16, literal(-9)))
          CFI V14 load(1, XDATA, add(CFA_XSP16, literal(-8)))
          CFI V15 load(1, XDATA, add(CFA_XSP16, literal(-7)))
          CFI R7 load(1, XDATA, add(CFA_XSP16, literal(-6)))
          CFI ?RET_LOW load(1, XDATA, add(CFA_XSP16, literal(-5)))
          CFI ?RET_HIGH load(1, XDATA, add(CFA_XSP16, literal(-4)))
          CFI ?BRET_EXT load(1, XDATA, add(CFA_XSP16, literal(-3)))
          CFI DPL0 load(1, XDATA, add(CFA_XSP16, literal(-2)))
          CFI DPH0 load(1, XDATA, add(CFA_XSP16, literal(-1)))
          CFI CFA_SP SP+0
          CFI CFA_XSP16 add(XSP16, 39)
          CFI Block cfiCond19 Using cfiCommon0
          CFI (cfiCond19) Function MAC_SrcMatchAddEntry
          CFI (cfiCond19) Conditional ??CrossCallReturnLabel_14, ??CrossCallReturnLabel_12, ??CrossCallReturnLabel_3
          CFI (cfiCond19) R6 load(1, XDATA, add(CFA_XSP16, literal(-24)))
          CFI (cfiCond19) VB load(1, XDATA, add(CFA_XSP16, literal(-23)))
          CFI (cfiCond19) V0 load(1, XDATA, add(CFA_XSP16, literal(-22)))
          CFI (cfiCond19) V1 load(1, XDATA, add(CFA_XSP16, literal(-21)))
          CFI (cfiCond19) V2 load(1, XDATA, add(CFA_XSP16, literal(-20)))
          CFI (cfiCond19) V3 load(1, XDATA, add(CFA_XSP16, literal(-19)))
          CFI (cfiCond19) V4 load(1, XDATA, add(CFA_XSP16, literal(-18)))
          CFI (cfiCond19) V5 load(1, XDATA, add(CFA_XSP16, literal(-17)))
          CFI (cfiCond19) V6 load(1, XDATA, add(CFA_XSP16, literal(-16)))
          CFI (cfiCond19) V7 load(1, XDATA, add(CFA_XSP16, literal(-15)))
          CFI (cfiCond19) V8 load(1, XDATA, add(CFA_XSP16, literal(-14)))
          CFI (cfiCond19) V9 load(1, XDATA, add(CFA_XSP16, literal(-13)))
          CFI (cfiCond19) V10 load(1, XDATA, add(CFA_XSP16, literal(-12)))
          CFI (cfiCond19) V11 load(1, XDATA, add(CFA_XSP16, literal(-11)))
          CFI (cfiCond19) V12 load(1, XDATA, add(CFA_XSP16, literal(-10)))
          CFI (cfiCond19) V13 load(1, XDATA, add(CFA_XSP16, literal(-9)))
          CFI (cfiCond19) V14 load(1, XDATA, add(CFA_XSP16, literal(-8)))
          CFI (cfiCond19) V15 load(1, XDATA, add(CFA_XSP16, literal(-7)))
          CFI (cfiCond19) R7 load(1, XDATA, add(CFA_XSP16, literal(-6)))
          CFI (cfiCond19) ?RET_LOW load(1, XDATA, add(CFA_XSP16, literal(-5)))
          CFI (cfiCond19) ?RET_HIGH load(1, XDATA, add(CFA_XSP16, literal(-4)))
          CFI (cfiCond19) ?BRET_EXT load(1, XDATA, add(CFA_XSP16, literal(-3)))
          CFI (cfiCond19) DPL0 load(1, XDATA, add(CFA_XSP16, literal(-2)))
          CFI (cfiCond19) DPH0 load(1, XDATA, add(CFA_XSP16, literal(-1)))
          CFI (cfiCond19) CFA_SP SP+0
          CFI (cfiCond19) CFA_XSP16 add(XSP16, 39)
          CFI Block cfiCond20 Using cfiCommon0
          CFI (cfiCond20) Function MAC_SrcMatchAddEntry
          CFI (cfiCond20) Conditional ??CrossCallReturnLabel_14, ??CrossCallReturnLabel_12, ??CrossCallReturnLabel_4
          CFI (cfiCond20) R6 load(1, XDATA, add(CFA_XSP16, literal(-24)))
          CFI (cfiCond20) VB load(1, XDATA, add(CFA_XSP16, literal(-23)))
          CFI (cfiCond20) V0 load(1, XDATA, add(CFA_XSP16, literal(-22)))
          CFI (cfiCond20) V1 load(1, XDATA, add(CFA_XSP16, literal(-21)))
          CFI (cfiCond20) V2 load(1, XDATA, add(CFA_XSP16, literal(-20)))
          CFI (cfiCond20) V3 load(1, XDATA, add(CFA_XSP16, literal(-19)))
          CFI (cfiCond20) V4 load(1, XDATA, add(CFA_XSP16, literal(-18)))
          CFI (cfiCond20) V5 load(1, XDATA, add(CFA_XSP16, literal(-17)))
          CFI (cfiCond20) V6 load(1, XDATA, add(CFA_XSP16, literal(-16)))
          CFI (cfiCond20) V7 load(1, XDATA, add(CFA_XSP16, literal(-15)))
          CFI (cfiCond20) V8 load(1, XDATA, add(CFA_XSP16, literal(-14)))
          CFI (cfiCond20) V9 load(1, XDATA, add(CFA_XSP16, literal(-13)))
          CFI (cfiCond20) V10 load(1, XDATA, add(CFA_XSP16, literal(-12)))
          CFI (cfiCond20) V11 load(1, XDATA, add(CFA_XSP16, literal(-11)))
          CFI (cfiCond20) V12 load(1, XDATA, add(CFA_XSP16, literal(-10)))
          CFI (cfiCond20) V13 load(1, XDATA, add(CFA_XSP16, literal(-9)))
          CFI (cfiCond20) V14 load(1, XDATA, add(CFA_XSP16, literal(-8)))
          CFI (cfiCond20) V15 load(1, XDATA, add(CFA_XSP16, literal(-7)))
          CFI (cfiCond20) R7 load(1, XDATA, add(CFA_XSP16, literal(-6)))
          CFI (cfiCond20) ?RET_LOW load(1, XDATA, add(CFA_XSP16, literal(-5)))
          CFI (cfiCond20) ?RET_HIGH load(1, XDATA, add(CFA_XSP16, literal(-4)))
          CFI (cfiCond20) ?BRET_EXT load(1, XDATA, add(CFA_XSP16, literal(-3)))
          CFI (cfiCond20) DPL0 load(1, XDATA, add(CFA_XSP16, literal(-2)))
          CFI (cfiCond20) DPH0 load(1, XDATA, add(CFA_XSP16, literal(-1)))
          CFI (cfiCond20) CFA_SP SP+0
          CFI (cfiCond20) CFA_XSP16 add(XSP16, 39)
          CFI Block cfiCond21 Using cfiCommon0
          CFI (cfiCond21) Function MAC_SrcMatchAddEntry
          CFI (cfiCond21) Conditional ??CrossCallReturnLabel_14, ??CrossCallReturnLabel_12, ??CrossCallReturnLabel_5
          CFI (cfiCond21) R6 load(1, XDATA, add(CFA_XSP16, literal(-24)))
          CFI (cfiCond21) VB load(1, XDATA, add(CFA_XSP16, literal(-23)))
          CFI (cfiCond21) V0 load(1, XDATA, add(CFA_XSP16, literal(-22)))
          CFI (cfiCond21) V1 load(1, XDATA, add(CFA_XSP16, literal(-21)))
          CFI (cfiCond21) V2 load(1, XDATA, add(CFA_XSP16, literal(-20)))
          CFI (cfiCond21) V3 load(1, XDATA, add(CFA_XSP16, literal(-19)))
          CFI (cfiCond21) V4 load(1, XDATA, add(CFA_XSP16, literal(-18)))
          CFI (cfiCond21) V5 load(1, XDATA, add(CFA_XSP16, literal(-17)))
          CFI (cfiCond21) V6 load(1, XDATA, add(CFA_XSP16, literal(-16)))
          CFI (cfiCond21) V7 load(1, XDATA, add(CFA_XSP16, literal(-15)))
          CFI (cfiCond21) V8 load(1, XDATA, add(CFA_XSP16, literal(-14)))
          CFI (cfiCond21) V9 load(1, XDATA, add(CFA_XSP16, literal(-13)))
          CFI (cfiCond21) V10 load(1, XDATA, add(CFA_XSP16, literal(-12)))
          CFI (cfiCond21) V11 load(1, XDATA, add(CFA_XSP16, literal(-11)))
          CFI (cfiCond21) V12 load(1, XDATA, add(CFA_XSP16, literal(-10)))
          CFI (cfiCond21) V13 load(1, XDATA, add(CFA_XSP16, literal(-9)))
          CFI (cfiCond21) V14 load(1, XDATA, add(CFA_XSP16, literal(-8)))
          CFI (cfiCond21) V15 load(1, XDATA, add(CFA_XSP16, literal(-7)))
          CFI (cfiCond21) R7 load(1, XDATA, add(CFA_XSP16, literal(-6)))
          CFI (cfiCond21) ?RET_LOW load(1, XDATA, add(CFA_XSP16, literal(-5)))
          CFI (cfiCond21) ?RET_HIGH load(1, XDATA, add(CFA_XSP16, literal(-4)))
          CFI (cfiCond21) ?BRET_EXT load(1, XDATA, add(CFA_XSP16, literal(-3)))
          CFI (cfiCond21) DPL0 load(1, XDATA, add(CFA_XSP16, literal(-2)))
          CFI (cfiCond21) DPH0 load(1, XDATA, add(CFA_XSP16, literal(-1)))
          CFI (cfiCond21) CFA_SP SP+0
          CFI (cfiCond21) CFA_XSP16 add(XSP16, 39)
          CFI Block cfiCond22 Using cfiCommon0
          CFI (cfiCond22) Function MAC_SrcMatchAddEntry
          CFI (cfiCond22) Conditional ??CrossCallReturnLabel_14, ??CrossCallReturnLabel_12, ??CrossCallReturnLabel_6
          CFI (cfiCond22) R6 load(1, XDATA, add(CFA_XSP16, literal(-24)))
          CFI (cfiCond22) VB load(1, XDATA, add(CFA_XSP16, literal(-23)))
          CFI (cfiCond22) V0 load(1, XDATA, add(CFA_XSP16, literal(-22)))
          CFI (cfiCond22) V1 load(1, XDATA, add(CFA_XSP16, literal(-21)))
          CFI (cfiCond22) V2 load(1, XDATA, add(CFA_XSP16, literal(-20)))
          CFI (cfiCond22) V3 load(1, XDATA, add(CFA_XSP16, literal(-19)))
          CFI (cfiCond22) V4 load(1, XDATA, add(CFA_XSP16, literal(-18)))
          CFI (cfiCond22) V5 load(1, XDATA, add(CFA_XSP16, literal(-17)))
          CFI (cfiCond22) V6 load(1, XDATA, add(CFA_XSP16, literal(-16)))
          CFI (cfiCond22) V7 load(1, XDATA, add(CFA_XSP16, literal(-15)))
          CFI (cfiCond22) V8 load(1, XDATA, add(CFA_XSP16, literal(-14)))
          CFI (cfiCond22) V9 load(1, XDATA, add(CFA_XSP16, literal(-13)))
          CFI (cfiCond22) V10 load(1, XDATA, add(CFA_XSP16, literal(-12)))
          CFI (cfiCond22) V11 load(1, XDATA, add(CFA_XSP16, literal(-11)))
          CFI (cfiCond22) V12 load(1, XDATA, add(CFA_XSP16, literal(-10)))
          CFI (cfiCond22) V13 load(1, XDATA, add(CFA_XSP16, literal(-9)))
          CFI (cfiCond22) V14 load(1, XDATA, add(CFA_XSP16, literal(-8)))
          CFI (cfiCond22) V15 load(1, XDATA, add(CFA_XSP16, literal(-7)))
          CFI (cfiCond22) R7 load(1, XDATA, add(CFA_XSP16, literal(-6)))
          CFI (cfiCond22) ?RET_LOW load(1, XDATA, add(CFA_XSP16, literal(-5)))
          CFI (cfiCond22) ?RET_HIGH load(1, XDATA, add(CFA_XSP16, literal(-4)))
          CFI (cfiCond22) ?BRET_EXT load(1, XDATA, add(CFA_XSP16, literal(-3)))
          CFI (cfiCond22) DPL0 load(1, XDATA, add(CFA_XSP16, literal(-2)))
          CFI (cfiCond22) DPH0 load(1, XDATA, add(CFA_XSP16, literal(-1)))
          CFI (cfiCond22) CFA_SP SP+0
          CFI (cfiCond22) CFA_XSP16 add(XSP16, 39)
          CFI Block cfiCond23 Using cfiCommon0
          CFI (cfiCond23) Function MAC_SrcMatchAddEntry
          CFI (cfiCond23) Conditional ??CrossCallReturnLabel_14, ??CrossCallReturnLabel_12, ??CrossCallReturnLabel_7
          CFI (cfiCond23) R6 load(1, XDATA, add(CFA_XSP16, literal(-24)))
          CFI (cfiCond23) VB load(1, XDATA, add(CFA_XSP16, literal(-23)))
          CFI (cfiCond23) V0 load(1, XDATA, add(CFA_XSP16, literal(-22)))
          CFI (cfiCond23) V1 load(1, XDATA, add(CFA_XSP16, literal(-21)))
          CFI (cfiCond23) V2 load(1, XDATA, add(CFA_XSP16, literal(-20)))
          CFI (cfiCond23) V3 load(1, XDATA, add(CFA_XSP16, literal(-19)))
          CFI (cfiCond23) V4 load(1, XDATA, add(CFA_XSP16, literal(-18)))
          CFI (cfiCond23) V5 load(1, XDATA, add(CFA_XSP16, literal(-17)))
          CFI (cfiCond23) V6 load(1, XDATA, add(CFA_XSP16, literal(-16)))
          CFI (cfiCond23) V7 load(1, XDATA, add(CFA_XSP16, literal(-15)))
          CFI (cfiCond23) V8 load(1, XDATA, add(CFA_XSP16, literal(-14)))
          CFI (cfiCond23) V9 load(1, XDATA, add(CFA_XSP16, literal(-13)))
          CFI (cfiCond23) V10 load(1, XDATA, add(CFA_XSP16, literal(-12)))
          CFI (cfiCond23) V11 load(1, XDATA, add(CFA_XSP16, literal(-11)))
          CFI (cfiCond23) V12 load(1, XDATA, add(CFA_XSP16, literal(-10)))
          CFI (cfiCond23) V13 load(1, XDATA, add(CFA_XSP16, literal(-9)))
          CFI (cfiCond23) V14 load(1, XDATA, add(CFA_XSP16, literal(-8)))
          CFI (cfiCond23) V15 load(1, XDATA, add(CFA_XSP16, literal(-7)))
          CFI (cfiCond23) R7 load(1, XDATA, add(CFA_XSP16, literal(-6)))
          CFI (cfiCond23) ?RET_LOW load(1, XDATA, add(CFA_XSP16, literal(-5)))
          CFI (cfiCond23) ?RET_HIGH load(1, XDATA, add(CFA_XSP16, literal(-4)))
          CFI (cfiCond23) ?BRET_EXT load(1, XDATA, add(CFA_XSP16, literal(-3)))
          CFI (cfiCond23) DPL0 load(1, XDATA, add(CFA_XSP16, literal(-2)))
          CFI (cfiCond23) DPH0 load(1, XDATA, add(CFA_XSP16, literal(-1)))
          CFI (cfiCond23) CFA_SP SP+0
          CFI (cfiCond23) CFA_XSP16 add(XSP16, 39)
          CFI Block cfiCond24 Using cfiCommon0
          CFI (cfiCond24) Function MAC_SrcMatchAddEntry
          CFI (cfiCond24) Conditional ??CrossCallReturnLabel_14, ??CrossCallReturnLabel_11, ??CrossCallReturnLabel_0
          CFI (cfiCond24) R6 load(1, XDATA, add(CFA_XSP16, literal(-24)))
          CFI (cfiCond24) VB load(1, XDATA, add(CFA_XSP16, literal(-23)))
          CFI (cfiCond24) V0 load(1, XDATA, add(CFA_XSP16, literal(-22)))
          CFI (cfiCond24) V1 load(1, XDATA, add(CFA_XSP16, literal(-21)))
          CFI (cfiCond24) V2 load(1, XDATA, add(CFA_XSP16, literal(-20)))
          CFI (cfiCond24) V3 load(1, XDATA, add(CFA_XSP16, literal(-19)))
          CFI (cfiCond24) V4 load(1, XDATA, add(CFA_XSP16, literal(-18)))
          CFI (cfiCond24) V5 load(1, XDATA, add(CFA_XSP16, literal(-17)))
          CFI (cfiCond24) V6 load(1, XDATA, add(CFA_XSP16, literal(-16)))
          CFI (cfiCond24) V7 load(1, XDATA, add(CFA_XSP16, literal(-15)))
          CFI (cfiCond24) V8 load(1, XDATA, add(CFA_XSP16, literal(-14)))
          CFI (cfiCond24) V9 load(1, XDATA, add(CFA_XSP16, literal(-13)))
          CFI (cfiCond24) V10 load(1, XDATA, add(CFA_XSP16, literal(-12)))
          CFI (cfiCond24) V11 load(1, XDATA, add(CFA_XSP16, literal(-11)))
          CFI (cfiCond24) V12 load(1, XDATA, add(CFA_XSP16, literal(-10)))
          CFI (cfiCond24) V13 load(1, XDATA, add(CFA_XSP16, literal(-9)))
          CFI (cfiCond24) V14 load(1, XDATA, add(CFA_XSP16, literal(-8)))
          CFI (cfiCond24) V15 load(1, XDATA, add(CFA_XSP16, literal(-7)))
          CFI (cfiCond24) R7 load(1, XDATA, add(CFA_XSP16, literal(-6)))
          CFI (cfiCond24) ?RET_LOW load(1, XDATA, add(CFA_XSP16, literal(-5)))
          CFI (cfiCond24) ?RET_HIGH load(1, XDATA, add(CFA_XSP16, literal(-4)))
          CFI (cfiCond24) ?BRET_EXT load(1, XDATA, add(CFA_XSP16, literal(-3)))
          CFI (cfiCond24) DPL0 load(1, XDATA, add(CFA_XSP16, literal(-2)))
          CFI (cfiCond24) DPH0 load(1, XDATA, add(CFA_XSP16, literal(-1)))
          CFI (cfiCond24) CFA_SP SP+0
          CFI (cfiCond24) CFA_XSP16 add(XSP16, 39)
          CFI Block cfiCond25 Using cfiCommon0
          CFI (cfiCond25) Function MAC_SrcMatchAddEntry
          CFI (cfiCond25) Conditional ??CrossCallReturnLabel_14, ??CrossCallReturnLabel_11, ??CrossCallReturnLabel_1
          CFI (cfiCond25) R6 load(1, XDATA, add(CFA_XSP16, literal(-24)))
          CFI (cfiCond25) VB load(1, XDATA, add(CFA_XSP16, literal(-23)))
          CFI (cfiCond25) V0 load(1, XDATA, add(CFA_XSP16, literal(-22)))
          CFI (cfiCond25) V1 load(1, XDATA, add(CFA_XSP16, literal(-21)))
          CFI (cfiCond25) V2 load(1, XDATA, add(CFA_XSP16, literal(-20)))
          CFI (cfiCond25) V3 load(1, XDATA, add(CFA_XSP16, literal(-19)))
          CFI (cfiCond25) V4 load(1, XDATA, add(CFA_XSP16, literal(-18)))
          CFI (cfiCond25) V5 load(1, XDATA, add(CFA_XSP16, literal(-17)))
          CFI (cfiCond25) V6 load(1, XDATA, add(CFA_XSP16, literal(-16)))
          CFI (cfiCond25) V7 load(1, XDATA, add(CFA_XSP16, literal(-15)))
          CFI (cfiCond25) V8 load(1, XDATA, add(CFA_XSP16, literal(-14)))
          CFI (cfiCond25) V9 load(1, XDATA, add(CFA_XSP16, literal(-13)))
          CFI (cfiCond25) V10 load(1, XDATA, add(CFA_XSP16, literal(-12)))
          CFI (cfiCond25) V11 load(1, XDATA, add(CFA_XSP16, literal(-11)))
          CFI (cfiCond25) V12 load(1, XDATA, add(CFA_XSP16, literal(-10)))
          CFI (cfiCond25) V13 load(1, XDATA, add(CFA_XSP16, literal(-9)))
          CFI (cfiCond25) V14 load(1, XDATA, add(CFA_XSP16, literal(-8)))
          CFI (cfiCond25) V15 load(1, XDATA, add(CFA_XSP16, literal(-7)))
          CFI (cfiCond25) R7 load(1, XDATA, add(CFA_XSP16, literal(-6)))
          CFI (cfiCond25) ?RET_LOW load(1, XDATA, add(CFA_XSP16, literal(-5)))
          CFI (cfiCond25) ?RET_HIGH load(1, XDATA, add(CFA_XSP16, literal(-4)))
          CFI (cfiCond25) ?BRET_EXT load(1, XDATA, add(CFA_XSP16, literal(-3)))
          CFI (cfiCond25) DPL0 load(1, XDATA, add(CFA_XSP16, literal(-2)))
          CFI (cfiCond25) DPH0 load(1, XDATA, add(CFA_XSP16, literal(-1)))
          CFI (cfiCond25) CFA_SP SP+0
          CFI (cfiCond25) CFA_XSP16 add(XSP16, 39)
          CFI Block cfiCond26 Using cfiCommon0
          CFI (cfiCond26) Function MAC_SrcMatchAddEntry
          CFI (cfiCond26) Conditional ??CrossCallReturnLabel_14, ??CrossCallReturnLabel_11, ??CrossCallReturnLabel_2
          CFI (cfiCond26) R6 load(1, XDATA, add(CFA_XSP16, literal(-24)))
          CFI (cfiCond26) VB load(1, XDATA, add(CFA_XSP16, literal(-23)))
          CFI (cfiCond26) V0 load(1, XDATA, add(CFA_XSP16, literal(-22)))
          CFI (cfiCond26) V1 load(1, XDATA, add(CFA_XSP16, literal(-21)))
          CFI (cfiCond26) V2 load(1, XDATA, add(CFA_XSP16, literal(-20)))
          CFI (cfiCond26) V3 load(1, XDATA, add(CFA_XSP16, literal(-19)))
          CFI (cfiCond26) V4 load(1, XDATA, add(CFA_XSP16, literal(-18)))
          CFI (cfiCond26) V5 load(1, XDATA, add(CFA_XSP16, literal(-17)))
          CFI (cfiCond26) V6 load(1, XDATA, add(CFA_XSP16, literal(-16)))
          CFI (cfiCond26) V7 load(1, XDATA, add(CFA_XSP16, literal(-15)))
          CFI (cfiCond26) V8 load(1, XDATA, add(CFA_XSP16, literal(-14)))
          CFI (cfiCond26) V9 load(1, XDATA, add(CFA_XSP16, literal(-13)))
          CFI (cfiCond26) V10 load(1, XDATA, add(CFA_XSP16, literal(-12)))
          CFI (cfiCond26) V11 load(1, XDATA, add(CFA_XSP16, literal(-11)))
          CFI (cfiCond26) V12 load(1, XDATA, add(CFA_XSP16, literal(-10)))
          CFI (cfiCond26) V13 load(1, XDATA, add(CFA_XSP16, literal(-9)))
          CFI (cfiCond26) V14 load(1, XDATA, add(CFA_XSP16, literal(-8)))
          CFI (cfiCond26) V15 load(1, XDATA, add(CFA_XSP16, literal(-7)))
          CFI (cfiCond26) R7 load(1, XDATA, add(CFA_XSP16, literal(-6)))
          CFI (cfiCond26) ?RET_LOW load(1, XDATA, add(CFA_XSP16, literal(-5)))
          CFI (cfiCond26) ?RET_HIGH load(1, XDATA, add(CFA_XSP16, literal(-4)))
          CFI (cfiCond26) ?BRET_EXT load(1, XDATA, add(CFA_XSP16, literal(-3)))
          CFI (cfiCond26) DPL0 load(1, XDATA, add(CFA_XSP16, literal(-2)))
          CFI (cfiCond26) DPH0 load(1, XDATA, add(CFA_XSP16, literal(-1)))
          CFI (cfiCond26) CFA_SP SP+0
          CFI (cfiCond26) CFA_XSP16 add(XSP16, 39)
          CFI Block cfiPicker27 Using cfiCommon1
          CFI (cfiPicker27) NoFunction
          CFI (cfiPicker27) Picker
        MOVX    A,@DPTR
        MOV     R0,A
        INC     DPTR
        MOVX    A,@DPTR
        MOV     DPH,A
        MOV     DPL,R0
        RET
          CFI EndBlock cfiCond18
          CFI EndBlock cfiCond19
          CFI EndBlock cfiCond20
          CFI EndBlock cfiCond21
          CFI EndBlock cfiCond22
          CFI EndBlock cfiCond23
          CFI EndBlock cfiCond24
          CFI EndBlock cfiCond25
          CFI EndBlock cfiCond26
          CFI EndBlock cfiPicker27

        RSEG BANKED_CODE:CODE:NOROOT(0)
?Subroutine2:
          CFI Block cfiCond28 Using cfiCommon0
          CFI Function MAC_SrcMatchAddEntry
          CFI Conditional ??CrossCallReturnLabel_0
          CFI R6 load(1, XDATA, add(CFA_XSP16, literal(-24)))
          CFI VB load(1, XDATA, add(CFA_XSP16, literal(-23)))
          CFI V0 load(1, XDATA, add(CFA_XSP16, literal(-22)))
          CFI V1 load(1, XDATA, add(CFA_XSP16, literal(-21)))
          CFI V2 load(1, XDATA, add(CFA_XSP16, literal(-20)))
          CFI V3 load(1, XDATA, add(CFA_XSP16, literal(-19)))
          CFI V4 load(1, XDATA, add(CFA_XSP16, literal(-18)))
          CFI V5 load(1, XDATA, add(CFA_XSP16, literal(-17)))
          CFI V6 load(1, XDATA, add(CFA_XSP16, literal(-16)))
          CFI V7 load(1, XDATA, add(CFA_XSP16, literal(-15)))
          CFI V8 load(1, XDATA, add(CFA_XSP16, literal(-14)))
          CFI V9 load(1, XDATA, add(CFA_XSP16, literal(-13)))
          CFI V10 load(1, XDATA, add(CFA_XSP16, literal(-12)))
          CFI V11 load(1, XDATA, add(CFA_XSP16, literal(-11)))
          CFI V12 load(1, XDATA, add(CFA_XSP16, literal(-10)))
          CFI V13 load(1, XDATA, add(CFA_XSP16, literal(-9)))
          CFI V14 load(1, XDATA, add(CFA_XSP16, literal(-8)))
          CFI V15 load(1, XDATA, add(CFA_XSP16, literal(-7)))
          CFI R7 load(1, XDATA, add(CFA_XSP16, literal(-6)))
          CFI ?RET_LOW load(1, XDATA, add(CFA_XSP16, literal(-5)))
          CFI ?RET_HIGH load(1, XDATA, add(CFA_XSP16, literal(-4)))
          CFI ?BRET_EXT load(1, XDATA, add(CFA_XSP16, literal(-3)))
          CFI DPL0 load(1, XDATA, add(CFA_XSP16, literal(-2)))
          CFI DPH0 load(1, XDATA, add(CFA_XSP16, literal(-1)))
          CFI CFA_SP SP+0
          CFI CFA_XSP16 add(XSP16, 39)
          CFI Block cfiCond29 Using cfiCommon0
          CFI (cfiCond29) Function MAC_SrcMatchAddEntry
          CFI (cfiCond29) Conditional ??CrossCallReturnLabel_1
          CFI (cfiCond29) R6 load(1, XDATA, add(CFA_XSP16, literal(-24)))
          CFI (cfiCond29) VB load(1, XDATA, add(CFA_XSP16, literal(-23)))
          CFI (cfiCond29) V0 load(1, XDATA, add(CFA_XSP16, literal(-22)))
          CFI (cfiCond29) V1 load(1, XDATA, add(CFA_XSP16, literal(-21)))
          CFI (cfiCond29) V2 load(1, XDATA, add(CFA_XSP16, literal(-20)))
          CFI (cfiCond29) V3 load(1, XDATA, add(CFA_XSP16, literal(-19)))
          CFI (cfiCond29) V4 load(1, XDATA, add(CFA_XSP16, literal(-18)))
          CFI (cfiCond29) V5 load(1, XDATA, add(CFA_XSP16, literal(-17)))
          CFI (cfiCond29) V6 load(1, XDATA, add(CFA_XSP16, literal(-16)))
          CFI (cfiCond29) V7 load(1, XDATA, add(CFA_XSP16, literal(-15)))
          CFI (cfiCond29) V8 load(1, XDATA, add(CFA_XSP16, literal(-14)))
          CFI (cfiCond29) V9 load(1, XDATA, add(CFA_XSP16, literal(-13)))
          CFI (cfiCond29) V10 load(1, XDATA, add(CFA_XSP16, literal(-12)))
          CFI (cfiCond29) V11 load(1, XDATA, add(CFA_XSP16, literal(-11)))
          CFI (cfiCond29) V12 load(1, XDATA, add(CFA_XSP16, literal(-10)))
          CFI (cfiCond29) V13 load(1, XDATA, add(CFA_XSP16, literal(-9)))
          CFI (cfiCond29) V14 load(1, XDATA, add(CFA_XSP16, literal(-8)))
          CFI (cfiCond29) V15 load(1, XDATA, add(CFA_XSP16, literal(-7)))
          CFI (cfiCond29) R7 load(1, XDATA, add(CFA_XSP16, literal(-6)))
          CFI (cfiCond29) ?RET_LOW load(1, XDATA, add(CFA_XSP16, literal(-5)))
          CFI (cfiCond29) ?RET_HIGH load(1, XDATA, add(CFA_XSP16, literal(-4)))
          CFI (cfiCond29) ?BRET_EXT load(1, XDATA, add(CFA_XSP16, literal(-3)))
          CFI (cfiCond29) DPL0 load(1, XDATA, add(CFA_XSP16, literal(-2)))
          CFI (cfiCond29) DPH0 load(1, XDATA, add(CFA_XSP16, literal(-1)))
          CFI (cfiCond29) CFA_SP SP+0
          CFI (cfiCond29) CFA_XSP16 add(XSP16, 39)
          CFI Block cfiCond30 Using cfiCommon0
          CFI (cfiCond30) Function MAC_SrcMatchAddEntry
          CFI (cfiCond30) Conditional ??CrossCallReturnLabel_2
          CFI (cfiCond30) R6 load(1, XDATA, add(CFA_XSP16, literal(-24)))
          CFI (cfiCond30) VB load(1, XDATA, add(CFA_XSP16, literal(-23)))
          CFI (cfiCond30) V0 load(1, XDATA, add(CFA_XSP16, literal(-22)))
          CFI (cfiCond30) V1 load(1, XDATA, add(CFA_XSP16, literal(-21)))
          CFI (cfiCond30) V2 load(1, XDATA, add(CFA_XSP16, literal(-20)))
          CFI (cfiCond30) V3 load(1, XDATA, add(CFA_XSP16, literal(-19)))
          CFI (cfiCond30) V4 load(1, XDATA, add(CFA_XSP16, literal(-18)))
          CFI (cfiCond30) V5 load(1, XDATA, add(CFA_XSP16, literal(-17)))
          CFI (cfiCond30) V6 load(1, XDATA, add(CFA_XSP16, literal(-16)))
          CFI (cfiCond30) V7 load(1, XDATA, add(CFA_XSP16, literal(-15)))
          CFI (cfiCond30) V8 load(1, XDATA, add(CFA_XSP16, literal(-14)))
          CFI (cfiCond30) V9 load(1, XDATA, add(CFA_XSP16, literal(-13)))
          CFI (cfiCond30) V10 load(1, XDATA, add(CFA_XSP16, literal(-12)))
          CFI (cfiCond30) V11 load(1, XDATA, add(CFA_XSP16, literal(-11)))
          CFI (cfiCond30) V12 load(1, XDATA, add(CFA_XSP16, literal(-10)))
          CFI (cfiCond30) V13 load(1, XDATA, add(CFA_XSP16, literal(-9)))
          CFI (cfiCond30) V14 load(1, XDATA, add(CFA_XSP16, literal(-8)))
          CFI (cfiCond30) V15 load(1, XDATA, add(CFA_XSP16, literal(-7)))
          CFI (cfiCond30) R7 load(1, XDATA, add(CFA_XSP16, literal(-6)))
          CFI (cfiCond30) ?RET_LOW load(1, XDATA, add(CFA_XSP16, literal(-5)))
          CFI (cfiCond30) ?RET_HIGH load(1, XDATA, add(CFA_XSP16, literal(-4)))
          CFI (cfiCond30) ?BRET_EXT load(1, XDATA, add(CFA_XSP16, literal(-3)))
          CFI (cfiCond30) DPL0 load(1, XDATA, add(CFA_XSP16, literal(-2)))
          CFI (cfiCond30) DPH0 load(1, XDATA, add(CFA_XSP16, literal(-1)))
          CFI (cfiCond30) CFA_SP SP+0
          CFI (cfiCond30) CFA_XSP16 add(XSP16, 39)
          CFI Block cfiPicker31 Using cfiCommon1
          CFI (cfiPicker31) NoFunction
          CFI (cfiPicker31) Picker
        LCALL   ?Subroutine5 & 0xFFFF
??CrossCallReturnLabel_11:
        XRL     A,#0x2
        RET
          CFI EndBlock cfiCond28
          CFI EndBlock cfiCond29
          CFI EndBlock cfiCond30
          CFI EndBlock cfiPicker31
//  199 
//  200 /*********************************************************************
//  201  * @fn         MAC_SrcMatchDeleteEntry
//  202  *
//  203  * @brief      Delete a short or extended address from source address table. 
//  204  *             This function shall be not be called from ISR. It is not thread 
//  205  *             safe.
//  206  *
//  207  * @param      addr  - a pointer to sAddr_t which contains addrMode 
//  208  *                     and a union of a short 16-bit MAC address or an extended 
//  209  *                     64-bit MAC address to be deleted from the source address 
//  210  *                     table. 
//  211  * @param      panID - the device PAN ID. It is only used when the addr is 
//  212  *                     using short address  
//  213  *
//  214  * @return     MAC_SUCCESS or MAC_INVALID_PARAMETER (address to be deleted 
//  215  *                  cannot be found in the source address table).
//  216  */

        RSEG BANKED_CODE:CODE:NOROOT(0)
//  217 uint8 MAC_SrcMatchDeleteEntry ( sAddr_t *addr, uint16 panID  )
MAC_SrcMatchDeleteEntry:
          CFI Block cfiBlock32 Using cfiCommon0
          CFI Function MAC_SrcMatchDeleteEntry
        CODE
//  218 {
        FUNCALL MAC_SrcMatchDeleteEntry, macSrcMatchCheckSrcAddr
        LOCFRAME ISTACK, 0, STACK
        LOCFRAME PSTACK, 0, STACK
        LOCFRAME XSTACK, 9, STACK
        LOCFRAME IOVERLAY, 0, STATIC
        LOCFRAME DOVERLAY, 0, STATIC
        ARGFRAME ISTACK, 0, STACK
        ARGFRAME PSTACK, 0, STACK
        ARGFRAME XSTACK, 9, STACK
        ARGFRAME IOVERLAY, 0, STATIC
        ARGFRAME DOVERLAY, 0, STATIC
        FUNCALL MAC_SrcMatchDeleteEntry, macSrcMatchSetEnableBit
        LOCFRAME ISTACK, 0, STACK
        LOCFRAME PSTACK, 0, STACK
        LOCFRAME XSTACK, 9, STACK
        LOCFRAME IOVERLAY, 0, STATIC
        LOCFRAME DOVERLAY, 0, STATIC
        ARGFRAME ISTACK, 0, STACK
        ARGFRAME PSTACK, 0, STACK
        ARGFRAME XSTACK, 9, STACK
        ARGFRAME IOVERLAY, 0, STATIC
        ARGFRAME DOVERLAY, 0, STATIC
        MOV     A,#-0x9
        LCALL   ?BANKED_ENTER_XDATA
          CFI DPH0 load(1, XDATA, add(CFA_XSP16, literal(-1)))
          CFI DPL0 load(1, XDATA, add(CFA_XSP16, literal(-2)))
          CFI ?BRET_EXT load(1, XDATA, add(CFA_XSP16, literal(-3)))
          CFI ?RET_HIGH load(1, XDATA, add(CFA_XSP16, literal(-4)))
          CFI ?RET_LOW load(1, XDATA, add(CFA_XSP16, literal(-5)))
          CFI R7 load(1, XDATA, add(CFA_XSP16, literal(-6)))
          CFI V0 load(1, XDATA, add(CFA_XSP16, literal(-7)))
          CFI VB load(1, XDATA, add(CFA_XSP16, literal(-8)))
          CFI R6 load(1, XDATA, add(CFA_XSP16, literal(-9)))
          CFI CFA_SP SP+0
          CFI CFA_XSP16 add(XSP16, 9)
        ; Saved register size: 9
        ; Auto size: 0
//  219   uint8 index;
//  220   
//  221   if ( addr == NULL || (addr->addrMode !=  SADDR_MODE_SHORT && addr->addrMode !=  SADDR_MODE_EXT))
        MOV     A,R2
        ORL     A,R3
        JZ      ??MAC_SrcMatchDeleteEntry_0
        MOV     A,R2
        ADD     A,#0x8
        MOV     R6,A
        MOV     A,R3
        ADDC    A,#0x0
        MOV     R7,A
        MOV     DPL,R6
        MOV     DPH,R7
        MOVX    A,@DPTR
        MOV     R0,A
        MOV     A,#0x2
        XRL     A,R0
        JZ      ??MAC_SrcMatchDeleteEntry_1
        MOV     A,#0x3
        XRL     A,R0
        JNZ     ??MAC_SrcMatchDeleteEntry_0
//  222   {
//  223     return MAC_INVALID_PARAMETER;  
//  224   }
//  225   
//  226   /* Look up the source address table and find the entry. */
//  227   index = macSrcMatchCheckSrcAddr( addr, panID );
??MAC_SrcMatchDeleteEntry_1:
        ; Setup parameters for call to function macSrcMatchCheckSrcAddr
        LCALL   ??macSrcMatchCheckSrcAddr?relay
//  228 
//  229   if( index == MAC_SRCMATCH_INVALID_INDEX )
        MOV     A,#-0x1
        XRL     A,R1
        JNZ     ??MAC_SrcMatchDeleteEntry_2
//  230   {
//  231     return MAC_INVALID_PARAMETER; 
??MAC_SrcMatchDeleteEntry_0:
        MOV     R1,#-0x18
        SJMP    ??MAC_SrcMatchDeleteEntry_3
//  232   }
//  233   
//  234   /* Clear Src Match enable bits */
//  235   macSrcMatchSetEnableBit( index, FALSE, addr->addrMode);
??MAC_SrcMatchDeleteEntry_2:
        ; Setup parameters for call to function macSrcMatchSetEnableBit
        MOV     DPL,R6
        MOV     DPH,R7
        MOVX    A,@DPTR
        MOV     R3,A
        MOV     R2,#0x0
        LCALL   ??macSrcMatchSetEnableBit?relay
//  236 
//  237   return MAC_SUCCESS;
        MOV     R1,#0x0
??MAC_SrcMatchDeleteEntry_3:
        MOV     R7,#0x1
        LJMP    ?BANKED_LEAVE_XDATA
          CFI EndBlock cfiBlock32
//  238 }
//  239                   
//  240 /*********************************************************************
//  241  * @fn          MAC_SrcMatchAckAllPending
//  242  *
//  243  * @brief       Enabled/disable acknowledging all packets with pending bit set
//  244  *              The application normally enables it when adding new entries to 
//  245  *              the source address table fails due to the table is full, or 
//  246  *              disables it when more entries are deleted and the table has
//  247  *              empty slots.
//  248  *
//  249  * @param       option - TRUE (acknowledging all packets with pending field set)
//  250  *                       FALSE (address filtering and FSM control sets the 
//  251  *                              pending field) 
//  252  *
//  253  * @return      none
//  254  */

        RSEG BANKED_CODE:CODE:NOROOT(0)
//  255 void MAC_SrcMatchAckAllPending ( uint8 option  ) 
MAC_SrcMatchAckAllPending:
          CFI Block cfiBlock33 Using cfiCommon0
          CFI Function MAC_SrcMatchAckAllPending
        CODE
//  256 {
        PUSH    DPL
          CFI DPL0 Frame(CFA_SP, 4)
          CFI CFA_SP SP+-4
        PUSH    DPH
          CFI DPH0 Frame(CFA_SP, 5)
          CFI CFA_SP SP+-5
        ; Saved register size: 2
        ; Auto size: 0
//  257   if( option == TRUE )
        MOV     A,#0x1
        XRL     A,R1
        MOV     DPTR,#macSrcMatchIsAckAllPending
        JNZ     ??MAC_SrcMatchAckAllPending_0
//  258   {
//  259     macSrcMatchIsAckAllPending = TRUE;
        MOV     A,#0x1
        MOVX    @DPTR,A
//  260     
//  261     /* Set the PENDING_OR register */
//  262     MAC_RADIO_TURN_ON_PENDING_OR();
        MOV     DPTR,#0x618a
        MOVX    A,@DPTR
        SETB    0xE0 /* A   */.2
        SJMP    ??MAC_SrcMatchAckAllPending_1
//  263   }
//  264   else
//  265   {
//  266     macSrcMatchIsAckAllPending = FALSE;
??MAC_SrcMatchAckAllPending_0:
        CLR     A
        MOVX    @DPTR,A
//  267     
//  268     /* Clear the PENDING_OR register */
//  269     MAC_RADIO_TURN_OFF_PENDING_OR();
        MOV     DPTR,#0x618a
        MOVX    A,@DPTR
        CLR     0xE0 /* A   */.2
??MAC_SrcMatchAckAllPending_1:
        MOVX    @DPTR,A
//  270   }
//  271 }
        SJMP    ??Subroutine7_0
          CFI EndBlock cfiBlock33

        RSEG BANKED_CODE:CODE:NOROOT(0)
?Subroutine0:
          CFI Block cfiBlock34 Using cfiCommon0
          CFI NoFunction
          CFI CFA_SP SP+-5
          CFI CFA_XSP16 add(XSP16, 3)
          CFI DPL0 Frame(CFA_SP, 4)
          CFI DPH0 Frame(CFA_SP, 5)
        MOV     R3,#0x61
        LCALL   ??macMemReadRam?relay
        ; Setup parameters for call to function osal_build_uint32
        ; Setup parameters for call to function osal_build_uint32
        MOV     R1,#0x3
        MOV     DPL,?XSP + 0
        MOV     DPH,?XSP + 1
        MOV     R2,DPL
        MOV     R3,DPH
        LCALL   ??osal_build_uint32?relay
        MOV     A,#0x3
        LCALL   ?DEALLOC_XSTACK8
          CFI EndBlock cfiBlock34
        REQUIRE ??Subroutine7_0
        ; // Fall through to label ??Subroutine7_0

        RSEG BANKED_CODE:CODE:NOROOT(0)
??Subroutine7_0:
          CFI Block cfiBlock35 Using cfiCommon0
          CFI NoFunction
          CFI CFA_SP SP+-5
          CFI DPL0 Frame(CFA_SP, 4)
          CFI DPH0 Frame(CFA_SP, 5)
        POP     DPH
          CFI CFA_SP SP+-4
          CFI DPH0 SameValue
        POP     DPL
          CFI CFA_SP SP+-3
          CFI DPL0 SameValue
        LJMP    ?BRET
          CFI EndBlock cfiBlock35
//  272 
//  273 /*********************************************************************
//  274  * @fn          MAC_SrcMatchCheckAllPending
//  275  *
//  276  * @brief       Check if acknowledging all packets with pending bit set
//  277  *              is enabled. 
//  278  *
//  279  * @param       none 
//  280  *
//  281  * @return      MAC_AUTOACK_PENDING_ALL_ON or MAC_AUTOACK_PENDING_ALL_OFF
//  282  */

        RSEG BANKED_CODE:CODE:NOROOT(0)
//  283 uint8 MAC_SrcMatchCheckAllPending ( void )
MAC_SrcMatchCheckAllPending:
          CFI Block cfiBlock36 Using cfiCommon0
          CFI Function MAC_SrcMatchCheckAllPending
        CODE
//  284 {
        PUSH    DPL
          CFI DPL0 Frame(CFA_SP, 4)
          CFI CFA_SP SP+-4
        PUSH    DPH
          CFI DPH0 Frame(CFA_SP, 5)
          CFI CFA_SP SP+-5
        ; Saved register size: 2
        ; Auto size: 0
//  285   if( macSrcMatchIsAckAllPending == TRUE )
        MOV     DPTR,#macSrcMatchIsAckAllPending
        MOVX    A,@DPTR
        XRL     A,#0x1
        JNZ     ??MAC_SrcMatchCheckAllPending_0
//  286   {
//  287     return MAC_AUTOACK_PENDING_ALL_ON; 
        MOV     R1,#-0x2
        SJMP    ??MAC_SrcMatchCheckAllPending_1
//  288   }
//  289   
//  290   return MAC_AUTOACK_PENDING_ALL_OFF;
??MAC_SrcMatchCheckAllPending_0:
        MOV     R1,#-0x1
??MAC_SrcMatchCheckAllPending_1:
        SJMP    ??Subroutine7_0
          CFI EndBlock cfiBlock36
//  291 }
//  292 
//  293 /*********************************************************************
//  294  * @fn          MAC_SrcMatchCheckResult
//  295  *
//  296  * @brief       Check the result of source matching
//  297  *
//  298  * @param       index - index of the entry in the source address table
//  299  *
//  300  * @return      TRUE or FALSE
//  301  */

        RSEG BANKED_CODE:CODE:NOROOT(0)
//  302 MAC_INTERNAL_API bool MAC_SrcMatchCheckResult( void )
MAC_SrcMatchCheckResult:
          CFI Block cfiBlock37 Using cfiCommon0
          CFI Function MAC_SrcMatchCheckResult
        CODE
//  303 {
        PUSH    DPL
          CFI DPL0 Frame(CFA_SP, 4)
          CFI CFA_SP SP+-4
        PUSH    DPH
          CFI DPH0 Frame(CFA_SP, 5)
          CFI CFA_SP SP+-5
        ; Saved register size: 2
        ; Auto size: 0
//  304   uint8 resIndex;
//  305   
//  306   if ( macSrcMatchIsAckAllPending )
        MOV     DPTR,#macSrcMatchIsAckAllPending
        MOVX    A,@DPTR
        JZ      ??MAC_SrcMatchCheckResult_0
//  307   {
//  308     return (TRUE);
        MOV     R1,#0x1
        SJMP    ??MAC_SrcMatchCheckResult_1
//  309   }
//  310   
//  311   MAC_RADIO_SRC_MATCH_RESINDEX( resIndex );
??MAC_SrcMatchCheckResult_0:
        MOV     DPTR,#0x6163
        MOVX    A,@DPTR
        MOV     R0,A
//  312   
//  313   return ( resIndex & AUTOPEND_RES );
        MOV     A,#0x40
        ANL     A,R0
        MOV     R1,A
??MAC_SrcMatchCheckResult_1:
        SJMP    ??Subroutine7_0
          CFI EndBlock cfiBlock37
//  314 }
//  315 
//  316 /*********************************************************************
//  317  * @fn          macSrcMatchFindEmptyEntry
//  318  *
//  319  * @brief       return index of the first empty entry found
//  320  *
//  321  * @param       macSrcMatchAddrMode - Address Mode for the entry. Valid values
//  322  *              are SADDR_MODE_SHORT or SADDR_MODE_EXT
//  323  *
//  324  * @return      uint8 - return index of the first empty entry found
//  325  */
//  326 static uint8 macSrcMatchFindEmptyEntry( uint8 macSrcMatchAddrMode )
//  327 {
//  328   uint8  index;
//  329   uint24 shortAddrEnable = MAC_RADIO_SRC_MATCH_GET_SHORTADDR_EN();
//  330   uint24 extAddrEnable = MAC_RADIO_SRC_MATCH_GET_EXTADDR_EN();
//  331   uint24 enable = shortAddrEnable | extAddrEnable;
//  332 
//  333   if( macSrcMatchAddrMode == SADDR_MODE_SHORT )
//  334    {
//  335      for( index = 0; index < MAC_SRCMATCH_SHORT_MAX_NUM_ENTRIES; index ++ )
//  336      {
//  337        /* Both 2n bit of extAddrEnable and
//  338         * corresponding bit of shortAddrEnable must be clear
//  339         * in order to assume that the entry location for a short address
//  340         * is not used.
//  341         */
//  342        if( (extAddrEnable & ((uint24)0x01 << ((index/2)*2))) == 0 &&
//  343            (shortAddrEnable & ((uint24)0x01 << index)) == 0 )
//  344        {
//  345          return index;
//  346        }
//  347      }
//  348    }
//  349    else
//  350    {
//  351      for( index = 0; index < MAC_SRCMATCH_EXT_MAX_NUM_ENTRIES; index++ )
//  352      {
//  353        /* Both 2n bit of extAddrEnable and
//  354         * 2n bit and 2n+1 bit of shortAddrEnable must be clear in order
//  355         * to assume that the entry location for an extended address
//  356         * is not used.        
//  357         */
//  358        if( (enable & ((uint24)0x03 << (index*2))) == 0 )
//  359        {
//  360          return index;
//  361        }
//  362      }
//  363    }
//  364   return index;
//  365 }
//  366 
//  367 /*********************************************************************
//  368  * @fn         macSrcMatchCheckSrcAddr
//  369  *
//  370  * @brief      Check if a short or extended address is in the source address table.
//  371  *             This function shall not be called from ISR. It is not thread safe.
//  372  *
//  373  * @param      addr - a pointer to sAddr_t which contains addrMode 
//  374  *                    and a union of a short 16-bit MAC address or an extended 
//  375  *                    64-bit MAC address to be checked in the source address table. 
//  376  * @param      panID - the device PAN ID. It is only used when the addr is 
//  377  *                     using short address 
//  378 
//  379  * @return     uint8 - index of the entry in the table. Return 
//  380  *                     MAC_SRCMATCH_INVALID_INDEX (0xFF) if address not found.
//  381  */

        RSEG BANKED_CODE:CODE:NOROOT(0)
//  382 static uint8 macSrcMatchCheckSrcAddr ( sAddr_t *addr, uint16 panID  )
macSrcMatchCheckSrcAddr:
          CFI Block cfiBlock38 Using cfiCommon0
          CFI Function macSrcMatchCheckSrcAddr
        CODE
//  383 {
        FUNCALL macSrcMatchCheckSrcAddr, macSrcMatchGetShortAddrEnableBit
        LOCFRAME ISTACK, 0, STACK
        LOCFRAME PSTACK, 0, STACK
        LOCFRAME XSTACK, 36, STACK
        LOCFRAME IOVERLAY, 0, STATIC
        LOCFRAME DOVERLAY, 0, STATIC
        ARGFRAME ISTACK, 0, STACK
        ARGFRAME PSTACK, 0, STACK
        ARGFRAME XSTACK, 36, STACK
        ARGFRAME IOVERLAY, 0, STATIC
        ARGFRAME DOVERLAY, 0, STATIC
        FUNCALL macSrcMatchCheckSrcAddr, macSrcMatchGetExtAddrEnableBit
        LOCFRAME ISTACK, 0, STACK
        LOCFRAME PSTACK, 0, STACK
        LOCFRAME XSTACK, 36, STACK
        LOCFRAME IOVERLAY, 0, STATIC
        LOCFRAME DOVERLAY, 0, STATIC
        ARGFRAME ISTACK, 0, STACK
        ARGFRAME PSTACK, 0, STACK
        ARGFRAME XSTACK, 36, STACK
        ARGFRAME IOVERLAY, 0, STATIC
        ARGFRAME DOVERLAY, 0, STATIC
        FUNCALL macSrcMatchCheckSrcAddr, macMemReadRam
        LOCFRAME ISTACK, 0, STACK
        LOCFRAME PSTACK, 0, STACK
        LOCFRAME XSTACK, 36, STACK
        LOCFRAME IOVERLAY, 0, STATIC
        LOCFRAME DOVERLAY, 0, STATIC
        ARGFRAME ISTACK, 0, STACK
        ARGFRAME PSTACK, 0, STACK
        ARGFRAME XSTACK, 36, STACK
        ARGFRAME IOVERLAY, 0, STATIC
        ARGFRAME DOVERLAY, 0, STATIC
        FUNCALL macSrcMatchCheckSrcAddr, osal_memcmp
        LOCFRAME ISTACK, 0, STACK
        LOCFRAME PSTACK, 0, STACK
        LOCFRAME XSTACK, 39, STACK
        LOCFRAME IOVERLAY, 0, STATIC
        LOCFRAME DOVERLAY, 0, STATIC
        ARGFRAME ISTACK, 0, STACK
        ARGFRAME PSTACK, 0, STACK
        ARGFRAME XSTACK, 39, STACK
        ARGFRAME IOVERLAY, 0, STATIC
        ARGFRAME DOVERLAY, 0, STATIC
        MOV     A,#-0x18
        LCALL   ?BANKED_ENTER_XDATA
          CFI DPH0 load(1, XDATA, add(CFA_XSP16, literal(-1)))
          CFI DPL0 load(1, XDATA, add(CFA_XSP16, literal(-2)))
          CFI ?BRET_EXT load(1, XDATA, add(CFA_XSP16, literal(-3)))
          CFI ?RET_HIGH load(1, XDATA, add(CFA_XSP16, literal(-4)))
          CFI ?RET_LOW load(1, XDATA, add(CFA_XSP16, literal(-5)))
          CFI R7 load(1, XDATA, add(CFA_XSP16, literal(-6)))
          CFI V15 load(1, XDATA, add(CFA_XSP16, literal(-7)))
          CFI V14 load(1, XDATA, add(CFA_XSP16, literal(-8)))
          CFI V13 load(1, XDATA, add(CFA_XSP16, literal(-9)))
          CFI V12 load(1, XDATA, add(CFA_XSP16, literal(-10)))
          CFI V11 load(1, XDATA, add(CFA_XSP16, literal(-11)))
          CFI V10 load(1, XDATA, add(CFA_XSP16, literal(-12)))
          CFI V9 load(1, XDATA, add(CFA_XSP16, literal(-13)))
          CFI V8 load(1, XDATA, add(CFA_XSP16, literal(-14)))
          CFI V7 load(1, XDATA, add(CFA_XSP16, literal(-15)))
          CFI V6 load(1, XDATA, add(CFA_XSP16, literal(-16)))
          CFI V5 load(1, XDATA, add(CFA_XSP16, literal(-17)))
          CFI V4 load(1, XDATA, add(CFA_XSP16, literal(-18)))
          CFI V3 load(1, XDATA, add(CFA_XSP16, literal(-19)))
          CFI V2 load(1, XDATA, add(CFA_XSP16, literal(-20)))
          CFI V1 load(1, XDATA, add(CFA_XSP16, literal(-21)))
          CFI V0 load(1, XDATA, add(CFA_XSP16, literal(-22)))
          CFI VB load(1, XDATA, add(CFA_XSP16, literal(-23)))
          CFI R6 load(1, XDATA, add(CFA_XSP16, literal(-24)))
          CFI CFA_SP SP+0
          CFI CFA_XSP16 add(XSP16, 24)
        ; Saved register size: 24
        ; Auto size: 12
        MOV     A,#-0xc
        LCALL   ?ALLOC_XSTACK8
          CFI CFA_XSP16 add(XSP16, 36)
//  384   uint8 index;     
//  385   uint8 *pAddr;
//  386   uint8 entrySize;
//  387   uint8 indexUsed;
//  388   uint8 indexSize;
//  389   uint8 entry[MAC_SRCMATCH_SHORT_ENTRY_SIZE];  
//  390   uint8 ramEntry[MAC_SRCMATCH_EXT_ENTRY_SIZE];
//  391   uint24 enable;
//  392   
//  393   /*
//  394    Currently, shadow memory is not supported to optimize SPI traffic.
//  395   */
//  396   if( addr->addrMode ==  SADDR_MODE_SHORT )
        MOV     DPL,R2
        MOV     DPH,R3
        INC     DPTR
        INC     DPTR
        INC     DPTR
        INC     DPTR
        INC     DPTR
        INC     DPTR
        INC     DPTR
        INC     DPTR
        MOVX    A,@DPTR
        XRL     A,#0x2
        JNZ     ??macSrcMatchCheckSrcAddr_0
//  397   {
//  398     entry[0] = LO_UINT16( panID );  /* Little Endian for the radio RAM */
        MOV     A,R4
        MOV     DPL,?XSP + 0
        MOV     DPH,?XSP + 1
        MOVX    @DPTR,A
//  399     entry[1] = HI_UINT16( panID );
        MOV     A,#0x1
        LCALL   ?XSTACK_DISP0_8
        MOV     A,R5
        MOVX    @DPTR,A
//  400     entry[2] = LO_UINT16( addr->addr.shortAddr );
        MOV     DPL,R2
        MOV     DPH,R3
        MOVX    A,@DPTR
        PUSH    A
          CFI CFA_SP SP+-1
        MOV     A,#0x2
        LCALL   ?XSTACK_DISP0_8
        POP     A
          CFI CFA_SP SP+0
        MOVX    @DPTR,A
//  401     entry[3] = HI_UINT16( addr->addr.shortAddr );
        MOV     DPL,R2
        MOV     DPH,R3
        INC     DPTR
        MOVX    A,@DPTR
        PUSH    A
          CFI CFA_SP SP+-1
        MOV     A,#0x3
        LCALL   ?XSTACK_DISP0_8
        POP     A
          CFI CFA_SP SP+0
        MOVX    @DPTR,A
//  402     pAddr = entry;
        MOV     DPL,?XSP + 0
        MOV     DPH,?XSP + 1
        MOV     ?V0 + 14,DPL
        MOV     ?V0 + 15,DPH
//  403     entrySize = MAC_SRCMATCH_SHORT_ENTRY_SIZE;
        MOV     R6,#0x4
//  404     indexSize = 1;
        MOV     ?V0 + 12,#0x1
//  405     enable = MAC_RADIO_SRC_MATCH_GET_SHORTADDR_EN();
        ; Setup parameters for call to function macSrcMatchGetShortAddrEnableBit
        LCALL   ??macSrcMatchGetShortAddrEnableBit?relay
        SJMP    ??macSrcMatchCheckSrcAddr_1
//  406   }
//  407   else
//  408   {
//  409     pAddr = addr->addr.extAddr;
??macSrcMatchCheckSrcAddr_0:
        MOV     ?V0 + 14,R2
        MOV     ?V0 + 15,R3
//  410     entrySize = MAC_SRCMATCH_EXT_ENTRY_SIZE;
        MOV     R6,#0x8
//  411     indexSize = 2;
        MOV     ?V0 + 12,#0x2
//  412     enable = MAC_RADIO_SRC_MATCH_GET_EXTADDR_EN();
        ; Setup parameters for call to function macSrcMatchGetExtAddrEnableBit
        LCALL   ??macSrcMatchGetExtAddrEnableBit?relay
??macSrcMatchCheckSrcAddr_1:
        MOV     ?V0 + 4,R2
        MOV     ?V0 + 5,R3
        MOV     ?V0 + 6,R4
        MOV     ?V0 + 7,R5
//  413   }
//  414   
//  415   for( index = 0; index < MAC_SRCMATCH_SHORT_MAX_NUM_ENTRIES; index += indexSize )
        MOV     R7,#0x0
//  416   {
//  417     /* Check if the entry is enabled */
//  418     if( macSrcMatchCheckEnableBit( index, enable ) == FALSE )
??macSrcMatchCheckSrcAddr_2:
        MOV     ?V0 + 0,?V0 + 4
        MOV     ?V0 + 1,?V0 + 5
        MOV     ?V0 + 2,?V0 + 6
        MOV     ?V0 + 3,?V0 + 7
        MOV     ?V0 + 8,#0x1
        MOV     ?V0 + 9,#0x0
        MOV     ?V0 + 10,#0x0
        MOV     ?V0 + 11,#0x0
        MOV     A,R7
        MOV     R0,#?V0 + 8
        LCALL   ?L_SHL
        MOV     R0,#?V0 + 0
        MOV     R1,#?V0 + 8
        LCALL   ?L_AND
        LCALL   ?Subroutine4 & 0xFFFF
??CrossCallReturnLabel_10:
        JZ      ??macSrcMatchCheckSrcAddr_3
//  419     {
//  420       continue; 
//  421     }
//  422     
//  423     indexUsed = index / indexSize;
        MOV     A,?V0 + 12
        MOV     B,A
        MOV     A,R7
        DIV     AB
        MOV     ?V0 + 3,A
//  424       
//  425     /* Compare the short address or extended address */
//  426     MAC_RADIO_SRC_MATCH_TABLE_READ( ( indexUsed * entrySize ), ramEntry, entrySize );
        ; Setup parameters for call to function macMemReadRam
        MOV     A,R6
        MOV     R1,A
        MOV     A,#0x4
        LCALL   ?XSTACK_DISP0_8
        MOV     R4,DPL
        MOV     R5,DPH
        MOV     A,?V0 + 3
        MOV     B,R1
        MUL     AB
        MOV     R2,A
        MOV     R0,B
        CLR     A
        ADD     A,R0
        MOV     R3,A
        MOV     A,#0x61
        ADDC    A,R3
        MOV     R3,A
        LCALL   ??macMemReadRam?relay
//  427      
//  428     if( osal_memcmp( pAddr, ramEntry, entrySize ) == TRUE )
        ; Setup parameters for call to function osal_memcmp
        MOV     A,#0x4
        LCALL   ?XSTACK_DISP0_8
        MOV     R1,DPL
        MOV     R2,DPH
        MOV     ?V0 + 0,R1
        MOV     ?V0 + 1,R2
        MOV     ?V0 + 2,#0x0
        MOV     R0,#?V0 + 0
        LCALL   ?PUSH_XSTACK_I_THREE
          CFI CFA_XSP16 add(XSP16, 39)
        MOV     ?V0 + 0,R6
        MOV     R4,?V0 + 0
        MOV     R5,#0x0
        MOV     DPL,?V0 + 14
        MOV     DPH,?V0 + 15
        MOV     R1,DPL
        MOV     R2,DPH
        MOV     R3,#0x0
        LCALL   ??osal_memcmp?relay
        MOV     A,#0x3
        LCALL   ?DEALLOC_XSTACK8
          CFI CFA_XSP16 add(XSP16, 36)
        MOV     A,R1
        XRL     A,#0x1
        JNZ     ??macSrcMatchCheckSrcAddr_3
//  429     {
//  430       /* Match found */
//  431       return indexUsed;
        MOV     R1,?V0 + 3
        SJMP    ??macSrcMatchCheckSrcAddr_4
//  432     }
//  433   }
??macSrcMatchCheckSrcAddr_3:
        MOV     A,?V0 + 12
        ADD     A,R7
        MOV     R7,A
        CLR     C
        SUBB    A,#0x18
        JNC     $+5
        LJMP    ??macSrcMatchCheckSrcAddr_2 & 0xFFFF
//  434   
//  435   return MAC_SRCMATCH_INVALID_INDEX;
        MOV     R1,#-0x1
??macSrcMatchCheckSrcAddr_4:
        MOV     A,#0xc
        LJMP    ?Subroutine1 & 0xFFFF
          CFI EndBlock cfiBlock38
//  436 }

        RSEG BANKED_CODE:CODE:NOROOT(0)
?Subroutine4:
          CFI Block cfiCond39 Using cfiCommon0
          CFI Function MAC_SrcMatchAddEntry
          CFI Conditional ??CrossCallReturnLabel_8
          CFI R6 load(1, XDATA, add(CFA_XSP16, literal(-24)))
          CFI VB load(1, XDATA, add(CFA_XSP16, literal(-23)))
          CFI V0 load(1, XDATA, add(CFA_XSP16, literal(-22)))
          CFI V1 load(1, XDATA, add(CFA_XSP16, literal(-21)))
          CFI V2 load(1, XDATA, add(CFA_XSP16, literal(-20)))
          CFI V3 load(1, XDATA, add(CFA_XSP16, literal(-19)))
          CFI V4 load(1, XDATA, add(CFA_XSP16, literal(-18)))
          CFI V5 load(1, XDATA, add(CFA_XSP16, literal(-17)))
          CFI V6 load(1, XDATA, add(CFA_XSP16, literal(-16)))
          CFI V7 load(1, XDATA, add(CFA_XSP16, literal(-15)))
          CFI V8 load(1, XDATA, add(CFA_XSP16, literal(-14)))
          CFI V9 load(1, XDATA, add(CFA_XSP16, literal(-13)))
          CFI V10 load(1, XDATA, add(CFA_XSP16, literal(-12)))
          CFI V11 load(1, XDATA, add(CFA_XSP16, literal(-11)))
          CFI V12 load(1, XDATA, add(CFA_XSP16, literal(-10)))
          CFI V13 load(1, XDATA, add(CFA_XSP16, literal(-9)))
          CFI V14 load(1, XDATA, add(CFA_XSP16, literal(-8)))
          CFI V15 load(1, XDATA, add(CFA_XSP16, literal(-7)))
          CFI R7 load(1, XDATA, add(CFA_XSP16, literal(-6)))
          CFI ?RET_LOW load(1, XDATA, add(CFA_XSP16, literal(-5)))
          CFI ?RET_HIGH load(1, XDATA, add(CFA_XSP16, literal(-4)))
          CFI ?BRET_EXT load(1, XDATA, add(CFA_XSP16, literal(-3)))
          CFI DPL0 load(1, XDATA, add(CFA_XSP16, literal(-2)))
          CFI DPH0 load(1, XDATA, add(CFA_XSP16, literal(-1)))
          CFI CFA_SP SP+0
          CFI CFA_XSP16 add(XSP16, 39)
          CFI Block cfiCond40 Using cfiCommon0
          CFI (cfiCond40) Function MAC_SrcMatchAddEntry
          CFI (cfiCond40) Conditional ??CrossCallReturnLabel_9
          CFI (cfiCond40) R6 load(1, XDATA, add(CFA_XSP16, literal(-24)))
          CFI (cfiCond40) VB load(1, XDATA, add(CFA_XSP16, literal(-23)))
          CFI (cfiCond40) V0 load(1, XDATA, add(CFA_XSP16, literal(-22)))
          CFI (cfiCond40) V1 load(1, XDATA, add(CFA_XSP16, literal(-21)))
          CFI (cfiCond40) V2 load(1, XDATA, add(CFA_XSP16, literal(-20)))
          CFI (cfiCond40) V3 load(1, XDATA, add(CFA_XSP16, literal(-19)))
          CFI (cfiCond40) V4 load(1, XDATA, add(CFA_XSP16, literal(-18)))
          CFI (cfiCond40) V5 load(1, XDATA, add(CFA_XSP16, literal(-17)))
          CFI (cfiCond40) V6 load(1, XDATA, add(CFA_XSP16, literal(-16)))
          CFI (cfiCond40) V7 load(1, XDATA, add(CFA_XSP16, literal(-15)))
          CFI (cfiCond40) V8 load(1, XDATA, add(CFA_XSP16, literal(-14)))
          CFI (cfiCond40) V9 load(1, XDATA, add(CFA_XSP16, literal(-13)))
          CFI (cfiCond40) V10 load(1, XDATA, add(CFA_XSP16, literal(-12)))
          CFI (cfiCond40) V11 load(1, XDATA, add(CFA_XSP16, literal(-11)))
          CFI (cfiCond40) V12 load(1, XDATA, add(CFA_XSP16, literal(-10)))
          CFI (cfiCond40) V13 load(1, XDATA, add(CFA_XSP16, literal(-9)))
          CFI (cfiCond40) V14 load(1, XDATA, add(CFA_XSP16, literal(-8)))
          CFI (cfiCond40) V15 load(1, XDATA, add(CFA_XSP16, literal(-7)))
          CFI (cfiCond40) R7 load(1, XDATA, add(CFA_XSP16, literal(-6)))
          CFI (cfiCond40) ?RET_LOW load(1, XDATA, add(CFA_XSP16, literal(-5)))
          CFI (cfiCond40) ?RET_HIGH load(1, XDATA, add(CFA_XSP16, literal(-4)))
          CFI (cfiCond40) ?BRET_EXT load(1, XDATA, add(CFA_XSP16, literal(-3)))
          CFI (cfiCond40) DPL0 load(1, XDATA, add(CFA_XSP16, literal(-2)))
          CFI (cfiCond40) DPH0 load(1, XDATA, add(CFA_XSP16, literal(-1)))
          CFI (cfiCond40) CFA_SP SP+0
          CFI (cfiCond40) CFA_XSP16 add(XSP16, 39)
          CFI Block cfiCond41 Using cfiCommon0
          CFI (cfiCond41) Function macSrcMatchCheckSrcAddr
          CFI (cfiCond41) Conditional ??CrossCallReturnLabel_10
          CFI (cfiCond41) R6 load(1, XDATA, add(CFA_XSP16, literal(-24)))
          CFI (cfiCond41) VB load(1, XDATA, add(CFA_XSP16, literal(-23)))
          CFI (cfiCond41) V0 load(1, XDATA, add(CFA_XSP16, literal(-22)))
          CFI (cfiCond41) V1 load(1, XDATA, add(CFA_XSP16, literal(-21)))
          CFI (cfiCond41) V2 load(1, XDATA, add(CFA_XSP16, literal(-20)))
          CFI (cfiCond41) V3 load(1, XDATA, add(CFA_XSP16, literal(-19)))
          CFI (cfiCond41) V4 load(1, XDATA, add(CFA_XSP16, literal(-18)))
          CFI (cfiCond41) V5 load(1, XDATA, add(CFA_XSP16, literal(-17)))
          CFI (cfiCond41) V6 load(1, XDATA, add(CFA_XSP16, literal(-16)))
          CFI (cfiCond41) V7 load(1, XDATA, add(CFA_XSP16, literal(-15)))
          CFI (cfiCond41) V8 load(1, XDATA, add(CFA_XSP16, literal(-14)))
          CFI (cfiCond41) V9 load(1, XDATA, add(CFA_XSP16, literal(-13)))
          CFI (cfiCond41) V10 load(1, XDATA, add(CFA_XSP16, literal(-12)))
          CFI (cfiCond41) V11 load(1, XDATA, add(CFA_XSP16, literal(-11)))
          CFI (cfiCond41) V12 load(1, XDATA, add(CFA_XSP16, literal(-10)))
          CFI (cfiCond41) V13 load(1, XDATA, add(CFA_XSP16, literal(-9)))
          CFI (cfiCond41) V14 load(1, XDATA, add(CFA_XSP16, literal(-8)))
          CFI (cfiCond41) V15 load(1, XDATA, add(CFA_XSP16, literal(-7)))
          CFI (cfiCond41) R7 load(1, XDATA, add(CFA_XSP16, literal(-6)))
          CFI (cfiCond41) ?RET_LOW load(1, XDATA, add(CFA_XSP16, literal(-5)))
          CFI (cfiCond41) ?RET_HIGH load(1, XDATA, add(CFA_XSP16, literal(-4)))
          CFI (cfiCond41) ?BRET_EXT load(1, XDATA, add(CFA_XSP16, literal(-3)))
          CFI (cfiCond41) DPL0 load(1, XDATA, add(CFA_XSP16, literal(-2)))
          CFI (cfiCond41) DPH0 load(1, XDATA, add(CFA_XSP16, literal(-1)))
          CFI (cfiCond41) CFA_SP SP+0
          CFI (cfiCond41) CFA_XSP16 add(XSP16, 36)
          CFI Block cfiPicker42 Using cfiCommon1
          CFI (cfiPicker42) NoFunction
          CFI (cfiPicker42) Picker
        MOV     A,?V0 + 0
        ORL     A,?V0 + 1
        ORL     A,?V0 + 2
        ORL     A,?V0 + 3
        RET
          CFI EndBlock cfiCond39
          CFI EndBlock cfiCond40
          CFI EndBlock cfiCond41
          CFI EndBlock cfiPicker42
//  437 
//  438 /*********************************************************************
//  439  * @fn          macSrcMatchSetPendEnBit
//  440  *
//  441  * @brief       Set the enable bit in the source address table
//  442  *
//  443  * @param       index - index of the entry in the source address table
//  444  * @param       macSrcMatchAddrMode - Address Mode for the entry. Valid values
//  445  *              are SADDR_MODE_SHORT or SADDR_MODE_EXT
//  446  *
//  447  * @return      none
//  448  */
//  449 static void macSrcMatchSetPendEnBit( uint8 index, uint8 macSrcMatchAddrMode )
//  450 {
//  451   uint24 enable;
//  452   uint8 buf[MAC_SRCMATCH_ENABLE_BITMAP_LEN];
//  453        
//  454   if( macSrcMatchAddrMode == SADDR_MODE_SHORT )
//  455   {
//  456     enable = MAC_RADIO_SRC_MATCH_GET_SHORTADDR_PENDEN(); 
//  457     enable |= ( (uint24)0x01 << index );
//  458     osal_buffer_uint24( buf, enable );
//  459     MAC_RADIO_SRC_MATCH_SET_SHORTPENDEN( buf );
//  460   }
//  461   else
//  462   {
//  463     enable = MAC_RADIO_SRC_MATCH_GET_EXTADDR_PENDEN(); 
//  464     enable |= ( (uint24)0x01 << ( index * EXT_ADDR_INDEX_SIZE ) );
//  465     enable |= ( (uint24)0x01 << ( ( index * EXT_ADDR_INDEX_SIZE ) + 1 ) );
//  466     osal_buffer_uint24( buf, enable );
//  467     MAC_RADIO_SRC_MATCH_SET_EXTPENDEN( buf );
//  468   }
//  469 }
//  470 
//  471 /*********************************************************************
//  472  * @fn          macSrcMatchSetEnableBit
//  473  *
//  474  * @brief       Set or clear the enable bit in the SRCMATCH EN register
//  475  *
//  476  * @param       index  - index of the entry in the source address table
//  477  * @param       option - true (set the enable bit), or false (clear the enable 
//  478  *                       bit)
//  479  * @param       macSrcMatchAddrMode - Address Mode for the entry. Valid values
//  480  *              are SADDR_MODE_SHORT or SADDR_MODE_EXT
//  481  *
//  482  * @return      none
//  483  */

        RSEG BANKED_CODE:CODE:NOROOT(0)
//  484 static void macSrcMatchSetEnableBit( uint8 index, 
macSrcMatchSetEnableBit:
          CFI Block cfiBlock43 Using cfiCommon0
          CFI Function macSrcMatchSetEnableBit
        CODE
//  485                                     bool option, 
//  486                                     uint8 macSrcMatchAddrMode )
//  487 {
        FUNCALL macSrcMatchSetEnableBit, macSrcMatchGetShortAddrEnableBit
        LOCFRAME ISTACK, 0, STACK
        LOCFRAME PSTACK, 0, STACK
        LOCFRAME XSTACK, 17, STACK
        LOCFRAME IOVERLAY, 0, STATIC
        LOCFRAME DOVERLAY, 0, STATIC
        ARGFRAME ISTACK, 0, STACK
        ARGFRAME PSTACK, 0, STACK
        ARGFRAME XSTACK, 17, STACK
        ARGFRAME IOVERLAY, 0, STATIC
        ARGFRAME DOVERLAY, 0, STATIC
        FUNCALL macSrcMatchSetEnableBit, osal_buffer_uint24
        LOCFRAME ISTACK, 0, STACK
        LOCFRAME PSTACK, 0, STACK
        LOCFRAME XSTACK, 21, STACK
        LOCFRAME IOVERLAY, 0, STATIC
        LOCFRAME DOVERLAY, 0, STATIC
        ARGFRAME ISTACK, 0, STACK
        ARGFRAME PSTACK, 0, STACK
        ARGFRAME XSTACK, 21, STACK
        ARGFRAME IOVERLAY, 0, STATIC
        ARGFRAME DOVERLAY, 0, STATIC
        FUNCALL macSrcMatchSetEnableBit, macSrcMatchGetExtAddrEnableBit
        LOCFRAME ISTACK, 0, STACK
        LOCFRAME PSTACK, 0, STACK
        LOCFRAME XSTACK, 17, STACK
        LOCFRAME IOVERLAY, 0, STATIC
        LOCFRAME DOVERLAY, 0, STATIC
        ARGFRAME ISTACK, 0, STACK
        ARGFRAME PSTACK, 0, STACK
        ARGFRAME XSTACK, 17, STACK
        ARGFRAME IOVERLAY, 0, STATIC
        ARGFRAME DOVERLAY, 0, STATIC
        FUNCALL macSrcMatchSetEnableBit, osal_buffer_uint24
        LOCFRAME ISTACK, 0, STACK
        LOCFRAME PSTACK, 0, STACK
        LOCFRAME XSTACK, 21, STACK
        LOCFRAME IOVERLAY, 0, STATIC
        LOCFRAME DOVERLAY, 0, STATIC
        ARGFRAME ISTACK, 0, STACK
        ARGFRAME PSTACK, 0, STACK
        ARGFRAME XSTACK, 21, STACK
        ARGFRAME IOVERLAY, 0, STATIC
        ARGFRAME DOVERLAY, 0, STATIC
        FUNCALL macSrcMatchSetEnableBit, macSrcMatchGetShortAddrEnableBit
        LOCFRAME ISTACK, 0, STACK
        LOCFRAME PSTACK, 0, STACK
        LOCFRAME XSTACK, 17, STACK
        LOCFRAME IOVERLAY, 0, STATIC
        LOCFRAME DOVERLAY, 0, STATIC
        ARGFRAME ISTACK, 0, STACK
        ARGFRAME PSTACK, 0, STACK
        ARGFRAME XSTACK, 17, STACK
        ARGFRAME IOVERLAY, 0, STATIC
        ARGFRAME DOVERLAY, 0, STATIC
        FUNCALL macSrcMatchSetEnableBit, osal_buffer_uint24
        LOCFRAME ISTACK, 0, STACK
        LOCFRAME PSTACK, 0, STACK
        LOCFRAME XSTACK, 21, STACK
        LOCFRAME IOVERLAY, 0, STATIC
        LOCFRAME DOVERLAY, 0, STATIC
        ARGFRAME ISTACK, 0, STACK
        ARGFRAME PSTACK, 0, STACK
        ARGFRAME XSTACK, 21, STACK
        ARGFRAME IOVERLAY, 0, STATIC
        ARGFRAME DOVERLAY, 0, STATIC
        FUNCALL macSrcMatchSetEnableBit, macSrcMatchGetExtAddrEnableBit
        LOCFRAME ISTACK, 0, STACK
        LOCFRAME PSTACK, 0, STACK
        LOCFRAME XSTACK, 17, STACK
        LOCFRAME IOVERLAY, 0, STATIC
        LOCFRAME DOVERLAY, 0, STATIC
        ARGFRAME ISTACK, 0, STACK
        ARGFRAME PSTACK, 0, STACK
        ARGFRAME XSTACK, 17, STACK
        ARGFRAME IOVERLAY, 0, STATIC
        ARGFRAME DOVERLAY, 0, STATIC
        FUNCALL macSrcMatchSetEnableBit, osal_buffer_uint24
        LOCFRAME ISTACK, 0, STACK
        LOCFRAME PSTACK, 0, STACK
        LOCFRAME XSTACK, 21, STACK
        LOCFRAME IOVERLAY, 0, STATIC
        LOCFRAME DOVERLAY, 0, STATIC
        ARGFRAME ISTACK, 0, STACK
        ARGFRAME PSTACK, 0, STACK
        ARGFRAME XSTACK, 21, STACK
        ARGFRAME IOVERLAY, 0, STATIC
        ARGFRAME DOVERLAY, 0, STATIC
        MOV     A,#-0x11
        LCALL   ?BANKED_ENTER_XDATA
          CFI DPH0 load(1, XDATA, add(CFA_XSP16, literal(-1)))
          CFI DPL0 load(1, XDATA, add(CFA_XSP16, literal(-2)))
          CFI ?BRET_EXT load(1, XDATA, add(CFA_XSP16, literal(-3)))
          CFI ?RET_HIGH load(1, XDATA, add(CFA_XSP16, literal(-4)))
          CFI ?RET_LOW load(1, XDATA, add(CFA_XSP16, literal(-5)))
          CFI R7 load(1, XDATA, add(CFA_XSP16, literal(-6)))
          CFI V8 load(1, XDATA, add(CFA_XSP16, literal(-7)))
          CFI V7 load(1, XDATA, add(CFA_XSP16, literal(-8)))
          CFI V6 load(1, XDATA, add(CFA_XSP16, literal(-9)))
          CFI V5 load(1, XDATA, add(CFA_XSP16, literal(-10)))
          CFI V4 load(1, XDATA, add(CFA_XSP16, literal(-11)))
          CFI V3 load(1, XDATA, add(CFA_XSP16, literal(-12)))
          CFI V2 load(1, XDATA, add(CFA_XSP16, literal(-13)))
          CFI V1 load(1, XDATA, add(CFA_XSP16, literal(-14)))
          CFI V0 load(1, XDATA, add(CFA_XSP16, literal(-15)))
          CFI VB load(1, XDATA, add(CFA_XSP16, literal(-16)))
          CFI R6 load(1, XDATA, add(CFA_XSP16, literal(-17)))
          CFI CFA_SP SP+0
          CFI CFA_XSP16 add(XSP16, 17)
        ; Saved register size: 17
        ; Auto size: 0
        MOV     A,R1
        MOV     R7,A
        MOV     ?V0 + 8,R2
        MOV     A,R3
        MOV     R6,A
//  488   uint24 enable;  
//  489   
//  490   if( option == TRUE )
        MOV     ?V0 + 4,#0x1
        MOV     ?V0 + 5,#0x0
        MOV     ?V0 + 6,#0x0
        MOV     ?V0 + 7,#0x0
        MOV     A,R7
        CLR     C
        RLC     A
        MOV     R0,#?V0 + 4
        LCALL   ?L_SHL
        MOV     ?V0 + 0,#0x1
        MOV     ?V0 + 1,A
        MOV     ?V0 + 2,A
        MOV     ?V0 + 3,A
        MOV     A,R7
        MOV     R0,#?V0 + 0
        LCALL   ?L_SHL
        INC     A
        XRL     A,?V0 + 8
        JNZ     ??macSrcMatchSetEnableBit_0
//  491   {
//  492     if( macSrcMatchAddrMode == SADDR_MODE_SHORT )
        MOV     A,#0x2
        XRL     A,R6
        JNZ     ??macSrcMatchSetEnableBit_1
//  493     {
//  494       enable = MAC_RADIO_SRC_MATCH_GET_SHORTADDR_EN(); 
//  495       enable |= ( (uint24)0x01 << index );
//  496       MAC_RADIO_SRC_MATCH_SET_SHORTEN( enable );
        ; Setup parameters for call to function osal_buffer_uint24
        ; Setup parameters for call to function macSrcMatchGetShortAddrEnableBit
        LCALL   ??macSrcMatchGetShortAddrEnableBit?relay
        MOV     ?V0 + 4,R2
        MOV     ?V0 + 5,R3
        MOV     ?V0 + 6,R4
        MOV     ?V0 + 7,R5
        MOV     R0,#?V0 + 4
        MOV     R1,#?V0 + 0
        LCALL   ?L_IOR
        SJMP    ??macSrcMatchSetEnableBit_2
//  497     }
//  498     else
//  499     {
//  500       enable = MAC_RADIO_SRC_MATCH_GET_EXTADDR_EN(); 
//  501       enable |= ( (uint24)0x01 << ( index *  EXT_ADDR_INDEX_SIZE) );
//  502       MAC_RADIO_SRC_MATCH_SET_EXTEN( enable );
??macSrcMatchSetEnableBit_1:
        ; Setup parameters for call to function osal_buffer_uint24
        ; Setup parameters for call to function macSrcMatchGetExtAddrEnableBit
        LCALL   ??macSrcMatchGetExtAddrEnableBit?relay
        MOV     ?V0 + 0,R2
        MOV     ?V0 + 1,R3
        MOV     ?V0 + 2,R4
        MOV     ?V0 + 3,R5
        MOV     R0,#?V0 + 0
        MOV     R1,#?V0 + 4
        LCALL   ?L_IOR
        SJMP    ??macSrcMatchSetEnableBit_3
//  503     }
//  504   }
//  505   else
//  506   {
//  507     if( macSrcMatchAddrMode == SADDR_MODE_SHORT )
??macSrcMatchSetEnableBit_0:
        MOV     A,#0x2
        XRL     A,R6
        JNZ     ??macSrcMatchSetEnableBit_4
//  508     {
//  509       enable = MAC_RADIO_SRC_MATCH_GET_SHORTADDR_EN();
//  510       enable &= ~( (uint24)0x01 << index );
//  511       MAC_RADIO_SRC_MATCH_SET_SHORTEN( enable );
        ; Setup parameters for call to function osal_buffer_uint24
        ; Setup parameters for call to function macSrcMatchGetShortAddrEnableBit
        LCALL   ??macSrcMatchGetShortAddrEnableBit?relay
        MOV     ?V0 + 4,R2
        MOV     ?V0 + 5,R3
        MOV     ?V0 + 6,R4
        MOV     ?V0 + 7,R5
        MOV     R0,#?V0 + 0
        LCALL   ?L_NOT
        MOV     R0,#?V0 + 4
        MOV     R1,#?V0 + 0
        LCALL   ?L_AND
??macSrcMatchSetEnableBit_2:
        MOV     R0,#?V0 + 4
        LCALL   ?PUSH_XSTACK_I_FOUR
          CFI CFA_XSP16 add(XSP16, 21)
        MOV     R2,#-0x7d
        SJMP    ??macSrcMatchSetEnableBit_5
          CFI CFA_XSP16 add(XSP16, 17)
//  512     }
//  513     else
//  514     {
//  515       enable = MAC_RADIO_SRC_MATCH_GET_EXTADDR_EN(); 
//  516       enable &= ~( (uint24)0x01 << ( index * EXT_ADDR_INDEX_SIZE ) );
//  517       MAC_RADIO_SRC_MATCH_SET_EXTEN( enable );
??macSrcMatchSetEnableBit_4:
        ; Setup parameters for call to function osal_buffer_uint24
        ; Setup parameters for call to function macSrcMatchGetExtAddrEnableBit
        LCALL   ??macSrcMatchGetExtAddrEnableBit?relay
        MOV     ?V0 + 0,R2
        MOV     ?V0 + 1,R3
        MOV     ?V0 + 2,R4
        MOV     ?V0 + 3,R5
        MOV     R0,#?V0 + 4
        LCALL   ?L_NOT
        MOV     R0,#?V0 + 0
        MOV     R1,#?V0 + 4
        LCALL   ?L_AND
??macSrcMatchSetEnableBit_3:
        MOV     R0,#?V0 + 0
        LCALL   ?PUSH_XSTACK_I_FOUR
          CFI CFA_XSP16 add(XSP16, 21)
        MOV     R2,#-0x7a
??macSrcMatchSetEnableBit_5:
        MOV     R3,#0x61
        LCALL   ??osal_buffer_uint24?relay
        MOV     A,#0x4
        LCALL   ?DEALLOC_XSTACK8
          CFI CFA_XSP16 add(XSP16, 17)
//  518     }
//  519   }
//  520 }
        MOV     R7,#0x9
        LJMP    ?BANKED_LEAVE_XDATA
          CFI EndBlock cfiBlock43
//  521 
//  522 /*********************************************************************
//  523  * @fn          macSrcMatchCheckEnableBit
//  524  *
//  525  * @brief       Check the enable bit in the source address table
//  526  *
//  527  * @param       index - index of the entry in the source address table
//  528  * @param       enable - enable register should be read before passing 
//  529  *              it here
//  530  *
//  531  * @return      TRUE or FALSE
//  532  */
//  533 static bool macSrcMatchCheckEnableBit( uint8 index, uint24 enable)
//  534 {
//  535   if( enable & ((uint24)0x01 << index ))
//  536   {
//  537     return TRUE;
//  538   }
//  539   
//  540   return FALSE; 
//  541 }
//  542  
//  543 /*********************************************************************
//  544  * @fn          macSrcMatchGetShortAddrPendEnBit
//  545  *
//  546  * @brief       Return the SRCMATCH ShortAddr Pend enable bitmap
//  547  *
//  548  * @param       none
//  549  *
//  550  * @return      uint24 - 24 bits bitmap
//  551  */
//  552 static uint24 macSrcMatchGetShortAddrPendEnBit( void )
//  553 {
//  554   uint8 buf[MAC_SRCMATCH_ENABLE_BITMAP_LEN];
//  555   
//  556   MAC_RADIO_GET_SRC_SHORTPENDEN( buf );
//  557   
//  558   return osal_build_uint32( buf, MAC_SRCMATCH_ENABLE_BITMAP_LEN );
//  559 }
//  560 
//  561  
//  562 /*********************************************************************
//  563  * @fn          macSrcMatchGetExtAddrPendEnBit
//  564  *
//  565  * @brief       Return the SRCMATCH Extended Address Pend enable bitmap
//  566  *
//  567  * @param       none
//  568  *
//  569  * @return      uint24 - 24 bits bitmap
//  570  */
//  571 static uint24 macSrcMatchGetExtAddrPendEnBit( void )
//  572 {
//  573   uint8 buf[MAC_SRCMATCH_ENABLE_BITMAP_LEN];
//  574   
//  575   MAC_RADIO_GET_SRC_EXTENPEND( buf );
//  576   
//  577   return osal_build_uint32( buf, MAC_SRCMATCH_ENABLE_BITMAP_LEN );
//  578 }
//  579 
//  580 /*********************************************************************
//  581  * @fn          macSrcMatchGetShortAddrEnableBit
//  582  *
//  583  * @brief       Return the SRCMATCH ShortAddr enable bitmap
//  584  *
//  585  * @param       none
//  586  *
//  587  * @return      uint24 - 24 bits bitmap
//  588  */

        RSEG BANKED_CODE:CODE:NOROOT(0)
//  589 static uint24 macSrcMatchGetShortAddrEnableBit( void )
macSrcMatchGetShortAddrEnableBit:
          CFI Block cfiBlock44 Using cfiCommon0
          CFI Function macSrcMatchGetShortAddrEnableBit
        CODE
//  590 {
        FUNCALL macSrcMatchGetShortAddrEnableBit, macMemReadRam
        LOCFRAME ISTACK, 2, STACK
        LOCFRAME PSTACK, 0, STACK
        LOCFRAME XSTACK, 3, STACK
        LOCFRAME IOVERLAY, 0, STATIC
        LOCFRAME DOVERLAY, 0, STATIC
        ARGFRAME ISTACK, 2, STACK
        ARGFRAME PSTACK, 0, STACK
        ARGFRAME XSTACK, 3, STACK
        ARGFRAME IOVERLAY, 0, STATIC
        ARGFRAME DOVERLAY, 0, STATIC
        FUNCALL macSrcMatchGetShortAddrEnableBit, osal_build_uint32
        LOCFRAME ISTACK, 2, STACK
        LOCFRAME PSTACK, 0, STACK
        LOCFRAME XSTACK, 3, STACK
        LOCFRAME IOVERLAY, 0, STATIC
        LOCFRAME DOVERLAY, 0, STATIC
        ARGFRAME ISTACK, 2, STACK
        ARGFRAME PSTACK, 0, STACK
        ARGFRAME XSTACK, 3, STACK
        ARGFRAME IOVERLAY, 0, STATIC
        ARGFRAME DOVERLAY, 0, STATIC
        PUSH    DPL
          CFI DPL0 Frame(CFA_SP, 4)
          CFI CFA_SP SP+-4
        PUSH    DPH
          CFI DPH0 Frame(CFA_SP, 5)
          CFI CFA_SP SP+-5
        ; Saved register size: 2
        ; Auto size: 3
        MOV     A,#-0x3
        LCALL   ?ALLOC_XSTACK8
          CFI CFA_XSP16 add(XSP16, 3)
//  591   uint8 buf[MAC_SRCMATCH_ENABLE_BITMAP_LEN];
//  592   
//  593   MAC_RADIO_GET_SRC_SHORTEN( buf );
        ; Setup parameters for call to function macMemReadRam
        MOV     R1,#0x3
        MOV     DPL,?XSP + 0
        MOV     DPH,?XSP + 1
        MOV     R4,DPL
        MOV     R5,DPH
        MOV     R2,#-0x7d
        LJMP    ?Subroutine0 & 0xFFFF
          CFI EndBlock cfiBlock44
//  594   
//  595   return osal_build_uint32( buf, MAC_SRCMATCH_ENABLE_BITMAP_LEN );
//  596 }
//  597 
//  598 /*********************************************************************
//  599  * @fn          macSrcMatchGetExtAddrEnBit
//  600  *
//  601  * @brief       Return the SRCMATCH ExtAddr enable bitmap
//  602  *
//  603  * @param       none
//  604  *
//  605  * @return      uint24 - 24 bits bitmap
//  606  */

        RSEG BANKED_CODE:CODE:NOROOT(0)
//  607 static uint24 macSrcMatchGetExtAddrEnableBit( void )
macSrcMatchGetExtAddrEnableBit:
          CFI Block cfiBlock45 Using cfiCommon0
          CFI Function macSrcMatchGetExtAddrEnableBit
        CODE
//  608 {
        FUNCALL macSrcMatchGetExtAddrEnableBit, macMemReadRam
        LOCFRAME ISTACK, 2, STACK
        LOCFRAME PSTACK, 0, STACK
        LOCFRAME XSTACK, 3, STACK
        LOCFRAME IOVERLAY, 0, STATIC
        LOCFRAME DOVERLAY, 0, STATIC
        ARGFRAME ISTACK, 2, STACK
        ARGFRAME PSTACK, 0, STACK
        ARGFRAME XSTACK, 3, STACK
        ARGFRAME IOVERLAY, 0, STATIC
        ARGFRAME DOVERLAY, 0, STATIC
        FUNCALL macSrcMatchGetExtAddrEnableBit, osal_build_uint32
        LOCFRAME ISTACK, 2, STACK
        LOCFRAME PSTACK, 0, STACK
        LOCFRAME XSTACK, 3, STACK
        LOCFRAME IOVERLAY, 0, STATIC
        LOCFRAME DOVERLAY, 0, STATIC
        ARGFRAME ISTACK, 2, STACK
        ARGFRAME PSTACK, 0, STACK
        ARGFRAME XSTACK, 3, STACK
        ARGFRAME IOVERLAY, 0, STATIC
        ARGFRAME DOVERLAY, 0, STATIC
        PUSH    DPL
          CFI DPL0 Frame(CFA_SP, 4)
          CFI CFA_SP SP+-4
        PUSH    DPH
          CFI DPH0 Frame(CFA_SP, 5)
          CFI CFA_SP SP+-5
        ; Saved register size: 2
        ; Auto size: 3
        MOV     A,#-0x3
        LCALL   ?ALLOC_XSTACK8
          CFI CFA_XSP16 add(XSP16, 3)
//  609   uint8 buf[MAC_SRCMATCH_ENABLE_BITMAP_LEN];
//  610   
//  611   MAC_RADIO_GET_SRC_EXTEN( buf );
        ; Setup parameters for call to function macMemReadRam
        MOV     R1,#0x3
        MOV     DPL,?XSP + 0
        MOV     DPH,?XSP + 1
        MOV     R4,DPL
        MOV     R5,DPH
        MOV     R2,#-0x7a
        LJMP    ?Subroutine0 & 0xFFFF
          CFI EndBlock cfiBlock45
//  612   
//  613   return osal_build_uint32( buf, MAC_SRCMATCH_ENABLE_BITMAP_LEN );
//  614 }

        RSEG BANK_RELAYS:CODE:REORDER:NOROOT(0)
??MAC_SrcMatchEnable?relay:
        CODE
        LCALL   ?BDISPATCH
        DATA24
        DC24    MAC_SrcMatchEnable

        RSEG BANK_RELAYS:CODE:REORDER:NOROOT(0)
??MAC_SrcMatchAddEntry?relay:
        CODE
        LCALL   ?BDISPATCH
        DATA24
        DC24    MAC_SrcMatchAddEntry

        RSEG BANK_RELAYS:CODE:REORDER:NOROOT(0)
??MAC_SrcMatchDeleteEntry?relay:
        CODE
        LCALL   ?BDISPATCH
        DATA24
        DC24    MAC_SrcMatchDeleteEntry

        RSEG BANK_RELAYS:CODE:REORDER:NOROOT(0)
??MAC_SrcMatchAckAllPending?relay:
        CODE
        LCALL   ?BDISPATCH
        DATA24
        DC24    MAC_SrcMatchAckAllPending

        RSEG BANK_RELAYS:CODE:REORDER:NOROOT(0)
??MAC_SrcMatchCheckAllPending?relay:
        CODE
        LCALL   ?BDISPATCH
        DATA24
        DC24    MAC_SrcMatchCheckAllPending

        RSEG BANK_RELAYS:CODE:REORDER:NOROOT(0)
??MAC_SrcMatchCheckResult?relay:
        CODE
        LCALL   ?BDISPATCH
        DATA24
        DC24    MAC_SrcMatchCheckResult

        RSEG BANK_RELAYS:CODE:REORDER:NOROOT(0)
??macSrcMatchCheckSrcAddr?relay:
        CODE
        LCALL   ?BDISPATCH
        DATA24
        DC24    macSrcMatchCheckSrcAddr

        RSEG BANK_RELAYS:CODE:REORDER:NOROOT(0)
??macSrcMatchSetEnableBit?relay:
        CODE
        LCALL   ?BDISPATCH
        DATA24
        DC24    macSrcMatchSetEnableBit

        RSEG BANK_RELAYS:CODE:REORDER:NOROOT(0)
??macSrcMatchGetShortAddrEnableBit?relay:
        CODE
        LCALL   ?BDISPATCH
        DATA24
        DC24    macSrcMatchGetShortAddrEnableBit

        RSEG BANK_RELAYS:CODE:REORDER:NOROOT(0)
??macSrcMatchGetExtAddrEnableBit?relay:
        CODE
        LCALL   ?BDISPATCH
        DATA24
        DC24    macSrcMatchGetExtAddrEnableBit

        END
//  615 
//  616 
// 
// 1 521 bytes in segment BANKED_CODE
//    60 bytes in segment BANK_RELAYS
//     2 bytes in segment XDATA_Z
// 
// 1 581 bytes of CODE  memory
//     2 bytes of XDATA memory
//
//Errors: none
//Warnings: none
