///////////////////////////////////////////////////////////////////////////////
//                                                                            /
// IAR C/C++ Compiler V8.20.2.41139 for 8051            12/Apr/2014  12:17:58 /
// Copyright 2004-2013 IAR Systems AB.                                        /
//                                                                            /
//    Core               =  plain                                             /
//    Code model         =  banked                                            /
//    Data model         =  large                                             /
//    Calling convention =  xdata reentrant                                   /
//    Constant location  =  data_rom                                          /
//    Dptr setup         =  1,16                                              /
//                                                                            /
//    Source file        =  D:\Texas Instruments\Z-Stack Lighting             /
//                          1.0.2\Components\mt\MT_AF.c                       /
//    Command line       =  -f "D:\Texas Instruments\Z-Stack Lighting         /
//                          1.0.2\Projects\zstack\ZLL\SampleApp\CC253x\..\..\ /
//                          ..\Tools\CC2530DB\f8wRouter.cfg" (-DCPU32MHZ      /
//                          -DROOT=__near_func -DMAC_CFG_APP_PENDING_QUEUE=TR /
//                          UE -DMAC_CFG_TX_DATA_MAX=5 -DMAC_CFG_TX_MAX=8     /
//                          -DMAC_CFG_RX_MAX=5 -DRTR_NWK) -f "D:\Texas        /
//                          Instruments\Z-Stack Lighting                      /
//                          1.0.2\Projects\zstack\ZLL\SampleApp\CC253x\..\..\ /
//                          ..\Tools\CC2530DB\f8wConfig.cfg" (-DZIGBEEPRO     /
//                          -DSECURE=1 -DZG_SECURE_DYNAMIC=0 -DREFLECTOR      /
//                          -DDEFAULT_CHANLIST=0x00000800                     /
//                          -DZDAPP_CONFIG_PAN_ID=0xFFFF                      /
//                          -DNWK_START_DELAY=100 -DEXTENDED_JOINING_RANDOM_M /
//                          ASK=0x007F -DBEACON_REQUEST_DELAY=100             /
//                          -DBEACON_REQ_DELAY_MASK=0x00FF                    /
//                          -DLINK_STATUS_JITTER_MASK=0x007F                  /
//                          -DROUTE_EXPIRY_TIME=30 -DAPSC_ACK_WAIT_DURATION_P /
//                          OLLED=3000 -DNWK_INDIRECT_MSG_TIMEOUT=7           /
//                          -DMAX_RREQ_ENTRIES=8 -DAPSC_MAX_FRAME_RETRIES=3   /
//                          -DNWK_MAX_DATA_RETRIES=2                          /
//                          -DMAX_POLL_FAILURE_RETRIES=2 -DMAX_BCAST=9        /
//                          -DAPS_MAX_GROUPS=16 -DMAX_RTG_ENTRIES=40          /
//                          -DNWK_MAX_BINDING_ENTRIES=4                       /
//                          -DMAX_BINDING_CLUSTER_IDS=4                       /
//                          "-DDEFAULT_KEY={0x01, 0x03, 0x05, 0x07, 0x09,     /
//                          0x0B, 0x0D, 0x0F, 0x00, 0x02, 0x04, 0x06, 0x08,   /
//                          0x0A, 0x0C, 0x0D}" -DMAC_MAX_FRAME_SIZE=116       /
//                          -DZDNWKMGR_MIN_TRANSMISSIONS=20 "-DCONST=const    /
//                          __code" -DGENERIC=__generic                       /
//                          -DRFD_RCVC_ALWAYS_ON=FALSE -DPOLL_RATE=1000       /
//                          -DQUEUED_POLL_RATE=100 -DRESPONSE_POLL_RATE=100   /
//                          -DREJOIN_POLL_RATE=440) -f "D:\Texas              /
//                          Instruments\Z-Stack Lighting                      /
//                          1.0.2\Projects\zstack\ZLL\SampleApp\CC253x\..\..\ /
//                          ..\Tools\CC2530DB\f8wZCL.cfg" "D:\Texas           /
//                          Instruments\Z-Stack Lighting                      /
//                          1.0.2\Components\mt\MT_AF.c" -D                   /
//                          FEATURE_GREEN_POWER -D SECURE=1 -D                /
//                          TC_LINKKEY_JOIN -D ZDSECMGR_TC_DEVICE_MAX=2 -D    /
//                          NV_RESTORE -D HOLD_AUTO_START -D INTER_PAN -D     /
//                          ZTOOL_P1 -D MT_TASK -D MT_APP_FUNC -D             /
//                          MT_SYS_FUNC -D MT_ZDO_FUNC -D MT_ZDO_CB_FUNC -D   /
//                          MT_UTIL_FUNC -D MT_ZDO_MGMT -D LCD_SUPPORTED -D   /
//                          HAL_LCD=FALSE -D HAL_KEY=FALSE -D ZCL_BASIC -D    /
//                          ZCL_READ -D ZCL_WRITE -D ZCL_IDENTIFY -D          /
//                          ZCL_ON_OFF -D ZCL_SCENES -D ZCL_GROUPS -D         /
//                          ZCL_LIGHT_LINK_ENHANCE -D ZCL_LEVEL_CTRL -D       /
//                          ZCL_COLOR_CTRL -D xMAX_CHANNELS_24GHZ=0x02108800  /
//                          -lC "D:\Texas Instruments\Z-Stack Lighting        /
//                          1.0.2\Projects\zstack\ZLL\SampleApp\CC253x\Bridge /
//                          EB-Pro\List\" -lA "D:\Texas Instruments\Z-Stack   /
//                          Lighting 1.0.2\Projects\zstack\ZLL\SampleApp\CC25 /
//                          3x\BridgeEB-Pro\List\" --diag_suppress            /
//                          Pe001,Pa010 -o "D:\Texas Instruments\Z-Stack      /
//                          Lighting 1.0.2\Projects\zstack\ZLL\SampleApp\CC25 /
//                          3x\BridgeEB-Pro\Obj\" -e --debug --core=plain     /
//                          --dptr=16,1 --data_model=large                    /
//                          --code_model=banked --calling_convention=xdata_re /
//                          entrant --place_constants=data_rom                /
//                          --nr_virtual_regs 16 -I "D:\Texas                 /
//                          Instruments\Z-Stack Lighting                      /
//                          1.0.2\Projects\zstack\ZLL\SampleApp\CC253x\" -I   /
//                          "D:\Texas Instruments\Z-Stack Lighting            /
//                          1.0.2\Projects\zstack\ZLL\SampleApp\CC253x\..\Sou /
//                          rce\" -I "D:\Texas Instruments\Z-Stack Lighting   /
//                          1.0.2\Projects\zstack\ZLL\SampleApp\CC253x\..\..\ /
//                          Source\" -I "D:\Texas Instruments\Z-Stack         /
//                          Lighting 1.0.2\Projects\zstack\ZLL\SampleApp\CC25 /
//                          3x\..\..\..\HomeAutomation\Source\" -I "D:\Texas  /
//                          Instruments\Z-Stack Lighting                      /
//                          1.0.2\Projects\zstack\ZLL\SampleApp\CC253x\..\..\ /
//                          ..\HomeAutomation\SampleLight\Source\" -I         /
//                          "D:\Texas Instruments\Z-Stack Lighting            /
//                          1.0.2\Projects\zstack\ZLL\SampleApp\CC253x\..\..\ /
//                          ..\ZMain\TI2530DB\" -I "D:\Texas                  /
//                          Instruments\Z-Stack Lighting                      /
//                          1.0.2\Projects\zstack\ZLL\SampleApp\CC253x\..\..\ /
//                          ..\..\..\Components\hal\include\" -I "D:\Texas    /
//                          Instruments\Z-Stack Lighting                      /
//                          1.0.2\Projects\zstack\ZLL\SampleApp\CC253x\..\..\ /
//                          ..\..\..\Components\hal\target\CC2530EB\" -I      /
//                          "D:\Texas Instruments\Z-Stack Lighting            /
//                          1.0.2\Projects\zstack\ZLL\SampleApp\CC253x\..\..\ /
//                          ..\..\..\Components\mac\include\" -I "D:\Texas    /
//                          Instruments\Z-Stack Lighting                      /
//                          1.0.2\Projects\zstack\ZLL\SampleApp\CC253x\..\..\ /
//                          ..\..\..\Components\mac\high_level\" -I           /
//                          "D:\Texas Instruments\Z-Stack Lighting            /
//                          1.0.2\Projects\zstack\ZLL\SampleApp\CC253x\..\..\ /
//                          ..\..\..\Components\mac\low_level\srf04\" -I      /
//                          "D:\Texas Instruments\Z-Stack Lighting            /
//                          1.0.2\Projects\zstack\ZLL\SampleApp\CC253x\..\..\ /
//                          ..\..\..\Components\mac\low_level\srf04\single_ch /
//                          ip\" -I "D:\Texas Instruments\Z-Stack Lighting    /
//                          1.0.2\Projects\zstack\ZLL\SampleApp\CC253x\..\..\ /
//                          ..\..\..\Components\mt\" -I "D:\Texas             /
//                          Instruments\Z-Stack Lighting                      /
//                          1.0.2\Projects\zstack\ZLL\SampleApp\CC253x\..\..\ /
//                          ..\..\..\Components\osal\include\" -I "D:\Texas   /
//                          Instruments\Z-Stack Lighting                      /
//                          1.0.2\Projects\zstack\ZLL\SampleApp\CC253x\..\..\ /
//                          ..\..\..\Components\services\saddr\" -I           /
//                          "D:\Texas Instruments\Z-Stack Lighting            /
//                          1.0.2\Projects\zstack\ZLL\SampleApp\CC253x\..\..\ /
//                          ..\..\..\Components\services\sdata\" -I           /
//                          "D:\Texas Instruments\Z-Stack Lighting            /
//                          1.0.2\Projects\zstack\ZLL\SampleApp\CC253x\..\..\ /
//                          ..\..\..\Components\stack\af\" -I "D:\Texas       /
//                          Instruments\Z-Stack Lighting                      /
//                          1.0.2\Projects\zstack\ZLL\SampleApp\CC253x\..\..\ /
//                          ..\..\..\Components\stack\nwk\" -I "D:\Texas      /
//                          Instruments\Z-Stack Lighting                      /
//                          1.0.2\Projects\zstack\ZLL\SampleApp\CC253x\..\..\ /
//                          ..\..\..\Components\stack\sapi\" -I "D:\Texas     /
//                          Instruments\Z-Stack Lighting                      /
//                          1.0.2\Projects\zstack\ZLL\SampleApp\CC253x\..\..\ /
//                          ..\..\..\Components\stack\sec\" -I "D:\Texas      /
//                          Instruments\Z-Stack Lighting                      /
//                          1.0.2\Projects\zstack\ZLL\SampleApp\CC253x\..\..\ /
//                          ..\..\..\Components\stack\sys\" -I "D:\Texas      /
//                          Instruments\Z-Stack Lighting                      /
//                          1.0.2\Projects\zstack\ZLL\SampleApp\CC253x\..\..\ /
//                          ..\..\..\Components\stack\zcl\" -I "D:\Texas      /
//                          Instruments\Z-Stack Lighting                      /
//                          1.0.2\Projects\zstack\ZLL\SampleApp\CC253x\..\..\ /
//                          ..\..\..\Components\stack\zdo\" -I "D:\Texas      /
//                          Instruments\Z-Stack Lighting                      /
//                          1.0.2\Projects\zstack\ZLL\SampleApp\CC253x\..\..\ /
//                          ..\..\..\Components\zmac\" -I "D:\Texas           /
//                          Instruments\Z-Stack Lighting                      /
//                          1.0.2\Projects\zstack\ZLL\SampleApp\CC253x\..\..\ /
//                          ..\..\..\Components\zmac\f8w\" -Ohz               /
//                          --require_prototypes                              /
//    List file          =  D:\Texas Instruments\Z-Stack Lighting             /
//                          1.0.2\Projects\zstack\ZLL\SampleApp\CC253x\Bridge /
//                          EB-Pro\List\MT_AF.s51                             /
//                                                                            /
//                                                                            /
///////////////////////////////////////////////////////////////////////////////

        NAME MT_AF

        RTMODEL "__SystemLibrary", "CLib"
        RTMODEL "__calling_convention", "xdata_reentrant"
        RTMODEL "__code_model", "banked"
        RTMODEL "__core", "plain"
        RTMODEL "__data_model", "large"
        RTMODEL "__dptr_size", "16"
        RTMODEL "__extended_stack", "disabled"
        RTMODEL "__location_for_constants", "data"
        RTMODEL "__number_of_dptrs", "1"
        RTMODEL "__rt_version", "1"

        RSEG DOVERLAY:DATA:NOROOT(0)
        RSEG IOVERLAY:IDATA:NOROOT(0)
        RSEG ISTACK:IDATA:NOROOT(0)
        RSEG PSTACK:XDATA:NOROOT(0)
        RSEG XSTACK:XDATA:NOROOT(0)

        EXTERN ?ALLOC_XSTACK8
        EXTERN ?BANKED_ENTER_XDATA
        EXTERN ?BANKED_LEAVE_XDATA
        EXTERN ?BDISPATCH
        EXTERN ?BRET
        EXTERN ?DEALLOC_XSTACK8
        EXTERN ?L_ADD
        EXTERN ?L_EQ_X
        EXTERN ?L_MOV_X
        EXTERN ?L_SHL
        EXTERN ?MOVE_LONG8_XDATA_XDATA
        EXTERN ?PUSH_XSTACK8_X_FOUR
        EXTERN ?PUSH_XSTACK8_X_TWO
        EXTERN ?PUSH_XSTACK_I_ONE
        EXTERN ?PUSH_XSTACK_I_THREE
        EXTERN ?PUSH_XSTACK_I_TWO
        EXTERN ?UL_SHR
        EXTERN ?V0
        EXTERN ?XLOAD_R2345
        EXTERN ?XSP
        EXTERN ?XSTACK_DISP0_8
        EXTERN ?XSTORE_R2345
        EXTERN __INIT_XDATA_Z

        PUBLIC ??MT_AfCommandProcessing?relay
        FUNCTION ??MT_AfCommandProcessing?relay,0203H
        PUBLIC ??MT_AfDataConfirm?relay
        FUNCTION ??MT_AfDataConfirm?relay,0203H
        PUBLIC ??MT_AfDataRequest?relay
        FUNCTION ??MT_AfDataRequest?relay,0203H
        PUBLIC ??MT_AfDataRequestSrcRtg?relay
        FUNCTION ??MT_AfDataRequestSrcRtg?relay,0203H
        FUNCTION ??MT_AfDataRetrieve?relay,0203H
        FUNCTION ??MT_AfDataStore?relay,0203H
        PUBLIC ??MT_AfDelete?relay
        FUNCTION ??MT_AfDelete?relay,0203H
        PUBLIC ??MT_AfExec?relay
        FUNCTION ??MT_AfExec?relay,0203H
        PUBLIC ??MT_AfIncomingMsg?relay
        FUNCTION ??MT_AfIncomingMsg?relay,0203H
        FUNCTION ??MT_AfInterPanCtl?relay,0203H
        PUBLIC ??MT_AfReflectError?relay
        FUNCTION ??MT_AfReflectError?relay,0203H
        PUBLIC ??MT_AfRegister?relay
        FUNCTION ??MT_AfRegister?relay,0203H
        PUBLIC MT_AfCommandProcessing
        FUNCTION MT_AfCommandProcessing,021203H
        ARGFRAME XSTACK, 0, STACK
        LOCFRAME ISTACK, 2, STACK
        LOCFRAME XSTACK, 15, STACK
        PUBLIC MT_AfDataConfirm
        FUNCTION MT_AfDataConfirm,021203H
        ARGFRAME XSTACK, 0, STACK
        LOCFRAME ISTACK, 3, STACK
        LOCFRAME XSTACK, 3, STACK
        PUBLIC MT_AfDataRequest
        FUNCTION MT_AfDataRequest,021203H
        ARGFRAME XSTACK, 15, STACK
        ARGFRAME IOVERLAY, 0, STATIC
        ARGFRAME DOVERLAY, 0, STATIC
        LOCFRAME ISTACK, 1, STACK
        LOCFRAME XSTACK, 45, STACK
        PUBLIC MT_AfDataRequestSrcRtg
        FUNCTION MT_AfDataRequestSrcRtg,021203H
        ARGFRAME XSTACK, 15, STACK
        ARGFRAME IOVERLAY, 0, STATIC
        ARGFRAME DOVERLAY, 0, STATIC
        LOCFRAME ISTACK, 1, STACK
        LOCFRAME XSTACK, 48, STACK
        FUNCTION MT_AfDataRetrieve,021203H
        ARGFRAME XSTACK, 15, STACK
        ARGFRAME IOVERLAY, 0, STATIC
        ARGFRAME DOVERLAY, 0, STATIC
        LOCFRAME ISTACK, 1, STACK
        LOCFRAME XSTACK, 23, STACK
        FUNCTION MT_AfDataStore,021203H
        ARGFRAME XSTACK, 15, STACK
        ARGFRAME IOVERLAY, 0, STATIC
        ARGFRAME DOVERLAY, 0, STATIC
        LOCFRAME ISTACK, 1, STACK
        LOCFRAME XSTACK, 24, STACK
        PUBLIC MT_AfDelete
        FUNCTION MT_AfDelete,021203H
        ARGFRAME XSTACK, 15, STACK
        ARGFRAME IOVERLAY, 0, STATIC
        ARGFRAME DOVERLAY, 0, STATIC
        LOCFRAME ISTACK, 1, STACK
        LOCFRAME XSTACK, 10, STACK
        PUBLIC MT_AfExec
        FUNCTION MT_AfExec,021203H
        ARGFRAME XSTACK, 0, STACK
        LOCFRAME XSTACK, 13, STACK
        PUBLIC MT_AfIncomingMsg
        FUNCTION MT_AfIncomingMsg,021203H
        ARGFRAME XSTACK, 0, STACK
        LOCFRAME ISTACK, 1, STACK
        LOCFRAME XSTACK, 31, STACK
        FUNCTION MT_AfInterPanCtl,021203H
        ARGFRAME XSTACK, 15, STACK
        ARGFRAME IOVERLAY, 0, STATIC
        ARGFRAME DOVERLAY, 0, STATIC
        LOCFRAME ISTACK, 1, STACK
        LOCFRAME XSTACK, 12, STACK
        PUBLIC MT_AfReflectError
        FUNCTION MT_AfReflectError,021203H
        ARGFRAME XSTACK, 0, STACK
        LOCFRAME ISTACK, 3, STACK
        LOCFRAME XSTACK, 6, STACK
        PUBLIC MT_AfRegister
        FUNCTION MT_AfRegister,021203H
        ARGFRAME XSTACK, 15, STACK
        ARGFRAME IOVERLAY, 0, STATIC
        ARGFRAME DOVERLAY, 0, STATIC
        LOCFRAME ISTACK, 1, STACK
        LOCFRAME XSTACK, 15, STACK
        PUBWEAK __Constant_3e8
        PUBLIC pMtAfDataReq
        PUBLIC pMtAfInMsgList
        
          CFI Names cfiNames0
          CFI StackFrame CFA_SP SP IDATA
          CFI StackFrame CFA_PSP16 PSP16 XDATA
          CFI StackFrame CFA_XSP16 XSP16 XDATA
          CFI StaticOverlayFrame CFA_IOVERLAY IOVERLAY
          CFI StaticOverlayFrame CFA_DOVERLAY DOVERLAY
          CFI Resource `PSW.CY`:1, `B.BR0`:1, `B.BR1`:1, `B.BR2`:1, `B.BR3`:1
          CFI Resource `B.BR4`:1, `B.BR5`:1, `B.BR6`:1, `B.BR7`:1, `VB.BR8`:1
          CFI Resource `VB.BR9`:1, `VB.BR10`:1, `VB.BR11`:1, `VB.BR12`:1
          CFI Resource `VB.BR13`:1, `VB.BR14`:1, `VB.BR15`:1, VB:8, B:8, A:8
          CFI Resource PSW:8, DPL0:8, DPH0:8, R0:8, R1:8, R2:8, R3:8, R4:8, R5:8
          CFI Resource R6:8, R7:8, V0:8, V1:8, V2:8, V3:8, V4:8, V5:8, V6:8, V7:8
          CFI Resource V8:8, V9:8, V10:8, V11:8, V12:8, V13:8, V14:8, V15:8, SP:8
          CFI Resource PSPH:8, PSPL:8, PSP16:16, XSPH:8, XSPL:8, XSP16:16
          CFI VirtualResource ?RET:24
          CFI Resource ?BRET_EXT:8
          CFI VirtualResource ?RET_HIGH:8, ?RET_LOW:8
          CFI ResourceParts PSP16 PSPH, PSPL
          CFI ResourceParts XSP16 XSPH, XSPL
          CFI ResourceParts ?RET ?BRET_EXT, ?RET_HIGH, ?RET_LOW
          CFI EndNames cfiNames0
        
          CFI Common cfiCommon0 Using cfiNames0
          CFI CodeAlign 1
          CFI DataAlign -1
          CFI ReturnAddress ?RET CODE
          CFI CFA_DOVERLAY Used
          CFI CFA_IOVERLAY Used
          CFI CFA_SP SP+-3
          CFI CFA_PSP16 PSP16+0
          CFI CFA_XSP16 XSP16+0
          CFI `PSW.CY` SameValue
          CFI `B.BR0` SameValue
          CFI `B.BR1` SameValue
          CFI `B.BR2` SameValue
          CFI `B.BR3` SameValue
          CFI `B.BR4` SameValue
          CFI `B.BR5` SameValue
          CFI `B.BR6` SameValue
          CFI `B.BR7` SameValue
          CFI `VB.BR8` SameValue
          CFI `VB.BR9` SameValue
          CFI `VB.BR10` SameValue
          CFI `VB.BR11` SameValue
          CFI `VB.BR12` SameValue
          CFI `VB.BR13` SameValue
          CFI `VB.BR14` SameValue
          CFI `VB.BR15` SameValue
          CFI VB SameValue
          CFI B Undefined
          CFI A Undefined
          CFI PSW SameValue
          CFI DPL0 SameValue
          CFI DPH0 SameValue
          CFI R0 Undefined
          CFI R1 Undefined
          CFI R2 Undefined
          CFI R3 Undefined
          CFI R4 Undefined
          CFI R5 Undefined
          CFI R6 SameValue
          CFI R7 SameValue
          CFI V0 SameValue
          CFI V1 SameValue
          CFI V2 SameValue
          CFI V3 SameValue
          CFI V4 SameValue
          CFI V5 SameValue
          CFI V6 SameValue
          CFI V7 SameValue
          CFI V8 SameValue
          CFI V9 SameValue
          CFI V10 SameValue
          CFI V11 SameValue
          CFI V12 SameValue
          CFI V13 SameValue
          CFI V14 SameValue
          CFI V15 SameValue
          CFI PSPH Undefined
          CFI PSPL Undefined
          CFI XSPH Undefined
          CFI XSPL Undefined
          CFI ?RET Concat
          CFI ?BRET_EXT Frame(CFA_SP, 3)
          CFI ?RET_HIGH Frame(CFA_SP, 2)
          CFI ?RET_LOW Frame(CFA_SP, 1)
          CFI EndCommon cfiCommon0
        
        
          CFI Common cfiCommon1 Using cfiNames0
          CFI CodeAlign 1
          CFI DataAlign -1
          CFI ReturnAddress ?RET CODE
          CFI CFA_DOVERLAY Used
          CFI CFA_IOVERLAY Used
          CFI CFA_SP SP+-2
          CFI CFA_PSP16 PSP16+0
          CFI CFA_XSP16 XSP16+0
          CFI `PSW.CY` SameValue
          CFI `B.BR0` SameValue
          CFI `B.BR1` SameValue
          CFI `B.BR2` SameValue
          CFI `B.BR3` SameValue
          CFI `B.BR4` SameValue
          CFI `B.BR5` SameValue
          CFI `B.BR6` SameValue
          CFI `B.BR7` SameValue
          CFI `VB.BR8` SameValue
          CFI `VB.BR9` SameValue
          CFI `VB.BR10` SameValue
          CFI `VB.BR11` SameValue
          CFI `VB.BR12` SameValue
          CFI `VB.BR13` SameValue
          CFI `VB.BR14` SameValue
          CFI `VB.BR15` SameValue
          CFI VB SameValue
          CFI B SameValue
          CFI A SameValue
          CFI PSW SameValue
          CFI DPL0 SameValue
          CFI DPH0 SameValue
          CFI R0 SameValue
          CFI R1 SameValue
          CFI R2 SameValue
          CFI R3 SameValue
          CFI R4 SameValue
          CFI R5 SameValue
          CFI R6 SameValue
          CFI R7 SameValue
          CFI V0 SameValue
          CFI V1 SameValue
          CFI V2 SameValue
          CFI V3 SameValue
          CFI V4 SameValue
          CFI V5 SameValue
          CFI V6 SameValue
          CFI V7 SameValue
          CFI V8 SameValue
          CFI V9 SameValue
          CFI V10 SameValue
          CFI V11 SameValue
          CFI V12 SameValue
          CFI V13 SameValue
          CFI V14 SameValue
          CFI V15 SameValue
          CFI PSPH Undefined
          CFI PSPL Undefined
          CFI XSPH Undefined
          CFI XSPL Undefined
          CFI ?RET Concat
          CFI ?BRET_EXT SameValue
          CFI ?RET_HIGH Frame(CFA_SP, 2)
          CFI ?RET_LOW Frame(CFA_SP, 1)
          CFI EndCommon cfiCommon1
        
AF_DataRequest      SYMBOL "AF_DataRequest"
??AF_DataRequest?relay SYMBOL "?relay", AF_DataRequest
AF_DataRequestSrcRtg SYMBOL "AF_DataRequestSrcRtg"
??AF_DataRequestSrcRtg?relay SYMBOL "?relay", AF_DataRequestSrcRtg
MT_BuildAndSendZToolResponse SYMBOL "MT_BuildAndSendZToolResponse"
??MT_BuildAndSendZToolResponse?relay SYMBOL "?relay", MT_BuildAndSendZToolResponse
MT_BuildEndpointDesc SYMBOL "MT_BuildEndpointDesc"
??MT_BuildEndpointDesc?relay SYMBOL "?relay", MT_BuildEndpointDesc
StubAPS_InterPan    SYMBOL "StubAPS_InterPan"
??StubAPS_InterPan?relay SYMBOL "?relay", StubAPS_InterPan
StubAPS_RegisterApp SYMBOL "StubAPS_RegisterApp"
??StubAPS_RegisterApp?relay SYMBOL "?relay", StubAPS_RegisterApp
StubAPS_SetInterPanChannel SYMBOL "StubAPS_SetInterPanChannel"
??StubAPS_SetInterPanChannel?relay SYMBOL "?relay", StubAPS_SetInterPanChannel
StubAPS_SetIntraPanChannel SYMBOL "StubAPS_SetIntraPanChannel"
??StubAPS_SetIntraPanChannel?relay SYMBOL "?relay", StubAPS_SetIntraPanChannel
afAPSF_ConfigSet    SYMBOL "afAPSF_ConfigSet"
??afAPSF_ConfigSet?relay SYMBOL "?relay", afAPSF_ConfigSet
afDelete            SYMBOL "afDelete"
??afDelete?relay    SYMBOL "?relay", afDelete
afFindEndPointDesc  SYMBOL "afFindEndPointDesc"
??afFindEndPointDesc?relay SYMBOL "?relay", afFindEndPointDesc
afRegister          SYMBOL "afRegister"
??afRegister?relay  SYMBOL "?relay", afRegister
osal_mem_alloc      SYMBOL "osal_mem_alloc"
??osal_mem_alloc?relay SYMBOL "?relay", osal_mem_alloc
osal_mem_free       SYMBOL "osal_mem_free"
??osal_mem_free?relay SYMBOL "?relay", osal_mem_free
osal_memcpy         SYMBOL "osal_memcpy"
??osal_memcpy?relay SYMBOL "?relay", osal_memcpy
osal_memset         SYMBOL "osal_memset"
??osal_memset?relay SYMBOL "?relay", osal_memset
osal_set_event      SYMBOL "osal_set_event"
??osal_set_event?relay SYMBOL "?relay", osal_set_event
osal_start_timerEx  SYMBOL "osal_start_timerEx"
??osal_start_timerEx?relay SYMBOL "?relay", osal_start_timerEx
MT_AfCommandProcessing SYMBOL "MT_AfCommandProcessing"
??MT_AfCommandProcessing?relay SYMBOL "?relay", MT_AfCommandProcessing
MT_AfDataConfirm    SYMBOL "MT_AfDataConfirm"
??MT_AfDataConfirm?relay SYMBOL "?relay", MT_AfDataConfirm
MT_AfDataRequest    SYMBOL "MT_AfDataRequest"
??MT_AfDataRequest?relay SYMBOL "?relay", MT_AfDataRequest
MT_AfDataRequestSrcRtg SYMBOL "MT_AfDataRequestSrcRtg"
??MT_AfDataRequestSrcRtg?relay SYMBOL "?relay", MT_AfDataRequestSrcRtg
MT_AfDelete         SYMBOL "MT_AfDelete"
??MT_AfDelete?relay SYMBOL "?relay", MT_AfDelete
MT_AfExec           SYMBOL "MT_AfExec"
??MT_AfExec?relay   SYMBOL "?relay", MT_AfExec
MT_AfIncomingMsg    SYMBOL "MT_AfIncomingMsg"
??MT_AfIncomingMsg?relay SYMBOL "?relay", MT_AfIncomingMsg
MT_AfReflectError   SYMBOL "MT_AfReflectError"
??MT_AfReflectError?relay SYMBOL "?relay", MT_AfReflectError
MT_AfRegister       SYMBOL "MT_AfRegister"
??MT_AfRegister?relay SYMBOL "?relay", MT_AfRegister

        EXTERN ??AF_DataRequest?relay
        FUNCTION ??AF_DataRequest?relay,00H
        EXTERN ??AF_DataRequestSrcRtg?relay
        FUNCTION ??AF_DataRequestSrcRtg?relay,00H
        EXTERN ??MT_BuildAndSendZToolResponse?relay
        FUNCTION ??MT_BuildAndSendZToolResponse?relay,00H
        EXTERN ??MT_BuildEndpointDesc?relay
        FUNCTION ??MT_BuildEndpointDesc?relay,00H
        EXTERN ??StubAPS_InterPan?relay
        FUNCTION ??StubAPS_InterPan?relay,00H
        EXTERN ??StubAPS_RegisterApp?relay
        FUNCTION ??StubAPS_RegisterApp?relay,00H
        EXTERN ??StubAPS_SetInterPanChannel?relay
        FUNCTION ??StubAPS_SetInterPanChannel?relay,00H
        EXTERN ??StubAPS_SetIntraPanChannel?relay
        FUNCTION ??StubAPS_SetIntraPanChannel?relay,00H
        EXTERN ??afAPSF_ConfigSet?relay
        FUNCTION ??afAPSF_ConfigSet?relay,00H
        EXTERN ??afDelete?relay
        FUNCTION ??afDelete?relay,00H
        EXTERN ??afFindEndPointDesc?relay
        FUNCTION ??afFindEndPointDesc?relay,00H
        EXTERN ??afRegister?relay
        FUNCTION ??afRegister?relay,00H
        EXTERN ??osal_mem_alloc?relay
        FUNCTION ??osal_mem_alloc?relay,00H
        EXTERN ??osal_mem_free?relay
        FUNCTION ??osal_mem_free?relay,00H
        EXTERN ??osal_memcpy?relay
        FUNCTION ??osal_memcpy?relay,00H
        EXTERN ??osal_memset?relay
        FUNCTION ??osal_memset?relay,00H
        EXTERN ??osal_set_event?relay
        FUNCTION ??osal_set_event?relay,00H
        EXTERN ??osal_start_timerEx?relay
        FUNCTION ??osal_start_timerEx?relay,00H
        EXTERN AF_DataRequest
        FUNCTION AF_DataRequest,0202H
        ARGFRAME ISTACK, 0, STACK
        ARGFRAME PSTACK, 0, STACK
        ARGFRAME XSTACK, 45, STACK
        ARGFRAME IOVERLAY, 0, STATIC
        ARGFRAME DOVERLAY, 0, STATIC
        EXTERN AF_DataRequestSrcRtg
        FUNCTION AF_DataRequestSrcRtg,0202H
        ARGFRAME ISTACK, 0, STACK
        ARGFRAME PSTACK, 0, STACK
        ARGFRAME XSTACK, 48, STACK
        ARGFRAME IOVERLAY, 0, STATIC
        ARGFRAME DOVERLAY, 0, STATIC
        EXTERN MT_BuildAndSendZToolResponse
        FUNCTION MT_BuildAndSendZToolResponse,0202H
        ARGFRAME ISTACK, 2, STACK
        ARGFRAME PSTACK, 0, STACK
        ARGFRAME XSTACK, 36, STACK
        ARGFRAME IOVERLAY, 0, STATIC
        ARGFRAME DOVERLAY, 0, STATIC
        EXTERN MT_BuildEndpointDesc
        FUNCTION MT_BuildEndpointDesc,0202H
        ARGFRAME ISTACK, 0, STACK
        ARGFRAME PSTACK, 0, STACK
        ARGFRAME XSTACK, 15, STACK
        ARGFRAME IOVERLAY, 0, STATIC
        ARGFRAME DOVERLAY, 0, STATIC
        EXTERN MT_TaskID
        EXTERN StubAPS_InterPan
        FUNCTION StubAPS_InterPan,0202H
        ARGFRAME ISTACK, 0, STACK
        ARGFRAME PSTACK, 0, STACK
        ARGFRAME XSTACK, 27, STACK
        ARGFRAME IOVERLAY, 0, STATIC
        ARGFRAME DOVERLAY, 0, STATIC
        EXTERN StubAPS_RegisterApp
        FUNCTION StubAPS_RegisterApp,0202H
        ARGFRAME ISTACK, 0, STACK
        ARGFRAME PSTACK, 0, STACK
        ARGFRAME XSTACK, 12, STACK
        ARGFRAME IOVERLAY, 0, STATIC
        ARGFRAME DOVERLAY, 0, STATIC
        EXTERN StubAPS_SetInterPanChannel
        FUNCTION StubAPS_SetInterPanChannel,0202H
        ARGFRAME ISTACK, 0, STACK
        ARGFRAME PSTACK, 0, STACK
        ARGFRAME XSTACK, 12, STACK
        ARGFRAME IOVERLAY, 0, STATIC
        ARGFRAME DOVERLAY, 0, STATIC
        EXTERN StubAPS_SetIntraPanChannel
        FUNCTION StubAPS_SetIntraPanChannel,0202H
        ARGFRAME ISTACK, 0, STACK
        ARGFRAME PSTACK, 0, STACK
        ARGFRAME XSTACK, 12, STACK
        ARGFRAME IOVERLAY, 0, STATIC
        ARGFRAME DOVERLAY, 0, STATIC
        EXTERN afAPSF_ConfigSet
        FUNCTION afAPSF_ConfigSet,0202H
        ARGFRAME ISTACK, 0, STACK
        ARGFRAME PSTACK, 0, STACK
        ARGFRAME XSTACK, 15, STACK
        ARGFRAME IOVERLAY, 0, STATIC
        ARGFRAME DOVERLAY, 0, STATIC
        EXTERN afDelete
        FUNCTION afDelete,0202H
        ARGFRAME ISTACK, 0, STACK
        ARGFRAME PSTACK, 0, STACK
        ARGFRAME XSTACK, 10, STACK
        ARGFRAME IOVERLAY, 0, STATIC
        ARGFRAME DOVERLAY, 0, STATIC
        EXTERN afFindEndPointDesc
        FUNCTION afFindEndPointDesc,0202H
        ARGFRAME ISTACK, 0, STACK
        ARGFRAME PSTACK, 0, STACK
        ARGFRAME XSTACK, 36, STACK
        ARGFRAME IOVERLAY, 0, STATIC
        ARGFRAME DOVERLAY, 0, STATIC
        EXTERN afRegister
        FUNCTION afRegister,0202H
        ARGFRAME ISTACK, 0, STACK
        ARGFRAME PSTACK, 0, STACK
        ARGFRAME XSTACK, 15, STACK
        ARGFRAME IOVERLAY, 0, STATIC
        ARGFRAME DOVERLAY, 0, STATIC
        EXTERN osal_mem_alloc
        FUNCTION osal_mem_alloc,0202H
        ARGFRAME ISTACK, 0, STACK
        ARGFRAME PSTACK, 0, STACK
        ARGFRAME XSTACK, 36, STACK
        ARGFRAME IOVERLAY, 0, STATIC
        ARGFRAME DOVERLAY, 0, STATIC
        EXTERN osal_mem_free
        FUNCTION osal_mem_free,0202H
        ARGFRAME ISTACK, 0, STACK
        ARGFRAME PSTACK, 0, STACK
        ARGFRAME XSTACK, 36, STACK
        ARGFRAME IOVERLAY, 0, STATIC
        ARGFRAME DOVERLAY, 0, STATIC
        EXTERN osal_memcpy
        FUNCTION osal_memcpy,0202H
        ARGFRAME ISTACK, 0, STACK
        ARGFRAME PSTACK, 0, STACK
        ARGFRAME XSTACK, 39, STACK
        ARGFRAME IOVERLAY, 0, STATIC
        ARGFRAME DOVERLAY, 0, STATIC
        EXTERN osal_memset
        FUNCTION osal_memset,0202H
        ARGFRAME ISTACK, 0, STACK
        ARGFRAME PSTACK, 0, STACK
        ARGFRAME XSTACK, 36, STACK
        ARGFRAME IOVERLAY, 0, STATIC
        ARGFRAME DOVERLAY, 0, STATIC
        EXTERN osal_set_event
        FUNCTION osal_set_event,0202H
        ARGFRAME ISTACK, 0, STACK
        ARGFRAME PSTACK, 0, STACK
        ARGFRAME XSTACK, 36, STACK
        ARGFRAME IOVERLAY, 0, STATIC
        ARGFRAME DOVERLAY, 0, STATIC
        EXTERN osal_start_timerEx
        FUNCTION osal_start_timerEx,0202H
        ARGFRAME ISTACK, 0, STACK
        ARGFRAME PSTACK, 0, STACK
        ARGFRAME XSTACK, 40, STACK
        ARGFRAME IOVERLAY, 0, STATIC
        ARGFRAME DOVERLAY, 0, STATIC

// D:\Texas Instruments\Z-Stack Lighting 1.0.2\Components\mt\MT_AF.c
//    1 /**************************************************************************************************
//    2   Filename:       MT_AF.c
//    3   Revised:        $Date: 2013-09-12 15:03:27 -0700 (Thu, 12 Sep 2013) $
//    4   Revision:       $Revision: 35295 $
//    5 
//    6 
//    7   Description:    MonitorTest functions for the AF layer.
//    8 
//    9 
//   10   Copyright 2007-2012 Texas Instruments Incorporated. All rights reserved.
//   11 
//   12   IMPORTANT: Your use of this Software is limited to those specific rights
//   13   granted under the terms of a software license agreement between the user
//   14   who downloaded the software, his/her employer (which must be your employer)
//   15   and Texas Instruments Incorporated (the "License").  You may not use this
//   16   Software unless you agree to abide by the terms of the License. The License
//   17   limits your use, and you acknowledge, that the Software may not be modified,
//   18   copied or distributed unless embedded on a Texas Instruments microcontroller
//   19   or used solely and exclusively in conjunction with a Texas Instruments radio
//   20   frequency transceiver, which is integrated into your product.  Other than for
//   21   the foregoing purpose, you may not use, reproduce, copy, prepare derivative
//   22   works of, modify, distribute, perform, display or sell this Software and/or
//   23   its documentation for any purpose.
//   24 
//   25   YOU FURTHER ACKNOWLEDGE AND AGREE THAT THE SOFTWARE AND DOCUMENTATION ARE
//   26   PROVIDED “AS IS” WITHOUT WARRANTY OF ANY KIND, EITHER EXPRESS OR IMPLIED,
//   27   INCLUDING WITHOUT LIMITATION, ANY WARRANTY OF MERCHANTABILITY, TITLE,
//   28   NON-INFRINGEMENT AND FITNESS FOR A PARTICULAR PURPOSE. IN NO EVENT SHALL
//   29   TEXAS INSTRUMENTS OR ITS LICENSORS BE LIABLE OR OBLIGATED UNDER CONTRACT,
//   30   NEGLIGENCE, STRICT LIABILITY, CONTRIBUTION, BREACH OF WARRANTY, OR OTHER
//   31   LEGAL EQUITABLE THEORY ANY DIRECT OR INDIRECT DAMAGES OR EXPENSES
//   32   INCLUDING BUT NOT LIMITED TO ANY INCIDENTAL, SPECIAL, INDIRECT, PUNITIVE
//   33   OR CONSEQUENTIAL DAMAGES, LOST PROFITS OR LOST DATA, COST OF PROCUREMENT
//   34   OF SUBSTITUTE GOODS, TECHNOLOGY, SERVICES, OR ANY CLAIMS BY THIRD PARTIES
//   35   (INCLUDING BUT NOT LIMITED TO ANY DEFENSE THEREOF), OR OTHER SIMILAR COSTS.
//   36 
//   37   Should you have any questions regarding your right to use this Software,
//   38   contact Texas Instruments Incorporated at www.TI.com.
//   39 
//   40 **************************************************************************************************/
//   41 
//   42 /* ------------------------------------------------------------------------------------------------
//   43  *                                          Includes
//   44  * ------------------------------------------------------------------------------------------------
//   45  */
//   46 #include "ZComDef.h"
//   47 #include "OSAL.h"
//   48 #include "MT.h"
//   49 #include "MT_AF.h"
//   50 #include "MT_ZDO.h"
//   51 #include "nwk.h"
//   52 #include "OnBoard.h"
//   53 #include "MT_UART.h"
//   54 
//   55 #if defined INTER_PAN
//   56 #include "stub_aps.h"
//   57 #endif
//   58 
//   59 /* ------------------------------------------------------------------------------------------------
//   60  *                                          Constants
//   61  * ------------------------------------------------------------------------------------------------
//   62  */
//   63 
//   64 #if !defined MT_AF_EXEC_CNT
//   65 #define MT_AF_EXEC_CNT  15
//   66 #endif
//   67 
//   68 #if !defined MT_AF_EXEC_DLY
//   69 #define MT_AF_EXEC_DLY  1000
//   70 #endif
//   71 
//   72 /* ------------------------------------------------------------------------------------------------
//   73  *                                           Typedefs
//   74  * ------------------------------------------------------------------------------------------------
//   75  */
//   76 
//   77 typedef struct
//   78 {
//   79   uint8 *data;
//   80   afAddrType_t dstAddr;
//   81   endPointDesc_t *epDesc;
//   82   uint16 cId;
//   83   uint16 dataLen;
//   84   uint8 transId;
//   85   uint8 txOpts;
//   86   uint8 radius;
//   87   uint8 tick;
//   88 } mtAfDataReq_t;
//   89 
//   90 typedef struct _mtAfInMsgList_t
//   91 {
//   92   struct _mtAfInMsgList_t *next;
//   93   uint8 *data;
//   94   uint32 timestamp;         // Receipt timestamp from MAC.
//   95   uint8 tick;
//   96 } mtAfInMsgList_t;
//   97 
//   98 /* ------------------------------------------------------------------------------------------------
//   99  *                                        Local Variables
//  100  * ------------------------------------------------------------------------------------------------
//  101  */
//  102 

        RSEG XDATA_Z:XDATA:NOROOT(0)
        DATA16
//  103 mtAfInMsgList_t *pMtAfInMsgList = NULL;
pMtAfInMsgList:
        DS 2
        REQUIRE __INIT_XDATA_Z

        RSEG XDATA_Z:XDATA:NOROOT(0)
        DATA16
//  104 mtAfDataReq_t *pMtAfDataReq = NULL;
pMtAfDataReq:
        DS 2
        REQUIRE __INIT_XDATA_Z
//  105 
//  106 /* ------------------------------------------------------------------------------------------------
//  107  *                                        Global Variables
//  108  * ------------------------------------------------------------------------------------------------
//  109  */
//  110 
//  111 #if defined ( MT_AF_CB_FUNC )
//  112 uint16 _afCallbackSub;
//  113 #endif
//  114 
//  115 /* ------------------------------------------------------------------------------------------------
//  116  *                                        Local Functions
//  117  * ------------------------------------------------------------------------------------------------
//  118  */
//  119 
//  120 void MT_AfRegister(uint8 *pBuf);
//  121 void MT_AfDelete(uint8 *pBuf);
//  122 void MT_AfDataRequest(uint8 *pBuf);
//  123 
//  124 #if defined ( ZIGBEE_SOURCE_ROUTING )
//  125 void MT_AfDataRequestSrcRtg(uint8 *pBuf);
//  126 #endif
//  127 
//  128 #if defined INTER_PAN
//  129 static void MT_AfInterPanCtl(uint8 *pBuf);
//  130 #endif
//  131 
//  132 static void MT_AfDataRetrieve(uint8 *pBuf);
//  133 static void MT_AfDataStore(uint8 *pBuf);
//  134 static void MT_AfAPSF_ConfigSet(uint8 *pBuf);
//  135 static void MT_AfAPSF_ConfigGet(uint8 *pBuf);
//  136 
//  137 
//  138 /**************************************************************************************************
//  139  * @fn          MT_AfExec
//  140  *
//  141  * @brief       This function is invoked by an MT timer event.
//  142  *
//  143  * input parameters
//  144  *
//  145  * None.
//  146  *
//  147  * output parameters
//  148  *
//  149  * None.
//  150  *
//  151  * @return      None.
//  152  **************************************************************************************************
//  153  */

        RSEG BANKED_CODE:CODE:NOROOT(0)
//  154 void MT_AfExec(void)
MT_AfExec:
          CFI Block cfiBlock0 Using cfiCommon0
          CFI Function MT_AfExec
        CODE
//  155 {
        FUNCALL MT_AfExec, osal_mem_free
        LOCFRAME ISTACK, 0, STACK
        LOCFRAME PSTACK, 0, STACK
        LOCFRAME XSTACK, 9, STACK
        LOCFRAME IOVERLAY, 0, STATIC
        LOCFRAME DOVERLAY, 0, STATIC
        ARGFRAME ISTACK, 0, STACK
        ARGFRAME PSTACK, 0, STACK
        ARGFRAME XSTACK, 9, STACK
        ARGFRAME IOVERLAY, 0, STATIC
        ARGFRAME DOVERLAY, 0, STATIC
        FUNCALL MT_AfExec, osal_mem_free
        LOCFRAME ISTACK, 0, STACK
        LOCFRAME PSTACK, 0, STACK
        LOCFRAME XSTACK, 9, STACK
        LOCFRAME IOVERLAY, 0, STATIC
        LOCFRAME DOVERLAY, 0, STATIC
        ARGFRAME ISTACK, 0, STACK
        ARGFRAME PSTACK, 0, STACK
        ARGFRAME XSTACK, 9, STACK
        ARGFRAME IOVERLAY, 0, STATIC
        ARGFRAME DOVERLAY, 0, STATIC
        FUNCALL MT_AfExec, osal_mem_free
        LOCFRAME ISTACK, 0, STACK
        LOCFRAME PSTACK, 0, STACK
        LOCFRAME XSTACK, 9, STACK
        LOCFRAME IOVERLAY, 0, STATIC
        LOCFRAME DOVERLAY, 0, STATIC
        ARGFRAME ISTACK, 0, STACK
        ARGFRAME PSTACK, 0, STACK
        ARGFRAME XSTACK, 9, STACK
        ARGFRAME IOVERLAY, 0, STATIC
        ARGFRAME DOVERLAY, 0, STATIC
        FUNCALL MT_AfExec, osal_start_timerEx
        LOCFRAME ISTACK, 0, STACK
        LOCFRAME PSTACK, 0, STACK
        LOCFRAME XSTACK, 13, STACK
        LOCFRAME IOVERLAY, 0, STATIC
        LOCFRAME DOVERLAY, 0, STATIC
        ARGFRAME ISTACK, 0, STACK
        ARGFRAME PSTACK, 0, STACK
        ARGFRAME XSTACK, 13, STACK
        ARGFRAME IOVERLAY, 0, STATIC
        ARGFRAME DOVERLAY, 0, STATIC
        FUNCALL MT_AfExec, osal_set_event
        LOCFRAME ISTACK, 0, STACK
        LOCFRAME PSTACK, 0, STACK
        LOCFRAME XSTACK, 9, STACK
        LOCFRAME IOVERLAY, 0, STATIC
        LOCFRAME DOVERLAY, 0, STATIC
        ARGFRAME ISTACK, 0, STACK
        ARGFRAME PSTACK, 0, STACK
        ARGFRAME XSTACK, 9, STACK
        ARGFRAME IOVERLAY, 0, STATIC
        ARGFRAME DOVERLAY, 0, STATIC
        MOV     A,#-0x9
        LCALL   ?BANKED_ENTER_XDATA
          CFI R6 load(1, XDATA, add(CFA_XSP16, literal(-9)))
          CFI VB load(1, XDATA, add(CFA_XSP16, literal(-8)))
          CFI V0 load(1, XDATA, add(CFA_XSP16, literal(-7)))
          CFI R7 load(1, XDATA, add(CFA_XSP16, literal(-6)))
          CFI ?RET_LOW load(1, XDATA, add(CFA_XSP16, literal(-5)))
          CFI ?RET_HIGH load(1, XDATA, add(CFA_XSP16, literal(-4)))
          CFI ?BRET_EXT load(1, XDATA, add(CFA_XSP16, literal(-3)))
          CFI DPL0 load(1, XDATA, add(CFA_XSP16, literal(-2)))
          CFI DPH0 load(1, XDATA, add(CFA_XSP16, literal(-1)))
          CFI CFA_SP SP+0
          CFI CFA_XSP16 add(XSP16, 9)
        ; Saved register size: 9
        ; Auto size: 0
//  156   mtAfInMsgList_t *pPrev, *pItem = pMtAfInMsgList;
??MT_AfExec_0:
        MOV     DPTR,#pMtAfInMsgList
        SJMP    ??MT_AfExec_1
//  157 
//  158   while (pItem != NULL)
//  159   {
//  160     if (--(pItem->tick) == 0)
//  161     {
//  162       if (pMtAfInMsgList == pItem)
//  163       {
//  164         pMtAfInMsgList = pItem->next;
//  165         (void)osal_mem_free(pItem);
//  166         pItem = pMtAfInMsgList;
//  167       }
//  168       else
//  169       {
//  170         pPrev->next = pItem->next;
//  171         (void)osal_mem_free(pItem);
//  172         pItem = pPrev->next;
//  173       }
//  174     }
//  175     else
//  176     {
//  177       pPrev = pItem;
??MT_AfExec_2:
        MOV     A,R2
        MOV     R6,A
        MOV     A,R3
        MOV     R7,A
//  178       pItem = pItem->next;
        MOV     DPL,R2
        MOV     DPH,R3
//  179     }
??MT_AfExec_1:
        LCALL   ??Subroutine64_0 & 0xFFFF
??CrossCallReturnLabel_144:
        MOV     A,R2
        ORL     A,R3
        JZ      ??MT_AfExec_3
        MOV     A,R2
        ADD     A,#0x8
        MOV     DPL,A
        MOV     A,R3
        LCALL   ??Subroutine56_0 & 0xFFFF
??CrossCallReturnLabel_95:
        MOVX    A,@DPTR
        DEC     A
        MOVX    @DPTR,A
        JNZ     ??MT_AfExec_2
        LCALL   ?Subroutine43 & 0xFFFF
??CrossCallReturnLabel_141:
        MOV     A,R2
        XRL     A,R0
        JNZ     ??MT_AfExec_4
        MOV     A,R3
        XRL     A,R1
??MT_AfExec_4:
        MOV     DPL,R2
        MOV     DPH,R3
        JNZ     ??MT_AfExec_5
        LCALL   ?Subroutine21 & 0xFFFF
??CrossCallReturnLabel_25:
        LCALL   ?Subroutine32 & 0xFFFF
??CrossCallReturnLabel_44:
        ; Setup parameters for call to function osal_mem_free
        LCALL   ??osal_mem_free?relay
        SJMP    ??MT_AfExec_0
??MT_AfExec_5:
        LCALL   ??Subroutine63_0 & 0xFFFF
??CrossCallReturnLabel_139:
        MOV     DPL,R6
        MOV     DPH,R7
        LCALL   ?Subroutine32 & 0xFFFF
??CrossCallReturnLabel_45:
        ; Setup parameters for call to function osal_mem_free
        LCALL   ??osal_mem_free?relay
        MOV     DPL,R6
        MOV     DPH,R7
        SJMP    ??MT_AfExec_1
//  180   }
//  181 
//  182   if (pMtAfDataReq != NULL)
??MT_AfExec_3:
        LCALL   ?Subroutine5 & 0xFFFF
??CrossCallReturnLabel_109:
        JZ      ??MT_AfExec_6
//  183   {
//  184     if (--(pMtAfDataReq->tick) == 0)
        LCALL   ?Subroutine39 & 0xFFFF
??CrossCallReturnLabel_105:
        MOVX    A,@DPTR
        DEC     A
        LCALL   ?Subroutine10 & 0xFFFF
??CrossCallReturnLabel_7:
        MOVX    A,@DPTR
        JNZ     ??MT_AfExec_6
//  185     {
//  186       (void)osal_mem_free(pMtAfDataReq);
        ; Setup parameters for call to function osal_mem_free
        LCALL   ?Subroutine7 & 0xFFFF
??CrossCallReturnLabel_149:
        LCALL   ??osal_mem_free?relay
//  187       pMtAfDataReq = NULL;
        MOV     DPTR,#pMtAfDataReq
        CLR     A
        MOVX    @DPTR,A
        INC     DPTR
        MOVX    @DPTR,A
//  188     }
//  189   }
//  190 
//  191   if ((pMtAfInMsgList != NULL) || (pMtAfDataReq != NULL))
??MT_AfExec_6:
        MOV     DPTR,#pMtAfInMsgList
        LCALL   ??Subroutine57_0 & 0xFFFF
??CrossCallReturnLabel_107:
        JNZ     ??MT_AfExec_7
        LCALL   ?Subroutine5 & 0xFFFF
??CrossCallReturnLabel_110:
        JZ      ??MT_AfExec_8
//  192   {
//  193     if (ZSuccess != osal_start_timerEx(MT_TaskID, MT_AF_EXEC_EVT, MT_AF_EXEC_DLY))
??MT_AfExec_7:
        ; Setup parameters for call to function osal_start_timerEx
        MOV     DPTR,#__Constant_3e8
        LCALL   ?PUSH_XSTACK8_X_FOUR
          CFI CFA_XSP16 add(XSP16, 13)
        MOV     R2,#0x8
        MOV     R3,#0x0
        MOV     DPTR,#MT_TaskID
        MOVX    A,@DPTR
        MOV     R1,A
        LCALL   ??osal_start_timerEx?relay
        MOV     A,#0x4
        LCALL   ?DEALLOC_XSTACK8
          CFI CFA_XSP16 add(XSP16, 9)
        MOV     A,R1
        JZ      ??MT_AfExec_8
//  194     {
//  195       osal_set_event(MT_TaskID, MT_AF_EXEC_EVT);
        ; Setup parameters for call to function osal_set_event
        MOV     R2,#0x8
        MOV     R3,#0x0
        MOV     DPTR,#MT_TaskID
        MOVX    A,@DPTR
        MOV     R1,A
        LCALL   ??osal_set_event?relay
//  196     }
//  197   }
//  198 }
??MT_AfExec_8:
        LJMP    ??Subroutine53_0 & 0xFFFF
          CFI EndBlock cfiBlock0
//  199 
//  200 /***************************************************************************************************
//  201  * @fn      MT_AfCommandProcessing
//  202  *
//  203  * @brief   Process all the AF commands that are issued by test tool
//  204  *
//  205  * @param   pBuf - pointer to the received buffer
//  206  *
//  207  * @return  status
//  208  ***************************************************************************************************/

        RSEG BANKED_CODE:CODE:NOROOT(0)
//  209 uint8 MT_AfCommandProcessing(uint8 *pBuf)
MT_AfCommandProcessing:
          CFI Block cfiBlock1 Using cfiCommon0
          CFI Function MT_AfCommandProcessing
        CODE
//  210 {
        FUNCALL MT_AfCommandProcessing, MT_AfRegister
        LOCFRAME ISTACK, 0, STACK
        LOCFRAME PSTACK, 0, STACK
        LOCFRAME XSTACK, 15, STACK
        LOCFRAME IOVERLAY, 0, STATIC
        LOCFRAME DOVERLAY, 0, STATIC
        ARGFRAME ISTACK, 0, STACK
        ARGFRAME PSTACK, 0, STACK
        ARGFRAME XSTACK, 15, STACK
        ARGFRAME IOVERLAY, 0, STATIC
        ARGFRAME DOVERLAY, 0, STATIC
        FUNCALL MT_AfCommandProcessing, MT_AfDelete
        LOCFRAME ISTACK, 0, STACK
        LOCFRAME PSTACK, 0, STACK
        LOCFRAME XSTACK, 15, STACK
        LOCFRAME IOVERLAY, 0, STATIC
        LOCFRAME DOVERLAY, 0, STATIC
        ARGFRAME ISTACK, 0, STACK
        ARGFRAME PSTACK, 0, STACK
        ARGFRAME XSTACK, 15, STACK
        ARGFRAME IOVERLAY, 0, STATIC
        ARGFRAME DOVERLAY, 0, STATIC
        FUNCALL MT_AfCommandProcessing, MT_AfDataRequest
        LOCFRAME ISTACK, 0, STACK
        LOCFRAME PSTACK, 0, STACK
        LOCFRAME XSTACK, 15, STACK
        LOCFRAME IOVERLAY, 0, STATIC
        LOCFRAME DOVERLAY, 0, STATIC
        ARGFRAME ISTACK, 0, STACK
        ARGFRAME PSTACK, 0, STACK
        ARGFRAME XSTACK, 15, STACK
        ARGFRAME IOVERLAY, 0, STATIC
        ARGFRAME DOVERLAY, 0, STATIC
        FUNCALL MT_AfCommandProcessing, MT_AfDataRequestSrcRtg
        LOCFRAME ISTACK, 0, STACK
        LOCFRAME PSTACK, 0, STACK
        LOCFRAME XSTACK, 15, STACK
        LOCFRAME IOVERLAY, 0, STATIC
        LOCFRAME DOVERLAY, 0, STATIC
        ARGFRAME ISTACK, 0, STACK
        ARGFRAME PSTACK, 0, STACK
        ARGFRAME XSTACK, 15, STACK
        ARGFRAME IOVERLAY, 0, STATIC
        ARGFRAME DOVERLAY, 0, STATIC
        FUNCALL MT_AfCommandProcessing, MT_AfInterPanCtl
        LOCFRAME ISTACK, 0, STACK
        LOCFRAME PSTACK, 0, STACK
        LOCFRAME XSTACK, 15, STACK
        LOCFRAME IOVERLAY, 0, STATIC
        LOCFRAME DOVERLAY, 0, STATIC
        ARGFRAME ISTACK, 0, STACK
        ARGFRAME PSTACK, 0, STACK
        ARGFRAME XSTACK, 15, STACK
        ARGFRAME IOVERLAY, 0, STATIC
        ARGFRAME DOVERLAY, 0, STATIC
        FUNCALL MT_AfCommandProcessing, MT_AfDataRetrieve
        LOCFRAME ISTACK, 0, STACK
        LOCFRAME PSTACK, 0, STACK
        LOCFRAME XSTACK, 15, STACK
        LOCFRAME IOVERLAY, 0, STATIC
        LOCFRAME DOVERLAY, 0, STATIC
        ARGFRAME ISTACK, 0, STACK
        ARGFRAME PSTACK, 0, STACK
        ARGFRAME XSTACK, 15, STACK
        ARGFRAME IOVERLAY, 0, STATIC
        ARGFRAME DOVERLAY, 0, STATIC
        FUNCALL MT_AfCommandProcessing, MT_AfDataStore
        LOCFRAME ISTACK, 0, STACK
        LOCFRAME PSTACK, 0, STACK
        LOCFRAME XSTACK, 15, STACK
        LOCFRAME IOVERLAY, 0, STATIC
        LOCFRAME DOVERLAY, 0, STATIC
        ARGFRAME ISTACK, 0, STACK
        ARGFRAME PSTACK, 0, STACK
        ARGFRAME XSTACK, 15, STACK
        ARGFRAME IOVERLAY, 0, STATIC
        ARGFRAME DOVERLAY, 0, STATIC
        FUNCALL MT_AfCommandProcessing, afAPSF_ConfigSet
        LOCFRAME ISTACK, 0, STACK
        LOCFRAME PSTACK, 0, STACK
        LOCFRAME XSTACK, 15, STACK
        LOCFRAME IOVERLAY, 0, STATIC
        LOCFRAME DOVERLAY, 0, STATIC
        ARGFRAME ISTACK, 0, STACK
        ARGFRAME PSTACK, 0, STACK
        ARGFRAME XSTACK, 15, STACK
        ARGFRAME IOVERLAY, 0, STATIC
        ARGFRAME DOVERLAY, 0, STATIC
        FUNCALL MT_AfCommandProcessing, MT_BuildAndSendZToolResponse
        LOCFRAME ISTACK, 0, STACK
        LOCFRAME PSTACK, 0, STACK
        LOCFRAME XSTACK, 15, STACK
        LOCFRAME IOVERLAY, 0, STATIC
        LOCFRAME DOVERLAY, 0, STATIC
        ARGFRAME ISTACK, 0, STACK
        ARGFRAME PSTACK, 0, STACK
        ARGFRAME XSTACK, 15, STACK
        ARGFRAME IOVERLAY, 0, STATIC
        ARGFRAME DOVERLAY, 0, STATIC
        FUNCALL MT_AfCommandProcessing, afAPSF_ConfigSet
        LOCFRAME ISTACK, 0, STACK
        LOCFRAME PSTACK, 0, STACK
        LOCFRAME XSTACK, 15, STACK
        LOCFRAME IOVERLAY, 0, STATIC
        LOCFRAME DOVERLAY, 0, STATIC
        ARGFRAME ISTACK, 0, STACK
        ARGFRAME PSTACK, 0, STACK
        ARGFRAME XSTACK, 15, STACK
        ARGFRAME IOVERLAY, 0, STATIC
        ARGFRAME DOVERLAY, 0, STATIC
        FUNCALL MT_AfCommandProcessing, MT_BuildAndSendZToolResponse
        LOCFRAME ISTACK, 0, STACK
        LOCFRAME PSTACK, 0, STACK
        LOCFRAME XSTACK, 15, STACK
        LOCFRAME IOVERLAY, 0, STATIC
        LOCFRAME DOVERLAY, 0, STATIC
        ARGFRAME ISTACK, 0, STACK
        ARGFRAME PSTACK, 0, STACK
        ARGFRAME XSTACK, 15, STACK
        ARGFRAME IOVERLAY, 0, STATIC
        ARGFRAME DOVERLAY, 0, STATIC
        MOV     A,#-0x9
        LCALL   ?BANKED_ENTER_XDATA
          CFI DPH0 load(1, XDATA, add(CFA_XSP16, literal(-1)))
          CFI DPL0 load(1, XDATA, add(CFA_XSP16, literal(-2)))
          CFI ?BRET_EXT load(1, XDATA, add(CFA_XSP16, literal(-3)))
          CFI ?RET_HIGH load(1, XDATA, add(CFA_XSP16, literal(-4)))
          CFI ?RET_LOW load(1, XDATA, add(CFA_XSP16, literal(-5)))
          CFI R7 load(1, XDATA, add(CFA_XSP16, literal(-6)))
          CFI V0 load(1, XDATA, add(CFA_XSP16, literal(-7)))
          CFI VB load(1, XDATA, add(CFA_XSP16, literal(-8)))
          CFI R6 load(1, XDATA, add(CFA_XSP16, literal(-9)))
          CFI CFA_SP SP+0
          CFI CFA_XSP16 add(XSP16, 9)
        ; Saved register size: 9
        ; Auto size: 6
        MOV     A,#-0x6
        LCALL   ?ALLOC_XSTACK8
          CFI CFA_XSP16 add(XSP16, 15)
//  211   uint8 status = MT_RPC_SUCCESS;
        MOV     R6,#0x0
//  212 
//  213   switch (pBuf[MT_RPC_POS_CMD1])
        MOV     A,R2
        ADD     A,#0x3
        LCALL   ?Subroutine25 & 0xFFFF
??CrossCallReturnLabel_29:
        MOVX    A,@DPTR
        JZ      ??MT_AfCommandProcessing_0
        DEC     A
        JZ      ??MT_AfCommandProcessing_1
        DEC     A
        JZ      ??MT_AfCommandProcessing_1
        DEC     A
        JZ      ??MT_AfCommandProcessing_2
        DEC     A
        JZ      ??MT_AfCommandProcessing_3
        ADD     A,#-0xc
        JZ      ??MT_AfCommandProcessing_4
        DEC     A
        JZ      ??MT_AfCommandProcessing_5
        DEC     A
        JZ      ??MT_AfCommandProcessing_6
        DEC     A
        JZ      ??MT_AfCommandProcessing_7
        DEC     A
        JZ      ??MT_AfCommandProcessing_8
        LJMP    ??MT_AfCommandProcessing_9 & 0xFFFF
//  214   {
//  215     case MT_AF_REGISTER:
//  216       MT_AfRegister(pBuf);
??MT_AfCommandProcessing_0:
        ; Setup parameters for call to function MT_AfRegister
        LCALL   ??MT_AfRegister?relay
//  217       break;
        LJMP    ??MT_AfCommandProcessing_10 & 0xFFFF
//  218       
//  219     case MT_AF_DELETE:
//  220       MT_AfDelete( pBuf );
??MT_AfCommandProcessing_3:
        ; Setup parameters for call to function MT_AfDelete
        LCALL   ??MT_AfDelete?relay
//  221       break;
        LJMP    ??MT_AfCommandProcessing_10 & 0xFFFF
//  222 
//  223     case MT_AF_DATA_REQUEST:
//  224     case MT_AF_DATA_REQUEST_EXT:
//  225       MT_AfDataRequest(pBuf);
??MT_AfCommandProcessing_1:
        ; Setup parameters for call to function MT_AfDataRequest
        LCALL   ??MT_AfDataRequest?relay
//  226       break;
        LJMP    ??MT_AfCommandProcessing_10 & 0xFFFF
//  227 
//  228 #if defined ( ZIGBEE_SOURCE_ROUTING )
//  229     case MT_AF_DATA_REQUEST_SRCRTG:
//  230       MT_AfDataRequestSrcRtg(pBuf);
??MT_AfCommandProcessing_2:
        ; Setup parameters for call to function MT_AfDataRequestSrcRtg
        LCALL   ??MT_AfDataRequestSrcRtg?relay
//  231       break;
        LJMP    ??MT_AfCommandProcessing_10 & 0xFFFF
//  232 #endif
//  233 
//  234 #if defined INTER_PAN
//  235     case MT_AF_INTER_PAN_CTL:
//  236       MT_AfInterPanCtl(pBuf);
??MT_AfCommandProcessing_4:
        ; Setup parameters for call to function MT_AfInterPanCtl
        LCALL   ??MT_AfInterPanCtl?relay
//  237       break;
        LJMP    ??MT_AfCommandProcessing_10 & 0xFFFF
//  238 #endif
//  239 
//  240     case MT_AF_DATA_RETRIEVE:
//  241       MT_AfDataRetrieve(pBuf);
??MT_AfCommandProcessing_6:
        ; Setup parameters for call to function MT_AfDataRetrieve
        LCALL   ??MT_AfDataRetrieve?relay
//  242       break;
        LJMP    ??MT_AfCommandProcessing_10 & 0xFFFF
//  243 
//  244     case MT_AF_DATA_STORE:
//  245       MT_AfDataStore(pBuf);
??MT_AfCommandProcessing_5:
        ; Setup parameters for call to function MT_AfDataStore
        LCALL   ??MT_AfDataStore?relay
//  246       break;
        LJMP    ??MT_AfCommandProcessing_10 & 0xFFFF
//  247 
//  248     case MT_AF_APSF_CONFIG_SET:
//  249       MT_AfAPSF_ConfigSet(pBuf);
??MT_AfCommandProcessing_7:
        MOV     DPL,R2
        MOV     DPH,R3
        INC     DPTR
        INC     DPTR
        INC     DPTR
        INC     DPTR
        MOVX    A,@DPTR
        MOV     DPL,?XSP + 0
        MOV     DPH,?XSP + 1
        LCALL   ?Subroutine34 & 0xFFFF
??CrossCallReturnLabel_55:
        INC     DPTR
        MOVX    A,@DPTR
        PUSH    A
          CFI CFA_SP SP+-1
        MOV     A,#0x1
        LCALL   ?XSTACK_DISP0_8
        POP     A
          CFI CFA_SP SP+0
        LCALL   ?Subroutine46 & 0xFFFF
??CrossCallReturnLabel_77:
        MOV     R2,DPL
        MOV     R3,DPH
        MOV     DPL,R0
        MOV     DPH,R1
        MOVX    A,@DPTR
        MOV     R1,A
        LCALL   ??afAPSF_ConfigSet?relay
        MOV     A,#0x2
        LCALL   ?XSTACK_DISP0_8
        MOV     A,R1
        MOVX    @DPTR,A
        ; Setup parameters for call to function MT_BuildAndSendZToolResponse
        MOV     R4,DPL
        MOV     R5,DPH
        MOV     R3,#0x1
        MOV     R2,#0x13
        SJMP    ??MT_AfCommandProcessing_11
//  250       break;
//  251 
//  252     case MT_AF_APSF_CONFIG_GET:
//  253       MT_AfAPSF_ConfigGet(pBuf);
??MT_AfCommandProcessing_8:
        MOV     DPL,?XSP + 0
        MOV     DPH,?XSP + 1
        MOV     R4,DPL
        MOV     R5,DPH
        MOV     DPH,#(`?<Constant {0, 0}>` >> 8) & 0xff
        MOV     DPL,#`?<Constant {0, 0}>` & 0xff
        MOV     A,#0x2
        LCALL   ?MOVE_LONG8_XDATA_XDATA
        ; Setup parameters for call to function afAPSF_ConfigSet
        MOV     DPL,?XSP + 0
        MOV     DPH,?XSP + 1
        MOV     R2,DPL
        MOV     R3,DPH
        MOV     DPL,R0
        MOV     DPH,R1
        MOVX    A,@DPTR
        MOV     R1,A
        LCALL   ??afAPSF_ConfigSet?relay
        MOV     A,#0x3
        LCALL   ?XSTACK_DISP0_8
        MOV     A,R1
        LCALL   ?Subroutine46 & 0xFFFF
??CrossCallReturnLabel_78:
        MOVX    A,@DPTR
        PUSH    A
          CFI CFA_SP SP+-1
        MOV     A,#0x4
        LCALL   ?XSTACK_DISP0_8
        POP     A
          CFI CFA_SP SP+0
        MOVX    @DPTR,A
        MOV     A,#0x1
        LCALL   ?XSTACK_DISP0_8
        MOVX    A,@DPTR
        PUSH    A
          CFI CFA_SP SP+-1
        MOV     A,#0x5
        LCALL   ?XSTACK_DISP0_8
        POP     A
          CFI CFA_SP SP+0
        MOVX    @DPTR,A
        ; Setup parameters for call to function MT_BuildAndSendZToolResponse
        MOV     A,#0x3
        LCALL   ?XSTACK_DISP0_8
        MOV     R4,DPL
        MOV     R5,DPH
        MOV     R3,#0x3
        MOV     R2,#0x14
??MT_AfCommandProcessing_11:
        MOV     R1,#0x64
        LCALL   ??MT_BuildAndSendZToolResponse?relay
//  254       break;
        SJMP    ??MT_AfCommandProcessing_10
//  255 
//  256     default:
//  257       status = MT_RPC_ERR_COMMAND_ID;
??MT_AfCommandProcessing_9:
        INC     R6
        INC     R6
//  258       break;
//  259   }
//  260 
//  261   return status;
??MT_AfCommandProcessing_10:
        MOV     A,R6
        MOV     R1,A
        MOV     A,#0x6
          CFI EndBlock cfiBlock1
        REQUIRE ?Subroutine0
        ; // Fall through to label ?Subroutine0
//  262 }

        RSEG BANKED_CODE:CODE:NOROOT(0)
?Subroutine0:
          CFI Block cfiBlock2 Using cfiCommon0
          CFI NoFunction
          CFI CFA_SP SP+0
          CFI CFA_XSP16 add(XSP16, 15)
          CFI VB load(1, XDATA, add(CFA_XSP16, literal(-8)))
          CFI DPL0 load(1, XDATA, add(CFA_XSP16, literal(-2)))
          CFI DPH0 load(1, XDATA, add(CFA_XSP16, literal(-1)))
          CFI R6 load(1, XDATA, add(CFA_XSP16, literal(-9)))
          CFI R7 load(1, XDATA, add(CFA_XSP16, literal(-6)))
          CFI V0 load(1, XDATA, add(CFA_XSP16, literal(-7)))
          CFI ?BRET_EXT load(1, XDATA, add(CFA_XSP16, literal(-3)))
          CFI ?RET_HIGH load(1, XDATA, add(CFA_XSP16, literal(-4)))
          CFI ?RET_LOW load(1, XDATA, add(CFA_XSP16, literal(-5)))
          CFI Invalid
        LCALL   ?DEALLOC_XSTACK8
          CFI EndBlock cfiBlock2
        REQUIRE ??Subroutine53_0
        ; // Fall through to label ??Subroutine53_0

        RSEG BANKED_CODE:CODE:NOROOT(0)
??Subroutine53_0:
          CFI Block cfiBlock3 Using cfiCommon0
          CFI NoFunction
          CFI CFA_SP SP+0
          CFI CFA_XSP16 add(XSP16, 9)
          CFI VB load(1, XDATA, add(CFA_XSP16, literal(-8)))
          CFI DPL0 load(1, XDATA, add(CFA_XSP16, literal(-2)))
          CFI DPH0 load(1, XDATA, add(CFA_XSP16, literal(-1)))
          CFI R6 load(1, XDATA, add(CFA_XSP16, literal(-9)))
          CFI R7 load(1, XDATA, add(CFA_XSP16, literal(-6)))
          CFI V0 load(1, XDATA, add(CFA_XSP16, literal(-7)))
          CFI ?BRET_EXT load(1, XDATA, add(CFA_XSP16, literal(-3)))
          CFI ?RET_HIGH load(1, XDATA, add(CFA_XSP16, literal(-4)))
          CFI ?RET_LOW load(1, XDATA, add(CFA_XSP16, literal(-5)))
        MOV     R7,#0x1
        LJMP    ?BANKED_LEAVE_XDATA
          CFI EndBlock cfiBlock3
//  263 
//  264 /***************************************************************************************************
//  265  * @fn      MT_AfRegister
//  266  *
//  267  * @brief   Process AF Register command
//  268  *
//  269  * @param   pBuf - pointer to the received buffer
//  270  *
//  271  * @return  none
//  272  ***************************************************************************************************/

        RSEG BANKED_CODE:CODE:NOROOT(0)
//  273 void MT_AfRegister(uint8 *pBuf)
MT_AfRegister:
          CFI Block cfiBlock4 Using cfiCommon0
          CFI Function MT_AfRegister
        CODE
//  274 {
        FUNCALL MT_AfRegister, osal_mem_alloc
        LOCFRAME ISTACK, 0, STACK
        LOCFRAME PSTACK, 0, STACK
        LOCFRAME XSTACK, 15, STACK
        LOCFRAME IOVERLAY, 0, STATIC
        LOCFRAME DOVERLAY, 0, STATIC
        ARGFRAME ISTACK, 0, STACK
        ARGFRAME PSTACK, 0, STACK
        ARGFRAME XSTACK, 15, STACK
        ARGFRAME IOVERLAY, 0, STATIC
        ARGFRAME DOVERLAY, 0, STATIC
        FUNCALL MT_AfRegister, MT_BuildEndpointDesc
        LOCFRAME ISTACK, 0, STACK
        LOCFRAME PSTACK, 0, STACK
        LOCFRAME XSTACK, 15, STACK
        LOCFRAME IOVERLAY, 0, STATIC
        LOCFRAME DOVERLAY, 0, STATIC
        ARGFRAME ISTACK, 0, STACK
        ARGFRAME PSTACK, 0, STACK
        ARGFRAME XSTACK, 15, STACK
        ARGFRAME IOVERLAY, 0, STATIC
        ARGFRAME DOVERLAY, 0, STATIC
        FUNCALL MT_AfRegister, afRegister
        LOCFRAME ISTACK, 0, STACK
        LOCFRAME PSTACK, 0, STACK
        LOCFRAME XSTACK, 15, STACK
        LOCFRAME IOVERLAY, 0, STATIC
        LOCFRAME DOVERLAY, 0, STATIC
        ARGFRAME ISTACK, 0, STACK
        ARGFRAME PSTACK, 0, STACK
        ARGFRAME XSTACK, 15, STACK
        ARGFRAME IOVERLAY, 0, STATIC
        ARGFRAME DOVERLAY, 0, STATIC
        FUNCALL MT_AfRegister, osal_mem_free
        LOCFRAME ISTACK, 0, STACK
        LOCFRAME PSTACK, 0, STACK
        LOCFRAME XSTACK, 15, STACK
        LOCFRAME IOVERLAY, 0, STATIC
        LOCFRAME DOVERLAY, 0, STATIC
        ARGFRAME ISTACK, 0, STACK
        ARGFRAME PSTACK, 0, STACK
        ARGFRAME XSTACK, 15, STACK
        ARGFRAME IOVERLAY, 0, STATIC
        ARGFRAME DOVERLAY, 0, STATIC
        FUNCALL MT_AfRegister, MT_BuildAndSendZToolResponse
        LOCFRAME ISTACK, 0, STACK
        LOCFRAME PSTACK, 0, STACK
        LOCFRAME XSTACK, 15, STACK
        LOCFRAME IOVERLAY, 0, STATIC
        LOCFRAME DOVERLAY, 0, STATIC
        ARGFRAME ISTACK, 0, STACK
        ARGFRAME PSTACK, 0, STACK
        ARGFRAME XSTACK, 15, STACK
        ARGFRAME IOVERLAY, 0, STATIC
        ARGFRAME DOVERLAY, 0, STATIC
        MOV     A,#-0xe
        LCALL   ?BANKED_ENTER_XDATA
          CFI DPH0 load(1, XDATA, add(CFA_XSP16, literal(-1)))
          CFI DPL0 load(1, XDATA, add(CFA_XSP16, literal(-2)))
          CFI ?BRET_EXT load(1, XDATA, add(CFA_XSP16, literal(-3)))
          CFI ?RET_HIGH load(1, XDATA, add(CFA_XSP16, literal(-4)))
          CFI ?RET_LOW load(1, XDATA, add(CFA_XSP16, literal(-5)))
          CFI R7 load(1, XDATA, add(CFA_XSP16, literal(-6)))
          CFI V5 load(1, XDATA, add(CFA_XSP16, literal(-7)))
          CFI V4 load(1, XDATA, add(CFA_XSP16, literal(-8)))
          CFI V3 load(1, XDATA, add(CFA_XSP16, literal(-9)))
          CFI V2 load(1, XDATA, add(CFA_XSP16, literal(-10)))
          CFI V1 load(1, XDATA, add(CFA_XSP16, literal(-11)))
          CFI V0 load(1, XDATA, add(CFA_XSP16, literal(-12)))
          CFI VB load(1, XDATA, add(CFA_XSP16, literal(-13)))
          CFI R6 load(1, XDATA, add(CFA_XSP16, literal(-14)))
          CFI CFA_SP SP+0
          CFI CFA_XSP16 add(XSP16, 14)
        ; Saved register size: 14
        ; Auto size: 1
        MOV     A,#-0x1
        LCALL   ?ALLOC_XSTACK8
          CFI CFA_XSP16 add(XSP16, 15)
        MOV     ?V0 + 0,R2
        MOV     ?V0 + 1,R3
//  275   uint8 cmdId;
//  276   uint8 retValue = ZMemError;
        LCALL   ?Subroutine37 & 0xFFFF
//  277   endPointDesc_t *epDesc;
//  278 
//  279   /* parse header */
//  280   cmdId = pBuf[MT_RPC_POS_CMD1];
??CrossCallReturnLabel_62:
        MOV     ?V0 + 2,A
//  281   pBuf += MT_RPC_FRAME_HDR_SZ;
//  282 
//  283   epDesc = (endPointDesc_t *)osal_mem_alloc(sizeof(endPointDesc_t));
        ; Setup parameters for call to function osal_mem_alloc
        MOV     R2,#0x6
        MOV     R3,#0x0
        LCALL   ??osal_mem_alloc?relay
        MOV     ?V0 + 4,R2
        MOV     ?V0 + 5,R3
        MOV     R6,?V0 + 4
        MOV     R7,?V0 + 5
//  284   if ( epDesc )
        MOV     A,R6
        ORL     A,R7
        JZ      ??MT_AfRegister_0
//  285   {
//  286     epDesc->task_id = &MT_TaskID;
        MOV     DPL,R6
        MOV     DPH,R7
        INC     DPTR
        MOV     A,#MT_TaskID & 0xff
        MOVX    @DPTR,A
        INC     DPTR
        MOV     A,#(MT_TaskID >> 8) & 0xff
        MOVX    @DPTR,A
//  287     retValue = MT_BuildEndpointDesc( pBuf, epDesc );
        ; Setup parameters for call to function MT_BuildEndpointDesc
        MOV     A,R6
        MOV     R4,A
        MOV     A,R7
        MOV     R5,A
        MOV     A,?V0 + 0
        ADD     A,#0x3
        MOV     R2,A
        MOV     A,?V0 + 1
        ADDC    A,#0x0
        MOV     R3,A
        LCALL   ??MT_BuildEndpointDesc?relay
        MOV     A,R1
        MOV     DPL,?XSP + 0
        MOV     DPH,?XSP + 1
        MOVX    @DPTR,A
//  288     if ( retValue == ZSuccess )
        JNZ     ??MT_AfRegister_1
//  289     {
//  290       retValue = afRegister( epDesc );
        ; Setup parameters for call to function afRegister
        MOV     A,R6
        MOV     R2,A
        MOV     A,R7
        MOV     R3,A
        LCALL   ??afRegister?relay
        MOV     A,R1
        MOV     DPL,?XSP + 0
        MOV     DPH,?XSP + 1
        MOVX    @DPTR,A
//  291     }
//  292 
//  293     if ( retValue != ZSuccess )
??MT_AfRegister_1:
        MOVX    A,@DPTR
        JZ      ??MT_AfRegister_0
//  294     {
//  295       osal_mem_free( epDesc );
        ; Setup parameters for call to function osal_mem_free
        MOV     A,R6
        MOV     R2,A
        MOV     A,R7
        MOV     R3,A
        LCALL   ??osal_mem_free?relay
//  296     }
//  297   }
//  298 
//  299   /* Build and send back the response */
//  300   MT_BuildAndSendZToolResponse(((uint8)MT_RPC_CMD_SRSP | (uint8)MT_RPC_SYS_AF), cmdId, 1, &retValue);
??MT_AfRegister_0:
        ; Setup parameters for call to function MT_BuildAndSendZToolResponse
        MOV     DPL,?XSP + 0
        MOV     DPH,?XSP + 1
        MOV     R4,DPL
        MOV     R5,DPH
        MOV     R3,#0x1
        MOV     R2,?V0 + 2
          CFI EndBlock cfiBlock4
        REQUIRE ?Subroutine1
        ; // Fall through to label ?Subroutine1
//  301 }

        RSEG BANKED_CODE:CODE:NOROOT(0)
?Subroutine1:
          CFI Block cfiBlock5 Using cfiCommon0
          CFI NoFunction
          CFI CFA_SP SP+0
          CFI CFA_XSP16 add(XSP16, 15)
          CFI VB load(1, XDATA, add(CFA_XSP16, literal(-13)))
          CFI DPL0 load(1, XDATA, add(CFA_XSP16, literal(-2)))
          CFI DPH0 load(1, XDATA, add(CFA_XSP16, literal(-1)))
          CFI R6 load(1, XDATA, add(CFA_XSP16, literal(-14)))
          CFI R7 load(1, XDATA, add(CFA_XSP16, literal(-6)))
          CFI V0 load(1, XDATA, add(CFA_XSP16, literal(-12)))
          CFI V1 load(1, XDATA, add(CFA_XSP16, literal(-11)))
          CFI V2 load(1, XDATA, add(CFA_XSP16, literal(-10)))
          CFI V3 load(1, XDATA, add(CFA_XSP16, literal(-9)))
          CFI V4 load(1, XDATA, add(CFA_XSP16, literal(-8)))
          CFI V5 load(1, XDATA, add(CFA_XSP16, literal(-7)))
          CFI ?BRET_EXT load(1, XDATA, add(CFA_XSP16, literal(-3)))
          CFI ?RET_HIGH load(1, XDATA, add(CFA_XSP16, literal(-4)))
          CFI ?RET_LOW load(1, XDATA, add(CFA_XSP16, literal(-5)))
        MOV     R1,#0x64
        LCALL   ??MT_BuildAndSendZToolResponse?relay
        MOV     A,#0x1
        LCALL   ?DEALLOC_XSTACK8
          CFI CFA_XSP16 add(XSP16, 14)
        MOV     R7,#0x6
        LJMP    ?BANKED_LEAVE_XDATA
          CFI EndBlock cfiBlock5
//  302 
//  303 /***************************************************************************************************
//  304  * @fn      MT_AfDelete
//  305  *
//  306  * @brief   Process AF Delete Endpoint command
//  307  *
//  308  * @param   pBuf - pointer to the received buffer
//  309  *
//  310  * @return  none
//  311  ***************************************************************************************************/

        RSEG BANKED_CODE:CODE:NOROOT(0)
//  312 void MT_AfDelete(uint8 *pBuf)
MT_AfDelete:
          CFI Block cfiBlock6 Using cfiCommon0
          CFI Function MT_AfDelete
        CODE
//  313 {
        FUNCALL MT_AfDelete, afDelete
        LOCFRAME ISTACK, 0, STACK
        LOCFRAME PSTACK, 0, STACK
        LOCFRAME XSTACK, 10, STACK
        LOCFRAME IOVERLAY, 0, STATIC
        LOCFRAME DOVERLAY, 0, STATIC
        ARGFRAME ISTACK, 0, STACK
        ARGFRAME PSTACK, 0, STACK
        ARGFRAME XSTACK, 10, STACK
        ARGFRAME IOVERLAY, 0, STATIC
        ARGFRAME DOVERLAY, 0, STATIC
        FUNCALL MT_AfDelete, MT_BuildAndSendZToolResponse
        LOCFRAME ISTACK, 0, STACK
        LOCFRAME PSTACK, 0, STACK
        LOCFRAME XSTACK, 10, STACK
        LOCFRAME IOVERLAY, 0, STATIC
        LOCFRAME DOVERLAY, 0, STATIC
        ARGFRAME ISTACK, 0, STACK
        ARGFRAME PSTACK, 0, STACK
        ARGFRAME XSTACK, 10, STACK
        ARGFRAME IOVERLAY, 0, STATIC
        ARGFRAME DOVERLAY, 0, STATIC
        MOV     A,#-0x9
        LCALL   ?BANKED_ENTER_XDATA
          CFI DPH0 load(1, XDATA, add(CFA_XSP16, literal(-1)))
          CFI DPL0 load(1, XDATA, add(CFA_XSP16, literal(-2)))
          CFI ?BRET_EXT load(1, XDATA, add(CFA_XSP16, literal(-3)))
          CFI ?RET_HIGH load(1, XDATA, add(CFA_XSP16, literal(-4)))
          CFI ?RET_LOW load(1, XDATA, add(CFA_XSP16, literal(-5)))
          CFI R7 load(1, XDATA, add(CFA_XSP16, literal(-6)))
          CFI V0 load(1, XDATA, add(CFA_XSP16, literal(-7)))
          CFI VB load(1, XDATA, add(CFA_XSP16, literal(-8)))
          CFI R6 load(1, XDATA, add(CFA_XSP16, literal(-9)))
          CFI CFA_SP SP+0
          CFI CFA_XSP16 add(XSP16, 9)
        ; Saved register size: 9
        ; Auto size: 1
        MOV     A,#-0x1
        LCALL   ?ALLOC_XSTACK8
          CFI CFA_XSP16 add(XSP16, 10)
//  314   uint8 cmdId;
//  315   uint8 retValue = ZMemError;
        LCALL   ?Subroutine37 & 0xFFFF
//  316 
//  317   /* parse header */
//  318   cmdId = pBuf[MT_RPC_POS_CMD1];
??CrossCallReturnLabel_63:
        MOV     R6,A
//  319   pBuf += MT_RPC_FRAME_HDR_SZ;
//  320 
//  321   retValue = afDelete( *pBuf );
        ; Setup parameters for call to function afDelete
        MOV     DPL,R2
        MOV     DPH,R3
        INC     DPTR
        INC     DPTR
        INC     DPTR
        MOVX    A,@DPTR
        MOV     R1,A
        LCALL   ??afDelete?relay
        MOV     A,R1
        MOV     DPL,?XSP + 0
        MOV     DPH,?XSP + 1
        LCALL   ?Subroutine33 & 0xFFFF
//  322   
//  323   /* Build and send back the response */
//  324   MT_BuildAndSendZToolResponse(((uint8)MT_RPC_CMD_SRSP | (uint8)MT_RPC_SYS_AF), cmdId, 1, &retValue);
??CrossCallReturnLabel_53:
        LCALL   ??MT_BuildAndSendZToolResponse?relay
//  325 }
        MOV     A,#0x1
        LJMP    ?Subroutine0 & 0xFFFF
          CFI EndBlock cfiBlock6

        RSEG BANKED_CODE:CODE:NOROOT(0)
?Subroutine37:
          CFI Block cfiCond7 Using cfiCommon0
          CFI Function MT_AfRegister
          CFI Conditional ??CrossCallReturnLabel_62
          CFI R6 load(1, XDATA, add(CFA_XSP16, literal(-14)))
          CFI VB load(1, XDATA, add(CFA_XSP16, literal(-13)))
          CFI V0 load(1, XDATA, add(CFA_XSP16, literal(-12)))
          CFI V1 load(1, XDATA, add(CFA_XSP16, literal(-11)))
          CFI V2 load(1, XDATA, add(CFA_XSP16, literal(-10)))
          CFI V3 load(1, XDATA, add(CFA_XSP16, literal(-9)))
          CFI V4 load(1, XDATA, add(CFA_XSP16, literal(-8)))
          CFI V5 load(1, XDATA, add(CFA_XSP16, literal(-7)))
          CFI R7 load(1, XDATA, add(CFA_XSP16, literal(-6)))
          CFI ?RET_LOW load(1, XDATA, add(CFA_XSP16, literal(-5)))
          CFI ?RET_HIGH load(1, XDATA, add(CFA_XSP16, literal(-4)))
          CFI ?BRET_EXT load(1, XDATA, add(CFA_XSP16, literal(-3)))
          CFI DPL0 load(1, XDATA, add(CFA_XSP16, literal(-2)))
          CFI DPH0 load(1, XDATA, add(CFA_XSP16, literal(-1)))
          CFI CFA_SP SP+0
          CFI CFA_XSP16 add(XSP16, 15)
          CFI Block cfiCond8 Using cfiCommon0
          CFI (cfiCond8) Function MT_AfDelete
          CFI (cfiCond8) Conditional ??CrossCallReturnLabel_63
          CFI (cfiCond8) R6 load(1, XDATA, add(CFA_XSP16, literal(-9)))
          CFI (cfiCond8) VB load(1, XDATA, add(CFA_XSP16, literal(-8)))
          CFI (cfiCond8) V0 load(1, XDATA, add(CFA_XSP16, literal(-7)))
          CFI (cfiCond8) R7 load(1, XDATA, add(CFA_XSP16, literal(-6)))
          CFI (cfiCond8) ?RET_LOW load(1, XDATA, add(CFA_XSP16, literal(-5)))
          CFI (cfiCond8) ?RET_HIGH load(1, XDATA, add(CFA_XSP16, literal(-4)))
          CFI (cfiCond8) ?BRET_EXT load(1, XDATA, add(CFA_XSP16, literal(-3)))
          CFI (cfiCond8) DPL0 load(1, XDATA, add(CFA_XSP16, literal(-2)))
          CFI (cfiCond8) DPH0 load(1, XDATA, add(CFA_XSP16, literal(-1)))
          CFI (cfiCond8) CFA_SP SP+0
          CFI (cfiCond8) CFA_XSP16 add(XSP16, 10)
          CFI Block cfiPicker9 Using cfiCommon1
          CFI (cfiPicker9) NoFunction
          CFI (cfiPicker9) Picker
        MOV     DPL,?XSP + 0
        MOV     DPH,?XSP + 1
        MOV     A,#0x10
        LCALL   ?Subroutine48 & 0xFFFF
??CrossCallReturnLabel_80:
        RET
          CFI EndBlock cfiCond7
          CFI EndBlock cfiCond8
          CFI EndBlock cfiPicker9
//  326 
//  327 /***************************************************************************************************
//  328  * @fn      MT_AfDataRequest
//  329  *
//  330  * @brief   Process AF Register command
//  331  *
//  332  * @param   pBuf - pointer to the received buffer
//  333  *
//  334  * @return  none
//  335  ***************************************************************************************************/

        RSEG BANKED_CODE:CODE:NOROOT(0)
//  336 void MT_AfDataRequest(uint8 *pBuf)
MT_AfDataRequest:
          CFI Block cfiBlock10 Using cfiCommon0
          CFI Function MT_AfDataRequest
        CODE
//  337 {
        FUNCALL MT_AfDataRequest, osal_memcpy
        LOCFRAME ISTACK, 0, STACK
        LOCFRAME PSTACK, 0, STACK
        LOCFRAME XSTACK, 39, STACK
        LOCFRAME IOVERLAY, 0, STATIC
        LOCFRAME DOVERLAY, 0, STATIC
        ARGFRAME ISTACK, 0, STACK
        ARGFRAME PSTACK, 0, STACK
        ARGFRAME XSTACK, 39, STACK
        ARGFRAME IOVERLAY, 0, STATIC
        ARGFRAME DOVERLAY, 0, STATIC
        FUNCALL MT_AfDataRequest, afFindEndPointDesc
        LOCFRAME ISTACK, 0, STACK
        LOCFRAME PSTACK, 0, STACK
        LOCFRAME XSTACK, 36, STACK
        LOCFRAME IOVERLAY, 0, STATIC
        LOCFRAME DOVERLAY, 0, STATIC
        ARGFRAME ISTACK, 0, STACK
        ARGFRAME PSTACK, 0, STACK
        ARGFRAME XSTACK, 36, STACK
        ARGFRAME IOVERLAY, 0, STATIC
        ARGFRAME DOVERLAY, 0, STATIC
        FUNCALL MT_AfDataRequest, osal_mem_alloc
        LOCFRAME ISTACK, 0, STACK
        LOCFRAME PSTACK, 0, STACK
        LOCFRAME XSTACK, 36, STACK
        LOCFRAME IOVERLAY, 0, STATIC
        LOCFRAME DOVERLAY, 0, STATIC
        ARGFRAME ISTACK, 0, STACK
        ARGFRAME PSTACK, 0, STACK
        ARGFRAME XSTACK, 36, STACK
        ARGFRAME IOVERLAY, 0, STATIC
        ARGFRAME DOVERLAY, 0, STATIC
        FUNCALL MT_AfDataRequest, osal_memcpy
        LOCFRAME ISTACK, 0, STACK
        LOCFRAME PSTACK, 0, STACK
        LOCFRAME XSTACK, 39, STACK
        LOCFRAME IOVERLAY, 0, STATIC
        LOCFRAME DOVERLAY, 0, STATIC
        ARGFRAME ISTACK, 0, STACK
        ARGFRAME PSTACK, 0, STACK
        ARGFRAME XSTACK, 39, STACK
        ARGFRAME IOVERLAY, 0, STATIC
        ARGFRAME DOVERLAY, 0, STATIC
        FUNCALL MT_AfDataRequest, osal_start_timerEx
        LOCFRAME ISTACK, 0, STACK
        LOCFRAME PSTACK, 0, STACK
        LOCFRAME XSTACK, 40, STACK
        LOCFRAME IOVERLAY, 0, STATIC
        LOCFRAME DOVERLAY, 0, STATIC
        ARGFRAME ISTACK, 0, STACK
        ARGFRAME PSTACK, 0, STACK
        ARGFRAME XSTACK, 40, STACK
        ARGFRAME IOVERLAY, 0, STATIC
        ARGFRAME DOVERLAY, 0, STATIC
        FUNCALL MT_AfDataRequest, osal_set_event
        LOCFRAME ISTACK, 0, STACK
        LOCFRAME PSTACK, 0, STACK
        LOCFRAME XSTACK, 36, STACK
        LOCFRAME IOVERLAY, 0, STATIC
        LOCFRAME DOVERLAY, 0, STATIC
        ARGFRAME ISTACK, 0, STACK
        ARGFRAME PSTACK, 0, STACK
        ARGFRAME XSTACK, 36, STACK
        ARGFRAME IOVERLAY, 0, STATIC
        ARGFRAME DOVERLAY, 0, STATIC
        FUNCALL MT_AfDataRequest, AF_DataRequest
        LOCFRAME ISTACK, 0, STACK
        LOCFRAME PSTACK, 0, STACK
        LOCFRAME XSTACK, 45, STACK
        LOCFRAME IOVERLAY, 0, STATIC
        LOCFRAME DOVERLAY, 0, STATIC
        ARGFRAME ISTACK, 0, STACK
        ARGFRAME PSTACK, 0, STACK
        ARGFRAME XSTACK, 45, STACK
        ARGFRAME IOVERLAY, 0, STATIC
        ARGFRAME DOVERLAY, 0, STATIC
        FUNCALL MT_AfDataRequest, MT_BuildAndSendZToolResponse
        LOCFRAME ISTACK, 0, STACK
        LOCFRAME PSTACK, 0, STACK
        LOCFRAME XSTACK, 36, STACK
        LOCFRAME IOVERLAY, 0, STATIC
        LOCFRAME DOVERLAY, 0, STATIC
        ARGFRAME ISTACK, 0, STACK
        ARGFRAME PSTACK, 0, STACK
        ARGFRAME XSTACK, 36, STACK
        ARGFRAME IOVERLAY, 0, STATIC
        ARGFRAME DOVERLAY, 0, STATIC
        MOV     A,#-0x16
        LCALL   ?BANKED_ENTER_XDATA
          CFI DPH0 load(1, XDATA, add(CFA_XSP16, literal(-1)))
          CFI DPL0 load(1, XDATA, add(CFA_XSP16, literal(-2)))
          CFI ?BRET_EXT load(1, XDATA, add(CFA_XSP16, literal(-3)))
          CFI ?RET_HIGH load(1, XDATA, add(CFA_XSP16, literal(-4)))
          CFI ?RET_LOW load(1, XDATA, add(CFA_XSP16, literal(-5)))
          CFI R7 load(1, XDATA, add(CFA_XSP16, literal(-6)))
          CFI V13 load(1, XDATA, add(CFA_XSP16, literal(-7)))
          CFI V12 load(1, XDATA, add(CFA_XSP16, literal(-8)))
          CFI V11 load(1, XDATA, add(CFA_XSP16, literal(-9)))
          CFI V10 load(1, XDATA, add(CFA_XSP16, literal(-10)))
          CFI V9 load(1, XDATA, add(CFA_XSP16, literal(-11)))
          CFI V8 load(1, XDATA, add(CFA_XSP16, literal(-12)))
          CFI V7 load(1, XDATA, add(CFA_XSP16, literal(-13)))
          CFI V6 load(1, XDATA, add(CFA_XSP16, literal(-14)))
          CFI V5 load(1, XDATA, add(CFA_XSP16, literal(-15)))
          CFI V4 load(1, XDATA, add(CFA_XSP16, literal(-16)))
          CFI V3 load(1, XDATA, add(CFA_XSP16, literal(-17)))
          CFI V2 load(1, XDATA, add(CFA_XSP16, literal(-18)))
          CFI V1 load(1, XDATA, add(CFA_XSP16, literal(-19)))
          CFI V0 load(1, XDATA, add(CFA_XSP16, literal(-20)))
          CFI VB load(1, XDATA, add(CFA_XSP16, literal(-21)))
          CFI R6 load(1, XDATA, add(CFA_XSP16, literal(-22)))
          CFI CFA_SP SP+0
          CFI CFA_XSP16 add(XSP16, 22)
        ; Saved register size: 22
        ; Auto size: 14
        MOV     A,#-0xe
        LCALL   ?ALLOC_XSTACK8
          CFI CFA_XSP16 add(XSP16, 36)
//  338   #define MT_AF_REQ_MSG_LEN  10
//  339   #define MT_AF_REQ_MSG_EXT  10
//  340 
//  341   endPointDesc_t *epDesc;
//  342   afAddrType_t dstAddr;
//  343   cId_t cId;
//  344   uint8 transId, txOpts, radius;
//  345   uint8 cmd0, cmd1;
//  346   uint8 retValue = ZFailure;
        MOV     DPL,?XSP + 0
        MOV     DPH,?XSP + 1
        MOV     A,#0x1
        LCALL   ?Subroutine52 & 0xFFFF
//  347   uint16 dataLen, tempLen;
//  348 
//  349   /* Parse header */
//  350   cmd0 = pBuf[MT_RPC_POS_CMD0];
??CrossCallReturnLabel_86:
        MOVX    A,@DPTR
        MOV     ?V0 + 7,A
//  351   cmd1 = pBuf[MT_RPC_POS_CMD1];
        MOV     DPL,R2
        MOV     DPH,R3
        INC     DPTR
        INC     DPTR
        MOVX    A,@DPTR
        MOV     ?V0 + 6,A
//  352   pBuf += MT_RPC_FRAME_HDR_SZ;
        MOV     A,R2
        ADD     A,#0x3
        MOV     ?V0 + 2,A
        MOV     A,R3
        LCALL   ?Subroutine41 & 0xFFFF
//  353 
//  354   if (cmd1 == MT_AF_DATA_REQUEST_EXT)
??CrossCallReturnLabel_93:
        INC     DPTR
        MOV     R0,DPL
        MOV     R1,DPH
        MOV     A,#0x2
        XRL     A,?V0 + 6
        JNZ     ??MT_AfDataRequest_0
//  355   {
//  356     dstAddr.addrMode = (afAddrMode_t)*pBuf++;
        MOV     DPL,?V0 + 2
        MOV     DPH,?V0 + 3
        MOVX    A,@DPTR
        MOV     R2,A
        MOV     A,#0xa
        LCALL   ?XSTACK_DISP0_8
        MOV     A,R2
        MOVX    @DPTR,A
        MOV     ?V0 + 2,R0
        MOV     ?V0 + 3,R1
//  357 
//  358     if (dstAddr.addrMode == afAddr64Bit)
        MOV     A,#0x3
        XRL     A,R2
        JNZ     ??MT_AfDataRequest_1
//  359     {
//  360       (void)osal_memcpy(dstAddr.addr.extAddr, pBuf, Z_EXTADDR_LEN);
        ; Setup parameters for call to function osal_memcpy
        MOV     ?V0 + 8,R0
        MOV     ?V0 + 9,R1
        MOV     ?V0 + 10,#0x0
        MOV     R0,#?V0 + 8
        LCALL   ?PUSH_XSTACK_I_THREE
          CFI CFA_XSP16 add(XSP16, 39)
        MOV     R4,#0x8
        MOV     R5,#0x0
        MOV     A,#0x5
        LCALL   ?XSTACK_DISP0_8
        MOV     R2,DPL
        MOV     R3,DPH
        LCALL   ??osal_memcpy?relay
        MOV     A,#0x3
        LCALL   ?DEALLOC_XSTACK8
          CFI CFA_XSP16 add(XSP16, 36)
        SJMP    ??CrossCallReturnLabel_46
//  361     }
//  362     else
//  363     {
//  364       dstAddr.addr.shortAddr = BUILD_UINT16(pBuf[0], pBuf[1]);
??MT_AfDataRequest_1:
        MOV     DPL,R0
        MOV     DPH,R1
        LCALL   ?Subroutine18 & 0xFFFF
//  365     }
??CrossCallReturnLabel_118:
        LCALL   ?XSTACK_DISP0_8
        LCALL   ?Subroutine32 & 0xFFFF
//  366     pBuf += Z_EXTADDR_LEN;
??CrossCallReturnLabel_46:
        MOV     A,?V0 + 2
        ADD     A,#0x8
        LCALL   ??Subroutine54_0 & 0xFFFF
//  367 
//  368     dstAddr.endPoint = *pBuf++;
??CrossCallReturnLabel_92:
        PUSH    A
          CFI CFA_SP SP+-1
        MOV     A,#0xb
        LCALL   ?XSTACK_DISP0_8
        POP     A
          CFI CFA_SP SP+0
        LCALL   ?Subroutine31 & 0xFFFF
//  369     dstAddr.panId = BUILD_UINT16(pBuf[0], pBuf[1]);
??CrossCallReturnLabel_42:
        MOVX    A,@DPTR
        MOV     R2,A
        INC     DPTR
        MOVX    A,@DPTR
        MOV     R1,A
        MOV     A,R2
        MOV     R0,A
        MOV     A,#0xc
        LCALL   ?XSTACK_DISP0_8
        LCALL   ?Subroutine32 & 0xFFFF
//  370     pBuf += 2;
??CrossCallReturnLabel_47:
        LCALL   ?Subroutine38 & 0xFFFF
//  371   }
??CrossCallReturnLabel_64:
        SJMP    ??MT_AfDataRequest_2
//  372   else
//  373   {
//  374     /* Destination address */
//  375     dstAddr.addrMode = afAddr16Bit;
??MT_AfDataRequest_0:
        MOV     A,#0xa
        LCALL   ?XSTACK_DISP0_8
        MOV     A,#0x2
        MOVX    @DPTR,A
//  376     dstAddr.addr.shortAddr = BUILD_UINT16(pBuf[0], pBuf[1]);
        MOV     DPL,?V0 + 2
        MOV     DPH,?V0 + 3
        MOVX    A,@DPTR
        MOV     R2,A
        MOV     DPL,R0
        MOV     DPH,R1
        LCALL   ??Subroutine59_0 & 0xFFFF
??CrossCallReturnLabel_117:
        LCALL   ?XSTACK_DISP0_8
        LCALL   ?Subroutine32 & 0xFFFF
//  377     pBuf += 2;
??CrossCallReturnLabel_48:
        LCALL   ?Subroutine23 & 0xFFFF
//  378 
//  379     /* Destination endpoint */
//  380     dstAddr.endPoint = *pBuf++;
??CrossCallReturnLabel_90:
        PUSH    A
          CFI CFA_SP SP+-1
        MOV     A,#0xb
        LCALL   ?XSTACK_DISP0_8
        POP     A
          CFI CFA_SP SP+0
        LCALL   ?Subroutine31 & 0xFFFF
//  381     dstAddr.panId = 0;
??CrossCallReturnLabel_43:
        MOV     A,#0xc
        LCALL   ?XSTACK_DISP0_8
        CLR     A
        MOVX    @DPTR,A
        INC     DPTR
        MOVX    @DPTR,A
//  382   }
//  383 
//  384   /* Source endpoint */
//  385   epDesc = afFindEndPointDesc(*pBuf++);
??MT_AfDataRequest_2:
        ; Setup parameters for call to function afFindEndPointDesc
        MOV     DPL,?V0 + 2
        MOV     DPH,?V0 + 3
        MOVX    A,@DPTR
        MOV     R1,A
        LCALL   ??afFindEndPointDesc?relay
        MOV     ?V0 + 12,R2
        MOV     ?V0 + 13,R3
        MOV     DPL,?V0 + 2
        MOV     DPH,?V0 + 3
        INC     DPTR
        MOV     ?V0 + 2,DPL
        MOV     ?V0 + 3,DPH
//  386 
//  387   /* ClusterId */
//  388   cId = BUILD_UINT16(pBuf[0], pBuf[1]);
        LCALL   ??Subroutine60_0 & 0xFFFF
??CrossCallReturnLabel_120:
        MOV     ?V0 + 0,A
        CLR     A
        ADDC    A,R1
        MOV     ?V0 + 1,A
//  389   pBuf +=2;
        LCALL   ?Subroutine23 & 0xFFFF
//  390 
//  391   /* TransId */
//  392   transId = *pBuf++;
??CrossCallReturnLabel_91:
        PUSH    A
          CFI CFA_SP SP+-1
        MOV     A,#0x1
        LCALL   ?XSTACK_DISP0_8
        POP     A
          CFI CFA_SP SP+0
        LCALL   ?Subroutine50 & 0xFFFF
//  393 
//  394   /* TxOption */
//  395   txOpts = *pBuf++;
??CrossCallReturnLabel_84:
        LCALL   ?Subroutine44 & 0xFFFF
//  396 
//  397   /* Radius */
//  398   radius = *pBuf++;
??CrossCallReturnLabel_69:
        INC     DPTR
        MOV     ?V0 + 2,DPL
        MOV     ?V0 + 3,DPH
//  399 
//  400   /* Length */
//  401   if (cmd1 == MT_AF_DATA_REQUEST_EXT)
        INC     DPTR
        MOV     R0,DPL
        MOV     R1,DPH
        MOV     DPL,?V0 + 2
        MOV     DPH,?V0 + 3
        MOVX    A,@DPTR
        MOV     ?V0 + 8,A
        MOV     A,#0x2
        XRL     A,?V0 + 6
        JNZ     ??MT_AfDataRequest_3
//  402   {
//  403     dataLen = BUILD_UINT16(pBuf[0], pBuf[1]);
        MOV     DPL,R0
        MOV     DPH,R1
        MOVX    A,@DPTR
        MOV     R1,A
        MOV     A,?V0 + 8
        ADD     A,#0x0
        MOV     R6,A
        CLR     A
        ADDC    A,R1
        MOV     R7,A
//  404     tempLen = dataLen + MT_AF_REQ_MSG_LEN + MT_AF_REQ_MSG_EXT;
        MOV     A,R6
        ADD     A,#0x14
        MOV     R0,A
        MOV     A,R7
        ADDC    A,#0x0
        MOV     R1,A
//  405     pBuf += 2;
        LCALL   ?Subroutine38 & 0xFFFF
//  406   }
??CrossCallReturnLabel_65:
        SJMP    ??MT_AfDataRequest_4
//  407   else
//  408   {
//  409     dataLen = *pBuf++;
??MT_AfDataRequest_3:
        MOV     DPL,?V0 + 8
        MOV     R6,DPL
        MOV     R7,#0x0
        MOV     ?V0 + 2,R0
        MOV     ?V0 + 3,R1
//  410     tempLen = dataLen + MT_AF_REQ_MSG_LEN;
        MOV     A,R6
        ADD     A,#0xa
        MOV     R0,A
        CLR     A
        ADDC    A,#0x0
        MOV     R1,A
//  411   }
//  412 
//  413   if ( epDesc == NULL )
??MT_AfDataRequest_4:
        MOV     A,?V0 + 12
        ORL     A,?V0 + 13
        JZ      ??MT_AfDataRequest_5
//  414   {
//  415     retValue = afStatus_INVALID_PARAMETER;
//  416   }
//  417   else if (tempLen > (uint16)MT_RPC_DATA_MAX)
        CLR     C
        MOV     A,R0
        SUBB    A,#-0x5
        MOV     A,R1
        SUBB    A,#0x0
        JNC     $+5
        LJMP    ??MT_AfDataRequest_6 & 0xFFFF
//  418   {
//  419     if (pMtAfDataReq != NULL)
        LCALL   ?Subroutine5 & 0xFFFF
??CrossCallReturnLabel_111:
        JZ      ??MT_AfDataRequest_7
//  420     {
//  421       retValue = afStatus_INVALID_PARAMETER;
??MT_AfDataRequest_5:
        MOV     DPL,?XSP + 0
        MOV     DPH,?XSP + 1
        MOV     A,#0x2
        LJMP    ??MT_AfDataRequest_8 & 0xFFFF
//  422     }
//  423     else if ((pMtAfDataReq = osal_mem_alloc(sizeof(mtAfDataReq_t) + dataLen)) == NULL)
??MT_AfDataRequest_7:
        ; Setup parameters for call to function osal_mem_alloc
        MOV     A,R6
        ADD     A,#0x18
        MOV     R2,A
        MOV     A,R7
        ADDC    A,#0x0
        MOV     R3,A
        LCALL   ??osal_mem_alloc?relay
        MOV     DPTR,#pMtAfDataReq
        MOV     A,R2
        MOVX    @DPTR,A
        INC     DPTR
        MOV     A,R3
        MOVX    @DPTR,A
        LCALL   ?Subroutine5 & 0xFFFF
??CrossCallReturnLabel_112:
        MOV     DPL,?XSP + 0
        MOV     DPH,?XSP + 1
        JNZ     ??MT_AfDataRequest_9
//  424     {
//  425       retValue = afStatus_MEM_FAIL;
        MOV     A,#0x10
        LJMP    ??MT_AfDataRequest_8 & 0xFFFF
//  426     }
//  427     else
//  428     {
//  429       retValue = afStatus_SUCCESS;
??MT_AfDataRequest_9:
        CLR     A
        MOVX    @DPTR,A
//  430 
//  431       pMtAfDataReq->data = (uint8 *)(pMtAfDataReq+1);
        MOV     DPTR,#pMtAfDataReq
        MOVX    A,@DPTR
        ADD     A,#0x18
        MOV     R2,A
        INC     DPTR
        MOVX    A,@DPTR
        ADDC    A,#0x0
        MOV     R3,A
        LCALL   ?Subroutine22 & 0xFFFF
??CrossCallReturnLabel_27:
        MOV     A,R2
        MOVX    @DPTR,A
        INC     DPTR
        MOV     A,R3
        MOVX    @DPTR,A
//  432       (void)osal_memcpy(&(pMtAfDataReq->dstAddr), &dstAddr, sizeof(afAddrType_t));
        ; Setup parameters for call to function osal_memcpy
        MOV     A,#0x2
        LCALL   ?XSTACK_DISP0_8
        MOV     R1,DPL
        MOV     R2,DPH
        MOV     ?V0 + 8,R1
        MOV     ?V0 + 9,R2
        MOV     ?V0 + 10,#0x0
        MOV     R0,#?V0 + 8
        LCALL   ?PUSH_XSTACK_I_THREE
          CFI CFA_XSP16 add(XSP16, 39)
        MOV     R4,#0xc
        MOV     R5,#0x0
        LCALL   ?Subroutine20 & 0xFFFF
??CrossCallReturnLabel_23:
        LCALL   ??osal_memcpy?relay
        MOV     A,#0x3
        LCALL   ?DEALLOC_XSTACK8
          CFI CFA_XSP16 add(XSP16, 36)
//  433       pMtAfDataReq->epDesc = epDesc;
        LCALL   ?Subroutine11 & 0xFFFF
??CrossCallReturnLabel_8:
        MOV     A,?V0 + 12
        MOVX    @DPTR,A
        INC     DPTR
        MOV     A,?V0 + 13
        MOVX    @DPTR,A
//  434       pMtAfDataReq->cId = cId;
        LCALL   ?Subroutine12 & 0xFFFF
??CrossCallReturnLabel_10:
        MOV     A,?V0 + 0
        MOVX    @DPTR,A
        INC     DPTR
        MOV     A,?V0 + 1
        MOVX    @DPTR,A
//  435       pMtAfDataReq->dataLen = dataLen;
        LCALL   ?Subroutine13 & 0xFFFF
??CrossCallReturnLabel_12:
        MOV     A,R6
        MOVX    @DPTR,A
        INC     DPTR
        MOV     A,R7
        MOVX    @DPTR,A
//  436       pMtAfDataReq->transId = transId;
        MOV     A,#0x1
        LCALL   ?XSTACK_DISP0_8
        MOVX    A,@DPTR
        PUSH    A
          CFI CFA_SP SP+-1
        LCALL   ?Subroutine45 & 0xFFFF
??CrossCallReturnLabel_72:
        ADD     A,#0x14
        LCALL   ??Subroutine55_0 & 0xFFFF
??CrossCallReturnLabel_99:
        POP     A
          CFI CFA_SP SP+0
        MOVX    @DPTR,A
//  437       pMtAfDataReq->txOpts = txOpts;
        LCALL   ?Subroutine14 & 0xFFFF
??CrossCallReturnLabel_14:
        MOV     A,?V0 + 4
        MOVX    @DPTR,A
//  438       pMtAfDataReq->radius = radius;
        MOV     DPTR,#pMtAfDataReq
        MOVX    A,@DPTR
        MOV     R0,A
        INC     DPTR
        LCALL   ?Subroutine17 & 0xFFFF
??CrossCallReturnLabel_19:
        MOV     A,?V0 + 5
        LCALL   ?Subroutine10 & 0xFFFF
//  439 
//  440       // Setup to time-out the huge outgoing item if host does not MT_AF_DATA_STORE it.
//  441       pMtAfDataReq->tick = MT_AF_EXEC_CNT;
??CrossCallReturnLabel_6:
        MOV     A,#0xf
        MOVX    @DPTR,A
//  442       if (ZSuccess != osal_start_timerEx(MT_TaskID, MT_AF_EXEC_EVT, MT_AF_EXEC_DLY))
        ; Setup parameters for call to function osal_start_timerEx
        MOV     DPTR,#__Constant_3e8
        LCALL   ?PUSH_XSTACK8_X_FOUR
          CFI CFA_XSP16 add(XSP16, 40)
        MOV     R2,#0x8
        MOV     R3,#0x0
        MOV     DPTR,#MT_TaskID
        MOVX    A,@DPTR
        MOV     R1,A
        LCALL   ??osal_start_timerEx?relay
        MOV     A,#0x4
        LCALL   ?DEALLOC_XSTACK8
          CFI CFA_XSP16 add(XSP16, 36)
        MOV     A,R1
        JZ      ??MT_AfDataRequest_10
//  443       {
//  444         (void)osal_set_event(MT_TaskID, MT_AF_EXEC_EVT);
        ; Setup parameters for call to function osal_set_event
        MOV     R2,#0x8
        MOV     R3,#0x0
        MOV     DPTR,#MT_TaskID
        MOVX    A,@DPTR
        MOV     R1,A
        LCALL   ??osal_set_event?relay
        SJMP    ??MT_AfDataRequest_10
//  445       }
//  446     }
//  447   }
//  448   else
//  449   {
//  450     retValue = AF_DataRequest(&dstAddr, epDesc, cId, dataLen, pBuf, &transId, txOpts, radius);
??MT_AfDataRequest_6:
        ; Setup parameters for call to function AF_DataRequest
        MOV     R0,#?V0 + 5
        LCALL   ?PUSH_XSTACK_I_ONE
          CFI CFA_XSP16 add(XSP16, 37)
        MOV     A,#0x2
        LCALL   ?XSTACK_DISP0_8
        MOV     ?V0 + 8,DPL
        MOV     ?V0 + 9,DPH
        MOV     R0,#?V0 + 8
        LCALL   ?PUSH_XSTACK_I_TWO
          CFI CFA_XSP16 add(XSP16, 39)
        MOV     R0,#?V0 + 2
        LCALL   ?PUSH_XSTACK_I_TWO
          CFI CFA_XSP16 add(XSP16, 41)
        MOV     ?V0 + 2,R6
        MOV     ?V0 + 3,R7
        MOV     R0,#?V0 + 2
        LCALL   ?PUSH_XSTACK_I_TWO
          CFI CFA_XSP16 add(XSP16, 43)
        MOV     R0,#?V0 + 0
        LCALL   ?PUSH_XSTACK_I_TWO
          CFI CFA_XSP16 add(XSP16, 45)
        MOV     R1,?V0 + 4
        MOV     R4,?V0 + 12
        MOV     R5,?V0 + 13
        MOV     A,#0xb
        LCALL   ?XSTACK_DISP0_8
        MOV     R2,DPL
        MOV     R3,DPH
        LCALL   ??AF_DataRequest?relay
        MOV     A,#0x9
        LCALL   ?DEALLOC_XSTACK8
          CFI CFA_XSP16 add(XSP16, 36)
        MOV     A,R1
        MOV     DPL,?XSP + 0
        MOV     DPH,?XSP + 1
??MT_AfDataRequest_8:
        MOVX    @DPTR,A
//  451   }
//  452 
//  453   if (MT_RPC_CMD_SREQ == (cmd0 & MT_RPC_CMD_TYPE_MASK))
??MT_AfDataRequest_10:
        MOV     A,#-0x20
        ANL     A,?V0 + 7
        XRL     A,#0x20
        JNZ     ??MT_AfDataRequest_11
//  454   {
//  455     MT_BuildAndSendZToolResponse(((uint8)MT_RPC_CMD_SRSP|(uint8)MT_RPC_SYS_AF), cmd1, 1, &retValue);
        ; Setup parameters for call to function MT_BuildAndSendZToolResponse
        MOV     DPL,?XSP + 0
        MOV     DPH,?XSP + 1
        MOV     R4,DPL
        MOV     R5,DPH
        MOV     R3,#0x1
        MOV     R2,?V0 + 6
        MOV     R1,#0x64
        LCALL   ??MT_BuildAndSendZToolResponse?relay
          CFI EndBlock cfiBlock10
//  456   }
//  457 }
??MT_AfDataRequest_11:
        REQUIRE ?Subroutine2
        ; // Fall through to label ?Subroutine2

        RSEG BANKED_CODE:CODE:NOROOT(0)
?Subroutine2:
          CFI Block cfiBlock11 Using cfiCommon0
          CFI NoFunction
          CFI CFA_SP SP+0
          CFI CFA_XSP16 add(XSP16, 36)
          CFI VB load(1, XDATA, add(CFA_XSP16, literal(-21)))
          CFI DPL0 load(1, XDATA, add(CFA_XSP16, literal(-2)))
          CFI DPH0 load(1, XDATA, add(CFA_XSP16, literal(-1)))
          CFI R6 load(1, XDATA, add(CFA_XSP16, literal(-22)))
          CFI R7 load(1, XDATA, add(CFA_XSP16, literal(-6)))
          CFI V0 load(1, XDATA, add(CFA_XSP16, literal(-20)))
          CFI V1 load(1, XDATA, add(CFA_XSP16, literal(-19)))
          CFI V2 load(1, XDATA, add(CFA_XSP16, literal(-18)))
          CFI V3 load(1, XDATA, add(CFA_XSP16, literal(-17)))
          CFI V4 load(1, XDATA, add(CFA_XSP16, literal(-16)))
          CFI V5 load(1, XDATA, add(CFA_XSP16, literal(-15)))
          CFI V6 load(1, XDATA, add(CFA_XSP16, literal(-14)))
          CFI V7 load(1, XDATA, add(CFA_XSP16, literal(-13)))
          CFI V8 load(1, XDATA, add(CFA_XSP16, literal(-12)))
          CFI V9 load(1, XDATA, add(CFA_XSP16, literal(-11)))
          CFI V10 load(1, XDATA, add(CFA_XSP16, literal(-10)))
          CFI V11 load(1, XDATA, add(CFA_XSP16, literal(-9)))
          CFI V12 load(1, XDATA, add(CFA_XSP16, literal(-8)))
          CFI V13 load(1, XDATA, add(CFA_XSP16, literal(-7)))
          CFI ?BRET_EXT load(1, XDATA, add(CFA_XSP16, literal(-3)))
          CFI ?RET_HIGH load(1, XDATA, add(CFA_XSP16, literal(-4)))
          CFI ?RET_LOW load(1, XDATA, add(CFA_XSP16, literal(-5)))
        MOV     A,#0xe
        LCALL   ?DEALLOC_XSTACK8
          CFI CFA_XSP16 add(XSP16, 22)
        MOV     R7,#0xe
        LJMP    ?BANKED_LEAVE_XDATA
          CFI EndBlock cfiBlock11

        RSEG BANKED_CODE:CODE:NOROOT(0)
?Subroutine38:
          CFI Block cfiCond12 Using cfiCommon0
          CFI Function MT_AfDataRequest
          CFI Conditional ??CrossCallReturnLabel_64
          CFI R6 load(1, XDATA, add(CFA_XSP16, literal(-22)))
          CFI VB load(1, XDATA, add(CFA_XSP16, literal(-21)))
          CFI V0 load(1, XDATA, add(CFA_XSP16, literal(-20)))
          CFI V1 load(1, XDATA, add(CFA_XSP16, literal(-19)))
          CFI V2 load(1, XDATA, add(CFA_XSP16, literal(-18)))
          CFI V3 load(1, XDATA, add(CFA_XSP16, literal(-17)))
          CFI V4 load(1, XDATA, add(CFA_XSP16, literal(-16)))
          CFI V5 load(1, XDATA, add(CFA_XSP16, literal(-15)))
          CFI V6 load(1, XDATA, add(CFA_XSP16, literal(-14)))
          CFI V7 load(1, XDATA, add(CFA_XSP16, literal(-13)))
          CFI V8 load(1, XDATA, add(CFA_XSP16, literal(-12)))
          CFI V9 load(1, XDATA, add(CFA_XSP16, literal(-11)))
          CFI V10 load(1, XDATA, add(CFA_XSP16, literal(-10)))
          CFI V11 load(1, XDATA, add(CFA_XSP16, literal(-9)))
          CFI V12 load(1, XDATA, add(CFA_XSP16, literal(-8)))
          CFI V13 load(1, XDATA, add(CFA_XSP16, literal(-7)))
          CFI R7 load(1, XDATA, add(CFA_XSP16, literal(-6)))
          CFI ?RET_LOW load(1, XDATA, add(CFA_XSP16, literal(-5)))
          CFI ?RET_HIGH load(1, XDATA, add(CFA_XSP16, literal(-4)))
          CFI ?BRET_EXT load(1, XDATA, add(CFA_XSP16, literal(-3)))
          CFI DPL0 load(1, XDATA, add(CFA_XSP16, literal(-2)))
          CFI DPH0 load(1, XDATA, add(CFA_XSP16, literal(-1)))
          CFI CFA_SP SP+0
          CFI CFA_XSP16 add(XSP16, 36)
          CFI Block cfiCond13 Using cfiCommon0
          CFI (cfiCond13) Function MT_AfDataRequest
          CFI (cfiCond13) Conditional ??CrossCallReturnLabel_65
          CFI (cfiCond13) R6 load(1, XDATA, add(CFA_XSP16, literal(-22)))
          CFI (cfiCond13) VB load(1, XDATA, add(CFA_XSP16, literal(-21)))
          CFI (cfiCond13) V0 load(1, XDATA, add(CFA_XSP16, literal(-20)))
          CFI (cfiCond13) V1 load(1, XDATA, add(CFA_XSP16, literal(-19)))
          CFI (cfiCond13) V2 load(1, XDATA, add(CFA_XSP16, literal(-18)))
          CFI (cfiCond13) V3 load(1, XDATA, add(CFA_XSP16, literal(-17)))
          CFI (cfiCond13) V4 load(1, XDATA, add(CFA_XSP16, literal(-16)))
          CFI (cfiCond13) V5 load(1, XDATA, add(CFA_XSP16, literal(-15)))
          CFI (cfiCond13) V6 load(1, XDATA, add(CFA_XSP16, literal(-14)))
          CFI (cfiCond13) V7 load(1, XDATA, add(CFA_XSP16, literal(-13)))
          CFI (cfiCond13) V8 load(1, XDATA, add(CFA_XSP16, literal(-12)))
          CFI (cfiCond13) V9 load(1, XDATA, add(CFA_XSP16, literal(-11)))
          CFI (cfiCond13) V10 load(1, XDATA, add(CFA_XSP16, literal(-10)))
          CFI (cfiCond13) V11 load(1, XDATA, add(CFA_XSP16, literal(-9)))
          CFI (cfiCond13) V12 load(1, XDATA, add(CFA_XSP16, literal(-8)))
          CFI (cfiCond13) V13 load(1, XDATA, add(CFA_XSP16, literal(-7)))
          CFI (cfiCond13) R7 load(1, XDATA, add(CFA_XSP16, literal(-6)))
          CFI (cfiCond13) ?RET_LOW load(1, XDATA, add(CFA_XSP16, literal(-5)))
          CFI (cfiCond13) ?RET_HIGH load(1, XDATA, add(CFA_XSP16, literal(-4)))
          CFI (cfiCond13) ?BRET_EXT load(1, XDATA, add(CFA_XSP16, literal(-3)))
          CFI (cfiCond13) DPL0 load(1, XDATA, add(CFA_XSP16, literal(-2)))
          CFI (cfiCond13) DPH0 load(1, XDATA, add(CFA_XSP16, literal(-1)))
          CFI (cfiCond13) CFA_SP SP+0
          CFI (cfiCond13) CFA_XSP16 add(XSP16, 36)
          CFI Block cfiPicker14 Using cfiCommon1
          CFI (cfiPicker14) NoFunction
          CFI (cfiPicker14) Picker
        MOV     A,?V0 + 2
        ADD     A,#0x2
        MOV     ?V0 + 2,A
        MOV     A,?V0 + 3
        ADDC    A,#0x0
        MOV     ?V0 + 3,A
        RET
          CFI EndBlock cfiCond12
          CFI EndBlock cfiCond13
          CFI EndBlock cfiPicker14

        RSEG BANKED_CODE:CODE:NOROOT(0)
?Subroutine31:
          CFI Block cfiCond15 Using cfiCommon0
          CFI Function MT_AfDataRequest
          CFI Conditional ??CrossCallReturnLabel_42
          CFI R6 load(1, XDATA, add(CFA_XSP16, literal(-22)))
          CFI VB load(1, XDATA, add(CFA_XSP16, literal(-21)))
          CFI V0 load(1, XDATA, add(CFA_XSP16, literal(-20)))
          CFI V1 load(1, XDATA, add(CFA_XSP16, literal(-19)))
          CFI V2 load(1, XDATA, add(CFA_XSP16, literal(-18)))
          CFI V3 load(1, XDATA, add(CFA_XSP16, literal(-17)))
          CFI V4 load(1, XDATA, add(CFA_XSP16, literal(-16)))
          CFI V5 load(1, XDATA, add(CFA_XSP16, literal(-15)))
          CFI V6 load(1, XDATA, add(CFA_XSP16, literal(-14)))
          CFI V7 load(1, XDATA, add(CFA_XSP16, literal(-13)))
          CFI V8 load(1, XDATA, add(CFA_XSP16, literal(-12)))
          CFI V9 load(1, XDATA, add(CFA_XSP16, literal(-11)))
          CFI V10 load(1, XDATA, add(CFA_XSP16, literal(-10)))
          CFI V11 load(1, XDATA, add(CFA_XSP16, literal(-9)))
          CFI V12 load(1, XDATA, add(CFA_XSP16, literal(-8)))
          CFI V13 load(1, XDATA, add(CFA_XSP16, literal(-7)))
          CFI R7 load(1, XDATA, add(CFA_XSP16, literal(-6)))
          CFI ?RET_LOW load(1, XDATA, add(CFA_XSP16, literal(-5)))
          CFI ?RET_HIGH load(1, XDATA, add(CFA_XSP16, literal(-4)))
          CFI ?BRET_EXT load(1, XDATA, add(CFA_XSP16, literal(-3)))
          CFI DPL0 load(1, XDATA, add(CFA_XSP16, literal(-2)))
          CFI DPH0 load(1, XDATA, add(CFA_XSP16, literal(-1)))
          CFI CFA_SP SP+0
          CFI CFA_XSP16 add(XSP16, 36)
          CFI Block cfiCond16 Using cfiCommon0
          CFI (cfiCond16) Function MT_AfDataRequest
          CFI (cfiCond16) Conditional ??CrossCallReturnLabel_43
          CFI (cfiCond16) R6 load(1, XDATA, add(CFA_XSP16, literal(-22)))
          CFI (cfiCond16) VB load(1, XDATA, add(CFA_XSP16, literal(-21)))
          CFI (cfiCond16) V0 load(1, XDATA, add(CFA_XSP16, literal(-20)))
          CFI (cfiCond16) V1 load(1, XDATA, add(CFA_XSP16, literal(-19)))
          CFI (cfiCond16) V2 load(1, XDATA, add(CFA_XSP16, literal(-18)))
          CFI (cfiCond16) V3 load(1, XDATA, add(CFA_XSP16, literal(-17)))
          CFI (cfiCond16) V4 load(1, XDATA, add(CFA_XSP16, literal(-16)))
          CFI (cfiCond16) V5 load(1, XDATA, add(CFA_XSP16, literal(-15)))
          CFI (cfiCond16) V6 load(1, XDATA, add(CFA_XSP16, literal(-14)))
          CFI (cfiCond16) V7 load(1, XDATA, add(CFA_XSP16, literal(-13)))
          CFI (cfiCond16) V8 load(1, XDATA, add(CFA_XSP16, literal(-12)))
          CFI (cfiCond16) V9 load(1, XDATA, add(CFA_XSP16, literal(-11)))
          CFI (cfiCond16) V10 load(1, XDATA, add(CFA_XSP16, literal(-10)))
          CFI (cfiCond16) V11 load(1, XDATA, add(CFA_XSP16, literal(-9)))
          CFI (cfiCond16) V12 load(1, XDATA, add(CFA_XSP16, literal(-8)))
          CFI (cfiCond16) V13 load(1, XDATA, add(CFA_XSP16, literal(-7)))
          CFI (cfiCond16) R7 load(1, XDATA, add(CFA_XSP16, literal(-6)))
          CFI (cfiCond16) ?RET_LOW load(1, XDATA, add(CFA_XSP16, literal(-5)))
          CFI (cfiCond16) ?RET_HIGH load(1, XDATA, add(CFA_XSP16, literal(-4)))
          CFI (cfiCond16) ?BRET_EXT load(1, XDATA, add(CFA_XSP16, literal(-3)))
          CFI (cfiCond16) DPL0 load(1, XDATA, add(CFA_XSP16, literal(-2)))
          CFI (cfiCond16) DPH0 load(1, XDATA, add(CFA_XSP16, literal(-1)))
          CFI (cfiCond16) CFA_SP SP+0
          CFI (cfiCond16) CFA_XSP16 add(XSP16, 36)
          CFI Block cfiPicker17 Using cfiCommon1
          CFI (cfiPicker17) NoFunction
          CFI (cfiPicker17) Picker
        LCALL   ?Subroutine50 & 0xFFFF
??CrossCallReturnLabel_85:
        MOV     ?V0 + 2,DPL
        MOV     ?V0 + 3,DPH
        RET
          CFI EndBlock cfiCond15
          CFI EndBlock cfiCond16
          CFI EndBlock cfiPicker17

        RSEG BANKED_CODE:CODE:NOROOT(0)
?Subroutine50:
          CFI Block cfiCond18 Using cfiCommon0
          CFI Function MT_AfDataRequest
          CFI Conditional ??CrossCallReturnLabel_84
          CFI R6 load(1, XDATA, add(CFA_XSP16, literal(-22)))
          CFI VB load(1, XDATA, add(CFA_XSP16, literal(-21)))
          CFI V0 load(1, XDATA, add(CFA_XSP16, literal(-20)))
          CFI V1 load(1, XDATA, add(CFA_XSP16, literal(-19)))
          CFI V2 load(1, XDATA, add(CFA_XSP16, literal(-18)))
          CFI V3 load(1, XDATA, add(CFA_XSP16, literal(-17)))
          CFI V4 load(1, XDATA, add(CFA_XSP16, literal(-16)))
          CFI V5 load(1, XDATA, add(CFA_XSP16, literal(-15)))
          CFI V6 load(1, XDATA, add(CFA_XSP16, literal(-14)))
          CFI V7 load(1, XDATA, add(CFA_XSP16, literal(-13)))
          CFI V8 load(1, XDATA, add(CFA_XSP16, literal(-12)))
          CFI V9 load(1, XDATA, add(CFA_XSP16, literal(-11)))
          CFI V10 load(1, XDATA, add(CFA_XSP16, literal(-10)))
          CFI V11 load(1, XDATA, add(CFA_XSP16, literal(-9)))
          CFI V12 load(1, XDATA, add(CFA_XSP16, literal(-8)))
          CFI V13 load(1, XDATA, add(CFA_XSP16, literal(-7)))
          CFI R7 load(1, XDATA, add(CFA_XSP16, literal(-6)))
          CFI ?RET_LOW load(1, XDATA, add(CFA_XSP16, literal(-5)))
          CFI ?RET_HIGH load(1, XDATA, add(CFA_XSP16, literal(-4)))
          CFI ?BRET_EXT load(1, XDATA, add(CFA_XSP16, literal(-3)))
          CFI DPL0 load(1, XDATA, add(CFA_XSP16, literal(-2)))
          CFI DPH0 load(1, XDATA, add(CFA_XSP16, literal(-1)))
          CFI CFA_SP SP+0
          CFI CFA_XSP16 add(XSP16, 36)
          CFI Block cfiCond19 Using cfiCommon0
          CFI (cfiCond19) Function MT_AfDataRequest
          CFI (cfiCond19) Conditional ??CrossCallReturnLabel_85, ??CrossCallReturnLabel_42
          CFI (cfiCond19) R6 load(1, XDATA, add(CFA_XSP16, literal(-22)))
          CFI (cfiCond19) VB load(1, XDATA, add(CFA_XSP16, literal(-21)))
          CFI (cfiCond19) V0 load(1, XDATA, add(CFA_XSP16, literal(-20)))
          CFI (cfiCond19) V1 load(1, XDATA, add(CFA_XSP16, literal(-19)))
          CFI (cfiCond19) V2 load(1, XDATA, add(CFA_XSP16, literal(-18)))
          CFI (cfiCond19) V3 load(1, XDATA, add(CFA_XSP16, literal(-17)))
          CFI (cfiCond19) V4 load(1, XDATA, add(CFA_XSP16, literal(-16)))
          CFI (cfiCond19) V5 load(1, XDATA, add(CFA_XSP16, literal(-15)))
          CFI (cfiCond19) V6 load(1, XDATA, add(CFA_XSP16, literal(-14)))
          CFI (cfiCond19) V7 load(1, XDATA, add(CFA_XSP16, literal(-13)))
          CFI (cfiCond19) V8 load(1, XDATA, add(CFA_XSP16, literal(-12)))
          CFI (cfiCond19) V9 load(1, XDATA, add(CFA_XSP16, literal(-11)))
          CFI (cfiCond19) V10 load(1, XDATA, add(CFA_XSP16, literal(-10)))
          CFI (cfiCond19) V11 load(1, XDATA, add(CFA_XSP16, literal(-9)))
          CFI (cfiCond19) V12 load(1, XDATA, add(CFA_XSP16, literal(-8)))
          CFI (cfiCond19) V13 load(1, XDATA, add(CFA_XSP16, literal(-7)))
          CFI (cfiCond19) R7 load(1, XDATA, add(CFA_XSP16, literal(-6)))
          CFI (cfiCond19) ?RET_LOW load(1, XDATA, add(CFA_XSP16, literal(-5)))
          CFI (cfiCond19) ?RET_HIGH load(1, XDATA, add(CFA_XSP16, literal(-4)))
          CFI (cfiCond19) ?BRET_EXT load(1, XDATA, add(CFA_XSP16, literal(-3)))
          CFI (cfiCond19) DPL0 load(1, XDATA, add(CFA_XSP16, literal(-2)))
          CFI (cfiCond19) DPH0 load(1, XDATA, add(CFA_XSP16, literal(-1)))
          CFI (cfiCond19) CFA_SP SP+0
          CFI (cfiCond19) CFA_XSP16 add(XSP16, 36)
          CFI Block cfiCond20 Using cfiCommon0
          CFI (cfiCond20) Function MT_AfDataRequest
          CFI (cfiCond20) Conditional ??CrossCallReturnLabel_85, ??CrossCallReturnLabel_43
          CFI (cfiCond20) R6 load(1, XDATA, add(CFA_XSP16, literal(-22)))
          CFI (cfiCond20) VB load(1, XDATA, add(CFA_XSP16, literal(-21)))
          CFI (cfiCond20) V0 load(1, XDATA, add(CFA_XSP16, literal(-20)))
          CFI (cfiCond20) V1 load(1, XDATA, add(CFA_XSP16, literal(-19)))
          CFI (cfiCond20) V2 load(1, XDATA, add(CFA_XSP16, literal(-18)))
          CFI (cfiCond20) V3 load(1, XDATA, add(CFA_XSP16, literal(-17)))
          CFI (cfiCond20) V4 load(1, XDATA, add(CFA_XSP16, literal(-16)))
          CFI (cfiCond20) V5 load(1, XDATA, add(CFA_XSP16, literal(-15)))
          CFI (cfiCond20) V6 load(1, XDATA, add(CFA_XSP16, literal(-14)))
          CFI (cfiCond20) V7 load(1, XDATA, add(CFA_XSP16, literal(-13)))
          CFI (cfiCond20) V8 load(1, XDATA, add(CFA_XSP16, literal(-12)))
          CFI (cfiCond20) V9 load(1, XDATA, add(CFA_XSP16, literal(-11)))
          CFI (cfiCond20) V10 load(1, XDATA, add(CFA_XSP16, literal(-10)))
          CFI (cfiCond20) V11 load(1, XDATA, add(CFA_XSP16, literal(-9)))
          CFI (cfiCond20) V12 load(1, XDATA, add(CFA_XSP16, literal(-8)))
          CFI (cfiCond20) V13 load(1, XDATA, add(CFA_XSP16, literal(-7)))
          CFI (cfiCond20) R7 load(1, XDATA, add(CFA_XSP16, literal(-6)))
          CFI (cfiCond20) ?RET_LOW load(1, XDATA, add(CFA_XSP16, literal(-5)))
          CFI (cfiCond20) ?RET_HIGH load(1, XDATA, add(CFA_XSP16, literal(-4)))
          CFI (cfiCond20) ?BRET_EXT load(1, XDATA, add(CFA_XSP16, literal(-3)))
          CFI (cfiCond20) DPL0 load(1, XDATA, add(CFA_XSP16, literal(-2)))
          CFI (cfiCond20) DPH0 load(1, XDATA, add(CFA_XSP16, literal(-1)))
          CFI (cfiCond20) CFA_SP SP+0
          CFI (cfiCond20) CFA_XSP16 add(XSP16, 36)
          CFI Block cfiPicker21 Using cfiCommon1
          CFI (cfiPicker21) NoFunction
          CFI (cfiPicker21) Picker
        MOVX    @DPTR,A
        MOV     DPL,?V0 + 2
        MOV     DPH,?V0 + 3
        INC     DPTR
        RET
          CFI EndBlock cfiCond18
          CFI EndBlock cfiCond19
          CFI EndBlock cfiCond20
          CFI EndBlock cfiPicker21

        RSEG BANKED_CODE:CODE:NOROOT(0)
?Subroutine23:
          CFI Block cfiCond22 Using cfiCommon0
          CFI Function MT_AfDataRequest
          CFI Conditional ??CrossCallReturnLabel_90
          CFI R6 load(1, XDATA, add(CFA_XSP16, literal(-22)))
          CFI VB load(1, XDATA, add(CFA_XSP16, literal(-21)))
          CFI V0 load(1, XDATA, add(CFA_XSP16, literal(-20)))
          CFI V1 load(1, XDATA, add(CFA_XSP16, literal(-19)))
          CFI V2 load(1, XDATA, add(CFA_XSP16, literal(-18)))
          CFI V3 load(1, XDATA, add(CFA_XSP16, literal(-17)))
          CFI V4 load(1, XDATA, add(CFA_XSP16, literal(-16)))
          CFI V5 load(1, XDATA, add(CFA_XSP16, literal(-15)))
          CFI V6 load(1, XDATA, add(CFA_XSP16, literal(-14)))
          CFI V7 load(1, XDATA, add(CFA_XSP16, literal(-13)))
          CFI V8 load(1, XDATA, add(CFA_XSP16, literal(-12)))
          CFI V9 load(1, XDATA, add(CFA_XSP16, literal(-11)))
          CFI V10 load(1, XDATA, add(CFA_XSP16, literal(-10)))
          CFI V11 load(1, XDATA, add(CFA_XSP16, literal(-9)))
          CFI V12 load(1, XDATA, add(CFA_XSP16, literal(-8)))
          CFI V13 load(1, XDATA, add(CFA_XSP16, literal(-7)))
          CFI R7 load(1, XDATA, add(CFA_XSP16, literal(-6)))
          CFI ?RET_LOW load(1, XDATA, add(CFA_XSP16, literal(-5)))
          CFI ?RET_HIGH load(1, XDATA, add(CFA_XSP16, literal(-4)))
          CFI ?BRET_EXT load(1, XDATA, add(CFA_XSP16, literal(-3)))
          CFI DPL0 load(1, XDATA, add(CFA_XSP16, literal(-2)))
          CFI DPH0 load(1, XDATA, add(CFA_XSP16, literal(-1)))
          CFI CFA_SP SP+0
          CFI CFA_XSP16 add(XSP16, 36)
          CFI Block cfiCond23 Using cfiCommon0
          CFI (cfiCond23) Function MT_AfDataRequest
          CFI (cfiCond23) Conditional ??CrossCallReturnLabel_91
          CFI (cfiCond23) R6 load(1, XDATA, add(CFA_XSP16, literal(-22)))
          CFI (cfiCond23) VB load(1, XDATA, add(CFA_XSP16, literal(-21)))
          CFI (cfiCond23) V0 load(1, XDATA, add(CFA_XSP16, literal(-20)))
          CFI (cfiCond23) V1 load(1, XDATA, add(CFA_XSP16, literal(-19)))
          CFI (cfiCond23) V2 load(1, XDATA, add(CFA_XSP16, literal(-18)))
          CFI (cfiCond23) V3 load(1, XDATA, add(CFA_XSP16, literal(-17)))
          CFI (cfiCond23) V4 load(1, XDATA, add(CFA_XSP16, literal(-16)))
          CFI (cfiCond23) V5 load(1, XDATA, add(CFA_XSP16, literal(-15)))
          CFI (cfiCond23) V6 load(1, XDATA, add(CFA_XSP16, literal(-14)))
          CFI (cfiCond23) V7 load(1, XDATA, add(CFA_XSP16, literal(-13)))
          CFI (cfiCond23) V8 load(1, XDATA, add(CFA_XSP16, literal(-12)))
          CFI (cfiCond23) V9 load(1, XDATA, add(CFA_XSP16, literal(-11)))
          CFI (cfiCond23) V10 load(1, XDATA, add(CFA_XSP16, literal(-10)))
          CFI (cfiCond23) V11 load(1, XDATA, add(CFA_XSP16, literal(-9)))
          CFI (cfiCond23) V12 load(1, XDATA, add(CFA_XSP16, literal(-8)))
          CFI (cfiCond23) V13 load(1, XDATA, add(CFA_XSP16, literal(-7)))
          CFI (cfiCond23) R7 load(1, XDATA, add(CFA_XSP16, literal(-6)))
          CFI (cfiCond23) ?RET_LOW load(1, XDATA, add(CFA_XSP16, literal(-5)))
          CFI (cfiCond23) ?RET_HIGH load(1, XDATA, add(CFA_XSP16, literal(-4)))
          CFI (cfiCond23) ?BRET_EXT load(1, XDATA, add(CFA_XSP16, literal(-3)))
          CFI (cfiCond23) DPL0 load(1, XDATA, add(CFA_XSP16, literal(-2)))
          CFI (cfiCond23) DPH0 load(1, XDATA, add(CFA_XSP16, literal(-1)))
          CFI (cfiCond23) CFA_SP SP+0
          CFI (cfiCond23) CFA_XSP16 add(XSP16, 36)
          CFI Block cfiPicker24 Using cfiCommon1
          CFI (cfiPicker24) NoFunction
          CFI (cfiPicker24) Picker
        MOV     A,?V0 + 2
        ADD     A,#0x2
          CFI EndBlock cfiCond22
          CFI EndBlock cfiCond23
          CFI EndBlock cfiPicker24
        REQUIRE ??Subroutine54_0
        ; // Fall through to label ??Subroutine54_0

        RSEG BANKED_CODE:CODE:NOROOT(0)
??Subroutine54_0:
          CFI Block cfiCond25 Using cfiCommon0
          CFI Function MT_AfDataRequest
          CFI Conditional ??CrossCallReturnLabel_92
          CFI R6 load(1, XDATA, add(CFA_XSP16, literal(-22)))
          CFI VB load(1, XDATA, add(CFA_XSP16, literal(-21)))
          CFI V0 load(1, XDATA, add(CFA_XSP16, literal(-20)))
          CFI V1 load(1, XDATA, add(CFA_XSP16, literal(-19)))
          CFI V2 load(1, XDATA, add(CFA_XSP16, literal(-18)))
          CFI V3 load(1, XDATA, add(CFA_XSP16, literal(-17)))
          CFI V4 load(1, XDATA, add(CFA_XSP16, literal(-16)))
          CFI V5 load(1, XDATA, add(CFA_XSP16, literal(-15)))
          CFI V6 load(1, XDATA, add(CFA_XSP16, literal(-14)))
          CFI V7 load(1, XDATA, add(CFA_XSP16, literal(-13)))
          CFI V8 load(1, XDATA, add(CFA_XSP16, literal(-12)))
          CFI V9 load(1, XDATA, add(CFA_XSP16, literal(-11)))
          CFI V10 load(1, XDATA, add(CFA_XSP16, literal(-10)))
          CFI V11 load(1, XDATA, add(CFA_XSP16, literal(-9)))
          CFI V12 load(1, XDATA, add(CFA_XSP16, literal(-8)))
          CFI V13 load(1, XDATA, add(CFA_XSP16, literal(-7)))
          CFI R7 load(1, XDATA, add(CFA_XSP16, literal(-6)))
          CFI ?RET_LOW load(1, XDATA, add(CFA_XSP16, literal(-5)))
          CFI ?RET_HIGH load(1, XDATA, add(CFA_XSP16, literal(-4)))
          CFI ?BRET_EXT load(1, XDATA, add(CFA_XSP16, literal(-3)))
          CFI DPL0 load(1, XDATA, add(CFA_XSP16, literal(-2)))
          CFI DPH0 load(1, XDATA, add(CFA_XSP16, literal(-1)))
          CFI CFA_SP SP+0
          CFI CFA_XSP16 add(XSP16, 36)
          CFI Block cfiCond26 Using cfiCommon0
          CFI (cfiCond26) Function MT_AfDataRequest
          CFI (cfiCond26) Conditional ??CrossCallReturnLabel_90
          CFI (cfiCond26) R6 load(1, XDATA, add(CFA_XSP16, literal(-22)))
          CFI (cfiCond26) VB load(1, XDATA, add(CFA_XSP16, literal(-21)))
          CFI (cfiCond26) V0 load(1, XDATA, add(CFA_XSP16, literal(-20)))
          CFI (cfiCond26) V1 load(1, XDATA, add(CFA_XSP16, literal(-19)))
          CFI (cfiCond26) V2 load(1, XDATA, add(CFA_XSP16, literal(-18)))
          CFI (cfiCond26) V3 load(1, XDATA, add(CFA_XSP16, literal(-17)))
          CFI (cfiCond26) V4 load(1, XDATA, add(CFA_XSP16, literal(-16)))
          CFI (cfiCond26) V5 load(1, XDATA, add(CFA_XSP16, literal(-15)))
          CFI (cfiCond26) V6 load(1, XDATA, add(CFA_XSP16, literal(-14)))
          CFI (cfiCond26) V7 load(1, XDATA, add(CFA_XSP16, literal(-13)))
          CFI (cfiCond26) V8 load(1, XDATA, add(CFA_XSP16, literal(-12)))
          CFI (cfiCond26) V9 load(1, XDATA, add(CFA_XSP16, literal(-11)))
          CFI (cfiCond26) V10 load(1, XDATA, add(CFA_XSP16, literal(-10)))
          CFI (cfiCond26) V11 load(1, XDATA, add(CFA_XSP16, literal(-9)))
          CFI (cfiCond26) V12 load(1, XDATA, add(CFA_XSP16, literal(-8)))
          CFI (cfiCond26) V13 load(1, XDATA, add(CFA_XSP16, literal(-7)))
          CFI (cfiCond26) R7 load(1, XDATA, add(CFA_XSP16, literal(-6)))
          CFI (cfiCond26) ?RET_LOW load(1, XDATA, add(CFA_XSP16, literal(-5)))
          CFI (cfiCond26) ?RET_HIGH load(1, XDATA, add(CFA_XSP16, literal(-4)))
          CFI (cfiCond26) ?BRET_EXT load(1, XDATA, add(CFA_XSP16, literal(-3)))
          CFI (cfiCond26) DPL0 load(1, XDATA, add(CFA_XSP16, literal(-2)))
          CFI (cfiCond26) DPH0 load(1, XDATA, add(CFA_XSP16, literal(-1)))
          CFI (cfiCond26) CFA_SP SP+0
          CFI (cfiCond26) CFA_XSP16 add(XSP16, 36)
          CFI Block cfiCond27 Using cfiCommon0
          CFI (cfiCond27) Function MT_AfDataRequest
          CFI (cfiCond27) Conditional ??CrossCallReturnLabel_91
          CFI (cfiCond27) R6 load(1, XDATA, add(CFA_XSP16, literal(-22)))
          CFI (cfiCond27) VB load(1, XDATA, add(CFA_XSP16, literal(-21)))
          CFI (cfiCond27) V0 load(1, XDATA, add(CFA_XSP16, literal(-20)))
          CFI (cfiCond27) V1 load(1, XDATA, add(CFA_XSP16, literal(-19)))
          CFI (cfiCond27) V2 load(1, XDATA, add(CFA_XSP16, literal(-18)))
          CFI (cfiCond27) V3 load(1, XDATA, add(CFA_XSP16, literal(-17)))
          CFI (cfiCond27) V4 load(1, XDATA, add(CFA_XSP16, literal(-16)))
          CFI (cfiCond27) V5 load(1, XDATA, add(CFA_XSP16, literal(-15)))
          CFI (cfiCond27) V6 load(1, XDATA, add(CFA_XSP16, literal(-14)))
          CFI (cfiCond27) V7 load(1, XDATA, add(CFA_XSP16, literal(-13)))
          CFI (cfiCond27) V8 load(1, XDATA, add(CFA_XSP16, literal(-12)))
          CFI (cfiCond27) V9 load(1, XDATA, add(CFA_XSP16, literal(-11)))
          CFI (cfiCond27) V10 load(1, XDATA, add(CFA_XSP16, literal(-10)))
          CFI (cfiCond27) V11 load(1, XDATA, add(CFA_XSP16, literal(-9)))
          CFI (cfiCond27) V12 load(1, XDATA, add(CFA_XSP16, literal(-8)))
          CFI (cfiCond27) V13 load(1, XDATA, add(CFA_XSP16, literal(-7)))
          CFI (cfiCond27) R7 load(1, XDATA, add(CFA_XSP16, literal(-6)))
          CFI (cfiCond27) ?RET_LOW load(1, XDATA, add(CFA_XSP16, literal(-5)))
          CFI (cfiCond27) ?RET_HIGH load(1, XDATA, add(CFA_XSP16, literal(-4)))
          CFI (cfiCond27) ?BRET_EXT load(1, XDATA, add(CFA_XSP16, literal(-3)))
          CFI (cfiCond27) DPL0 load(1, XDATA, add(CFA_XSP16, literal(-2)))
          CFI (cfiCond27) DPH0 load(1, XDATA, add(CFA_XSP16, literal(-1)))
          CFI (cfiCond27) CFA_SP SP+0
          CFI (cfiCond27) CFA_XSP16 add(XSP16, 36)
          CFI Block cfiPicker28 Using cfiCommon1
          CFI (cfiPicker28) NoFunction
          CFI (cfiPicker28) Picker
        MOV     ?V0 + 2,A
        MOV     A,?V0 + 3
        LCALL   ?Subroutine41 & 0xFFFF
??CrossCallReturnLabel_94:
        MOVX    A,@DPTR
        RET
          CFI EndBlock cfiCond25
          CFI EndBlock cfiCond26
          CFI EndBlock cfiCond27
          CFI EndBlock cfiPicker28

        RSEG BANKED_CODE:CODE:NOROOT(0)
?Subroutine41:
          CFI Block cfiCond29 Using cfiCommon0
          CFI Function MT_AfDataRequest
          CFI Conditional ??CrossCallReturnLabel_93
          CFI R6 load(1, XDATA, add(CFA_XSP16, literal(-22)))
          CFI VB load(1, XDATA, add(CFA_XSP16, literal(-21)))
          CFI V0 load(1, XDATA, add(CFA_XSP16, literal(-20)))
          CFI V1 load(1, XDATA, add(CFA_XSP16, literal(-19)))
          CFI V2 load(1, XDATA, add(CFA_XSP16, literal(-18)))
          CFI V3 load(1, XDATA, add(CFA_XSP16, literal(-17)))
          CFI V4 load(1, XDATA, add(CFA_XSP16, literal(-16)))
          CFI V5 load(1, XDATA, add(CFA_XSP16, literal(-15)))
          CFI V6 load(1, XDATA, add(CFA_XSP16, literal(-14)))
          CFI V7 load(1, XDATA, add(CFA_XSP16, literal(-13)))
          CFI V8 load(1, XDATA, add(CFA_XSP16, literal(-12)))
          CFI V9 load(1, XDATA, add(CFA_XSP16, literal(-11)))
          CFI V10 load(1, XDATA, add(CFA_XSP16, literal(-10)))
          CFI V11 load(1, XDATA, add(CFA_XSP16, literal(-9)))
          CFI V12 load(1, XDATA, add(CFA_XSP16, literal(-8)))
          CFI V13 load(1, XDATA, add(CFA_XSP16, literal(-7)))
          CFI R7 load(1, XDATA, add(CFA_XSP16, literal(-6)))
          CFI ?RET_LOW load(1, XDATA, add(CFA_XSP16, literal(-5)))
          CFI ?RET_HIGH load(1, XDATA, add(CFA_XSP16, literal(-4)))
          CFI ?BRET_EXT load(1, XDATA, add(CFA_XSP16, literal(-3)))
          CFI DPL0 load(1, XDATA, add(CFA_XSP16, literal(-2)))
          CFI DPH0 load(1, XDATA, add(CFA_XSP16, literal(-1)))
          CFI CFA_SP SP+0
          CFI CFA_XSP16 add(XSP16, 36)
          CFI Block cfiCond30 Using cfiCommon0
          CFI (cfiCond30) Function MT_AfDataRequest
          CFI (cfiCond30) Conditional ??CrossCallReturnLabel_94, ??CrossCallReturnLabel_90
          CFI (cfiCond30) R6 load(1, XDATA, add(CFA_XSP16, literal(-22)))
          CFI (cfiCond30) VB load(1, XDATA, add(CFA_XSP16, literal(-21)))
          CFI (cfiCond30) V0 load(1, XDATA, add(CFA_XSP16, literal(-20)))
          CFI (cfiCond30) V1 load(1, XDATA, add(CFA_XSP16, literal(-19)))
          CFI (cfiCond30) V2 load(1, XDATA, add(CFA_XSP16, literal(-18)))
          CFI (cfiCond30) V3 load(1, XDATA, add(CFA_XSP16, literal(-17)))
          CFI (cfiCond30) V4 load(1, XDATA, add(CFA_XSP16, literal(-16)))
          CFI (cfiCond30) V5 load(1, XDATA, add(CFA_XSP16, literal(-15)))
          CFI (cfiCond30) V6 load(1, XDATA, add(CFA_XSP16, literal(-14)))
          CFI (cfiCond30) V7 load(1, XDATA, add(CFA_XSP16, literal(-13)))
          CFI (cfiCond30) V8 load(1, XDATA, add(CFA_XSP16, literal(-12)))
          CFI (cfiCond30) V9 load(1, XDATA, add(CFA_XSP16, literal(-11)))
          CFI (cfiCond30) V10 load(1, XDATA, add(CFA_XSP16, literal(-10)))
          CFI (cfiCond30) V11 load(1, XDATA, add(CFA_XSP16, literal(-9)))
          CFI (cfiCond30) V12 load(1, XDATA, add(CFA_XSP16, literal(-8)))
          CFI (cfiCond30) V13 load(1, XDATA, add(CFA_XSP16, literal(-7)))
          CFI (cfiCond30) R7 load(1, XDATA, add(CFA_XSP16, literal(-6)))
          CFI (cfiCond30) ?RET_LOW load(1, XDATA, add(CFA_XSP16, literal(-5)))
          CFI (cfiCond30) ?RET_HIGH load(1, XDATA, add(CFA_XSP16, literal(-4)))
          CFI (cfiCond30) ?BRET_EXT load(1, XDATA, add(CFA_XSP16, literal(-3)))
          CFI (cfiCond30) DPL0 load(1, XDATA, add(CFA_XSP16, literal(-2)))
          CFI (cfiCond30) DPH0 load(1, XDATA, add(CFA_XSP16, literal(-1)))
          CFI (cfiCond30) CFA_SP SP+0
          CFI (cfiCond30) CFA_XSP16 add(XSP16, 36)
          CFI Block cfiCond31 Using cfiCommon0
          CFI (cfiCond31) Function MT_AfDataRequest
          CFI (cfiCond31) Conditional ??CrossCallReturnLabel_94, ??CrossCallReturnLabel_91
          CFI (cfiCond31) R6 load(1, XDATA, add(CFA_XSP16, literal(-22)))
          CFI (cfiCond31) VB load(1, XDATA, add(CFA_XSP16, literal(-21)))
          CFI (cfiCond31) V0 load(1, XDATA, add(CFA_XSP16, literal(-20)))
          CFI (cfiCond31) V1 load(1, XDATA, add(CFA_XSP16, literal(-19)))
          CFI (cfiCond31) V2 load(1, XDATA, add(CFA_XSP16, literal(-18)))
          CFI (cfiCond31) V3 load(1, XDATA, add(CFA_XSP16, literal(-17)))
          CFI (cfiCond31) V4 load(1, XDATA, add(CFA_XSP16, literal(-16)))
          CFI (cfiCond31) V5 load(1, XDATA, add(CFA_XSP16, literal(-15)))
          CFI (cfiCond31) V6 load(1, XDATA, add(CFA_XSP16, literal(-14)))
          CFI (cfiCond31) V7 load(1, XDATA, add(CFA_XSP16, literal(-13)))
          CFI (cfiCond31) V8 load(1, XDATA, add(CFA_XSP16, literal(-12)))
          CFI (cfiCond31) V9 load(1, XDATA, add(CFA_XSP16, literal(-11)))
          CFI (cfiCond31) V10 load(1, XDATA, add(CFA_XSP16, literal(-10)))
          CFI (cfiCond31) V11 load(1, XDATA, add(CFA_XSP16, literal(-9)))
          CFI (cfiCond31) V12 load(1, XDATA, add(CFA_XSP16, literal(-8)))
          CFI (cfiCond31) V13 load(1, XDATA, add(CFA_XSP16, literal(-7)))
          CFI (cfiCond31) R7 load(1, XDATA, add(CFA_XSP16, literal(-6)))
          CFI (cfiCond31) ?RET_LOW load(1, XDATA, add(CFA_XSP16, literal(-5)))
          CFI (cfiCond31) ?RET_HIGH load(1, XDATA, add(CFA_XSP16, literal(-4)))
          CFI (cfiCond31) ?BRET_EXT load(1, XDATA, add(CFA_XSP16, literal(-3)))
          CFI (cfiCond31) DPL0 load(1, XDATA, add(CFA_XSP16, literal(-2)))
          CFI (cfiCond31) DPH0 load(1, XDATA, add(CFA_XSP16, literal(-1)))
          CFI (cfiCond31) CFA_SP SP+0
          CFI (cfiCond31) CFA_XSP16 add(XSP16, 36)
          CFI Block cfiCond32 Using cfiCommon0
          CFI (cfiCond32) Function MT_AfDataRequest
          CFI (cfiCond32) Conditional ??CrossCallReturnLabel_94, ??CrossCallReturnLabel_92
          CFI (cfiCond32) R6 load(1, XDATA, add(CFA_XSP16, literal(-22)))
          CFI (cfiCond32) VB load(1, XDATA, add(CFA_XSP16, literal(-21)))
          CFI (cfiCond32) V0 load(1, XDATA, add(CFA_XSP16, literal(-20)))
          CFI (cfiCond32) V1 load(1, XDATA, add(CFA_XSP16, literal(-19)))
          CFI (cfiCond32) V2 load(1, XDATA, add(CFA_XSP16, literal(-18)))
          CFI (cfiCond32) V3 load(1, XDATA, add(CFA_XSP16, literal(-17)))
          CFI (cfiCond32) V4 load(1, XDATA, add(CFA_XSP16, literal(-16)))
          CFI (cfiCond32) V5 load(1, XDATA, add(CFA_XSP16, literal(-15)))
          CFI (cfiCond32) V6 load(1, XDATA, add(CFA_XSP16, literal(-14)))
          CFI (cfiCond32) V7 load(1, XDATA, add(CFA_XSP16, literal(-13)))
          CFI (cfiCond32) V8 load(1, XDATA, add(CFA_XSP16, literal(-12)))
          CFI (cfiCond32) V9 load(1, XDATA, add(CFA_XSP16, literal(-11)))
          CFI (cfiCond32) V10 load(1, XDATA, add(CFA_XSP16, literal(-10)))
          CFI (cfiCond32) V11 load(1, XDATA, add(CFA_XSP16, literal(-9)))
          CFI (cfiCond32) V12 load(1, XDATA, add(CFA_XSP16, literal(-8)))
          CFI (cfiCond32) V13 load(1, XDATA, add(CFA_XSP16, literal(-7)))
          CFI (cfiCond32) R7 load(1, XDATA, add(CFA_XSP16, literal(-6)))
          CFI (cfiCond32) ?RET_LOW load(1, XDATA, add(CFA_XSP16, literal(-5)))
          CFI (cfiCond32) ?RET_HIGH load(1, XDATA, add(CFA_XSP16, literal(-4)))
          CFI (cfiCond32) ?BRET_EXT load(1, XDATA, add(CFA_XSP16, literal(-3)))
          CFI (cfiCond32) DPL0 load(1, XDATA, add(CFA_XSP16, literal(-2)))
          CFI (cfiCond32) DPH0 load(1, XDATA, add(CFA_XSP16, literal(-1)))
          CFI (cfiCond32) CFA_SP SP+0
          CFI (cfiCond32) CFA_XSP16 add(XSP16, 36)
          CFI Block cfiPicker33 Using cfiCommon1
          CFI (cfiPicker33) NoFunction
          CFI (cfiPicker33) Picker
        ADDC    A,#0x0
        MOV     ?V0 + 3,A
        MOV     DPL,?V0 + 2
        MOV     DPH,A
        RET
          CFI EndBlock cfiCond29
          CFI EndBlock cfiCond30
          CFI EndBlock cfiCond31
          CFI EndBlock cfiCond32
          CFI EndBlock cfiPicker33

        RSEG BANKED_CODE:CODE:NOROOT(0)
?Subroutine10:
          CFI Block cfiCond34 Using cfiCommon0
          CFI Function MT_AfExec
          CFI Conditional ??CrossCallReturnLabel_7
          CFI R6 load(1, XDATA, add(CFA_XSP16, literal(-9)))
          CFI VB load(1, XDATA, add(CFA_XSP16, literal(-8)))
          CFI V0 load(1, XDATA, add(CFA_XSP16, literal(-7)))
          CFI R7 load(1, XDATA, add(CFA_XSP16, literal(-6)))
          CFI ?RET_LOW load(1, XDATA, add(CFA_XSP16, literal(-5)))
          CFI ?RET_HIGH load(1, XDATA, add(CFA_XSP16, literal(-4)))
          CFI ?BRET_EXT load(1, XDATA, add(CFA_XSP16, literal(-3)))
          CFI DPL0 load(1, XDATA, add(CFA_XSP16, literal(-2)))
          CFI DPH0 load(1, XDATA, add(CFA_XSP16, literal(-1)))
          CFI CFA_SP SP+0
          CFI CFA_XSP16 add(XSP16, 9)
          CFI Block cfiCond35 Using cfiCommon0
          CFI (cfiCond35) Function MT_AfDataRequest
          CFI (cfiCond35) Conditional ??CrossCallReturnLabel_6
          CFI (cfiCond35) R6 load(1, XDATA, add(CFA_XSP16, literal(-22)))
          CFI (cfiCond35) VB load(1, XDATA, add(CFA_XSP16, literal(-21)))
          CFI (cfiCond35) V0 load(1, XDATA, add(CFA_XSP16, literal(-20)))
          CFI (cfiCond35) V1 load(1, XDATA, add(CFA_XSP16, literal(-19)))
          CFI (cfiCond35) V2 load(1, XDATA, add(CFA_XSP16, literal(-18)))
          CFI (cfiCond35) V3 load(1, XDATA, add(CFA_XSP16, literal(-17)))
          CFI (cfiCond35) V4 load(1, XDATA, add(CFA_XSP16, literal(-16)))
          CFI (cfiCond35) V5 load(1, XDATA, add(CFA_XSP16, literal(-15)))
          CFI (cfiCond35) V6 load(1, XDATA, add(CFA_XSP16, literal(-14)))
          CFI (cfiCond35) V7 load(1, XDATA, add(CFA_XSP16, literal(-13)))
          CFI (cfiCond35) V8 load(1, XDATA, add(CFA_XSP16, literal(-12)))
          CFI (cfiCond35) V9 load(1, XDATA, add(CFA_XSP16, literal(-11)))
          CFI (cfiCond35) V10 load(1, XDATA, add(CFA_XSP16, literal(-10)))
          CFI (cfiCond35) V11 load(1, XDATA, add(CFA_XSP16, literal(-9)))
          CFI (cfiCond35) V12 load(1, XDATA, add(CFA_XSP16, literal(-8)))
          CFI (cfiCond35) V13 load(1, XDATA, add(CFA_XSP16, literal(-7)))
          CFI (cfiCond35) R7 load(1, XDATA, add(CFA_XSP16, literal(-6)))
          CFI (cfiCond35) ?RET_LOW load(1, XDATA, add(CFA_XSP16, literal(-5)))
          CFI (cfiCond35) ?RET_HIGH load(1, XDATA, add(CFA_XSP16, literal(-4)))
          CFI (cfiCond35) ?BRET_EXT load(1, XDATA, add(CFA_XSP16, literal(-3)))
          CFI (cfiCond35) DPL0 load(1, XDATA, add(CFA_XSP16, literal(-2)))
          CFI (cfiCond35) DPH0 load(1, XDATA, add(CFA_XSP16, literal(-1)))
          CFI (cfiCond35) CFA_SP SP+0
          CFI (cfiCond35) CFA_XSP16 add(XSP16, 36)
          CFI Block cfiPicker36 Using cfiCommon1
          CFI (cfiPicker36) NoFunction
          CFI (cfiPicker36) Picker
        MOVX    @DPTR,A
        MOV     DPTR,#pMtAfDataReq
        MOVX    A,@DPTR
        MOV     R0,A
        INC     DPTR
        LCALL   ?Subroutine39 & 0xFFFF
??CrossCallReturnLabel_106:
        RET
          CFI EndBlock cfiCond34
          CFI EndBlock cfiCond35
          CFI EndBlock cfiPicker36

        RSEG BANKED_CODE:CODE:NOROOT(0)
?Subroutine39:
          CFI Block cfiCond37 Using cfiCommon0
          CFI Function MT_AfExec
          CFI Conditional ??CrossCallReturnLabel_105
          CFI R6 load(1, XDATA, add(CFA_XSP16, literal(-9)))
          CFI VB load(1, XDATA, add(CFA_XSP16, literal(-8)))
          CFI V0 load(1, XDATA, add(CFA_XSP16, literal(-7)))
          CFI R7 load(1, XDATA, add(CFA_XSP16, literal(-6)))
          CFI ?RET_LOW load(1, XDATA, add(CFA_XSP16, literal(-5)))
          CFI ?RET_HIGH load(1, XDATA, add(CFA_XSP16, literal(-4)))
          CFI ?BRET_EXT load(1, XDATA, add(CFA_XSP16, literal(-3)))
          CFI DPL0 load(1, XDATA, add(CFA_XSP16, literal(-2)))
          CFI DPH0 load(1, XDATA, add(CFA_XSP16, literal(-1)))
          CFI CFA_SP SP+0
          CFI CFA_XSP16 add(XSP16, 9)
          CFI Block cfiCond38 Using cfiCommon0
          CFI (cfiCond38) Function MT_AfExec
          CFI (cfiCond38) Conditional ??CrossCallReturnLabel_106, ??CrossCallReturnLabel_7
          CFI (cfiCond38) R6 load(1, XDATA, add(CFA_XSP16, literal(-9)))
          CFI (cfiCond38) VB load(1, XDATA, add(CFA_XSP16, literal(-8)))
          CFI (cfiCond38) V0 load(1, XDATA, add(CFA_XSP16, literal(-7)))
          CFI (cfiCond38) R7 load(1, XDATA, add(CFA_XSP16, literal(-6)))
          CFI (cfiCond38) ?RET_LOW load(1, XDATA, add(CFA_XSP16, literal(-5)))
          CFI (cfiCond38) ?RET_HIGH load(1, XDATA, add(CFA_XSP16, literal(-4)))
          CFI (cfiCond38) ?BRET_EXT load(1, XDATA, add(CFA_XSP16, literal(-3)))
          CFI (cfiCond38) DPL0 load(1, XDATA, add(CFA_XSP16, literal(-2)))
          CFI (cfiCond38) DPH0 load(1, XDATA, add(CFA_XSP16, literal(-1)))
          CFI (cfiCond38) CFA_SP SP+0
          CFI (cfiCond38) CFA_XSP16 add(XSP16, 9)
          CFI Block cfiCond39 Using cfiCommon0
          CFI (cfiCond39) Function MT_AfDataRequest
          CFI (cfiCond39) Conditional ??CrossCallReturnLabel_106, ??CrossCallReturnLabel_6
          CFI (cfiCond39) R6 load(1, XDATA, add(CFA_XSP16, literal(-22)))
          CFI (cfiCond39) VB load(1, XDATA, add(CFA_XSP16, literal(-21)))
          CFI (cfiCond39) V0 load(1, XDATA, add(CFA_XSP16, literal(-20)))
          CFI (cfiCond39) V1 load(1, XDATA, add(CFA_XSP16, literal(-19)))
          CFI (cfiCond39) V2 load(1, XDATA, add(CFA_XSP16, literal(-18)))
          CFI (cfiCond39) V3 load(1, XDATA, add(CFA_XSP16, literal(-17)))
          CFI (cfiCond39) V4 load(1, XDATA, add(CFA_XSP16, literal(-16)))
          CFI (cfiCond39) V5 load(1, XDATA, add(CFA_XSP16, literal(-15)))
          CFI (cfiCond39) V6 load(1, XDATA, add(CFA_XSP16, literal(-14)))
          CFI (cfiCond39) V7 load(1, XDATA, add(CFA_XSP16, literal(-13)))
          CFI (cfiCond39) V8 load(1, XDATA, add(CFA_XSP16, literal(-12)))
          CFI (cfiCond39) V9 load(1, XDATA, add(CFA_XSP16, literal(-11)))
          CFI (cfiCond39) V10 load(1, XDATA, add(CFA_XSP16, literal(-10)))
          CFI (cfiCond39) V11 load(1, XDATA, add(CFA_XSP16, literal(-9)))
          CFI (cfiCond39) V12 load(1, XDATA, add(CFA_XSP16, literal(-8)))
          CFI (cfiCond39) V13 load(1, XDATA, add(CFA_XSP16, literal(-7)))
          CFI (cfiCond39) R7 load(1, XDATA, add(CFA_XSP16, literal(-6)))
          CFI (cfiCond39) ?RET_LOW load(1, XDATA, add(CFA_XSP16, literal(-5)))
          CFI (cfiCond39) ?RET_HIGH load(1, XDATA, add(CFA_XSP16, literal(-4)))
          CFI (cfiCond39) ?BRET_EXT load(1, XDATA, add(CFA_XSP16, literal(-3)))
          CFI (cfiCond39) DPL0 load(1, XDATA, add(CFA_XSP16, literal(-2)))
          CFI (cfiCond39) DPH0 load(1, XDATA, add(CFA_XSP16, literal(-1)))
          CFI (cfiCond39) CFA_SP SP+0
          CFI (cfiCond39) CFA_XSP16 add(XSP16, 36)
          CFI Block cfiPicker40 Using cfiCommon1
          CFI (cfiPicker40) NoFunction
          CFI (cfiPicker40) Picker
        MOVX    A,@DPTR
        XCH     A,R0
        ADD     A,#0x17
          CFI EndBlock cfiCond37
          CFI EndBlock cfiCond38
          CFI EndBlock cfiCond39
          CFI EndBlock cfiPicker40
        REQUIRE ??Subroutine55_0
        ; // Fall through to label ??Subroutine55_0

        RSEG BANKED_CODE:CODE:NOROOT(0)
??Subroutine55_0:
          CFI Block cfiCond41 Using cfiCommon0
          CFI Function MT_AfDataRequest
          CFI Conditional ??CrossCallReturnLabel_99
          CFI R6 load(1, XDATA, add(CFA_XSP16, literal(-22)))
          CFI VB load(1, XDATA, add(CFA_XSP16, literal(-21)))
          CFI V0 load(1, XDATA, add(CFA_XSP16, literal(-20)))
          CFI V1 load(1, XDATA, add(CFA_XSP16, literal(-19)))
          CFI V2 load(1, XDATA, add(CFA_XSP16, literal(-18)))
          CFI V3 load(1, XDATA, add(CFA_XSP16, literal(-17)))
          CFI V4 load(1, XDATA, add(CFA_XSP16, literal(-16)))
          CFI V5 load(1, XDATA, add(CFA_XSP16, literal(-15)))
          CFI V6 load(1, XDATA, add(CFA_XSP16, literal(-14)))
          CFI V7 load(1, XDATA, add(CFA_XSP16, literal(-13)))
          CFI V8 load(1, XDATA, add(CFA_XSP16, literal(-12)))
          CFI V9 load(1, XDATA, add(CFA_XSP16, literal(-11)))
          CFI V10 load(1, XDATA, add(CFA_XSP16, literal(-10)))
          CFI V11 load(1, XDATA, add(CFA_XSP16, literal(-9)))
          CFI V12 load(1, XDATA, add(CFA_XSP16, literal(-8)))
          CFI V13 load(1, XDATA, add(CFA_XSP16, literal(-7)))
          CFI R7 load(1, XDATA, add(CFA_XSP16, literal(-6)))
          CFI ?RET_LOW load(1, XDATA, add(CFA_XSP16, literal(-5)))
          CFI ?RET_HIGH load(1, XDATA, add(CFA_XSP16, literal(-4)))
          CFI ?BRET_EXT load(1, XDATA, add(CFA_XSP16, literal(-3)))
          CFI DPL0 load(1, XDATA, add(CFA_XSP16, literal(-2)))
          CFI DPH0 load(1, XDATA, add(CFA_XSP16, literal(-1)))
          CFI CFA_SP SP+-1
          CFI CFA_XSP16 add(XSP16, 36)
          CFI Block cfiCond42 Using cfiCommon0
          CFI (cfiCond42) Function MT_AfDataRequest
          CFI (cfiCond42) Conditional ??CrossCallReturnLabel_104, ??CrossCallReturnLabel_19
          CFI (cfiCond42) R6 load(1, XDATA, add(CFA_XSP16, literal(-22)))
          CFI (cfiCond42) VB load(1, XDATA, add(CFA_XSP16, literal(-21)))
          CFI (cfiCond42) V0 load(1, XDATA, add(CFA_XSP16, literal(-20)))
          CFI (cfiCond42) V1 load(1, XDATA, add(CFA_XSP16, literal(-19)))
          CFI (cfiCond42) V2 load(1, XDATA, add(CFA_XSP16, literal(-18)))
          CFI (cfiCond42) V3 load(1, XDATA, add(CFA_XSP16, literal(-17)))
          CFI (cfiCond42) V4 load(1, XDATA, add(CFA_XSP16, literal(-16)))
          CFI (cfiCond42) V5 load(1, XDATA, add(CFA_XSP16, literal(-15)))
          CFI (cfiCond42) V6 load(1, XDATA, add(CFA_XSP16, literal(-14)))
          CFI (cfiCond42) V7 load(1, XDATA, add(CFA_XSP16, literal(-13)))
          CFI (cfiCond42) V8 load(1, XDATA, add(CFA_XSP16, literal(-12)))
          CFI (cfiCond42) V9 load(1, XDATA, add(CFA_XSP16, literal(-11)))
          CFI (cfiCond42) V10 load(1, XDATA, add(CFA_XSP16, literal(-10)))
          CFI (cfiCond42) V11 load(1, XDATA, add(CFA_XSP16, literal(-9)))
          CFI (cfiCond42) V12 load(1, XDATA, add(CFA_XSP16, literal(-8)))
          CFI (cfiCond42) V13 load(1, XDATA, add(CFA_XSP16, literal(-7)))
          CFI (cfiCond42) R7 load(1, XDATA, add(CFA_XSP16, literal(-6)))
          CFI (cfiCond42) ?RET_LOW load(1, XDATA, add(CFA_XSP16, literal(-5)))
          CFI (cfiCond42) ?RET_HIGH load(1, XDATA, add(CFA_XSP16, literal(-4)))
          CFI (cfiCond42) ?BRET_EXT load(1, XDATA, add(CFA_XSP16, literal(-3)))
          CFI (cfiCond42) DPL0 load(1, XDATA, add(CFA_XSP16, literal(-2)))
          CFI (cfiCond42) DPH0 load(1, XDATA, add(CFA_XSP16, literal(-1)))
          CFI (cfiCond42) CFA_SP SP+0
          CFI (cfiCond42) CFA_XSP16 add(XSP16, 36)
          CFI Block cfiCond43 Using cfiCommon0
          CFI (cfiCond43) Function MT_AfDataStore
          CFI (cfiCond43) Conditional ??CrossCallReturnLabel_104, ??CrossCallReturnLabel_20
          CFI (cfiCond43) R6 load(1, XDATA, add(CFA_XSP16, literal(-14)))
          CFI (cfiCond43) VB load(1, XDATA, add(CFA_XSP16, literal(-13)))
          CFI (cfiCond43) V0 load(1, XDATA, add(CFA_XSP16, literal(-12)))
          CFI (cfiCond43) V1 load(1, XDATA, add(CFA_XSP16, literal(-11)))
          CFI (cfiCond43) V2 load(1, XDATA, add(CFA_XSP16, literal(-10)))
          CFI (cfiCond43) V3 load(1, XDATA, add(CFA_XSP16, literal(-9)))
          CFI (cfiCond43) V4 load(1, XDATA, add(CFA_XSP16, literal(-8)))
          CFI (cfiCond43) V5 load(1, XDATA, add(CFA_XSP16, literal(-7)))
          CFI (cfiCond43) R7 load(1, XDATA, add(CFA_XSP16, literal(-6)))
          CFI (cfiCond43) ?RET_LOW load(1, XDATA, add(CFA_XSP16, literal(-5)))
          CFI (cfiCond43) ?RET_HIGH load(1, XDATA, add(CFA_XSP16, literal(-4)))
          CFI (cfiCond43) ?BRET_EXT load(1, XDATA, add(CFA_XSP16, literal(-3)))
          CFI (cfiCond43) DPL0 load(1, XDATA, add(CFA_XSP16, literal(-2)))
          CFI (cfiCond43) DPH0 load(1, XDATA, add(CFA_XSP16, literal(-1)))
          CFI (cfiCond43) CFA_SP SP+0
          CFI (cfiCond43) CFA_XSP16 add(XSP16, 15)
          CFI Block cfiCond44 Using cfiCommon0
          CFI (cfiCond44) Function MT_AfDataRequest
          CFI (cfiCond44) Conditional ??CrossCallReturnLabel_103, ??CrossCallReturnLabel_14
          CFI (cfiCond44) R6 load(1, XDATA, add(CFA_XSP16, literal(-22)))
          CFI (cfiCond44) VB load(1, XDATA, add(CFA_XSP16, literal(-21)))
          CFI (cfiCond44) V0 load(1, XDATA, add(CFA_XSP16, literal(-20)))
          CFI (cfiCond44) V1 load(1, XDATA, add(CFA_XSP16, literal(-19)))
          CFI (cfiCond44) V2 load(1, XDATA, add(CFA_XSP16, literal(-18)))
          CFI (cfiCond44) V3 load(1, XDATA, add(CFA_XSP16, literal(-17)))
          CFI (cfiCond44) V4 load(1, XDATA, add(CFA_XSP16, literal(-16)))
          CFI (cfiCond44) V5 load(1, XDATA, add(CFA_XSP16, literal(-15)))
          CFI (cfiCond44) V6 load(1, XDATA, add(CFA_XSP16, literal(-14)))
          CFI (cfiCond44) V7 load(1, XDATA, add(CFA_XSP16, literal(-13)))
          CFI (cfiCond44) V8 load(1, XDATA, add(CFA_XSP16, literal(-12)))
          CFI (cfiCond44) V9 load(1, XDATA, add(CFA_XSP16, literal(-11)))
          CFI (cfiCond44) V10 load(1, XDATA, add(CFA_XSP16, literal(-10)))
          CFI (cfiCond44) V11 load(1, XDATA, add(CFA_XSP16, literal(-9)))
          CFI (cfiCond44) V12 load(1, XDATA, add(CFA_XSP16, literal(-8)))
          CFI (cfiCond44) V13 load(1, XDATA, add(CFA_XSP16, literal(-7)))
          CFI (cfiCond44) R7 load(1, XDATA, add(CFA_XSP16, literal(-6)))
          CFI (cfiCond44) ?RET_LOW load(1, XDATA, add(CFA_XSP16, literal(-5)))
          CFI (cfiCond44) ?RET_HIGH load(1, XDATA, add(CFA_XSP16, literal(-4)))
          CFI (cfiCond44) ?BRET_EXT load(1, XDATA, add(CFA_XSP16, literal(-3)))
          CFI (cfiCond44) DPL0 load(1, XDATA, add(CFA_XSP16, literal(-2)))
          CFI (cfiCond44) DPH0 load(1, XDATA, add(CFA_XSP16, literal(-1)))
          CFI (cfiCond44) CFA_SP SP+0
          CFI (cfiCond44) CFA_XSP16 add(XSP16, 36)
          CFI Block cfiCond45 Using cfiCommon0
          CFI (cfiCond45) Function MT_AfDataStore
          CFI (cfiCond45) Conditional ??CrossCallReturnLabel_103, ??CrossCallReturnLabel_15
          CFI (cfiCond45) R6 load(1, XDATA, add(CFA_XSP16, literal(-14)))
          CFI (cfiCond45) VB load(1, XDATA, add(CFA_XSP16, literal(-13)))
          CFI (cfiCond45) V0 load(1, XDATA, add(CFA_XSP16, literal(-12)))
          CFI (cfiCond45) V1 load(1, XDATA, add(CFA_XSP16, literal(-11)))
          CFI (cfiCond45) V2 load(1, XDATA, add(CFA_XSP16, literal(-10)))
          CFI (cfiCond45) V3 load(1, XDATA, add(CFA_XSP16, literal(-9)))
          CFI (cfiCond45) V4 load(1, XDATA, add(CFA_XSP16, literal(-8)))
          CFI (cfiCond45) V5 load(1, XDATA, add(CFA_XSP16, literal(-7)))
          CFI (cfiCond45) R7 load(1, XDATA, add(CFA_XSP16, literal(-6)))
          CFI (cfiCond45) ?RET_LOW load(1, XDATA, add(CFA_XSP16, literal(-5)))
          CFI (cfiCond45) ?RET_HIGH load(1, XDATA, add(CFA_XSP16, literal(-4)))
          CFI (cfiCond45) ?BRET_EXT load(1, XDATA, add(CFA_XSP16, literal(-3)))
          CFI (cfiCond45) DPL0 load(1, XDATA, add(CFA_XSP16, literal(-2)))
          CFI (cfiCond45) DPH0 load(1, XDATA, add(CFA_XSP16, literal(-1)))
          CFI (cfiCond45) CFA_SP SP+0
          CFI (cfiCond45) CFA_XSP16 add(XSP16, 24)
          CFI Block cfiCond46 Using cfiCommon0
          CFI (cfiCond46) Function MT_AfDataRequest
          CFI (cfiCond46) Conditional ??CrossCallReturnLabel_102, ??CrossCallReturnLabel_12
          CFI (cfiCond46) R6 load(1, XDATA, add(CFA_XSP16, literal(-22)))
          CFI (cfiCond46) VB load(1, XDATA, add(CFA_XSP16, literal(-21)))
          CFI (cfiCond46) V0 load(1, XDATA, add(CFA_XSP16, literal(-20)))
          CFI (cfiCond46) V1 load(1, XDATA, add(CFA_XSP16, literal(-19)))
          CFI (cfiCond46) V2 load(1, XDATA, add(CFA_XSP16, literal(-18)))
          CFI (cfiCond46) V3 load(1, XDATA, add(CFA_XSP16, literal(-17)))
          CFI (cfiCond46) V4 load(1, XDATA, add(CFA_XSP16, literal(-16)))
          CFI (cfiCond46) V5 load(1, XDATA, add(CFA_XSP16, literal(-15)))
          CFI (cfiCond46) V6 load(1, XDATA, add(CFA_XSP16, literal(-14)))
          CFI (cfiCond46) V7 load(1, XDATA, add(CFA_XSP16, literal(-13)))
          CFI (cfiCond46) V8 load(1, XDATA, add(CFA_XSP16, literal(-12)))
          CFI (cfiCond46) V9 load(1, XDATA, add(CFA_XSP16, literal(-11)))
          CFI (cfiCond46) V10 load(1, XDATA, add(CFA_XSP16, literal(-10)))
          CFI (cfiCond46) V11 load(1, XDATA, add(CFA_XSP16, literal(-9)))
          CFI (cfiCond46) V12 load(1, XDATA, add(CFA_XSP16, literal(-8)))
          CFI (cfiCond46) V13 load(1, XDATA, add(CFA_XSP16, literal(-7)))
          CFI (cfiCond46) R7 load(1, XDATA, add(CFA_XSP16, literal(-6)))
          CFI (cfiCond46) ?RET_LOW load(1, XDATA, add(CFA_XSP16, literal(-5)))
          CFI (cfiCond46) ?RET_HIGH load(1, XDATA, add(CFA_XSP16, literal(-4)))
          CFI (cfiCond46) ?BRET_EXT load(1, XDATA, add(CFA_XSP16, literal(-3)))
          CFI (cfiCond46) DPL0 load(1, XDATA, add(CFA_XSP16, literal(-2)))
          CFI (cfiCond46) DPH0 load(1, XDATA, add(CFA_XSP16, literal(-1)))
          CFI (cfiCond46) CFA_SP SP+0
          CFI (cfiCond46) CFA_XSP16 add(XSP16, 36)
          CFI Block cfiCond47 Using cfiCommon0
          CFI (cfiCond47) Function MT_AfDataStore
          CFI (cfiCond47) Conditional ??CrossCallReturnLabel_102, ??CrossCallReturnLabel_13
          CFI (cfiCond47) R6 load(1, XDATA, add(CFA_XSP16, literal(-14)))
          CFI (cfiCond47) VB load(1, XDATA, add(CFA_XSP16, literal(-13)))
          CFI (cfiCond47) V0 load(1, XDATA, add(CFA_XSP16, literal(-12)))
          CFI (cfiCond47) V1 load(1, XDATA, add(CFA_XSP16, literal(-11)))
          CFI (cfiCond47) V2 load(1, XDATA, add(CFA_XSP16, literal(-10)))
          CFI (cfiCond47) V3 load(1, XDATA, add(CFA_XSP16, literal(-9)))
          CFI (cfiCond47) V4 load(1, XDATA, add(CFA_XSP16, literal(-8)))
          CFI (cfiCond47) V5 load(1, XDATA, add(CFA_XSP16, literal(-7)))
          CFI (cfiCond47) R7 load(1, XDATA, add(CFA_XSP16, literal(-6)))
          CFI (cfiCond47) ?RET_LOW load(1, XDATA, add(CFA_XSP16, literal(-5)))
          CFI (cfiCond47) ?RET_HIGH load(1, XDATA, add(CFA_XSP16, literal(-4)))
          CFI (cfiCond47) ?BRET_EXT load(1, XDATA, add(CFA_XSP16, literal(-3)))
          CFI (cfiCond47) DPL0 load(1, XDATA, add(CFA_XSP16, literal(-2)))
          CFI (cfiCond47) DPH0 load(1, XDATA, add(CFA_XSP16, literal(-1)))
          CFI (cfiCond47) CFA_SP SP+0
          CFI (cfiCond47) CFA_XSP16 add(XSP16, 20)
          CFI Block cfiCond48 Using cfiCommon0
          CFI (cfiCond48) Function MT_AfDataRequest
          CFI (cfiCond48) Conditional ??CrossCallReturnLabel_101, ??CrossCallReturnLabel_10
          CFI (cfiCond48) R6 load(1, XDATA, add(CFA_XSP16, literal(-22)))
          CFI (cfiCond48) VB load(1, XDATA, add(CFA_XSP16, literal(-21)))
          CFI (cfiCond48) V0 load(1, XDATA, add(CFA_XSP16, literal(-20)))
          CFI (cfiCond48) V1 load(1, XDATA, add(CFA_XSP16, literal(-19)))
          CFI (cfiCond48) V2 load(1, XDATA, add(CFA_XSP16, literal(-18)))
          CFI (cfiCond48) V3 load(1, XDATA, add(CFA_XSP16, literal(-17)))
          CFI (cfiCond48) V4 load(1, XDATA, add(CFA_XSP16, literal(-16)))
          CFI (cfiCond48) V5 load(1, XDATA, add(CFA_XSP16, literal(-15)))
          CFI (cfiCond48) V6 load(1, XDATA, add(CFA_XSP16, literal(-14)))
          CFI (cfiCond48) V7 load(1, XDATA, add(CFA_XSP16, literal(-13)))
          CFI (cfiCond48) V8 load(1, XDATA, add(CFA_XSP16, literal(-12)))
          CFI (cfiCond48) V9 load(1, XDATA, add(CFA_XSP16, literal(-11)))
          CFI (cfiCond48) V10 load(1, XDATA, add(CFA_XSP16, literal(-10)))
          CFI (cfiCond48) V11 load(1, XDATA, add(CFA_XSP16, literal(-9)))
          CFI (cfiCond48) V12 load(1, XDATA, add(CFA_XSP16, literal(-8)))
          CFI (cfiCond48) V13 load(1, XDATA, add(CFA_XSP16, literal(-7)))
          CFI (cfiCond48) R7 load(1, XDATA, add(CFA_XSP16, literal(-6)))
          CFI (cfiCond48) ?RET_LOW load(1, XDATA, add(CFA_XSP16, literal(-5)))
          CFI (cfiCond48) ?RET_HIGH load(1, XDATA, add(CFA_XSP16, literal(-4)))
          CFI (cfiCond48) ?BRET_EXT load(1, XDATA, add(CFA_XSP16, literal(-3)))
          CFI (cfiCond48) DPL0 load(1, XDATA, add(CFA_XSP16, literal(-2)))
          CFI (cfiCond48) DPH0 load(1, XDATA, add(CFA_XSP16, literal(-1)))
          CFI (cfiCond48) CFA_SP SP+0
          CFI (cfiCond48) CFA_XSP16 add(XSP16, 36)
          CFI Block cfiCond49 Using cfiCommon0
          CFI (cfiCond49) Function MT_AfDataStore
          CFI (cfiCond49) Conditional ??CrossCallReturnLabel_101, ??CrossCallReturnLabel_11
          CFI (cfiCond49) R6 load(1, XDATA, add(CFA_XSP16, literal(-14)))
          CFI (cfiCond49) VB load(1, XDATA, add(CFA_XSP16, literal(-13)))
          CFI (cfiCond49) V0 load(1, XDATA, add(CFA_XSP16, literal(-12)))
          CFI (cfiCond49) V1 load(1, XDATA, add(CFA_XSP16, literal(-11)))
          CFI (cfiCond49) V2 load(1, XDATA, add(CFA_XSP16, literal(-10)))
          CFI (cfiCond49) V3 load(1, XDATA, add(CFA_XSP16, literal(-9)))
          CFI (cfiCond49) V4 load(1, XDATA, add(CFA_XSP16, literal(-8)))
          CFI (cfiCond49) V5 load(1, XDATA, add(CFA_XSP16, literal(-7)))
          CFI (cfiCond49) R7 load(1, XDATA, add(CFA_XSP16, literal(-6)))
          CFI (cfiCond49) ?RET_LOW load(1, XDATA, add(CFA_XSP16, literal(-5)))
          CFI (cfiCond49) ?RET_HIGH load(1, XDATA, add(CFA_XSP16, literal(-4)))
          CFI (cfiCond49) ?BRET_EXT load(1, XDATA, add(CFA_XSP16, literal(-3)))
          CFI (cfiCond49) DPL0 load(1, XDATA, add(CFA_XSP16, literal(-2)))
          CFI (cfiCond49) DPH0 load(1, XDATA, add(CFA_XSP16, literal(-1)))
          CFI (cfiCond49) CFA_SP SP+0
          CFI (cfiCond49) CFA_XSP16 add(XSP16, 22)
          CFI Block cfiCond50 Using cfiCommon0
          CFI (cfiCond50) Function MT_AfDataRequest
          CFI (cfiCond50) Conditional ??CrossCallReturnLabel_100, ??CrossCallReturnLabel_8
          CFI (cfiCond50) R6 load(1, XDATA, add(CFA_XSP16, literal(-22)))
          CFI (cfiCond50) VB load(1, XDATA, add(CFA_XSP16, literal(-21)))
          CFI (cfiCond50) V0 load(1, XDATA, add(CFA_XSP16, literal(-20)))
          CFI (cfiCond50) V1 load(1, XDATA, add(CFA_XSP16, literal(-19)))
          CFI (cfiCond50) V2 load(1, XDATA, add(CFA_XSP16, literal(-18)))
          CFI (cfiCond50) V3 load(1, XDATA, add(CFA_XSP16, literal(-17)))
          CFI (cfiCond50) V4 load(1, XDATA, add(CFA_XSP16, literal(-16)))
          CFI (cfiCond50) V5 load(1, XDATA, add(CFA_XSP16, literal(-15)))
          CFI (cfiCond50) V6 load(1, XDATA, add(CFA_XSP16, literal(-14)))
          CFI (cfiCond50) V7 load(1, XDATA, add(CFA_XSP16, literal(-13)))
          CFI (cfiCond50) V8 load(1, XDATA, add(CFA_XSP16, literal(-12)))
          CFI (cfiCond50) V9 load(1, XDATA, add(CFA_XSP16, literal(-11)))
          CFI (cfiCond50) V10 load(1, XDATA, add(CFA_XSP16, literal(-10)))
          CFI (cfiCond50) V11 load(1, XDATA, add(CFA_XSP16, literal(-9)))
          CFI (cfiCond50) V12 load(1, XDATA, add(CFA_XSP16, literal(-8)))
          CFI (cfiCond50) V13 load(1, XDATA, add(CFA_XSP16, literal(-7)))
          CFI (cfiCond50) R7 load(1, XDATA, add(CFA_XSP16, literal(-6)))
          CFI (cfiCond50) ?RET_LOW load(1, XDATA, add(CFA_XSP16, literal(-5)))
          CFI (cfiCond50) ?RET_HIGH load(1, XDATA, add(CFA_XSP16, literal(-4)))
          CFI (cfiCond50) ?BRET_EXT load(1, XDATA, add(CFA_XSP16, literal(-3)))
          CFI (cfiCond50) DPL0 load(1, XDATA, add(CFA_XSP16, literal(-2)))
          CFI (cfiCond50) DPH0 load(1, XDATA, add(CFA_XSP16, literal(-1)))
          CFI (cfiCond50) CFA_SP SP+0
          CFI (cfiCond50) CFA_XSP16 add(XSP16, 36)
          CFI Block cfiCond51 Using cfiCommon0
          CFI (cfiCond51) Function MT_AfDataStore
          CFI (cfiCond51) Conditional ??CrossCallReturnLabel_100, ??CrossCallReturnLabel_9
          CFI (cfiCond51) R6 load(1, XDATA, add(CFA_XSP16, literal(-14)))
          CFI (cfiCond51) VB load(1, XDATA, add(CFA_XSP16, literal(-13)))
          CFI (cfiCond51) V0 load(1, XDATA, add(CFA_XSP16, literal(-12)))
          CFI (cfiCond51) V1 load(1, XDATA, add(CFA_XSP16, literal(-11)))
          CFI (cfiCond51) V2 load(1, XDATA, add(CFA_XSP16, literal(-10)))
          CFI (cfiCond51) V3 load(1, XDATA, add(CFA_XSP16, literal(-9)))
          CFI (cfiCond51) V4 load(1, XDATA, add(CFA_XSP16, literal(-8)))
          CFI (cfiCond51) V5 load(1, XDATA, add(CFA_XSP16, literal(-7)))
          CFI (cfiCond51) R7 load(1, XDATA, add(CFA_XSP16, literal(-6)))
          CFI (cfiCond51) ?RET_LOW load(1, XDATA, add(CFA_XSP16, literal(-5)))
          CFI (cfiCond51) ?RET_HIGH load(1, XDATA, add(CFA_XSP16, literal(-4)))
          CFI (cfiCond51) ?BRET_EXT load(1, XDATA, add(CFA_XSP16, literal(-3)))
          CFI (cfiCond51) DPL0 load(1, XDATA, add(CFA_XSP16, literal(-2)))
          CFI (cfiCond51) DPH0 load(1, XDATA, add(CFA_XSP16, literal(-1)))
          CFI (cfiCond51) CFA_SP SP+0
          CFI (cfiCond51) CFA_XSP16 add(XSP16, 24)
          CFI Block cfiCond52 Using cfiCommon0
          CFI (cfiCond52) Function MT_AfExec
          CFI (cfiCond52) Conditional ??CrossCallReturnLabel_105
          CFI (cfiCond52) R6 load(1, XDATA, add(CFA_XSP16, literal(-9)))
          CFI (cfiCond52) VB load(1, XDATA, add(CFA_XSP16, literal(-8)))
          CFI (cfiCond52) V0 load(1, XDATA, add(CFA_XSP16, literal(-7)))
          CFI (cfiCond52) R7 load(1, XDATA, add(CFA_XSP16, literal(-6)))
          CFI (cfiCond52) ?RET_LOW load(1, XDATA, add(CFA_XSP16, literal(-5)))
          CFI (cfiCond52) ?RET_HIGH load(1, XDATA, add(CFA_XSP16, literal(-4)))
          CFI (cfiCond52) ?BRET_EXT load(1, XDATA, add(CFA_XSP16, literal(-3)))
          CFI (cfiCond52) DPL0 load(1, XDATA, add(CFA_XSP16, literal(-2)))
          CFI (cfiCond52) DPH0 load(1, XDATA, add(CFA_XSP16, literal(-1)))
          CFI (cfiCond52) CFA_SP SP+0
          CFI (cfiCond52) CFA_XSP16 add(XSP16, 9)
          CFI Block cfiCond53 Using cfiCommon0
          CFI (cfiCond53) Function MT_AfExec
          CFI (cfiCond53) Conditional ??CrossCallReturnLabel_106, ??CrossCallReturnLabel_7
          CFI (cfiCond53) R6 load(1, XDATA, add(CFA_XSP16, literal(-9)))
          CFI (cfiCond53) VB load(1, XDATA, add(CFA_XSP16, literal(-8)))
          CFI (cfiCond53) V0 load(1, XDATA, add(CFA_XSP16, literal(-7)))
          CFI (cfiCond53) R7 load(1, XDATA, add(CFA_XSP16, literal(-6)))
          CFI (cfiCond53) ?RET_LOW load(1, XDATA, add(CFA_XSP16, literal(-5)))
          CFI (cfiCond53) ?RET_HIGH load(1, XDATA, add(CFA_XSP16, literal(-4)))
          CFI (cfiCond53) ?BRET_EXT load(1, XDATA, add(CFA_XSP16, literal(-3)))
          CFI (cfiCond53) DPL0 load(1, XDATA, add(CFA_XSP16, literal(-2)))
          CFI (cfiCond53) DPH0 load(1, XDATA, add(CFA_XSP16, literal(-1)))
          CFI (cfiCond53) CFA_SP SP+0
          CFI (cfiCond53) CFA_XSP16 add(XSP16, 9)
          CFI Block cfiCond54 Using cfiCommon0
          CFI (cfiCond54) Function MT_AfDataRequest
          CFI (cfiCond54) Conditional ??CrossCallReturnLabel_106, ??CrossCallReturnLabel_6
          CFI (cfiCond54) R6 load(1, XDATA, add(CFA_XSP16, literal(-22)))
          CFI (cfiCond54) VB load(1, XDATA, add(CFA_XSP16, literal(-21)))
          CFI (cfiCond54) V0 load(1, XDATA, add(CFA_XSP16, literal(-20)))
          CFI (cfiCond54) V1 load(1, XDATA, add(CFA_XSP16, literal(-19)))
          CFI (cfiCond54) V2 load(1, XDATA, add(CFA_XSP16, literal(-18)))
          CFI (cfiCond54) V3 load(1, XDATA, add(CFA_XSP16, literal(-17)))
          CFI (cfiCond54) V4 load(1, XDATA, add(CFA_XSP16, literal(-16)))
          CFI (cfiCond54) V5 load(1, XDATA, add(CFA_XSP16, literal(-15)))
          CFI (cfiCond54) V6 load(1, XDATA, add(CFA_XSP16, literal(-14)))
          CFI (cfiCond54) V7 load(1, XDATA, add(CFA_XSP16, literal(-13)))
          CFI (cfiCond54) V8 load(1, XDATA, add(CFA_XSP16, literal(-12)))
          CFI (cfiCond54) V9 load(1, XDATA, add(CFA_XSP16, literal(-11)))
          CFI (cfiCond54) V10 load(1, XDATA, add(CFA_XSP16, literal(-10)))
          CFI (cfiCond54) V11 load(1, XDATA, add(CFA_XSP16, literal(-9)))
          CFI (cfiCond54) V12 load(1, XDATA, add(CFA_XSP16, literal(-8)))
          CFI (cfiCond54) V13 load(1, XDATA, add(CFA_XSP16, literal(-7)))
          CFI (cfiCond54) R7 load(1, XDATA, add(CFA_XSP16, literal(-6)))
          CFI (cfiCond54) ?RET_LOW load(1, XDATA, add(CFA_XSP16, literal(-5)))
          CFI (cfiCond54) ?RET_HIGH load(1, XDATA, add(CFA_XSP16, literal(-4)))
          CFI (cfiCond54) ?BRET_EXT load(1, XDATA, add(CFA_XSP16, literal(-3)))
          CFI (cfiCond54) DPL0 load(1, XDATA, add(CFA_XSP16, literal(-2)))
          CFI (cfiCond54) DPH0 load(1, XDATA, add(CFA_XSP16, literal(-1)))
          CFI (cfiCond54) CFA_SP SP+0
          CFI (cfiCond54) CFA_XSP16 add(XSP16, 36)
          CFI Block cfiPicker55 Using cfiCommon1
          CFI (cfiPicker55) NoFunction
          CFI (cfiPicker55) Picker
        MOV     DPL,A
        MOV     A,R0
          CFI EndBlock cfiCond41
          CFI EndBlock cfiCond42
          CFI EndBlock cfiCond43
          CFI EndBlock cfiCond44
          CFI EndBlock cfiCond45
          CFI EndBlock cfiCond46
          CFI EndBlock cfiCond47
          CFI EndBlock cfiCond48
          CFI EndBlock cfiCond49
          CFI EndBlock cfiCond50
          CFI EndBlock cfiCond51
          CFI EndBlock cfiCond52
          CFI EndBlock cfiCond53
          CFI EndBlock cfiCond54
          CFI EndBlock cfiPicker55
        REQUIRE ??Subroutine56_0
        ; // Fall through to label ??Subroutine56_0

        RSEG BANKED_CODE:CODE:NOROOT(0)
??Subroutine56_0:
          CFI Block cfiCond56 Using cfiCommon0
          CFI Function MT_AfExec
          CFI Conditional ??CrossCallReturnLabel_95
          CFI R6 load(1, XDATA, add(CFA_XSP16, literal(-9)))
          CFI VB load(1, XDATA, add(CFA_XSP16, literal(-8)))
          CFI V0 load(1, XDATA, add(CFA_XSP16, literal(-7)))
          CFI R7 load(1, XDATA, add(CFA_XSP16, literal(-6)))
          CFI ?RET_LOW load(1, XDATA, add(CFA_XSP16, literal(-5)))
          CFI ?RET_HIGH load(1, XDATA, add(CFA_XSP16, literal(-4)))
          CFI ?BRET_EXT load(1, XDATA, add(CFA_XSP16, literal(-3)))
          CFI DPL0 load(1, XDATA, add(CFA_XSP16, literal(-2)))
          CFI DPH0 load(1, XDATA, add(CFA_XSP16, literal(-1)))
          CFI CFA_SP SP+0
          CFI CFA_XSP16 add(XSP16, 9)
          CFI Block cfiCond57 Using cfiCommon0
          CFI (cfiCond57) Function MT_AfIncomingMsg
          CFI (cfiCond57) Conditional ??CrossCallReturnLabel_96
          CFI (cfiCond57) R6 load(1, XDATA, add(CFA_XSP16, literal(-24)))
          CFI (cfiCond57) VB load(1, XDATA, add(CFA_XSP16, literal(-23)))
          CFI (cfiCond57) V0 load(1, XDATA, add(CFA_XSP16, literal(-22)))
          CFI (cfiCond57) V1 load(1, XDATA, add(CFA_XSP16, literal(-21)))
          CFI (cfiCond57) V2 load(1, XDATA, add(CFA_XSP16, literal(-20)))
          CFI (cfiCond57) V3 load(1, XDATA, add(CFA_XSP16, literal(-19)))
          CFI (cfiCond57) V4 load(1, XDATA, add(CFA_XSP16, literal(-18)))
          CFI (cfiCond57) V5 load(1, XDATA, add(CFA_XSP16, literal(-17)))
          CFI (cfiCond57) V6 load(1, XDATA, add(CFA_XSP16, literal(-16)))
          CFI (cfiCond57) V7 load(1, XDATA, add(CFA_XSP16, literal(-15)))
          CFI (cfiCond57) V8 load(1, XDATA, add(CFA_XSP16, literal(-14)))
          CFI (cfiCond57) V9 load(1, XDATA, add(CFA_XSP16, literal(-13)))
          CFI (cfiCond57) V10 load(1, XDATA, add(CFA_XSP16, literal(-12)))
          CFI (cfiCond57) V11 load(1, XDATA, add(CFA_XSP16, literal(-11)))
          CFI (cfiCond57) V12 load(1, XDATA, add(CFA_XSP16, literal(-10)))
          CFI (cfiCond57) V13 load(1, XDATA, add(CFA_XSP16, literal(-9)))
          CFI (cfiCond57) V14 load(1, XDATA, add(CFA_XSP16, literal(-8)))
          CFI (cfiCond57) V15 load(1, XDATA, add(CFA_XSP16, literal(-7)))
          CFI (cfiCond57) R7 load(1, XDATA, add(CFA_XSP16, literal(-6)))
          CFI (cfiCond57) ?RET_LOW load(1, XDATA, add(CFA_XSP16, literal(-5)))
          CFI (cfiCond57) ?RET_HIGH load(1, XDATA, add(CFA_XSP16, literal(-4)))
          CFI (cfiCond57) ?BRET_EXT load(1, XDATA, add(CFA_XSP16, literal(-3)))
          CFI (cfiCond57) DPL0 load(1, XDATA, add(CFA_XSP16, literal(-2)))
          CFI (cfiCond57) DPH0 load(1, XDATA, add(CFA_XSP16, literal(-1)))
          CFI (cfiCond57) CFA_SP SP+0
          CFI (cfiCond57) CFA_XSP16 add(XSP16, 27)
          CFI Block cfiCond58 Using cfiCommon0
          CFI (cfiCond58) Function MT_AfIncomingMsg
          CFI (cfiCond58) Conditional ??CrossCallReturnLabel_97
          CFI (cfiCond58) R6 load(1, XDATA, add(CFA_XSP16, literal(-24)))
          CFI (cfiCond58) VB load(1, XDATA, add(CFA_XSP16, literal(-23)))
          CFI (cfiCond58) V0 load(1, XDATA, add(CFA_XSP16, literal(-22)))
          CFI (cfiCond58) V1 load(1, XDATA, add(CFA_XSP16, literal(-21)))
          CFI (cfiCond58) V2 load(1, XDATA, add(CFA_XSP16, literal(-20)))
          CFI (cfiCond58) V3 load(1, XDATA, add(CFA_XSP16, literal(-19)))
          CFI (cfiCond58) V4 load(1, XDATA, add(CFA_XSP16, literal(-18)))
          CFI (cfiCond58) V5 load(1, XDATA, add(CFA_XSP16, literal(-17)))
          CFI (cfiCond58) V6 load(1, XDATA, add(CFA_XSP16, literal(-16)))
          CFI (cfiCond58) V7 load(1, XDATA, add(CFA_XSP16, literal(-15)))
          CFI (cfiCond58) V8 load(1, XDATA, add(CFA_XSP16, literal(-14)))
          CFI (cfiCond58) V9 load(1, XDATA, add(CFA_XSP16, literal(-13)))
          CFI (cfiCond58) V10 load(1, XDATA, add(CFA_XSP16, literal(-12)))
          CFI (cfiCond58) V11 load(1, XDATA, add(CFA_XSP16, literal(-11)))
          CFI (cfiCond58) V12 load(1, XDATA, add(CFA_XSP16, literal(-10)))
          CFI (cfiCond58) V13 load(1, XDATA, add(CFA_XSP16, literal(-9)))
          CFI (cfiCond58) V14 load(1, XDATA, add(CFA_XSP16, literal(-8)))
          CFI (cfiCond58) V15 load(1, XDATA, add(CFA_XSP16, literal(-7)))
          CFI (cfiCond58) R7 load(1, XDATA, add(CFA_XSP16, literal(-6)))
          CFI (cfiCond58) ?RET_LOW load(1, XDATA, add(CFA_XSP16, literal(-5)))
          CFI (cfiCond58) ?RET_HIGH load(1, XDATA, add(CFA_XSP16, literal(-4)))
          CFI (cfiCond58) ?BRET_EXT load(1, XDATA, add(CFA_XSP16, literal(-3)))
          CFI (cfiCond58) DPL0 load(1, XDATA, add(CFA_XSP16, literal(-2)))
          CFI (cfiCond58) DPH0 load(1, XDATA, add(CFA_XSP16, literal(-1)))
          CFI (cfiCond58) CFA_SP SP+0
          CFI (cfiCond58) CFA_XSP16 add(XSP16, 27)
          CFI Block cfiCond59 Using cfiCommon0
          CFI (cfiCond59) Function MT_AfIncomingMsg
          CFI (cfiCond59) Conditional ??CrossCallReturnLabel_98, ??CrossCallReturnLabel_128
          CFI (cfiCond59) R6 load(1, XDATA, add(CFA_XSP16, literal(-24)))
          CFI (cfiCond59) VB load(1, XDATA, add(CFA_XSP16, literal(-23)))
          CFI (cfiCond59) V0 load(1, XDATA, add(CFA_XSP16, literal(-22)))
          CFI (cfiCond59) V1 load(1, XDATA, add(CFA_XSP16, literal(-21)))
          CFI (cfiCond59) V2 load(1, XDATA, add(CFA_XSP16, literal(-20)))
          CFI (cfiCond59) V3 load(1, XDATA, add(CFA_XSP16, literal(-19)))
          CFI (cfiCond59) V4 load(1, XDATA, add(CFA_XSP16, literal(-18)))
          CFI (cfiCond59) V5 load(1, XDATA, add(CFA_XSP16, literal(-17)))
          CFI (cfiCond59) V6 load(1, XDATA, add(CFA_XSP16, literal(-16)))
          CFI (cfiCond59) V7 load(1, XDATA, add(CFA_XSP16, literal(-15)))
          CFI (cfiCond59) V8 load(1, XDATA, add(CFA_XSP16, literal(-14)))
          CFI (cfiCond59) V9 load(1, XDATA, add(CFA_XSP16, literal(-13)))
          CFI (cfiCond59) V10 load(1, XDATA, add(CFA_XSP16, literal(-12)))
          CFI (cfiCond59) V11 load(1, XDATA, add(CFA_XSP16, literal(-11)))
          CFI (cfiCond59) V12 load(1, XDATA, add(CFA_XSP16, literal(-10)))
          CFI (cfiCond59) V13 load(1, XDATA, add(CFA_XSP16, literal(-9)))
          CFI (cfiCond59) V14 load(1, XDATA, add(CFA_XSP16, literal(-8)))
          CFI (cfiCond59) V15 load(1, XDATA, add(CFA_XSP16, literal(-7)))
          CFI (cfiCond59) R7 load(1, XDATA, add(CFA_XSP16, literal(-6)))
          CFI (cfiCond59) ?RET_LOW load(1, XDATA, add(CFA_XSP16, literal(-5)))
          CFI (cfiCond59) ?RET_HIGH load(1, XDATA, add(CFA_XSP16, literal(-4)))
          CFI (cfiCond59) ?BRET_EXT load(1, XDATA, add(CFA_XSP16, literal(-3)))
          CFI (cfiCond59) DPL0 load(1, XDATA, add(CFA_XSP16, literal(-2)))
          CFI (cfiCond59) DPH0 load(1, XDATA, add(CFA_XSP16, literal(-1)))
          CFI (cfiCond59) CFA_SP SP+0
          CFI (cfiCond59) CFA_XSP16 add(XSP16, 27)
          CFI Block cfiCond60 Using cfiCommon0
          CFI (cfiCond60) Function MT_AfIncomingMsg
          CFI (cfiCond60) Conditional ??CrossCallReturnLabel_98, ??CrossCallReturnLabel_129
          CFI (cfiCond60) R6 load(1, XDATA, add(CFA_XSP16, literal(-24)))
          CFI (cfiCond60) VB load(1, XDATA, add(CFA_XSP16, literal(-23)))
          CFI (cfiCond60) V0 load(1, XDATA, add(CFA_XSP16, literal(-22)))
          CFI (cfiCond60) V1 load(1, XDATA, add(CFA_XSP16, literal(-21)))
          CFI (cfiCond60) V2 load(1, XDATA, add(CFA_XSP16, literal(-20)))
          CFI (cfiCond60) V3 load(1, XDATA, add(CFA_XSP16, literal(-19)))
          CFI (cfiCond60) V4 load(1, XDATA, add(CFA_XSP16, literal(-18)))
          CFI (cfiCond60) V5 load(1, XDATA, add(CFA_XSP16, literal(-17)))
          CFI (cfiCond60) V6 load(1, XDATA, add(CFA_XSP16, literal(-16)))
          CFI (cfiCond60) V7 load(1, XDATA, add(CFA_XSP16, literal(-15)))
          CFI (cfiCond60) V8 load(1, XDATA, add(CFA_XSP16, literal(-14)))
          CFI (cfiCond60) V9 load(1, XDATA, add(CFA_XSP16, literal(-13)))
          CFI (cfiCond60) V10 load(1, XDATA, add(CFA_XSP16, literal(-12)))
          CFI (cfiCond60) V11 load(1, XDATA, add(CFA_XSP16, literal(-11)))
          CFI (cfiCond60) V12 load(1, XDATA, add(CFA_XSP16, literal(-10)))
          CFI (cfiCond60) V13 load(1, XDATA, add(CFA_XSP16, literal(-9)))
          CFI (cfiCond60) V14 load(1, XDATA, add(CFA_XSP16, literal(-8)))
          CFI (cfiCond60) V15 load(1, XDATA, add(CFA_XSP16, literal(-7)))
          CFI (cfiCond60) R7 load(1, XDATA, add(CFA_XSP16, literal(-6)))
          CFI (cfiCond60) ?RET_LOW load(1, XDATA, add(CFA_XSP16, literal(-5)))
          CFI (cfiCond60) ?RET_HIGH load(1, XDATA, add(CFA_XSP16, literal(-4)))
          CFI (cfiCond60) ?BRET_EXT load(1, XDATA, add(CFA_XSP16, literal(-3)))
          CFI (cfiCond60) DPL0 load(1, XDATA, add(CFA_XSP16, literal(-2)))
          CFI (cfiCond60) DPH0 load(1, XDATA, add(CFA_XSP16, literal(-1)))
          CFI (cfiCond60) CFA_SP SP+0
          CFI (cfiCond60) CFA_XSP16 add(XSP16, 27)
          CFI Block cfiCond61 Using cfiCommon0
          CFI (cfiCond61) Function MT_AfIncomingMsg
          CFI (cfiCond61) Conditional ??CrossCallReturnLabel_98, ??CrossCallReturnLabel_130
          CFI (cfiCond61) R6 load(1, XDATA, add(CFA_XSP16, literal(-24)))
          CFI (cfiCond61) VB load(1, XDATA, add(CFA_XSP16, literal(-23)))
          CFI (cfiCond61) V0 load(1, XDATA, add(CFA_XSP16, literal(-22)))
          CFI (cfiCond61) V1 load(1, XDATA, add(CFA_XSP16, literal(-21)))
          CFI (cfiCond61) V2 load(1, XDATA, add(CFA_XSP16, literal(-20)))
          CFI (cfiCond61) V3 load(1, XDATA, add(CFA_XSP16, literal(-19)))
          CFI (cfiCond61) V4 load(1, XDATA, add(CFA_XSP16, literal(-18)))
          CFI (cfiCond61) V5 load(1, XDATA, add(CFA_XSP16, literal(-17)))
          CFI (cfiCond61) V6 load(1, XDATA, add(CFA_XSP16, literal(-16)))
          CFI (cfiCond61) V7 load(1, XDATA, add(CFA_XSP16, literal(-15)))
          CFI (cfiCond61) V8 load(1, XDATA, add(CFA_XSP16, literal(-14)))
          CFI (cfiCond61) V9 load(1, XDATA, add(CFA_XSP16, literal(-13)))
          CFI (cfiCond61) V10 load(1, XDATA, add(CFA_XSP16, literal(-12)))
          CFI (cfiCond61) V11 load(1, XDATA, add(CFA_XSP16, literal(-11)))
          CFI (cfiCond61) V12 load(1, XDATA, add(CFA_XSP16, literal(-10)))
          CFI (cfiCond61) V13 load(1, XDATA, add(CFA_XSP16, literal(-9)))
          CFI (cfiCond61) V14 load(1, XDATA, add(CFA_XSP16, literal(-8)))
          CFI (cfiCond61) V15 load(1, XDATA, add(CFA_XSP16, literal(-7)))
          CFI (cfiCond61) R7 load(1, XDATA, add(CFA_XSP16, literal(-6)))
          CFI (cfiCond61) ?RET_LOW load(1, XDATA, add(CFA_XSP16, literal(-5)))
          CFI (cfiCond61) ?RET_HIGH load(1, XDATA, add(CFA_XSP16, literal(-4)))
          CFI (cfiCond61) ?BRET_EXT load(1, XDATA, add(CFA_XSP16, literal(-3)))
          CFI (cfiCond61) DPL0 load(1, XDATA, add(CFA_XSP16, literal(-2)))
          CFI (cfiCond61) DPH0 load(1, XDATA, add(CFA_XSP16, literal(-1)))
          CFI (cfiCond61) CFA_SP SP+0
          CFI (cfiCond61) CFA_XSP16 add(XSP16, 27)
          CFI Block cfiCond62 Using cfiCommon0
          CFI (cfiCond62) Function MT_AfIncomingMsg
          CFI (cfiCond62) Conditional ??CrossCallReturnLabel_98, ??CrossCallReturnLabel_131
          CFI (cfiCond62) R6 load(1, XDATA, add(CFA_XSP16, literal(-24)))
          CFI (cfiCond62) VB load(1, XDATA, add(CFA_XSP16, literal(-23)))
          CFI (cfiCond62) V0 load(1, XDATA, add(CFA_XSP16, literal(-22)))
          CFI (cfiCond62) V1 load(1, XDATA, add(CFA_XSP16, literal(-21)))
          CFI (cfiCond62) V2 load(1, XDATA, add(CFA_XSP16, literal(-20)))
          CFI (cfiCond62) V3 load(1, XDATA, add(CFA_XSP16, literal(-19)))
          CFI (cfiCond62) V4 load(1, XDATA, add(CFA_XSP16, literal(-18)))
          CFI (cfiCond62) V5 load(1, XDATA, add(CFA_XSP16, literal(-17)))
          CFI (cfiCond62) V6 load(1, XDATA, add(CFA_XSP16, literal(-16)))
          CFI (cfiCond62) V7 load(1, XDATA, add(CFA_XSP16, literal(-15)))
          CFI (cfiCond62) V8 load(1, XDATA, add(CFA_XSP16, literal(-14)))
          CFI (cfiCond62) V9 load(1, XDATA, add(CFA_XSP16, literal(-13)))
          CFI (cfiCond62) V10 load(1, XDATA, add(CFA_XSP16, literal(-12)))
          CFI (cfiCond62) V11 load(1, XDATA, add(CFA_XSP16, literal(-11)))
          CFI (cfiCond62) V12 load(1, XDATA, add(CFA_XSP16, literal(-10)))
          CFI (cfiCond62) V13 load(1, XDATA, add(CFA_XSP16, literal(-9)))
          CFI (cfiCond62) V14 load(1, XDATA, add(CFA_XSP16, literal(-8)))
          CFI (cfiCond62) V15 load(1, XDATA, add(CFA_XSP16, literal(-7)))
          CFI (cfiCond62) R7 load(1, XDATA, add(CFA_XSP16, literal(-6)))
          CFI (cfiCond62) ?RET_LOW load(1, XDATA, add(CFA_XSP16, literal(-5)))
          CFI (cfiCond62) ?RET_HIGH load(1, XDATA, add(CFA_XSP16, literal(-4)))
          CFI (cfiCond62) ?BRET_EXT load(1, XDATA, add(CFA_XSP16, literal(-3)))
          CFI (cfiCond62) DPL0 load(1, XDATA, add(CFA_XSP16, literal(-2)))
          CFI (cfiCond62) DPH0 load(1, XDATA, add(CFA_XSP16, literal(-1)))
          CFI (cfiCond62) CFA_SP SP+0
          CFI (cfiCond62) CFA_XSP16 add(XSP16, 27)
          CFI Block cfiCond63 Using cfiCommon0
          CFI (cfiCond63) Function MT_AfDataRequest
          CFI (cfiCond63) Conditional ??CrossCallReturnLabel_99
          CFI (cfiCond63) R6 load(1, XDATA, add(CFA_XSP16, literal(-22)))
          CFI (cfiCond63) VB load(1, XDATA, add(CFA_XSP16, literal(-21)))
          CFI (cfiCond63) V0 load(1, XDATA, add(CFA_XSP16, literal(-20)))
          CFI (cfiCond63) V1 load(1, XDATA, add(CFA_XSP16, literal(-19)))
          CFI (cfiCond63) V2 load(1, XDATA, add(CFA_XSP16, literal(-18)))
          CFI (cfiCond63) V3 load(1, XDATA, add(CFA_XSP16, literal(-17)))
          CFI (cfiCond63) V4 load(1, XDATA, add(CFA_XSP16, literal(-16)))
          CFI (cfiCond63) V5 load(1, XDATA, add(CFA_XSP16, literal(-15)))
          CFI (cfiCond63) V6 load(1, XDATA, add(CFA_XSP16, literal(-14)))
          CFI (cfiCond63) V7 load(1, XDATA, add(CFA_XSP16, literal(-13)))
          CFI (cfiCond63) V8 load(1, XDATA, add(CFA_XSP16, literal(-12)))
          CFI (cfiCond63) V9 load(1, XDATA, add(CFA_XSP16, literal(-11)))
          CFI (cfiCond63) V10 load(1, XDATA, add(CFA_XSP16, literal(-10)))
          CFI (cfiCond63) V11 load(1, XDATA, add(CFA_XSP16, literal(-9)))
          CFI (cfiCond63) V12 load(1, XDATA, add(CFA_XSP16, literal(-8)))
          CFI (cfiCond63) V13 load(1, XDATA, add(CFA_XSP16, literal(-7)))
          CFI (cfiCond63) R7 load(1, XDATA, add(CFA_XSP16, literal(-6)))
          CFI (cfiCond63) ?RET_LOW load(1, XDATA, add(CFA_XSP16, literal(-5)))
          CFI (cfiCond63) ?RET_HIGH load(1, XDATA, add(CFA_XSP16, literal(-4)))
          CFI (cfiCond63) ?BRET_EXT load(1, XDATA, add(CFA_XSP16, literal(-3)))
          CFI (cfiCond63) DPL0 load(1, XDATA, add(CFA_XSP16, literal(-2)))
          CFI (cfiCond63) DPH0 load(1, XDATA, add(CFA_XSP16, literal(-1)))
          CFI (cfiCond63) CFA_SP SP+-1
          CFI (cfiCond63) CFA_XSP16 add(XSP16, 36)
          CFI Block cfiCond64 Using cfiCommon0
          CFI (cfiCond64) Function MT_AfDataRequest
          CFI (cfiCond64) Conditional ??CrossCallReturnLabel_104, ??CrossCallReturnLabel_19
          CFI (cfiCond64) R6 load(1, XDATA, add(CFA_XSP16, literal(-22)))
          CFI (cfiCond64) VB load(1, XDATA, add(CFA_XSP16, literal(-21)))
          CFI (cfiCond64) V0 load(1, XDATA, add(CFA_XSP16, literal(-20)))
          CFI (cfiCond64) V1 load(1, XDATA, add(CFA_XSP16, literal(-19)))
          CFI (cfiCond64) V2 load(1, XDATA, add(CFA_XSP16, literal(-18)))
          CFI (cfiCond64) V3 load(1, XDATA, add(CFA_XSP16, literal(-17)))
          CFI (cfiCond64) V4 load(1, XDATA, add(CFA_XSP16, literal(-16)))
          CFI (cfiCond64) V5 load(1, XDATA, add(CFA_XSP16, literal(-15)))
          CFI (cfiCond64) V6 load(1, XDATA, add(CFA_XSP16, literal(-14)))
          CFI (cfiCond64) V7 load(1, XDATA, add(CFA_XSP16, literal(-13)))
          CFI (cfiCond64) V8 load(1, XDATA, add(CFA_XSP16, literal(-12)))
          CFI (cfiCond64) V9 load(1, XDATA, add(CFA_XSP16, literal(-11)))
          CFI (cfiCond64) V10 load(1, XDATA, add(CFA_XSP16, literal(-10)))
          CFI (cfiCond64) V11 load(1, XDATA, add(CFA_XSP16, literal(-9)))
          CFI (cfiCond64) V12 load(1, XDATA, add(CFA_XSP16, literal(-8)))
          CFI (cfiCond64) V13 load(1, XDATA, add(CFA_XSP16, literal(-7)))
          CFI (cfiCond64) R7 load(1, XDATA, add(CFA_XSP16, literal(-6)))
          CFI (cfiCond64) ?RET_LOW load(1, XDATA, add(CFA_XSP16, literal(-5)))
          CFI (cfiCond64) ?RET_HIGH load(1, XDATA, add(CFA_XSP16, literal(-4)))
          CFI (cfiCond64) ?BRET_EXT load(1, XDATA, add(CFA_XSP16, literal(-3)))
          CFI (cfiCond64) DPL0 load(1, XDATA, add(CFA_XSP16, literal(-2)))
          CFI (cfiCond64) DPH0 load(1, XDATA, add(CFA_XSP16, literal(-1)))
          CFI (cfiCond64) CFA_SP SP+0
          CFI (cfiCond64) CFA_XSP16 add(XSP16, 36)
          CFI Block cfiCond65 Using cfiCommon0
          CFI (cfiCond65) Function MT_AfDataStore
          CFI (cfiCond65) Conditional ??CrossCallReturnLabel_104, ??CrossCallReturnLabel_20
          CFI (cfiCond65) R6 load(1, XDATA, add(CFA_XSP16, literal(-14)))
          CFI (cfiCond65) VB load(1, XDATA, add(CFA_XSP16, literal(-13)))
          CFI (cfiCond65) V0 load(1, XDATA, add(CFA_XSP16, literal(-12)))
          CFI (cfiCond65) V1 load(1, XDATA, add(CFA_XSP16, literal(-11)))
          CFI (cfiCond65) V2 load(1, XDATA, add(CFA_XSP16, literal(-10)))
          CFI (cfiCond65) V3 load(1, XDATA, add(CFA_XSP16, literal(-9)))
          CFI (cfiCond65) V4 load(1, XDATA, add(CFA_XSP16, literal(-8)))
          CFI (cfiCond65) V5 load(1, XDATA, add(CFA_XSP16, literal(-7)))
          CFI (cfiCond65) R7 load(1, XDATA, add(CFA_XSP16, literal(-6)))
          CFI (cfiCond65) ?RET_LOW load(1, XDATA, add(CFA_XSP16, literal(-5)))
          CFI (cfiCond65) ?RET_HIGH load(1, XDATA, add(CFA_XSP16, literal(-4)))
          CFI (cfiCond65) ?BRET_EXT load(1, XDATA, add(CFA_XSP16, literal(-3)))
          CFI (cfiCond65) DPL0 load(1, XDATA, add(CFA_XSP16, literal(-2)))
          CFI (cfiCond65) DPH0 load(1, XDATA, add(CFA_XSP16, literal(-1)))
          CFI (cfiCond65) CFA_SP SP+0
          CFI (cfiCond65) CFA_XSP16 add(XSP16, 15)
          CFI Block cfiCond66 Using cfiCommon0
          CFI (cfiCond66) Function MT_AfDataRequest
          CFI (cfiCond66) Conditional ??CrossCallReturnLabel_103, ??CrossCallReturnLabel_14
          CFI (cfiCond66) R6 load(1, XDATA, add(CFA_XSP16, literal(-22)))
          CFI (cfiCond66) VB load(1, XDATA, add(CFA_XSP16, literal(-21)))
          CFI (cfiCond66) V0 load(1, XDATA, add(CFA_XSP16, literal(-20)))
          CFI (cfiCond66) V1 load(1, XDATA, add(CFA_XSP16, literal(-19)))
          CFI (cfiCond66) V2 load(1, XDATA, add(CFA_XSP16, literal(-18)))
          CFI (cfiCond66) V3 load(1, XDATA, add(CFA_XSP16, literal(-17)))
          CFI (cfiCond66) V4 load(1, XDATA, add(CFA_XSP16, literal(-16)))
          CFI (cfiCond66) V5 load(1, XDATA, add(CFA_XSP16, literal(-15)))
          CFI (cfiCond66) V6 load(1, XDATA, add(CFA_XSP16, literal(-14)))
          CFI (cfiCond66) V7 load(1, XDATA, add(CFA_XSP16, literal(-13)))
          CFI (cfiCond66) V8 load(1, XDATA, add(CFA_XSP16, literal(-12)))
          CFI (cfiCond66) V9 load(1, XDATA, add(CFA_XSP16, literal(-11)))
          CFI (cfiCond66) V10 load(1, XDATA, add(CFA_XSP16, literal(-10)))
          CFI (cfiCond66) V11 load(1, XDATA, add(CFA_XSP16, literal(-9)))
          CFI (cfiCond66) V12 load(1, XDATA, add(CFA_XSP16, literal(-8)))
          CFI (cfiCond66) V13 load(1, XDATA, add(CFA_XSP16, literal(-7)))
          CFI (cfiCond66) R7 load(1, XDATA, add(CFA_XSP16, literal(-6)))
          CFI (cfiCond66) ?RET_LOW load(1, XDATA, add(CFA_XSP16, literal(-5)))
          CFI (cfiCond66) ?RET_HIGH load(1, XDATA, add(CFA_XSP16, literal(-4)))
          CFI (cfiCond66) ?BRET_EXT load(1, XDATA, add(CFA_XSP16, literal(-3)))
          CFI (cfiCond66) DPL0 load(1, XDATA, add(CFA_XSP16, literal(-2)))
          CFI (cfiCond66) DPH0 load(1, XDATA, add(CFA_XSP16, literal(-1)))
          CFI (cfiCond66) CFA_SP SP+0
          CFI (cfiCond66) CFA_XSP16 add(XSP16, 36)
          CFI Block cfiCond67 Using cfiCommon0
          CFI (cfiCond67) Function MT_AfDataStore
          CFI (cfiCond67) Conditional ??CrossCallReturnLabel_103, ??CrossCallReturnLabel_15
          CFI (cfiCond67) R6 load(1, XDATA, add(CFA_XSP16, literal(-14)))
          CFI (cfiCond67) VB load(1, XDATA, add(CFA_XSP16, literal(-13)))
          CFI (cfiCond67) V0 load(1, XDATA, add(CFA_XSP16, literal(-12)))
          CFI (cfiCond67) V1 load(1, XDATA, add(CFA_XSP16, literal(-11)))
          CFI (cfiCond67) V2 load(1, XDATA, add(CFA_XSP16, literal(-10)))
          CFI (cfiCond67) V3 load(1, XDATA, add(CFA_XSP16, literal(-9)))
          CFI (cfiCond67) V4 load(1, XDATA, add(CFA_XSP16, literal(-8)))
          CFI (cfiCond67) V5 load(1, XDATA, add(CFA_XSP16, literal(-7)))
          CFI (cfiCond67) R7 load(1, XDATA, add(CFA_XSP16, literal(-6)))
          CFI (cfiCond67) ?RET_LOW load(1, XDATA, add(CFA_XSP16, literal(-5)))
          CFI (cfiCond67) ?RET_HIGH load(1, XDATA, add(CFA_XSP16, literal(-4)))
          CFI (cfiCond67) ?BRET_EXT load(1, XDATA, add(CFA_XSP16, literal(-3)))
          CFI (cfiCond67) DPL0 load(1, XDATA, add(CFA_XSP16, literal(-2)))
          CFI (cfiCond67) DPH0 load(1, XDATA, add(CFA_XSP16, literal(-1)))
          CFI (cfiCond67) CFA_SP SP+0
          CFI (cfiCond67) CFA_XSP16 add(XSP16, 24)
          CFI Block cfiCond68 Using cfiCommon0
          CFI (cfiCond68) Function MT_AfDataRequest
          CFI (cfiCond68) Conditional ??CrossCallReturnLabel_102, ??CrossCallReturnLabel_12
          CFI (cfiCond68) R6 load(1, XDATA, add(CFA_XSP16, literal(-22)))
          CFI (cfiCond68) VB load(1, XDATA, add(CFA_XSP16, literal(-21)))
          CFI (cfiCond68) V0 load(1, XDATA, add(CFA_XSP16, literal(-20)))
          CFI (cfiCond68) V1 load(1, XDATA, add(CFA_XSP16, literal(-19)))
          CFI (cfiCond68) V2 load(1, XDATA, add(CFA_XSP16, literal(-18)))
          CFI (cfiCond68) V3 load(1, XDATA, add(CFA_XSP16, literal(-17)))
          CFI (cfiCond68) V4 load(1, XDATA, add(CFA_XSP16, literal(-16)))
          CFI (cfiCond68) V5 load(1, XDATA, add(CFA_XSP16, literal(-15)))
          CFI (cfiCond68) V6 load(1, XDATA, add(CFA_XSP16, literal(-14)))
          CFI (cfiCond68) V7 load(1, XDATA, add(CFA_XSP16, literal(-13)))
          CFI (cfiCond68) V8 load(1, XDATA, add(CFA_XSP16, literal(-12)))
          CFI (cfiCond68) V9 load(1, XDATA, add(CFA_XSP16, literal(-11)))
          CFI (cfiCond68) V10 load(1, XDATA, add(CFA_XSP16, literal(-10)))
          CFI (cfiCond68) V11 load(1, XDATA, add(CFA_XSP16, literal(-9)))
          CFI (cfiCond68) V12 load(1, XDATA, add(CFA_XSP16, literal(-8)))
          CFI (cfiCond68) V13 load(1, XDATA, add(CFA_XSP16, literal(-7)))
          CFI (cfiCond68) R7 load(1, XDATA, add(CFA_XSP16, literal(-6)))
          CFI (cfiCond68) ?RET_LOW load(1, XDATA, add(CFA_XSP16, literal(-5)))
          CFI (cfiCond68) ?RET_HIGH load(1, XDATA, add(CFA_XSP16, literal(-4)))
          CFI (cfiCond68) ?BRET_EXT load(1, XDATA, add(CFA_XSP16, literal(-3)))
          CFI (cfiCond68) DPL0 load(1, XDATA, add(CFA_XSP16, literal(-2)))
          CFI (cfiCond68) DPH0 load(1, XDATA, add(CFA_XSP16, literal(-1)))
          CFI (cfiCond68) CFA_SP SP+0
          CFI (cfiCond68) CFA_XSP16 add(XSP16, 36)
          CFI Block cfiCond69 Using cfiCommon0
          CFI (cfiCond69) Function MT_AfDataStore
          CFI (cfiCond69) Conditional ??CrossCallReturnLabel_102, ??CrossCallReturnLabel_13
          CFI (cfiCond69) R6 load(1, XDATA, add(CFA_XSP16, literal(-14)))
          CFI (cfiCond69) VB load(1, XDATA, add(CFA_XSP16, literal(-13)))
          CFI (cfiCond69) V0 load(1, XDATA, add(CFA_XSP16, literal(-12)))
          CFI (cfiCond69) V1 load(1, XDATA, add(CFA_XSP16, literal(-11)))
          CFI (cfiCond69) V2 load(1, XDATA, add(CFA_XSP16, literal(-10)))
          CFI (cfiCond69) V3 load(1, XDATA, add(CFA_XSP16, literal(-9)))
          CFI (cfiCond69) V4 load(1, XDATA, add(CFA_XSP16, literal(-8)))
          CFI (cfiCond69) V5 load(1, XDATA, add(CFA_XSP16, literal(-7)))
          CFI (cfiCond69) R7 load(1, XDATA, add(CFA_XSP16, literal(-6)))
          CFI (cfiCond69) ?RET_LOW load(1, XDATA, add(CFA_XSP16, literal(-5)))
          CFI (cfiCond69) ?RET_HIGH load(1, XDATA, add(CFA_XSP16, literal(-4)))
          CFI (cfiCond69) ?BRET_EXT load(1, XDATA, add(CFA_XSP16, literal(-3)))
          CFI (cfiCond69) DPL0 load(1, XDATA, add(CFA_XSP16, literal(-2)))
          CFI (cfiCond69) DPH0 load(1, XDATA, add(CFA_XSP16, literal(-1)))
          CFI (cfiCond69) CFA_SP SP+0
          CFI (cfiCond69) CFA_XSP16 add(XSP16, 20)
          CFI Block cfiCond70 Using cfiCommon0
          CFI (cfiCond70) Function MT_AfDataRequest
          CFI (cfiCond70) Conditional ??CrossCallReturnLabel_101, ??CrossCallReturnLabel_10
          CFI (cfiCond70) R6 load(1, XDATA, add(CFA_XSP16, literal(-22)))
          CFI (cfiCond70) VB load(1, XDATA, add(CFA_XSP16, literal(-21)))
          CFI (cfiCond70) V0 load(1, XDATA, add(CFA_XSP16, literal(-20)))
          CFI (cfiCond70) V1 load(1, XDATA, add(CFA_XSP16, literal(-19)))
          CFI (cfiCond70) V2 load(1, XDATA, add(CFA_XSP16, literal(-18)))
          CFI (cfiCond70) V3 load(1, XDATA, add(CFA_XSP16, literal(-17)))
          CFI (cfiCond70) V4 load(1, XDATA, add(CFA_XSP16, literal(-16)))
          CFI (cfiCond70) V5 load(1, XDATA, add(CFA_XSP16, literal(-15)))
          CFI (cfiCond70) V6 load(1, XDATA, add(CFA_XSP16, literal(-14)))
          CFI (cfiCond70) V7 load(1, XDATA, add(CFA_XSP16, literal(-13)))
          CFI (cfiCond70) V8 load(1, XDATA, add(CFA_XSP16, literal(-12)))
          CFI (cfiCond70) V9 load(1, XDATA, add(CFA_XSP16, literal(-11)))
          CFI (cfiCond70) V10 load(1, XDATA, add(CFA_XSP16, literal(-10)))
          CFI (cfiCond70) V11 load(1, XDATA, add(CFA_XSP16, literal(-9)))
          CFI (cfiCond70) V12 load(1, XDATA, add(CFA_XSP16, literal(-8)))
          CFI (cfiCond70) V13 load(1, XDATA, add(CFA_XSP16, literal(-7)))
          CFI (cfiCond70) R7 load(1, XDATA, add(CFA_XSP16, literal(-6)))
          CFI (cfiCond70) ?RET_LOW load(1, XDATA, add(CFA_XSP16, literal(-5)))
          CFI (cfiCond70) ?RET_HIGH load(1, XDATA, add(CFA_XSP16, literal(-4)))
          CFI (cfiCond70) ?BRET_EXT load(1, XDATA, add(CFA_XSP16, literal(-3)))
          CFI (cfiCond70) DPL0 load(1, XDATA, add(CFA_XSP16, literal(-2)))
          CFI (cfiCond70) DPH0 load(1, XDATA, add(CFA_XSP16, literal(-1)))
          CFI (cfiCond70) CFA_SP SP+0
          CFI (cfiCond70) CFA_XSP16 add(XSP16, 36)
          CFI Block cfiCond71 Using cfiCommon0
          CFI (cfiCond71) Function MT_AfDataStore
          CFI (cfiCond71) Conditional ??CrossCallReturnLabel_101, ??CrossCallReturnLabel_11
          CFI (cfiCond71) R6 load(1, XDATA, add(CFA_XSP16, literal(-14)))
          CFI (cfiCond71) VB load(1, XDATA, add(CFA_XSP16, literal(-13)))
          CFI (cfiCond71) V0 load(1, XDATA, add(CFA_XSP16, literal(-12)))
          CFI (cfiCond71) V1 load(1, XDATA, add(CFA_XSP16, literal(-11)))
          CFI (cfiCond71) V2 load(1, XDATA, add(CFA_XSP16, literal(-10)))
          CFI (cfiCond71) V3 load(1, XDATA, add(CFA_XSP16, literal(-9)))
          CFI (cfiCond71) V4 load(1, XDATA, add(CFA_XSP16, literal(-8)))
          CFI (cfiCond71) V5 load(1, XDATA, add(CFA_XSP16, literal(-7)))
          CFI (cfiCond71) R7 load(1, XDATA, add(CFA_XSP16, literal(-6)))
          CFI (cfiCond71) ?RET_LOW load(1, XDATA, add(CFA_XSP16, literal(-5)))
          CFI (cfiCond71) ?RET_HIGH load(1, XDATA, add(CFA_XSP16, literal(-4)))
          CFI (cfiCond71) ?BRET_EXT load(1, XDATA, add(CFA_XSP16, literal(-3)))
          CFI (cfiCond71) DPL0 load(1, XDATA, add(CFA_XSP16, literal(-2)))
          CFI (cfiCond71) DPH0 load(1, XDATA, add(CFA_XSP16, literal(-1)))
          CFI (cfiCond71) CFA_SP SP+0
          CFI (cfiCond71) CFA_XSP16 add(XSP16, 22)
          CFI Block cfiCond72 Using cfiCommon0
          CFI (cfiCond72) Function MT_AfDataRequest
          CFI (cfiCond72) Conditional ??CrossCallReturnLabel_100, ??CrossCallReturnLabel_8
          CFI (cfiCond72) R6 load(1, XDATA, add(CFA_XSP16, literal(-22)))
          CFI (cfiCond72) VB load(1, XDATA, add(CFA_XSP16, literal(-21)))
          CFI (cfiCond72) V0 load(1, XDATA, add(CFA_XSP16, literal(-20)))
          CFI (cfiCond72) V1 load(1, XDATA, add(CFA_XSP16, literal(-19)))
          CFI (cfiCond72) V2 load(1, XDATA, add(CFA_XSP16, literal(-18)))
          CFI (cfiCond72) V3 load(1, XDATA, add(CFA_XSP16, literal(-17)))
          CFI (cfiCond72) V4 load(1, XDATA, add(CFA_XSP16, literal(-16)))
          CFI (cfiCond72) V5 load(1, XDATA, add(CFA_XSP16, literal(-15)))
          CFI (cfiCond72) V6 load(1, XDATA, add(CFA_XSP16, literal(-14)))
          CFI (cfiCond72) V7 load(1, XDATA, add(CFA_XSP16, literal(-13)))
          CFI (cfiCond72) V8 load(1, XDATA, add(CFA_XSP16, literal(-12)))
          CFI (cfiCond72) V9 load(1, XDATA, add(CFA_XSP16, literal(-11)))
          CFI (cfiCond72) V10 load(1, XDATA, add(CFA_XSP16, literal(-10)))
          CFI (cfiCond72) V11 load(1, XDATA, add(CFA_XSP16, literal(-9)))
          CFI (cfiCond72) V12 load(1, XDATA, add(CFA_XSP16, literal(-8)))
          CFI (cfiCond72) V13 load(1, XDATA, add(CFA_XSP16, literal(-7)))
          CFI (cfiCond72) R7 load(1, XDATA, add(CFA_XSP16, literal(-6)))
          CFI (cfiCond72) ?RET_LOW load(1, XDATA, add(CFA_XSP16, literal(-5)))
          CFI (cfiCond72) ?RET_HIGH load(1, XDATA, add(CFA_XSP16, literal(-4)))
          CFI (cfiCond72) ?BRET_EXT load(1, XDATA, add(CFA_XSP16, literal(-3)))
          CFI (cfiCond72) DPL0 load(1, XDATA, add(CFA_XSP16, literal(-2)))
          CFI (cfiCond72) DPH0 load(1, XDATA, add(CFA_XSP16, literal(-1)))
          CFI (cfiCond72) CFA_SP SP+0
          CFI (cfiCond72) CFA_XSP16 add(XSP16, 36)
          CFI Block cfiCond73 Using cfiCommon0
          CFI (cfiCond73) Function MT_AfDataStore
          CFI (cfiCond73) Conditional ??CrossCallReturnLabel_100, ??CrossCallReturnLabel_9
          CFI (cfiCond73) R6 load(1, XDATA, add(CFA_XSP16, literal(-14)))
          CFI (cfiCond73) VB load(1, XDATA, add(CFA_XSP16, literal(-13)))
          CFI (cfiCond73) V0 load(1, XDATA, add(CFA_XSP16, literal(-12)))
          CFI (cfiCond73) V1 load(1, XDATA, add(CFA_XSP16, literal(-11)))
          CFI (cfiCond73) V2 load(1, XDATA, add(CFA_XSP16, literal(-10)))
          CFI (cfiCond73) V3 load(1, XDATA, add(CFA_XSP16, literal(-9)))
          CFI (cfiCond73) V4 load(1, XDATA, add(CFA_XSP16, literal(-8)))
          CFI (cfiCond73) V5 load(1, XDATA, add(CFA_XSP16, literal(-7)))
          CFI (cfiCond73) R7 load(1, XDATA, add(CFA_XSP16, literal(-6)))
          CFI (cfiCond73) ?RET_LOW load(1, XDATA, add(CFA_XSP16, literal(-5)))
          CFI (cfiCond73) ?RET_HIGH load(1, XDATA, add(CFA_XSP16, literal(-4)))
          CFI (cfiCond73) ?BRET_EXT load(1, XDATA, add(CFA_XSP16, literal(-3)))
          CFI (cfiCond73) DPL0 load(1, XDATA, add(CFA_XSP16, literal(-2)))
          CFI (cfiCond73) DPH0 load(1, XDATA, add(CFA_XSP16, literal(-1)))
          CFI (cfiCond73) CFA_SP SP+0
          CFI (cfiCond73) CFA_XSP16 add(XSP16, 24)
          CFI Block cfiCond74 Using cfiCommon0
          CFI (cfiCond74) Function MT_AfExec
          CFI (cfiCond74) Conditional ??CrossCallReturnLabel_105
          CFI (cfiCond74) R6 load(1, XDATA, add(CFA_XSP16, literal(-9)))
          CFI (cfiCond74) VB load(1, XDATA, add(CFA_XSP16, literal(-8)))
          CFI (cfiCond74) V0 load(1, XDATA, add(CFA_XSP16, literal(-7)))
          CFI (cfiCond74) R7 load(1, XDATA, add(CFA_XSP16, literal(-6)))
          CFI (cfiCond74) ?RET_LOW load(1, XDATA, add(CFA_XSP16, literal(-5)))
          CFI (cfiCond74) ?RET_HIGH load(1, XDATA, add(CFA_XSP16, literal(-4)))
          CFI (cfiCond74) ?BRET_EXT load(1, XDATA, add(CFA_XSP16, literal(-3)))
          CFI (cfiCond74) DPL0 load(1, XDATA, add(CFA_XSP16, literal(-2)))
          CFI (cfiCond74) DPH0 load(1, XDATA, add(CFA_XSP16, literal(-1)))
          CFI (cfiCond74) CFA_SP SP+0
          CFI (cfiCond74) CFA_XSP16 add(XSP16, 9)
          CFI Block cfiCond75 Using cfiCommon0
          CFI (cfiCond75) Function MT_AfExec
          CFI (cfiCond75) Conditional ??CrossCallReturnLabel_106, ??CrossCallReturnLabel_7
          CFI (cfiCond75) R6 load(1, XDATA, add(CFA_XSP16, literal(-9)))
          CFI (cfiCond75) VB load(1, XDATA, add(CFA_XSP16, literal(-8)))
          CFI (cfiCond75) V0 load(1, XDATA, add(CFA_XSP16, literal(-7)))
          CFI (cfiCond75) R7 load(1, XDATA, add(CFA_XSP16, literal(-6)))
          CFI (cfiCond75) ?RET_LOW load(1, XDATA, add(CFA_XSP16, literal(-5)))
          CFI (cfiCond75) ?RET_HIGH load(1, XDATA, add(CFA_XSP16, literal(-4)))
          CFI (cfiCond75) ?BRET_EXT load(1, XDATA, add(CFA_XSP16, literal(-3)))
          CFI (cfiCond75) DPL0 load(1, XDATA, add(CFA_XSP16, literal(-2)))
          CFI (cfiCond75) DPH0 load(1, XDATA, add(CFA_XSP16, literal(-1)))
          CFI (cfiCond75) CFA_SP SP+0
          CFI (cfiCond75) CFA_XSP16 add(XSP16, 9)
          CFI Block cfiCond76 Using cfiCommon0
          CFI (cfiCond76) Function MT_AfDataRequest
          CFI (cfiCond76) Conditional ??CrossCallReturnLabel_106, ??CrossCallReturnLabel_6
          CFI (cfiCond76) R6 load(1, XDATA, add(CFA_XSP16, literal(-22)))
          CFI (cfiCond76) VB load(1, XDATA, add(CFA_XSP16, literal(-21)))
          CFI (cfiCond76) V0 load(1, XDATA, add(CFA_XSP16, literal(-20)))
          CFI (cfiCond76) V1 load(1, XDATA, add(CFA_XSP16, literal(-19)))
          CFI (cfiCond76) V2 load(1, XDATA, add(CFA_XSP16, literal(-18)))
          CFI (cfiCond76) V3 load(1, XDATA, add(CFA_XSP16, literal(-17)))
          CFI (cfiCond76) V4 load(1, XDATA, add(CFA_XSP16, literal(-16)))
          CFI (cfiCond76) V5 load(1, XDATA, add(CFA_XSP16, literal(-15)))
          CFI (cfiCond76) V6 load(1, XDATA, add(CFA_XSP16, literal(-14)))
          CFI (cfiCond76) V7 load(1, XDATA, add(CFA_XSP16, literal(-13)))
          CFI (cfiCond76) V8 load(1, XDATA, add(CFA_XSP16, literal(-12)))
          CFI (cfiCond76) V9 load(1, XDATA, add(CFA_XSP16, literal(-11)))
          CFI (cfiCond76) V10 load(1, XDATA, add(CFA_XSP16, literal(-10)))
          CFI (cfiCond76) V11 load(1, XDATA, add(CFA_XSP16, literal(-9)))
          CFI (cfiCond76) V12 load(1, XDATA, add(CFA_XSP16, literal(-8)))
          CFI (cfiCond76) V13 load(1, XDATA, add(CFA_XSP16, literal(-7)))
          CFI (cfiCond76) R7 load(1, XDATA, add(CFA_XSP16, literal(-6)))
          CFI (cfiCond76) ?RET_LOW load(1, XDATA, add(CFA_XSP16, literal(-5)))
          CFI (cfiCond76) ?RET_HIGH load(1, XDATA, add(CFA_XSP16, literal(-4)))
          CFI (cfiCond76) ?BRET_EXT load(1, XDATA, add(CFA_XSP16, literal(-3)))
          CFI (cfiCond76) DPL0 load(1, XDATA, add(CFA_XSP16, literal(-2)))
          CFI (cfiCond76) DPH0 load(1, XDATA, add(CFA_XSP16, literal(-1)))
          CFI (cfiCond76) CFA_SP SP+0
          CFI (cfiCond76) CFA_XSP16 add(XSP16, 36)
          CFI Block cfiPicker77 Using cfiCommon1
          CFI (cfiPicker77) NoFunction
          CFI (cfiPicker77) Picker
        ADDC    A,#0x0
        MOV     DPH,A
        RET
          CFI EndBlock cfiCond56
          CFI EndBlock cfiCond57
          CFI EndBlock cfiCond58
          CFI EndBlock cfiCond59
          CFI EndBlock cfiCond60
          CFI EndBlock cfiCond61
          CFI EndBlock cfiCond62
          CFI EndBlock cfiCond63
          CFI EndBlock cfiCond64
          CFI EndBlock cfiCond65
          CFI EndBlock cfiCond66
          CFI EndBlock cfiCond67
          CFI EndBlock cfiCond68
          CFI EndBlock cfiCond69
          CFI EndBlock cfiCond70
          CFI EndBlock cfiCond71
          CFI EndBlock cfiCond72
          CFI EndBlock cfiCond73
          CFI EndBlock cfiCond74
          CFI EndBlock cfiCond75
          CFI EndBlock cfiCond76
          CFI EndBlock cfiPicker77

        RSEG BANKED_CODE:CODE:NOROOT(0)
?Subroutine5:
          CFI Block cfiCond78 Using cfiCommon0
          CFI Function MT_AfExec
          CFI Conditional ??CrossCallReturnLabel_109
          CFI R6 load(1, XDATA, add(CFA_XSP16, literal(-9)))
          CFI VB load(1, XDATA, add(CFA_XSP16, literal(-8)))
          CFI V0 load(1, XDATA, add(CFA_XSP16, literal(-7)))
          CFI R7 load(1, XDATA, add(CFA_XSP16, literal(-6)))
          CFI ?RET_LOW load(1, XDATA, add(CFA_XSP16, literal(-5)))
          CFI ?RET_HIGH load(1, XDATA, add(CFA_XSP16, literal(-4)))
          CFI ?BRET_EXT load(1, XDATA, add(CFA_XSP16, literal(-3)))
          CFI DPL0 load(1, XDATA, add(CFA_XSP16, literal(-2)))
          CFI DPH0 load(1, XDATA, add(CFA_XSP16, literal(-1)))
          CFI CFA_SP SP+0
          CFI CFA_XSP16 add(XSP16, 9)
          CFI Block cfiCond79 Using cfiCommon0
          CFI (cfiCond79) Function MT_AfExec
          CFI (cfiCond79) Conditional ??CrossCallReturnLabel_110
          CFI (cfiCond79) R6 load(1, XDATA, add(CFA_XSP16, literal(-9)))
          CFI (cfiCond79) VB load(1, XDATA, add(CFA_XSP16, literal(-8)))
          CFI (cfiCond79) V0 load(1, XDATA, add(CFA_XSP16, literal(-7)))
          CFI (cfiCond79) R7 load(1, XDATA, add(CFA_XSP16, literal(-6)))
          CFI (cfiCond79) ?RET_LOW load(1, XDATA, add(CFA_XSP16, literal(-5)))
          CFI (cfiCond79) ?RET_HIGH load(1, XDATA, add(CFA_XSP16, literal(-4)))
          CFI (cfiCond79) ?BRET_EXT load(1, XDATA, add(CFA_XSP16, literal(-3)))
          CFI (cfiCond79) DPL0 load(1, XDATA, add(CFA_XSP16, literal(-2)))
          CFI (cfiCond79) DPH0 load(1, XDATA, add(CFA_XSP16, literal(-1)))
          CFI (cfiCond79) CFA_SP SP+0
          CFI (cfiCond79) CFA_XSP16 add(XSP16, 9)
          CFI Block cfiCond80 Using cfiCommon0
          CFI (cfiCond80) Function MT_AfDataRequest
          CFI (cfiCond80) Conditional ??CrossCallReturnLabel_111
          CFI (cfiCond80) R6 load(1, XDATA, add(CFA_XSP16, literal(-22)))
          CFI (cfiCond80) VB load(1, XDATA, add(CFA_XSP16, literal(-21)))
          CFI (cfiCond80) V0 load(1, XDATA, add(CFA_XSP16, literal(-20)))
          CFI (cfiCond80) V1 load(1, XDATA, add(CFA_XSP16, literal(-19)))
          CFI (cfiCond80) V2 load(1, XDATA, add(CFA_XSP16, literal(-18)))
          CFI (cfiCond80) V3 load(1, XDATA, add(CFA_XSP16, literal(-17)))
          CFI (cfiCond80) V4 load(1, XDATA, add(CFA_XSP16, literal(-16)))
          CFI (cfiCond80) V5 load(1, XDATA, add(CFA_XSP16, literal(-15)))
          CFI (cfiCond80) V6 load(1, XDATA, add(CFA_XSP16, literal(-14)))
          CFI (cfiCond80) V7 load(1, XDATA, add(CFA_XSP16, literal(-13)))
          CFI (cfiCond80) V8 load(1, XDATA, add(CFA_XSP16, literal(-12)))
          CFI (cfiCond80) V9 load(1, XDATA, add(CFA_XSP16, literal(-11)))
          CFI (cfiCond80) V10 load(1, XDATA, add(CFA_XSP16, literal(-10)))
          CFI (cfiCond80) V11 load(1, XDATA, add(CFA_XSP16, literal(-9)))
          CFI (cfiCond80) V12 load(1, XDATA, add(CFA_XSP16, literal(-8)))
          CFI (cfiCond80) V13 load(1, XDATA, add(CFA_XSP16, literal(-7)))
          CFI (cfiCond80) R7 load(1, XDATA, add(CFA_XSP16, literal(-6)))
          CFI (cfiCond80) ?RET_LOW load(1, XDATA, add(CFA_XSP16, literal(-5)))
          CFI (cfiCond80) ?RET_HIGH load(1, XDATA, add(CFA_XSP16, literal(-4)))
          CFI (cfiCond80) ?BRET_EXT load(1, XDATA, add(CFA_XSP16, literal(-3)))
          CFI (cfiCond80) DPL0 load(1, XDATA, add(CFA_XSP16, literal(-2)))
          CFI (cfiCond80) DPH0 load(1, XDATA, add(CFA_XSP16, literal(-1)))
          CFI (cfiCond80) CFA_SP SP+0
          CFI (cfiCond80) CFA_XSP16 add(XSP16, 36)
          CFI Block cfiCond81 Using cfiCommon0
          CFI (cfiCond81) Function MT_AfDataRequest
          CFI (cfiCond81) Conditional ??CrossCallReturnLabel_112
          CFI (cfiCond81) R6 load(1, XDATA, add(CFA_XSP16, literal(-22)))
          CFI (cfiCond81) VB load(1, XDATA, add(CFA_XSP16, literal(-21)))
          CFI (cfiCond81) V0 load(1, XDATA, add(CFA_XSP16, literal(-20)))
          CFI (cfiCond81) V1 load(1, XDATA, add(CFA_XSP16, literal(-19)))
          CFI (cfiCond81) V2 load(1, XDATA, add(CFA_XSP16, literal(-18)))
          CFI (cfiCond81) V3 load(1, XDATA, add(CFA_XSP16, literal(-17)))
          CFI (cfiCond81) V4 load(1, XDATA, add(CFA_XSP16, literal(-16)))
          CFI (cfiCond81) V5 load(1, XDATA, add(CFA_XSP16, literal(-15)))
          CFI (cfiCond81) V6 load(1, XDATA, add(CFA_XSP16, literal(-14)))
          CFI (cfiCond81) V7 load(1, XDATA, add(CFA_XSP16, literal(-13)))
          CFI (cfiCond81) V8 load(1, XDATA, add(CFA_XSP16, literal(-12)))
          CFI (cfiCond81) V9 load(1, XDATA, add(CFA_XSP16, literal(-11)))
          CFI (cfiCond81) V10 load(1, XDATA, add(CFA_XSP16, literal(-10)))
          CFI (cfiCond81) V11 load(1, XDATA, add(CFA_XSP16, literal(-9)))
          CFI (cfiCond81) V12 load(1, XDATA, add(CFA_XSP16, literal(-8)))
          CFI (cfiCond81) V13 load(1, XDATA, add(CFA_XSP16, literal(-7)))
          CFI (cfiCond81) R7 load(1, XDATA, add(CFA_XSP16, literal(-6)))
          CFI (cfiCond81) ?RET_LOW load(1, XDATA, add(CFA_XSP16, literal(-5)))
          CFI (cfiCond81) ?RET_HIGH load(1, XDATA, add(CFA_XSP16, literal(-4)))
          CFI (cfiCond81) ?BRET_EXT load(1, XDATA, add(CFA_XSP16, literal(-3)))
          CFI (cfiCond81) DPL0 load(1, XDATA, add(CFA_XSP16, literal(-2)))
          CFI (cfiCond81) DPH0 load(1, XDATA, add(CFA_XSP16, literal(-1)))
          CFI (cfiCond81) CFA_SP SP+0
          CFI (cfiCond81) CFA_XSP16 add(XSP16, 36)
          CFI Block cfiCond82 Using cfiCommon0
          CFI (cfiCond82) Function MT_AfDataStore
          CFI (cfiCond82) Conditional ??CrossCallReturnLabel_113
          CFI (cfiCond82) R6 load(1, XDATA, add(CFA_XSP16, literal(-14)))
          CFI (cfiCond82) VB load(1, XDATA, add(CFA_XSP16, literal(-13)))
          CFI (cfiCond82) V0 load(1, XDATA, add(CFA_XSP16, literal(-12)))
          CFI (cfiCond82) V1 load(1, XDATA, add(CFA_XSP16, literal(-11)))
          CFI (cfiCond82) V2 load(1, XDATA, add(CFA_XSP16, literal(-10)))
          CFI (cfiCond82) V3 load(1, XDATA, add(CFA_XSP16, literal(-9)))
          CFI (cfiCond82) V4 load(1, XDATA, add(CFA_XSP16, literal(-8)))
          CFI (cfiCond82) V5 load(1, XDATA, add(CFA_XSP16, literal(-7)))
          CFI (cfiCond82) R7 load(1, XDATA, add(CFA_XSP16, literal(-6)))
          CFI (cfiCond82) ?RET_LOW load(1, XDATA, add(CFA_XSP16, literal(-5)))
          CFI (cfiCond82) ?RET_HIGH load(1, XDATA, add(CFA_XSP16, literal(-4)))
          CFI (cfiCond82) ?BRET_EXT load(1, XDATA, add(CFA_XSP16, literal(-3)))
          CFI (cfiCond82) DPL0 load(1, XDATA, add(CFA_XSP16, literal(-2)))
          CFI (cfiCond82) DPH0 load(1, XDATA, add(CFA_XSP16, literal(-1)))
          CFI (cfiCond82) CFA_SP SP+0
          CFI (cfiCond82) CFA_XSP16 add(XSP16, 15)
          CFI Block cfiPicker83 Using cfiCommon1
          CFI (cfiPicker83) NoFunction
          CFI (cfiPicker83) Picker
        MOV     DPTR,#pMtAfDataReq
          CFI EndBlock cfiCond78
          CFI EndBlock cfiCond79
          CFI EndBlock cfiCond80
          CFI EndBlock cfiCond81
          CFI EndBlock cfiCond82
          CFI EndBlock cfiPicker83
        REQUIRE ??Subroutine57_0
        ; // Fall through to label ??Subroutine57_0

        RSEG BANKED_CODE:CODE:NOROOT(0)
??Subroutine57_0:
          CFI Block cfiCond84 Using cfiCommon0
          CFI Function MT_AfExec
          CFI Conditional ??CrossCallReturnLabel_107
          CFI R6 load(1, XDATA, add(CFA_XSP16, literal(-9)))
          CFI VB load(1, XDATA, add(CFA_XSP16, literal(-8)))
          CFI V0 load(1, XDATA, add(CFA_XSP16, literal(-7)))
          CFI R7 load(1, XDATA, add(CFA_XSP16, literal(-6)))
          CFI ?RET_LOW load(1, XDATA, add(CFA_XSP16, literal(-5)))
          CFI ?RET_HIGH load(1, XDATA, add(CFA_XSP16, literal(-4)))
          CFI ?BRET_EXT load(1, XDATA, add(CFA_XSP16, literal(-3)))
          CFI DPL0 load(1, XDATA, add(CFA_XSP16, literal(-2)))
          CFI DPH0 load(1, XDATA, add(CFA_XSP16, literal(-1)))
          CFI CFA_SP SP+0
          CFI CFA_XSP16 add(XSP16, 9)
          CFI Block cfiCond85 Using cfiCommon0
          CFI (cfiCond85) Function MT_AfIncomingMsg
          CFI (cfiCond85) Conditional ??CrossCallReturnLabel_108
          CFI (cfiCond85) R6 load(1, XDATA, add(CFA_XSP16, literal(-24)))
          CFI (cfiCond85) VB load(1, XDATA, add(CFA_XSP16, literal(-23)))
          CFI (cfiCond85) V0 load(1, XDATA, add(CFA_XSP16, literal(-22)))
          CFI (cfiCond85) V1 load(1, XDATA, add(CFA_XSP16, literal(-21)))
          CFI (cfiCond85) V2 load(1, XDATA, add(CFA_XSP16, literal(-20)))
          CFI (cfiCond85) V3 load(1, XDATA, add(CFA_XSP16, literal(-19)))
          CFI (cfiCond85) V4 load(1, XDATA, add(CFA_XSP16, literal(-18)))
          CFI (cfiCond85) V5 load(1, XDATA, add(CFA_XSP16, literal(-17)))
          CFI (cfiCond85) V6 load(1, XDATA, add(CFA_XSP16, literal(-16)))
          CFI (cfiCond85) V7 load(1, XDATA, add(CFA_XSP16, literal(-15)))
          CFI (cfiCond85) V8 load(1, XDATA, add(CFA_XSP16, literal(-14)))
          CFI (cfiCond85) V9 load(1, XDATA, add(CFA_XSP16, literal(-13)))
          CFI (cfiCond85) V10 load(1, XDATA, add(CFA_XSP16, literal(-12)))
          CFI (cfiCond85) V11 load(1, XDATA, add(CFA_XSP16, literal(-11)))
          CFI (cfiCond85) V12 load(1, XDATA, add(CFA_XSP16, literal(-10)))
          CFI (cfiCond85) V13 load(1, XDATA, add(CFA_XSP16, literal(-9)))
          CFI (cfiCond85) V14 load(1, XDATA, add(CFA_XSP16, literal(-8)))
          CFI (cfiCond85) V15 load(1, XDATA, add(CFA_XSP16, literal(-7)))
          CFI (cfiCond85) R7 load(1, XDATA, add(CFA_XSP16, literal(-6)))
          CFI (cfiCond85) ?RET_LOW load(1, XDATA, add(CFA_XSP16, literal(-5)))
          CFI (cfiCond85) ?RET_HIGH load(1, XDATA, add(CFA_XSP16, literal(-4)))
          CFI (cfiCond85) ?BRET_EXT load(1, XDATA, add(CFA_XSP16, literal(-3)))
          CFI (cfiCond85) DPL0 load(1, XDATA, add(CFA_XSP16, literal(-2)))
          CFI (cfiCond85) DPH0 load(1, XDATA, add(CFA_XSP16, literal(-1)))
          CFI (cfiCond85) CFA_SP SP+0
          CFI (cfiCond85) CFA_XSP16 add(XSP16, 27)
          CFI Block cfiCond86 Using cfiCommon0
          CFI (cfiCond86) Function MT_AfExec
          CFI (cfiCond86) Conditional ??CrossCallReturnLabel_109
          CFI (cfiCond86) R6 load(1, XDATA, add(CFA_XSP16, literal(-9)))
          CFI (cfiCond86) VB load(1, XDATA, add(CFA_XSP16, literal(-8)))
          CFI (cfiCond86) V0 load(1, XDATA, add(CFA_XSP16, literal(-7)))
          CFI (cfiCond86) R7 load(1, XDATA, add(CFA_XSP16, literal(-6)))
          CFI (cfiCond86) ?RET_LOW load(1, XDATA, add(CFA_XSP16, literal(-5)))
          CFI (cfiCond86) ?RET_HIGH load(1, XDATA, add(CFA_XSP16, literal(-4)))
          CFI (cfiCond86) ?BRET_EXT load(1, XDATA, add(CFA_XSP16, literal(-3)))
          CFI (cfiCond86) DPL0 load(1, XDATA, add(CFA_XSP16, literal(-2)))
          CFI (cfiCond86) DPH0 load(1, XDATA, add(CFA_XSP16, literal(-1)))
          CFI (cfiCond86) CFA_SP SP+0
          CFI (cfiCond86) CFA_XSP16 add(XSP16, 9)
          CFI Block cfiCond87 Using cfiCommon0
          CFI (cfiCond87) Function MT_AfExec
          CFI (cfiCond87) Conditional ??CrossCallReturnLabel_110
          CFI (cfiCond87) R6 load(1, XDATA, add(CFA_XSP16, literal(-9)))
          CFI (cfiCond87) VB load(1, XDATA, add(CFA_XSP16, literal(-8)))
          CFI (cfiCond87) V0 load(1, XDATA, add(CFA_XSP16, literal(-7)))
          CFI (cfiCond87) R7 load(1, XDATA, add(CFA_XSP16, literal(-6)))
          CFI (cfiCond87) ?RET_LOW load(1, XDATA, add(CFA_XSP16, literal(-5)))
          CFI (cfiCond87) ?RET_HIGH load(1, XDATA, add(CFA_XSP16, literal(-4)))
          CFI (cfiCond87) ?BRET_EXT load(1, XDATA, add(CFA_XSP16, literal(-3)))
          CFI (cfiCond87) DPL0 load(1, XDATA, add(CFA_XSP16, literal(-2)))
          CFI (cfiCond87) DPH0 load(1, XDATA, add(CFA_XSP16, literal(-1)))
          CFI (cfiCond87) CFA_SP SP+0
          CFI (cfiCond87) CFA_XSP16 add(XSP16, 9)
          CFI Block cfiCond88 Using cfiCommon0
          CFI (cfiCond88) Function MT_AfDataRequest
          CFI (cfiCond88) Conditional ??CrossCallReturnLabel_111
          CFI (cfiCond88) R6 load(1, XDATA, add(CFA_XSP16, literal(-22)))
          CFI (cfiCond88) VB load(1, XDATA, add(CFA_XSP16, literal(-21)))
          CFI (cfiCond88) V0 load(1, XDATA, add(CFA_XSP16, literal(-20)))
          CFI (cfiCond88) V1 load(1, XDATA, add(CFA_XSP16, literal(-19)))
          CFI (cfiCond88) V2 load(1, XDATA, add(CFA_XSP16, literal(-18)))
          CFI (cfiCond88) V3 load(1, XDATA, add(CFA_XSP16, literal(-17)))
          CFI (cfiCond88) V4 load(1, XDATA, add(CFA_XSP16, literal(-16)))
          CFI (cfiCond88) V5 load(1, XDATA, add(CFA_XSP16, literal(-15)))
          CFI (cfiCond88) V6 load(1, XDATA, add(CFA_XSP16, literal(-14)))
          CFI (cfiCond88) V7 load(1, XDATA, add(CFA_XSP16, literal(-13)))
          CFI (cfiCond88) V8 load(1, XDATA, add(CFA_XSP16, literal(-12)))
          CFI (cfiCond88) V9 load(1, XDATA, add(CFA_XSP16, literal(-11)))
          CFI (cfiCond88) V10 load(1, XDATA, add(CFA_XSP16, literal(-10)))
          CFI (cfiCond88) V11 load(1, XDATA, add(CFA_XSP16, literal(-9)))
          CFI (cfiCond88) V12 load(1, XDATA, add(CFA_XSP16, literal(-8)))
          CFI (cfiCond88) V13 load(1, XDATA, add(CFA_XSP16, literal(-7)))
          CFI (cfiCond88) R7 load(1, XDATA, add(CFA_XSP16, literal(-6)))
          CFI (cfiCond88) ?RET_LOW load(1, XDATA, add(CFA_XSP16, literal(-5)))
          CFI (cfiCond88) ?RET_HIGH load(1, XDATA, add(CFA_XSP16, literal(-4)))
          CFI (cfiCond88) ?BRET_EXT load(1, XDATA, add(CFA_XSP16, literal(-3)))
          CFI (cfiCond88) DPL0 load(1, XDATA, add(CFA_XSP16, literal(-2)))
          CFI (cfiCond88) DPH0 load(1, XDATA, add(CFA_XSP16, literal(-1)))
          CFI (cfiCond88) CFA_SP SP+0
          CFI (cfiCond88) CFA_XSP16 add(XSP16, 36)
          CFI Block cfiCond89 Using cfiCommon0
          CFI (cfiCond89) Function MT_AfDataRequest
          CFI (cfiCond89) Conditional ??CrossCallReturnLabel_112
          CFI (cfiCond89) R6 load(1, XDATA, add(CFA_XSP16, literal(-22)))
          CFI (cfiCond89) VB load(1, XDATA, add(CFA_XSP16, literal(-21)))
          CFI (cfiCond89) V0 load(1, XDATA, add(CFA_XSP16, literal(-20)))
          CFI (cfiCond89) V1 load(1, XDATA, add(CFA_XSP16, literal(-19)))
          CFI (cfiCond89) V2 load(1, XDATA, add(CFA_XSP16, literal(-18)))
          CFI (cfiCond89) V3 load(1, XDATA, add(CFA_XSP16, literal(-17)))
          CFI (cfiCond89) V4 load(1, XDATA, add(CFA_XSP16, literal(-16)))
          CFI (cfiCond89) V5 load(1, XDATA, add(CFA_XSP16, literal(-15)))
          CFI (cfiCond89) V6 load(1, XDATA, add(CFA_XSP16, literal(-14)))
          CFI (cfiCond89) V7 load(1, XDATA, add(CFA_XSP16, literal(-13)))
          CFI (cfiCond89) V8 load(1, XDATA, add(CFA_XSP16, literal(-12)))
          CFI (cfiCond89) V9 load(1, XDATA, add(CFA_XSP16, literal(-11)))
          CFI (cfiCond89) V10 load(1, XDATA, add(CFA_XSP16, literal(-10)))
          CFI (cfiCond89) V11 load(1, XDATA, add(CFA_XSP16, literal(-9)))
          CFI (cfiCond89) V12 load(1, XDATA, add(CFA_XSP16, literal(-8)))
          CFI (cfiCond89) V13 load(1, XDATA, add(CFA_XSP16, literal(-7)))
          CFI (cfiCond89) R7 load(1, XDATA, add(CFA_XSP16, literal(-6)))
          CFI (cfiCond89) ?RET_LOW load(1, XDATA, add(CFA_XSP16, literal(-5)))
          CFI (cfiCond89) ?RET_HIGH load(1, XDATA, add(CFA_XSP16, literal(-4)))
          CFI (cfiCond89) ?BRET_EXT load(1, XDATA, add(CFA_XSP16, literal(-3)))
          CFI (cfiCond89) DPL0 load(1, XDATA, add(CFA_XSP16, literal(-2)))
          CFI (cfiCond89) DPH0 load(1, XDATA, add(CFA_XSP16, literal(-1)))
          CFI (cfiCond89) CFA_SP SP+0
          CFI (cfiCond89) CFA_XSP16 add(XSP16, 36)
          CFI Block cfiCond90 Using cfiCommon0
          CFI (cfiCond90) Function MT_AfDataStore
          CFI (cfiCond90) Conditional ??CrossCallReturnLabel_113
          CFI (cfiCond90) R6 load(1, XDATA, add(CFA_XSP16, literal(-14)))
          CFI (cfiCond90) VB load(1, XDATA, add(CFA_XSP16, literal(-13)))
          CFI (cfiCond90) V0 load(1, XDATA, add(CFA_XSP16, literal(-12)))
          CFI (cfiCond90) V1 load(1, XDATA, add(CFA_XSP16, literal(-11)))
          CFI (cfiCond90) V2 load(1, XDATA, add(CFA_XSP16, literal(-10)))
          CFI (cfiCond90) V3 load(1, XDATA, add(CFA_XSP16, literal(-9)))
          CFI (cfiCond90) V4 load(1, XDATA, add(CFA_XSP16, literal(-8)))
          CFI (cfiCond90) V5 load(1, XDATA, add(CFA_XSP16, literal(-7)))
          CFI (cfiCond90) R7 load(1, XDATA, add(CFA_XSP16, literal(-6)))
          CFI (cfiCond90) ?RET_LOW load(1, XDATA, add(CFA_XSP16, literal(-5)))
          CFI (cfiCond90) ?RET_HIGH load(1, XDATA, add(CFA_XSP16, literal(-4)))
          CFI (cfiCond90) ?BRET_EXT load(1, XDATA, add(CFA_XSP16, literal(-3)))
          CFI (cfiCond90) DPL0 load(1, XDATA, add(CFA_XSP16, literal(-2)))
          CFI (cfiCond90) DPH0 load(1, XDATA, add(CFA_XSP16, literal(-1)))
          CFI (cfiCond90) CFA_SP SP+0
          CFI (cfiCond90) CFA_XSP16 add(XSP16, 15)
          CFI Block cfiPicker91 Using cfiCommon1
          CFI (cfiPicker91) NoFunction
          CFI (cfiPicker91) Picker
        LCALL   ??Subroutine63_0 & 0xFFFF
??CrossCallReturnLabel_143:
        MOV     A,R0
        ORL     A,R1
        RET
          CFI EndBlock cfiCond84
          CFI EndBlock cfiCond85
          CFI EndBlock cfiCond86
          CFI EndBlock cfiCond87
          CFI EndBlock cfiCond88
          CFI EndBlock cfiCond89
          CFI EndBlock cfiCond90
          CFI EndBlock cfiPicker91
//  458 
//  459 #if defined ( ZIGBEE_SOURCE_ROUTING )
//  460 
//  461 /***************************************************************************************************
//  462  * @fn      MT_AfDataRequestSrcRtg
//  463  *
//  464  * @brief   Process AF Register command
//  465  *
//  466  * @param   pBuf - pointer to the received buffer
//  467  *
//  468  * @return  none
//  469  ***************************************************************************************************/

        RSEG BANKED_CODE:CODE:NOROOT(0)
//  470 void MT_AfDataRequestSrcRtg(uint8 *pBuf)
MT_AfDataRequestSrcRtg:
          CFI Block cfiBlock92 Using cfiCommon0
          CFI Function MT_AfDataRequestSrcRtg
        CODE
//  471 {
        FUNCALL MT_AfDataRequestSrcRtg, osal_memset
        LOCFRAME ISTACK, 0, STACK
        LOCFRAME PSTACK, 0, STACK
        LOCFRAME XSTACK, 36, STACK
        LOCFRAME IOVERLAY, 0, STATIC
        LOCFRAME DOVERLAY, 0, STATIC
        ARGFRAME ISTACK, 0, STACK
        ARGFRAME PSTACK, 0, STACK
        ARGFRAME XSTACK, 36, STACK
        ARGFRAME IOVERLAY, 0, STATIC
        ARGFRAME DOVERLAY, 0, STATIC
        FUNCALL MT_AfDataRequestSrcRtg, afFindEndPointDesc
        LOCFRAME ISTACK, 0, STACK
        LOCFRAME PSTACK, 0, STACK
        LOCFRAME XSTACK, 36, STACK
        LOCFRAME IOVERLAY, 0, STATIC
        LOCFRAME DOVERLAY, 0, STATIC
        ARGFRAME ISTACK, 0, STACK
        ARGFRAME PSTACK, 0, STACK
        ARGFRAME XSTACK, 36, STACK
        ARGFRAME IOVERLAY, 0, STATIC
        ARGFRAME DOVERLAY, 0, STATIC
        FUNCALL MT_AfDataRequestSrcRtg, osal_mem_alloc
        LOCFRAME ISTACK, 0, STACK
        LOCFRAME PSTACK, 0, STACK
        LOCFRAME XSTACK, 36, STACK
        LOCFRAME IOVERLAY, 0, STATIC
        LOCFRAME DOVERLAY, 0, STATIC
        ARGFRAME ISTACK, 0, STACK
        ARGFRAME PSTACK, 0, STACK
        ARGFRAME XSTACK, 36, STACK
        ARGFRAME IOVERLAY, 0, STATIC
        ARGFRAME DOVERLAY, 0, STATIC
        FUNCALL MT_AfDataRequestSrcRtg, AF_DataRequestSrcRtg
        LOCFRAME ISTACK, 0, STACK
        LOCFRAME PSTACK, 0, STACK
        LOCFRAME XSTACK, 48, STACK
        LOCFRAME IOVERLAY, 0, STATIC
        LOCFRAME DOVERLAY, 0, STATIC
        ARGFRAME ISTACK, 0, STACK
        ARGFRAME PSTACK, 0, STACK
        ARGFRAME XSTACK, 48, STACK
        ARGFRAME IOVERLAY, 0, STATIC
        ARGFRAME DOVERLAY, 0, STATIC
        FUNCALL MT_AfDataRequestSrcRtg, osal_mem_free
        LOCFRAME ISTACK, 0, STACK
        LOCFRAME PSTACK, 0, STACK
        LOCFRAME XSTACK, 36, STACK
        LOCFRAME IOVERLAY, 0, STATIC
        LOCFRAME DOVERLAY, 0, STATIC
        ARGFRAME ISTACK, 0, STACK
        ARGFRAME PSTACK, 0, STACK
        ARGFRAME XSTACK, 36, STACK
        ARGFRAME IOVERLAY, 0, STATIC
        ARGFRAME DOVERLAY, 0, STATIC
        FUNCALL MT_AfDataRequestSrcRtg, MT_BuildAndSendZToolResponse
        LOCFRAME ISTACK, 0, STACK
        LOCFRAME PSTACK, 0, STACK
        LOCFRAME XSTACK, 36, STACK
        LOCFRAME IOVERLAY, 0, STATIC
        LOCFRAME DOVERLAY, 0, STATIC
        ARGFRAME ISTACK, 0, STACK
        ARGFRAME PSTACK, 0, STACK
        ARGFRAME XSTACK, 36, STACK
        ARGFRAME IOVERLAY, 0, STATIC
        ARGFRAME DOVERLAY, 0, STATIC
        MOV     A,#-0x16
        LCALL   ?BANKED_ENTER_XDATA
          CFI DPH0 load(1, XDATA, add(CFA_XSP16, literal(-1)))
          CFI DPL0 load(1, XDATA, add(CFA_XSP16, literal(-2)))
          CFI ?BRET_EXT load(1, XDATA, add(CFA_XSP16, literal(-3)))
          CFI ?RET_HIGH load(1, XDATA, add(CFA_XSP16, literal(-4)))
          CFI ?RET_LOW load(1, XDATA, add(CFA_XSP16, literal(-5)))
          CFI R7 load(1, XDATA, add(CFA_XSP16, literal(-6)))
          CFI V13 load(1, XDATA, add(CFA_XSP16, literal(-7)))
          CFI V12 load(1, XDATA, add(CFA_XSP16, literal(-8)))
          CFI V11 load(1, XDATA, add(CFA_XSP16, literal(-9)))
          CFI V10 load(1, XDATA, add(CFA_XSP16, literal(-10)))
          CFI V9 load(1, XDATA, add(CFA_XSP16, literal(-11)))
          CFI V8 load(1, XDATA, add(CFA_XSP16, literal(-12)))
          CFI V7 load(1, XDATA, add(CFA_XSP16, literal(-13)))
          CFI V6 load(1, XDATA, add(CFA_XSP16, literal(-14)))
          CFI V5 load(1, XDATA, add(CFA_XSP16, literal(-15)))
          CFI V4 load(1, XDATA, add(CFA_XSP16, literal(-16)))
          CFI V3 load(1, XDATA, add(CFA_XSP16, literal(-17)))
          CFI V2 load(1, XDATA, add(CFA_XSP16, literal(-18)))
          CFI V1 load(1, XDATA, add(CFA_XSP16, literal(-19)))
          CFI V0 load(1, XDATA, add(CFA_XSP16, literal(-20)))
          CFI VB load(1, XDATA, add(CFA_XSP16, literal(-21)))
          CFI R6 load(1, XDATA, add(CFA_XSP16, literal(-22)))
          CFI CFA_SP SP+0
          CFI CFA_XSP16 add(XSP16, 22)
        ; Saved register size: 22
        ; Auto size: 14
        MOV     A,#-0xe
        LCALL   ?ALLOC_XSTACK8
          CFI CFA_XSP16 add(XSP16, 36)
        MOV     A,R2
        MOV     R6,A
        MOV     A,R3
        MOV     R7,A
//  472   uint8 cmdId, dataLen = 0;
//  473   uint8 retValue = ZFailure;
        MOV     DPL,?XSP + 0
        MOV     DPH,?XSP + 1
        MOV     A,#0x1
        LCALL   ?Subroutine36 & 0xFFFF
//  474   endPointDesc_t *epDesc;
//  475   byte transId;
//  476   afAddrType_t dstAddr;
//  477   cId_t cId;
//  478   byte txOpts, radius, srcEP, relayCnt;
//  479   uint16 *pRelayList;
//  480   uint8 i;
//  481 
//  482   /* parse header */
//  483   cmdId = pBuf[MT_RPC_POS_CMD1];
??CrossCallReturnLabel_59:
        INC     DPTR
        MOVX    A,@DPTR
        MOV     ?V0 + 4,A
//  484   pBuf += MT_RPC_FRAME_HDR_SZ;
        MOV     A,R6
        ADD     A,#0x3
        MOV     R6,A
        MOV     A,R7
        ADDC    A,#0x0
        MOV     R7,A
//  485 
//  486   /* Destination address */
//  487   /* Initialize the panID field to zero to avoid inter-pan */
//  488   osal_memset( &dstAddr, 0, sizeof(afAddrType_t) );
        ; Setup parameters for call to function osal_memset
        MOV     R4,#0xc
        MOV     R5,#0x0
        MOV     R1,#0x0
        MOV     A,#0x2
        LCALL   ?XSTACK_DISP0_8
        MOV     R2,DPL
        MOV     R3,DPH
        LCALL   ??osal_memset?relay
//  489   dstAddr.addrMode = afAddr16Bit;
        MOV     A,#0xa
        LCALL   ?XSTACK_DISP0_8
        MOV     A,#0x2
        MOVX    @DPTR,A
//  490   dstAddr.addr.shortAddr = BUILD_UINT16(pBuf[0], pBuf[1]);
        MOV     DPL,R6
        MOV     DPH,R7
        LCALL   ?Subroutine18 & 0xFFFF
??CrossCallReturnLabel_119:
        LCALL   ?XSTACK_DISP0_8
        LCALL   ?Subroutine32 & 0xFFFF
//  491   pBuf += 2;
??CrossCallReturnLabel_49:
        LCALL   ?Subroutine24 & 0xFFFF
//  492 
//  493   /* Destination endpoint */
//  494   dstAddr.endPoint = *pBuf++;
??CrossCallReturnLabel_114:
        PUSH    A
          CFI CFA_SP SP+-1
        MOV     A,#0xb
        LCALL   ?XSTACK_DISP0_8
        POP     A
          CFI CFA_SP SP+0
        LCALL   ?Subroutine36 & 0xFFFF
//  495 
//  496   /* Source endpoint */
//  497   srcEP = *pBuf++;
??CrossCallReturnLabel_60:
        MOVX    A,@DPTR
        MOV     R1,A
        INC     DPTR
        MOV     R6,DPL
        MOV     R7,DPH
//  498   epDesc = afFindEndPointDesc( srcEP );
        ; Setup parameters for call to function afFindEndPointDesc
        LCALL   ??afFindEndPointDesc?relay
        MOV     ?V0 + 2,R2
        MOV     ?V0 + 3,R3
//  499 
//  500   /* ClusterId */
//  501   cId = BUILD_UINT16(pBuf[0], pBuf[1]);
        LCALL   ?Subroutine15 & 0xFFFF
??CrossCallReturnLabel_121:
        MOV     ?V0 + 6,A
        CLR     A
        ADDC    A,R1
        MOV     ?V0 + 7,A
//  502   pBuf +=2;
        LCALL   ?Subroutine24 & 0xFFFF
//  503 
//  504   /* TransId */
//  505   transId = *pBuf++;
??CrossCallReturnLabel_115:
        PUSH    A
          CFI CFA_SP SP+-1
        MOV     A,#0x1
        LCALL   ?XSTACK_DISP0_8
        POP     A
          CFI CFA_SP SP+0
        LCALL   ?Subroutine36 & 0xFFFF
//  506 
//  507   /* TxOption */
//  508   txOpts = *pBuf++;
??CrossCallReturnLabel_61:
        MOVX    A,@DPTR
        MOV     ?V0 + 5,A
        INC     DPTR
//  509 
//  510   /* Radius */
//  511   radius = *pBuf++;
        MOVX    A,@DPTR
        MOV     ?V0 + 10,A
        INC     DPTR
//  512 
//  513   /* Source route relay count */
//  514   relayCnt = *pBuf++;
        MOVX    A,@DPTR
        MOV     ?V0 + 11,A
        INC     DPTR
        MOV     R6,DPL
        MOV     R7,DPH
//  515 
//  516   /* Convert the source route relay list */
//  517   if( (pRelayList = osal_mem_alloc( relayCnt * sizeof( uint16 ))) != NULL )
        ; Setup parameters for call to function osal_mem_alloc
        CLR     C
        RLC     A
        MOV     R2,A
        CLR     A
        RLC     A
        MOV     R3,A
        LCALL   ??osal_mem_alloc?relay
        MOV     ?V0 + 0,R2
        MOV     ?V0 + 1,R3
        MOV     A,R2
        ORL     A,?V0 + 1
        JNZ     $+5
        LJMP    ??MT_AfDataRequestSrcRtg_0 & 0xFFFF
//  518   {
//  519     for( i = 0; i < relayCnt; i++ )
        MOV     R4,#0x0
        SJMP    ??MT_AfDataRequestSrcRtg_1
//  520     {
//  521       pRelayList[i]  = BUILD_UINT16( pBuf[0], pBuf[1] );
??MT_AfDataRequestSrcRtg_2:
        MOV     R2,A
        MOV     DPL,R0
        MOV     DPH,R1
        MOVX    A,@DPTR
        MOV     R1,A
        MOV     A,R2
        ADD     A,#0x0
        CLR     A
        ADDC    A,R1
        MOV     R3,A
        MOV     A,R4
        RLC     A
        MOV     R0,A
        CLR     A
        RLC     A
        MOV     R1,A
        MOV     A,?V0 + 0
        ADD     A,R0
        MOV     DPL,A
        MOV     A,?V0 + 1
        ADDC    A,R1
        MOV     DPH,A
        MOV     A,R2
        MOVX    @DPTR,A
        INC     DPTR
        MOV     A,R3
        MOVX    @DPTR,A
//  522       pBuf += 2;
        MOV     A,R6
        ADD     A,#0x2
        MOV     R6,A
        MOV     A,R7
        ADDC    A,#0x0
        MOV     R7,A
//  523     }
        INC     R4
??MT_AfDataRequestSrcRtg_1:
        MOV     DPL,R6
        MOV     DPH,R7
        INC     DPTR
        MOV     R0,DPL
        MOV     R1,DPH
        MOV     A,R4
        CLR     C
        SUBB    A,?V0 + 11
        MOV     DPL,R6
        MOV     DPH,R7
        MOVX    A,@DPTR
        JC      ??MT_AfDataRequestSrcRtg_2
//  524 
//  525     /* Data payload Length */
//  526     dataLen = *pBuf++;
        MOV     ?V0 + 12,A
        MOV     A,R0
        MOV     R6,A
        MOV     A,R1
        MOV     R7,A
//  527 
//  528     if ( epDesc == NULL )
        MOV     A,?V0 + 2
        ORL     A,?V0 + 3
        JNZ     ??MT_AfDataRequestSrcRtg_3
//  529     {
//  530       retValue = afStatus_INVALID_PARAMETER;
        MOV     DPL,?XSP + 0
        MOV     DPH,?XSP + 1
        MOV     A,#0x2
        SJMP    ??MT_AfDataRequestSrcRtg_4
//  531     }
//  532     else
//  533     {
//  534       retValue = AF_DataRequestSrcRtg( &dstAddr, epDesc, cId, dataLen, pBuf,
//  535                                      &transId, txOpts, radius, relayCnt, pRelayList );
??MT_AfDataRequestSrcRtg_3:
        ; Setup parameters for call to function AF_DataRequestSrcRtg
        MOV     R0,#?V0 + 0
        LCALL   ?PUSH_XSTACK_I_TWO
          CFI CFA_XSP16 add(XSP16, 38)
        MOV     A,?V0 + 11
        MOV     ?V0 + 8,A
        MOV     R0,#?V0 + 8
        LCALL   ?PUSH_XSTACK_I_ONE
          CFI CFA_XSP16 add(XSP16, 39)
        MOV     A,?V0 + 10
        MOV     ?V0 + 8,A
        MOV     R0,#?V0 + 8
        LCALL   ?PUSH_XSTACK_I_ONE
          CFI CFA_XSP16 add(XSP16, 40)
        MOV     A,#0x5
        LCALL   ?XSTACK_DISP0_8
        MOV     ?V0 + 8,DPL
        MOV     ?V0 + 9,DPH
        MOV     R0,#?V0 + 8
        LCALL   ?PUSH_XSTACK_I_TWO
          CFI CFA_XSP16 add(XSP16, 42)
        MOV     ?V0 + 8,R6
        MOV     ?V0 + 9,R7
        MOV     R0,#?V0 + 8
        LCALL   ?PUSH_XSTACK_I_TWO
          CFI CFA_XSP16 add(XSP16, 44)
        MOV     ?V0 + 13,#0x0
        MOV     R0,#?V0 + 12
        LCALL   ?PUSH_XSTACK_I_TWO
          CFI CFA_XSP16 add(XSP16, 46)
        MOV     R0,#?V0 + 6
        LCALL   ?PUSH_XSTACK_I_TWO
          CFI CFA_XSP16 add(XSP16, 48)
        MOV     R1,?V0 + 5
        MOV     R4,?V0 + 2
        MOV     R5,?V0 + 3
        MOV     A,#0xe
        LCALL   ?XSTACK_DISP0_8
        MOV     R2,DPL
        MOV     R3,DPH
        LCALL   ??AF_DataRequestSrcRtg?relay
        MOV     A,#0xc
        LCALL   ?DEALLOC_XSTACK8
          CFI CFA_XSP16 add(XSP16, 36)
        MOV     A,R1
        MOV     DPL,?XSP + 0
        MOV     DPH,?XSP + 1
??MT_AfDataRequestSrcRtg_4:
        MOVX    @DPTR,A
//  536     }
//  537 
//  538     /* Free the memory allocated */
//  539     osal_mem_free( pRelayList );
        ; Setup parameters for call to function osal_mem_free
        MOV     R2,?V0 + 0
        MOV     R3,?V0 + 1
        LCALL   ??osal_mem_free?relay
        SJMP    ??MT_AfDataRequestSrcRtg_5
//  540   }
//  541   else
//  542   {
//  543     retValue = afStatus_MEM_FAIL;
??MT_AfDataRequestSrcRtg_0:
        MOV     DPL,?XSP + 0
        MOV     DPH,?XSP + 1
        MOV     A,#0x10
        MOVX    @DPTR,A
//  544   }
//  545 
//  546 
//  547   /* Build and send back the response */
//  548   MT_BuildAndSendZToolResponse(((uint8)MT_RPC_CMD_SRSP | (uint8)MT_RPC_SYS_AF), cmdId, 1, &retValue);
??MT_AfDataRequestSrcRtg_5:
        ; Setup parameters for call to function MT_BuildAndSendZToolResponse
        MOV     DPL,?XSP + 0
        MOV     DPH,?XSP + 1
        MOV     R4,DPL
        MOV     R5,DPH
        MOV     R3,#0x1
        MOV     R2,?V0 + 4
        MOV     R1,#0x64
        LCALL   ??MT_BuildAndSendZToolResponse?relay
//  549 }
        LJMP    ?Subroutine2 & 0xFFFF
          CFI EndBlock cfiBlock92

        RSEG BANKED_CODE:CODE:NOROOT(0)
?Subroutine36:
          CFI Block cfiCond93 Using cfiCommon0
          CFI Function MT_AfDataRequestSrcRtg
          CFI Conditional ??CrossCallReturnLabel_59
          CFI R6 load(1, XDATA, add(CFA_XSP16, literal(-22)))
          CFI VB load(1, XDATA, add(CFA_XSP16, literal(-21)))
          CFI V0 load(1, XDATA, add(CFA_XSP16, literal(-20)))
          CFI V1 load(1, XDATA, add(CFA_XSP16, literal(-19)))
          CFI V2 load(1, XDATA, add(CFA_XSP16, literal(-18)))
          CFI V3 load(1, XDATA, add(CFA_XSP16, literal(-17)))
          CFI V4 load(1, XDATA, add(CFA_XSP16, literal(-16)))
          CFI V5 load(1, XDATA, add(CFA_XSP16, literal(-15)))
          CFI V6 load(1, XDATA, add(CFA_XSP16, literal(-14)))
          CFI V7 load(1, XDATA, add(CFA_XSP16, literal(-13)))
          CFI V8 load(1, XDATA, add(CFA_XSP16, literal(-12)))
          CFI V9 load(1, XDATA, add(CFA_XSP16, literal(-11)))
          CFI V10 load(1, XDATA, add(CFA_XSP16, literal(-10)))
          CFI V11 load(1, XDATA, add(CFA_XSP16, literal(-9)))
          CFI V12 load(1, XDATA, add(CFA_XSP16, literal(-8)))
          CFI V13 load(1, XDATA, add(CFA_XSP16, literal(-7)))
          CFI R7 load(1, XDATA, add(CFA_XSP16, literal(-6)))
          CFI ?RET_LOW load(1, XDATA, add(CFA_XSP16, literal(-5)))
          CFI ?RET_HIGH load(1, XDATA, add(CFA_XSP16, literal(-4)))
          CFI ?BRET_EXT load(1, XDATA, add(CFA_XSP16, literal(-3)))
          CFI DPL0 load(1, XDATA, add(CFA_XSP16, literal(-2)))
          CFI DPH0 load(1, XDATA, add(CFA_XSP16, literal(-1)))
          CFI CFA_SP SP+0
          CFI CFA_XSP16 add(XSP16, 36)
          CFI Block cfiCond94 Using cfiCommon0
          CFI (cfiCond94) Function MT_AfDataRequestSrcRtg
          CFI (cfiCond94) Conditional ??CrossCallReturnLabel_60
          CFI (cfiCond94) R6 load(1, XDATA, add(CFA_XSP16, literal(-22)))
          CFI (cfiCond94) VB load(1, XDATA, add(CFA_XSP16, literal(-21)))
          CFI (cfiCond94) V0 load(1, XDATA, add(CFA_XSP16, literal(-20)))
          CFI (cfiCond94) V1 load(1, XDATA, add(CFA_XSP16, literal(-19)))
          CFI (cfiCond94) V2 load(1, XDATA, add(CFA_XSP16, literal(-18)))
          CFI (cfiCond94) V3 load(1, XDATA, add(CFA_XSP16, literal(-17)))
          CFI (cfiCond94) V4 load(1, XDATA, add(CFA_XSP16, literal(-16)))
          CFI (cfiCond94) V5 load(1, XDATA, add(CFA_XSP16, literal(-15)))
          CFI (cfiCond94) V6 load(1, XDATA, add(CFA_XSP16, literal(-14)))
          CFI (cfiCond94) V7 load(1, XDATA, add(CFA_XSP16, literal(-13)))
          CFI (cfiCond94) V8 load(1, XDATA, add(CFA_XSP16, literal(-12)))
          CFI (cfiCond94) V9 load(1, XDATA, add(CFA_XSP16, literal(-11)))
          CFI (cfiCond94) V10 load(1, XDATA, add(CFA_XSP16, literal(-10)))
          CFI (cfiCond94) V11 load(1, XDATA, add(CFA_XSP16, literal(-9)))
          CFI (cfiCond94) V12 load(1, XDATA, add(CFA_XSP16, literal(-8)))
          CFI (cfiCond94) V13 load(1, XDATA, add(CFA_XSP16, literal(-7)))
          CFI (cfiCond94) R7 load(1, XDATA, add(CFA_XSP16, literal(-6)))
          CFI (cfiCond94) ?RET_LOW load(1, XDATA, add(CFA_XSP16, literal(-5)))
          CFI (cfiCond94) ?RET_HIGH load(1, XDATA, add(CFA_XSP16, literal(-4)))
          CFI (cfiCond94) ?BRET_EXT load(1, XDATA, add(CFA_XSP16, literal(-3)))
          CFI (cfiCond94) DPL0 load(1, XDATA, add(CFA_XSP16, literal(-2)))
          CFI (cfiCond94) DPH0 load(1, XDATA, add(CFA_XSP16, literal(-1)))
          CFI (cfiCond94) CFA_SP SP+0
          CFI (cfiCond94) CFA_XSP16 add(XSP16, 36)
          CFI Block cfiCond95 Using cfiCommon0
          CFI (cfiCond95) Function MT_AfDataRequestSrcRtg
          CFI (cfiCond95) Conditional ??CrossCallReturnLabel_61
          CFI (cfiCond95) R6 load(1, XDATA, add(CFA_XSP16, literal(-22)))
          CFI (cfiCond95) VB load(1, XDATA, add(CFA_XSP16, literal(-21)))
          CFI (cfiCond95) V0 load(1, XDATA, add(CFA_XSP16, literal(-20)))
          CFI (cfiCond95) V1 load(1, XDATA, add(CFA_XSP16, literal(-19)))
          CFI (cfiCond95) V2 load(1, XDATA, add(CFA_XSP16, literal(-18)))
          CFI (cfiCond95) V3 load(1, XDATA, add(CFA_XSP16, literal(-17)))
          CFI (cfiCond95) V4 load(1, XDATA, add(CFA_XSP16, literal(-16)))
          CFI (cfiCond95) V5 load(1, XDATA, add(CFA_XSP16, literal(-15)))
          CFI (cfiCond95) V6 load(1, XDATA, add(CFA_XSP16, literal(-14)))
          CFI (cfiCond95) V7 load(1, XDATA, add(CFA_XSP16, literal(-13)))
          CFI (cfiCond95) V8 load(1, XDATA, add(CFA_XSP16, literal(-12)))
          CFI (cfiCond95) V9 load(1, XDATA, add(CFA_XSP16, literal(-11)))
          CFI (cfiCond95) V10 load(1, XDATA, add(CFA_XSP16, literal(-10)))
          CFI (cfiCond95) V11 load(1, XDATA, add(CFA_XSP16, literal(-9)))
          CFI (cfiCond95) V12 load(1, XDATA, add(CFA_XSP16, literal(-8)))
          CFI (cfiCond95) V13 load(1, XDATA, add(CFA_XSP16, literal(-7)))
          CFI (cfiCond95) R7 load(1, XDATA, add(CFA_XSP16, literal(-6)))
          CFI (cfiCond95) ?RET_LOW load(1, XDATA, add(CFA_XSP16, literal(-5)))
          CFI (cfiCond95) ?RET_HIGH load(1, XDATA, add(CFA_XSP16, literal(-4)))
          CFI (cfiCond95) ?BRET_EXT load(1, XDATA, add(CFA_XSP16, literal(-3)))
          CFI (cfiCond95) DPL0 load(1, XDATA, add(CFA_XSP16, literal(-2)))
          CFI (cfiCond95) DPH0 load(1, XDATA, add(CFA_XSP16, literal(-1)))
          CFI (cfiCond95) CFA_SP SP+0
          CFI (cfiCond95) CFA_XSP16 add(XSP16, 36)
          CFI Block cfiPicker96 Using cfiCommon1
          CFI (cfiPicker96) NoFunction
          CFI (cfiPicker96) Picker
        MOVX    @DPTR,A
        MOV     DPL,R6
        MOV     DPH,R7
        INC     DPTR
        RET
          CFI EndBlock cfiCond93
          CFI EndBlock cfiCond94
          CFI EndBlock cfiCond95
          CFI EndBlock cfiPicker96

        RSEG BANKED_CODE:CODE:NOROOT(0)
?Subroutine32:
          CFI Block cfiCond97 Using cfiCommon0
          CFI Function MT_AfExec
          CFI Conditional ??CrossCallReturnLabel_44
          CFI R6 load(1, XDATA, add(CFA_XSP16, literal(-9)))
          CFI VB load(1, XDATA, add(CFA_XSP16, literal(-8)))
          CFI V0 load(1, XDATA, add(CFA_XSP16, literal(-7)))
          CFI R7 load(1, XDATA, add(CFA_XSP16, literal(-6)))
          CFI ?RET_LOW load(1, XDATA, add(CFA_XSP16, literal(-5)))
          CFI ?RET_HIGH load(1, XDATA, add(CFA_XSP16, literal(-4)))
          CFI ?BRET_EXT load(1, XDATA, add(CFA_XSP16, literal(-3)))
          CFI DPL0 load(1, XDATA, add(CFA_XSP16, literal(-2)))
          CFI DPH0 load(1, XDATA, add(CFA_XSP16, literal(-1)))
          CFI CFA_SP SP+0
          CFI CFA_XSP16 add(XSP16, 9)
          CFI Block cfiCond98 Using cfiCommon0
          CFI (cfiCond98) Function MT_AfExec
          CFI (cfiCond98) Conditional ??CrossCallReturnLabel_45
          CFI (cfiCond98) R6 load(1, XDATA, add(CFA_XSP16, literal(-9)))
          CFI (cfiCond98) VB load(1, XDATA, add(CFA_XSP16, literal(-8)))
          CFI (cfiCond98) V0 load(1, XDATA, add(CFA_XSP16, literal(-7)))
          CFI (cfiCond98) R7 load(1, XDATA, add(CFA_XSP16, literal(-6)))
          CFI (cfiCond98) ?RET_LOW load(1, XDATA, add(CFA_XSP16, literal(-5)))
          CFI (cfiCond98) ?RET_HIGH load(1, XDATA, add(CFA_XSP16, literal(-4)))
          CFI (cfiCond98) ?BRET_EXT load(1, XDATA, add(CFA_XSP16, literal(-3)))
          CFI (cfiCond98) DPL0 load(1, XDATA, add(CFA_XSP16, literal(-2)))
          CFI (cfiCond98) DPH0 load(1, XDATA, add(CFA_XSP16, literal(-1)))
          CFI (cfiCond98) CFA_SP SP+0
          CFI (cfiCond98) CFA_XSP16 add(XSP16, 9)
          CFI Block cfiCond99 Using cfiCommon0
          CFI (cfiCond99) Function MT_AfDataRequest
          CFI (cfiCond99) Conditional ??CrossCallReturnLabel_46
          CFI (cfiCond99) R6 load(1, XDATA, add(CFA_XSP16, literal(-22)))
          CFI (cfiCond99) VB load(1, XDATA, add(CFA_XSP16, literal(-21)))
          CFI (cfiCond99) V0 load(1, XDATA, add(CFA_XSP16, literal(-20)))
          CFI (cfiCond99) V1 load(1, XDATA, add(CFA_XSP16, literal(-19)))
          CFI (cfiCond99) V2 load(1, XDATA, add(CFA_XSP16, literal(-18)))
          CFI (cfiCond99) V3 load(1, XDATA, add(CFA_XSP16, literal(-17)))
          CFI (cfiCond99) V4 load(1, XDATA, add(CFA_XSP16, literal(-16)))
          CFI (cfiCond99) V5 load(1, XDATA, add(CFA_XSP16, literal(-15)))
          CFI (cfiCond99) V6 load(1, XDATA, add(CFA_XSP16, literal(-14)))
          CFI (cfiCond99) V7 load(1, XDATA, add(CFA_XSP16, literal(-13)))
          CFI (cfiCond99) V8 load(1, XDATA, add(CFA_XSP16, literal(-12)))
          CFI (cfiCond99) V9 load(1, XDATA, add(CFA_XSP16, literal(-11)))
          CFI (cfiCond99) V10 load(1, XDATA, add(CFA_XSP16, literal(-10)))
          CFI (cfiCond99) V11 load(1, XDATA, add(CFA_XSP16, literal(-9)))
          CFI (cfiCond99) V12 load(1, XDATA, add(CFA_XSP16, literal(-8)))
          CFI (cfiCond99) V13 load(1, XDATA, add(CFA_XSP16, literal(-7)))
          CFI (cfiCond99) R7 load(1, XDATA, add(CFA_XSP16, literal(-6)))
          CFI (cfiCond99) ?RET_LOW load(1, XDATA, add(CFA_XSP16, literal(-5)))
          CFI (cfiCond99) ?RET_HIGH load(1, XDATA, add(CFA_XSP16, literal(-4)))
          CFI (cfiCond99) ?BRET_EXT load(1, XDATA, add(CFA_XSP16, literal(-3)))
          CFI (cfiCond99) DPL0 load(1, XDATA, add(CFA_XSP16, literal(-2)))
          CFI (cfiCond99) DPH0 load(1, XDATA, add(CFA_XSP16, literal(-1)))
          CFI (cfiCond99) CFA_SP SP+0
          CFI (cfiCond99) CFA_XSP16 add(XSP16, 36)
          CFI Block cfiCond100 Using cfiCommon0
          CFI (cfiCond100) Function MT_AfDataRequest
          CFI (cfiCond100) Conditional ??CrossCallReturnLabel_47
          CFI (cfiCond100) R6 load(1, XDATA, add(CFA_XSP16, literal(-22)))
          CFI (cfiCond100) VB load(1, XDATA, add(CFA_XSP16, literal(-21)))
          CFI (cfiCond100) V0 load(1, XDATA, add(CFA_XSP16, literal(-20)))
          CFI (cfiCond100) V1 load(1, XDATA, add(CFA_XSP16, literal(-19)))
          CFI (cfiCond100) V2 load(1, XDATA, add(CFA_XSP16, literal(-18)))
          CFI (cfiCond100) V3 load(1, XDATA, add(CFA_XSP16, literal(-17)))
          CFI (cfiCond100) V4 load(1, XDATA, add(CFA_XSP16, literal(-16)))
          CFI (cfiCond100) V5 load(1, XDATA, add(CFA_XSP16, literal(-15)))
          CFI (cfiCond100) V6 load(1, XDATA, add(CFA_XSP16, literal(-14)))
          CFI (cfiCond100) V7 load(1, XDATA, add(CFA_XSP16, literal(-13)))
          CFI (cfiCond100) V8 load(1, XDATA, add(CFA_XSP16, literal(-12)))
          CFI (cfiCond100) V9 load(1, XDATA, add(CFA_XSP16, literal(-11)))
          CFI (cfiCond100) V10 load(1, XDATA, add(CFA_XSP16, literal(-10)))
          CFI (cfiCond100) V11 load(1, XDATA, add(CFA_XSP16, literal(-9)))
          CFI (cfiCond100) V12 load(1, XDATA, add(CFA_XSP16, literal(-8)))
          CFI (cfiCond100) V13 load(1, XDATA, add(CFA_XSP16, literal(-7)))
          CFI (cfiCond100) R7 load(1, XDATA, add(CFA_XSP16, literal(-6)))
          CFI (cfiCond100) ?RET_LOW load(1, XDATA, add(CFA_XSP16, literal(-5)))
          CFI (cfiCond100) ?RET_HIGH load(1, XDATA, add(CFA_XSP16, literal(-4)))
          CFI (cfiCond100) ?BRET_EXT load(1, XDATA, add(CFA_XSP16, literal(-3)))
          CFI (cfiCond100) DPL0 load(1, XDATA, add(CFA_XSP16, literal(-2)))
          CFI (cfiCond100) DPH0 load(1, XDATA, add(CFA_XSP16, literal(-1)))
          CFI (cfiCond100) CFA_SP SP+0
          CFI (cfiCond100) CFA_XSP16 add(XSP16, 36)
          CFI Block cfiCond101 Using cfiCommon0
          CFI (cfiCond101) Function MT_AfDataRequest
          CFI (cfiCond101) Conditional ??CrossCallReturnLabel_48
          CFI (cfiCond101) R6 load(1, XDATA, add(CFA_XSP16, literal(-22)))
          CFI (cfiCond101) VB load(1, XDATA, add(CFA_XSP16, literal(-21)))
          CFI (cfiCond101) V0 load(1, XDATA, add(CFA_XSP16, literal(-20)))
          CFI (cfiCond101) V1 load(1, XDATA, add(CFA_XSP16, literal(-19)))
          CFI (cfiCond101) V2 load(1, XDATA, add(CFA_XSP16, literal(-18)))
          CFI (cfiCond101) V3 load(1, XDATA, add(CFA_XSP16, literal(-17)))
          CFI (cfiCond101) V4 load(1, XDATA, add(CFA_XSP16, literal(-16)))
          CFI (cfiCond101) V5 load(1, XDATA, add(CFA_XSP16, literal(-15)))
          CFI (cfiCond101) V6 load(1, XDATA, add(CFA_XSP16, literal(-14)))
          CFI (cfiCond101) V7 load(1, XDATA, add(CFA_XSP16, literal(-13)))
          CFI (cfiCond101) V8 load(1, XDATA, add(CFA_XSP16, literal(-12)))
          CFI (cfiCond101) V9 load(1, XDATA, add(CFA_XSP16, literal(-11)))
          CFI (cfiCond101) V10 load(1, XDATA, add(CFA_XSP16, literal(-10)))
          CFI (cfiCond101) V11 load(1, XDATA, add(CFA_XSP16, literal(-9)))
          CFI (cfiCond101) V12 load(1, XDATA, add(CFA_XSP16, literal(-8)))
          CFI (cfiCond101) V13 load(1, XDATA, add(CFA_XSP16, literal(-7)))
          CFI (cfiCond101) R7 load(1, XDATA, add(CFA_XSP16, literal(-6)))
          CFI (cfiCond101) ?RET_LOW load(1, XDATA, add(CFA_XSP16, literal(-5)))
          CFI (cfiCond101) ?RET_HIGH load(1, XDATA, add(CFA_XSP16, literal(-4)))
          CFI (cfiCond101) ?BRET_EXT load(1, XDATA, add(CFA_XSP16, literal(-3)))
          CFI (cfiCond101) DPL0 load(1, XDATA, add(CFA_XSP16, literal(-2)))
          CFI (cfiCond101) DPH0 load(1, XDATA, add(CFA_XSP16, literal(-1)))
          CFI (cfiCond101) CFA_SP SP+0
          CFI (cfiCond101) CFA_XSP16 add(XSP16, 36)
          CFI Block cfiCond102 Using cfiCommon0
          CFI (cfiCond102) Function MT_AfDataRequestSrcRtg
          CFI (cfiCond102) Conditional ??CrossCallReturnLabel_49
          CFI (cfiCond102) R6 load(1, XDATA, add(CFA_XSP16, literal(-22)))
          CFI (cfiCond102) VB load(1, XDATA, add(CFA_XSP16, literal(-21)))
          CFI (cfiCond102) V0 load(1, XDATA, add(CFA_XSP16, literal(-20)))
          CFI (cfiCond102) V1 load(1, XDATA, add(CFA_XSP16, literal(-19)))
          CFI (cfiCond102) V2 load(1, XDATA, add(CFA_XSP16, literal(-18)))
          CFI (cfiCond102) V3 load(1, XDATA, add(CFA_XSP16, literal(-17)))
          CFI (cfiCond102) V4 load(1, XDATA, add(CFA_XSP16, literal(-16)))
          CFI (cfiCond102) V5 load(1, XDATA, add(CFA_XSP16, literal(-15)))
          CFI (cfiCond102) V6 load(1, XDATA, add(CFA_XSP16, literal(-14)))
          CFI (cfiCond102) V7 load(1, XDATA, add(CFA_XSP16, literal(-13)))
          CFI (cfiCond102) V8 load(1, XDATA, add(CFA_XSP16, literal(-12)))
          CFI (cfiCond102) V9 load(1, XDATA, add(CFA_XSP16, literal(-11)))
          CFI (cfiCond102) V10 load(1, XDATA, add(CFA_XSP16, literal(-10)))
          CFI (cfiCond102) V11 load(1, XDATA, add(CFA_XSP16, literal(-9)))
          CFI (cfiCond102) V12 load(1, XDATA, add(CFA_XSP16, literal(-8)))
          CFI (cfiCond102) V13 load(1, XDATA, add(CFA_XSP16, literal(-7)))
          CFI (cfiCond102) R7 load(1, XDATA, add(CFA_XSP16, literal(-6)))
          CFI (cfiCond102) ?RET_LOW load(1, XDATA, add(CFA_XSP16, literal(-5)))
          CFI (cfiCond102) ?RET_HIGH load(1, XDATA, add(CFA_XSP16, literal(-4)))
          CFI (cfiCond102) ?BRET_EXT load(1, XDATA, add(CFA_XSP16, literal(-3)))
          CFI (cfiCond102) DPL0 load(1, XDATA, add(CFA_XSP16, literal(-2)))
          CFI (cfiCond102) DPH0 load(1, XDATA, add(CFA_XSP16, literal(-1)))
          CFI (cfiCond102) CFA_SP SP+0
          CFI (cfiCond102) CFA_XSP16 add(XSP16, 36)
          CFI Block cfiCond103 Using cfiCommon0
          CFI (cfiCond103) Function MT_AfIncomingMsg
          CFI (cfiCond103) Conditional ??CrossCallReturnLabel_50
          CFI (cfiCond103) R6 load(1, XDATA, add(CFA_XSP16, literal(-24)))
          CFI (cfiCond103) VB load(1, XDATA, add(CFA_XSP16, literal(-23)))
          CFI (cfiCond103) V0 load(1, XDATA, add(CFA_XSP16, literal(-22)))
          CFI (cfiCond103) V1 load(1, XDATA, add(CFA_XSP16, literal(-21)))
          CFI (cfiCond103) V2 load(1, XDATA, add(CFA_XSP16, literal(-20)))
          CFI (cfiCond103) V3 load(1, XDATA, add(CFA_XSP16, literal(-19)))
          CFI (cfiCond103) V4 load(1, XDATA, add(CFA_XSP16, literal(-18)))
          CFI (cfiCond103) V5 load(1, XDATA, add(CFA_XSP16, literal(-17)))
          CFI (cfiCond103) V6 load(1, XDATA, add(CFA_XSP16, literal(-16)))
          CFI (cfiCond103) V7 load(1, XDATA, add(CFA_XSP16, literal(-15)))
          CFI (cfiCond103) V8 load(1, XDATA, add(CFA_XSP16, literal(-14)))
          CFI (cfiCond103) V9 load(1, XDATA, add(CFA_XSP16, literal(-13)))
          CFI (cfiCond103) V10 load(1, XDATA, add(CFA_XSP16, literal(-12)))
          CFI (cfiCond103) V11 load(1, XDATA, add(CFA_XSP16, literal(-11)))
          CFI (cfiCond103) V12 load(1, XDATA, add(CFA_XSP16, literal(-10)))
          CFI (cfiCond103) V13 load(1, XDATA, add(CFA_XSP16, literal(-9)))
          CFI (cfiCond103) V14 load(1, XDATA, add(CFA_XSP16, literal(-8)))
          CFI (cfiCond103) V15 load(1, XDATA, add(CFA_XSP16, literal(-7)))
          CFI (cfiCond103) R7 load(1, XDATA, add(CFA_XSP16, literal(-6)))
          CFI (cfiCond103) ?RET_LOW load(1, XDATA, add(CFA_XSP16, literal(-5)))
          CFI (cfiCond103) ?RET_HIGH load(1, XDATA, add(CFA_XSP16, literal(-4)))
          CFI (cfiCond103) ?BRET_EXT load(1, XDATA, add(CFA_XSP16, literal(-3)))
          CFI (cfiCond103) DPL0 load(1, XDATA, add(CFA_XSP16, literal(-2)))
          CFI (cfiCond103) DPH0 load(1, XDATA, add(CFA_XSP16, literal(-1)))
          CFI (cfiCond103) CFA_SP SP+0
          CFI (cfiCond103) CFA_XSP16 add(XSP16, 27)
          CFI Block cfiCond104 Using cfiCommon0
          CFI (cfiCond104) Function MT_AfIncomingMsg
          CFI (cfiCond104) Conditional ??CrossCallReturnLabel_51
          CFI (cfiCond104) R6 load(1, XDATA, add(CFA_XSP16, literal(-24)))
          CFI (cfiCond104) VB load(1, XDATA, add(CFA_XSP16, literal(-23)))
          CFI (cfiCond104) V0 load(1, XDATA, add(CFA_XSP16, literal(-22)))
          CFI (cfiCond104) V1 load(1, XDATA, add(CFA_XSP16, literal(-21)))
          CFI (cfiCond104) V2 load(1, XDATA, add(CFA_XSP16, literal(-20)))
          CFI (cfiCond104) V3 load(1, XDATA, add(CFA_XSP16, literal(-19)))
          CFI (cfiCond104) V4 load(1, XDATA, add(CFA_XSP16, literal(-18)))
          CFI (cfiCond104) V5 load(1, XDATA, add(CFA_XSP16, literal(-17)))
          CFI (cfiCond104) V6 load(1, XDATA, add(CFA_XSP16, literal(-16)))
          CFI (cfiCond104) V7 load(1, XDATA, add(CFA_XSP16, literal(-15)))
          CFI (cfiCond104) V8 load(1, XDATA, add(CFA_XSP16, literal(-14)))
          CFI (cfiCond104) V9 load(1, XDATA, add(CFA_XSP16, literal(-13)))
          CFI (cfiCond104) V10 load(1, XDATA, add(CFA_XSP16, literal(-12)))
          CFI (cfiCond104) V11 load(1, XDATA, add(CFA_XSP16, literal(-11)))
          CFI (cfiCond104) V12 load(1, XDATA, add(CFA_XSP16, literal(-10)))
          CFI (cfiCond104) V13 load(1, XDATA, add(CFA_XSP16, literal(-9)))
          CFI (cfiCond104) V14 load(1, XDATA, add(CFA_XSP16, literal(-8)))
          CFI (cfiCond104) V15 load(1, XDATA, add(CFA_XSP16, literal(-7)))
          CFI (cfiCond104) R7 load(1, XDATA, add(CFA_XSP16, literal(-6)))
          CFI (cfiCond104) ?RET_LOW load(1, XDATA, add(CFA_XSP16, literal(-5)))
          CFI (cfiCond104) ?RET_HIGH load(1, XDATA, add(CFA_XSP16, literal(-4)))
          CFI (cfiCond104) ?BRET_EXT load(1, XDATA, add(CFA_XSP16, literal(-3)))
          CFI (cfiCond104) DPL0 load(1, XDATA, add(CFA_XSP16, literal(-2)))
          CFI (cfiCond104) DPH0 load(1, XDATA, add(CFA_XSP16, literal(-1)))
          CFI (cfiCond104) CFA_SP SP+0
          CFI (cfiCond104) CFA_XSP16 add(XSP16, 27)
          CFI Block cfiCond105 Using cfiCommon0
          CFI (cfiCond105) Function MT_AfDataRetrieve
          CFI (cfiCond105) Conditional ??CrossCallReturnLabel_52
          CFI (cfiCond105) R6 load(1, XDATA, add(CFA_XSP16, literal(-20)))
          CFI (cfiCond105) VB load(1, XDATA, add(CFA_XSP16, literal(-19)))
          CFI (cfiCond105) V0 load(1, XDATA, add(CFA_XSP16, literal(-18)))
          CFI (cfiCond105) V1 load(1, XDATA, add(CFA_XSP16, literal(-17)))
          CFI (cfiCond105) V2 load(1, XDATA, add(CFA_XSP16, literal(-16)))
          CFI (cfiCond105) V3 load(1, XDATA, add(CFA_XSP16, literal(-15)))
          CFI (cfiCond105) V4 load(1, XDATA, add(CFA_XSP16, literal(-14)))
          CFI (cfiCond105) V5 load(1, XDATA, add(CFA_XSP16, literal(-13)))
          CFI (cfiCond105) V6 load(1, XDATA, add(CFA_XSP16, literal(-12)))
          CFI (cfiCond105) V7 load(1, XDATA, add(CFA_XSP16, literal(-11)))
          CFI (cfiCond105) V8 load(1, XDATA, add(CFA_XSP16, literal(-10)))
          CFI (cfiCond105) V9 load(1, XDATA, add(CFA_XSP16, literal(-9)))
          CFI (cfiCond105) V10 load(1, XDATA, add(CFA_XSP16, literal(-8)))
          CFI (cfiCond105) V11 load(1, XDATA, add(CFA_XSP16, literal(-7)))
          CFI (cfiCond105) R7 load(1, XDATA, add(CFA_XSP16, literal(-6)))
          CFI (cfiCond105) ?RET_LOW load(1, XDATA, add(CFA_XSP16, literal(-5)))
          CFI (cfiCond105) ?RET_HIGH load(1, XDATA, add(CFA_XSP16, literal(-4)))
          CFI (cfiCond105) ?BRET_EXT load(1, XDATA, add(CFA_XSP16, literal(-3)))
          CFI (cfiCond105) DPL0 load(1, XDATA, add(CFA_XSP16, literal(-2)))
          CFI (cfiCond105) DPH0 load(1, XDATA, add(CFA_XSP16, literal(-1)))
          CFI (cfiCond105) CFA_SP SP+0
          CFI (cfiCond105) CFA_XSP16 add(XSP16, 20)
          CFI Block cfiPicker106 Using cfiCommon1
          CFI (cfiPicker106) NoFunction
          CFI (cfiPicker106) Picker
        MOV     A,R0
        MOVX    @DPTR,A
        INC     DPTR
        MOV     A,R1
        MOVX    @DPTR,A
        RET
          CFI EndBlock cfiCond97
          CFI EndBlock cfiCond98
          CFI EndBlock cfiCond99
          CFI EndBlock cfiCond100
          CFI EndBlock cfiCond101
          CFI EndBlock cfiCond102
          CFI EndBlock cfiCond103
          CFI EndBlock cfiCond104
          CFI EndBlock cfiCond105
          CFI EndBlock cfiPicker106

        RSEG BANKED_CODE:CODE:NOROOT(0)
?Subroutine24:
          CFI Block cfiCond107 Using cfiCommon0
          CFI Function MT_AfDataRequestSrcRtg
          CFI Conditional ??CrossCallReturnLabel_114
          CFI R6 load(1, XDATA, add(CFA_XSP16, literal(-22)))
          CFI VB load(1, XDATA, add(CFA_XSP16, literal(-21)))
          CFI V0 load(1, XDATA, add(CFA_XSP16, literal(-20)))
          CFI V1 load(1, XDATA, add(CFA_XSP16, literal(-19)))
          CFI V2 load(1, XDATA, add(CFA_XSP16, literal(-18)))
          CFI V3 load(1, XDATA, add(CFA_XSP16, literal(-17)))
          CFI V4 load(1, XDATA, add(CFA_XSP16, literal(-16)))
          CFI V5 load(1, XDATA, add(CFA_XSP16, literal(-15)))
          CFI V6 load(1, XDATA, add(CFA_XSP16, literal(-14)))
          CFI V7 load(1, XDATA, add(CFA_XSP16, literal(-13)))
          CFI V8 load(1, XDATA, add(CFA_XSP16, literal(-12)))
          CFI V9 load(1, XDATA, add(CFA_XSP16, literal(-11)))
          CFI V10 load(1, XDATA, add(CFA_XSP16, literal(-10)))
          CFI V11 load(1, XDATA, add(CFA_XSP16, literal(-9)))
          CFI V12 load(1, XDATA, add(CFA_XSP16, literal(-8)))
          CFI V13 load(1, XDATA, add(CFA_XSP16, literal(-7)))
          CFI R7 load(1, XDATA, add(CFA_XSP16, literal(-6)))
          CFI ?RET_LOW load(1, XDATA, add(CFA_XSP16, literal(-5)))
          CFI ?RET_HIGH load(1, XDATA, add(CFA_XSP16, literal(-4)))
          CFI ?BRET_EXT load(1, XDATA, add(CFA_XSP16, literal(-3)))
          CFI DPL0 load(1, XDATA, add(CFA_XSP16, literal(-2)))
          CFI DPH0 load(1, XDATA, add(CFA_XSP16, literal(-1)))
          CFI CFA_SP SP+0
          CFI CFA_XSP16 add(XSP16, 36)
          CFI Block cfiCond108 Using cfiCommon0
          CFI (cfiCond108) Function MT_AfDataRequestSrcRtg
          CFI (cfiCond108) Conditional ??CrossCallReturnLabel_115
          CFI (cfiCond108) R6 load(1, XDATA, add(CFA_XSP16, literal(-22)))
          CFI (cfiCond108) VB load(1, XDATA, add(CFA_XSP16, literal(-21)))
          CFI (cfiCond108) V0 load(1, XDATA, add(CFA_XSP16, literal(-20)))
          CFI (cfiCond108) V1 load(1, XDATA, add(CFA_XSP16, literal(-19)))
          CFI (cfiCond108) V2 load(1, XDATA, add(CFA_XSP16, literal(-18)))
          CFI (cfiCond108) V3 load(1, XDATA, add(CFA_XSP16, literal(-17)))
          CFI (cfiCond108) V4 load(1, XDATA, add(CFA_XSP16, literal(-16)))
          CFI (cfiCond108) V5 load(1, XDATA, add(CFA_XSP16, literal(-15)))
          CFI (cfiCond108) V6 load(1, XDATA, add(CFA_XSP16, literal(-14)))
          CFI (cfiCond108) V7 load(1, XDATA, add(CFA_XSP16, literal(-13)))
          CFI (cfiCond108) V8 load(1, XDATA, add(CFA_XSP16, literal(-12)))
          CFI (cfiCond108) V9 load(1, XDATA, add(CFA_XSP16, literal(-11)))
          CFI (cfiCond108) V10 load(1, XDATA, add(CFA_XSP16, literal(-10)))
          CFI (cfiCond108) V11 load(1, XDATA, add(CFA_XSP16, literal(-9)))
          CFI (cfiCond108) V12 load(1, XDATA, add(CFA_XSP16, literal(-8)))
          CFI (cfiCond108) V13 load(1, XDATA, add(CFA_XSP16, literal(-7)))
          CFI (cfiCond108) R7 load(1, XDATA, add(CFA_XSP16, literal(-6)))
          CFI (cfiCond108) ?RET_LOW load(1, XDATA, add(CFA_XSP16, literal(-5)))
          CFI (cfiCond108) ?RET_HIGH load(1, XDATA, add(CFA_XSP16, literal(-4)))
          CFI (cfiCond108) ?BRET_EXT load(1, XDATA, add(CFA_XSP16, literal(-3)))
          CFI (cfiCond108) DPL0 load(1, XDATA, add(CFA_XSP16, literal(-2)))
          CFI (cfiCond108) DPH0 load(1, XDATA, add(CFA_XSP16, literal(-1)))
          CFI (cfiCond108) CFA_SP SP+0
          CFI (cfiCond108) CFA_XSP16 add(XSP16, 36)
          CFI Block cfiPicker109 Using cfiCommon1
          CFI (cfiPicker109) NoFunction
          CFI (cfiPicker109) Picker
        MOV     A,R6
        ADD     A,#0x2
          CFI EndBlock cfiCond107
          CFI EndBlock cfiCond108
          CFI EndBlock cfiPicker109
        REQUIRE ??Subroutine58_0
        ; // Fall through to label ??Subroutine58_0

        RSEG BANKED_CODE:CODE:NOROOT(0)
??Subroutine58_0:
          CFI Block cfiCond110 Using cfiCommon0
          CFI Function MT_AfDataRetrieve
          CFI Conditional ??CrossCallReturnLabel_116
          CFI R6 load(1, XDATA, add(CFA_XSP16, literal(-20)))
          CFI VB load(1, XDATA, add(CFA_XSP16, literal(-19)))
          CFI V0 load(1, XDATA, add(CFA_XSP16, literal(-18)))
          CFI V1 load(1, XDATA, add(CFA_XSP16, literal(-17)))
          CFI V2 load(1, XDATA, add(CFA_XSP16, literal(-16)))
          CFI V3 load(1, XDATA, add(CFA_XSP16, literal(-15)))
          CFI V4 load(1, XDATA, add(CFA_XSP16, literal(-14)))
          CFI V5 load(1, XDATA, add(CFA_XSP16, literal(-13)))
          CFI V6 load(1, XDATA, add(CFA_XSP16, literal(-12)))
          CFI V7 load(1, XDATA, add(CFA_XSP16, literal(-11)))
          CFI V8 load(1, XDATA, add(CFA_XSP16, literal(-10)))
          CFI V9 load(1, XDATA, add(CFA_XSP16, literal(-9)))
          CFI V10 load(1, XDATA, add(CFA_XSP16, literal(-8)))
          CFI V11 load(1, XDATA, add(CFA_XSP16, literal(-7)))
          CFI R7 load(1, XDATA, add(CFA_XSP16, literal(-6)))
          CFI ?RET_LOW load(1, XDATA, add(CFA_XSP16, literal(-5)))
          CFI ?RET_HIGH load(1, XDATA, add(CFA_XSP16, literal(-4)))
          CFI ?BRET_EXT load(1, XDATA, add(CFA_XSP16, literal(-3)))
          CFI DPL0 load(1, XDATA, add(CFA_XSP16, literal(-2)))
          CFI DPH0 load(1, XDATA, add(CFA_XSP16, literal(-1)))
          CFI CFA_SP SP+0
          CFI CFA_XSP16 add(XSP16, 20)
          CFI Block cfiCond111 Using cfiCommon0
          CFI (cfiCond111) Function MT_AfDataRequestSrcRtg
          CFI (cfiCond111) Conditional ??CrossCallReturnLabel_114
          CFI (cfiCond111) R6 load(1, XDATA, add(CFA_XSP16, literal(-22)))
          CFI (cfiCond111) VB load(1, XDATA, add(CFA_XSP16, literal(-21)))
          CFI (cfiCond111) V0 load(1, XDATA, add(CFA_XSP16, literal(-20)))
          CFI (cfiCond111) V1 load(1, XDATA, add(CFA_XSP16, literal(-19)))
          CFI (cfiCond111) V2 load(1, XDATA, add(CFA_XSP16, literal(-18)))
          CFI (cfiCond111) V3 load(1, XDATA, add(CFA_XSP16, literal(-17)))
          CFI (cfiCond111) V4 load(1, XDATA, add(CFA_XSP16, literal(-16)))
          CFI (cfiCond111) V5 load(1, XDATA, add(CFA_XSP16, literal(-15)))
          CFI (cfiCond111) V6 load(1, XDATA, add(CFA_XSP16, literal(-14)))
          CFI (cfiCond111) V7 load(1, XDATA, add(CFA_XSP16, literal(-13)))
          CFI (cfiCond111) V8 load(1, XDATA, add(CFA_XSP16, literal(-12)))
          CFI (cfiCond111) V9 load(1, XDATA, add(CFA_XSP16, literal(-11)))
          CFI (cfiCond111) V10 load(1, XDATA, add(CFA_XSP16, literal(-10)))
          CFI (cfiCond111) V11 load(1, XDATA, add(CFA_XSP16, literal(-9)))
          CFI (cfiCond111) V12 load(1, XDATA, add(CFA_XSP16, literal(-8)))
          CFI (cfiCond111) V13 load(1, XDATA, add(CFA_XSP16, literal(-7)))
          CFI (cfiCond111) R7 load(1, XDATA, add(CFA_XSP16, literal(-6)))
          CFI (cfiCond111) ?RET_LOW load(1, XDATA, add(CFA_XSP16, literal(-5)))
          CFI (cfiCond111) ?RET_HIGH load(1, XDATA, add(CFA_XSP16, literal(-4)))
          CFI (cfiCond111) ?BRET_EXT load(1, XDATA, add(CFA_XSP16, literal(-3)))
          CFI (cfiCond111) DPL0 load(1, XDATA, add(CFA_XSP16, literal(-2)))
          CFI (cfiCond111) DPH0 load(1, XDATA, add(CFA_XSP16, literal(-1)))
          CFI (cfiCond111) CFA_SP SP+0
          CFI (cfiCond111) CFA_XSP16 add(XSP16, 36)
          CFI Block cfiCond112 Using cfiCommon0
          CFI (cfiCond112) Function MT_AfDataRequestSrcRtg
          CFI (cfiCond112) Conditional ??CrossCallReturnLabel_115
          CFI (cfiCond112) R6 load(1, XDATA, add(CFA_XSP16, literal(-22)))
          CFI (cfiCond112) VB load(1, XDATA, add(CFA_XSP16, literal(-21)))
          CFI (cfiCond112) V0 load(1, XDATA, add(CFA_XSP16, literal(-20)))
          CFI (cfiCond112) V1 load(1, XDATA, add(CFA_XSP16, literal(-19)))
          CFI (cfiCond112) V2 load(1, XDATA, add(CFA_XSP16, literal(-18)))
          CFI (cfiCond112) V3 load(1, XDATA, add(CFA_XSP16, literal(-17)))
          CFI (cfiCond112) V4 load(1, XDATA, add(CFA_XSP16, literal(-16)))
          CFI (cfiCond112) V5 load(1, XDATA, add(CFA_XSP16, literal(-15)))
          CFI (cfiCond112) V6 load(1, XDATA, add(CFA_XSP16, literal(-14)))
          CFI (cfiCond112) V7 load(1, XDATA, add(CFA_XSP16, literal(-13)))
          CFI (cfiCond112) V8 load(1, XDATA, add(CFA_XSP16, literal(-12)))
          CFI (cfiCond112) V9 load(1, XDATA, add(CFA_XSP16, literal(-11)))
          CFI (cfiCond112) V10 load(1, XDATA, add(CFA_XSP16, literal(-10)))
          CFI (cfiCond112) V11 load(1, XDATA, add(CFA_XSP16, literal(-9)))
          CFI (cfiCond112) V12 load(1, XDATA, add(CFA_XSP16, literal(-8)))
          CFI (cfiCond112) V13 load(1, XDATA, add(CFA_XSP16, literal(-7)))
          CFI (cfiCond112) R7 load(1, XDATA, add(CFA_XSP16, literal(-6)))
          CFI (cfiCond112) ?RET_LOW load(1, XDATA, add(CFA_XSP16, literal(-5)))
          CFI (cfiCond112) ?RET_HIGH load(1, XDATA, add(CFA_XSP16, literal(-4)))
          CFI (cfiCond112) ?BRET_EXT load(1, XDATA, add(CFA_XSP16, literal(-3)))
          CFI (cfiCond112) DPL0 load(1, XDATA, add(CFA_XSP16, literal(-2)))
          CFI (cfiCond112) DPH0 load(1, XDATA, add(CFA_XSP16, literal(-1)))
          CFI (cfiCond112) CFA_SP SP+0
          CFI (cfiCond112) CFA_XSP16 add(XSP16, 36)
          CFI Block cfiPicker113 Using cfiCommon1
          CFI (cfiPicker113) NoFunction
          CFI (cfiPicker113) Picker
        MOV     R6,A
        MOV     A,R7
        ADDC    A,#0x0
        MOV     R7,A
        MOV     DPL,R6
        MOV     DPH,R7
        MOVX    A,@DPTR
        RET
          CFI EndBlock cfiCond110
          CFI EndBlock cfiCond111
          CFI EndBlock cfiCond112
          CFI EndBlock cfiPicker113

        RSEG BANKED_CODE:CODE:NOROOT(0)
?Subroutine18:
          CFI Block cfiCond114 Using cfiCommon0
          CFI Function MT_AfDataRequest
          CFI Conditional ??CrossCallReturnLabel_118
          CFI R6 load(1, XDATA, add(CFA_XSP16, literal(-22)))
          CFI VB load(1, XDATA, add(CFA_XSP16, literal(-21)))
          CFI V0 load(1, XDATA, add(CFA_XSP16, literal(-20)))
          CFI V1 load(1, XDATA, add(CFA_XSP16, literal(-19)))
          CFI V2 load(1, XDATA, add(CFA_XSP16, literal(-18)))
          CFI V3 load(1, XDATA, add(CFA_XSP16, literal(-17)))
          CFI V4 load(1, XDATA, add(CFA_XSP16, literal(-16)))
          CFI V5 load(1, XDATA, add(CFA_XSP16, literal(-15)))
          CFI V6 load(1, XDATA, add(CFA_XSP16, literal(-14)))
          CFI V7 load(1, XDATA, add(CFA_XSP16, literal(-13)))
          CFI V8 load(1, XDATA, add(CFA_XSP16, literal(-12)))
          CFI V9 load(1, XDATA, add(CFA_XSP16, literal(-11)))
          CFI V10 load(1, XDATA, add(CFA_XSP16, literal(-10)))
          CFI V11 load(1, XDATA, add(CFA_XSP16, literal(-9)))
          CFI V12 load(1, XDATA, add(CFA_XSP16, literal(-8)))
          CFI V13 load(1, XDATA, add(CFA_XSP16, literal(-7)))
          CFI R7 load(1, XDATA, add(CFA_XSP16, literal(-6)))
          CFI ?RET_LOW load(1, XDATA, add(CFA_XSP16, literal(-5)))
          CFI ?RET_HIGH load(1, XDATA, add(CFA_XSP16, literal(-4)))
          CFI ?BRET_EXT load(1, XDATA, add(CFA_XSP16, literal(-3)))
          CFI DPL0 load(1, XDATA, add(CFA_XSP16, literal(-2)))
          CFI DPH0 load(1, XDATA, add(CFA_XSP16, literal(-1)))
          CFI CFA_SP SP+0
          CFI CFA_XSP16 add(XSP16, 36)
          CFI Block cfiCond115 Using cfiCommon0
          CFI (cfiCond115) Function MT_AfDataRequestSrcRtg
          CFI (cfiCond115) Conditional ??CrossCallReturnLabel_119
          CFI (cfiCond115) R6 load(1, XDATA, add(CFA_XSP16, literal(-22)))
          CFI (cfiCond115) VB load(1, XDATA, add(CFA_XSP16, literal(-21)))
          CFI (cfiCond115) V0 load(1, XDATA, add(CFA_XSP16, literal(-20)))
          CFI (cfiCond115) V1 load(1, XDATA, add(CFA_XSP16, literal(-19)))
          CFI (cfiCond115) V2 load(1, XDATA, add(CFA_XSP16, literal(-18)))
          CFI (cfiCond115) V3 load(1, XDATA, add(CFA_XSP16, literal(-17)))
          CFI (cfiCond115) V4 load(1, XDATA, add(CFA_XSP16, literal(-16)))
          CFI (cfiCond115) V5 load(1, XDATA, add(CFA_XSP16, literal(-15)))
          CFI (cfiCond115) V6 load(1, XDATA, add(CFA_XSP16, literal(-14)))
          CFI (cfiCond115) V7 load(1, XDATA, add(CFA_XSP16, literal(-13)))
          CFI (cfiCond115) V8 load(1, XDATA, add(CFA_XSP16, literal(-12)))
          CFI (cfiCond115) V9 load(1, XDATA, add(CFA_XSP16, literal(-11)))
          CFI (cfiCond115) V10 load(1, XDATA, add(CFA_XSP16, literal(-10)))
          CFI (cfiCond115) V11 load(1, XDATA, add(CFA_XSP16, literal(-9)))
          CFI (cfiCond115) V12 load(1, XDATA, add(CFA_XSP16, literal(-8)))
          CFI (cfiCond115) V13 load(1, XDATA, add(CFA_XSP16, literal(-7)))
          CFI (cfiCond115) R7 load(1, XDATA, add(CFA_XSP16, literal(-6)))
          CFI (cfiCond115) ?RET_LOW load(1, XDATA, add(CFA_XSP16, literal(-5)))
          CFI (cfiCond115) ?RET_HIGH load(1, XDATA, add(CFA_XSP16, literal(-4)))
          CFI (cfiCond115) ?BRET_EXT load(1, XDATA, add(CFA_XSP16, literal(-3)))
          CFI (cfiCond115) DPL0 load(1, XDATA, add(CFA_XSP16, literal(-2)))
          CFI (cfiCond115) DPH0 load(1, XDATA, add(CFA_XSP16, literal(-1)))
          CFI (cfiCond115) CFA_SP SP+0
          CFI (cfiCond115) CFA_XSP16 add(XSP16, 36)
          CFI Block cfiPicker116 Using cfiCommon1
          CFI (cfiPicker116) NoFunction
          CFI (cfiPicker116) Picker
        MOVX    A,@DPTR
        MOV     R2,A
        INC     DPTR
          CFI EndBlock cfiCond114
          CFI EndBlock cfiCond115
          CFI EndBlock cfiPicker116
        REQUIRE ??Subroutine59_0
        ; // Fall through to label ??Subroutine59_0

        RSEG BANKED_CODE:CODE:NOROOT(0)
??Subroutine59_0:
          CFI Block cfiCond117 Using cfiCommon0
          CFI Function MT_AfDataRequest
          CFI Conditional ??CrossCallReturnLabel_117
          CFI R6 load(1, XDATA, add(CFA_XSP16, literal(-22)))
          CFI VB load(1, XDATA, add(CFA_XSP16, literal(-21)))
          CFI V0 load(1, XDATA, add(CFA_XSP16, literal(-20)))
          CFI V1 load(1, XDATA, add(CFA_XSP16, literal(-19)))
          CFI V2 load(1, XDATA, add(CFA_XSP16, literal(-18)))
          CFI V3 load(1, XDATA, add(CFA_XSP16, literal(-17)))
          CFI V4 load(1, XDATA, add(CFA_XSP16, literal(-16)))
          CFI V5 load(1, XDATA, add(CFA_XSP16, literal(-15)))
          CFI V6 load(1, XDATA, add(CFA_XSP16, literal(-14)))
          CFI V7 load(1, XDATA, add(CFA_XSP16, literal(-13)))
          CFI V8 load(1, XDATA, add(CFA_XSP16, literal(-12)))
          CFI V9 load(1, XDATA, add(CFA_XSP16, literal(-11)))
          CFI V10 load(1, XDATA, add(CFA_XSP16, literal(-10)))
          CFI V11 load(1, XDATA, add(CFA_XSP16, literal(-9)))
          CFI V12 load(1, XDATA, add(CFA_XSP16, literal(-8)))
          CFI V13 load(1, XDATA, add(CFA_XSP16, literal(-7)))
          CFI R7 load(1, XDATA, add(CFA_XSP16, literal(-6)))
          CFI ?RET_LOW load(1, XDATA, add(CFA_XSP16, literal(-5)))
          CFI ?RET_HIGH load(1, XDATA, add(CFA_XSP16, literal(-4)))
          CFI ?BRET_EXT load(1, XDATA, add(CFA_XSP16, literal(-3)))
          CFI DPL0 load(1, XDATA, add(CFA_XSP16, literal(-2)))
          CFI DPH0 load(1, XDATA, add(CFA_XSP16, literal(-1)))
          CFI CFA_SP SP+0
          CFI CFA_XSP16 add(XSP16, 36)
          CFI Block cfiCond118 Using cfiCommon0
          CFI (cfiCond118) Function MT_AfDataRequest
          CFI (cfiCond118) Conditional ??CrossCallReturnLabel_118
          CFI (cfiCond118) R6 load(1, XDATA, add(CFA_XSP16, literal(-22)))
          CFI (cfiCond118) VB load(1, XDATA, add(CFA_XSP16, literal(-21)))
          CFI (cfiCond118) V0 load(1, XDATA, add(CFA_XSP16, literal(-20)))
          CFI (cfiCond118) V1 load(1, XDATA, add(CFA_XSP16, literal(-19)))
          CFI (cfiCond118) V2 load(1, XDATA, add(CFA_XSP16, literal(-18)))
          CFI (cfiCond118) V3 load(1, XDATA, add(CFA_XSP16, literal(-17)))
          CFI (cfiCond118) V4 load(1, XDATA, add(CFA_XSP16, literal(-16)))
          CFI (cfiCond118) V5 load(1, XDATA, add(CFA_XSP16, literal(-15)))
          CFI (cfiCond118) V6 load(1, XDATA, add(CFA_XSP16, literal(-14)))
          CFI (cfiCond118) V7 load(1, XDATA, add(CFA_XSP16, literal(-13)))
          CFI (cfiCond118) V8 load(1, XDATA, add(CFA_XSP16, literal(-12)))
          CFI (cfiCond118) V9 load(1, XDATA, add(CFA_XSP16, literal(-11)))
          CFI (cfiCond118) V10 load(1, XDATA, add(CFA_XSP16, literal(-10)))
          CFI (cfiCond118) V11 load(1, XDATA, add(CFA_XSP16, literal(-9)))
          CFI (cfiCond118) V12 load(1, XDATA, add(CFA_XSP16, literal(-8)))
          CFI (cfiCond118) V13 load(1, XDATA, add(CFA_XSP16, literal(-7)))
          CFI (cfiCond118) R7 load(1, XDATA, add(CFA_XSP16, literal(-6)))
          CFI (cfiCond118) ?RET_LOW load(1, XDATA, add(CFA_XSP16, literal(-5)))
          CFI (cfiCond118) ?RET_HIGH load(1, XDATA, add(CFA_XSP16, literal(-4)))
          CFI (cfiCond118) ?BRET_EXT load(1, XDATA, add(CFA_XSP16, literal(-3)))
          CFI (cfiCond118) DPL0 load(1, XDATA, add(CFA_XSP16, literal(-2)))
          CFI (cfiCond118) DPH0 load(1, XDATA, add(CFA_XSP16, literal(-1)))
          CFI (cfiCond118) CFA_SP SP+0
          CFI (cfiCond118) CFA_XSP16 add(XSP16, 36)
          CFI Block cfiCond119 Using cfiCommon0
          CFI (cfiCond119) Function MT_AfDataRequestSrcRtg
          CFI (cfiCond119) Conditional ??CrossCallReturnLabel_119
          CFI (cfiCond119) R6 load(1, XDATA, add(CFA_XSP16, literal(-22)))
          CFI (cfiCond119) VB load(1, XDATA, add(CFA_XSP16, literal(-21)))
          CFI (cfiCond119) V0 load(1, XDATA, add(CFA_XSP16, literal(-20)))
          CFI (cfiCond119) V1 load(1, XDATA, add(CFA_XSP16, literal(-19)))
          CFI (cfiCond119) V2 load(1, XDATA, add(CFA_XSP16, literal(-18)))
          CFI (cfiCond119) V3 load(1, XDATA, add(CFA_XSP16, literal(-17)))
          CFI (cfiCond119) V4 load(1, XDATA, add(CFA_XSP16, literal(-16)))
          CFI (cfiCond119) V5 load(1, XDATA, add(CFA_XSP16, literal(-15)))
          CFI (cfiCond119) V6 load(1, XDATA, add(CFA_XSP16, literal(-14)))
          CFI (cfiCond119) V7 load(1, XDATA, add(CFA_XSP16, literal(-13)))
          CFI (cfiCond119) V8 load(1, XDATA, add(CFA_XSP16, literal(-12)))
          CFI (cfiCond119) V9 load(1, XDATA, add(CFA_XSP16, literal(-11)))
          CFI (cfiCond119) V10 load(1, XDATA, add(CFA_XSP16, literal(-10)))
          CFI (cfiCond119) V11 load(1, XDATA, add(CFA_XSP16, literal(-9)))
          CFI (cfiCond119) V12 load(1, XDATA, add(CFA_XSP16, literal(-8)))
          CFI (cfiCond119) V13 load(1, XDATA, add(CFA_XSP16, literal(-7)))
          CFI (cfiCond119) R7 load(1, XDATA, add(CFA_XSP16, literal(-6)))
          CFI (cfiCond119) ?RET_LOW load(1, XDATA, add(CFA_XSP16, literal(-5)))
          CFI (cfiCond119) ?RET_HIGH load(1, XDATA, add(CFA_XSP16, literal(-4)))
          CFI (cfiCond119) ?BRET_EXT load(1, XDATA, add(CFA_XSP16, literal(-3)))
          CFI (cfiCond119) DPL0 load(1, XDATA, add(CFA_XSP16, literal(-2)))
          CFI (cfiCond119) DPH0 load(1, XDATA, add(CFA_XSP16, literal(-1)))
          CFI (cfiCond119) CFA_SP SP+0
          CFI (cfiCond119) CFA_XSP16 add(XSP16, 36)
          CFI Block cfiPicker120 Using cfiCommon1
          CFI (cfiPicker120) NoFunction
          CFI (cfiPicker120) Picker
        MOVX    A,@DPTR
        MOV     R1,A
        MOV     A,R2
        MOV     R0,A
        MOV     A,#0x2
        RET
          CFI EndBlock cfiCond117
          CFI EndBlock cfiCond118
          CFI EndBlock cfiCond119
          CFI EndBlock cfiPicker120

        RSEG BANKED_CODE:CODE:NOROOT(0)
?Subroutine15:
          CFI Block cfiCond121 Using cfiCommon0
          CFI Function MT_AfDataRequestSrcRtg
          CFI Conditional ??CrossCallReturnLabel_121
          CFI R6 load(1, XDATA, add(CFA_XSP16, literal(-22)))
          CFI VB load(1, XDATA, add(CFA_XSP16, literal(-21)))
          CFI V0 load(1, XDATA, add(CFA_XSP16, literal(-20)))
          CFI V1 load(1, XDATA, add(CFA_XSP16, literal(-19)))
          CFI V2 load(1, XDATA, add(CFA_XSP16, literal(-18)))
          CFI V3 load(1, XDATA, add(CFA_XSP16, literal(-17)))
          CFI V4 load(1, XDATA, add(CFA_XSP16, literal(-16)))
          CFI V5 load(1, XDATA, add(CFA_XSP16, literal(-15)))
          CFI V6 load(1, XDATA, add(CFA_XSP16, literal(-14)))
          CFI V7 load(1, XDATA, add(CFA_XSP16, literal(-13)))
          CFI V8 load(1, XDATA, add(CFA_XSP16, literal(-12)))
          CFI V9 load(1, XDATA, add(CFA_XSP16, literal(-11)))
          CFI V10 load(1, XDATA, add(CFA_XSP16, literal(-10)))
          CFI V11 load(1, XDATA, add(CFA_XSP16, literal(-9)))
          CFI V12 load(1, XDATA, add(CFA_XSP16, literal(-8)))
          CFI V13 load(1, XDATA, add(CFA_XSP16, literal(-7)))
          CFI R7 load(1, XDATA, add(CFA_XSP16, literal(-6)))
          CFI ?RET_LOW load(1, XDATA, add(CFA_XSP16, literal(-5)))
          CFI ?RET_HIGH load(1, XDATA, add(CFA_XSP16, literal(-4)))
          CFI ?BRET_EXT load(1, XDATA, add(CFA_XSP16, literal(-3)))
          CFI DPL0 load(1, XDATA, add(CFA_XSP16, literal(-2)))
          CFI DPH0 load(1, XDATA, add(CFA_XSP16, literal(-1)))
          CFI CFA_SP SP+0
          CFI CFA_XSP16 add(XSP16, 36)
          CFI Block cfiCond122 Using cfiCommon0
          CFI (cfiCond122) Function MT_AfDataRetrieve
          CFI (cfiCond122) Conditional ??CrossCallReturnLabel_122
          CFI (cfiCond122) R6 load(1, XDATA, add(CFA_XSP16, literal(-20)))
          CFI (cfiCond122) VB load(1, XDATA, add(CFA_XSP16, literal(-19)))
          CFI (cfiCond122) V0 load(1, XDATA, add(CFA_XSP16, literal(-18)))
          CFI (cfiCond122) V1 load(1, XDATA, add(CFA_XSP16, literal(-17)))
          CFI (cfiCond122) V2 load(1, XDATA, add(CFA_XSP16, literal(-16)))
          CFI (cfiCond122) V3 load(1, XDATA, add(CFA_XSP16, literal(-15)))
          CFI (cfiCond122) V4 load(1, XDATA, add(CFA_XSP16, literal(-14)))
          CFI (cfiCond122) V5 load(1, XDATA, add(CFA_XSP16, literal(-13)))
          CFI (cfiCond122) V6 load(1, XDATA, add(CFA_XSP16, literal(-12)))
          CFI (cfiCond122) V7 load(1, XDATA, add(CFA_XSP16, literal(-11)))
          CFI (cfiCond122) V8 load(1, XDATA, add(CFA_XSP16, literal(-10)))
          CFI (cfiCond122) V9 load(1, XDATA, add(CFA_XSP16, literal(-9)))
          CFI (cfiCond122) V10 load(1, XDATA, add(CFA_XSP16, literal(-8)))
          CFI (cfiCond122) V11 load(1, XDATA, add(CFA_XSP16, literal(-7)))
          CFI (cfiCond122) R7 load(1, XDATA, add(CFA_XSP16, literal(-6)))
          CFI (cfiCond122) ?RET_LOW load(1, XDATA, add(CFA_XSP16, literal(-5)))
          CFI (cfiCond122) ?RET_HIGH load(1, XDATA, add(CFA_XSP16, literal(-4)))
          CFI (cfiCond122) ?BRET_EXT load(1, XDATA, add(CFA_XSP16, literal(-3)))
          CFI (cfiCond122) DPL0 load(1, XDATA, add(CFA_XSP16, literal(-2)))
          CFI (cfiCond122) DPH0 load(1, XDATA, add(CFA_XSP16, literal(-1)))
          CFI (cfiCond122) CFA_SP SP+0
          CFI (cfiCond122) CFA_XSP16 add(XSP16, 20)
          CFI Block cfiPicker123 Using cfiCommon1
          CFI (cfiPicker123) NoFunction
          CFI (cfiPicker123) Picker
        MOV     DPL,R6
        MOV     DPH,R7
          CFI EndBlock cfiCond121
          CFI EndBlock cfiCond122
          CFI EndBlock cfiPicker123
        REQUIRE ??Subroutine60_0
        ; // Fall through to label ??Subroutine60_0

        RSEG BANKED_CODE:CODE:NOROOT(0)
??Subroutine60_0:
          CFI Block cfiCond124 Using cfiCommon0
          CFI Function MT_AfDataRequest
          CFI Conditional ??CrossCallReturnLabel_120
          CFI R6 load(1, XDATA, add(CFA_XSP16, literal(-22)))
          CFI VB load(1, XDATA, add(CFA_XSP16, literal(-21)))
          CFI V0 load(1, XDATA, add(CFA_XSP16, literal(-20)))
          CFI V1 load(1, XDATA, add(CFA_XSP16, literal(-19)))
          CFI V2 load(1, XDATA, add(CFA_XSP16, literal(-18)))
          CFI V3 load(1, XDATA, add(CFA_XSP16, literal(-17)))
          CFI V4 load(1, XDATA, add(CFA_XSP16, literal(-16)))
          CFI V5 load(1, XDATA, add(CFA_XSP16, literal(-15)))
          CFI V6 load(1, XDATA, add(CFA_XSP16, literal(-14)))
          CFI V7 load(1, XDATA, add(CFA_XSP16, literal(-13)))
          CFI V8 load(1, XDATA, add(CFA_XSP16, literal(-12)))
          CFI V9 load(1, XDATA, add(CFA_XSP16, literal(-11)))
          CFI V10 load(1, XDATA, add(CFA_XSP16, literal(-10)))
          CFI V11 load(1, XDATA, add(CFA_XSP16, literal(-9)))
          CFI V12 load(1, XDATA, add(CFA_XSP16, literal(-8)))
          CFI V13 load(1, XDATA, add(CFA_XSP16, literal(-7)))
          CFI R7 load(1, XDATA, add(CFA_XSP16, literal(-6)))
          CFI ?RET_LOW load(1, XDATA, add(CFA_XSP16, literal(-5)))
          CFI ?RET_HIGH load(1, XDATA, add(CFA_XSP16, literal(-4)))
          CFI ?BRET_EXT load(1, XDATA, add(CFA_XSP16, literal(-3)))
          CFI DPL0 load(1, XDATA, add(CFA_XSP16, literal(-2)))
          CFI DPH0 load(1, XDATA, add(CFA_XSP16, literal(-1)))
          CFI CFA_SP SP+0
          CFI CFA_XSP16 add(XSP16, 36)
          CFI Block cfiCond125 Using cfiCommon0
          CFI (cfiCond125) Function MT_AfDataRequestSrcRtg
          CFI (cfiCond125) Conditional ??CrossCallReturnLabel_121
          CFI (cfiCond125) R6 load(1, XDATA, add(CFA_XSP16, literal(-22)))
          CFI (cfiCond125) VB load(1, XDATA, add(CFA_XSP16, literal(-21)))
          CFI (cfiCond125) V0 load(1, XDATA, add(CFA_XSP16, literal(-20)))
          CFI (cfiCond125) V1 load(1, XDATA, add(CFA_XSP16, literal(-19)))
          CFI (cfiCond125) V2 load(1, XDATA, add(CFA_XSP16, literal(-18)))
          CFI (cfiCond125) V3 load(1, XDATA, add(CFA_XSP16, literal(-17)))
          CFI (cfiCond125) V4 load(1, XDATA, add(CFA_XSP16, literal(-16)))
          CFI (cfiCond125) V5 load(1, XDATA, add(CFA_XSP16, literal(-15)))
          CFI (cfiCond125) V6 load(1, XDATA, add(CFA_XSP16, literal(-14)))
          CFI (cfiCond125) V7 load(1, XDATA, add(CFA_XSP16, literal(-13)))
          CFI (cfiCond125) V8 load(1, XDATA, add(CFA_XSP16, literal(-12)))
          CFI (cfiCond125) V9 load(1, XDATA, add(CFA_XSP16, literal(-11)))
          CFI (cfiCond125) V10 load(1, XDATA, add(CFA_XSP16, literal(-10)))
          CFI (cfiCond125) V11 load(1, XDATA, add(CFA_XSP16, literal(-9)))
          CFI (cfiCond125) V12 load(1, XDATA, add(CFA_XSP16, literal(-8)))
          CFI (cfiCond125) V13 load(1, XDATA, add(CFA_XSP16, literal(-7)))
          CFI (cfiCond125) R7 load(1, XDATA, add(CFA_XSP16, literal(-6)))
          CFI (cfiCond125) ?RET_LOW load(1, XDATA, add(CFA_XSP16, literal(-5)))
          CFI (cfiCond125) ?RET_HIGH load(1, XDATA, add(CFA_XSP16, literal(-4)))
          CFI (cfiCond125) ?BRET_EXT load(1, XDATA, add(CFA_XSP16, literal(-3)))
          CFI (cfiCond125) DPL0 load(1, XDATA, add(CFA_XSP16, literal(-2)))
          CFI (cfiCond125) DPH0 load(1, XDATA, add(CFA_XSP16, literal(-1)))
          CFI (cfiCond125) CFA_SP SP+0
          CFI (cfiCond125) CFA_XSP16 add(XSP16, 36)
          CFI Block cfiCond126 Using cfiCommon0
          CFI (cfiCond126) Function MT_AfDataRetrieve
          CFI (cfiCond126) Conditional ??CrossCallReturnLabel_122
          CFI (cfiCond126) R6 load(1, XDATA, add(CFA_XSP16, literal(-20)))
          CFI (cfiCond126) VB load(1, XDATA, add(CFA_XSP16, literal(-19)))
          CFI (cfiCond126) V0 load(1, XDATA, add(CFA_XSP16, literal(-18)))
          CFI (cfiCond126) V1 load(1, XDATA, add(CFA_XSP16, literal(-17)))
          CFI (cfiCond126) V2 load(1, XDATA, add(CFA_XSP16, literal(-16)))
          CFI (cfiCond126) V3 load(1, XDATA, add(CFA_XSP16, literal(-15)))
          CFI (cfiCond126) V4 load(1, XDATA, add(CFA_XSP16, literal(-14)))
          CFI (cfiCond126) V5 load(1, XDATA, add(CFA_XSP16, literal(-13)))
          CFI (cfiCond126) V6 load(1, XDATA, add(CFA_XSP16, literal(-12)))
          CFI (cfiCond126) V7 load(1, XDATA, add(CFA_XSP16, literal(-11)))
          CFI (cfiCond126) V8 load(1, XDATA, add(CFA_XSP16, literal(-10)))
          CFI (cfiCond126) V9 load(1, XDATA, add(CFA_XSP16, literal(-9)))
          CFI (cfiCond126) V10 load(1, XDATA, add(CFA_XSP16, literal(-8)))
          CFI (cfiCond126) V11 load(1, XDATA, add(CFA_XSP16, literal(-7)))
          CFI (cfiCond126) R7 load(1, XDATA, add(CFA_XSP16, literal(-6)))
          CFI (cfiCond126) ?RET_LOW load(1, XDATA, add(CFA_XSP16, literal(-5)))
          CFI (cfiCond126) ?RET_HIGH load(1, XDATA, add(CFA_XSP16, literal(-4)))
          CFI (cfiCond126) ?BRET_EXT load(1, XDATA, add(CFA_XSP16, literal(-3)))
          CFI (cfiCond126) DPL0 load(1, XDATA, add(CFA_XSP16, literal(-2)))
          CFI (cfiCond126) DPH0 load(1, XDATA, add(CFA_XSP16, literal(-1)))
          CFI (cfiCond126) CFA_SP SP+0
          CFI (cfiCond126) CFA_XSP16 add(XSP16, 20)
          CFI Block cfiPicker127 Using cfiCommon1
          CFI (cfiPicker127) NoFunction
          CFI (cfiPicker127) Picker
        MOVX    A,@DPTR
        MOV     R2,A
        INC     DPTR
        MOVX    A,@DPTR
        MOV     R1,A
        MOV     A,R2
        ADD     A,#0x0
        RET
          CFI EndBlock cfiCond124
          CFI EndBlock cfiCond125
          CFI EndBlock cfiCond126
          CFI EndBlock cfiPicker127
//  550 #endif
//  551 
//  552 #if defined INTER_PAN
//  553 /***************************************************************************************************
//  554  * @fn      MT_AfInterPanCtl
//  555  *
//  556  * @brief   Process the AF Inter Pan control command.
//  557  *
//  558  * @param   pBuf - pointer to the received buffer
//  559  *
//  560  * @return  none
//  561  ***************************************************************************************************/

        RSEG BANKED_CODE:CODE:NOROOT(0)
//  562 static void MT_AfInterPanCtl(uint8 *pBuf)
MT_AfInterPanCtl:
          CFI Block cfiBlock128 Using cfiCommon0
          CFI Function MT_AfInterPanCtl
        CODE
//  563 {
        FUNCALL MT_AfInterPanCtl, StubAPS_SetIntraPanChannel
        LOCFRAME ISTACK, 0, STACK
        LOCFRAME PSTACK, 0, STACK
        LOCFRAME XSTACK, 12, STACK
        LOCFRAME IOVERLAY, 0, STATIC
        LOCFRAME DOVERLAY, 0, STATIC
        ARGFRAME ISTACK, 0, STACK
        ARGFRAME PSTACK, 0, STACK
        ARGFRAME XSTACK, 12, STACK
        ARGFRAME IOVERLAY, 0, STATIC
        ARGFRAME DOVERLAY, 0, STATIC
        FUNCALL MT_AfInterPanCtl, StubAPS_SetInterPanChannel
        LOCFRAME ISTACK, 0, STACK
        LOCFRAME PSTACK, 0, STACK
        LOCFRAME XSTACK, 12, STACK
        LOCFRAME IOVERLAY, 0, STATIC
        LOCFRAME DOVERLAY, 0, STATIC
        ARGFRAME ISTACK, 0, STACK
        ARGFRAME PSTACK, 0, STACK
        ARGFRAME XSTACK, 12, STACK
        ARGFRAME IOVERLAY, 0, STATIC
        ARGFRAME DOVERLAY, 0, STATIC
        FUNCALL MT_AfInterPanCtl, afFindEndPointDesc
        LOCFRAME ISTACK, 0, STACK
        LOCFRAME PSTACK, 0, STACK
        LOCFRAME XSTACK, 12, STACK
        LOCFRAME IOVERLAY, 0, STATIC
        LOCFRAME DOVERLAY, 0, STATIC
        ARGFRAME ISTACK, 0, STACK
        ARGFRAME PSTACK, 0, STACK
        ARGFRAME XSTACK, 12, STACK
        ARGFRAME IOVERLAY, 0, STATIC
        ARGFRAME DOVERLAY, 0, STATIC
        FUNCALL MT_AfInterPanCtl, StubAPS_RegisterApp
        LOCFRAME ISTACK, 0, STACK
        LOCFRAME PSTACK, 0, STACK
        LOCFRAME XSTACK, 12, STACK
        LOCFRAME IOVERLAY, 0, STATIC
        LOCFRAME DOVERLAY, 0, STATIC
        ARGFRAME ISTACK, 0, STACK
        ARGFRAME PSTACK, 0, STACK
        ARGFRAME XSTACK, 12, STACK
        ARGFRAME IOVERLAY, 0, STATIC
        ARGFRAME DOVERLAY, 0, STATIC
        FUNCALL MT_AfInterPanCtl, StubAPS_InterPan
        LOCFRAME ISTACK, 0, STACK
        LOCFRAME PSTACK, 0, STACK
        LOCFRAME XSTACK, 12, STACK
        LOCFRAME IOVERLAY, 0, STATIC
        LOCFRAME DOVERLAY, 0, STATIC
        ARGFRAME ISTACK, 0, STACK
        ARGFRAME PSTACK, 0, STACK
        ARGFRAME XSTACK, 12, STACK
        ARGFRAME IOVERLAY, 0, STATIC
        ARGFRAME DOVERLAY, 0, STATIC
        FUNCALL MT_AfInterPanCtl, MT_BuildAndSendZToolResponse
        LOCFRAME ISTACK, 0, STACK
        LOCFRAME PSTACK, 0, STACK
        LOCFRAME XSTACK, 12, STACK
        LOCFRAME IOVERLAY, 0, STATIC
        LOCFRAME DOVERLAY, 0, STATIC
        ARGFRAME ISTACK, 0, STACK
        ARGFRAME PSTACK, 0, STACK
        ARGFRAME XSTACK, 12, STACK
        ARGFRAME IOVERLAY, 0, STATIC
        ARGFRAME DOVERLAY, 0, STATIC
        MOV     A,#-0xa
        LCALL   ?BANKED_ENTER_XDATA
          CFI DPH0 load(1, XDATA, add(CFA_XSP16, literal(-1)))
          CFI DPL0 load(1, XDATA, add(CFA_XSP16, literal(-2)))
          CFI ?BRET_EXT load(1, XDATA, add(CFA_XSP16, literal(-3)))
          CFI ?RET_HIGH load(1, XDATA, add(CFA_XSP16, literal(-4)))
          CFI ?RET_LOW load(1, XDATA, add(CFA_XSP16, literal(-5)))
          CFI R7 load(1, XDATA, add(CFA_XSP16, literal(-6)))
          CFI V1 load(1, XDATA, add(CFA_XSP16, literal(-7)))
          CFI V0 load(1, XDATA, add(CFA_XSP16, literal(-8)))
          CFI VB load(1, XDATA, add(CFA_XSP16, literal(-9)))
          CFI R6 load(1, XDATA, add(CFA_XSP16, literal(-10)))
          CFI CFA_SP SP+0
          CFI CFA_XSP16 add(XSP16, 10)
        ; Saved register size: 10
        ; Auto size: 2
        MOV     A,#-0x2
        LCALL   ?ALLOC_XSTACK8
          CFI CFA_XSP16 add(XSP16, 12)
//  564   uint8 cmd, rtrn;
//  565   uint16 panId;
//  566   endPointDesc_t *pEP;
//  567 
//  568   cmd = pBuf[MT_RPC_POS_CMD1];
        MOV     DPL,R2
        MOV     DPH,R3
        INC     DPTR
        INC     DPTR
        MOVX    A,@DPTR
        MOV     R6,A
//  569   pBuf += MT_RPC_FRAME_HDR_SZ;
//  570 
//  571   switch (*pBuf++)  // Inter-pan request parameter.
        MOV     A,R2
        ADD     A,#0x3
        MOV     R0,A
        MOV     A,R3
        LCALL   ?Subroutine40 & 0xFFFF
??CrossCallReturnLabel_66:
        INC     DPTR
        MOV     R2,DPL
        MOV     R3,DPH
        MOV     DPL,R0
        MOV     DPH,R1
        MOVX    A,@DPTR
        JZ      ??MT_AfInterPanCtl_0
        DEC     A
        JZ      ??MT_AfInterPanCtl_1
        DEC     A
        JZ      ??MT_AfInterPanCtl_2
        DEC     A
        JZ      ??MT_AfInterPanCtl_3
        SJMP    ??MT_AfInterPanCtl_4
//  572   {
//  573   case InterPanClr:
//  574     rtrn = StubAPS_SetIntraPanChannel();           // Switch channel back to the NIB channel.
??MT_AfInterPanCtl_0:
        ; Setup parameters for call to function StubAPS_SetIntraPanChannel
        LCALL   ??StubAPS_SetIntraPanChannel?relay
        SJMP    ??MT_AfInterPanCtl_5
//  575     break;
//  576 
//  577   case InterPanSet:
//  578     rtrn = StubAPS_SetInterPanChannel(*pBuf);      // Set channel for inter-pan communication.
??MT_AfInterPanCtl_1:
        ; Setup parameters for call to function StubAPS_SetInterPanChannel
        MOV     DPL,R2
        MOV     DPH,R3
        MOVX    A,@DPTR
        MOV     R1,A
        LCALL   ??StubAPS_SetInterPanChannel?relay
??MT_AfInterPanCtl_5:
        MOV     A,R1
        SJMP    ??MT_AfInterPanCtl_6
//  579     break;
//  580 
//  581   case InterPanReg:
//  582     if ((pEP = afFindEndPointDesc(*pBuf)))
??MT_AfInterPanCtl_2:
        ; Setup parameters for call to function afFindEndPointDesc
        MOV     DPL,R2
        MOV     DPH,R3
        MOVX    A,@DPTR
        MOV     R1,A
        LCALL   ??afFindEndPointDesc?relay
        MOV     A,R2
        ORL     A,R3
        JZ      ??MT_AfInterPanCtl_7
//  583     {
//  584       StubAPS_RegisterApp(pEP);
        ; Setup parameters for call to function StubAPS_RegisterApp
        LCALL   ??StubAPS_RegisterApp?relay
//  585       rtrn = SUCCESS;
        MOV     DPL,?XSP + 0
        MOV     DPH,?XSP + 1
        CLR     A
        SJMP    ??MT_AfInterPanCtl_8
//  586     }
//  587     else
//  588     {
//  589       rtrn = FAILURE;
??MT_AfInterPanCtl_7:
        MOV     DPL,?XSP + 0
        MOV     DPH,?XSP + 1
        MOV     A,#0x1
        SJMP    ??MT_AfInterPanCtl_8
//  590     }
//  591     break;
//  592 
//  593   case InterPanChk:
//  594     panId = BUILD_UINT16(pBuf[0], pBuf[1]);
//  595     rtrn = (StubAPS_InterPan(panId, pBuf[2])) ? ZSuccess : ZFailure;
??MT_AfInterPanCtl_3:
        ; Setup parameters for call to function StubAPS_InterPan
        MOV     DPL,R2
        MOV     DPH,R3
        INC     DPTR
        INC     DPTR
        MOVX    A,@DPTR
        MOV     R1,A
        MOV     DPL,R2
        MOV     DPH,R3
        MOVX    A,@DPTR
        MOV     R4,A
        INC     DPTR
        MOVX    A,@DPTR
        MOV     R3,A
        MOV     A,R4
        MOV     R2,A
        LCALL   ??StubAPS_InterPan?relay
        MOV     A,R1
        JZ      ??MT_AfInterPanCtl_9
        MOV     A,#0x1
        LCALL   ?XSTACK_DISP0_8
        CLR     A
        SJMP    ??MT_AfInterPanCtl_10
??MT_AfInterPanCtl_9:
        MOV     A,#0x1
        LCALL   ?XSTACK_DISP0_8
        MOV     A,#0x1
??MT_AfInterPanCtl_10:
        MOVX    @DPTR,A
        MOVX    A,@DPTR
??MT_AfInterPanCtl_6:
        MOV     DPL,?XSP + 0
        MOV     DPH,?XSP + 1
        SJMP    ??MT_AfInterPanCtl_8
//  596     break;
//  597 
//  598   default:
//  599     rtrn = afStatus_INVALID_PARAMETER;
??MT_AfInterPanCtl_4:
        MOV     DPL,?XSP + 0
        MOV     DPH,?XSP + 1
        MOV     A,#0x2
//  600     break;
//  601   }
??MT_AfInterPanCtl_8:
        LCALL   ?Subroutine33 & 0xFFFF
//  602 
//  603   MT_BuildAndSendZToolResponse(((uint8)MT_RPC_CMD_SRSP | (uint8)MT_RPC_SYS_AF), cmd, 1, &rtrn);
??CrossCallReturnLabel_54:
        LCALL   ??MT_BuildAndSendZToolResponse?relay
//  604 }
        MOV     A,#0x2
        LCALL   ?DEALLOC_XSTACK8
          CFI CFA_XSP16 add(XSP16, 10)
        MOV     R7,#0x2
        LJMP    ?BANKED_LEAVE_XDATA
          CFI EndBlock cfiBlock128

        RSEG BANKED_CODE:CODE:NOROOT(0)
?Subroutine33:
          CFI Block cfiCond129 Using cfiCommon0
          CFI Function MT_AfDelete
          CFI Conditional ??CrossCallReturnLabel_53
          CFI R6 load(1, XDATA, add(CFA_XSP16, literal(-9)))
          CFI VB load(1, XDATA, add(CFA_XSP16, literal(-8)))
          CFI V0 load(1, XDATA, add(CFA_XSP16, literal(-7)))
          CFI R7 load(1, XDATA, add(CFA_XSP16, literal(-6)))
          CFI ?RET_LOW load(1, XDATA, add(CFA_XSP16, literal(-5)))
          CFI ?RET_HIGH load(1, XDATA, add(CFA_XSP16, literal(-4)))
          CFI ?BRET_EXT load(1, XDATA, add(CFA_XSP16, literal(-3)))
          CFI DPL0 load(1, XDATA, add(CFA_XSP16, literal(-2)))
          CFI DPH0 load(1, XDATA, add(CFA_XSP16, literal(-1)))
          CFI CFA_SP SP+0
          CFI CFA_XSP16 add(XSP16, 10)
          CFI Block cfiCond130 Using cfiCommon0
          CFI (cfiCond130) Function MT_AfInterPanCtl
          CFI (cfiCond130) Conditional ??CrossCallReturnLabel_54
          CFI (cfiCond130) R6 load(1, XDATA, add(CFA_XSP16, literal(-10)))
          CFI (cfiCond130) VB load(1, XDATA, add(CFA_XSP16, literal(-9)))
          CFI (cfiCond130) V0 load(1, XDATA, add(CFA_XSP16, literal(-8)))
          CFI (cfiCond130) V1 load(1, XDATA, add(CFA_XSP16, literal(-7)))
          CFI (cfiCond130) R7 load(1, XDATA, add(CFA_XSP16, literal(-6)))
          CFI (cfiCond130) ?RET_LOW load(1, XDATA, add(CFA_XSP16, literal(-5)))
          CFI (cfiCond130) ?RET_HIGH load(1, XDATA, add(CFA_XSP16, literal(-4)))
          CFI (cfiCond130) ?BRET_EXT load(1, XDATA, add(CFA_XSP16, literal(-3)))
          CFI (cfiCond130) DPL0 load(1, XDATA, add(CFA_XSP16, literal(-2)))
          CFI (cfiCond130) DPH0 load(1, XDATA, add(CFA_XSP16, literal(-1)))
          CFI (cfiCond130) CFA_SP SP+0
          CFI (cfiCond130) CFA_XSP16 add(XSP16, 12)
          CFI Block cfiPicker131 Using cfiCommon1
          CFI (cfiPicker131) NoFunction
          CFI (cfiPicker131) Picker
        MOVX    @DPTR,A
        ; Setup parameters for call to function MT_BuildAndSendZToolResponse
        ; Setup parameters for call to function MT_BuildAndSendZToolResponse
        MOV     R4,DPL
        MOV     R5,DPH
        MOV     R3,#0x1
        MOV     A,R6
        MOV     R2,A
        MOV     R1,#0x64
        RET
          CFI EndBlock cfiCond129
          CFI EndBlock cfiCond130
          CFI EndBlock cfiPicker131
//  605 #endif
//  606 
//  607 /***************************************************************************************************
//  608  * @fn      MT_AfDataConfirm
//  609  *
//  610  * @brief   Process
//  611  *
//  612  * @param   pBuf - pointer to the received buffer
//  613  *
//  614  * @return  none
//  615  ***************************************************************************************************/

        RSEG BANKED_CODE:CODE:NOROOT(0)
//  616 void MT_AfDataConfirm(afDataConfirm_t *pMsg)
MT_AfDataConfirm:
          CFI Block cfiBlock132 Using cfiCommon0
          CFI Function MT_AfDataConfirm
        CODE
//  617 {
        FUNCALL MT_AfDataConfirm, MT_BuildAndSendZToolResponse
        LOCFRAME ISTACK, 2, STACK
        LOCFRAME PSTACK, 0, STACK
        LOCFRAME XSTACK, 3, STACK
        LOCFRAME IOVERLAY, 0, STATIC
        LOCFRAME DOVERLAY, 0, STATIC
        ARGFRAME ISTACK, 2, STACK
        ARGFRAME PSTACK, 0, STACK
        ARGFRAME XSTACK, 3, STACK
        ARGFRAME IOVERLAY, 0, STATIC
        ARGFRAME DOVERLAY, 0, STATIC
        PUSH    DPL
          CFI DPL0 Frame(CFA_SP, 4)
          CFI CFA_SP SP+-4
        PUSH    DPH
          CFI DPH0 Frame(CFA_SP, 5)
          CFI CFA_SP SP+-5
        ; Saved register size: 2
        ; Auto size: 3
        MOV     A,#-0x3
        LCALL   ?ALLOC_XSTACK8
          CFI CFA_XSP16 add(XSP16, 3)
//  618   uint8 retArray[3];
//  619 
//  620   retArray[0] = pMsg->hdr.status;
        LCALL   ?Subroutine8 & 0xFFFF
//  621   retArray[1] = pMsg->endpoint;
??CrossCallReturnLabel_2:
        PUSH    A
          CFI CFA_SP SP+-6
        MOV     A,#0x1
        LCALL   ?XSTACK_DISP0_8
        POP     A
          CFI CFA_SP SP+-5
        LCALL   ?Subroutine35 & 0xFFFF
//  622   retArray[2] = pMsg->transID;
??CrossCallReturnLabel_57:
        PUSH    A
          CFI CFA_SP SP+-6
        MOV     A,#0x2
        LCALL   ?XSTACK_DISP0_8
        POP     A
          CFI CFA_SP SP+-5
        LCALL   ?Subroutine29 & 0xFFFF
//  623 
//  624   /* Build and send back the response */
//  625   MT_BuildAndSendZToolResponse(((uint8)MT_RPC_CMD_AREQ | (uint8)MT_RPC_SYS_AF), MT_AF_DATA_CONFIRM, 3, retArray);
??CrossCallReturnLabel_35:
        MOV     R3,#0x3
        MOV     R2,#-0x80
        MOV     R1,#0x44
        LCALL   ??MT_BuildAndSendZToolResponse?relay
//  626 }
        MOV     A,#0x3
          CFI EndBlock cfiBlock132
        REQUIRE ?Subroutine3
        ; // Fall through to label ?Subroutine3

        RSEG BANKED_CODE:CODE:NOROOT(0)
?Subroutine3:
          CFI Block cfiBlock133 Using cfiCommon0
          CFI NoFunction
          CFI CFA_SP SP+-5
          CFI CFA_XSP16 add(XSP16, 3)
          CFI DPL0 Frame(CFA_SP, 4)
          CFI DPH0 Frame(CFA_SP, 5)
          CFI Invalid
        LCALL   ?DEALLOC_XSTACK8
          CFI CFA_XSP16 XSP16+0
          CFI Valid
        POP     DPH
          CFI CFA_SP SP+-4
          CFI DPH0 SameValue
        POP     DPL
          CFI CFA_SP SP+-3
          CFI DPL0 SameValue
        LJMP    ?BRET
          CFI EndBlock cfiBlock133
//  627 
//  628 /***************************************************************************************************
//  629  * @fn      MT_AfReflectError
//  630  *
//  631  * @brief   Process
//  632  *
//  633  * @param   pBuf - pointer to the received buffer
//  634  *
//  635  * @return  none
//  636  ***************************************************************************************************/

        RSEG BANKED_CODE:CODE:NOROOT(0)
//  637 void MT_AfReflectError(afReflectError_t *pMsg)
MT_AfReflectError:
          CFI Block cfiBlock134 Using cfiCommon0
          CFI Function MT_AfReflectError
        CODE
//  638 {
        FUNCALL MT_AfReflectError, MT_BuildAndSendZToolResponse
        LOCFRAME ISTACK, 2, STACK
        LOCFRAME PSTACK, 0, STACK
        LOCFRAME XSTACK, 6, STACK
        LOCFRAME IOVERLAY, 0, STATIC
        LOCFRAME DOVERLAY, 0, STATIC
        ARGFRAME ISTACK, 2, STACK
        ARGFRAME PSTACK, 0, STACK
        ARGFRAME XSTACK, 6, STACK
        ARGFRAME IOVERLAY, 0, STATIC
        ARGFRAME DOVERLAY, 0, STATIC
        PUSH    DPL
          CFI DPL0 Frame(CFA_SP, 4)
          CFI CFA_SP SP+-4
        PUSH    DPH
          CFI DPH0 Frame(CFA_SP, 5)
          CFI CFA_SP SP+-5
        ; Saved register size: 2
        ; Auto size: 6
        MOV     A,#-0x6
        LCALL   ?ALLOC_XSTACK8
          CFI CFA_XSP16 add(XSP16, 6)
//  639   uint8 retArray[6];
//  640 
//  641   retArray[0] = pMsg->hdr.status;
        LCALL   ?Subroutine8 & 0xFFFF
//  642   retArray[1] = pMsg->endpoint;
??CrossCallReturnLabel_3:
        PUSH    A
          CFI CFA_SP SP+-6
        MOV     A,#0x1
        LCALL   ?XSTACK_DISP0_8
        POP     A
          CFI CFA_SP SP+-5
        LCALL   ?Subroutine35 & 0xFFFF
//  643   retArray[2] = pMsg->transID;
??CrossCallReturnLabel_58:
        PUSH    A
          CFI CFA_SP SP+-6
        MOV     A,#0x2
        LCALL   ?XSTACK_DISP0_8
        POP     A
          CFI CFA_SP SP+-5
        LCALL   ?Subroutine34 & 0xFFFF
//  644   retArray[3] = pMsg->dstAddrMode;
??CrossCallReturnLabel_56:
        MOVX    A,@DPTR
        PUSH    A
          CFI CFA_SP SP+-6
        MOV     A,#0x3
        LCALL   ?XSTACK_DISP0_8
        POP     A
          CFI CFA_SP SP+-5
        MOVX    @DPTR,A
//  645   retArray[4] = LO_UINT16( pMsg->dstAddr );
        MOV     A,R2
        ADD     A,#0x5
        MOV     R0,A
        MOV     A,R3
        LCALL   ?Subroutine27 & 0xFFFF
??CrossCallReturnLabel_33:
        PUSH    A
          CFI CFA_SP SP+-6
        MOV     A,#0x4
        LCALL   ?XSTACK_DISP0_8
        POP     A
          CFI CFA_SP SP+-5
        MOVX    @DPTR,A
//  646   retArray[5] = HI_UINT16( pMsg->dstAddr );
        MOV     DPL,R0
        MOV     DPH,R1
        INC     DPTR
        MOVX    A,@DPTR
        PUSH    A
          CFI CFA_SP SP+-6
        MOV     A,#0x5
        LCALL   ?XSTACK_DISP0_8
        POP     A
          CFI CFA_SP SP+-5
        LCALL   ?Subroutine29 & 0xFFFF
//  647 
//  648   /* Build and send back the response */
//  649   MT_BuildAndSendZToolResponse(((uint8)MT_RPC_CMD_AREQ | (uint8)MT_RPC_SYS_AF), MT_AF_REFLECT_ERROR, 6, retArray);
??CrossCallReturnLabel_36:
        MOV     R3,#0x6
        MOV     R2,#-0x7d
        MOV     R1,#0x44
        LCALL   ??MT_BuildAndSendZToolResponse?relay
//  650 }
        MOV     A,#0x6
        SJMP    ?Subroutine3
          CFI EndBlock cfiBlock134

        RSEG BANKED_CODE:CODE:NOROOT(0)
?Subroutine35:
          CFI Block cfiCond135 Using cfiCommon0
          CFI Function MT_AfDataConfirm
          CFI Conditional ??CrossCallReturnLabel_57
          CFI DPL0 Frame(CFA_SP, 4)
          CFI DPH0 Frame(CFA_SP, 5)
          CFI CFA_SP SP+-5
          CFI CFA_XSP16 add(XSP16, 3)
          CFI Block cfiCond136 Using cfiCommon0
          CFI (cfiCond136) Function MT_AfReflectError
          CFI (cfiCond136) Conditional ??CrossCallReturnLabel_58
          CFI (cfiCond136) DPL0 Frame(CFA_SP, 4)
          CFI (cfiCond136) DPH0 Frame(CFA_SP, 5)
          CFI (cfiCond136) CFA_SP SP+-5
          CFI (cfiCond136) CFA_XSP16 add(XSP16, 6)
          CFI Block cfiPicker137 Using cfiCommon1
          CFI (cfiPicker137) NoFunction
          CFI (cfiPicker137) Picker
        LCALL   ?Subroutine49 & 0xFFFF
??CrossCallReturnLabel_82:
        MOVX    A,@DPTR
        RET
          CFI EndBlock cfiCond135
          CFI EndBlock cfiCond136
          CFI EndBlock cfiPicker137

        RSEG BANKED_CODE:CODE:NOROOT(0)
?Subroutine34:
          CFI Block cfiCond138 Using cfiCommon0
          CFI Function MT_AfCommandProcessing
          CFI Conditional ??CrossCallReturnLabel_55
          CFI R6 load(1, XDATA, add(CFA_XSP16, literal(-9)))
          CFI VB load(1, XDATA, add(CFA_XSP16, literal(-8)))
          CFI V0 load(1, XDATA, add(CFA_XSP16, literal(-7)))
          CFI R7 load(1, XDATA, add(CFA_XSP16, literal(-6)))
          CFI ?RET_LOW load(1, XDATA, add(CFA_XSP16, literal(-5)))
          CFI ?RET_HIGH load(1, XDATA, add(CFA_XSP16, literal(-4)))
          CFI ?BRET_EXT load(1, XDATA, add(CFA_XSP16, literal(-3)))
          CFI DPL0 load(1, XDATA, add(CFA_XSP16, literal(-2)))
          CFI DPH0 load(1, XDATA, add(CFA_XSP16, literal(-1)))
          CFI CFA_SP SP+0
          CFI CFA_XSP16 add(XSP16, 15)
          CFI Block cfiCond139 Using cfiCommon0
          CFI (cfiCond139) Function MT_AfReflectError
          CFI (cfiCond139) Conditional ??CrossCallReturnLabel_56
          CFI (cfiCond139) DPL0 Frame(CFA_SP, 4)
          CFI (cfiCond139) DPH0 Frame(CFA_SP, 5)
          CFI (cfiCond139) CFA_SP SP+-5
          CFI (cfiCond139) CFA_XSP16 add(XSP16, 6)
          CFI Block cfiPicker140 Using cfiCommon1
          CFI (cfiPicker140) NoFunction
          CFI (cfiPicker140) Picker
        LCALL   ?Subroutine49 & 0xFFFF
??CrossCallReturnLabel_83:
        INC     DPTR
        RET
          CFI EndBlock cfiCond138
          CFI EndBlock cfiCond139
          CFI EndBlock cfiPicker140

        RSEG BANKED_CODE:CODE:NOROOT(0)
?Subroutine49:
          CFI Block cfiCond141 Using cfiCommon0
          CFI Function MT_AfDataConfirm
          CFI Conditional ??CrossCallReturnLabel_82, ??CrossCallReturnLabel_57
          CFI DPL0 Frame(CFA_SP, 4)
          CFI DPH0 Frame(CFA_SP, 5)
          CFI CFA_SP SP+-5
          CFI CFA_XSP16 add(XSP16, 3)
          CFI Block cfiCond142 Using cfiCommon0
          CFI (cfiCond142) Function MT_AfReflectError
          CFI (cfiCond142) Conditional ??CrossCallReturnLabel_82, ??CrossCallReturnLabel_58
          CFI (cfiCond142) DPL0 Frame(CFA_SP, 4)
          CFI (cfiCond142) DPH0 Frame(CFA_SP, 5)
          CFI (cfiCond142) CFA_SP SP+-5
          CFI (cfiCond142) CFA_XSP16 add(XSP16, 6)
          CFI Block cfiCond143 Using cfiCommon0
          CFI (cfiCond143) Function MT_AfCommandProcessing
          CFI (cfiCond143) Conditional ??CrossCallReturnLabel_83, ??CrossCallReturnLabel_55
          CFI (cfiCond143) R6 load(1, XDATA, add(CFA_XSP16, literal(-9)))
          CFI (cfiCond143) VB load(1, XDATA, add(CFA_XSP16, literal(-8)))
          CFI (cfiCond143) V0 load(1, XDATA, add(CFA_XSP16, literal(-7)))
          CFI (cfiCond143) R7 load(1, XDATA, add(CFA_XSP16, literal(-6)))
          CFI (cfiCond143) ?RET_LOW load(1, XDATA, add(CFA_XSP16, literal(-5)))
          CFI (cfiCond143) ?RET_HIGH load(1, XDATA, add(CFA_XSP16, literal(-4)))
          CFI (cfiCond143) ?BRET_EXT load(1, XDATA, add(CFA_XSP16, literal(-3)))
          CFI (cfiCond143) DPL0 load(1, XDATA, add(CFA_XSP16, literal(-2)))
          CFI (cfiCond143) DPH0 load(1, XDATA, add(CFA_XSP16, literal(-1)))
          CFI (cfiCond143) CFA_SP SP+0
          CFI (cfiCond143) CFA_XSP16 add(XSP16, 15)
          CFI Block cfiCond144 Using cfiCommon0
          CFI (cfiCond144) Function MT_AfReflectError
          CFI (cfiCond144) Conditional ??CrossCallReturnLabel_83, ??CrossCallReturnLabel_56
          CFI (cfiCond144) DPL0 Frame(CFA_SP, 4)
          CFI (cfiCond144) DPH0 Frame(CFA_SP, 5)
          CFI (cfiCond144) CFA_SP SP+-5
          CFI (cfiCond144) CFA_XSP16 add(XSP16, 6)
          CFI Block cfiPicker145 Using cfiCommon1
          CFI (cfiPicker145) NoFunction
          CFI (cfiPicker145) Picker
        LCALL   ?Subroutine52 & 0xFFFF
??CrossCallReturnLabel_87:
        INC     DPTR
        INC     DPTR
        RET
          CFI EndBlock cfiCond141
          CFI EndBlock cfiCond142
          CFI EndBlock cfiCond143
          CFI EndBlock cfiCond144
          CFI EndBlock cfiPicker145

        RSEG BANKED_CODE:CODE:NOROOT(0)
?Subroutine29:
          CFI Block cfiCond146 Using cfiCommon0
          CFI Function MT_AfDataConfirm
          CFI Conditional ??CrossCallReturnLabel_35
          CFI DPL0 Frame(CFA_SP, 4)
          CFI DPH0 Frame(CFA_SP, 5)
          CFI CFA_SP SP+-5
          CFI CFA_XSP16 add(XSP16, 3)
          CFI Block cfiCond147 Using cfiCommon0
          CFI (cfiCond147) Function MT_AfReflectError
          CFI (cfiCond147) Conditional ??CrossCallReturnLabel_36
          CFI (cfiCond147) DPL0 Frame(CFA_SP, 4)
          CFI (cfiCond147) DPH0 Frame(CFA_SP, 5)
          CFI (cfiCond147) CFA_SP SP+-5
          CFI (cfiCond147) CFA_XSP16 add(XSP16, 6)
          CFI Block cfiCond148 Using cfiCommon0
          CFI (cfiCond148) Function MT_AfDataStore
          CFI (cfiCond148) Conditional ??CrossCallReturnLabel_37
          CFI (cfiCond148) R6 load(1, XDATA, add(CFA_XSP16, literal(-14)))
          CFI (cfiCond148) VB load(1, XDATA, add(CFA_XSP16, literal(-13)))
          CFI (cfiCond148) V0 load(1, XDATA, add(CFA_XSP16, literal(-12)))
          CFI (cfiCond148) V1 load(1, XDATA, add(CFA_XSP16, literal(-11)))
          CFI (cfiCond148) V2 load(1, XDATA, add(CFA_XSP16, literal(-10)))
          CFI (cfiCond148) V3 load(1, XDATA, add(CFA_XSP16, literal(-9)))
          CFI (cfiCond148) V4 load(1, XDATA, add(CFA_XSP16, literal(-8)))
          CFI (cfiCond148) V5 load(1, XDATA, add(CFA_XSP16, literal(-7)))
          CFI (cfiCond148) R7 load(1, XDATA, add(CFA_XSP16, literal(-6)))
          CFI (cfiCond148) ?RET_LOW load(1, XDATA, add(CFA_XSP16, literal(-5)))
          CFI (cfiCond148) ?RET_HIGH load(1, XDATA, add(CFA_XSP16, literal(-4)))
          CFI (cfiCond148) ?BRET_EXT load(1, XDATA, add(CFA_XSP16, literal(-3)))
          CFI (cfiCond148) DPL0 load(1, XDATA, add(CFA_XSP16, literal(-2)))
          CFI (cfiCond148) DPH0 load(1, XDATA, add(CFA_XSP16, literal(-1)))
          CFI (cfiCond148) CFA_SP SP+0
          CFI (cfiCond148) CFA_XSP16 add(XSP16, 15)
          CFI Block cfiPicker149 Using cfiCommon1
          CFI (cfiPicker149) NoFunction
          CFI (cfiPicker149) Picker
        LCALL   ?Subroutine46 & 0xFFFF
??CrossCallReturnLabel_79:
        MOV     R4,DPL
        MOV     R5,DPH
        RET
          CFI EndBlock cfiCond146
          CFI EndBlock cfiCond147
          CFI EndBlock cfiCond148
          CFI EndBlock cfiPicker149

        RSEG BANKED_CODE:CODE:NOROOT(0)
?Subroutine46:
          CFI Block cfiCond150 Using cfiCommon0
          CFI Function MT_AfCommandProcessing
          CFI Conditional ??CrossCallReturnLabel_77
          CFI R6 load(1, XDATA, add(CFA_XSP16, literal(-9)))
          CFI VB load(1, XDATA, add(CFA_XSP16, literal(-8)))
          CFI V0 load(1, XDATA, add(CFA_XSP16, literal(-7)))
          CFI R7 load(1, XDATA, add(CFA_XSP16, literal(-6)))
          CFI ?RET_LOW load(1, XDATA, add(CFA_XSP16, literal(-5)))
          CFI ?RET_HIGH load(1, XDATA, add(CFA_XSP16, literal(-4)))
          CFI ?BRET_EXT load(1, XDATA, add(CFA_XSP16, literal(-3)))
          CFI DPL0 load(1, XDATA, add(CFA_XSP16, literal(-2)))
          CFI DPH0 load(1, XDATA, add(CFA_XSP16, literal(-1)))
          CFI CFA_SP SP+0
          CFI CFA_XSP16 add(XSP16, 15)
          CFI Block cfiCond151 Using cfiCommon0
          CFI (cfiCond151) Function MT_AfCommandProcessing
          CFI (cfiCond151) Conditional ??CrossCallReturnLabel_78
          CFI (cfiCond151) R6 load(1, XDATA, add(CFA_XSP16, literal(-9)))
          CFI (cfiCond151) VB load(1, XDATA, add(CFA_XSP16, literal(-8)))
          CFI (cfiCond151) V0 load(1, XDATA, add(CFA_XSP16, literal(-7)))
          CFI (cfiCond151) R7 load(1, XDATA, add(CFA_XSP16, literal(-6)))
          CFI (cfiCond151) ?RET_LOW load(1, XDATA, add(CFA_XSP16, literal(-5)))
          CFI (cfiCond151) ?RET_HIGH load(1, XDATA, add(CFA_XSP16, literal(-4)))
          CFI (cfiCond151) ?BRET_EXT load(1, XDATA, add(CFA_XSP16, literal(-3)))
          CFI (cfiCond151) DPL0 load(1, XDATA, add(CFA_XSP16, literal(-2)))
          CFI (cfiCond151) DPH0 load(1, XDATA, add(CFA_XSP16, literal(-1)))
          CFI (cfiCond151) CFA_SP SP+0
          CFI (cfiCond151) CFA_XSP16 add(XSP16, 15)
          CFI Block cfiCond152 Using cfiCommon0
          CFI (cfiCond152) Function MT_AfDataConfirm
          CFI (cfiCond152) Conditional ??CrossCallReturnLabel_79, ??CrossCallReturnLabel_35
          CFI (cfiCond152) DPL0 Frame(CFA_SP, 4)
          CFI (cfiCond152) DPH0 Frame(CFA_SP, 5)
          CFI (cfiCond152) CFA_SP SP+-5
          CFI (cfiCond152) CFA_XSP16 add(XSP16, 3)
          CFI Block cfiCond153 Using cfiCommon0
          CFI (cfiCond153) Function MT_AfReflectError
          CFI (cfiCond153) Conditional ??CrossCallReturnLabel_79, ??CrossCallReturnLabel_36
          CFI (cfiCond153) DPL0 Frame(CFA_SP, 4)
          CFI (cfiCond153) DPH0 Frame(CFA_SP, 5)
          CFI (cfiCond153) CFA_SP SP+-5
          CFI (cfiCond153) CFA_XSP16 add(XSP16, 6)
          CFI Block cfiCond154 Using cfiCommon0
          CFI (cfiCond154) Function MT_AfDataStore
          CFI (cfiCond154) Conditional ??CrossCallReturnLabel_79, ??CrossCallReturnLabel_37
          CFI (cfiCond154) R6 load(1, XDATA, add(CFA_XSP16, literal(-14)))
          CFI (cfiCond154) VB load(1, XDATA, add(CFA_XSP16, literal(-13)))
          CFI (cfiCond154) V0 load(1, XDATA, add(CFA_XSP16, literal(-12)))
          CFI (cfiCond154) V1 load(1, XDATA, add(CFA_XSP16, literal(-11)))
          CFI (cfiCond154) V2 load(1, XDATA, add(CFA_XSP16, literal(-10)))
          CFI (cfiCond154) V3 load(1, XDATA, add(CFA_XSP16, literal(-9)))
          CFI (cfiCond154) V4 load(1, XDATA, add(CFA_XSP16, literal(-8)))
          CFI (cfiCond154) V5 load(1, XDATA, add(CFA_XSP16, literal(-7)))
          CFI (cfiCond154) R7 load(1, XDATA, add(CFA_XSP16, literal(-6)))
          CFI (cfiCond154) ?RET_LOW load(1, XDATA, add(CFA_XSP16, literal(-5)))
          CFI (cfiCond154) ?RET_HIGH load(1, XDATA, add(CFA_XSP16, literal(-4)))
          CFI (cfiCond154) ?BRET_EXT load(1, XDATA, add(CFA_XSP16, literal(-3)))
          CFI (cfiCond154) DPL0 load(1, XDATA, add(CFA_XSP16, literal(-2)))
          CFI (cfiCond154) DPH0 load(1, XDATA, add(CFA_XSP16, literal(-1)))
          CFI (cfiCond154) CFA_SP SP+0
          CFI (cfiCond154) CFA_XSP16 add(XSP16, 15)
          CFI Block cfiPicker155 Using cfiCommon1
          CFI (cfiPicker155) NoFunction
          CFI (cfiPicker155) Picker
        MOVX    @DPTR,A
        ; Setup parameters for call to function afAPSF_ConfigSet
        ; Setup parameters for call to function MT_BuildAndSendZToolResponse
        ; Setup parameters for call to function MT_BuildAndSendZToolResponse
        ; Setup parameters for call to function MT_BuildAndSendZToolResponse
        MOV     DPL,?XSP + 0
        MOV     DPH,?XSP + 1
        RET
          CFI EndBlock cfiCond150
          CFI EndBlock cfiCond151
          CFI EndBlock cfiCond152
          CFI EndBlock cfiCond153
          CFI EndBlock cfiCond154
          CFI EndBlock cfiPicker155

        RSEG BANKED_CODE:CODE:NOROOT(0)
?Subroutine8:
          CFI Block cfiCond156 Using cfiCommon0
          CFI Function MT_AfDataConfirm
          CFI Conditional ??CrossCallReturnLabel_2
          CFI DPL0 Frame(CFA_SP, 4)
          CFI DPH0 Frame(CFA_SP, 5)
          CFI CFA_SP SP+-5
          CFI CFA_XSP16 add(XSP16, 3)
          CFI Block cfiCond157 Using cfiCommon0
          CFI (cfiCond157) Function MT_AfReflectError
          CFI (cfiCond157) Conditional ??CrossCallReturnLabel_3
          CFI (cfiCond157) DPL0 Frame(CFA_SP, 4)
          CFI (cfiCond157) DPH0 Frame(CFA_SP, 5)
          CFI (cfiCond157) CFA_SP SP+-5
          CFI (cfiCond157) CFA_XSP16 add(XSP16, 6)
          CFI Block cfiPicker158 Using cfiCommon1
          CFI (cfiPicker158) NoFunction
          CFI (cfiPicker158) Picker
        MOV     DPL,R2
        MOV     DPH,R3
        INC     DPTR
        MOVX    A,@DPTR
        MOV     DPL,?XSP + 0
        MOV     DPH,?XSP + 1
        LCALL   ?Subroutine48 & 0xFFFF
??CrossCallReturnLabel_81:
        RET
          CFI EndBlock cfiCond156
          CFI EndBlock cfiCond157
          CFI EndBlock cfiPicker158

        RSEG BANKED_CODE:CODE:NOROOT(0)
?Subroutine48:
          CFI Block cfiCond159 Using cfiCommon0
          CFI Function MT_AfRegister
          CFI Conditional ??CrossCallReturnLabel_80, ??CrossCallReturnLabel_62
          CFI R6 load(1, XDATA, add(CFA_XSP16, literal(-14)))
          CFI VB load(1, XDATA, add(CFA_XSP16, literal(-13)))
          CFI V0 load(1, XDATA, add(CFA_XSP16, literal(-12)))
          CFI V1 load(1, XDATA, add(CFA_XSP16, literal(-11)))
          CFI V2 load(1, XDATA, add(CFA_XSP16, literal(-10)))
          CFI V3 load(1, XDATA, add(CFA_XSP16, literal(-9)))
          CFI V4 load(1, XDATA, add(CFA_XSP16, literal(-8)))
          CFI V5 load(1, XDATA, add(CFA_XSP16, literal(-7)))
          CFI R7 load(1, XDATA, add(CFA_XSP16, literal(-6)))
          CFI ?RET_LOW load(1, XDATA, add(CFA_XSP16, literal(-5)))
          CFI ?RET_HIGH load(1, XDATA, add(CFA_XSP16, literal(-4)))
          CFI ?BRET_EXT load(1, XDATA, add(CFA_XSP16, literal(-3)))
          CFI DPL0 load(1, XDATA, add(CFA_XSP16, literal(-2)))
          CFI DPH0 load(1, XDATA, add(CFA_XSP16, literal(-1)))
          CFI CFA_SP SP+0
          CFI CFA_XSP16 add(XSP16, 15)
          CFI Block cfiCond160 Using cfiCommon0
          CFI (cfiCond160) Function MT_AfDelete
          CFI (cfiCond160) Conditional ??CrossCallReturnLabel_80, ??CrossCallReturnLabel_63
          CFI (cfiCond160) R6 load(1, XDATA, add(CFA_XSP16, literal(-9)))
          CFI (cfiCond160) VB load(1, XDATA, add(CFA_XSP16, literal(-8)))
          CFI (cfiCond160) V0 load(1, XDATA, add(CFA_XSP16, literal(-7)))
          CFI (cfiCond160) R7 load(1, XDATA, add(CFA_XSP16, literal(-6)))
          CFI (cfiCond160) ?RET_LOW load(1, XDATA, add(CFA_XSP16, literal(-5)))
          CFI (cfiCond160) ?RET_HIGH load(1, XDATA, add(CFA_XSP16, literal(-4)))
          CFI (cfiCond160) ?BRET_EXT load(1, XDATA, add(CFA_XSP16, literal(-3)))
          CFI (cfiCond160) DPL0 load(1, XDATA, add(CFA_XSP16, literal(-2)))
          CFI (cfiCond160) DPH0 load(1, XDATA, add(CFA_XSP16, literal(-1)))
          CFI (cfiCond160) CFA_SP SP+0
          CFI (cfiCond160) CFA_XSP16 add(XSP16, 10)
          CFI Block cfiCond161 Using cfiCommon0
          CFI (cfiCond161) Function MT_AfDataConfirm
          CFI (cfiCond161) Conditional ??CrossCallReturnLabel_81, ??CrossCallReturnLabel_2
          CFI (cfiCond161) DPL0 Frame(CFA_SP, 4)
          CFI (cfiCond161) DPH0 Frame(CFA_SP, 5)
          CFI (cfiCond161) CFA_SP SP+-5
          CFI (cfiCond161) CFA_XSP16 add(XSP16, 3)
          CFI Block cfiCond162 Using cfiCommon0
          CFI (cfiCond162) Function MT_AfReflectError
          CFI (cfiCond162) Conditional ??CrossCallReturnLabel_81, ??CrossCallReturnLabel_3
          CFI (cfiCond162) DPL0 Frame(CFA_SP, 4)
          CFI (cfiCond162) DPH0 Frame(CFA_SP, 5)
          CFI (cfiCond162) CFA_SP SP+-5
          CFI (cfiCond162) CFA_XSP16 add(XSP16, 6)
          CFI Block cfiPicker163 Using cfiCommon1
          CFI (cfiPicker163) NoFunction
          CFI (cfiPicker163) Picker
        LCALL   ?Subroutine52 & 0xFFFF
??CrossCallReturnLabel_88:
        INC     DPTR
        MOVX    A,@DPTR
        RET
          CFI EndBlock cfiCond159
          CFI EndBlock cfiCond160
          CFI EndBlock cfiCond161
          CFI EndBlock cfiCond162
          CFI EndBlock cfiPicker163

        RSEG BANKED_CODE:CODE:NOROOT(0)
?Subroutine52:
          CFI Block cfiCond164 Using cfiCommon0
          CFI Function MT_AfDataRequest
          CFI Conditional ??CrossCallReturnLabel_86
          CFI R6 load(1, XDATA, add(CFA_XSP16, literal(-22)))
          CFI VB load(1, XDATA, add(CFA_XSP16, literal(-21)))
          CFI V0 load(1, XDATA, add(CFA_XSP16, literal(-20)))
          CFI V1 load(1, XDATA, add(CFA_XSP16, literal(-19)))
          CFI V2 load(1, XDATA, add(CFA_XSP16, literal(-18)))
          CFI V3 load(1, XDATA, add(CFA_XSP16, literal(-17)))
          CFI V4 load(1, XDATA, add(CFA_XSP16, literal(-16)))
          CFI V5 load(1, XDATA, add(CFA_XSP16, literal(-15)))
          CFI V6 load(1, XDATA, add(CFA_XSP16, literal(-14)))
          CFI V7 load(1, XDATA, add(CFA_XSP16, literal(-13)))
          CFI V8 load(1, XDATA, add(CFA_XSP16, literal(-12)))
          CFI V9 load(1, XDATA, add(CFA_XSP16, literal(-11)))
          CFI V10 load(1, XDATA, add(CFA_XSP16, literal(-10)))
          CFI V11 load(1, XDATA, add(CFA_XSP16, literal(-9)))
          CFI V12 load(1, XDATA, add(CFA_XSP16, literal(-8)))
          CFI V13 load(1, XDATA, add(CFA_XSP16, literal(-7)))
          CFI R7 load(1, XDATA, add(CFA_XSP16, literal(-6)))
          CFI ?RET_LOW load(1, XDATA, add(CFA_XSP16, literal(-5)))
          CFI ?RET_HIGH load(1, XDATA, add(CFA_XSP16, literal(-4)))
          CFI ?BRET_EXT load(1, XDATA, add(CFA_XSP16, literal(-3)))
          CFI DPL0 load(1, XDATA, add(CFA_XSP16, literal(-2)))
          CFI DPH0 load(1, XDATA, add(CFA_XSP16, literal(-1)))
          CFI CFA_SP SP+0
          CFI CFA_XSP16 add(XSP16, 36)
          CFI Block cfiCond165 Using cfiCommon0
          CFI (cfiCond165) Function MT_AfDataConfirm
          CFI (cfiCond165) Conditional ??CrossCallReturnLabel_87, ??CrossCallReturnLabel_82, ??CrossCallReturnLabel_57
          CFI (cfiCond165) DPL0 Frame(CFA_SP, 4)
          CFI (cfiCond165) DPH0 Frame(CFA_SP, 5)
          CFI (cfiCond165) CFA_SP SP+-5
          CFI (cfiCond165) CFA_XSP16 add(XSP16, 3)
          CFI Block cfiCond166 Using cfiCommon0
          CFI (cfiCond166) Function MT_AfReflectError
          CFI (cfiCond166) Conditional ??CrossCallReturnLabel_87, ??CrossCallReturnLabel_82, ??CrossCallReturnLabel_58
          CFI (cfiCond166) DPL0 Frame(CFA_SP, 4)
          CFI (cfiCond166) DPH0 Frame(CFA_SP, 5)
          CFI (cfiCond166) CFA_SP SP+-5
          CFI (cfiCond166) CFA_XSP16 add(XSP16, 6)
          CFI Block cfiCond167 Using cfiCommon0
          CFI (cfiCond167) Function MT_AfCommandProcessing
          CFI (cfiCond167) Conditional ??CrossCallReturnLabel_87, ??CrossCallReturnLabel_83, ??CrossCallReturnLabel_55
          CFI (cfiCond167) R6 load(1, XDATA, add(CFA_XSP16, literal(-9)))
          CFI (cfiCond167) VB load(1, XDATA, add(CFA_XSP16, literal(-8)))
          CFI (cfiCond167) V0 load(1, XDATA, add(CFA_XSP16, literal(-7)))
          CFI (cfiCond167) R7 load(1, XDATA, add(CFA_XSP16, literal(-6)))
          CFI (cfiCond167) ?RET_LOW load(1, XDATA, add(CFA_XSP16, literal(-5)))
          CFI (cfiCond167) ?RET_HIGH load(1, XDATA, add(CFA_XSP16, literal(-4)))
          CFI (cfiCond167) ?BRET_EXT load(1, XDATA, add(CFA_XSP16, literal(-3)))
          CFI (cfiCond167) DPL0 load(1, XDATA, add(CFA_XSP16, literal(-2)))
          CFI (cfiCond167) DPH0 load(1, XDATA, add(CFA_XSP16, literal(-1)))
          CFI (cfiCond167) CFA_SP SP+0
          CFI (cfiCond167) CFA_XSP16 add(XSP16, 15)
          CFI Block cfiCond168 Using cfiCommon0
          CFI (cfiCond168) Function MT_AfReflectError
          CFI (cfiCond168) Conditional ??CrossCallReturnLabel_87, ??CrossCallReturnLabel_83, ??CrossCallReturnLabel_56
          CFI (cfiCond168) DPL0 Frame(CFA_SP, 4)
          CFI (cfiCond168) DPH0 Frame(CFA_SP, 5)
          CFI (cfiCond168) CFA_SP SP+-5
          CFI (cfiCond168) CFA_XSP16 add(XSP16, 6)
          CFI Block cfiCond169 Using cfiCommon0
          CFI (cfiCond169) Function MT_AfRegister
          CFI (cfiCond169) Conditional ??CrossCallReturnLabel_88, ??CrossCallReturnLabel_80, ??CrossCallReturnLabel_62
          CFI (cfiCond169) R6 load(1, XDATA, add(CFA_XSP16, literal(-14)))
          CFI (cfiCond169) VB load(1, XDATA, add(CFA_XSP16, literal(-13)))
          CFI (cfiCond169) V0 load(1, XDATA, add(CFA_XSP16, literal(-12)))
          CFI (cfiCond169) V1 load(1, XDATA, add(CFA_XSP16, literal(-11)))
          CFI (cfiCond169) V2 load(1, XDATA, add(CFA_XSP16, literal(-10)))
          CFI (cfiCond169) V3 load(1, XDATA, add(CFA_XSP16, literal(-9)))
          CFI (cfiCond169) V4 load(1, XDATA, add(CFA_XSP16, literal(-8)))
          CFI (cfiCond169) V5 load(1, XDATA, add(CFA_XSP16, literal(-7)))
          CFI (cfiCond169) R7 load(1, XDATA, add(CFA_XSP16, literal(-6)))
          CFI (cfiCond169) ?RET_LOW load(1, XDATA, add(CFA_XSP16, literal(-5)))
          CFI (cfiCond169) ?RET_HIGH load(1, XDATA, add(CFA_XSP16, literal(-4)))
          CFI (cfiCond169) ?BRET_EXT load(1, XDATA, add(CFA_XSP16, literal(-3)))
          CFI (cfiCond169) DPL0 load(1, XDATA, add(CFA_XSP16, literal(-2)))
          CFI (cfiCond169) DPH0 load(1, XDATA, add(CFA_XSP16, literal(-1)))
          CFI (cfiCond169) CFA_SP SP+0
          CFI (cfiCond169) CFA_XSP16 add(XSP16, 15)
          CFI Block cfiCond170 Using cfiCommon0
          CFI (cfiCond170) Function MT_AfDelete
          CFI (cfiCond170) Conditional ??CrossCallReturnLabel_88, ??CrossCallReturnLabel_80, ??CrossCallReturnLabel_63
          CFI (cfiCond170) R6 load(1, XDATA, add(CFA_XSP16, literal(-9)))
          CFI (cfiCond170) VB load(1, XDATA, add(CFA_XSP16, literal(-8)))
          CFI (cfiCond170) V0 load(1, XDATA, add(CFA_XSP16, literal(-7)))
          CFI (cfiCond170) R7 load(1, XDATA, add(CFA_XSP16, literal(-6)))
          CFI (cfiCond170) ?RET_LOW load(1, XDATA, add(CFA_XSP16, literal(-5)))
          CFI (cfiCond170) ?RET_HIGH load(1, XDATA, add(CFA_XSP16, literal(-4)))
          CFI (cfiCond170) ?BRET_EXT load(1, XDATA, add(CFA_XSP16, literal(-3)))
          CFI (cfiCond170) DPL0 load(1, XDATA, add(CFA_XSP16, literal(-2)))
          CFI (cfiCond170) DPH0 load(1, XDATA, add(CFA_XSP16, literal(-1)))
          CFI (cfiCond170) CFA_SP SP+0
          CFI (cfiCond170) CFA_XSP16 add(XSP16, 10)
          CFI Block cfiCond171 Using cfiCommon0
          CFI (cfiCond171) Function MT_AfDataConfirm
          CFI (cfiCond171) Conditional ??CrossCallReturnLabel_88, ??CrossCallReturnLabel_81, ??CrossCallReturnLabel_2
          CFI (cfiCond171) DPL0 Frame(CFA_SP, 4)
          CFI (cfiCond171) DPH0 Frame(CFA_SP, 5)
          CFI (cfiCond171) CFA_SP SP+-5
          CFI (cfiCond171) CFA_XSP16 add(XSP16, 3)
          CFI Block cfiCond172 Using cfiCommon0
          CFI (cfiCond172) Function MT_AfReflectError
          CFI (cfiCond172) Conditional ??CrossCallReturnLabel_88, ??CrossCallReturnLabel_81, ??CrossCallReturnLabel_3
          CFI (cfiCond172) DPL0 Frame(CFA_SP, 4)
          CFI (cfiCond172) DPH0 Frame(CFA_SP, 5)
          CFI (cfiCond172) CFA_SP SP+-5
          CFI (cfiCond172) CFA_XSP16 add(XSP16, 6)
          CFI Block cfiCond173 Using cfiCommon0
          CFI (cfiCond173) Function MT_AfIncomingMsg
          CFI (cfiCond173) Conditional ??CrossCallReturnLabel_89
          CFI (cfiCond173) R6 load(1, XDATA, add(CFA_XSP16, literal(-24)))
          CFI (cfiCond173) VB load(1, XDATA, add(CFA_XSP16, literal(-23)))
          CFI (cfiCond173) V0 load(1, XDATA, add(CFA_XSP16, literal(-22)))
          CFI (cfiCond173) V1 load(1, XDATA, add(CFA_XSP16, literal(-21)))
          CFI (cfiCond173) V2 load(1, XDATA, add(CFA_XSP16, literal(-20)))
          CFI (cfiCond173) V3 load(1, XDATA, add(CFA_XSP16, literal(-19)))
          CFI (cfiCond173) V4 load(1, XDATA, add(CFA_XSP16, literal(-18)))
          CFI (cfiCond173) V5 load(1, XDATA, add(CFA_XSP16, literal(-17)))
          CFI (cfiCond173) V6 load(1, XDATA, add(CFA_XSP16, literal(-16)))
          CFI (cfiCond173) V7 load(1, XDATA, add(CFA_XSP16, literal(-15)))
          CFI (cfiCond173) V8 load(1, XDATA, add(CFA_XSP16, literal(-14)))
          CFI (cfiCond173) V9 load(1, XDATA, add(CFA_XSP16, literal(-13)))
          CFI (cfiCond173) V10 load(1, XDATA, add(CFA_XSP16, literal(-12)))
          CFI (cfiCond173) V11 load(1, XDATA, add(CFA_XSP16, literal(-11)))
          CFI (cfiCond173) V12 load(1, XDATA, add(CFA_XSP16, literal(-10)))
          CFI (cfiCond173) V13 load(1, XDATA, add(CFA_XSP16, literal(-9)))
          CFI (cfiCond173) V14 load(1, XDATA, add(CFA_XSP16, literal(-8)))
          CFI (cfiCond173) V15 load(1, XDATA, add(CFA_XSP16, literal(-7)))
          CFI (cfiCond173) R7 load(1, XDATA, add(CFA_XSP16, literal(-6)))
          CFI (cfiCond173) ?RET_LOW load(1, XDATA, add(CFA_XSP16, literal(-5)))
          CFI (cfiCond173) ?RET_HIGH load(1, XDATA, add(CFA_XSP16, literal(-4)))
          CFI (cfiCond173) ?BRET_EXT load(1, XDATA, add(CFA_XSP16, literal(-3)))
          CFI (cfiCond173) DPL0 load(1, XDATA, add(CFA_XSP16, literal(-2)))
          CFI (cfiCond173) DPH0 load(1, XDATA, add(CFA_XSP16, literal(-1)))
          CFI (cfiCond173) CFA_SP SP+0
          CFI (cfiCond173) CFA_XSP16 add(XSP16, 27)
          CFI Block cfiPicker174 Using cfiCommon1
          CFI (cfiPicker174) NoFunction
          CFI (cfiPicker174) Picker
        MOVX    @DPTR,A
        MOV     DPL,R2
        MOV     DPH,R3
        INC     DPTR
        RET
          CFI EndBlock cfiCond164
          CFI EndBlock cfiCond165
          CFI EndBlock cfiCond166
          CFI EndBlock cfiCond167
          CFI EndBlock cfiCond168
          CFI EndBlock cfiCond169
          CFI EndBlock cfiCond170
          CFI EndBlock cfiCond171
          CFI EndBlock cfiCond172
          CFI EndBlock cfiCond173
          CFI EndBlock cfiPicker174
//  651 
//  652 /***************************************************************************************************
//  653  * @fn          MT_AfIncomingMsg
//  654  *
//  655  * @brief       Process the callback subscription for AF Incoming data.
//  656  *
//  657  * @param       pkt - Incoming AF data.
//  658  *
//  659  * @return      none
//  660  ***************************************************************************************************/

        RSEG BANKED_CODE:CODE:NOROOT(0)
//  661 void MT_AfIncomingMsg(afIncomingMSGPacket_t *pMsg)
MT_AfIncomingMsg:
          CFI Block cfiBlock175 Using cfiCommon0
          CFI Function MT_AfIncomingMsg
        CODE
//  662 {
        FUNCALL MT_AfIncomingMsg, StubAPS_InterPan
        LOCFRAME ISTACK, 0, STACK
        LOCFRAME PSTACK, 0, STACK
        LOCFRAME XSTACK, 27, STACK
        LOCFRAME IOVERLAY, 0, STATIC
        LOCFRAME DOVERLAY, 0, STATIC
        ARGFRAME ISTACK, 0, STACK
        ARGFRAME PSTACK, 0, STACK
        ARGFRAME XSTACK, 27, STACK
        ARGFRAME IOVERLAY, 0, STATIC
        ARGFRAME DOVERLAY, 0, STATIC
        FUNCALL MT_AfIncomingMsg, osal_mem_alloc
        LOCFRAME ISTACK, 0, STACK
        LOCFRAME PSTACK, 0, STACK
        LOCFRAME XSTACK, 27, STACK
        LOCFRAME IOVERLAY, 0, STATIC
        LOCFRAME DOVERLAY, 0, STATIC
        ARGFRAME ISTACK, 0, STACK
        ARGFRAME PSTACK, 0, STACK
        ARGFRAME XSTACK, 27, STACK
        ARGFRAME IOVERLAY, 0, STATIC
        ARGFRAME DOVERLAY, 0, STATIC
        FUNCALL MT_AfIncomingMsg, osal_mem_alloc
        LOCFRAME ISTACK, 0, STACK
        LOCFRAME PSTACK, 0, STACK
        LOCFRAME XSTACK, 27, STACK
        LOCFRAME IOVERLAY, 0, STATIC
        LOCFRAME DOVERLAY, 0, STATIC
        ARGFRAME ISTACK, 0, STACK
        ARGFRAME PSTACK, 0, STACK
        ARGFRAME XSTACK, 27, STACK
        ARGFRAME IOVERLAY, 0, STATIC
        ARGFRAME DOVERLAY, 0, STATIC
        FUNCALL MT_AfIncomingMsg, osal_mem_free
        LOCFRAME ISTACK, 0, STACK
        LOCFRAME PSTACK, 0, STACK
        LOCFRAME XSTACK, 27, STACK
        LOCFRAME IOVERLAY, 0, STATIC
        LOCFRAME DOVERLAY, 0, STATIC
        ARGFRAME ISTACK, 0, STACK
        ARGFRAME PSTACK, 0, STACK
        ARGFRAME XSTACK, 27, STACK
        ARGFRAME IOVERLAY, 0, STATIC
        ARGFRAME DOVERLAY, 0, STATIC
        FUNCALL MT_AfIncomingMsg, osal_memcpy
        LOCFRAME ISTACK, 0, STACK
        LOCFRAME PSTACK, 0, STACK
        LOCFRAME XSTACK, 30, STACK
        LOCFRAME IOVERLAY, 0, STATIC
        LOCFRAME DOVERLAY, 0, STATIC
        ARGFRAME ISTACK, 0, STACK
        ARGFRAME PSTACK, 0, STACK
        ARGFRAME XSTACK, 30, STACK
        ARGFRAME IOVERLAY, 0, STATIC
        ARGFRAME DOVERLAY, 0, STATIC
        FUNCALL MT_AfIncomingMsg, osal_start_timerEx
        LOCFRAME ISTACK, 0, STACK
        LOCFRAME PSTACK, 0, STACK
        LOCFRAME XSTACK, 31, STACK
        LOCFRAME IOVERLAY, 0, STATIC
        LOCFRAME DOVERLAY, 0, STATIC
        ARGFRAME ISTACK, 0, STACK
        ARGFRAME PSTACK, 0, STACK
        ARGFRAME XSTACK, 31, STACK
        ARGFRAME IOVERLAY, 0, STATIC
        ARGFRAME DOVERLAY, 0, STATIC
        FUNCALL MT_AfIncomingMsg, osal_set_event
        LOCFRAME ISTACK, 0, STACK
        LOCFRAME PSTACK, 0, STACK
        LOCFRAME XSTACK, 27, STACK
        LOCFRAME IOVERLAY, 0, STATIC
        LOCFRAME DOVERLAY, 0, STATIC
        ARGFRAME ISTACK, 0, STACK
        ARGFRAME PSTACK, 0, STACK
        ARGFRAME XSTACK, 27, STACK
        ARGFRAME IOVERLAY, 0, STATIC
        ARGFRAME DOVERLAY, 0, STATIC
        FUNCALL MT_AfIncomingMsg, osal_memcpy
        LOCFRAME ISTACK, 0, STACK
        LOCFRAME PSTACK, 0, STACK
        LOCFRAME XSTACK, 30, STACK
        LOCFRAME IOVERLAY, 0, STATIC
        LOCFRAME DOVERLAY, 0, STATIC
        ARGFRAME ISTACK, 0, STACK
        ARGFRAME PSTACK, 0, STACK
        ARGFRAME XSTACK, 30, STACK
        ARGFRAME IOVERLAY, 0, STATIC
        ARGFRAME DOVERLAY, 0, STATIC
        FUNCALL MT_AfIncomingMsg, osal_memcpy
        LOCFRAME ISTACK, 0, STACK
        LOCFRAME PSTACK, 0, STACK
        LOCFRAME XSTACK, 30, STACK
        LOCFRAME IOVERLAY, 0, STATIC
        LOCFRAME DOVERLAY, 0, STATIC
        ARGFRAME ISTACK, 0, STACK
        ARGFRAME PSTACK, 0, STACK
        ARGFRAME XSTACK, 30, STACK
        ARGFRAME IOVERLAY, 0, STATIC
        ARGFRAME DOVERLAY, 0, STATIC
        FUNCALL MT_AfIncomingMsg, MT_BuildAndSendZToolResponse
        LOCFRAME ISTACK, 0, STACK
        LOCFRAME PSTACK, 0, STACK
        LOCFRAME XSTACK, 27, STACK
        LOCFRAME IOVERLAY, 0, STATIC
        LOCFRAME DOVERLAY, 0, STATIC
        ARGFRAME ISTACK, 0, STACK
        ARGFRAME PSTACK, 0, STACK
        ARGFRAME XSTACK, 27, STACK
        ARGFRAME IOVERLAY, 0, STATIC
        ARGFRAME DOVERLAY, 0, STATIC
        FUNCALL MT_AfIncomingMsg, osal_mem_free
        LOCFRAME ISTACK, 0, STACK
        LOCFRAME PSTACK, 0, STACK
        LOCFRAME XSTACK, 27, STACK
        LOCFRAME IOVERLAY, 0, STATIC
        LOCFRAME DOVERLAY, 0, STATIC
        ARGFRAME ISTACK, 0, STACK
        ARGFRAME PSTACK, 0, STACK
        ARGFRAME XSTACK, 27, STACK
        ARGFRAME IOVERLAY, 0, STATIC
        ARGFRAME DOVERLAY, 0, STATIC
        MOV     A,#-0x18
        LCALL   ?BANKED_ENTER_XDATA
          CFI DPH0 load(1, XDATA, add(CFA_XSP16, literal(-1)))
          CFI DPL0 load(1, XDATA, add(CFA_XSP16, literal(-2)))
          CFI ?BRET_EXT load(1, XDATA, add(CFA_XSP16, literal(-3)))
          CFI ?RET_HIGH load(1, XDATA, add(CFA_XSP16, literal(-4)))
          CFI ?RET_LOW load(1, XDATA, add(CFA_XSP16, literal(-5)))
          CFI R7 load(1, XDATA, add(CFA_XSP16, literal(-6)))
          CFI V15 load(1, XDATA, add(CFA_XSP16, literal(-7)))
          CFI V14 load(1, XDATA, add(CFA_XSP16, literal(-8)))
          CFI V13 load(1, XDATA, add(CFA_XSP16, literal(-9)))
          CFI V12 load(1, XDATA, add(CFA_XSP16, literal(-10)))
          CFI V11 load(1, XDATA, add(CFA_XSP16, literal(-11)))
          CFI V10 load(1, XDATA, add(CFA_XSP16, literal(-12)))
          CFI V9 load(1, XDATA, add(CFA_XSP16, literal(-13)))
          CFI V8 load(1, XDATA, add(CFA_XSP16, literal(-14)))
          CFI V7 load(1, XDATA, add(CFA_XSP16, literal(-15)))
          CFI V6 load(1, XDATA, add(CFA_XSP16, literal(-16)))
          CFI V5 load(1, XDATA, add(CFA_XSP16, literal(-17)))
          CFI V4 load(1, XDATA, add(CFA_XSP16, literal(-18)))
          CFI V3 load(1, XDATA, add(CFA_XSP16, literal(-19)))
          CFI V2 load(1, XDATA, add(CFA_XSP16, literal(-20)))
          CFI V1 load(1, XDATA, add(CFA_XSP16, literal(-21)))
          CFI V0 load(1, XDATA, add(CFA_XSP16, literal(-22)))
          CFI VB load(1, XDATA, add(CFA_XSP16, literal(-23)))
          CFI R6 load(1, XDATA, add(CFA_XSP16, literal(-24)))
          CFI CFA_SP SP+0
          CFI CFA_XSP16 add(XSP16, 24)
        ; Saved register size: 24
        ; Auto size: 3
        MOV     A,#-0x3
        LCALL   ?ALLOC_XSTACK8
          CFI CFA_XSP16 add(XSP16, 27)
        MOV     ?V0 + 8,R2
        MOV     ?V0 + 9,R3
//  663   #define MT_AF_INC_MSG_LEN  17
//  664   #define MT_AF_INC_MSG_EXT  10
//  665 
//  666   uint16 dataLen = pMsg->cmd.DataLength;  // Length of the data section in the response packet.
        MOV     A,R2
        ADD     A,#0x20
        MOV     DPL,A
        MOV     A,R3
        LCALL   ??Subroutine56_0 & 0xFFFF
??CrossCallReturnLabel_96:
        MOVX    A,@DPTR
        MOV     R6,A
        INC     DPTR
        MOVX    A,@DPTR
        MOV     R7,A
//  667   uint16 respLen = MT_AF_INC_MSG_LEN + dataLen;
        MOV     A,R6
        ADD     A,#0x11
        MOV     ?V0 + 0,A
        MOV     A,R7
        ADDC    A,#0x0
        MOV     ?V0 + 1,A
//  668   uint8 cmd = MT_AF_INCOMING_MSG;
        MOV     DPL,?XSP + 0
        MOV     DPH,?XSP + 1
        MOV     A,#-0x7f
        MOVX    @DPTR,A
//  669   uint8 *pRsp, *pTmp;
//  670   mtAfInMsgList_t *pItem = NULL;
        MOV     ?V0 + 10,#0x0
        MOV     ?V0 + 11,#0x0
//  671 
//  672 #if defined INTER_PAN
//  673   if (StubAPS_InterPan(pMsg->srcAddr.panId, pMsg->srcAddr.endPoint))
        MOV     A,R2
        ADD     A,#0xe
        MOV     ?V0 + 4,A
        MOV     A,R3
        ADDC    A,#0x0
        MOV     ?V0 + 5,A
        MOV     A,R2
        ADD     A,#0x10
        MOV     ?V0 + 14,A
        MOV     A,R3
        ADDC    A,#0x0
        MOV     ?V0 + 15,A
        MOV     A,R2
        ADD     A,#0xf
        MOV     ?V0 + 12,A
        MOV     A,R3
        LCALL   ?Subroutine26 & 0xFFFF
??CrossCallReturnLabel_31:
        MOVX    A,@DPTR
        MOV     R1,A
        MOV     DPL,?V0 + 14
        MOV     DPH,?V0 + 15
        LCALL   ??Subroutine64_0 & 0xFFFF
??CrossCallReturnLabel_145:
        LCALL   ??StubAPS_InterPan?relay
        MOV     A,R1
        JNZ     ??MT_AfIncomingMsg_0
//  674   {
//  675     cmd = MT_AF_INCOMING_MSG_EXT;
//  676   }
//  677   else
//  678 #endif
//  679   if ((pMsg->srcAddr.addrMode == afAddr64Bit) ||
//  680       (respLen > (uint16)(MT_RPC_DATA_MAX - MT_AF_INC_MSG_EXT)))
        MOV     DPL,?V0 + 4
        MOV     DPH,?V0 + 5
        MOVX    A,@DPTR
        XRL     A,#0x3
        JZ      ??MT_AfIncomingMsg_0
        CLR     C
        MOV     A,?V0 + 0
        SUBB    A,#-0xf
        MOV     A,?V0 + 1
        SUBB    A,#0x0
        JC      ??MT_AfIncomingMsg_1
//  681   {
//  682     cmd = MT_AF_INCOMING_MSG_EXT;
??MT_AfIncomingMsg_0:
        MOV     DPL,?XSP + 0
        MOV     DPH,?XSP + 1
        MOV     A,#-0x7e
        MOVX    @DPTR,A
//  683   }
//  684 
//  685   if (cmd == MT_AF_INCOMING_MSG_EXT)
//  686   {
//  687     respLen += MT_AF_INC_MSG_EXT;
        MOV     A,?V0 + 0
        ADD     A,#0xa
        MOV     ?V0 + 0,A
        MOV     A,?V0 + 1
        ADDC    A,#0x0
        MOV     ?V0 + 1,A
//  688   }
//  689 
//  690   if (respLen > (uint16)MT_RPC_DATA_MAX)
??MT_AfIncomingMsg_1:
        CLR     C
        MOV     A,?V0 + 0
        SUBB    A,#-0x5
        MOV     A,?V0 + 1
        SUBB    A,#0x0
        JC      ??MT_AfIncomingMsg_2
//  691   {
//  692     if ((pItem = (mtAfInMsgList_t *)osal_mem_alloc(sizeof(mtAfInMsgList_t) + dataLen)) == NULL)
        ; Setup parameters for call to function osal_mem_alloc
        MOV     A,R6
        ADD     A,#0x9
        MOV     R2,A
        MOV     A,R7
        ADDC    A,#0x0
        MOV     R3,A
        LCALL   ??osal_mem_alloc?relay
        MOV     ?V0 + 10,R2
        MOV     ?V0 + 11,R3
        MOV     A,R2
        ORL     A,?V0 + 11
        JNZ     $+5
        LJMP    ??MT_AfIncomingMsg_3 & 0xFFFF
//  693     {
//  694       return;  // If cannot hold a huge message, cannot give indication at all.
//  695     }
//  696 
//  697     pItem->data = (uint8 *)(pItem+1);
        MOV     A,R2
        ADD     A,#0x9
        LCALL   ?Subroutine25 & 0xFFFF
??CrossCallReturnLabel_30:
        LCALL   ?Subroutine32 & 0xFFFF
//  698     respLen -= dataLen;  // Zero data bytes are sent with an over-sized incoming indication.
??CrossCallReturnLabel_50:
        CLR     C
        MOV     A,?V0 + 0
        SUBB    A,R6
        MOV     ?V0 + 0,A
        MOV     A,?V0 + 1
        SUBB    A,R7
        MOV     ?V0 + 1,A
//  699   }
//  700 
//  701   // Attempt to allocate memory for the response packet.
//  702   if ((pRsp = osal_mem_alloc(respLen)) == NULL)
??MT_AfIncomingMsg_2:
        ; Setup parameters for call to function osal_mem_alloc
        MOV     R2,?V0 + 0
        MOV     R3,?V0 + 1
        LCALL   ??osal_mem_alloc?relay
        MOV     A,#0x1
        LCALL   ?XSTACK_DISP0_8
        MOV     A,R2
        MOVX    @DPTR,A
        INC     DPTR
        MOV     A,R3
        MOVX    @DPTR,A
        MOV     A,#0x1
        LCALL   ?XSTACK_DISP0_8
        LCALL   ??Subroutine57_0 & 0xFFFF
??CrossCallReturnLabel_108:
        JNZ     ??MT_AfIncomingMsg_4
//  703   {
//  704     if (pItem != NULL)
        MOV     A,?V0 + 10
        ORL     A,?V0 + 11
        JNZ     $+5
        LJMP    ??MT_AfIncomingMsg_3 & 0xFFFF
//  705     {
//  706       (void)osal_mem_free(pItem);
        ; Setup parameters for call to function osal_mem_free
        MOV     R2,?V0 + 10
        MOV     R3,?V0 + 11
        LJMP    ??CrossCallReturnLabel_147 & 0xFFFF
//  707     }
//  708     return;
//  709   }
//  710   pTmp = pRsp;
??MT_AfIncomingMsg_4:
        MOV     A,#0x1
        LCALL   ?XSTACK_DISP0_8
        MOVX    A,@DPTR
        MOV     ?V0 + 2,A
//  711 
//  712   /* Group ID */
//  713   *pTmp++ = LO_UINT16(pMsg->groupId);
        MOV     A,?V0 + 8
        ADD     A,#0x2
        MOV     R0,A
        MOV     A,?V0 + 9
        LCALL   ?Subroutine27 & 0xFFFF
??CrossCallReturnLabel_34:
        MOV     DPL,?V0 + 2
        MOV     DPH,R3
        LCALL   ?Subroutine30 & 0xFFFF
//  714   *pTmp++ = HI_UINT16(pMsg->groupId);
??CrossCallReturnLabel_38:
        MOV     DPL,R0
        MOV     DPH,R1
        INC     DPTR
        LCALL   ??Subroutine62_0 & 0xFFFF
//  715 
//  716   /* Cluster ID */
//  717   *pTmp++ = LO_UINT16(pMsg->clusterId);
??CrossCallReturnLabel_132:
        ADD     A,#0x4
        MOV     R0,A
        MOV     A,?V0 + 9
        LCALL   ?Subroutine40 & 0xFFFF
??CrossCallReturnLabel_67:
        LCALL   ?Subroutine9 & 0xFFFF
//  718   *pTmp++ = HI_UINT16(pMsg->clusterId);
??CrossCallReturnLabel_4:
        MOV     DPL,R0
        MOV     DPH,R1
        INC     DPTR
        LCALL   ?Subroutine9 & 0xFFFF
//  719 
//  720   if (cmd == MT_AF_INCOMING_MSG_EXT)
??CrossCallReturnLabel_5:
        INC     DPTR
        MOV     R0,DPL
        MOV     R1,DPH
        MOV     A,?V0 + 8
        ADD     A,#0x6
        MOV     R2,A
        MOV     A,?V0 + 9
        ADDC    A,#0x0
        MOV     R3,A
        MOV     DPL,?XSP + 0
        MOV     DPH,?XSP + 1
        MOVX    A,@DPTR
        XRL     A,#0x82
        JNZ     ??MT_AfIncomingMsg_5
//  721   {
//  722     *pTmp++ = pMsg->srcAddr.addrMode;
        MOV     DPL,?V0 + 4
        MOV     DPH,?V0 + 5
        LCALL   ?Subroutine16 & 0xFFFF
??CrossCallReturnLabel_16:
        MOV     ?V0 + 2,R0
        MOV     ?V0 + 3,R1
//  723 
//  724     if (pMsg->srcAddr.addrMode == afAddr64Bit)
        MOV     DPL,?V0 + 4
        MOV     DPH,?V0 + 5
        MOVX    A,@DPTR
        XRL     A,#0x3
        JNZ     ??MT_AfIncomingMsg_6
//  725     {
//  726       (void)osal_memcpy(pTmp, pMsg->srcAddr.addr.extAddr, Z_EXTADDR_LEN);
        ; Setup parameters for call to function osal_memcpy
        MOV     ?V0 + 4,R2
        MOV     ?V0 + 5,R3
        MOV     ?V0 + 6,#0x0
        MOV     R0,#?V0 + 4
        LCALL   ?PUSH_XSTACK_I_THREE
          CFI CFA_XSP16 add(XSP16, 30)
        MOV     R4,#0x8
        MOV     R5,#0x0
        MOV     R2,?V0 + 2
        MOV     R3,?V0 + 3
        LCALL   ??osal_memcpy?relay
        MOV     A,#0x3
        LCALL   ?DEALLOC_XSTACK8
          CFI CFA_XSP16 add(XSP16, 27)
        SJMP    ??MT_AfIncomingMsg_7
//  727     }
//  728     else
//  729     {
//  730       pTmp[0] = LO_UINT16(pMsg->srcAddr.addr.shortAddr);
??MT_AfIncomingMsg_6:
        MOV     DPL,R2
        MOV     DPH,R3
        MOVX    A,@DPTR
        MOV     DPL,R0
        MOV     DPH,R1
        LCALL   ?Subroutine52 & 0xFFFF
//  731       pTmp[1] = HI_UINT16(pMsg->srcAddr.addr.shortAddr);
//  732     }
??CrossCallReturnLabel_89:
        MOVX    A,@DPTR
        MOV     DPL,R0
        MOV     DPH,R1
        INC     DPTR
        MOVX    @DPTR,A
//  733     pTmp += Z_EXTADDR_LEN;
??MT_AfIncomingMsg_7:
        MOV     A,?V0 + 2
        ADD     A,#0x8
        MOV     ?V0 + 2,A
        MOV     A,?V0 + 3
        ADDC    A,#0x0
        MOV     ?V0 + 3,A
//  734 
//  735     *pTmp++ = pMsg->srcAddr.endPoint;
        MOV     DPL,?V0 + 12
        MOV     DPH,?V0 + 13
        LCALL   ?Subroutine6 & 0xFFFF
//  736 #if defined INTER_PAN
//  737     *pTmp++ = LO_UINT16(pMsg->srcAddr.panId);
//  738     *pTmp++ = HI_UINT16(pMsg->srcAddr.panId);
//  739 #else
//  740     *pTmp++ = 0;
//  741     *pTmp++ = 0;
//  742 #endif
//  743   }
??CrossCallReturnLabel_0:
        LCALL   ?Subroutine6 & 0xFFFF
??CrossCallReturnLabel_1:
        INC     DPTR
        SJMP    ??MT_AfIncomingMsg_8
//  744   else
//  745   {
//  746     /* Source Address */
//  747     *pTmp++ = LO_UINT16(pMsg->srcAddr.addr.shortAddr);
??MT_AfIncomingMsg_5:
        MOV     DPL,R2
        MOV     DPH,R3
        LCALL   ?Subroutine16 & 0xFFFF
//  748     *pTmp++ = HI_UINT16(pMsg->srcAddr.addr.shortAddr);
??CrossCallReturnLabel_17:
        MOV     DPL,R2
        MOV     DPH,R3
        INC     DPTR
        MOVX    A,@DPTR
        MOV     DPL,R0
        MOV     DPH,R1
        LCALL   ?Subroutine30 & 0xFFFF
//  749 
//  750     /* Source EP */
//  751     *pTmp++ = pMsg->srcAddr.endPoint;
??CrossCallReturnLabel_39:
        MOV     DPL,?V0 + 12
        MOV     DPH,?V0 + 13
//  752   }
??MT_AfIncomingMsg_8:
        LCALL   ??Subroutine62_0 & 0xFFFF
//  753 
//  754   /* Destination EP */
//  755   *pTmp++ = pMsg->endPoint;
??CrossCallReturnLabel_133:
        ADD     A,#0x14
        LCALL   ?Subroutine4 & 0xFFFF
//  756 
//  757   /* WasBroadCast */
//  758   *pTmp++ = pMsg->wasBroadcast;
??CrossCallReturnLabel_128:
        ADD     A,#0x15
        LCALL   ?Subroutine4 & 0xFFFF
//  759 
//  760   /* LinkQuality */
//  761   *pTmp++ = pMsg->LinkQuality;
??CrossCallReturnLabel_129:
        ADD     A,#0x16
        LCALL   ?Subroutine4 & 0xFFFF
//  762 
//  763   /* SecurityUse */
//  764   *pTmp++ = pMsg->SecurityUse;
??CrossCallReturnLabel_130:
        ADD     A,#0x19
        LCALL   ?Subroutine4 & 0xFFFF
//  765 
//  766   /* Timestamp */
//  767   *pTmp++ = BREAK_UINT32(pMsg->timestamp, 0);
??CrossCallReturnLabel_131:
        ADD     A,#0x1a
        MOV     ?V0 + 12,A
        MOV     A,?V0 + 9
        LCALL   ?Subroutine26 & 0xFFFF
??CrossCallReturnLabel_32:
        MOV     R0,#?V0 + 4
        LCALL   ?L_MOV_X
        LCALL   ?Subroutine28 & 0xFFFF
//  768   *pTmp++ = BREAK_UINT32(pMsg->timestamp, 1);
??CrossCallReturnLabel_123:
        LCALL   ?L_MOV_X
        MOV     A,?V0 + 5
        MOV     DPL,?V0 + 2
        MOV     DPH,?V0 + 3
        LCALL   ??Subroutine61_0 & 0xFFFF
//  769   *pTmp++ = BREAK_UINT32(pMsg->timestamp, 2);
??CrossCallReturnLabel_125:
        LCALL   ?L_MOV_X
        MOV     A,#0x10
        MOV     R0,#?V0 + 4
        LCALL   ?UL_SHR
        LCALL   ?Subroutine28 & 0xFFFF
//  770   *pTmp++ = BREAK_UINT32(pMsg->timestamp, 3);
??CrossCallReturnLabel_124:
        LCALL   ?L_MOV_X
        MOV     A,#0x18
        MOV     R0,#?V0 + 4
        LCALL   ?UL_SHR
        MOV     DPL,?V0 + 2
        MOV     DPH,?V0 + 3
        MOV     A,?V0 + 4
        LCALL   ?Subroutine30 & 0xFFFF
//  771 
//  772 
//  773   /* Data Length */
//  774   if (cmd == MT_AF_INCOMING_MSG_EXT)
??CrossCallReturnLabel_40:
        INC     DPTR
        MOV     R0,DPL
        MOV     R1,DPH
        MOV     DPL,?XSP + 0
        MOV     DPH,?XSP + 1
        MOVX    A,@DPTR
        XRL     A,#0x82
        JNZ     ??MT_AfIncomingMsg_9
//  775   {
//  776     /* Z-Tool apparently takes the last Byte before the data buffer as the dynamic length and
//  777      * ignores the bigger UInt16 length of an EXT incoming message. But no data bytes will be sent
//  778      * with a huge message, so it's necessary to work-around and fake-out Z-Tool with a zero here.
//  779      */
//  780     *pTmp++ = 0;  // TODO - workaround Z-Tool shortcoming; should be: = pMsg->cmd.TransSeqNumber;
        MOV     DPL,?V0 + 2
        MOV     DPH,?V0 + 3
        CLR     A
        MOVX    @DPTR,A
//  781     *pTmp++ = LO_UINT16(dataLen);
        MOV     A,R6
        MOV     DPL,R0
        MOV     DPH,R1
        MOVX    @DPTR,A
        INC     DPTR
//  782     *pTmp++ = HI_UINT16(dataLen);
        MOV     A,R7
        SJMP    ??MT_AfIncomingMsg_10
//  783   }
//  784   else
//  785   {
//  786     *pTmp++ = pMsg->cmd.TransSeqNumber;
??MT_AfIncomingMsg_9:
        MOV     A,?V0 + 8
        ADD     A,#0x1f
        MOV     DPL,A
        MOV     A,?V0 + 9
        LCALL   ??Subroutine56_0 & 0xFFFF
??CrossCallReturnLabel_97:
        LCALL   ?Subroutine16 & 0xFFFF
//  787     *pTmp++ = dataLen;
??CrossCallReturnLabel_18:
        MOV     A,R6
        MOV     DPL,R0
        MOV     DPH,R1
//  788   }
??MT_AfIncomingMsg_10:
        LCALL   ?Subroutine30 & 0xFFFF
//  789 
//  790   /* Data */
//  791   if (pItem != NULL)
??CrossCallReturnLabel_41:
        MOV     A,?V0 + 8
        ADD     A,#0x22
        MOV     ?V0 + 4,A
        MOV     A,?V0 + 9
        ADDC    A,#0x0
        MOV     ?V0 + 5,A
        MOV     A,?V0 + 10
        ORL     A,?V0 + 11
        JZ      ??MT_AfIncomingMsg_11
//  792   {
//  793     // Enqueue the new huge incoming item.
//  794     pItem->next = pMtAfInMsgList;
        LCALL   ?Subroutine43 & 0xFFFF
??CrossCallReturnLabel_142:
        MOV     DPL,?V0 + 10
        MOV     DPH,?V0 + 11
        LCALL   ?Subroutine32 & 0xFFFF
//  795     pMtAfInMsgList = pItem;
??CrossCallReturnLabel_51:
        MOV     DPTR,#pMtAfInMsgList
        MOV     A,?V0 + 10
        MOVX    @DPTR,A
        INC     DPTR
        MOV     A,?V0 + 11
        MOVX    @DPTR,A
//  796 
//  797     // Setup to time-out the huge incoming item if host does not MT_AF_DATA_RETRIEVE it.
//  798     pItem->tick = MT_AF_EXEC_CNT;
        MOV     DPL,?V0 + 10
        MOV     DPH,A
        INC     DPTR
        INC     DPTR
        INC     DPTR
        INC     DPTR
        INC     DPTR
        INC     DPTR
        INC     DPTR
        INC     DPTR
        MOV     A,#0xf
        MOVX    @DPTR,A
//  799     if (ZSuccess != osal_start_timerEx(MT_TaskID, MT_AF_EXEC_EVT, MT_AF_EXEC_DLY))
        ; Setup parameters for call to function osal_start_timerEx
        MOV     DPTR,#__Constant_3e8
        LCALL   ?PUSH_XSTACK8_X_FOUR
          CFI CFA_XSP16 add(XSP16, 31)
        MOV     R2,#0x8
        MOV     R3,#0x0
        MOV     DPTR,#MT_TaskID
        MOVX    A,@DPTR
        MOV     R1,A
        LCALL   ??osal_start_timerEx?relay
        MOV     A,#0x4
        LCALL   ?DEALLOC_XSTACK8
          CFI CFA_XSP16 add(XSP16, 27)
        MOV     A,R1
        JZ      ??MT_AfIncomingMsg_12
//  800     {
//  801       (void)osal_set_event(MT_TaskID, MT_AF_EXEC_EVT);
        ; Setup parameters for call to function osal_set_event
        MOV     R2,#0x8
        MOV     R3,#0x0
        MOV     DPTR,#MT_TaskID
        MOVX    A,@DPTR
        MOV     R1,A
        LCALL   ??osal_set_event?relay
//  802     }
//  803 
//  804     pItem->timestamp = pMsg->timestamp;
??MT_AfIncomingMsg_12:
        MOV     DPL,?V0 + 12
        MOV     DPH,?V0 + 13
        LCALL   ?XLOAD_R2345
        MOV     DPL,?V0 + 10
        MOV     DPH,?V0 + 11
        INC     DPTR
        INC     DPTR
        INC     DPTR
        INC     DPTR
        LCALL   ?XSTORE_R2345
//  805     (void)osal_memcpy(pItem->data, pMsg->cmd.Data, dataLen);
        ; Setup parameters for call to function osal_memcpy
        LCALL   ?Subroutine19 & 0xFFFF
//  806   }
??CrossCallReturnLabel_21:
        LCALL   ?PUSH_XSTACK_I_THREE
          CFI CFA_XSP16 add(XSP16, 30)
        MOV     A,R6
        MOV     R4,A
        MOV     A,R7
        MOV     R5,A
        MOV     DPL,?V0 + 10
        MOV     DPH,?V0 + 11
        INC     DPTR
        INC     DPTR
        LCALL   ??Subroutine64_0 & 0xFFFF
??CrossCallReturnLabel_146:
        SJMP    ??MT_AfIncomingMsg_13
          CFI CFA_XSP16 add(XSP16, 27)
//  807   else
//  808   {
//  809     (void)osal_memcpy(pTmp, pMsg->cmd.Data, dataLen);
??MT_AfIncomingMsg_11:
        ; Setup parameters for call to function osal_memcpy
        LCALL   ?Subroutine19 & 0xFFFF
//  810   }
??CrossCallReturnLabel_22:
        LCALL   ?PUSH_XSTACK_I_THREE
          CFI CFA_XSP16 add(XSP16, 30)
        MOV     A,R6
        MOV     R4,A
        MOV     A,R7
        MOV     R5,A
        MOV     R2,?V0 + 2
        MOV     R3,?V0 + 3
??MT_AfIncomingMsg_13:
        LCALL   ??osal_memcpy?relay
        MOV     A,#0x3
        LCALL   ?DEALLOC_XSTACK8
          CFI CFA_XSP16 add(XSP16, 27)
//  811 
//  812   /* Build and send back the response */
//  813   MT_BuildAndSendZToolResponse(((uint8)MT_RPC_CMD_AREQ|(uint8)MT_RPC_SYS_AF), cmd, respLen, pRsp);
        ; Setup parameters for call to function MT_BuildAndSendZToolResponse
        MOV     A,#0x1
        LCALL   ?XSTACK_DISP0_8
        MOVX    A,@DPTR
        MOV     R4,A
        INC     DPTR
        MOVX    A,@DPTR
        MOV     R5,A
        MOV     R3,?V0 + 0
        MOV     DPL,?XSP + 0
        MOV     DPH,?XSP + 1
        MOVX    A,@DPTR
        MOV     R2,A
        MOV     R1,#0x44
        LCALL   ??MT_BuildAndSendZToolResponse?relay
//  814 
//  815   (void)osal_mem_free(pRsp);
        ; Setup parameters for call to function osal_mem_free
        MOV     A,#0x1
        LCALL   ?XSTACK_DISP0_8
        LCALL   ??Subroutine64_0 & 0xFFFF
??CrossCallReturnLabel_147:
        LCALL   ??osal_mem_free?relay
//  816 }
??MT_AfIncomingMsg_3:
        MOV     A,#0x3
        LCALL   ?DEALLOC_XSTACK8
          CFI CFA_XSP16 add(XSP16, 24)
        MOV     R7,#0x10
        LJMP    ?BANKED_LEAVE_XDATA
          CFI EndBlock cfiBlock175

        RSEG BANKED_CODE:CODE:NOROOT(0)
?Subroutine40:
          CFI Block cfiCond176 Using cfiCommon0
          CFI Function MT_AfInterPanCtl
          CFI Conditional ??CrossCallReturnLabel_66
          CFI R6 load(1, XDATA, add(CFA_XSP16, literal(-10)))
          CFI VB load(1, XDATA, add(CFA_XSP16, literal(-9)))
          CFI V0 load(1, XDATA, add(CFA_XSP16, literal(-8)))
          CFI V1 load(1, XDATA, add(CFA_XSP16, literal(-7)))
          CFI R7 load(1, XDATA, add(CFA_XSP16, literal(-6)))
          CFI ?RET_LOW load(1, XDATA, add(CFA_XSP16, literal(-5)))
          CFI ?RET_HIGH load(1, XDATA, add(CFA_XSP16, literal(-4)))
          CFI ?BRET_EXT load(1, XDATA, add(CFA_XSP16, literal(-3)))
          CFI DPL0 load(1, XDATA, add(CFA_XSP16, literal(-2)))
          CFI DPH0 load(1, XDATA, add(CFA_XSP16, literal(-1)))
          CFI CFA_SP SP+0
          CFI CFA_XSP16 add(XSP16, 12)
          CFI Block cfiCond177 Using cfiCommon0
          CFI (cfiCond177) Function MT_AfIncomingMsg
          CFI (cfiCond177) Conditional ??CrossCallReturnLabel_67
          CFI (cfiCond177) R6 load(1, XDATA, add(CFA_XSP16, literal(-24)))
          CFI (cfiCond177) VB load(1, XDATA, add(CFA_XSP16, literal(-23)))
          CFI (cfiCond177) V0 load(1, XDATA, add(CFA_XSP16, literal(-22)))
          CFI (cfiCond177) V1 load(1, XDATA, add(CFA_XSP16, literal(-21)))
          CFI (cfiCond177) V2 load(1, XDATA, add(CFA_XSP16, literal(-20)))
          CFI (cfiCond177) V3 load(1, XDATA, add(CFA_XSP16, literal(-19)))
          CFI (cfiCond177) V4 load(1, XDATA, add(CFA_XSP16, literal(-18)))
          CFI (cfiCond177) V5 load(1, XDATA, add(CFA_XSP16, literal(-17)))
          CFI (cfiCond177) V6 load(1, XDATA, add(CFA_XSP16, literal(-16)))
          CFI (cfiCond177) V7 load(1, XDATA, add(CFA_XSP16, literal(-15)))
          CFI (cfiCond177) V8 load(1, XDATA, add(CFA_XSP16, literal(-14)))
          CFI (cfiCond177) V9 load(1, XDATA, add(CFA_XSP16, literal(-13)))
          CFI (cfiCond177) V10 load(1, XDATA, add(CFA_XSP16, literal(-12)))
          CFI (cfiCond177) V11 load(1, XDATA, add(CFA_XSP16, literal(-11)))
          CFI (cfiCond177) V12 load(1, XDATA, add(CFA_XSP16, literal(-10)))
          CFI (cfiCond177) V13 load(1, XDATA, add(CFA_XSP16, literal(-9)))
          CFI (cfiCond177) V14 load(1, XDATA, add(CFA_XSP16, literal(-8)))
          CFI (cfiCond177) V15 load(1, XDATA, add(CFA_XSP16, literal(-7)))
          CFI (cfiCond177) R7 load(1, XDATA, add(CFA_XSP16, literal(-6)))
          CFI (cfiCond177) ?RET_LOW load(1, XDATA, add(CFA_XSP16, literal(-5)))
          CFI (cfiCond177) ?RET_HIGH load(1, XDATA, add(CFA_XSP16, literal(-4)))
          CFI (cfiCond177) ?BRET_EXT load(1, XDATA, add(CFA_XSP16, literal(-3)))
          CFI (cfiCond177) DPL0 load(1, XDATA, add(CFA_XSP16, literal(-2)))
          CFI (cfiCond177) DPH0 load(1, XDATA, add(CFA_XSP16, literal(-1)))
          CFI (cfiCond177) CFA_SP SP+0
          CFI (cfiCond177) CFA_XSP16 add(XSP16, 27)
          CFI Block cfiCond178 Using cfiCommon0
          CFI (cfiCond178) Function MT_AfReflectError
          CFI (cfiCond178) Conditional ??CrossCallReturnLabel_68, ??CrossCallReturnLabel_33
          CFI (cfiCond178) DPL0 Frame(CFA_SP, 4)
          CFI (cfiCond178) DPH0 Frame(CFA_SP, 5)
          CFI (cfiCond178) CFA_SP SP+-5
          CFI (cfiCond178) CFA_XSP16 add(XSP16, 6)
          CFI Block cfiCond179 Using cfiCommon0
          CFI (cfiCond179) Function MT_AfIncomingMsg
          CFI (cfiCond179) Conditional ??CrossCallReturnLabel_68, ??CrossCallReturnLabel_34
          CFI (cfiCond179) R6 load(1, XDATA, add(CFA_XSP16, literal(-24)))
          CFI (cfiCond179) VB load(1, XDATA, add(CFA_XSP16, literal(-23)))
          CFI (cfiCond179) V0 load(1, XDATA, add(CFA_XSP16, literal(-22)))
          CFI (cfiCond179) V1 load(1, XDATA, add(CFA_XSP16, literal(-21)))
          CFI (cfiCond179) V2 load(1, XDATA, add(CFA_XSP16, literal(-20)))
          CFI (cfiCond179) V3 load(1, XDATA, add(CFA_XSP16, literal(-19)))
          CFI (cfiCond179) V4 load(1, XDATA, add(CFA_XSP16, literal(-18)))
          CFI (cfiCond179) V5 load(1, XDATA, add(CFA_XSP16, literal(-17)))
          CFI (cfiCond179) V6 load(1, XDATA, add(CFA_XSP16, literal(-16)))
          CFI (cfiCond179) V7 load(1, XDATA, add(CFA_XSP16, literal(-15)))
          CFI (cfiCond179) V8 load(1, XDATA, add(CFA_XSP16, literal(-14)))
          CFI (cfiCond179) V9 load(1, XDATA, add(CFA_XSP16, literal(-13)))
          CFI (cfiCond179) V10 load(1, XDATA, add(CFA_XSP16, literal(-12)))
          CFI (cfiCond179) V11 load(1, XDATA, add(CFA_XSP16, literal(-11)))
          CFI (cfiCond179) V12 load(1, XDATA, add(CFA_XSP16, literal(-10)))
          CFI (cfiCond179) V13 load(1, XDATA, add(CFA_XSP16, literal(-9)))
          CFI (cfiCond179) V14 load(1, XDATA, add(CFA_XSP16, literal(-8)))
          CFI (cfiCond179) V15 load(1, XDATA, add(CFA_XSP16, literal(-7)))
          CFI (cfiCond179) R7 load(1, XDATA, add(CFA_XSP16, literal(-6)))
          CFI (cfiCond179) ?RET_LOW load(1, XDATA, add(CFA_XSP16, literal(-5)))
          CFI (cfiCond179) ?RET_HIGH load(1, XDATA, add(CFA_XSP16, literal(-4)))
          CFI (cfiCond179) ?BRET_EXT load(1, XDATA, add(CFA_XSP16, literal(-3)))
          CFI (cfiCond179) DPL0 load(1, XDATA, add(CFA_XSP16, literal(-2)))
          CFI (cfiCond179) DPH0 load(1, XDATA, add(CFA_XSP16, literal(-1)))
          CFI (cfiCond179) CFA_SP SP+0
          CFI (cfiCond179) CFA_XSP16 add(XSP16, 27)
          CFI Block cfiPicker180 Using cfiCommon1
          CFI (cfiPicker180) NoFunction
          CFI (cfiPicker180) Picker
        ADDC    A,#0x0
        MOV     R1,A
        MOV     DPL,R0
        MOV     DPH,R1
        RET
          CFI EndBlock cfiCond176
          CFI EndBlock cfiCond177
          CFI EndBlock cfiCond178
          CFI EndBlock cfiCond179
          CFI EndBlock cfiPicker180

        RSEG BANKED_CODE:CODE:NOROOT(0)
?Subroutine30:
          CFI Block cfiCond181 Using cfiCommon0
          CFI Function MT_AfIncomingMsg
          CFI Conditional ??CrossCallReturnLabel_38
          CFI R6 load(1, XDATA, add(CFA_XSP16, literal(-24)))
          CFI VB load(1, XDATA, add(CFA_XSP16, literal(-23)))
          CFI V0 load(1, XDATA, add(CFA_XSP16, literal(-22)))
          CFI V1 load(1, XDATA, add(CFA_XSP16, literal(-21)))
          CFI V2 load(1, XDATA, add(CFA_XSP16, literal(-20)))
          CFI V3 load(1, XDATA, add(CFA_XSP16, literal(-19)))
          CFI V4 load(1, XDATA, add(CFA_XSP16, literal(-18)))
          CFI V5 load(1, XDATA, add(CFA_XSP16, literal(-17)))
          CFI V6 load(1, XDATA, add(CFA_XSP16, literal(-16)))
          CFI V7 load(1, XDATA, add(CFA_XSP16, literal(-15)))
          CFI V8 load(1, XDATA, add(CFA_XSP16, literal(-14)))
          CFI V9 load(1, XDATA, add(CFA_XSP16, literal(-13)))
          CFI V10 load(1, XDATA, add(CFA_XSP16, literal(-12)))
          CFI V11 load(1, XDATA, add(CFA_XSP16, literal(-11)))
          CFI V12 load(1, XDATA, add(CFA_XSP16, literal(-10)))
          CFI V13 load(1, XDATA, add(CFA_XSP16, literal(-9)))
          CFI V14 load(1, XDATA, add(CFA_XSP16, literal(-8)))
          CFI V15 load(1, XDATA, add(CFA_XSP16, literal(-7)))
          CFI R7 load(1, XDATA, add(CFA_XSP16, literal(-6)))
          CFI ?RET_LOW load(1, XDATA, add(CFA_XSP16, literal(-5)))
          CFI ?RET_HIGH load(1, XDATA, add(CFA_XSP16, literal(-4)))
          CFI ?BRET_EXT load(1, XDATA, add(CFA_XSP16, literal(-3)))
          CFI DPL0 load(1, XDATA, add(CFA_XSP16, literal(-2)))
          CFI DPH0 load(1, XDATA, add(CFA_XSP16, literal(-1)))
          CFI CFA_SP SP+0
          CFI CFA_XSP16 add(XSP16, 27)
          CFI Block cfiCond182 Using cfiCommon0
          CFI (cfiCond182) Function MT_AfIncomingMsg
          CFI (cfiCond182) Conditional ??CrossCallReturnLabel_39
          CFI (cfiCond182) R6 load(1, XDATA, add(CFA_XSP16, literal(-24)))
          CFI (cfiCond182) VB load(1, XDATA, add(CFA_XSP16, literal(-23)))
          CFI (cfiCond182) V0 load(1, XDATA, add(CFA_XSP16, literal(-22)))
          CFI (cfiCond182) V1 load(1, XDATA, add(CFA_XSP16, literal(-21)))
          CFI (cfiCond182) V2 load(1, XDATA, add(CFA_XSP16, literal(-20)))
          CFI (cfiCond182) V3 load(1, XDATA, add(CFA_XSP16, literal(-19)))
          CFI (cfiCond182) V4 load(1, XDATA, add(CFA_XSP16, literal(-18)))
          CFI (cfiCond182) V5 load(1, XDATA, add(CFA_XSP16, literal(-17)))
          CFI (cfiCond182) V6 load(1, XDATA, add(CFA_XSP16, literal(-16)))
          CFI (cfiCond182) V7 load(1, XDATA, add(CFA_XSP16, literal(-15)))
          CFI (cfiCond182) V8 load(1, XDATA, add(CFA_XSP16, literal(-14)))
          CFI (cfiCond182) V9 load(1, XDATA, add(CFA_XSP16, literal(-13)))
          CFI (cfiCond182) V10 load(1, XDATA, add(CFA_XSP16, literal(-12)))
          CFI (cfiCond182) V11 load(1, XDATA, add(CFA_XSP16, literal(-11)))
          CFI (cfiCond182) V12 load(1, XDATA, add(CFA_XSP16, literal(-10)))
          CFI (cfiCond182) V13 load(1, XDATA, add(CFA_XSP16, literal(-9)))
          CFI (cfiCond182) V14 load(1, XDATA, add(CFA_XSP16, literal(-8)))
          CFI (cfiCond182) V15 load(1, XDATA, add(CFA_XSP16, literal(-7)))
          CFI (cfiCond182) R7 load(1, XDATA, add(CFA_XSP16, literal(-6)))
          CFI (cfiCond182) ?RET_LOW load(1, XDATA, add(CFA_XSP16, literal(-5)))
          CFI (cfiCond182) ?RET_HIGH load(1, XDATA, add(CFA_XSP16, literal(-4)))
          CFI (cfiCond182) ?BRET_EXT load(1, XDATA, add(CFA_XSP16, literal(-3)))
          CFI (cfiCond182) DPL0 load(1, XDATA, add(CFA_XSP16, literal(-2)))
          CFI (cfiCond182) DPH0 load(1, XDATA, add(CFA_XSP16, literal(-1)))
          CFI (cfiCond182) CFA_SP SP+0
          CFI (cfiCond182) CFA_XSP16 add(XSP16, 27)
          CFI Block cfiCond183 Using cfiCommon0
          CFI (cfiCond183) Function MT_AfIncomingMsg
          CFI (cfiCond183) Conditional ??CrossCallReturnLabel_40
          CFI (cfiCond183) R6 load(1, XDATA, add(CFA_XSP16, literal(-24)))
          CFI (cfiCond183) VB load(1, XDATA, add(CFA_XSP16, literal(-23)))
          CFI (cfiCond183) V0 load(1, XDATA, add(CFA_XSP16, literal(-22)))
          CFI (cfiCond183) V1 load(1, XDATA, add(CFA_XSP16, literal(-21)))
          CFI (cfiCond183) V2 load(1, XDATA, add(CFA_XSP16, literal(-20)))
          CFI (cfiCond183) V3 load(1, XDATA, add(CFA_XSP16, literal(-19)))
          CFI (cfiCond183) V4 load(1, XDATA, add(CFA_XSP16, literal(-18)))
          CFI (cfiCond183) V5 load(1, XDATA, add(CFA_XSP16, literal(-17)))
          CFI (cfiCond183) V6 load(1, XDATA, add(CFA_XSP16, literal(-16)))
          CFI (cfiCond183) V7 load(1, XDATA, add(CFA_XSP16, literal(-15)))
          CFI (cfiCond183) V8 load(1, XDATA, add(CFA_XSP16, literal(-14)))
          CFI (cfiCond183) V9 load(1, XDATA, add(CFA_XSP16, literal(-13)))
          CFI (cfiCond183) V10 load(1, XDATA, add(CFA_XSP16, literal(-12)))
          CFI (cfiCond183) V11 load(1, XDATA, add(CFA_XSP16, literal(-11)))
          CFI (cfiCond183) V12 load(1, XDATA, add(CFA_XSP16, literal(-10)))
          CFI (cfiCond183) V13 load(1, XDATA, add(CFA_XSP16, literal(-9)))
          CFI (cfiCond183) V14 load(1, XDATA, add(CFA_XSP16, literal(-8)))
          CFI (cfiCond183) V15 load(1, XDATA, add(CFA_XSP16, literal(-7)))
          CFI (cfiCond183) R7 load(1, XDATA, add(CFA_XSP16, literal(-6)))
          CFI (cfiCond183) ?RET_LOW load(1, XDATA, add(CFA_XSP16, literal(-5)))
          CFI (cfiCond183) ?RET_HIGH load(1, XDATA, add(CFA_XSP16, literal(-4)))
          CFI (cfiCond183) ?BRET_EXT load(1, XDATA, add(CFA_XSP16, literal(-3)))
          CFI (cfiCond183) DPL0 load(1, XDATA, add(CFA_XSP16, literal(-2)))
          CFI (cfiCond183) DPH0 load(1, XDATA, add(CFA_XSP16, literal(-1)))
          CFI (cfiCond183) CFA_SP SP+0
          CFI (cfiCond183) CFA_XSP16 add(XSP16, 27)
          CFI Block cfiCond184 Using cfiCommon0
          CFI (cfiCond184) Function MT_AfIncomingMsg
          CFI (cfiCond184) Conditional ??CrossCallReturnLabel_41
          CFI (cfiCond184) R6 load(1, XDATA, add(CFA_XSP16, literal(-24)))
          CFI (cfiCond184) VB load(1, XDATA, add(CFA_XSP16, literal(-23)))
          CFI (cfiCond184) V0 load(1, XDATA, add(CFA_XSP16, literal(-22)))
          CFI (cfiCond184) V1 load(1, XDATA, add(CFA_XSP16, literal(-21)))
          CFI (cfiCond184) V2 load(1, XDATA, add(CFA_XSP16, literal(-20)))
          CFI (cfiCond184) V3 load(1, XDATA, add(CFA_XSP16, literal(-19)))
          CFI (cfiCond184) V4 load(1, XDATA, add(CFA_XSP16, literal(-18)))
          CFI (cfiCond184) V5 load(1, XDATA, add(CFA_XSP16, literal(-17)))
          CFI (cfiCond184) V6 load(1, XDATA, add(CFA_XSP16, literal(-16)))
          CFI (cfiCond184) V7 load(1, XDATA, add(CFA_XSP16, literal(-15)))
          CFI (cfiCond184) V8 load(1, XDATA, add(CFA_XSP16, literal(-14)))
          CFI (cfiCond184) V9 load(1, XDATA, add(CFA_XSP16, literal(-13)))
          CFI (cfiCond184) V10 load(1, XDATA, add(CFA_XSP16, literal(-12)))
          CFI (cfiCond184) V11 load(1, XDATA, add(CFA_XSP16, literal(-11)))
          CFI (cfiCond184) V12 load(1, XDATA, add(CFA_XSP16, literal(-10)))
          CFI (cfiCond184) V13 load(1, XDATA, add(CFA_XSP16, literal(-9)))
          CFI (cfiCond184) V14 load(1, XDATA, add(CFA_XSP16, literal(-8)))
          CFI (cfiCond184) V15 load(1, XDATA, add(CFA_XSP16, literal(-7)))
          CFI (cfiCond184) R7 load(1, XDATA, add(CFA_XSP16, literal(-6)))
          CFI (cfiCond184) ?RET_LOW load(1, XDATA, add(CFA_XSP16, literal(-5)))
          CFI (cfiCond184) ?RET_HIGH load(1, XDATA, add(CFA_XSP16, literal(-4)))
          CFI (cfiCond184) ?BRET_EXT load(1, XDATA, add(CFA_XSP16, literal(-3)))
          CFI (cfiCond184) DPL0 load(1, XDATA, add(CFA_XSP16, literal(-2)))
          CFI (cfiCond184) DPH0 load(1, XDATA, add(CFA_XSP16, literal(-1)))
          CFI (cfiCond184) CFA_SP SP+0
          CFI (cfiCond184) CFA_XSP16 add(XSP16, 27)
          CFI Block cfiPicker185 Using cfiCommon1
          CFI (cfiPicker185) NoFunction
          CFI (cfiPicker185) Picker
        LCALL   ?Subroutine47 & 0xFFFF
??CrossCallReturnLabel_126:
        RET
          CFI EndBlock cfiCond181
          CFI EndBlock cfiCond182
          CFI EndBlock cfiCond183
          CFI EndBlock cfiCond184
          CFI EndBlock cfiPicker185

        RSEG BANKED_CODE:CODE:NOROOT(0)
?Subroutine47:
          CFI Block cfiCond186 Using cfiCommon0
          CFI Function MT_AfIncomingMsg
          CFI Conditional ??CrossCallReturnLabel_126, ??CrossCallReturnLabel_38
          CFI R6 load(1, XDATA, add(CFA_XSP16, literal(-24)))
          CFI VB load(1, XDATA, add(CFA_XSP16, literal(-23)))
          CFI V0 load(1, XDATA, add(CFA_XSP16, literal(-22)))
          CFI V1 load(1, XDATA, add(CFA_XSP16, literal(-21)))
          CFI V2 load(1, XDATA, add(CFA_XSP16, literal(-20)))
          CFI V3 load(1, XDATA, add(CFA_XSP16, literal(-19)))
          CFI V4 load(1, XDATA, add(CFA_XSP16, literal(-18)))
          CFI V5 load(1, XDATA, add(CFA_XSP16, literal(-17)))
          CFI V6 load(1, XDATA, add(CFA_XSP16, literal(-16)))
          CFI V7 load(1, XDATA, add(CFA_XSP16, literal(-15)))
          CFI V8 load(1, XDATA, add(CFA_XSP16, literal(-14)))
          CFI V9 load(1, XDATA, add(CFA_XSP16, literal(-13)))
          CFI V10 load(1, XDATA, add(CFA_XSP16, literal(-12)))
          CFI V11 load(1, XDATA, add(CFA_XSP16, literal(-11)))
          CFI V12 load(1, XDATA, add(CFA_XSP16, literal(-10)))
          CFI V13 load(1, XDATA, add(CFA_XSP16, literal(-9)))
          CFI V14 load(1, XDATA, add(CFA_XSP16, literal(-8)))
          CFI V15 load(1, XDATA, add(CFA_XSP16, literal(-7)))
          CFI R7 load(1, XDATA, add(CFA_XSP16, literal(-6)))
          CFI ?RET_LOW load(1, XDATA, add(CFA_XSP16, literal(-5)))
          CFI ?RET_HIGH load(1, XDATA, add(CFA_XSP16, literal(-4)))
          CFI ?BRET_EXT load(1, XDATA, add(CFA_XSP16, literal(-3)))
          CFI DPL0 load(1, XDATA, add(CFA_XSP16, literal(-2)))
          CFI DPH0 load(1, XDATA, add(CFA_XSP16, literal(-1)))
          CFI CFA_SP SP+0
          CFI CFA_XSP16 add(XSP16, 27)
          CFI Block cfiCond187 Using cfiCommon0
          CFI (cfiCond187) Function MT_AfIncomingMsg
          CFI (cfiCond187) Conditional ??CrossCallReturnLabel_126, ??CrossCallReturnLabel_39
          CFI (cfiCond187) R6 load(1, XDATA, add(CFA_XSP16, literal(-24)))
          CFI (cfiCond187) VB load(1, XDATA, add(CFA_XSP16, literal(-23)))
          CFI (cfiCond187) V0 load(1, XDATA, add(CFA_XSP16, literal(-22)))
          CFI (cfiCond187) V1 load(1, XDATA, add(CFA_XSP16, literal(-21)))
          CFI (cfiCond187) V2 load(1, XDATA, add(CFA_XSP16, literal(-20)))
          CFI (cfiCond187) V3 load(1, XDATA, add(CFA_XSP16, literal(-19)))
          CFI (cfiCond187) V4 load(1, XDATA, add(CFA_XSP16, literal(-18)))
          CFI (cfiCond187) V5 load(1, XDATA, add(CFA_XSP16, literal(-17)))
          CFI (cfiCond187) V6 load(1, XDATA, add(CFA_XSP16, literal(-16)))
          CFI (cfiCond187) V7 load(1, XDATA, add(CFA_XSP16, literal(-15)))
          CFI (cfiCond187) V8 load(1, XDATA, add(CFA_XSP16, literal(-14)))
          CFI (cfiCond187) V9 load(1, XDATA, add(CFA_XSP16, literal(-13)))
          CFI (cfiCond187) V10 load(1, XDATA, add(CFA_XSP16, literal(-12)))
          CFI (cfiCond187) V11 load(1, XDATA, add(CFA_XSP16, literal(-11)))
          CFI (cfiCond187) V12 load(1, XDATA, add(CFA_XSP16, literal(-10)))
          CFI (cfiCond187) V13 load(1, XDATA, add(CFA_XSP16, literal(-9)))
          CFI (cfiCond187) V14 load(1, XDATA, add(CFA_XSP16, literal(-8)))
          CFI (cfiCond187) V15 load(1, XDATA, add(CFA_XSP16, literal(-7)))
          CFI (cfiCond187) R7 load(1, XDATA, add(CFA_XSP16, literal(-6)))
          CFI (cfiCond187) ?RET_LOW load(1, XDATA, add(CFA_XSP16, literal(-5)))
          CFI (cfiCond187) ?RET_HIGH load(1, XDATA, add(CFA_XSP16, literal(-4)))
          CFI (cfiCond187) ?BRET_EXT load(1, XDATA, add(CFA_XSP16, literal(-3)))
          CFI (cfiCond187) DPL0 load(1, XDATA, add(CFA_XSP16, literal(-2)))
          CFI (cfiCond187) DPH0 load(1, XDATA, add(CFA_XSP16, literal(-1)))
          CFI (cfiCond187) CFA_SP SP+0
          CFI (cfiCond187) CFA_XSP16 add(XSP16, 27)
          CFI Block cfiCond188 Using cfiCommon0
          CFI (cfiCond188) Function MT_AfIncomingMsg
          CFI (cfiCond188) Conditional ??CrossCallReturnLabel_126, ??CrossCallReturnLabel_40
          CFI (cfiCond188) R6 load(1, XDATA, add(CFA_XSP16, literal(-24)))
          CFI (cfiCond188) VB load(1, XDATA, add(CFA_XSP16, literal(-23)))
          CFI (cfiCond188) V0 load(1, XDATA, add(CFA_XSP16, literal(-22)))
          CFI (cfiCond188) V1 load(1, XDATA, add(CFA_XSP16, literal(-21)))
          CFI (cfiCond188) V2 load(1, XDATA, add(CFA_XSP16, literal(-20)))
          CFI (cfiCond188) V3 load(1, XDATA, add(CFA_XSP16, literal(-19)))
          CFI (cfiCond188) V4 load(1, XDATA, add(CFA_XSP16, literal(-18)))
          CFI (cfiCond188) V5 load(1, XDATA, add(CFA_XSP16, literal(-17)))
          CFI (cfiCond188) V6 load(1, XDATA, add(CFA_XSP16, literal(-16)))
          CFI (cfiCond188) V7 load(1, XDATA, add(CFA_XSP16, literal(-15)))
          CFI (cfiCond188) V8 load(1, XDATA, add(CFA_XSP16, literal(-14)))
          CFI (cfiCond188) V9 load(1, XDATA, add(CFA_XSP16, literal(-13)))
          CFI (cfiCond188) V10 load(1, XDATA, add(CFA_XSP16, literal(-12)))
          CFI (cfiCond188) V11 load(1, XDATA, add(CFA_XSP16, literal(-11)))
          CFI (cfiCond188) V12 load(1, XDATA, add(CFA_XSP16, literal(-10)))
          CFI (cfiCond188) V13 load(1, XDATA, add(CFA_XSP16, literal(-9)))
          CFI (cfiCond188) V14 load(1, XDATA, add(CFA_XSP16, literal(-8)))
          CFI (cfiCond188) V15 load(1, XDATA, add(CFA_XSP16, literal(-7)))
          CFI (cfiCond188) R7 load(1, XDATA, add(CFA_XSP16, literal(-6)))
          CFI (cfiCond188) ?RET_LOW load(1, XDATA, add(CFA_XSP16, literal(-5)))
          CFI (cfiCond188) ?RET_HIGH load(1, XDATA, add(CFA_XSP16, literal(-4)))
          CFI (cfiCond188) ?BRET_EXT load(1, XDATA, add(CFA_XSP16, literal(-3)))
          CFI (cfiCond188) DPL0 load(1, XDATA, add(CFA_XSP16, literal(-2)))
          CFI (cfiCond188) DPH0 load(1, XDATA, add(CFA_XSP16, literal(-1)))
          CFI (cfiCond188) CFA_SP SP+0
          CFI (cfiCond188) CFA_XSP16 add(XSP16, 27)
          CFI Block cfiCond189 Using cfiCommon0
          CFI (cfiCond189) Function MT_AfIncomingMsg
          CFI (cfiCond189) Conditional ??CrossCallReturnLabel_126, ??CrossCallReturnLabel_41
          CFI (cfiCond189) R6 load(1, XDATA, add(CFA_XSP16, literal(-24)))
          CFI (cfiCond189) VB load(1, XDATA, add(CFA_XSP16, literal(-23)))
          CFI (cfiCond189) V0 load(1, XDATA, add(CFA_XSP16, literal(-22)))
          CFI (cfiCond189) V1 load(1, XDATA, add(CFA_XSP16, literal(-21)))
          CFI (cfiCond189) V2 load(1, XDATA, add(CFA_XSP16, literal(-20)))
          CFI (cfiCond189) V3 load(1, XDATA, add(CFA_XSP16, literal(-19)))
          CFI (cfiCond189) V4 load(1, XDATA, add(CFA_XSP16, literal(-18)))
          CFI (cfiCond189) V5 load(1, XDATA, add(CFA_XSP16, literal(-17)))
          CFI (cfiCond189) V6 load(1, XDATA, add(CFA_XSP16, literal(-16)))
          CFI (cfiCond189) V7 load(1, XDATA, add(CFA_XSP16, literal(-15)))
          CFI (cfiCond189) V8 load(1, XDATA, add(CFA_XSP16, literal(-14)))
          CFI (cfiCond189) V9 load(1, XDATA, add(CFA_XSP16, literal(-13)))
          CFI (cfiCond189) V10 load(1, XDATA, add(CFA_XSP16, literal(-12)))
          CFI (cfiCond189) V11 load(1, XDATA, add(CFA_XSP16, literal(-11)))
          CFI (cfiCond189) V12 load(1, XDATA, add(CFA_XSP16, literal(-10)))
          CFI (cfiCond189) V13 load(1, XDATA, add(CFA_XSP16, literal(-9)))
          CFI (cfiCond189) V14 load(1, XDATA, add(CFA_XSP16, literal(-8)))
          CFI (cfiCond189) V15 load(1, XDATA, add(CFA_XSP16, literal(-7)))
          CFI (cfiCond189) R7 load(1, XDATA, add(CFA_XSP16, literal(-6)))
          CFI (cfiCond189) ?RET_LOW load(1, XDATA, add(CFA_XSP16, literal(-5)))
          CFI (cfiCond189) ?RET_HIGH load(1, XDATA, add(CFA_XSP16, literal(-4)))
          CFI (cfiCond189) ?BRET_EXT load(1, XDATA, add(CFA_XSP16, literal(-3)))
          CFI (cfiCond189) DPL0 load(1, XDATA, add(CFA_XSP16, literal(-2)))
          CFI (cfiCond189) DPH0 load(1, XDATA, add(CFA_XSP16, literal(-1)))
          CFI (cfiCond189) CFA_SP SP+0
          CFI (cfiCond189) CFA_XSP16 add(XSP16, 27)
          CFI Block cfiCond190 Using cfiCommon0
          CFI (cfiCond190) Function MT_AfIncomingMsg
          CFI (cfiCond190) Conditional ??CrossCallReturnLabel_127, ??CrossCallReturnLabel_123
          CFI (cfiCond190) R6 load(1, XDATA, add(CFA_XSP16, literal(-24)))
          CFI (cfiCond190) VB load(1, XDATA, add(CFA_XSP16, literal(-23)))
          CFI (cfiCond190) V0 load(1, XDATA, add(CFA_XSP16, literal(-22)))
          CFI (cfiCond190) V1 load(1, XDATA, add(CFA_XSP16, literal(-21)))
          CFI (cfiCond190) V2 load(1, XDATA, add(CFA_XSP16, literal(-20)))
          CFI (cfiCond190) V3 load(1, XDATA, add(CFA_XSP16, literal(-19)))
          CFI (cfiCond190) V4 load(1, XDATA, add(CFA_XSP16, literal(-18)))
          CFI (cfiCond190) V5 load(1, XDATA, add(CFA_XSP16, literal(-17)))
          CFI (cfiCond190) V6 load(1, XDATA, add(CFA_XSP16, literal(-16)))
          CFI (cfiCond190) V7 load(1, XDATA, add(CFA_XSP16, literal(-15)))
          CFI (cfiCond190) V8 load(1, XDATA, add(CFA_XSP16, literal(-14)))
          CFI (cfiCond190) V9 load(1, XDATA, add(CFA_XSP16, literal(-13)))
          CFI (cfiCond190) V10 load(1, XDATA, add(CFA_XSP16, literal(-12)))
          CFI (cfiCond190) V11 load(1, XDATA, add(CFA_XSP16, literal(-11)))
          CFI (cfiCond190) V12 load(1, XDATA, add(CFA_XSP16, literal(-10)))
          CFI (cfiCond190) V13 load(1, XDATA, add(CFA_XSP16, literal(-9)))
          CFI (cfiCond190) V14 load(1, XDATA, add(CFA_XSP16, literal(-8)))
          CFI (cfiCond190) V15 load(1, XDATA, add(CFA_XSP16, literal(-7)))
          CFI (cfiCond190) R7 load(1, XDATA, add(CFA_XSP16, literal(-6)))
          CFI (cfiCond190) ?RET_LOW load(1, XDATA, add(CFA_XSP16, literal(-5)))
          CFI (cfiCond190) ?RET_HIGH load(1, XDATA, add(CFA_XSP16, literal(-4)))
          CFI (cfiCond190) ?BRET_EXT load(1, XDATA, add(CFA_XSP16, literal(-3)))
          CFI (cfiCond190) DPL0 load(1, XDATA, add(CFA_XSP16, literal(-2)))
          CFI (cfiCond190) DPH0 load(1, XDATA, add(CFA_XSP16, literal(-1)))
          CFI (cfiCond190) CFA_SP SP+0
          CFI (cfiCond190) CFA_XSP16 add(XSP16, 27)
          CFI Block cfiCond191 Using cfiCommon0
          CFI (cfiCond191) Function MT_AfIncomingMsg
          CFI (cfiCond191) Conditional ??CrossCallReturnLabel_127, ??CrossCallReturnLabel_124
          CFI (cfiCond191) R6 load(1, XDATA, add(CFA_XSP16, literal(-24)))
          CFI (cfiCond191) VB load(1, XDATA, add(CFA_XSP16, literal(-23)))
          CFI (cfiCond191) V0 load(1, XDATA, add(CFA_XSP16, literal(-22)))
          CFI (cfiCond191) V1 load(1, XDATA, add(CFA_XSP16, literal(-21)))
          CFI (cfiCond191) V2 load(1, XDATA, add(CFA_XSP16, literal(-20)))
          CFI (cfiCond191) V3 load(1, XDATA, add(CFA_XSP16, literal(-19)))
          CFI (cfiCond191) V4 load(1, XDATA, add(CFA_XSP16, literal(-18)))
          CFI (cfiCond191) V5 load(1, XDATA, add(CFA_XSP16, literal(-17)))
          CFI (cfiCond191) V6 load(1, XDATA, add(CFA_XSP16, literal(-16)))
          CFI (cfiCond191) V7 load(1, XDATA, add(CFA_XSP16, literal(-15)))
          CFI (cfiCond191) V8 load(1, XDATA, add(CFA_XSP16, literal(-14)))
          CFI (cfiCond191) V9 load(1, XDATA, add(CFA_XSP16, literal(-13)))
          CFI (cfiCond191) V10 load(1, XDATA, add(CFA_XSP16, literal(-12)))
          CFI (cfiCond191) V11 load(1, XDATA, add(CFA_XSP16, literal(-11)))
          CFI (cfiCond191) V12 load(1, XDATA, add(CFA_XSP16, literal(-10)))
          CFI (cfiCond191) V13 load(1, XDATA, add(CFA_XSP16, literal(-9)))
          CFI (cfiCond191) V14 load(1, XDATA, add(CFA_XSP16, literal(-8)))
          CFI (cfiCond191) V15 load(1, XDATA, add(CFA_XSP16, literal(-7)))
          CFI (cfiCond191) R7 load(1, XDATA, add(CFA_XSP16, literal(-6)))
          CFI (cfiCond191) ?RET_LOW load(1, XDATA, add(CFA_XSP16, literal(-5)))
          CFI (cfiCond191) ?RET_HIGH load(1, XDATA, add(CFA_XSP16, literal(-4)))
          CFI (cfiCond191) ?BRET_EXT load(1, XDATA, add(CFA_XSP16, literal(-3)))
          CFI (cfiCond191) DPL0 load(1, XDATA, add(CFA_XSP16, literal(-2)))
          CFI (cfiCond191) DPH0 load(1, XDATA, add(CFA_XSP16, literal(-1)))
          CFI (cfiCond191) CFA_SP SP+0
          CFI (cfiCond191) CFA_XSP16 add(XSP16, 27)
          CFI Block cfiCond192 Using cfiCommon0
          CFI (cfiCond192) Function MT_AfIncomingMsg
          CFI (cfiCond192) Conditional ??CrossCallReturnLabel_127, ??CrossCallReturnLabel_125
          CFI (cfiCond192) R6 load(1, XDATA, add(CFA_XSP16, literal(-24)))
          CFI (cfiCond192) VB load(1, XDATA, add(CFA_XSP16, literal(-23)))
          CFI (cfiCond192) V0 load(1, XDATA, add(CFA_XSP16, literal(-22)))
          CFI (cfiCond192) V1 load(1, XDATA, add(CFA_XSP16, literal(-21)))
          CFI (cfiCond192) V2 load(1, XDATA, add(CFA_XSP16, literal(-20)))
          CFI (cfiCond192) V3 load(1, XDATA, add(CFA_XSP16, literal(-19)))
          CFI (cfiCond192) V4 load(1, XDATA, add(CFA_XSP16, literal(-18)))
          CFI (cfiCond192) V5 load(1, XDATA, add(CFA_XSP16, literal(-17)))
          CFI (cfiCond192) V6 load(1, XDATA, add(CFA_XSP16, literal(-16)))
          CFI (cfiCond192) V7 load(1, XDATA, add(CFA_XSP16, literal(-15)))
          CFI (cfiCond192) V8 load(1, XDATA, add(CFA_XSP16, literal(-14)))
          CFI (cfiCond192) V9 load(1, XDATA, add(CFA_XSP16, literal(-13)))
          CFI (cfiCond192) V10 load(1, XDATA, add(CFA_XSP16, literal(-12)))
          CFI (cfiCond192) V11 load(1, XDATA, add(CFA_XSP16, literal(-11)))
          CFI (cfiCond192) V12 load(1, XDATA, add(CFA_XSP16, literal(-10)))
          CFI (cfiCond192) V13 load(1, XDATA, add(CFA_XSP16, literal(-9)))
          CFI (cfiCond192) V14 load(1, XDATA, add(CFA_XSP16, literal(-8)))
          CFI (cfiCond192) V15 load(1, XDATA, add(CFA_XSP16, literal(-7)))
          CFI (cfiCond192) R7 load(1, XDATA, add(CFA_XSP16, literal(-6)))
          CFI (cfiCond192) ?RET_LOW load(1, XDATA, add(CFA_XSP16, literal(-5)))
          CFI (cfiCond192) ?RET_HIGH load(1, XDATA, add(CFA_XSP16, literal(-4)))
          CFI (cfiCond192) ?BRET_EXT load(1, XDATA, add(CFA_XSP16, literal(-3)))
          CFI (cfiCond192) DPL0 load(1, XDATA, add(CFA_XSP16, literal(-2)))
          CFI (cfiCond192) DPH0 load(1, XDATA, add(CFA_XSP16, literal(-1)))
          CFI (cfiCond192) CFA_SP SP+0
          CFI (cfiCond192) CFA_XSP16 add(XSP16, 27)
          CFI Block cfiPicker193 Using cfiCommon1
          CFI (cfiPicker193) NoFunction
          CFI (cfiPicker193) Picker
        MOVX    @DPTR,A
        INC     DPTR
        MOV     ?V0 + 2,DPL
        MOV     ?V0 + 3,DPH
        RET
          CFI EndBlock cfiCond186
          CFI EndBlock cfiCond187
          CFI EndBlock cfiCond188
          CFI EndBlock cfiCond189
          CFI EndBlock cfiCond190
          CFI EndBlock cfiCond191
          CFI EndBlock cfiCond192
          CFI EndBlock cfiPicker193

        RSEG BANKED_CODE:CODE:NOROOT(0)
?Subroutine28:
          CFI Block cfiCond194 Using cfiCommon0
          CFI Function MT_AfIncomingMsg
          CFI Conditional ??CrossCallReturnLabel_123
          CFI R6 load(1, XDATA, add(CFA_XSP16, literal(-24)))
          CFI VB load(1, XDATA, add(CFA_XSP16, literal(-23)))
          CFI V0 load(1, XDATA, add(CFA_XSP16, literal(-22)))
          CFI V1 load(1, XDATA, add(CFA_XSP16, literal(-21)))
          CFI V2 load(1, XDATA, add(CFA_XSP16, literal(-20)))
          CFI V3 load(1, XDATA, add(CFA_XSP16, literal(-19)))
          CFI V4 load(1, XDATA, add(CFA_XSP16, literal(-18)))
          CFI V5 load(1, XDATA, add(CFA_XSP16, literal(-17)))
          CFI V6 load(1, XDATA, add(CFA_XSP16, literal(-16)))
          CFI V7 load(1, XDATA, add(CFA_XSP16, literal(-15)))
          CFI V8 load(1, XDATA, add(CFA_XSP16, literal(-14)))
          CFI V9 load(1, XDATA, add(CFA_XSP16, literal(-13)))
          CFI V10 load(1, XDATA, add(CFA_XSP16, literal(-12)))
          CFI V11 load(1, XDATA, add(CFA_XSP16, literal(-11)))
          CFI V12 load(1, XDATA, add(CFA_XSP16, literal(-10)))
          CFI V13 load(1, XDATA, add(CFA_XSP16, literal(-9)))
          CFI V14 load(1, XDATA, add(CFA_XSP16, literal(-8)))
          CFI V15 load(1, XDATA, add(CFA_XSP16, literal(-7)))
          CFI R7 load(1, XDATA, add(CFA_XSP16, literal(-6)))
          CFI ?RET_LOW load(1, XDATA, add(CFA_XSP16, literal(-5)))
          CFI ?RET_HIGH load(1, XDATA, add(CFA_XSP16, literal(-4)))
          CFI ?BRET_EXT load(1, XDATA, add(CFA_XSP16, literal(-3)))
          CFI DPL0 load(1, XDATA, add(CFA_XSP16, literal(-2)))
          CFI DPH0 load(1, XDATA, add(CFA_XSP16, literal(-1)))
          CFI CFA_SP SP+0
          CFI CFA_XSP16 add(XSP16, 27)
          CFI Block cfiCond195 Using cfiCommon0
          CFI (cfiCond195) Function MT_AfIncomingMsg
          CFI (cfiCond195) Conditional ??CrossCallReturnLabel_124
          CFI (cfiCond195) R6 load(1, XDATA, add(CFA_XSP16, literal(-24)))
          CFI (cfiCond195) VB load(1, XDATA, add(CFA_XSP16, literal(-23)))
          CFI (cfiCond195) V0 load(1, XDATA, add(CFA_XSP16, literal(-22)))
          CFI (cfiCond195) V1 load(1, XDATA, add(CFA_XSP16, literal(-21)))
          CFI (cfiCond195) V2 load(1, XDATA, add(CFA_XSP16, literal(-20)))
          CFI (cfiCond195) V3 load(1, XDATA, add(CFA_XSP16, literal(-19)))
          CFI (cfiCond195) V4 load(1, XDATA, add(CFA_XSP16, literal(-18)))
          CFI (cfiCond195) V5 load(1, XDATA, add(CFA_XSP16, literal(-17)))
          CFI (cfiCond195) V6 load(1, XDATA, add(CFA_XSP16, literal(-16)))
          CFI (cfiCond195) V7 load(1, XDATA, add(CFA_XSP16, literal(-15)))
          CFI (cfiCond195) V8 load(1, XDATA, add(CFA_XSP16, literal(-14)))
          CFI (cfiCond195) V9 load(1, XDATA, add(CFA_XSP16, literal(-13)))
          CFI (cfiCond195) V10 load(1, XDATA, add(CFA_XSP16, literal(-12)))
          CFI (cfiCond195) V11 load(1, XDATA, add(CFA_XSP16, literal(-11)))
          CFI (cfiCond195) V12 load(1, XDATA, add(CFA_XSP16, literal(-10)))
          CFI (cfiCond195) V13 load(1, XDATA, add(CFA_XSP16, literal(-9)))
          CFI (cfiCond195) V14 load(1, XDATA, add(CFA_XSP16, literal(-8)))
          CFI (cfiCond195) V15 load(1, XDATA, add(CFA_XSP16, literal(-7)))
          CFI (cfiCond195) R7 load(1, XDATA, add(CFA_XSP16, literal(-6)))
          CFI (cfiCond195) ?RET_LOW load(1, XDATA, add(CFA_XSP16, literal(-5)))
          CFI (cfiCond195) ?RET_HIGH load(1, XDATA, add(CFA_XSP16, literal(-4)))
          CFI (cfiCond195) ?BRET_EXT load(1, XDATA, add(CFA_XSP16, literal(-3)))
          CFI (cfiCond195) DPL0 load(1, XDATA, add(CFA_XSP16, literal(-2)))
          CFI (cfiCond195) DPH0 load(1, XDATA, add(CFA_XSP16, literal(-1)))
          CFI (cfiCond195) CFA_SP SP+0
          CFI (cfiCond195) CFA_XSP16 add(XSP16, 27)
          CFI Block cfiPicker196 Using cfiCommon1
          CFI (cfiPicker196) NoFunction
          CFI (cfiPicker196) Picker
        MOV     DPL,?V0 + 2
        MOV     DPH,?V0 + 3
        MOV     A,?V0 + 4
          CFI EndBlock cfiCond194
          CFI EndBlock cfiCond195
          CFI EndBlock cfiPicker196
        REQUIRE ??Subroutine61_0
        ; // Fall through to label ??Subroutine61_0

        RSEG BANKED_CODE:CODE:NOROOT(0)
??Subroutine61_0:
          CFI Block cfiCond197 Using cfiCommon0
          CFI Function MT_AfIncomingMsg
          CFI Conditional ??CrossCallReturnLabel_125
          CFI R6 load(1, XDATA, add(CFA_XSP16, literal(-24)))
          CFI VB load(1, XDATA, add(CFA_XSP16, literal(-23)))
          CFI V0 load(1, XDATA, add(CFA_XSP16, literal(-22)))
          CFI V1 load(1, XDATA, add(CFA_XSP16, literal(-21)))
          CFI V2 load(1, XDATA, add(CFA_XSP16, literal(-20)))
          CFI V3 load(1, XDATA, add(CFA_XSP16, literal(-19)))
          CFI V4 load(1, XDATA, add(CFA_XSP16, literal(-18)))
          CFI V5 load(1, XDATA, add(CFA_XSP16, literal(-17)))
          CFI V6 load(1, XDATA, add(CFA_XSP16, literal(-16)))
          CFI V7 load(1, XDATA, add(CFA_XSP16, literal(-15)))
          CFI V8 load(1, XDATA, add(CFA_XSP16, literal(-14)))
          CFI V9 load(1, XDATA, add(CFA_XSP16, literal(-13)))
          CFI V10 load(1, XDATA, add(CFA_XSP16, literal(-12)))
          CFI V11 load(1, XDATA, add(CFA_XSP16, literal(-11)))
          CFI V12 load(1, XDATA, add(CFA_XSP16, literal(-10)))
          CFI V13 load(1, XDATA, add(CFA_XSP16, literal(-9)))
          CFI V14 load(1, XDATA, add(CFA_XSP16, literal(-8)))
          CFI V15 load(1, XDATA, add(CFA_XSP16, literal(-7)))
          CFI R7 load(1, XDATA, add(CFA_XSP16, literal(-6)))
          CFI ?RET_LOW load(1, XDATA, add(CFA_XSP16, literal(-5)))
          CFI ?RET_HIGH load(1, XDATA, add(CFA_XSP16, literal(-4)))
          CFI ?BRET_EXT load(1, XDATA, add(CFA_XSP16, literal(-3)))
          CFI DPL0 load(1, XDATA, add(CFA_XSP16, literal(-2)))
          CFI DPH0 load(1, XDATA, add(CFA_XSP16, literal(-1)))
          CFI CFA_SP SP+0
          CFI CFA_XSP16 add(XSP16, 27)
          CFI Block cfiCond198 Using cfiCommon0
          CFI (cfiCond198) Function MT_AfIncomingMsg
          CFI (cfiCond198) Conditional ??CrossCallReturnLabel_123
          CFI (cfiCond198) R6 load(1, XDATA, add(CFA_XSP16, literal(-24)))
          CFI (cfiCond198) VB load(1, XDATA, add(CFA_XSP16, literal(-23)))
          CFI (cfiCond198) V0 load(1, XDATA, add(CFA_XSP16, literal(-22)))
          CFI (cfiCond198) V1 load(1, XDATA, add(CFA_XSP16, literal(-21)))
          CFI (cfiCond198) V2 load(1, XDATA, add(CFA_XSP16, literal(-20)))
          CFI (cfiCond198) V3 load(1, XDATA, add(CFA_XSP16, literal(-19)))
          CFI (cfiCond198) V4 load(1, XDATA, add(CFA_XSP16, literal(-18)))
          CFI (cfiCond198) V5 load(1, XDATA, add(CFA_XSP16, literal(-17)))
          CFI (cfiCond198) V6 load(1, XDATA, add(CFA_XSP16, literal(-16)))
          CFI (cfiCond198) V7 load(1, XDATA, add(CFA_XSP16, literal(-15)))
          CFI (cfiCond198) V8 load(1, XDATA, add(CFA_XSP16, literal(-14)))
          CFI (cfiCond198) V9 load(1, XDATA, add(CFA_XSP16, literal(-13)))
          CFI (cfiCond198) V10 load(1, XDATA, add(CFA_XSP16, literal(-12)))
          CFI (cfiCond198) V11 load(1, XDATA, add(CFA_XSP16, literal(-11)))
          CFI (cfiCond198) V12 load(1, XDATA, add(CFA_XSP16, literal(-10)))
          CFI (cfiCond198) V13 load(1, XDATA, add(CFA_XSP16, literal(-9)))
          CFI (cfiCond198) V14 load(1, XDATA, add(CFA_XSP16, literal(-8)))
          CFI (cfiCond198) V15 load(1, XDATA, add(CFA_XSP16, literal(-7)))
          CFI (cfiCond198) R7 load(1, XDATA, add(CFA_XSP16, literal(-6)))
          CFI (cfiCond198) ?RET_LOW load(1, XDATA, add(CFA_XSP16, literal(-5)))
          CFI (cfiCond198) ?RET_HIGH load(1, XDATA, add(CFA_XSP16, literal(-4)))
          CFI (cfiCond198) ?BRET_EXT load(1, XDATA, add(CFA_XSP16, literal(-3)))
          CFI (cfiCond198) DPL0 load(1, XDATA, add(CFA_XSP16, literal(-2)))
          CFI (cfiCond198) DPH0 load(1, XDATA, add(CFA_XSP16, literal(-1)))
          CFI (cfiCond198) CFA_SP SP+0
          CFI (cfiCond198) CFA_XSP16 add(XSP16, 27)
          CFI Block cfiCond199 Using cfiCommon0
          CFI (cfiCond199) Function MT_AfIncomingMsg
          CFI (cfiCond199) Conditional ??CrossCallReturnLabel_124
          CFI (cfiCond199) R6 load(1, XDATA, add(CFA_XSP16, literal(-24)))
          CFI (cfiCond199) VB load(1, XDATA, add(CFA_XSP16, literal(-23)))
          CFI (cfiCond199) V0 load(1, XDATA, add(CFA_XSP16, literal(-22)))
          CFI (cfiCond199) V1 load(1, XDATA, add(CFA_XSP16, literal(-21)))
          CFI (cfiCond199) V2 load(1, XDATA, add(CFA_XSP16, literal(-20)))
          CFI (cfiCond199) V3 load(1, XDATA, add(CFA_XSP16, literal(-19)))
          CFI (cfiCond199) V4 load(1, XDATA, add(CFA_XSP16, literal(-18)))
          CFI (cfiCond199) V5 load(1, XDATA, add(CFA_XSP16, literal(-17)))
          CFI (cfiCond199) V6 load(1, XDATA, add(CFA_XSP16, literal(-16)))
          CFI (cfiCond199) V7 load(1, XDATA, add(CFA_XSP16, literal(-15)))
          CFI (cfiCond199) V8 load(1, XDATA, add(CFA_XSP16, literal(-14)))
          CFI (cfiCond199) V9 load(1, XDATA, add(CFA_XSP16, literal(-13)))
          CFI (cfiCond199) V10 load(1, XDATA, add(CFA_XSP16, literal(-12)))
          CFI (cfiCond199) V11 load(1, XDATA, add(CFA_XSP16, literal(-11)))
          CFI (cfiCond199) V12 load(1, XDATA, add(CFA_XSP16, literal(-10)))
          CFI (cfiCond199) V13 load(1, XDATA, add(CFA_XSP16, literal(-9)))
          CFI (cfiCond199) V14 load(1, XDATA, add(CFA_XSP16, literal(-8)))
          CFI (cfiCond199) V15 load(1, XDATA, add(CFA_XSP16, literal(-7)))
          CFI (cfiCond199) R7 load(1, XDATA, add(CFA_XSP16, literal(-6)))
          CFI (cfiCond199) ?RET_LOW load(1, XDATA, add(CFA_XSP16, literal(-5)))
          CFI (cfiCond199) ?RET_HIGH load(1, XDATA, add(CFA_XSP16, literal(-4)))
          CFI (cfiCond199) ?BRET_EXT load(1, XDATA, add(CFA_XSP16, literal(-3)))
          CFI (cfiCond199) DPL0 load(1, XDATA, add(CFA_XSP16, literal(-2)))
          CFI (cfiCond199) DPH0 load(1, XDATA, add(CFA_XSP16, literal(-1)))
          CFI (cfiCond199) CFA_SP SP+0
          CFI (cfiCond199) CFA_XSP16 add(XSP16, 27)
          CFI Block cfiPicker200 Using cfiCommon1
          CFI (cfiPicker200) NoFunction
          CFI (cfiPicker200) Picker
        LCALL   ?Subroutine47 & 0xFFFF
??CrossCallReturnLabel_127:
        MOV     DPL,?V0 + 12
        MOV     DPH,?V0 + 13
        MOV     R0,#?V0 + 4
        RET
          CFI EndBlock cfiCond197
          CFI EndBlock cfiCond198
          CFI EndBlock cfiCond199
          CFI EndBlock cfiPicker200

        RSEG BANKED_CODE:CODE:NOROOT(0)
?Subroutine27:
          CFI Block cfiCond201 Using cfiCommon0
          CFI Function MT_AfReflectError
          CFI Conditional ??CrossCallReturnLabel_33
          CFI DPL0 Frame(CFA_SP, 4)
          CFI DPH0 Frame(CFA_SP, 5)
          CFI CFA_SP SP+-5
          CFI CFA_XSP16 add(XSP16, 6)
          CFI Block cfiCond202 Using cfiCommon0
          CFI (cfiCond202) Function MT_AfIncomingMsg
          CFI (cfiCond202) Conditional ??CrossCallReturnLabel_34
          CFI (cfiCond202) R6 load(1, XDATA, add(CFA_XSP16, literal(-24)))
          CFI (cfiCond202) VB load(1, XDATA, add(CFA_XSP16, literal(-23)))
          CFI (cfiCond202) V0 load(1, XDATA, add(CFA_XSP16, literal(-22)))
          CFI (cfiCond202) V1 load(1, XDATA, add(CFA_XSP16, literal(-21)))
          CFI (cfiCond202) V2 load(1, XDATA, add(CFA_XSP16, literal(-20)))
          CFI (cfiCond202) V3 load(1, XDATA, add(CFA_XSP16, literal(-19)))
          CFI (cfiCond202) V4 load(1, XDATA, add(CFA_XSP16, literal(-18)))
          CFI (cfiCond202) V5 load(1, XDATA, add(CFA_XSP16, literal(-17)))
          CFI (cfiCond202) V6 load(1, XDATA, add(CFA_XSP16, literal(-16)))
          CFI (cfiCond202) V7 load(1, XDATA, add(CFA_XSP16, literal(-15)))
          CFI (cfiCond202) V8 load(1, XDATA, add(CFA_XSP16, literal(-14)))
          CFI (cfiCond202) V9 load(1, XDATA, add(CFA_XSP16, literal(-13)))
          CFI (cfiCond202) V10 load(1, XDATA, add(CFA_XSP16, literal(-12)))
          CFI (cfiCond202) V11 load(1, XDATA, add(CFA_XSP16, literal(-11)))
          CFI (cfiCond202) V12 load(1, XDATA, add(CFA_XSP16, literal(-10)))
          CFI (cfiCond202) V13 load(1, XDATA, add(CFA_XSP16, literal(-9)))
          CFI (cfiCond202) V14 load(1, XDATA, add(CFA_XSP16, literal(-8)))
          CFI (cfiCond202) V15 load(1, XDATA, add(CFA_XSP16, literal(-7)))
          CFI (cfiCond202) R7 load(1, XDATA, add(CFA_XSP16, literal(-6)))
          CFI (cfiCond202) ?RET_LOW load(1, XDATA, add(CFA_XSP16, literal(-5)))
          CFI (cfiCond202) ?RET_HIGH load(1, XDATA, add(CFA_XSP16, literal(-4)))
          CFI (cfiCond202) ?BRET_EXT load(1, XDATA, add(CFA_XSP16, literal(-3)))
          CFI (cfiCond202) DPL0 load(1, XDATA, add(CFA_XSP16, literal(-2)))
          CFI (cfiCond202) DPH0 load(1, XDATA, add(CFA_XSP16, literal(-1)))
          CFI (cfiCond202) CFA_SP SP+0
          CFI (cfiCond202) CFA_XSP16 add(XSP16, 27)
          CFI Block cfiPicker203 Using cfiCommon1
          CFI (cfiPicker203) NoFunction
          CFI (cfiPicker203) Picker
        LCALL   ?Subroutine40 & 0xFFFF
??CrossCallReturnLabel_68:
        MOVX    A,@DPTR
        RET
          CFI EndBlock cfiCond201
          CFI EndBlock cfiCond202
          CFI EndBlock cfiPicker203

        RSEG BANKED_CODE:CODE:NOROOT(0)
?Subroutine26:
          CFI Block cfiCond204 Using cfiCommon0
          CFI Function MT_AfIncomingMsg
          CFI Conditional ??CrossCallReturnLabel_31
          CFI R6 load(1, XDATA, add(CFA_XSP16, literal(-24)))
          CFI VB load(1, XDATA, add(CFA_XSP16, literal(-23)))
          CFI V0 load(1, XDATA, add(CFA_XSP16, literal(-22)))
          CFI V1 load(1, XDATA, add(CFA_XSP16, literal(-21)))
          CFI V2 load(1, XDATA, add(CFA_XSP16, literal(-20)))
          CFI V3 load(1, XDATA, add(CFA_XSP16, literal(-19)))
          CFI V4 load(1, XDATA, add(CFA_XSP16, literal(-18)))
          CFI V5 load(1, XDATA, add(CFA_XSP16, literal(-17)))
          CFI V6 load(1, XDATA, add(CFA_XSP16, literal(-16)))
          CFI V7 load(1, XDATA, add(CFA_XSP16, literal(-15)))
          CFI V8 load(1, XDATA, add(CFA_XSP16, literal(-14)))
          CFI V9 load(1, XDATA, add(CFA_XSP16, literal(-13)))
          CFI V10 load(1, XDATA, add(CFA_XSP16, literal(-12)))
          CFI V11 load(1, XDATA, add(CFA_XSP16, literal(-11)))
          CFI V12 load(1, XDATA, add(CFA_XSP16, literal(-10)))
          CFI V13 load(1, XDATA, add(CFA_XSP16, literal(-9)))
          CFI V14 load(1, XDATA, add(CFA_XSP16, literal(-8)))
          CFI V15 load(1, XDATA, add(CFA_XSP16, literal(-7)))
          CFI R7 load(1, XDATA, add(CFA_XSP16, literal(-6)))
          CFI ?RET_LOW load(1, XDATA, add(CFA_XSP16, literal(-5)))
          CFI ?RET_HIGH load(1, XDATA, add(CFA_XSP16, literal(-4)))
          CFI ?BRET_EXT load(1, XDATA, add(CFA_XSP16, literal(-3)))
          CFI DPL0 load(1, XDATA, add(CFA_XSP16, literal(-2)))
          CFI DPH0 load(1, XDATA, add(CFA_XSP16, literal(-1)))
          CFI CFA_SP SP+0
          CFI CFA_XSP16 add(XSP16, 27)
          CFI Block cfiCond205 Using cfiCommon0
          CFI (cfiCond205) Function MT_AfIncomingMsg
          CFI (cfiCond205) Conditional ??CrossCallReturnLabel_32
          CFI (cfiCond205) R6 load(1, XDATA, add(CFA_XSP16, literal(-24)))
          CFI (cfiCond205) VB load(1, XDATA, add(CFA_XSP16, literal(-23)))
          CFI (cfiCond205) V0 load(1, XDATA, add(CFA_XSP16, literal(-22)))
          CFI (cfiCond205) V1 load(1, XDATA, add(CFA_XSP16, literal(-21)))
          CFI (cfiCond205) V2 load(1, XDATA, add(CFA_XSP16, literal(-20)))
          CFI (cfiCond205) V3 load(1, XDATA, add(CFA_XSP16, literal(-19)))
          CFI (cfiCond205) V4 load(1, XDATA, add(CFA_XSP16, literal(-18)))
          CFI (cfiCond205) V5 load(1, XDATA, add(CFA_XSP16, literal(-17)))
          CFI (cfiCond205) V6 load(1, XDATA, add(CFA_XSP16, literal(-16)))
          CFI (cfiCond205) V7 load(1, XDATA, add(CFA_XSP16, literal(-15)))
          CFI (cfiCond205) V8 load(1, XDATA, add(CFA_XSP16, literal(-14)))
          CFI (cfiCond205) V9 load(1, XDATA, add(CFA_XSP16, literal(-13)))
          CFI (cfiCond205) V10 load(1, XDATA, add(CFA_XSP16, literal(-12)))
          CFI (cfiCond205) V11 load(1, XDATA, add(CFA_XSP16, literal(-11)))
          CFI (cfiCond205) V12 load(1, XDATA, add(CFA_XSP16, literal(-10)))
          CFI (cfiCond205) V13 load(1, XDATA, add(CFA_XSP16, literal(-9)))
          CFI (cfiCond205) V14 load(1, XDATA, add(CFA_XSP16, literal(-8)))
          CFI (cfiCond205) V15 load(1, XDATA, add(CFA_XSP16, literal(-7)))
          CFI (cfiCond205) R7 load(1, XDATA, add(CFA_XSP16, literal(-6)))
          CFI (cfiCond205) ?RET_LOW load(1, XDATA, add(CFA_XSP16, literal(-5)))
          CFI (cfiCond205) ?RET_HIGH load(1, XDATA, add(CFA_XSP16, literal(-4)))
          CFI (cfiCond205) ?BRET_EXT load(1, XDATA, add(CFA_XSP16, literal(-3)))
          CFI (cfiCond205) DPL0 load(1, XDATA, add(CFA_XSP16, literal(-2)))
          CFI (cfiCond205) DPH0 load(1, XDATA, add(CFA_XSP16, literal(-1)))
          CFI (cfiCond205) CFA_SP SP+0
          CFI (cfiCond205) CFA_XSP16 add(XSP16, 27)
          CFI Block cfiPicker206 Using cfiCommon1
          CFI (cfiPicker206) NoFunction
          CFI (cfiPicker206) Picker
        ADDC    A,#0x0
        MOV     ?V0 + 13,A
        ; Setup parameters for call to function StubAPS_InterPan
        MOV     DPL,?V0 + 12
        MOV     DPH,A
        RET
          CFI EndBlock cfiCond204
          CFI EndBlock cfiCond205
          CFI EndBlock cfiPicker206

        RSEG BANKED_CODE:CODE:NOROOT(0)
?Subroutine25:
          CFI Block cfiCond207 Using cfiCommon0
          CFI Function MT_AfCommandProcessing
          CFI Conditional ??CrossCallReturnLabel_29
          CFI R6 load(1, XDATA, add(CFA_XSP16, literal(-9)))
          CFI VB load(1, XDATA, add(CFA_XSP16, literal(-8)))
          CFI V0 load(1, XDATA, add(CFA_XSP16, literal(-7)))
          CFI R7 load(1, XDATA, add(CFA_XSP16, literal(-6)))
          CFI ?RET_LOW load(1, XDATA, add(CFA_XSP16, literal(-5)))
          CFI ?RET_HIGH load(1, XDATA, add(CFA_XSP16, literal(-4)))
          CFI ?BRET_EXT load(1, XDATA, add(CFA_XSP16, literal(-3)))
          CFI DPL0 load(1, XDATA, add(CFA_XSP16, literal(-2)))
          CFI DPH0 load(1, XDATA, add(CFA_XSP16, literal(-1)))
          CFI CFA_SP SP+0
          CFI CFA_XSP16 add(XSP16, 15)
          CFI Block cfiCond208 Using cfiCommon0
          CFI (cfiCond208) Function MT_AfIncomingMsg
          CFI (cfiCond208) Conditional ??CrossCallReturnLabel_30
          CFI (cfiCond208) R6 load(1, XDATA, add(CFA_XSP16, literal(-24)))
          CFI (cfiCond208) VB load(1, XDATA, add(CFA_XSP16, literal(-23)))
          CFI (cfiCond208) V0 load(1, XDATA, add(CFA_XSP16, literal(-22)))
          CFI (cfiCond208) V1 load(1, XDATA, add(CFA_XSP16, literal(-21)))
          CFI (cfiCond208) V2 load(1, XDATA, add(CFA_XSP16, literal(-20)))
          CFI (cfiCond208) V3 load(1, XDATA, add(CFA_XSP16, literal(-19)))
          CFI (cfiCond208) V4 load(1, XDATA, add(CFA_XSP16, literal(-18)))
          CFI (cfiCond208) V5 load(1, XDATA, add(CFA_XSP16, literal(-17)))
          CFI (cfiCond208) V6 load(1, XDATA, add(CFA_XSP16, literal(-16)))
          CFI (cfiCond208) V7 load(1, XDATA, add(CFA_XSP16, literal(-15)))
          CFI (cfiCond208) V8 load(1, XDATA, add(CFA_XSP16, literal(-14)))
          CFI (cfiCond208) V9 load(1, XDATA, add(CFA_XSP16, literal(-13)))
          CFI (cfiCond208) V10 load(1, XDATA, add(CFA_XSP16, literal(-12)))
          CFI (cfiCond208) V11 load(1, XDATA, add(CFA_XSP16, literal(-11)))
          CFI (cfiCond208) V12 load(1, XDATA, add(CFA_XSP16, literal(-10)))
          CFI (cfiCond208) V13 load(1, XDATA, add(CFA_XSP16, literal(-9)))
          CFI (cfiCond208) V14 load(1, XDATA, add(CFA_XSP16, literal(-8)))
          CFI (cfiCond208) V15 load(1, XDATA, add(CFA_XSP16, literal(-7)))
          CFI (cfiCond208) R7 load(1, XDATA, add(CFA_XSP16, literal(-6)))
          CFI (cfiCond208) ?RET_LOW load(1, XDATA, add(CFA_XSP16, literal(-5)))
          CFI (cfiCond208) ?RET_HIGH load(1, XDATA, add(CFA_XSP16, literal(-4)))
          CFI (cfiCond208) ?BRET_EXT load(1, XDATA, add(CFA_XSP16, literal(-3)))
          CFI (cfiCond208) DPL0 load(1, XDATA, add(CFA_XSP16, literal(-2)))
          CFI (cfiCond208) DPH0 load(1, XDATA, add(CFA_XSP16, literal(-1)))
          CFI (cfiCond208) CFA_SP SP+0
          CFI (cfiCond208) CFA_XSP16 add(XSP16, 27)
          CFI Block cfiPicker209 Using cfiCommon1
          CFI (cfiPicker209) NoFunction
          CFI (cfiPicker209) Picker
        MOV     R0,A
        MOV     A,R3
        ADDC    A,#0x0
        MOV     R1,A
        MOV     DPL,R2
        MOV     DPH,R3
        INC     DPTR
        INC     DPTR
        RET
          CFI EndBlock cfiCond207
          CFI EndBlock cfiCond208
          CFI EndBlock cfiPicker209

        RSEG BANKED_CODE:CODE:NOROOT(0)
?Subroutine19:
          CFI Block cfiCond210 Using cfiCommon0
          CFI Function MT_AfIncomingMsg
          CFI Conditional ??CrossCallReturnLabel_21
          CFI R6 load(1, XDATA, add(CFA_XSP16, literal(-24)))
          CFI VB load(1, XDATA, add(CFA_XSP16, literal(-23)))
          CFI V0 load(1, XDATA, add(CFA_XSP16, literal(-22)))
          CFI V1 load(1, XDATA, add(CFA_XSP16, literal(-21)))
          CFI V2 load(1, XDATA, add(CFA_XSP16, literal(-20)))
          CFI V3 load(1, XDATA, add(CFA_XSP16, literal(-19)))
          CFI V4 load(1, XDATA, add(CFA_XSP16, literal(-18)))
          CFI V5 load(1, XDATA, add(CFA_XSP16, literal(-17)))
          CFI V6 load(1, XDATA, add(CFA_XSP16, literal(-16)))
          CFI V7 load(1, XDATA, add(CFA_XSP16, literal(-15)))
          CFI V8 load(1, XDATA, add(CFA_XSP16, literal(-14)))
          CFI V9 load(1, XDATA, add(CFA_XSP16, literal(-13)))
          CFI V10 load(1, XDATA, add(CFA_XSP16, literal(-12)))
          CFI V11 load(1, XDATA, add(CFA_XSP16, literal(-11)))
          CFI V12 load(1, XDATA, add(CFA_XSP16, literal(-10)))
          CFI V13 load(1, XDATA, add(CFA_XSP16, literal(-9)))
          CFI V14 load(1, XDATA, add(CFA_XSP16, literal(-8)))
          CFI V15 load(1, XDATA, add(CFA_XSP16, literal(-7)))
          CFI R7 load(1, XDATA, add(CFA_XSP16, literal(-6)))
          CFI ?RET_LOW load(1, XDATA, add(CFA_XSP16, literal(-5)))
          CFI ?RET_HIGH load(1, XDATA, add(CFA_XSP16, literal(-4)))
          CFI ?BRET_EXT load(1, XDATA, add(CFA_XSP16, literal(-3)))
          CFI DPL0 load(1, XDATA, add(CFA_XSP16, literal(-2)))
          CFI DPH0 load(1, XDATA, add(CFA_XSP16, literal(-1)))
          CFI CFA_SP SP+0
          CFI CFA_XSP16 add(XSP16, 27)
          CFI Block cfiCond211 Using cfiCommon0
          CFI (cfiCond211) Function MT_AfIncomingMsg
          CFI (cfiCond211) Conditional ??CrossCallReturnLabel_22
          CFI (cfiCond211) R6 load(1, XDATA, add(CFA_XSP16, literal(-24)))
          CFI (cfiCond211) VB load(1, XDATA, add(CFA_XSP16, literal(-23)))
          CFI (cfiCond211) V0 load(1, XDATA, add(CFA_XSP16, literal(-22)))
          CFI (cfiCond211) V1 load(1, XDATA, add(CFA_XSP16, literal(-21)))
          CFI (cfiCond211) V2 load(1, XDATA, add(CFA_XSP16, literal(-20)))
          CFI (cfiCond211) V3 load(1, XDATA, add(CFA_XSP16, literal(-19)))
          CFI (cfiCond211) V4 load(1, XDATA, add(CFA_XSP16, literal(-18)))
          CFI (cfiCond211) V5 load(1, XDATA, add(CFA_XSP16, literal(-17)))
          CFI (cfiCond211) V6 load(1, XDATA, add(CFA_XSP16, literal(-16)))
          CFI (cfiCond211) V7 load(1, XDATA, add(CFA_XSP16, literal(-15)))
          CFI (cfiCond211) V8 load(1, XDATA, add(CFA_XSP16, literal(-14)))
          CFI (cfiCond211) V9 load(1, XDATA, add(CFA_XSP16, literal(-13)))
          CFI (cfiCond211) V10 load(1, XDATA, add(CFA_XSP16, literal(-12)))
          CFI (cfiCond211) V11 load(1, XDATA, add(CFA_XSP16, literal(-11)))
          CFI (cfiCond211) V12 load(1, XDATA, add(CFA_XSP16, literal(-10)))
          CFI (cfiCond211) V13 load(1, XDATA, add(CFA_XSP16, literal(-9)))
          CFI (cfiCond211) V14 load(1, XDATA, add(CFA_XSP16, literal(-8)))
          CFI (cfiCond211) V15 load(1, XDATA, add(CFA_XSP16, literal(-7)))
          CFI (cfiCond211) R7 load(1, XDATA, add(CFA_XSP16, literal(-6)))
          CFI (cfiCond211) ?RET_LOW load(1, XDATA, add(CFA_XSP16, literal(-5)))
          CFI (cfiCond211) ?RET_HIGH load(1, XDATA, add(CFA_XSP16, literal(-4)))
          CFI (cfiCond211) ?BRET_EXT load(1, XDATA, add(CFA_XSP16, literal(-3)))
          CFI (cfiCond211) DPL0 load(1, XDATA, add(CFA_XSP16, literal(-2)))
          CFI (cfiCond211) DPH0 load(1, XDATA, add(CFA_XSP16, literal(-1)))
          CFI (cfiCond211) CFA_SP SP+0
          CFI (cfiCond211) CFA_XSP16 add(XSP16, 27)
          CFI Block cfiPicker212 Using cfiCommon1
          CFI (cfiPicker212) NoFunction
          CFI (cfiPicker212) Picker
        MOV     DPL,?V0 + 4
        MOV     DPH,?V0 + 5
        LCALL   ?Subroutine44 & 0xFFFF
??CrossCallReturnLabel_71:
        MOV     R0,#?V0 + 4
        RET
          CFI EndBlock cfiCond210
          CFI EndBlock cfiCond211
          CFI EndBlock cfiPicker212

        RSEG BANKED_CODE:CODE:NOROOT(0)
?Subroutine44:
          CFI Block cfiCond213 Using cfiCommon0
          CFI Function MT_AfDataRequest
          CFI Conditional ??CrossCallReturnLabel_69
          CFI R6 load(1, XDATA, add(CFA_XSP16, literal(-22)))
          CFI VB load(1, XDATA, add(CFA_XSP16, literal(-21)))
          CFI V0 load(1, XDATA, add(CFA_XSP16, literal(-20)))
          CFI V1 load(1, XDATA, add(CFA_XSP16, literal(-19)))
          CFI V2 load(1, XDATA, add(CFA_XSP16, literal(-18)))
          CFI V3 load(1, XDATA, add(CFA_XSP16, literal(-17)))
          CFI V4 load(1, XDATA, add(CFA_XSP16, literal(-16)))
          CFI V5 load(1, XDATA, add(CFA_XSP16, literal(-15)))
          CFI V6 load(1, XDATA, add(CFA_XSP16, literal(-14)))
          CFI V7 load(1, XDATA, add(CFA_XSP16, literal(-13)))
          CFI V8 load(1, XDATA, add(CFA_XSP16, literal(-12)))
          CFI V9 load(1, XDATA, add(CFA_XSP16, literal(-11)))
          CFI V10 load(1, XDATA, add(CFA_XSP16, literal(-10)))
          CFI V11 load(1, XDATA, add(CFA_XSP16, literal(-9)))
          CFI V12 load(1, XDATA, add(CFA_XSP16, literal(-8)))
          CFI V13 load(1, XDATA, add(CFA_XSP16, literal(-7)))
          CFI R7 load(1, XDATA, add(CFA_XSP16, literal(-6)))
          CFI ?RET_LOW load(1, XDATA, add(CFA_XSP16, literal(-5)))
          CFI ?RET_HIGH load(1, XDATA, add(CFA_XSP16, literal(-4)))
          CFI ?BRET_EXT load(1, XDATA, add(CFA_XSP16, literal(-3)))
          CFI DPL0 load(1, XDATA, add(CFA_XSP16, literal(-2)))
          CFI DPH0 load(1, XDATA, add(CFA_XSP16, literal(-1)))
          CFI CFA_SP SP+0
          CFI CFA_XSP16 add(XSP16, 36)
          CFI Block cfiCond214 Using cfiCommon0
          CFI (cfiCond214) Function MT_AfIncomingMsg
          CFI (cfiCond214) Conditional ??CrossCallReturnLabel_71, ??CrossCallReturnLabel_21
          CFI (cfiCond214) R6 load(1, XDATA, add(CFA_XSP16, literal(-24)))
          CFI (cfiCond214) VB load(1, XDATA, add(CFA_XSP16, literal(-23)))
          CFI (cfiCond214) V0 load(1, XDATA, add(CFA_XSP16, literal(-22)))
          CFI (cfiCond214) V1 load(1, XDATA, add(CFA_XSP16, literal(-21)))
          CFI (cfiCond214) V2 load(1, XDATA, add(CFA_XSP16, literal(-20)))
          CFI (cfiCond214) V3 load(1, XDATA, add(CFA_XSP16, literal(-19)))
          CFI (cfiCond214) V4 load(1, XDATA, add(CFA_XSP16, literal(-18)))
          CFI (cfiCond214) V5 load(1, XDATA, add(CFA_XSP16, literal(-17)))
          CFI (cfiCond214) V6 load(1, XDATA, add(CFA_XSP16, literal(-16)))
          CFI (cfiCond214) V7 load(1, XDATA, add(CFA_XSP16, literal(-15)))
          CFI (cfiCond214) V8 load(1, XDATA, add(CFA_XSP16, literal(-14)))
          CFI (cfiCond214) V9 load(1, XDATA, add(CFA_XSP16, literal(-13)))
          CFI (cfiCond214) V10 load(1, XDATA, add(CFA_XSP16, literal(-12)))
          CFI (cfiCond214) V11 load(1, XDATA, add(CFA_XSP16, literal(-11)))
          CFI (cfiCond214) V12 load(1, XDATA, add(CFA_XSP16, literal(-10)))
          CFI (cfiCond214) V13 load(1, XDATA, add(CFA_XSP16, literal(-9)))
          CFI (cfiCond214) V14 load(1, XDATA, add(CFA_XSP16, literal(-8)))
          CFI (cfiCond214) V15 load(1, XDATA, add(CFA_XSP16, literal(-7)))
          CFI (cfiCond214) R7 load(1, XDATA, add(CFA_XSP16, literal(-6)))
          CFI (cfiCond214) ?RET_LOW load(1, XDATA, add(CFA_XSP16, literal(-5)))
          CFI (cfiCond214) ?RET_HIGH load(1, XDATA, add(CFA_XSP16, literal(-4)))
          CFI (cfiCond214) ?BRET_EXT load(1, XDATA, add(CFA_XSP16, literal(-3)))
          CFI (cfiCond214) DPL0 load(1, XDATA, add(CFA_XSP16, literal(-2)))
          CFI (cfiCond214) DPH0 load(1, XDATA, add(CFA_XSP16, literal(-1)))
          CFI (cfiCond214) CFA_SP SP+0
          CFI (cfiCond214) CFA_XSP16 add(XSP16, 27)
          CFI Block cfiCond215 Using cfiCommon0
          CFI (cfiCond215) Function MT_AfIncomingMsg
          CFI (cfiCond215) Conditional ??CrossCallReturnLabel_71, ??CrossCallReturnLabel_22
          CFI (cfiCond215) R6 load(1, XDATA, add(CFA_XSP16, literal(-24)))
          CFI (cfiCond215) VB load(1, XDATA, add(CFA_XSP16, literal(-23)))
          CFI (cfiCond215) V0 load(1, XDATA, add(CFA_XSP16, literal(-22)))
          CFI (cfiCond215) V1 load(1, XDATA, add(CFA_XSP16, literal(-21)))
          CFI (cfiCond215) V2 load(1, XDATA, add(CFA_XSP16, literal(-20)))
          CFI (cfiCond215) V3 load(1, XDATA, add(CFA_XSP16, literal(-19)))
          CFI (cfiCond215) V4 load(1, XDATA, add(CFA_XSP16, literal(-18)))
          CFI (cfiCond215) V5 load(1, XDATA, add(CFA_XSP16, literal(-17)))
          CFI (cfiCond215) V6 load(1, XDATA, add(CFA_XSP16, literal(-16)))
          CFI (cfiCond215) V7 load(1, XDATA, add(CFA_XSP16, literal(-15)))
          CFI (cfiCond215) V8 load(1, XDATA, add(CFA_XSP16, literal(-14)))
          CFI (cfiCond215) V9 load(1, XDATA, add(CFA_XSP16, literal(-13)))
          CFI (cfiCond215) V10 load(1, XDATA, add(CFA_XSP16, literal(-12)))
          CFI (cfiCond215) V11 load(1, XDATA, add(CFA_XSP16, literal(-11)))
          CFI (cfiCond215) V12 load(1, XDATA, add(CFA_XSP16, literal(-10)))
          CFI (cfiCond215) V13 load(1, XDATA, add(CFA_XSP16, literal(-9)))
          CFI (cfiCond215) V14 load(1, XDATA, add(CFA_XSP16, literal(-8)))
          CFI (cfiCond215) V15 load(1, XDATA, add(CFA_XSP16, literal(-7)))
          CFI (cfiCond215) R7 load(1, XDATA, add(CFA_XSP16, literal(-6)))
          CFI (cfiCond215) ?RET_LOW load(1, XDATA, add(CFA_XSP16, literal(-5)))
          CFI (cfiCond215) ?RET_HIGH load(1, XDATA, add(CFA_XSP16, literal(-4)))
          CFI (cfiCond215) ?BRET_EXT load(1, XDATA, add(CFA_XSP16, literal(-3)))
          CFI (cfiCond215) DPL0 load(1, XDATA, add(CFA_XSP16, literal(-2)))
          CFI (cfiCond215) DPH0 load(1, XDATA, add(CFA_XSP16, literal(-1)))
          CFI (cfiCond215) CFA_SP SP+0
          CFI (cfiCond215) CFA_XSP16 add(XSP16, 27)
          CFI Block cfiCond216 Using cfiCommon0
          CFI (cfiCond216) Function MT_AfDataStore
          CFI (cfiCond216) Conditional ??CrossCallReturnLabel_70
          CFI (cfiCond216) R6 load(1, XDATA, add(CFA_XSP16, literal(-14)))
          CFI (cfiCond216) VB load(1, XDATA, add(CFA_XSP16, literal(-13)))
          CFI (cfiCond216) V0 load(1, XDATA, add(CFA_XSP16, literal(-12)))
          CFI (cfiCond216) V1 load(1, XDATA, add(CFA_XSP16, literal(-11)))
          CFI (cfiCond216) V2 load(1, XDATA, add(CFA_XSP16, literal(-10)))
          CFI (cfiCond216) V3 load(1, XDATA, add(CFA_XSP16, literal(-9)))
          CFI (cfiCond216) V4 load(1, XDATA, add(CFA_XSP16, literal(-8)))
          CFI (cfiCond216) V5 load(1, XDATA, add(CFA_XSP16, literal(-7)))
          CFI (cfiCond216) R7 load(1, XDATA, add(CFA_XSP16, literal(-6)))
          CFI (cfiCond216) ?RET_LOW load(1, XDATA, add(CFA_XSP16, literal(-5)))
          CFI (cfiCond216) ?RET_HIGH load(1, XDATA, add(CFA_XSP16, literal(-4)))
          CFI (cfiCond216) ?BRET_EXT load(1, XDATA, add(CFA_XSP16, literal(-3)))
          CFI (cfiCond216) DPL0 load(1, XDATA, add(CFA_XSP16, literal(-2)))
          CFI (cfiCond216) DPH0 load(1, XDATA, add(CFA_XSP16, literal(-1)))
          CFI (cfiCond216) CFA_SP SP+0
          CFI (cfiCond216) CFA_XSP16 add(XSP16, 15)
          CFI Block cfiPicker217 Using cfiCommon1
          CFI (cfiPicker217) NoFunction
          CFI (cfiPicker217) Picker
        MOVX    A,@DPTR
        MOV     ?V0 + 4,A
        INC     DPTR
        MOVX    A,@DPTR
        MOV     ?V0 + 5,A
        RET
          CFI EndBlock cfiCond213
          CFI EndBlock cfiCond214
          CFI EndBlock cfiCond215
          CFI EndBlock cfiCond216
          CFI EndBlock cfiPicker217

        RSEG BANKED_CODE:CODE:NOROOT(0)
?Subroutine16:
          CFI Block cfiCond218 Using cfiCommon0
          CFI Function MT_AfIncomingMsg
          CFI Conditional ??CrossCallReturnLabel_16
          CFI R6 load(1, XDATA, add(CFA_XSP16, literal(-24)))
          CFI VB load(1, XDATA, add(CFA_XSP16, literal(-23)))
          CFI V0 load(1, XDATA, add(CFA_XSP16, literal(-22)))
          CFI V1 load(1, XDATA, add(CFA_XSP16, literal(-21)))
          CFI V2 load(1, XDATA, add(CFA_XSP16, literal(-20)))
          CFI V3 load(1, XDATA, add(CFA_XSP16, literal(-19)))
          CFI V4 load(1, XDATA, add(CFA_XSP16, literal(-18)))
          CFI V5 load(1, XDATA, add(CFA_XSP16, literal(-17)))
          CFI V6 load(1, XDATA, add(CFA_XSP16, literal(-16)))
          CFI V7 load(1, XDATA, add(CFA_XSP16, literal(-15)))
          CFI V8 load(1, XDATA, add(CFA_XSP16, literal(-14)))
          CFI V9 load(1, XDATA, add(CFA_XSP16, literal(-13)))
          CFI V10 load(1, XDATA, add(CFA_XSP16, literal(-12)))
          CFI V11 load(1, XDATA, add(CFA_XSP16, literal(-11)))
          CFI V12 load(1, XDATA, add(CFA_XSP16, literal(-10)))
          CFI V13 load(1, XDATA, add(CFA_XSP16, literal(-9)))
          CFI V14 load(1, XDATA, add(CFA_XSP16, literal(-8)))
          CFI V15 load(1, XDATA, add(CFA_XSP16, literal(-7)))
          CFI R7 load(1, XDATA, add(CFA_XSP16, literal(-6)))
          CFI ?RET_LOW load(1, XDATA, add(CFA_XSP16, literal(-5)))
          CFI ?RET_HIGH load(1, XDATA, add(CFA_XSP16, literal(-4)))
          CFI ?BRET_EXT load(1, XDATA, add(CFA_XSP16, literal(-3)))
          CFI DPL0 load(1, XDATA, add(CFA_XSP16, literal(-2)))
          CFI DPH0 load(1, XDATA, add(CFA_XSP16, literal(-1)))
          CFI CFA_SP SP+0
          CFI CFA_XSP16 add(XSP16, 27)
          CFI Block cfiCond219 Using cfiCommon0
          CFI (cfiCond219) Function MT_AfIncomingMsg
          CFI (cfiCond219) Conditional ??CrossCallReturnLabel_17
          CFI (cfiCond219) R6 load(1, XDATA, add(CFA_XSP16, literal(-24)))
          CFI (cfiCond219) VB load(1, XDATA, add(CFA_XSP16, literal(-23)))
          CFI (cfiCond219) V0 load(1, XDATA, add(CFA_XSP16, literal(-22)))
          CFI (cfiCond219) V1 load(1, XDATA, add(CFA_XSP16, literal(-21)))
          CFI (cfiCond219) V2 load(1, XDATA, add(CFA_XSP16, literal(-20)))
          CFI (cfiCond219) V3 load(1, XDATA, add(CFA_XSP16, literal(-19)))
          CFI (cfiCond219) V4 load(1, XDATA, add(CFA_XSP16, literal(-18)))
          CFI (cfiCond219) V5 load(1, XDATA, add(CFA_XSP16, literal(-17)))
          CFI (cfiCond219) V6 load(1, XDATA, add(CFA_XSP16, literal(-16)))
          CFI (cfiCond219) V7 load(1, XDATA, add(CFA_XSP16, literal(-15)))
          CFI (cfiCond219) V8 load(1, XDATA, add(CFA_XSP16, literal(-14)))
          CFI (cfiCond219) V9 load(1, XDATA, add(CFA_XSP16, literal(-13)))
          CFI (cfiCond219) V10 load(1, XDATA, add(CFA_XSP16, literal(-12)))
          CFI (cfiCond219) V11 load(1, XDATA, add(CFA_XSP16, literal(-11)))
          CFI (cfiCond219) V12 load(1, XDATA, add(CFA_XSP16, literal(-10)))
          CFI (cfiCond219) V13 load(1, XDATA, add(CFA_XSP16, literal(-9)))
          CFI (cfiCond219) V14 load(1, XDATA, add(CFA_XSP16, literal(-8)))
          CFI (cfiCond219) V15 load(1, XDATA, add(CFA_XSP16, literal(-7)))
          CFI (cfiCond219) R7 load(1, XDATA, add(CFA_XSP16, literal(-6)))
          CFI (cfiCond219) ?RET_LOW load(1, XDATA, add(CFA_XSP16, literal(-5)))
          CFI (cfiCond219) ?RET_HIGH load(1, XDATA, add(CFA_XSP16, literal(-4)))
          CFI (cfiCond219) ?BRET_EXT load(1, XDATA, add(CFA_XSP16, literal(-3)))
          CFI (cfiCond219) DPL0 load(1, XDATA, add(CFA_XSP16, literal(-2)))
          CFI (cfiCond219) DPH0 load(1, XDATA, add(CFA_XSP16, literal(-1)))
          CFI (cfiCond219) CFA_SP SP+0
          CFI (cfiCond219) CFA_XSP16 add(XSP16, 27)
          CFI Block cfiCond220 Using cfiCommon0
          CFI (cfiCond220) Function MT_AfIncomingMsg
          CFI (cfiCond220) Conditional ??CrossCallReturnLabel_18
          CFI (cfiCond220) R6 load(1, XDATA, add(CFA_XSP16, literal(-24)))
          CFI (cfiCond220) VB load(1, XDATA, add(CFA_XSP16, literal(-23)))
          CFI (cfiCond220) V0 load(1, XDATA, add(CFA_XSP16, literal(-22)))
          CFI (cfiCond220) V1 load(1, XDATA, add(CFA_XSP16, literal(-21)))
          CFI (cfiCond220) V2 load(1, XDATA, add(CFA_XSP16, literal(-20)))
          CFI (cfiCond220) V3 load(1, XDATA, add(CFA_XSP16, literal(-19)))
          CFI (cfiCond220) V4 load(1, XDATA, add(CFA_XSP16, literal(-18)))
          CFI (cfiCond220) V5 load(1, XDATA, add(CFA_XSP16, literal(-17)))
          CFI (cfiCond220) V6 load(1, XDATA, add(CFA_XSP16, literal(-16)))
          CFI (cfiCond220) V7 load(1, XDATA, add(CFA_XSP16, literal(-15)))
          CFI (cfiCond220) V8 load(1, XDATA, add(CFA_XSP16, literal(-14)))
          CFI (cfiCond220) V9 load(1, XDATA, add(CFA_XSP16, literal(-13)))
          CFI (cfiCond220) V10 load(1, XDATA, add(CFA_XSP16, literal(-12)))
          CFI (cfiCond220) V11 load(1, XDATA, add(CFA_XSP16, literal(-11)))
          CFI (cfiCond220) V12 load(1, XDATA, add(CFA_XSP16, literal(-10)))
          CFI (cfiCond220) V13 load(1, XDATA, add(CFA_XSP16, literal(-9)))
          CFI (cfiCond220) V14 load(1, XDATA, add(CFA_XSP16, literal(-8)))
          CFI (cfiCond220) V15 load(1, XDATA, add(CFA_XSP16, literal(-7)))
          CFI (cfiCond220) R7 load(1, XDATA, add(CFA_XSP16, literal(-6)))
          CFI (cfiCond220) ?RET_LOW load(1, XDATA, add(CFA_XSP16, literal(-5)))
          CFI (cfiCond220) ?RET_HIGH load(1, XDATA, add(CFA_XSP16, literal(-4)))
          CFI (cfiCond220) ?BRET_EXT load(1, XDATA, add(CFA_XSP16, literal(-3)))
          CFI (cfiCond220) DPL0 load(1, XDATA, add(CFA_XSP16, literal(-2)))
          CFI (cfiCond220) DPH0 load(1, XDATA, add(CFA_XSP16, literal(-1)))
          CFI (cfiCond220) CFA_SP SP+0
          CFI (cfiCond220) CFA_XSP16 add(XSP16, 27)
          CFI Block cfiPicker221 Using cfiCommon1
          CFI (cfiPicker221) NoFunction
          CFI (cfiPicker221) Picker
        LCALL   ?Subroutine51 & 0xFFFF
??CrossCallReturnLabel_137:
        RET
          CFI EndBlock cfiCond218
          CFI EndBlock cfiCond219
          CFI EndBlock cfiCond220
          CFI EndBlock cfiPicker221

        RSEG BANKED_CODE:CODE:NOROOT(0)
?Subroutine51:
          CFI Block cfiCond222 Using cfiCommon0
          CFI Function MT_AfIncomingMsg
          CFI Conditional ??CrossCallReturnLabel_137, ??CrossCallReturnLabel_16
          CFI R6 load(1, XDATA, add(CFA_XSP16, literal(-24)))
          CFI VB load(1, XDATA, add(CFA_XSP16, literal(-23)))
          CFI V0 load(1, XDATA, add(CFA_XSP16, literal(-22)))
          CFI V1 load(1, XDATA, add(CFA_XSP16, literal(-21)))
          CFI V2 load(1, XDATA, add(CFA_XSP16, literal(-20)))
          CFI V3 load(1, XDATA, add(CFA_XSP16, literal(-19)))
          CFI V4 load(1, XDATA, add(CFA_XSP16, literal(-18)))
          CFI V5 load(1, XDATA, add(CFA_XSP16, literal(-17)))
          CFI V6 load(1, XDATA, add(CFA_XSP16, literal(-16)))
          CFI V7 load(1, XDATA, add(CFA_XSP16, literal(-15)))
          CFI V8 load(1, XDATA, add(CFA_XSP16, literal(-14)))
          CFI V9 load(1, XDATA, add(CFA_XSP16, literal(-13)))
          CFI V10 load(1, XDATA, add(CFA_XSP16, literal(-12)))
          CFI V11 load(1, XDATA, add(CFA_XSP16, literal(-11)))
          CFI V12 load(1, XDATA, add(CFA_XSP16, literal(-10)))
          CFI V13 load(1, XDATA, add(CFA_XSP16, literal(-9)))
          CFI V14 load(1, XDATA, add(CFA_XSP16, literal(-8)))
          CFI V15 load(1, XDATA, add(CFA_XSP16, literal(-7)))
          CFI R7 load(1, XDATA, add(CFA_XSP16, literal(-6)))
          CFI ?RET_LOW load(1, XDATA, add(CFA_XSP16, literal(-5)))
          CFI ?RET_HIGH load(1, XDATA, add(CFA_XSP16, literal(-4)))
          CFI ?BRET_EXT load(1, XDATA, add(CFA_XSP16, literal(-3)))
          CFI DPL0 load(1, XDATA, add(CFA_XSP16, literal(-2)))
          CFI DPH0 load(1, XDATA, add(CFA_XSP16, literal(-1)))
          CFI CFA_SP SP+0
          CFI CFA_XSP16 add(XSP16, 27)
          CFI Block cfiCond223 Using cfiCommon0
          CFI (cfiCond223) Function MT_AfIncomingMsg
          CFI (cfiCond223) Conditional ??CrossCallReturnLabel_137, ??CrossCallReturnLabel_17
          CFI (cfiCond223) R6 load(1, XDATA, add(CFA_XSP16, literal(-24)))
          CFI (cfiCond223) VB load(1, XDATA, add(CFA_XSP16, literal(-23)))
          CFI (cfiCond223) V0 load(1, XDATA, add(CFA_XSP16, literal(-22)))
          CFI (cfiCond223) V1 load(1, XDATA, add(CFA_XSP16, literal(-21)))
          CFI (cfiCond223) V2 load(1, XDATA, add(CFA_XSP16, literal(-20)))
          CFI (cfiCond223) V3 load(1, XDATA, add(CFA_XSP16, literal(-19)))
          CFI (cfiCond223) V4 load(1, XDATA, add(CFA_XSP16, literal(-18)))
          CFI (cfiCond223) V5 load(1, XDATA, add(CFA_XSP16, literal(-17)))
          CFI (cfiCond223) V6 load(1, XDATA, add(CFA_XSP16, literal(-16)))
          CFI (cfiCond223) V7 load(1, XDATA, add(CFA_XSP16, literal(-15)))
          CFI (cfiCond223) V8 load(1, XDATA, add(CFA_XSP16, literal(-14)))
          CFI (cfiCond223) V9 load(1, XDATA, add(CFA_XSP16, literal(-13)))
          CFI (cfiCond223) V10 load(1, XDATA, add(CFA_XSP16, literal(-12)))
          CFI (cfiCond223) V11 load(1, XDATA, add(CFA_XSP16, literal(-11)))
          CFI (cfiCond223) V12 load(1, XDATA, add(CFA_XSP16, literal(-10)))
          CFI (cfiCond223) V13 load(1, XDATA, add(CFA_XSP16, literal(-9)))
          CFI (cfiCond223) V14 load(1, XDATA, add(CFA_XSP16, literal(-8)))
          CFI (cfiCond223) V15 load(1, XDATA, add(CFA_XSP16, literal(-7)))
          CFI (cfiCond223) R7 load(1, XDATA, add(CFA_XSP16, literal(-6)))
          CFI (cfiCond223) ?RET_LOW load(1, XDATA, add(CFA_XSP16, literal(-5)))
          CFI (cfiCond223) ?RET_HIGH load(1, XDATA, add(CFA_XSP16, literal(-4)))
          CFI (cfiCond223) ?BRET_EXT load(1, XDATA, add(CFA_XSP16, literal(-3)))
          CFI (cfiCond223) DPL0 load(1, XDATA, add(CFA_XSP16, literal(-2)))
          CFI (cfiCond223) DPH0 load(1, XDATA, add(CFA_XSP16, literal(-1)))
          CFI (cfiCond223) CFA_SP SP+0
          CFI (cfiCond223) CFA_XSP16 add(XSP16, 27)
          CFI Block cfiCond224 Using cfiCommon0
          CFI (cfiCond224) Function MT_AfIncomingMsg
          CFI (cfiCond224) Conditional ??CrossCallReturnLabel_137, ??CrossCallReturnLabel_18
          CFI (cfiCond224) R6 load(1, XDATA, add(CFA_XSP16, literal(-24)))
          CFI (cfiCond224) VB load(1, XDATA, add(CFA_XSP16, literal(-23)))
          CFI (cfiCond224) V0 load(1, XDATA, add(CFA_XSP16, literal(-22)))
          CFI (cfiCond224) V1 load(1, XDATA, add(CFA_XSP16, literal(-21)))
          CFI (cfiCond224) V2 load(1, XDATA, add(CFA_XSP16, literal(-20)))
          CFI (cfiCond224) V3 load(1, XDATA, add(CFA_XSP16, literal(-19)))
          CFI (cfiCond224) V4 load(1, XDATA, add(CFA_XSP16, literal(-18)))
          CFI (cfiCond224) V5 load(1, XDATA, add(CFA_XSP16, literal(-17)))
          CFI (cfiCond224) V6 load(1, XDATA, add(CFA_XSP16, literal(-16)))
          CFI (cfiCond224) V7 load(1, XDATA, add(CFA_XSP16, literal(-15)))
          CFI (cfiCond224) V8 load(1, XDATA, add(CFA_XSP16, literal(-14)))
          CFI (cfiCond224) V9 load(1, XDATA, add(CFA_XSP16, literal(-13)))
          CFI (cfiCond224) V10 load(1, XDATA, add(CFA_XSP16, literal(-12)))
          CFI (cfiCond224) V11 load(1, XDATA, add(CFA_XSP16, literal(-11)))
          CFI (cfiCond224) V12 load(1, XDATA, add(CFA_XSP16, literal(-10)))
          CFI (cfiCond224) V13 load(1, XDATA, add(CFA_XSP16, literal(-9)))
          CFI (cfiCond224) V14 load(1, XDATA, add(CFA_XSP16, literal(-8)))
          CFI (cfiCond224) V15 load(1, XDATA, add(CFA_XSP16, literal(-7)))
          CFI (cfiCond224) R7 load(1, XDATA, add(CFA_XSP16, literal(-6)))
          CFI (cfiCond224) ?RET_LOW load(1, XDATA, add(CFA_XSP16, literal(-5)))
          CFI (cfiCond224) ?RET_HIGH load(1, XDATA, add(CFA_XSP16, literal(-4)))
          CFI (cfiCond224) ?BRET_EXT load(1, XDATA, add(CFA_XSP16, literal(-3)))
          CFI (cfiCond224) DPL0 load(1, XDATA, add(CFA_XSP16, literal(-2)))
          CFI (cfiCond224) DPH0 load(1, XDATA, add(CFA_XSP16, literal(-1)))
          CFI (cfiCond224) CFA_SP SP+0
          CFI (cfiCond224) CFA_XSP16 add(XSP16, 27)
          CFI Block cfiCond225 Using cfiCommon0
          CFI (cfiCond225) Function MT_AfIncomingMsg
          CFI (cfiCond225) Conditional ??CrossCallReturnLabel_138, ??CrossCallReturnLabel_135, ??CrossCallReturnLabel_4
          CFI (cfiCond225) R6 load(1, XDATA, add(CFA_XSP16, literal(-24)))
          CFI (cfiCond225) VB load(1, XDATA, add(CFA_XSP16, literal(-23)))
          CFI (cfiCond225) V0 load(1, XDATA, add(CFA_XSP16, literal(-22)))
          CFI (cfiCond225) V1 load(1, XDATA, add(CFA_XSP16, literal(-21)))
          CFI (cfiCond225) V2 load(1, XDATA, add(CFA_XSP16, literal(-20)))
          CFI (cfiCond225) V3 load(1, XDATA, add(CFA_XSP16, literal(-19)))
          CFI (cfiCond225) V4 load(1, XDATA, add(CFA_XSP16, literal(-18)))
          CFI (cfiCond225) V5 load(1, XDATA, add(CFA_XSP16, literal(-17)))
          CFI (cfiCond225) V6 load(1, XDATA, add(CFA_XSP16, literal(-16)))
          CFI (cfiCond225) V7 load(1, XDATA, add(CFA_XSP16, literal(-15)))
          CFI (cfiCond225) V8 load(1, XDATA, add(CFA_XSP16, literal(-14)))
          CFI (cfiCond225) V9 load(1, XDATA, add(CFA_XSP16, literal(-13)))
          CFI (cfiCond225) V10 load(1, XDATA, add(CFA_XSP16, literal(-12)))
          CFI (cfiCond225) V11 load(1, XDATA, add(CFA_XSP16, literal(-11)))
          CFI (cfiCond225) V12 load(1, XDATA, add(CFA_XSP16, literal(-10)))
          CFI (cfiCond225) V13 load(1, XDATA, add(CFA_XSP16, literal(-9)))
          CFI (cfiCond225) V14 load(1, XDATA, add(CFA_XSP16, literal(-8)))
          CFI (cfiCond225) V15 load(1, XDATA, add(CFA_XSP16, literal(-7)))
          CFI (cfiCond225) R7 load(1, XDATA, add(CFA_XSP16, literal(-6)))
          CFI (cfiCond225) ?RET_LOW load(1, XDATA, add(CFA_XSP16, literal(-5)))
          CFI (cfiCond225) ?RET_HIGH load(1, XDATA, add(CFA_XSP16, literal(-4)))
          CFI (cfiCond225) ?BRET_EXT load(1, XDATA, add(CFA_XSP16, literal(-3)))
          CFI (cfiCond225) DPL0 load(1, XDATA, add(CFA_XSP16, literal(-2)))
          CFI (cfiCond225) DPH0 load(1, XDATA, add(CFA_XSP16, literal(-1)))
          CFI (cfiCond225) CFA_SP SP+0
          CFI (cfiCond225) CFA_XSP16 add(XSP16, 27)
          CFI Block cfiCond226 Using cfiCommon0
          CFI (cfiCond226) Function MT_AfIncomingMsg
          CFI (cfiCond226) Conditional ??CrossCallReturnLabel_138, ??CrossCallReturnLabel_135, ??CrossCallReturnLabel_5
          CFI (cfiCond226) R6 load(1, XDATA, add(CFA_XSP16, literal(-24)))
          CFI (cfiCond226) VB load(1, XDATA, add(CFA_XSP16, literal(-23)))
          CFI (cfiCond226) V0 load(1, XDATA, add(CFA_XSP16, literal(-22)))
          CFI (cfiCond226) V1 load(1, XDATA, add(CFA_XSP16, literal(-21)))
          CFI (cfiCond226) V2 load(1, XDATA, add(CFA_XSP16, literal(-20)))
          CFI (cfiCond226) V3 load(1, XDATA, add(CFA_XSP16, literal(-19)))
          CFI (cfiCond226) V4 load(1, XDATA, add(CFA_XSP16, literal(-18)))
          CFI (cfiCond226) V5 load(1, XDATA, add(CFA_XSP16, literal(-17)))
          CFI (cfiCond226) V6 load(1, XDATA, add(CFA_XSP16, literal(-16)))
          CFI (cfiCond226) V7 load(1, XDATA, add(CFA_XSP16, literal(-15)))
          CFI (cfiCond226) V8 load(1, XDATA, add(CFA_XSP16, literal(-14)))
          CFI (cfiCond226) V9 load(1, XDATA, add(CFA_XSP16, literal(-13)))
          CFI (cfiCond226) V10 load(1, XDATA, add(CFA_XSP16, literal(-12)))
          CFI (cfiCond226) V11 load(1, XDATA, add(CFA_XSP16, literal(-11)))
          CFI (cfiCond226) V12 load(1, XDATA, add(CFA_XSP16, literal(-10)))
          CFI (cfiCond226) V13 load(1, XDATA, add(CFA_XSP16, literal(-9)))
          CFI (cfiCond226) V14 load(1, XDATA, add(CFA_XSP16, literal(-8)))
          CFI (cfiCond226) V15 load(1, XDATA, add(CFA_XSP16, literal(-7)))
          CFI (cfiCond226) R7 load(1, XDATA, add(CFA_XSP16, literal(-6)))
          CFI (cfiCond226) ?RET_LOW load(1, XDATA, add(CFA_XSP16, literal(-5)))
          CFI (cfiCond226) ?RET_HIGH load(1, XDATA, add(CFA_XSP16, literal(-4)))
          CFI (cfiCond226) ?BRET_EXT load(1, XDATA, add(CFA_XSP16, literal(-3)))
          CFI (cfiCond226) DPL0 load(1, XDATA, add(CFA_XSP16, literal(-2)))
          CFI (cfiCond226) DPH0 load(1, XDATA, add(CFA_XSP16, literal(-1)))
          CFI (cfiCond226) CFA_SP SP+0
          CFI (cfiCond226) CFA_XSP16 add(XSP16, 27)
          CFI Block cfiCond227 Using cfiCommon0
          CFI (cfiCond227) Function MT_AfIncomingMsg
          CFI (cfiCond227) Conditional ??CrossCallReturnLabel_138, ??CrossCallReturnLabel_134, ??CrossCallReturnLabel_0
          CFI (cfiCond227) R6 load(1, XDATA, add(CFA_XSP16, literal(-24)))
          CFI (cfiCond227) VB load(1, XDATA, add(CFA_XSP16, literal(-23)))
          CFI (cfiCond227) V0 load(1, XDATA, add(CFA_XSP16, literal(-22)))
          CFI (cfiCond227) V1 load(1, XDATA, add(CFA_XSP16, literal(-21)))
          CFI (cfiCond227) V2 load(1, XDATA, add(CFA_XSP16, literal(-20)))
          CFI (cfiCond227) V3 load(1, XDATA, add(CFA_XSP16, literal(-19)))
          CFI (cfiCond227) V4 load(1, XDATA, add(CFA_XSP16, literal(-18)))
          CFI (cfiCond227) V5 load(1, XDATA, add(CFA_XSP16, literal(-17)))
          CFI (cfiCond227) V6 load(1, XDATA, add(CFA_XSP16, literal(-16)))
          CFI (cfiCond227) V7 load(1, XDATA, add(CFA_XSP16, literal(-15)))
          CFI (cfiCond227) V8 load(1, XDATA, add(CFA_XSP16, literal(-14)))
          CFI (cfiCond227) V9 load(1, XDATA, add(CFA_XSP16, literal(-13)))
          CFI (cfiCond227) V10 load(1, XDATA, add(CFA_XSP16, literal(-12)))
          CFI (cfiCond227) V11 load(1, XDATA, add(CFA_XSP16, literal(-11)))
          CFI (cfiCond227) V12 load(1, XDATA, add(CFA_XSP16, literal(-10)))
          CFI (cfiCond227) V13 load(1, XDATA, add(CFA_XSP16, literal(-9)))
          CFI (cfiCond227) V14 load(1, XDATA, add(CFA_XSP16, literal(-8)))
          CFI (cfiCond227) V15 load(1, XDATA, add(CFA_XSP16, literal(-7)))
          CFI (cfiCond227) R7 load(1, XDATA, add(CFA_XSP16, literal(-6)))
          CFI (cfiCond227) ?RET_LOW load(1, XDATA, add(CFA_XSP16, literal(-5)))
          CFI (cfiCond227) ?RET_HIGH load(1, XDATA, add(CFA_XSP16, literal(-4)))
          CFI (cfiCond227) ?BRET_EXT load(1, XDATA, add(CFA_XSP16, literal(-3)))
          CFI (cfiCond227) DPL0 load(1, XDATA, add(CFA_XSP16, literal(-2)))
          CFI (cfiCond227) DPH0 load(1, XDATA, add(CFA_XSP16, literal(-1)))
          CFI (cfiCond227) CFA_SP SP+0
          CFI (cfiCond227) CFA_XSP16 add(XSP16, 27)
          CFI Block cfiCond228 Using cfiCommon0
          CFI (cfiCond228) Function MT_AfIncomingMsg
          CFI (cfiCond228) Conditional ??CrossCallReturnLabel_138, ??CrossCallReturnLabel_134, ??CrossCallReturnLabel_1
          CFI (cfiCond228) R6 load(1, XDATA, add(CFA_XSP16, literal(-24)))
          CFI (cfiCond228) VB load(1, XDATA, add(CFA_XSP16, literal(-23)))
          CFI (cfiCond228) V0 load(1, XDATA, add(CFA_XSP16, literal(-22)))
          CFI (cfiCond228) V1 load(1, XDATA, add(CFA_XSP16, literal(-21)))
          CFI (cfiCond228) V2 load(1, XDATA, add(CFA_XSP16, literal(-20)))
          CFI (cfiCond228) V3 load(1, XDATA, add(CFA_XSP16, literal(-19)))
          CFI (cfiCond228) V4 load(1, XDATA, add(CFA_XSP16, literal(-18)))
          CFI (cfiCond228) V5 load(1, XDATA, add(CFA_XSP16, literal(-17)))
          CFI (cfiCond228) V6 load(1, XDATA, add(CFA_XSP16, literal(-16)))
          CFI (cfiCond228) V7 load(1, XDATA, add(CFA_XSP16, literal(-15)))
          CFI (cfiCond228) V8 load(1, XDATA, add(CFA_XSP16, literal(-14)))
          CFI (cfiCond228) V9 load(1, XDATA, add(CFA_XSP16, literal(-13)))
          CFI (cfiCond228) V10 load(1, XDATA, add(CFA_XSP16, literal(-12)))
          CFI (cfiCond228) V11 load(1, XDATA, add(CFA_XSP16, literal(-11)))
          CFI (cfiCond228) V12 load(1, XDATA, add(CFA_XSP16, literal(-10)))
          CFI (cfiCond228) V13 load(1, XDATA, add(CFA_XSP16, literal(-9)))
          CFI (cfiCond228) V14 load(1, XDATA, add(CFA_XSP16, literal(-8)))
          CFI (cfiCond228) V15 load(1, XDATA, add(CFA_XSP16, literal(-7)))
          CFI (cfiCond228) R7 load(1, XDATA, add(CFA_XSP16, literal(-6)))
          CFI (cfiCond228) ?RET_LOW load(1, XDATA, add(CFA_XSP16, literal(-5)))
          CFI (cfiCond228) ?RET_HIGH load(1, XDATA, add(CFA_XSP16, literal(-4)))
          CFI (cfiCond228) ?BRET_EXT load(1, XDATA, add(CFA_XSP16, literal(-3)))
          CFI (cfiCond228) DPL0 load(1, XDATA, add(CFA_XSP16, literal(-2)))
          CFI (cfiCond228) DPH0 load(1, XDATA, add(CFA_XSP16, literal(-1)))
          CFI (cfiCond228) CFA_SP SP+0
          CFI (cfiCond228) CFA_XSP16 add(XSP16, 27)
          CFI Block cfiCond229 Using cfiCommon0
          CFI (cfiCond229) Function MT_AfIncomingMsg
          CFI (cfiCond229) Conditional ??CrossCallReturnLabel_138, ??CrossCallReturnLabel_136, ??CrossCallReturnLabel_128
          CFI (cfiCond229) R6 load(1, XDATA, add(CFA_XSP16, literal(-24)))
          CFI (cfiCond229) VB load(1, XDATA, add(CFA_XSP16, literal(-23)))
          CFI (cfiCond229) V0 load(1, XDATA, add(CFA_XSP16, literal(-22)))
          CFI (cfiCond229) V1 load(1, XDATA, add(CFA_XSP16, literal(-21)))
          CFI (cfiCond229) V2 load(1, XDATA, add(CFA_XSP16, literal(-20)))
          CFI (cfiCond229) V3 load(1, XDATA, add(CFA_XSP16, literal(-19)))
          CFI (cfiCond229) V4 load(1, XDATA, add(CFA_XSP16, literal(-18)))
          CFI (cfiCond229) V5 load(1, XDATA, add(CFA_XSP16, literal(-17)))
          CFI (cfiCond229) V6 load(1, XDATA, add(CFA_XSP16, literal(-16)))
          CFI (cfiCond229) V7 load(1, XDATA, add(CFA_XSP16, literal(-15)))
          CFI (cfiCond229) V8 load(1, XDATA, add(CFA_XSP16, literal(-14)))
          CFI (cfiCond229) V9 load(1, XDATA, add(CFA_XSP16, literal(-13)))
          CFI (cfiCond229) V10 load(1, XDATA, add(CFA_XSP16, literal(-12)))
          CFI (cfiCond229) V11 load(1, XDATA, add(CFA_XSP16, literal(-11)))
          CFI (cfiCond229) V12 load(1, XDATA, add(CFA_XSP16, literal(-10)))
          CFI (cfiCond229) V13 load(1, XDATA, add(CFA_XSP16, literal(-9)))
          CFI (cfiCond229) V14 load(1, XDATA, add(CFA_XSP16, literal(-8)))
          CFI (cfiCond229) V15 load(1, XDATA, add(CFA_XSP16, literal(-7)))
          CFI (cfiCond229) R7 load(1, XDATA, add(CFA_XSP16, literal(-6)))
          CFI (cfiCond229) ?RET_LOW load(1, XDATA, add(CFA_XSP16, literal(-5)))
          CFI (cfiCond229) ?RET_HIGH load(1, XDATA, add(CFA_XSP16, literal(-4)))
          CFI (cfiCond229) ?BRET_EXT load(1, XDATA, add(CFA_XSP16, literal(-3)))
          CFI (cfiCond229) DPL0 load(1, XDATA, add(CFA_XSP16, literal(-2)))
          CFI (cfiCond229) DPH0 load(1, XDATA, add(CFA_XSP16, literal(-1)))
          CFI (cfiCond229) CFA_SP SP+0
          CFI (cfiCond229) CFA_XSP16 add(XSP16, 27)
          CFI Block cfiCond230 Using cfiCommon0
          CFI (cfiCond230) Function MT_AfIncomingMsg
          CFI (cfiCond230) Conditional ??CrossCallReturnLabel_138, ??CrossCallReturnLabel_136, ??CrossCallReturnLabel_129
          CFI (cfiCond230) R6 load(1, XDATA, add(CFA_XSP16, literal(-24)))
          CFI (cfiCond230) VB load(1, XDATA, add(CFA_XSP16, literal(-23)))
          CFI (cfiCond230) V0 load(1, XDATA, add(CFA_XSP16, literal(-22)))
          CFI (cfiCond230) V1 load(1, XDATA, add(CFA_XSP16, literal(-21)))
          CFI (cfiCond230) V2 load(1, XDATA, add(CFA_XSP16, literal(-20)))
          CFI (cfiCond230) V3 load(1, XDATA, add(CFA_XSP16, literal(-19)))
          CFI (cfiCond230) V4 load(1, XDATA, add(CFA_XSP16, literal(-18)))
          CFI (cfiCond230) V5 load(1, XDATA, add(CFA_XSP16, literal(-17)))
          CFI (cfiCond230) V6 load(1, XDATA, add(CFA_XSP16, literal(-16)))
          CFI (cfiCond230) V7 load(1, XDATA, add(CFA_XSP16, literal(-15)))
          CFI (cfiCond230) V8 load(1, XDATA, add(CFA_XSP16, literal(-14)))
          CFI (cfiCond230) V9 load(1, XDATA, add(CFA_XSP16, literal(-13)))
          CFI (cfiCond230) V10 load(1, XDATA, add(CFA_XSP16, literal(-12)))
          CFI (cfiCond230) V11 load(1, XDATA, add(CFA_XSP16, literal(-11)))
          CFI (cfiCond230) V12 load(1, XDATA, add(CFA_XSP16, literal(-10)))
          CFI (cfiCond230) V13 load(1, XDATA, add(CFA_XSP16, literal(-9)))
          CFI (cfiCond230) V14 load(1, XDATA, add(CFA_XSP16, literal(-8)))
          CFI (cfiCond230) V15 load(1, XDATA, add(CFA_XSP16, literal(-7)))
          CFI (cfiCond230) R7 load(1, XDATA, add(CFA_XSP16, literal(-6)))
          CFI (cfiCond230) ?RET_LOW load(1, XDATA, add(CFA_XSP16, literal(-5)))
          CFI (cfiCond230) ?RET_HIGH load(1, XDATA, add(CFA_XSP16, literal(-4)))
          CFI (cfiCond230) ?BRET_EXT load(1, XDATA, add(CFA_XSP16, literal(-3)))
          CFI (cfiCond230) DPL0 load(1, XDATA, add(CFA_XSP16, literal(-2)))
          CFI (cfiCond230) DPH0 load(1, XDATA, add(CFA_XSP16, literal(-1)))
          CFI (cfiCond230) CFA_SP SP+0
          CFI (cfiCond230) CFA_XSP16 add(XSP16, 27)
          CFI Block cfiCond231 Using cfiCommon0
          CFI (cfiCond231) Function MT_AfIncomingMsg
          CFI (cfiCond231) Conditional ??CrossCallReturnLabel_138, ??CrossCallReturnLabel_136, ??CrossCallReturnLabel_130
          CFI (cfiCond231) R6 load(1, XDATA, add(CFA_XSP16, literal(-24)))
          CFI (cfiCond231) VB load(1, XDATA, add(CFA_XSP16, literal(-23)))
          CFI (cfiCond231) V0 load(1, XDATA, add(CFA_XSP16, literal(-22)))
          CFI (cfiCond231) V1 load(1, XDATA, add(CFA_XSP16, literal(-21)))
          CFI (cfiCond231) V2 load(1, XDATA, add(CFA_XSP16, literal(-20)))
          CFI (cfiCond231) V3 load(1, XDATA, add(CFA_XSP16, literal(-19)))
          CFI (cfiCond231) V4 load(1, XDATA, add(CFA_XSP16, literal(-18)))
          CFI (cfiCond231) V5 load(1, XDATA, add(CFA_XSP16, literal(-17)))
          CFI (cfiCond231) V6 load(1, XDATA, add(CFA_XSP16, literal(-16)))
          CFI (cfiCond231) V7 load(1, XDATA, add(CFA_XSP16, literal(-15)))
          CFI (cfiCond231) V8 load(1, XDATA, add(CFA_XSP16, literal(-14)))
          CFI (cfiCond231) V9 load(1, XDATA, add(CFA_XSP16, literal(-13)))
          CFI (cfiCond231) V10 load(1, XDATA, add(CFA_XSP16, literal(-12)))
          CFI (cfiCond231) V11 load(1, XDATA, add(CFA_XSP16, literal(-11)))
          CFI (cfiCond231) V12 load(1, XDATA, add(CFA_XSP16, literal(-10)))
          CFI (cfiCond231) V13 load(1, XDATA, add(CFA_XSP16, literal(-9)))
          CFI (cfiCond231) V14 load(1, XDATA, add(CFA_XSP16, literal(-8)))
          CFI (cfiCond231) V15 load(1, XDATA, add(CFA_XSP16, literal(-7)))
          CFI (cfiCond231) R7 load(1, XDATA, add(CFA_XSP16, literal(-6)))
          CFI (cfiCond231) ?RET_LOW load(1, XDATA, add(CFA_XSP16, literal(-5)))
          CFI (cfiCond231) ?RET_HIGH load(1, XDATA, add(CFA_XSP16, literal(-4)))
          CFI (cfiCond231) ?BRET_EXT load(1, XDATA, add(CFA_XSP16, literal(-3)))
          CFI (cfiCond231) DPL0 load(1, XDATA, add(CFA_XSP16, literal(-2)))
          CFI (cfiCond231) DPH0 load(1, XDATA, add(CFA_XSP16, literal(-1)))
          CFI (cfiCond231) CFA_SP SP+0
          CFI (cfiCond231) CFA_XSP16 add(XSP16, 27)
          CFI Block cfiCond232 Using cfiCommon0
          CFI (cfiCond232) Function MT_AfIncomingMsg
          CFI (cfiCond232) Conditional ??CrossCallReturnLabel_138, ??CrossCallReturnLabel_136, ??CrossCallReturnLabel_131
          CFI (cfiCond232) R6 load(1, XDATA, add(CFA_XSP16, literal(-24)))
          CFI (cfiCond232) VB load(1, XDATA, add(CFA_XSP16, literal(-23)))
          CFI (cfiCond232) V0 load(1, XDATA, add(CFA_XSP16, literal(-22)))
          CFI (cfiCond232) V1 load(1, XDATA, add(CFA_XSP16, literal(-21)))
          CFI (cfiCond232) V2 load(1, XDATA, add(CFA_XSP16, literal(-20)))
          CFI (cfiCond232) V3 load(1, XDATA, add(CFA_XSP16, literal(-19)))
          CFI (cfiCond232) V4 load(1, XDATA, add(CFA_XSP16, literal(-18)))
          CFI (cfiCond232) V5 load(1, XDATA, add(CFA_XSP16, literal(-17)))
          CFI (cfiCond232) V6 load(1, XDATA, add(CFA_XSP16, literal(-16)))
          CFI (cfiCond232) V7 load(1, XDATA, add(CFA_XSP16, literal(-15)))
          CFI (cfiCond232) V8 load(1, XDATA, add(CFA_XSP16, literal(-14)))
          CFI (cfiCond232) V9 load(1, XDATA, add(CFA_XSP16, literal(-13)))
          CFI (cfiCond232) V10 load(1, XDATA, add(CFA_XSP16, literal(-12)))
          CFI (cfiCond232) V11 load(1, XDATA, add(CFA_XSP16, literal(-11)))
          CFI (cfiCond232) V12 load(1, XDATA, add(CFA_XSP16, literal(-10)))
          CFI (cfiCond232) V13 load(1, XDATA, add(CFA_XSP16, literal(-9)))
          CFI (cfiCond232) V14 load(1, XDATA, add(CFA_XSP16, literal(-8)))
          CFI (cfiCond232) V15 load(1, XDATA, add(CFA_XSP16, literal(-7)))
          CFI (cfiCond232) R7 load(1, XDATA, add(CFA_XSP16, literal(-6)))
          CFI (cfiCond232) ?RET_LOW load(1, XDATA, add(CFA_XSP16, literal(-5)))
          CFI (cfiCond232) ?RET_HIGH load(1, XDATA, add(CFA_XSP16, literal(-4)))
          CFI (cfiCond232) ?BRET_EXT load(1, XDATA, add(CFA_XSP16, literal(-3)))
          CFI (cfiCond232) DPL0 load(1, XDATA, add(CFA_XSP16, literal(-2)))
          CFI (cfiCond232) DPH0 load(1, XDATA, add(CFA_XSP16, literal(-1)))
          CFI (cfiCond232) CFA_SP SP+0
          CFI (cfiCond232) CFA_XSP16 add(XSP16, 27)
          CFI Block cfiCond233 Using cfiCommon0
          CFI (cfiCond233) Function MT_AfIncomingMsg
          CFI (cfiCond233) Conditional ??CrossCallReturnLabel_138, ??CrossCallReturnLabel_136, ??CrossCallReturnLabel_132
          CFI (cfiCond233) R6 load(1, XDATA, add(CFA_XSP16, literal(-24)))
          CFI (cfiCond233) VB load(1, XDATA, add(CFA_XSP16, literal(-23)))
          CFI (cfiCond233) V0 load(1, XDATA, add(CFA_XSP16, literal(-22)))
          CFI (cfiCond233) V1 load(1, XDATA, add(CFA_XSP16, literal(-21)))
          CFI (cfiCond233) V2 load(1, XDATA, add(CFA_XSP16, literal(-20)))
          CFI (cfiCond233) V3 load(1, XDATA, add(CFA_XSP16, literal(-19)))
          CFI (cfiCond233) V4 load(1, XDATA, add(CFA_XSP16, literal(-18)))
          CFI (cfiCond233) V5 load(1, XDATA, add(CFA_XSP16, literal(-17)))
          CFI (cfiCond233) V6 load(1, XDATA, add(CFA_XSP16, literal(-16)))
          CFI (cfiCond233) V7 load(1, XDATA, add(CFA_XSP16, literal(-15)))
          CFI (cfiCond233) V8 load(1, XDATA, add(CFA_XSP16, literal(-14)))
          CFI (cfiCond233) V9 load(1, XDATA, add(CFA_XSP16, literal(-13)))
          CFI (cfiCond233) V10 load(1, XDATA, add(CFA_XSP16, literal(-12)))
          CFI (cfiCond233) V11 load(1, XDATA, add(CFA_XSP16, literal(-11)))
          CFI (cfiCond233) V12 load(1, XDATA, add(CFA_XSP16, literal(-10)))
          CFI (cfiCond233) V13 load(1, XDATA, add(CFA_XSP16, literal(-9)))
          CFI (cfiCond233) V14 load(1, XDATA, add(CFA_XSP16, literal(-8)))
          CFI (cfiCond233) V15 load(1, XDATA, add(CFA_XSP16, literal(-7)))
          CFI (cfiCond233) R7 load(1, XDATA, add(CFA_XSP16, literal(-6)))
          CFI (cfiCond233) ?RET_LOW load(1, XDATA, add(CFA_XSP16, literal(-5)))
          CFI (cfiCond233) ?RET_HIGH load(1, XDATA, add(CFA_XSP16, literal(-4)))
          CFI (cfiCond233) ?BRET_EXT load(1, XDATA, add(CFA_XSP16, literal(-3)))
          CFI (cfiCond233) DPL0 load(1, XDATA, add(CFA_XSP16, literal(-2)))
          CFI (cfiCond233) DPH0 load(1, XDATA, add(CFA_XSP16, literal(-1)))
          CFI (cfiCond233) CFA_SP SP+0
          CFI (cfiCond233) CFA_XSP16 add(XSP16, 27)
          CFI Block cfiCond234 Using cfiCommon0
          CFI (cfiCond234) Function MT_AfIncomingMsg
          CFI (cfiCond234) Conditional ??CrossCallReturnLabel_138, ??CrossCallReturnLabel_136, ??CrossCallReturnLabel_133
          CFI (cfiCond234) R6 load(1, XDATA, add(CFA_XSP16, literal(-24)))
          CFI (cfiCond234) VB load(1, XDATA, add(CFA_XSP16, literal(-23)))
          CFI (cfiCond234) V0 load(1, XDATA, add(CFA_XSP16, literal(-22)))
          CFI (cfiCond234) V1 load(1, XDATA, add(CFA_XSP16, literal(-21)))
          CFI (cfiCond234) V2 load(1, XDATA, add(CFA_XSP16, literal(-20)))
          CFI (cfiCond234) V3 load(1, XDATA, add(CFA_XSP16, literal(-19)))
          CFI (cfiCond234) V4 load(1, XDATA, add(CFA_XSP16, literal(-18)))
          CFI (cfiCond234) V5 load(1, XDATA, add(CFA_XSP16, literal(-17)))
          CFI (cfiCond234) V6 load(1, XDATA, add(CFA_XSP16, literal(-16)))
          CFI (cfiCond234) V7 load(1, XDATA, add(CFA_XSP16, literal(-15)))
          CFI (cfiCond234) V8 load(1, XDATA, add(CFA_XSP16, literal(-14)))
          CFI (cfiCond234) V9 load(1, XDATA, add(CFA_XSP16, literal(-13)))
          CFI (cfiCond234) V10 load(1, XDATA, add(CFA_XSP16, literal(-12)))
          CFI (cfiCond234) V11 load(1, XDATA, add(CFA_XSP16, literal(-11)))
          CFI (cfiCond234) V12 load(1, XDATA, add(CFA_XSP16, literal(-10)))
          CFI (cfiCond234) V13 load(1, XDATA, add(CFA_XSP16, literal(-9)))
          CFI (cfiCond234) V14 load(1, XDATA, add(CFA_XSP16, literal(-8)))
          CFI (cfiCond234) V15 load(1, XDATA, add(CFA_XSP16, literal(-7)))
          CFI (cfiCond234) R7 load(1, XDATA, add(CFA_XSP16, literal(-6)))
          CFI (cfiCond234) ?RET_LOW load(1, XDATA, add(CFA_XSP16, literal(-5)))
          CFI (cfiCond234) ?RET_HIGH load(1, XDATA, add(CFA_XSP16, literal(-4)))
          CFI (cfiCond234) ?BRET_EXT load(1, XDATA, add(CFA_XSP16, literal(-3)))
          CFI (cfiCond234) DPL0 load(1, XDATA, add(CFA_XSP16, literal(-2)))
          CFI (cfiCond234) DPH0 load(1, XDATA, add(CFA_XSP16, literal(-1)))
          CFI (cfiCond234) CFA_SP SP+0
          CFI (cfiCond234) CFA_XSP16 add(XSP16, 27)
          CFI Block cfiPicker235 Using cfiCommon1
          CFI (cfiPicker235) NoFunction
          CFI (cfiPicker235) Picker
        MOVX    A,@DPTR
        MOV     DPL,?V0 + 2
        MOV     DPH,?V0 + 3
        MOVX    @DPTR,A
        RET
          CFI EndBlock cfiCond222
          CFI EndBlock cfiCond223
          CFI EndBlock cfiCond224
          CFI EndBlock cfiCond225
          CFI EndBlock cfiCond226
          CFI EndBlock cfiCond227
          CFI EndBlock cfiCond228
          CFI EndBlock cfiCond229
          CFI EndBlock cfiCond230
          CFI EndBlock cfiCond231
          CFI EndBlock cfiCond232
          CFI EndBlock cfiCond233
          CFI EndBlock cfiCond234
          CFI EndBlock cfiPicker235

        RSEG BANKED_CODE:CODE:NOROOT(0)
?Subroutine9:
          CFI Block cfiCond236 Using cfiCommon0
          CFI Function MT_AfIncomingMsg
          CFI Conditional ??CrossCallReturnLabel_4
          CFI R6 load(1, XDATA, add(CFA_XSP16, literal(-24)))
          CFI VB load(1, XDATA, add(CFA_XSP16, literal(-23)))
          CFI V0 load(1, XDATA, add(CFA_XSP16, literal(-22)))
          CFI V1 load(1, XDATA, add(CFA_XSP16, literal(-21)))
          CFI V2 load(1, XDATA, add(CFA_XSP16, literal(-20)))
          CFI V3 load(1, XDATA, add(CFA_XSP16, literal(-19)))
          CFI V4 load(1, XDATA, add(CFA_XSP16, literal(-18)))
          CFI V5 load(1, XDATA, add(CFA_XSP16, literal(-17)))
          CFI V6 load(1, XDATA, add(CFA_XSP16, literal(-16)))
          CFI V7 load(1, XDATA, add(CFA_XSP16, literal(-15)))
          CFI V8 load(1, XDATA, add(CFA_XSP16, literal(-14)))
          CFI V9 load(1, XDATA, add(CFA_XSP16, literal(-13)))
          CFI V10 load(1, XDATA, add(CFA_XSP16, literal(-12)))
          CFI V11 load(1, XDATA, add(CFA_XSP16, literal(-11)))
          CFI V12 load(1, XDATA, add(CFA_XSP16, literal(-10)))
          CFI V13 load(1, XDATA, add(CFA_XSP16, literal(-9)))
          CFI V14 load(1, XDATA, add(CFA_XSP16, literal(-8)))
          CFI V15 load(1, XDATA, add(CFA_XSP16, literal(-7)))
          CFI R7 load(1, XDATA, add(CFA_XSP16, literal(-6)))
          CFI ?RET_LOW load(1, XDATA, add(CFA_XSP16, literal(-5)))
          CFI ?RET_HIGH load(1, XDATA, add(CFA_XSP16, literal(-4)))
          CFI ?BRET_EXT load(1, XDATA, add(CFA_XSP16, literal(-3)))
          CFI DPL0 load(1, XDATA, add(CFA_XSP16, literal(-2)))
          CFI DPH0 load(1, XDATA, add(CFA_XSP16, literal(-1)))
          CFI CFA_SP SP+0
          CFI CFA_XSP16 add(XSP16, 27)
          CFI Block cfiCond237 Using cfiCommon0
          CFI (cfiCond237) Function MT_AfIncomingMsg
          CFI (cfiCond237) Conditional ??CrossCallReturnLabel_5
          CFI (cfiCond237) R6 load(1, XDATA, add(CFA_XSP16, literal(-24)))
          CFI (cfiCond237) VB load(1, XDATA, add(CFA_XSP16, literal(-23)))
          CFI (cfiCond237) V0 load(1, XDATA, add(CFA_XSP16, literal(-22)))
          CFI (cfiCond237) V1 load(1, XDATA, add(CFA_XSP16, literal(-21)))
          CFI (cfiCond237) V2 load(1, XDATA, add(CFA_XSP16, literal(-20)))
          CFI (cfiCond237) V3 load(1, XDATA, add(CFA_XSP16, literal(-19)))
          CFI (cfiCond237) V4 load(1, XDATA, add(CFA_XSP16, literal(-18)))
          CFI (cfiCond237) V5 load(1, XDATA, add(CFA_XSP16, literal(-17)))
          CFI (cfiCond237) V6 load(1, XDATA, add(CFA_XSP16, literal(-16)))
          CFI (cfiCond237) V7 load(1, XDATA, add(CFA_XSP16, literal(-15)))
          CFI (cfiCond237) V8 load(1, XDATA, add(CFA_XSP16, literal(-14)))
          CFI (cfiCond237) V9 load(1, XDATA, add(CFA_XSP16, literal(-13)))
          CFI (cfiCond237) V10 load(1, XDATA, add(CFA_XSP16, literal(-12)))
          CFI (cfiCond237) V11 load(1, XDATA, add(CFA_XSP16, literal(-11)))
          CFI (cfiCond237) V12 load(1, XDATA, add(CFA_XSP16, literal(-10)))
          CFI (cfiCond237) V13 load(1, XDATA, add(CFA_XSP16, literal(-9)))
          CFI (cfiCond237) V14 load(1, XDATA, add(CFA_XSP16, literal(-8)))
          CFI (cfiCond237) V15 load(1, XDATA, add(CFA_XSP16, literal(-7)))
          CFI (cfiCond237) R7 load(1, XDATA, add(CFA_XSP16, literal(-6)))
          CFI (cfiCond237) ?RET_LOW load(1, XDATA, add(CFA_XSP16, literal(-5)))
          CFI (cfiCond237) ?RET_HIGH load(1, XDATA, add(CFA_XSP16, literal(-4)))
          CFI (cfiCond237) ?BRET_EXT load(1, XDATA, add(CFA_XSP16, literal(-3)))
          CFI (cfiCond237) DPL0 load(1, XDATA, add(CFA_XSP16, literal(-2)))
          CFI (cfiCond237) DPH0 load(1, XDATA, add(CFA_XSP16, literal(-1)))
          CFI (cfiCond237) CFA_SP SP+0
          CFI (cfiCond237) CFA_XSP16 add(XSP16, 27)
          CFI Block cfiPicker238 Using cfiCommon1
          CFI (cfiPicker238) NoFunction
          CFI (cfiPicker238) Picker
        LCALL   ?Subroutine42 & 0xFFFF
??CrossCallReturnLabel_135:
        RET
          CFI EndBlock cfiCond236
          CFI EndBlock cfiCond237
          CFI EndBlock cfiPicker238

        RSEG BANKED_CODE:CODE:NOROOT(0)
?Subroutine42:
          CFI Block cfiCond239 Using cfiCommon0
          CFI Function MT_AfIncomingMsg
          CFI Conditional ??CrossCallReturnLabel_135, ??CrossCallReturnLabel_4
          CFI R6 load(1, XDATA, add(CFA_XSP16, literal(-24)))
          CFI VB load(1, XDATA, add(CFA_XSP16, literal(-23)))
          CFI V0 load(1, XDATA, add(CFA_XSP16, literal(-22)))
          CFI V1 load(1, XDATA, add(CFA_XSP16, literal(-21)))
          CFI V2 load(1, XDATA, add(CFA_XSP16, literal(-20)))
          CFI V3 load(1, XDATA, add(CFA_XSP16, literal(-19)))
          CFI V4 load(1, XDATA, add(CFA_XSP16, literal(-18)))
          CFI V5 load(1, XDATA, add(CFA_XSP16, literal(-17)))
          CFI V6 load(1, XDATA, add(CFA_XSP16, literal(-16)))
          CFI V7 load(1, XDATA, add(CFA_XSP16, literal(-15)))
          CFI V8 load(1, XDATA, add(CFA_XSP16, literal(-14)))
          CFI V9 load(1, XDATA, add(CFA_XSP16, literal(-13)))
          CFI V10 load(1, XDATA, add(CFA_XSP16, literal(-12)))
          CFI V11 load(1, XDATA, add(CFA_XSP16, literal(-11)))
          CFI V12 load(1, XDATA, add(CFA_XSP16, literal(-10)))
          CFI V13 load(1, XDATA, add(CFA_XSP16, literal(-9)))
          CFI V14 load(1, XDATA, add(CFA_XSP16, literal(-8)))
          CFI V15 load(1, XDATA, add(CFA_XSP16, literal(-7)))
          CFI R7 load(1, XDATA, add(CFA_XSP16, literal(-6)))
          CFI ?RET_LOW load(1, XDATA, add(CFA_XSP16, literal(-5)))
          CFI ?RET_HIGH load(1, XDATA, add(CFA_XSP16, literal(-4)))
          CFI ?BRET_EXT load(1, XDATA, add(CFA_XSP16, literal(-3)))
          CFI DPL0 load(1, XDATA, add(CFA_XSP16, literal(-2)))
          CFI DPH0 load(1, XDATA, add(CFA_XSP16, literal(-1)))
          CFI CFA_SP SP+0
          CFI CFA_XSP16 add(XSP16, 27)
          CFI Block cfiCond240 Using cfiCommon0
          CFI (cfiCond240) Function MT_AfIncomingMsg
          CFI (cfiCond240) Conditional ??CrossCallReturnLabel_135, ??CrossCallReturnLabel_5
          CFI (cfiCond240) R6 load(1, XDATA, add(CFA_XSP16, literal(-24)))
          CFI (cfiCond240) VB load(1, XDATA, add(CFA_XSP16, literal(-23)))
          CFI (cfiCond240) V0 load(1, XDATA, add(CFA_XSP16, literal(-22)))
          CFI (cfiCond240) V1 load(1, XDATA, add(CFA_XSP16, literal(-21)))
          CFI (cfiCond240) V2 load(1, XDATA, add(CFA_XSP16, literal(-20)))
          CFI (cfiCond240) V3 load(1, XDATA, add(CFA_XSP16, literal(-19)))
          CFI (cfiCond240) V4 load(1, XDATA, add(CFA_XSP16, literal(-18)))
          CFI (cfiCond240) V5 load(1, XDATA, add(CFA_XSP16, literal(-17)))
          CFI (cfiCond240) V6 load(1, XDATA, add(CFA_XSP16, literal(-16)))
          CFI (cfiCond240) V7 load(1, XDATA, add(CFA_XSP16, literal(-15)))
          CFI (cfiCond240) V8 load(1, XDATA, add(CFA_XSP16, literal(-14)))
          CFI (cfiCond240) V9 load(1, XDATA, add(CFA_XSP16, literal(-13)))
          CFI (cfiCond240) V10 load(1, XDATA, add(CFA_XSP16, literal(-12)))
          CFI (cfiCond240) V11 load(1, XDATA, add(CFA_XSP16, literal(-11)))
          CFI (cfiCond240) V12 load(1, XDATA, add(CFA_XSP16, literal(-10)))
          CFI (cfiCond240) V13 load(1, XDATA, add(CFA_XSP16, literal(-9)))
          CFI (cfiCond240) V14 load(1, XDATA, add(CFA_XSP16, literal(-8)))
          CFI (cfiCond240) V15 load(1, XDATA, add(CFA_XSP16, literal(-7)))
          CFI (cfiCond240) R7 load(1, XDATA, add(CFA_XSP16, literal(-6)))
          CFI (cfiCond240) ?RET_LOW load(1, XDATA, add(CFA_XSP16, literal(-5)))
          CFI (cfiCond240) ?RET_HIGH load(1, XDATA, add(CFA_XSP16, literal(-4)))
          CFI (cfiCond240) ?BRET_EXT load(1, XDATA, add(CFA_XSP16, literal(-3)))
          CFI (cfiCond240) DPL0 load(1, XDATA, add(CFA_XSP16, literal(-2)))
          CFI (cfiCond240) DPH0 load(1, XDATA, add(CFA_XSP16, literal(-1)))
          CFI (cfiCond240) CFA_SP SP+0
          CFI (cfiCond240) CFA_XSP16 add(XSP16, 27)
          CFI Block cfiCond241 Using cfiCommon0
          CFI (cfiCond241) Function MT_AfIncomingMsg
          CFI (cfiCond241) Conditional ??CrossCallReturnLabel_134, ??CrossCallReturnLabel_0
          CFI (cfiCond241) R6 load(1, XDATA, add(CFA_XSP16, literal(-24)))
          CFI (cfiCond241) VB load(1, XDATA, add(CFA_XSP16, literal(-23)))
          CFI (cfiCond241) V0 load(1, XDATA, add(CFA_XSP16, literal(-22)))
          CFI (cfiCond241) V1 load(1, XDATA, add(CFA_XSP16, literal(-21)))
          CFI (cfiCond241) V2 load(1, XDATA, add(CFA_XSP16, literal(-20)))
          CFI (cfiCond241) V3 load(1, XDATA, add(CFA_XSP16, literal(-19)))
          CFI (cfiCond241) V4 load(1, XDATA, add(CFA_XSP16, literal(-18)))
          CFI (cfiCond241) V5 load(1, XDATA, add(CFA_XSP16, literal(-17)))
          CFI (cfiCond241) V6 load(1, XDATA, add(CFA_XSP16, literal(-16)))
          CFI (cfiCond241) V7 load(1, XDATA, add(CFA_XSP16, literal(-15)))
          CFI (cfiCond241) V8 load(1, XDATA, add(CFA_XSP16, literal(-14)))
          CFI (cfiCond241) V9 load(1, XDATA, add(CFA_XSP16, literal(-13)))
          CFI (cfiCond241) V10 load(1, XDATA, add(CFA_XSP16, literal(-12)))
          CFI (cfiCond241) V11 load(1, XDATA, add(CFA_XSP16, literal(-11)))
          CFI (cfiCond241) V12 load(1, XDATA, add(CFA_XSP16, literal(-10)))
          CFI (cfiCond241) V13 load(1, XDATA, add(CFA_XSP16, literal(-9)))
          CFI (cfiCond241) V14 load(1, XDATA, add(CFA_XSP16, literal(-8)))
          CFI (cfiCond241) V15 load(1, XDATA, add(CFA_XSP16, literal(-7)))
          CFI (cfiCond241) R7 load(1, XDATA, add(CFA_XSP16, literal(-6)))
          CFI (cfiCond241) ?RET_LOW load(1, XDATA, add(CFA_XSP16, literal(-5)))
          CFI (cfiCond241) ?RET_HIGH load(1, XDATA, add(CFA_XSP16, literal(-4)))
          CFI (cfiCond241) ?BRET_EXT load(1, XDATA, add(CFA_XSP16, literal(-3)))
          CFI (cfiCond241) DPL0 load(1, XDATA, add(CFA_XSP16, literal(-2)))
          CFI (cfiCond241) DPH0 load(1, XDATA, add(CFA_XSP16, literal(-1)))
          CFI (cfiCond241) CFA_SP SP+0
          CFI (cfiCond241) CFA_XSP16 add(XSP16, 27)
          CFI Block cfiCond242 Using cfiCommon0
          CFI (cfiCond242) Function MT_AfIncomingMsg
          CFI (cfiCond242) Conditional ??CrossCallReturnLabel_134, ??CrossCallReturnLabel_1
          CFI (cfiCond242) R6 load(1, XDATA, add(CFA_XSP16, literal(-24)))
          CFI (cfiCond242) VB load(1, XDATA, add(CFA_XSP16, literal(-23)))
          CFI (cfiCond242) V0 load(1, XDATA, add(CFA_XSP16, literal(-22)))
          CFI (cfiCond242) V1 load(1, XDATA, add(CFA_XSP16, literal(-21)))
          CFI (cfiCond242) V2 load(1, XDATA, add(CFA_XSP16, literal(-20)))
          CFI (cfiCond242) V3 load(1, XDATA, add(CFA_XSP16, literal(-19)))
          CFI (cfiCond242) V4 load(1, XDATA, add(CFA_XSP16, literal(-18)))
          CFI (cfiCond242) V5 load(1, XDATA, add(CFA_XSP16, literal(-17)))
          CFI (cfiCond242) V6 load(1, XDATA, add(CFA_XSP16, literal(-16)))
          CFI (cfiCond242) V7 load(1, XDATA, add(CFA_XSP16, literal(-15)))
          CFI (cfiCond242) V8 load(1, XDATA, add(CFA_XSP16, literal(-14)))
          CFI (cfiCond242) V9 load(1, XDATA, add(CFA_XSP16, literal(-13)))
          CFI (cfiCond242) V10 load(1, XDATA, add(CFA_XSP16, literal(-12)))
          CFI (cfiCond242) V11 load(1, XDATA, add(CFA_XSP16, literal(-11)))
          CFI (cfiCond242) V12 load(1, XDATA, add(CFA_XSP16, literal(-10)))
          CFI (cfiCond242) V13 load(1, XDATA, add(CFA_XSP16, literal(-9)))
          CFI (cfiCond242) V14 load(1, XDATA, add(CFA_XSP16, literal(-8)))
          CFI (cfiCond242) V15 load(1, XDATA, add(CFA_XSP16, literal(-7)))
          CFI (cfiCond242) R7 load(1, XDATA, add(CFA_XSP16, literal(-6)))
          CFI (cfiCond242) ?RET_LOW load(1, XDATA, add(CFA_XSP16, literal(-5)))
          CFI (cfiCond242) ?RET_HIGH load(1, XDATA, add(CFA_XSP16, literal(-4)))
          CFI (cfiCond242) ?BRET_EXT load(1, XDATA, add(CFA_XSP16, literal(-3)))
          CFI (cfiCond242) DPL0 load(1, XDATA, add(CFA_XSP16, literal(-2)))
          CFI (cfiCond242) DPH0 load(1, XDATA, add(CFA_XSP16, literal(-1)))
          CFI (cfiCond242) CFA_SP SP+0
          CFI (cfiCond242) CFA_XSP16 add(XSP16, 27)
          CFI Block cfiCond243 Using cfiCommon0
          CFI (cfiCond243) Function MT_AfIncomingMsg
          CFI (cfiCond243) Conditional ??CrossCallReturnLabel_136, ??CrossCallReturnLabel_128
          CFI (cfiCond243) R6 load(1, XDATA, add(CFA_XSP16, literal(-24)))
          CFI (cfiCond243) VB load(1, XDATA, add(CFA_XSP16, literal(-23)))
          CFI (cfiCond243) V0 load(1, XDATA, add(CFA_XSP16, literal(-22)))
          CFI (cfiCond243) V1 load(1, XDATA, add(CFA_XSP16, literal(-21)))
          CFI (cfiCond243) V2 load(1, XDATA, add(CFA_XSP16, literal(-20)))
          CFI (cfiCond243) V3 load(1, XDATA, add(CFA_XSP16, literal(-19)))
          CFI (cfiCond243) V4 load(1, XDATA, add(CFA_XSP16, literal(-18)))
          CFI (cfiCond243) V5 load(1, XDATA, add(CFA_XSP16, literal(-17)))
          CFI (cfiCond243) V6 load(1, XDATA, add(CFA_XSP16, literal(-16)))
          CFI (cfiCond243) V7 load(1, XDATA, add(CFA_XSP16, literal(-15)))
          CFI (cfiCond243) V8 load(1, XDATA, add(CFA_XSP16, literal(-14)))
          CFI (cfiCond243) V9 load(1, XDATA, add(CFA_XSP16, literal(-13)))
          CFI (cfiCond243) V10 load(1, XDATA, add(CFA_XSP16, literal(-12)))
          CFI (cfiCond243) V11 load(1, XDATA, add(CFA_XSP16, literal(-11)))
          CFI (cfiCond243) V12 load(1, XDATA, add(CFA_XSP16, literal(-10)))
          CFI (cfiCond243) V13 load(1, XDATA, add(CFA_XSP16, literal(-9)))
          CFI (cfiCond243) V14 load(1, XDATA, add(CFA_XSP16, literal(-8)))
          CFI (cfiCond243) V15 load(1, XDATA, add(CFA_XSP16, literal(-7)))
          CFI (cfiCond243) R7 load(1, XDATA, add(CFA_XSP16, literal(-6)))
          CFI (cfiCond243) ?RET_LOW load(1, XDATA, add(CFA_XSP16, literal(-5)))
          CFI (cfiCond243) ?RET_HIGH load(1, XDATA, add(CFA_XSP16, literal(-4)))
          CFI (cfiCond243) ?BRET_EXT load(1, XDATA, add(CFA_XSP16, literal(-3)))
          CFI (cfiCond243) DPL0 load(1, XDATA, add(CFA_XSP16, literal(-2)))
          CFI (cfiCond243) DPH0 load(1, XDATA, add(CFA_XSP16, literal(-1)))
          CFI (cfiCond243) CFA_SP SP+0
          CFI (cfiCond243) CFA_XSP16 add(XSP16, 27)
          CFI Block cfiCond244 Using cfiCommon0
          CFI (cfiCond244) Function MT_AfIncomingMsg
          CFI (cfiCond244) Conditional ??CrossCallReturnLabel_136, ??CrossCallReturnLabel_129
          CFI (cfiCond244) R6 load(1, XDATA, add(CFA_XSP16, literal(-24)))
          CFI (cfiCond244) VB load(1, XDATA, add(CFA_XSP16, literal(-23)))
          CFI (cfiCond244) V0 load(1, XDATA, add(CFA_XSP16, literal(-22)))
          CFI (cfiCond244) V1 load(1, XDATA, add(CFA_XSP16, literal(-21)))
          CFI (cfiCond244) V2 load(1, XDATA, add(CFA_XSP16, literal(-20)))
          CFI (cfiCond244) V3 load(1, XDATA, add(CFA_XSP16, literal(-19)))
          CFI (cfiCond244) V4 load(1, XDATA, add(CFA_XSP16, literal(-18)))
          CFI (cfiCond244) V5 load(1, XDATA, add(CFA_XSP16, literal(-17)))
          CFI (cfiCond244) V6 load(1, XDATA, add(CFA_XSP16, literal(-16)))
          CFI (cfiCond244) V7 load(1, XDATA, add(CFA_XSP16, literal(-15)))
          CFI (cfiCond244) V8 load(1, XDATA, add(CFA_XSP16, literal(-14)))
          CFI (cfiCond244) V9 load(1, XDATA, add(CFA_XSP16, literal(-13)))
          CFI (cfiCond244) V10 load(1, XDATA, add(CFA_XSP16, literal(-12)))
          CFI (cfiCond244) V11 load(1, XDATA, add(CFA_XSP16, literal(-11)))
          CFI (cfiCond244) V12 load(1, XDATA, add(CFA_XSP16, literal(-10)))
          CFI (cfiCond244) V13 load(1, XDATA, add(CFA_XSP16, literal(-9)))
          CFI (cfiCond244) V14 load(1, XDATA, add(CFA_XSP16, literal(-8)))
          CFI (cfiCond244) V15 load(1, XDATA, add(CFA_XSP16, literal(-7)))
          CFI (cfiCond244) R7 load(1, XDATA, add(CFA_XSP16, literal(-6)))
          CFI (cfiCond244) ?RET_LOW load(1, XDATA, add(CFA_XSP16, literal(-5)))
          CFI (cfiCond244) ?RET_HIGH load(1, XDATA, add(CFA_XSP16, literal(-4)))
          CFI (cfiCond244) ?BRET_EXT load(1, XDATA, add(CFA_XSP16, literal(-3)))
          CFI (cfiCond244) DPL0 load(1, XDATA, add(CFA_XSP16, literal(-2)))
          CFI (cfiCond244) DPH0 load(1, XDATA, add(CFA_XSP16, literal(-1)))
          CFI (cfiCond244) CFA_SP SP+0
          CFI (cfiCond244) CFA_XSP16 add(XSP16, 27)
          CFI Block cfiCond245 Using cfiCommon0
          CFI (cfiCond245) Function MT_AfIncomingMsg
          CFI (cfiCond245) Conditional ??CrossCallReturnLabel_136, ??CrossCallReturnLabel_130
          CFI (cfiCond245) R6 load(1, XDATA, add(CFA_XSP16, literal(-24)))
          CFI (cfiCond245) VB load(1, XDATA, add(CFA_XSP16, literal(-23)))
          CFI (cfiCond245) V0 load(1, XDATA, add(CFA_XSP16, literal(-22)))
          CFI (cfiCond245) V1 load(1, XDATA, add(CFA_XSP16, literal(-21)))
          CFI (cfiCond245) V2 load(1, XDATA, add(CFA_XSP16, literal(-20)))
          CFI (cfiCond245) V3 load(1, XDATA, add(CFA_XSP16, literal(-19)))
          CFI (cfiCond245) V4 load(1, XDATA, add(CFA_XSP16, literal(-18)))
          CFI (cfiCond245) V5 load(1, XDATA, add(CFA_XSP16, literal(-17)))
          CFI (cfiCond245) V6 load(1, XDATA, add(CFA_XSP16, literal(-16)))
          CFI (cfiCond245) V7 load(1, XDATA, add(CFA_XSP16, literal(-15)))
          CFI (cfiCond245) V8 load(1, XDATA, add(CFA_XSP16, literal(-14)))
          CFI (cfiCond245) V9 load(1, XDATA, add(CFA_XSP16, literal(-13)))
          CFI (cfiCond245) V10 load(1, XDATA, add(CFA_XSP16, literal(-12)))
          CFI (cfiCond245) V11 load(1, XDATA, add(CFA_XSP16, literal(-11)))
          CFI (cfiCond245) V12 load(1, XDATA, add(CFA_XSP16, literal(-10)))
          CFI (cfiCond245) V13 load(1, XDATA, add(CFA_XSP16, literal(-9)))
          CFI (cfiCond245) V14 load(1, XDATA, add(CFA_XSP16, literal(-8)))
          CFI (cfiCond245) V15 load(1, XDATA, add(CFA_XSP16, literal(-7)))
          CFI (cfiCond245) R7 load(1, XDATA, add(CFA_XSP16, literal(-6)))
          CFI (cfiCond245) ?RET_LOW load(1, XDATA, add(CFA_XSP16, literal(-5)))
          CFI (cfiCond245) ?RET_HIGH load(1, XDATA, add(CFA_XSP16, literal(-4)))
          CFI (cfiCond245) ?BRET_EXT load(1, XDATA, add(CFA_XSP16, literal(-3)))
          CFI (cfiCond245) DPL0 load(1, XDATA, add(CFA_XSP16, literal(-2)))
          CFI (cfiCond245) DPH0 load(1, XDATA, add(CFA_XSP16, literal(-1)))
          CFI (cfiCond245) CFA_SP SP+0
          CFI (cfiCond245) CFA_XSP16 add(XSP16, 27)
          CFI Block cfiCond246 Using cfiCommon0
          CFI (cfiCond246) Function MT_AfIncomingMsg
          CFI (cfiCond246) Conditional ??CrossCallReturnLabel_136, ??CrossCallReturnLabel_131
          CFI (cfiCond246) R6 load(1, XDATA, add(CFA_XSP16, literal(-24)))
          CFI (cfiCond246) VB load(1, XDATA, add(CFA_XSP16, literal(-23)))
          CFI (cfiCond246) V0 load(1, XDATA, add(CFA_XSP16, literal(-22)))
          CFI (cfiCond246) V1 load(1, XDATA, add(CFA_XSP16, literal(-21)))
          CFI (cfiCond246) V2 load(1, XDATA, add(CFA_XSP16, literal(-20)))
          CFI (cfiCond246) V3 load(1, XDATA, add(CFA_XSP16, literal(-19)))
          CFI (cfiCond246) V4 load(1, XDATA, add(CFA_XSP16, literal(-18)))
          CFI (cfiCond246) V5 load(1, XDATA, add(CFA_XSP16, literal(-17)))
          CFI (cfiCond246) V6 load(1, XDATA, add(CFA_XSP16, literal(-16)))
          CFI (cfiCond246) V7 load(1, XDATA, add(CFA_XSP16, literal(-15)))
          CFI (cfiCond246) V8 load(1, XDATA, add(CFA_XSP16, literal(-14)))
          CFI (cfiCond246) V9 load(1, XDATA, add(CFA_XSP16, literal(-13)))
          CFI (cfiCond246) V10 load(1, XDATA, add(CFA_XSP16, literal(-12)))
          CFI (cfiCond246) V11 load(1, XDATA, add(CFA_XSP16, literal(-11)))
          CFI (cfiCond246) V12 load(1, XDATA, add(CFA_XSP16, literal(-10)))
          CFI (cfiCond246) V13 load(1, XDATA, add(CFA_XSP16, literal(-9)))
          CFI (cfiCond246) V14 load(1, XDATA, add(CFA_XSP16, literal(-8)))
          CFI (cfiCond246) V15 load(1, XDATA, add(CFA_XSP16, literal(-7)))
          CFI (cfiCond246) R7 load(1, XDATA, add(CFA_XSP16, literal(-6)))
          CFI (cfiCond246) ?RET_LOW load(1, XDATA, add(CFA_XSP16, literal(-5)))
          CFI (cfiCond246) ?RET_HIGH load(1, XDATA, add(CFA_XSP16, literal(-4)))
          CFI (cfiCond246) ?BRET_EXT load(1, XDATA, add(CFA_XSP16, literal(-3)))
          CFI (cfiCond246) DPL0 load(1, XDATA, add(CFA_XSP16, literal(-2)))
          CFI (cfiCond246) DPH0 load(1, XDATA, add(CFA_XSP16, literal(-1)))
          CFI (cfiCond246) CFA_SP SP+0
          CFI (cfiCond246) CFA_XSP16 add(XSP16, 27)
          CFI Block cfiCond247 Using cfiCommon0
          CFI (cfiCond247) Function MT_AfIncomingMsg
          CFI (cfiCond247) Conditional ??CrossCallReturnLabel_136, ??CrossCallReturnLabel_132
          CFI (cfiCond247) R6 load(1, XDATA, add(CFA_XSP16, literal(-24)))
          CFI (cfiCond247) VB load(1, XDATA, add(CFA_XSP16, literal(-23)))
          CFI (cfiCond247) V0 load(1, XDATA, add(CFA_XSP16, literal(-22)))
          CFI (cfiCond247) V1 load(1, XDATA, add(CFA_XSP16, literal(-21)))
          CFI (cfiCond247) V2 load(1, XDATA, add(CFA_XSP16, literal(-20)))
          CFI (cfiCond247) V3 load(1, XDATA, add(CFA_XSP16, literal(-19)))
          CFI (cfiCond247) V4 load(1, XDATA, add(CFA_XSP16, literal(-18)))
          CFI (cfiCond247) V5 load(1, XDATA, add(CFA_XSP16, literal(-17)))
          CFI (cfiCond247) V6 load(1, XDATA, add(CFA_XSP16, literal(-16)))
          CFI (cfiCond247) V7 load(1, XDATA, add(CFA_XSP16, literal(-15)))
          CFI (cfiCond247) V8 load(1, XDATA, add(CFA_XSP16, literal(-14)))
          CFI (cfiCond247) V9 load(1, XDATA, add(CFA_XSP16, literal(-13)))
          CFI (cfiCond247) V10 load(1, XDATA, add(CFA_XSP16, literal(-12)))
          CFI (cfiCond247) V11 load(1, XDATA, add(CFA_XSP16, literal(-11)))
          CFI (cfiCond247) V12 load(1, XDATA, add(CFA_XSP16, literal(-10)))
          CFI (cfiCond247) V13 load(1, XDATA, add(CFA_XSP16, literal(-9)))
          CFI (cfiCond247) V14 load(1, XDATA, add(CFA_XSP16, literal(-8)))
          CFI (cfiCond247) V15 load(1, XDATA, add(CFA_XSP16, literal(-7)))
          CFI (cfiCond247) R7 load(1, XDATA, add(CFA_XSP16, literal(-6)))
          CFI (cfiCond247) ?RET_LOW load(1, XDATA, add(CFA_XSP16, literal(-5)))
          CFI (cfiCond247) ?RET_HIGH load(1, XDATA, add(CFA_XSP16, literal(-4)))
          CFI (cfiCond247) ?BRET_EXT load(1, XDATA, add(CFA_XSP16, literal(-3)))
          CFI (cfiCond247) DPL0 load(1, XDATA, add(CFA_XSP16, literal(-2)))
          CFI (cfiCond247) DPH0 load(1, XDATA, add(CFA_XSP16, literal(-1)))
          CFI (cfiCond247) CFA_SP SP+0
          CFI (cfiCond247) CFA_XSP16 add(XSP16, 27)
          CFI Block cfiCond248 Using cfiCommon0
          CFI (cfiCond248) Function MT_AfIncomingMsg
          CFI (cfiCond248) Conditional ??CrossCallReturnLabel_136, ??CrossCallReturnLabel_133
          CFI (cfiCond248) R6 load(1, XDATA, add(CFA_XSP16, literal(-24)))
          CFI (cfiCond248) VB load(1, XDATA, add(CFA_XSP16, literal(-23)))
          CFI (cfiCond248) V0 load(1, XDATA, add(CFA_XSP16, literal(-22)))
          CFI (cfiCond248) V1 load(1, XDATA, add(CFA_XSP16, literal(-21)))
          CFI (cfiCond248) V2 load(1, XDATA, add(CFA_XSP16, literal(-20)))
          CFI (cfiCond248) V3 load(1, XDATA, add(CFA_XSP16, literal(-19)))
          CFI (cfiCond248) V4 load(1, XDATA, add(CFA_XSP16, literal(-18)))
          CFI (cfiCond248) V5 load(1, XDATA, add(CFA_XSP16, literal(-17)))
          CFI (cfiCond248) V6 load(1, XDATA, add(CFA_XSP16, literal(-16)))
          CFI (cfiCond248) V7 load(1, XDATA, add(CFA_XSP16, literal(-15)))
          CFI (cfiCond248) V8 load(1, XDATA, add(CFA_XSP16, literal(-14)))
          CFI (cfiCond248) V9 load(1, XDATA, add(CFA_XSP16, literal(-13)))
          CFI (cfiCond248) V10 load(1, XDATA, add(CFA_XSP16, literal(-12)))
          CFI (cfiCond248) V11 load(1, XDATA, add(CFA_XSP16, literal(-11)))
          CFI (cfiCond248) V12 load(1, XDATA, add(CFA_XSP16, literal(-10)))
          CFI (cfiCond248) V13 load(1, XDATA, add(CFA_XSP16, literal(-9)))
          CFI (cfiCond248) V14 load(1, XDATA, add(CFA_XSP16, literal(-8)))
          CFI (cfiCond248) V15 load(1, XDATA, add(CFA_XSP16, literal(-7)))
          CFI (cfiCond248) R7 load(1, XDATA, add(CFA_XSP16, literal(-6)))
          CFI (cfiCond248) ?RET_LOW load(1, XDATA, add(CFA_XSP16, literal(-5)))
          CFI (cfiCond248) ?RET_HIGH load(1, XDATA, add(CFA_XSP16, literal(-4)))
          CFI (cfiCond248) ?BRET_EXT load(1, XDATA, add(CFA_XSP16, literal(-3)))
          CFI (cfiCond248) DPL0 load(1, XDATA, add(CFA_XSP16, literal(-2)))
          CFI (cfiCond248) DPH0 load(1, XDATA, add(CFA_XSP16, literal(-1)))
          CFI (cfiCond248) CFA_SP SP+0
          CFI (cfiCond248) CFA_XSP16 add(XSP16, 27)
          CFI Block cfiPicker249 Using cfiCommon1
          CFI (cfiPicker249) NoFunction
          CFI (cfiPicker249) Picker
        LCALL   ?Subroutine51 & 0xFFFF
??CrossCallReturnLabel_138:
        INC     DPTR
        MOV     ?V0 + 2,DPL
        MOV     ?V0 + 3,DPH
        RET
          CFI EndBlock cfiCond239
          CFI EndBlock cfiCond240
          CFI EndBlock cfiCond241
          CFI EndBlock cfiCond242
          CFI EndBlock cfiCond243
          CFI EndBlock cfiCond244
          CFI EndBlock cfiCond245
          CFI EndBlock cfiCond246
          CFI EndBlock cfiCond247
          CFI EndBlock cfiCond248
          CFI EndBlock cfiPicker249

        RSEG BANKED_CODE:CODE:NOROOT(0)
?Subroutine6:
          CFI Block cfiCond250 Using cfiCommon0
          CFI Function MT_AfIncomingMsg
          CFI Conditional ??CrossCallReturnLabel_0
          CFI R6 load(1, XDATA, add(CFA_XSP16, literal(-24)))
          CFI VB load(1, XDATA, add(CFA_XSP16, literal(-23)))
          CFI V0 load(1, XDATA, add(CFA_XSP16, literal(-22)))
          CFI V1 load(1, XDATA, add(CFA_XSP16, literal(-21)))
          CFI V2 load(1, XDATA, add(CFA_XSP16, literal(-20)))
          CFI V3 load(1, XDATA, add(CFA_XSP16, literal(-19)))
          CFI V4 load(1, XDATA, add(CFA_XSP16, literal(-18)))
          CFI V5 load(1, XDATA, add(CFA_XSP16, literal(-17)))
          CFI V6 load(1, XDATA, add(CFA_XSP16, literal(-16)))
          CFI V7 load(1, XDATA, add(CFA_XSP16, literal(-15)))
          CFI V8 load(1, XDATA, add(CFA_XSP16, literal(-14)))
          CFI V9 load(1, XDATA, add(CFA_XSP16, literal(-13)))
          CFI V10 load(1, XDATA, add(CFA_XSP16, literal(-12)))
          CFI V11 load(1, XDATA, add(CFA_XSP16, literal(-11)))
          CFI V12 load(1, XDATA, add(CFA_XSP16, literal(-10)))
          CFI V13 load(1, XDATA, add(CFA_XSP16, literal(-9)))
          CFI V14 load(1, XDATA, add(CFA_XSP16, literal(-8)))
          CFI V15 load(1, XDATA, add(CFA_XSP16, literal(-7)))
          CFI R7 load(1, XDATA, add(CFA_XSP16, literal(-6)))
          CFI ?RET_LOW load(1, XDATA, add(CFA_XSP16, literal(-5)))
          CFI ?RET_HIGH load(1, XDATA, add(CFA_XSP16, literal(-4)))
          CFI ?BRET_EXT load(1, XDATA, add(CFA_XSP16, literal(-3)))
          CFI DPL0 load(1, XDATA, add(CFA_XSP16, literal(-2)))
          CFI DPH0 load(1, XDATA, add(CFA_XSP16, literal(-1)))
          CFI CFA_SP SP+0
          CFI CFA_XSP16 add(XSP16, 27)
          CFI Block cfiCond251 Using cfiCommon0
          CFI (cfiCond251) Function MT_AfIncomingMsg
          CFI (cfiCond251) Conditional ??CrossCallReturnLabel_1
          CFI (cfiCond251) R6 load(1, XDATA, add(CFA_XSP16, literal(-24)))
          CFI (cfiCond251) VB load(1, XDATA, add(CFA_XSP16, literal(-23)))
          CFI (cfiCond251) V0 load(1, XDATA, add(CFA_XSP16, literal(-22)))
          CFI (cfiCond251) V1 load(1, XDATA, add(CFA_XSP16, literal(-21)))
          CFI (cfiCond251) V2 load(1, XDATA, add(CFA_XSP16, literal(-20)))
          CFI (cfiCond251) V3 load(1, XDATA, add(CFA_XSP16, literal(-19)))
          CFI (cfiCond251) V4 load(1, XDATA, add(CFA_XSP16, literal(-18)))
          CFI (cfiCond251) V5 load(1, XDATA, add(CFA_XSP16, literal(-17)))
          CFI (cfiCond251) V6 load(1, XDATA, add(CFA_XSP16, literal(-16)))
          CFI (cfiCond251) V7 load(1, XDATA, add(CFA_XSP16, literal(-15)))
          CFI (cfiCond251) V8 load(1, XDATA, add(CFA_XSP16, literal(-14)))
          CFI (cfiCond251) V9 load(1, XDATA, add(CFA_XSP16, literal(-13)))
          CFI (cfiCond251) V10 load(1, XDATA, add(CFA_XSP16, literal(-12)))
          CFI (cfiCond251) V11 load(1, XDATA, add(CFA_XSP16, literal(-11)))
          CFI (cfiCond251) V12 load(1, XDATA, add(CFA_XSP16, literal(-10)))
          CFI (cfiCond251) V13 load(1, XDATA, add(CFA_XSP16, literal(-9)))
          CFI (cfiCond251) V14 load(1, XDATA, add(CFA_XSP16, literal(-8)))
          CFI (cfiCond251) V15 load(1, XDATA, add(CFA_XSP16, literal(-7)))
          CFI (cfiCond251) R7 load(1, XDATA, add(CFA_XSP16, literal(-6)))
          CFI (cfiCond251) ?RET_LOW load(1, XDATA, add(CFA_XSP16, literal(-5)))
          CFI (cfiCond251) ?RET_HIGH load(1, XDATA, add(CFA_XSP16, literal(-4)))
          CFI (cfiCond251) ?BRET_EXT load(1, XDATA, add(CFA_XSP16, literal(-3)))
          CFI (cfiCond251) DPL0 load(1, XDATA, add(CFA_XSP16, literal(-2)))
          CFI (cfiCond251) DPH0 load(1, XDATA, add(CFA_XSP16, literal(-1)))
          CFI (cfiCond251) CFA_SP SP+0
          CFI (cfiCond251) CFA_XSP16 add(XSP16, 27)
          CFI Block cfiPicker252 Using cfiCommon1
          CFI (cfiPicker252) NoFunction
          CFI (cfiPicker252) Picker
        LCALL   ?Subroutine42 & 0xFFFF
??CrossCallReturnLabel_134:
        MOV     DPL,?V0 + 14
        MOV     DPH,?V0 + 15
        RET
          CFI EndBlock cfiCond250
          CFI EndBlock cfiCond251
          CFI EndBlock cfiPicker252

        RSEG BANKED_CODE:CODE:NOROOT(0)
?Subroutine4:
          CFI Block cfiCond253 Using cfiCommon0
          CFI Function MT_AfIncomingMsg
          CFI Conditional ??CrossCallReturnLabel_128
          CFI R6 load(1, XDATA, add(CFA_XSP16, literal(-24)))
          CFI VB load(1, XDATA, add(CFA_XSP16, literal(-23)))
          CFI V0 load(1, XDATA, add(CFA_XSP16, literal(-22)))
          CFI V1 load(1, XDATA, add(CFA_XSP16, literal(-21)))
          CFI V2 load(1, XDATA, add(CFA_XSP16, literal(-20)))
          CFI V3 load(1, XDATA, add(CFA_XSP16, literal(-19)))
          CFI V4 load(1, XDATA, add(CFA_XSP16, literal(-18)))
          CFI V5 load(1, XDATA, add(CFA_XSP16, literal(-17)))
          CFI V6 load(1, XDATA, add(CFA_XSP16, literal(-16)))
          CFI V7 load(1, XDATA, add(CFA_XSP16, literal(-15)))
          CFI V8 load(1, XDATA, add(CFA_XSP16, literal(-14)))
          CFI V9 load(1, XDATA, add(CFA_XSP16, literal(-13)))
          CFI V10 load(1, XDATA, add(CFA_XSP16, literal(-12)))
          CFI V11 load(1, XDATA, add(CFA_XSP16, literal(-11)))
          CFI V12 load(1, XDATA, add(CFA_XSP16, literal(-10)))
          CFI V13 load(1, XDATA, add(CFA_XSP16, literal(-9)))
          CFI V14 load(1, XDATA, add(CFA_XSP16, literal(-8)))
          CFI V15 load(1, XDATA, add(CFA_XSP16, literal(-7)))
          CFI R7 load(1, XDATA, add(CFA_XSP16, literal(-6)))
          CFI ?RET_LOW load(1, XDATA, add(CFA_XSP16, literal(-5)))
          CFI ?RET_HIGH load(1, XDATA, add(CFA_XSP16, literal(-4)))
          CFI ?BRET_EXT load(1, XDATA, add(CFA_XSP16, literal(-3)))
          CFI DPL0 load(1, XDATA, add(CFA_XSP16, literal(-2)))
          CFI DPH0 load(1, XDATA, add(CFA_XSP16, literal(-1)))
          CFI CFA_SP SP+0
          CFI CFA_XSP16 add(XSP16, 27)
          CFI Block cfiCond254 Using cfiCommon0
          CFI (cfiCond254) Function MT_AfIncomingMsg
          CFI (cfiCond254) Conditional ??CrossCallReturnLabel_129
          CFI (cfiCond254) R6 load(1, XDATA, add(CFA_XSP16, literal(-24)))
          CFI (cfiCond254) VB load(1, XDATA, add(CFA_XSP16, literal(-23)))
          CFI (cfiCond254) V0 load(1, XDATA, add(CFA_XSP16, literal(-22)))
          CFI (cfiCond254) V1 load(1, XDATA, add(CFA_XSP16, literal(-21)))
          CFI (cfiCond254) V2 load(1, XDATA, add(CFA_XSP16, literal(-20)))
          CFI (cfiCond254) V3 load(1, XDATA, add(CFA_XSP16, literal(-19)))
          CFI (cfiCond254) V4 load(1, XDATA, add(CFA_XSP16, literal(-18)))
          CFI (cfiCond254) V5 load(1, XDATA, add(CFA_XSP16, literal(-17)))
          CFI (cfiCond254) V6 load(1, XDATA, add(CFA_XSP16, literal(-16)))
          CFI (cfiCond254) V7 load(1, XDATA, add(CFA_XSP16, literal(-15)))
          CFI (cfiCond254) V8 load(1, XDATA, add(CFA_XSP16, literal(-14)))
          CFI (cfiCond254) V9 load(1, XDATA, add(CFA_XSP16, literal(-13)))
          CFI (cfiCond254) V10 load(1, XDATA, add(CFA_XSP16, literal(-12)))
          CFI (cfiCond254) V11 load(1, XDATA, add(CFA_XSP16, literal(-11)))
          CFI (cfiCond254) V12 load(1, XDATA, add(CFA_XSP16, literal(-10)))
          CFI (cfiCond254) V13 load(1, XDATA, add(CFA_XSP16, literal(-9)))
          CFI (cfiCond254) V14 load(1, XDATA, add(CFA_XSP16, literal(-8)))
          CFI (cfiCond254) V15 load(1, XDATA, add(CFA_XSP16, literal(-7)))
          CFI (cfiCond254) R7 load(1, XDATA, add(CFA_XSP16, literal(-6)))
          CFI (cfiCond254) ?RET_LOW load(1, XDATA, add(CFA_XSP16, literal(-5)))
          CFI (cfiCond254) ?RET_HIGH load(1, XDATA, add(CFA_XSP16, literal(-4)))
          CFI (cfiCond254) ?BRET_EXT load(1, XDATA, add(CFA_XSP16, literal(-3)))
          CFI (cfiCond254) DPL0 load(1, XDATA, add(CFA_XSP16, literal(-2)))
          CFI (cfiCond254) DPH0 load(1, XDATA, add(CFA_XSP16, literal(-1)))
          CFI (cfiCond254) CFA_SP SP+0
          CFI (cfiCond254) CFA_XSP16 add(XSP16, 27)
          CFI Block cfiCond255 Using cfiCommon0
          CFI (cfiCond255) Function MT_AfIncomingMsg
          CFI (cfiCond255) Conditional ??CrossCallReturnLabel_130
          CFI (cfiCond255) R6 load(1, XDATA, add(CFA_XSP16, literal(-24)))
          CFI (cfiCond255) VB load(1, XDATA, add(CFA_XSP16, literal(-23)))
          CFI (cfiCond255) V0 load(1, XDATA, add(CFA_XSP16, literal(-22)))
          CFI (cfiCond255) V1 load(1, XDATA, add(CFA_XSP16, literal(-21)))
          CFI (cfiCond255) V2 load(1, XDATA, add(CFA_XSP16, literal(-20)))
          CFI (cfiCond255) V3 load(1, XDATA, add(CFA_XSP16, literal(-19)))
          CFI (cfiCond255) V4 load(1, XDATA, add(CFA_XSP16, literal(-18)))
          CFI (cfiCond255) V5 load(1, XDATA, add(CFA_XSP16, literal(-17)))
          CFI (cfiCond255) V6 load(1, XDATA, add(CFA_XSP16, literal(-16)))
          CFI (cfiCond255) V7 load(1, XDATA, add(CFA_XSP16, literal(-15)))
          CFI (cfiCond255) V8 load(1, XDATA, add(CFA_XSP16, literal(-14)))
          CFI (cfiCond255) V9 load(1, XDATA, add(CFA_XSP16, literal(-13)))
          CFI (cfiCond255) V10 load(1, XDATA, add(CFA_XSP16, literal(-12)))
          CFI (cfiCond255) V11 load(1, XDATA, add(CFA_XSP16, literal(-11)))
          CFI (cfiCond255) V12 load(1, XDATA, add(CFA_XSP16, literal(-10)))
          CFI (cfiCond255) V13 load(1, XDATA, add(CFA_XSP16, literal(-9)))
          CFI (cfiCond255) V14 load(1, XDATA, add(CFA_XSP16, literal(-8)))
          CFI (cfiCond255) V15 load(1, XDATA, add(CFA_XSP16, literal(-7)))
          CFI (cfiCond255) R7 load(1, XDATA, add(CFA_XSP16, literal(-6)))
          CFI (cfiCond255) ?RET_LOW load(1, XDATA, add(CFA_XSP16, literal(-5)))
          CFI (cfiCond255) ?RET_HIGH load(1, XDATA, add(CFA_XSP16, literal(-4)))
          CFI (cfiCond255) ?BRET_EXT load(1, XDATA, add(CFA_XSP16, literal(-3)))
          CFI (cfiCond255) DPL0 load(1, XDATA, add(CFA_XSP16, literal(-2)))
          CFI (cfiCond255) DPH0 load(1, XDATA, add(CFA_XSP16, literal(-1)))
          CFI (cfiCond255) CFA_SP SP+0
          CFI (cfiCond255) CFA_XSP16 add(XSP16, 27)
          CFI Block cfiCond256 Using cfiCommon0
          CFI (cfiCond256) Function MT_AfIncomingMsg
          CFI (cfiCond256) Conditional ??CrossCallReturnLabel_131
          CFI (cfiCond256) R6 load(1, XDATA, add(CFA_XSP16, literal(-24)))
          CFI (cfiCond256) VB load(1, XDATA, add(CFA_XSP16, literal(-23)))
          CFI (cfiCond256) V0 load(1, XDATA, add(CFA_XSP16, literal(-22)))
          CFI (cfiCond256) V1 load(1, XDATA, add(CFA_XSP16, literal(-21)))
          CFI (cfiCond256) V2 load(1, XDATA, add(CFA_XSP16, literal(-20)))
          CFI (cfiCond256) V3 load(1, XDATA, add(CFA_XSP16, literal(-19)))
          CFI (cfiCond256) V4 load(1, XDATA, add(CFA_XSP16, literal(-18)))
          CFI (cfiCond256) V5 load(1, XDATA, add(CFA_XSP16, literal(-17)))
          CFI (cfiCond256) V6 load(1, XDATA, add(CFA_XSP16, literal(-16)))
          CFI (cfiCond256) V7 load(1, XDATA, add(CFA_XSP16, literal(-15)))
          CFI (cfiCond256) V8 load(1, XDATA, add(CFA_XSP16, literal(-14)))
          CFI (cfiCond256) V9 load(1, XDATA, add(CFA_XSP16, literal(-13)))
          CFI (cfiCond256) V10 load(1, XDATA, add(CFA_XSP16, literal(-12)))
          CFI (cfiCond256) V11 load(1, XDATA, add(CFA_XSP16, literal(-11)))
          CFI (cfiCond256) V12 load(1, XDATA, add(CFA_XSP16, literal(-10)))
          CFI (cfiCond256) V13 load(1, XDATA, add(CFA_XSP16, literal(-9)))
          CFI (cfiCond256) V14 load(1, XDATA, add(CFA_XSP16, literal(-8)))
          CFI (cfiCond256) V15 load(1, XDATA, add(CFA_XSP16, literal(-7)))
          CFI (cfiCond256) R7 load(1, XDATA, add(CFA_XSP16, literal(-6)))
          CFI (cfiCond256) ?RET_LOW load(1, XDATA, add(CFA_XSP16, literal(-5)))
          CFI (cfiCond256) ?RET_HIGH load(1, XDATA, add(CFA_XSP16, literal(-4)))
          CFI (cfiCond256) ?BRET_EXT load(1, XDATA, add(CFA_XSP16, literal(-3)))
          CFI (cfiCond256) DPL0 load(1, XDATA, add(CFA_XSP16, literal(-2)))
          CFI (cfiCond256) DPH0 load(1, XDATA, add(CFA_XSP16, literal(-1)))
          CFI (cfiCond256) CFA_SP SP+0
          CFI (cfiCond256) CFA_XSP16 add(XSP16, 27)
          CFI Block cfiPicker257 Using cfiCommon1
          CFI (cfiPicker257) NoFunction
          CFI (cfiPicker257) Picker
        MOV     DPL,A
        MOV     A,?V0 + 9
        LCALL   ??Subroutine56_0 & 0xFFFF
          CFI EndBlock cfiCond253
          CFI EndBlock cfiCond254
          CFI EndBlock cfiCond255
          CFI EndBlock cfiCond256
          CFI EndBlock cfiPicker257
??CrossCallReturnLabel_98:
        REQUIRE ??Subroutine62_0
        ; // Fall through to label ??Subroutine62_0

        RSEG BANKED_CODE:CODE:NOROOT(0)
??Subroutine62_0:
          CFI Block cfiCond258 Using cfiCommon0
          CFI Function MT_AfIncomingMsg
          CFI Conditional ??CrossCallReturnLabel_132
          CFI R6 load(1, XDATA, add(CFA_XSP16, literal(-24)))
          CFI VB load(1, XDATA, add(CFA_XSP16, literal(-23)))
          CFI V0 load(1, XDATA, add(CFA_XSP16, literal(-22)))
          CFI V1 load(1, XDATA, add(CFA_XSP16, literal(-21)))
          CFI V2 load(1, XDATA, add(CFA_XSP16, literal(-20)))
          CFI V3 load(1, XDATA, add(CFA_XSP16, literal(-19)))
          CFI V4 load(1, XDATA, add(CFA_XSP16, literal(-18)))
          CFI V5 load(1, XDATA, add(CFA_XSP16, literal(-17)))
          CFI V6 load(1, XDATA, add(CFA_XSP16, literal(-16)))
          CFI V7 load(1, XDATA, add(CFA_XSP16, literal(-15)))
          CFI V8 load(1, XDATA, add(CFA_XSP16, literal(-14)))
          CFI V9 load(1, XDATA, add(CFA_XSP16, literal(-13)))
          CFI V10 load(1, XDATA, add(CFA_XSP16, literal(-12)))
          CFI V11 load(1, XDATA, add(CFA_XSP16, literal(-11)))
          CFI V12 load(1, XDATA, add(CFA_XSP16, literal(-10)))
          CFI V13 load(1, XDATA, add(CFA_XSP16, literal(-9)))
          CFI V14 load(1, XDATA, add(CFA_XSP16, literal(-8)))
          CFI V15 load(1, XDATA, add(CFA_XSP16, literal(-7)))
          CFI R7 load(1, XDATA, add(CFA_XSP16, literal(-6)))
          CFI ?RET_LOW load(1, XDATA, add(CFA_XSP16, literal(-5)))
          CFI ?RET_HIGH load(1, XDATA, add(CFA_XSP16, literal(-4)))
          CFI ?BRET_EXT load(1, XDATA, add(CFA_XSP16, literal(-3)))
          CFI DPL0 load(1, XDATA, add(CFA_XSP16, literal(-2)))
          CFI DPH0 load(1, XDATA, add(CFA_XSP16, literal(-1)))
          CFI CFA_SP SP+0
          CFI CFA_XSP16 add(XSP16, 27)
          CFI Block cfiCond259 Using cfiCommon0
          CFI (cfiCond259) Function MT_AfIncomingMsg
          CFI (cfiCond259) Conditional ??CrossCallReturnLabel_133
          CFI (cfiCond259) R6 load(1, XDATA, add(CFA_XSP16, literal(-24)))
          CFI (cfiCond259) VB load(1, XDATA, add(CFA_XSP16, literal(-23)))
          CFI (cfiCond259) V0 load(1, XDATA, add(CFA_XSP16, literal(-22)))
          CFI (cfiCond259) V1 load(1, XDATA, add(CFA_XSP16, literal(-21)))
          CFI (cfiCond259) V2 load(1, XDATA, add(CFA_XSP16, literal(-20)))
          CFI (cfiCond259) V3 load(1, XDATA, add(CFA_XSP16, literal(-19)))
          CFI (cfiCond259) V4 load(1, XDATA, add(CFA_XSP16, literal(-18)))
          CFI (cfiCond259) V5 load(1, XDATA, add(CFA_XSP16, literal(-17)))
          CFI (cfiCond259) V6 load(1, XDATA, add(CFA_XSP16, literal(-16)))
          CFI (cfiCond259) V7 load(1, XDATA, add(CFA_XSP16, literal(-15)))
          CFI (cfiCond259) V8 load(1, XDATA, add(CFA_XSP16, literal(-14)))
          CFI (cfiCond259) V9 load(1, XDATA, add(CFA_XSP16, literal(-13)))
          CFI (cfiCond259) V10 load(1, XDATA, add(CFA_XSP16, literal(-12)))
          CFI (cfiCond259) V11 load(1, XDATA, add(CFA_XSP16, literal(-11)))
          CFI (cfiCond259) V12 load(1, XDATA, add(CFA_XSP16, literal(-10)))
          CFI (cfiCond259) V13 load(1, XDATA, add(CFA_XSP16, literal(-9)))
          CFI (cfiCond259) V14 load(1, XDATA, add(CFA_XSP16, literal(-8)))
          CFI (cfiCond259) V15 load(1, XDATA, add(CFA_XSP16, literal(-7)))
          CFI (cfiCond259) R7 load(1, XDATA, add(CFA_XSP16, literal(-6)))
          CFI (cfiCond259) ?RET_LOW load(1, XDATA, add(CFA_XSP16, literal(-5)))
          CFI (cfiCond259) ?RET_HIGH load(1, XDATA, add(CFA_XSP16, literal(-4)))
          CFI (cfiCond259) ?BRET_EXT load(1, XDATA, add(CFA_XSP16, literal(-3)))
          CFI (cfiCond259) DPL0 load(1, XDATA, add(CFA_XSP16, literal(-2)))
          CFI (cfiCond259) DPH0 load(1, XDATA, add(CFA_XSP16, literal(-1)))
          CFI (cfiCond259) CFA_SP SP+0
          CFI (cfiCond259) CFA_XSP16 add(XSP16, 27)
          CFI Block cfiCond260 Using cfiCommon0
          CFI (cfiCond260) Function MT_AfIncomingMsg
          CFI (cfiCond260) Conditional ??CrossCallReturnLabel_128
          CFI (cfiCond260) R6 load(1, XDATA, add(CFA_XSP16, literal(-24)))
          CFI (cfiCond260) VB load(1, XDATA, add(CFA_XSP16, literal(-23)))
          CFI (cfiCond260) V0 load(1, XDATA, add(CFA_XSP16, literal(-22)))
          CFI (cfiCond260) V1 load(1, XDATA, add(CFA_XSP16, literal(-21)))
          CFI (cfiCond260) V2 load(1, XDATA, add(CFA_XSP16, literal(-20)))
          CFI (cfiCond260) V3 load(1, XDATA, add(CFA_XSP16, literal(-19)))
          CFI (cfiCond260) V4 load(1, XDATA, add(CFA_XSP16, literal(-18)))
          CFI (cfiCond260) V5 load(1, XDATA, add(CFA_XSP16, literal(-17)))
          CFI (cfiCond260) V6 load(1, XDATA, add(CFA_XSP16, literal(-16)))
          CFI (cfiCond260) V7 load(1, XDATA, add(CFA_XSP16, literal(-15)))
          CFI (cfiCond260) V8 load(1, XDATA, add(CFA_XSP16, literal(-14)))
          CFI (cfiCond260) V9 load(1, XDATA, add(CFA_XSP16, literal(-13)))
          CFI (cfiCond260) V10 load(1, XDATA, add(CFA_XSP16, literal(-12)))
          CFI (cfiCond260) V11 load(1, XDATA, add(CFA_XSP16, literal(-11)))
          CFI (cfiCond260) V12 load(1, XDATA, add(CFA_XSP16, literal(-10)))
          CFI (cfiCond260) V13 load(1, XDATA, add(CFA_XSP16, literal(-9)))
          CFI (cfiCond260) V14 load(1, XDATA, add(CFA_XSP16, literal(-8)))
          CFI (cfiCond260) V15 load(1, XDATA, add(CFA_XSP16, literal(-7)))
          CFI (cfiCond260) R7 load(1, XDATA, add(CFA_XSP16, literal(-6)))
          CFI (cfiCond260) ?RET_LOW load(1, XDATA, add(CFA_XSP16, literal(-5)))
          CFI (cfiCond260) ?RET_HIGH load(1, XDATA, add(CFA_XSP16, literal(-4)))
          CFI (cfiCond260) ?BRET_EXT load(1, XDATA, add(CFA_XSP16, literal(-3)))
          CFI (cfiCond260) DPL0 load(1, XDATA, add(CFA_XSP16, literal(-2)))
          CFI (cfiCond260) DPH0 load(1, XDATA, add(CFA_XSP16, literal(-1)))
          CFI (cfiCond260) CFA_SP SP+0
          CFI (cfiCond260) CFA_XSP16 add(XSP16, 27)
          CFI Block cfiCond261 Using cfiCommon0
          CFI (cfiCond261) Function MT_AfIncomingMsg
          CFI (cfiCond261) Conditional ??CrossCallReturnLabel_129
          CFI (cfiCond261) R6 load(1, XDATA, add(CFA_XSP16, literal(-24)))
          CFI (cfiCond261) VB load(1, XDATA, add(CFA_XSP16, literal(-23)))
          CFI (cfiCond261) V0 load(1, XDATA, add(CFA_XSP16, literal(-22)))
          CFI (cfiCond261) V1 load(1, XDATA, add(CFA_XSP16, literal(-21)))
          CFI (cfiCond261) V2 load(1, XDATA, add(CFA_XSP16, literal(-20)))
          CFI (cfiCond261) V3 load(1, XDATA, add(CFA_XSP16, literal(-19)))
          CFI (cfiCond261) V4 load(1, XDATA, add(CFA_XSP16, literal(-18)))
          CFI (cfiCond261) V5 load(1, XDATA, add(CFA_XSP16, literal(-17)))
          CFI (cfiCond261) V6 load(1, XDATA, add(CFA_XSP16, literal(-16)))
          CFI (cfiCond261) V7 load(1, XDATA, add(CFA_XSP16, literal(-15)))
          CFI (cfiCond261) V8 load(1, XDATA, add(CFA_XSP16, literal(-14)))
          CFI (cfiCond261) V9 load(1, XDATA, add(CFA_XSP16, literal(-13)))
          CFI (cfiCond261) V10 load(1, XDATA, add(CFA_XSP16, literal(-12)))
          CFI (cfiCond261) V11 load(1, XDATA, add(CFA_XSP16, literal(-11)))
          CFI (cfiCond261) V12 load(1, XDATA, add(CFA_XSP16, literal(-10)))
          CFI (cfiCond261) V13 load(1, XDATA, add(CFA_XSP16, literal(-9)))
          CFI (cfiCond261) V14 load(1, XDATA, add(CFA_XSP16, literal(-8)))
          CFI (cfiCond261) V15 load(1, XDATA, add(CFA_XSP16, literal(-7)))
          CFI (cfiCond261) R7 load(1, XDATA, add(CFA_XSP16, literal(-6)))
          CFI (cfiCond261) ?RET_LOW load(1, XDATA, add(CFA_XSP16, literal(-5)))
          CFI (cfiCond261) ?RET_HIGH load(1, XDATA, add(CFA_XSP16, literal(-4)))
          CFI (cfiCond261) ?BRET_EXT load(1, XDATA, add(CFA_XSP16, literal(-3)))
          CFI (cfiCond261) DPL0 load(1, XDATA, add(CFA_XSP16, literal(-2)))
          CFI (cfiCond261) DPH0 load(1, XDATA, add(CFA_XSP16, literal(-1)))
          CFI (cfiCond261) CFA_SP SP+0
          CFI (cfiCond261) CFA_XSP16 add(XSP16, 27)
          CFI Block cfiCond262 Using cfiCommon0
          CFI (cfiCond262) Function MT_AfIncomingMsg
          CFI (cfiCond262) Conditional ??CrossCallReturnLabel_130
          CFI (cfiCond262) R6 load(1, XDATA, add(CFA_XSP16, literal(-24)))
          CFI (cfiCond262) VB load(1, XDATA, add(CFA_XSP16, literal(-23)))
          CFI (cfiCond262) V0 load(1, XDATA, add(CFA_XSP16, literal(-22)))
          CFI (cfiCond262) V1 load(1, XDATA, add(CFA_XSP16, literal(-21)))
          CFI (cfiCond262) V2 load(1, XDATA, add(CFA_XSP16, literal(-20)))
          CFI (cfiCond262) V3 load(1, XDATA, add(CFA_XSP16, literal(-19)))
          CFI (cfiCond262) V4 load(1, XDATA, add(CFA_XSP16, literal(-18)))
          CFI (cfiCond262) V5 load(1, XDATA, add(CFA_XSP16, literal(-17)))
          CFI (cfiCond262) V6 load(1, XDATA, add(CFA_XSP16, literal(-16)))
          CFI (cfiCond262) V7 load(1, XDATA, add(CFA_XSP16, literal(-15)))
          CFI (cfiCond262) V8 load(1, XDATA, add(CFA_XSP16, literal(-14)))
          CFI (cfiCond262) V9 load(1, XDATA, add(CFA_XSP16, literal(-13)))
          CFI (cfiCond262) V10 load(1, XDATA, add(CFA_XSP16, literal(-12)))
          CFI (cfiCond262) V11 load(1, XDATA, add(CFA_XSP16, literal(-11)))
          CFI (cfiCond262) V12 load(1, XDATA, add(CFA_XSP16, literal(-10)))
          CFI (cfiCond262) V13 load(1, XDATA, add(CFA_XSP16, literal(-9)))
          CFI (cfiCond262) V14 load(1, XDATA, add(CFA_XSP16, literal(-8)))
          CFI (cfiCond262) V15 load(1, XDATA, add(CFA_XSP16, literal(-7)))
          CFI (cfiCond262) R7 load(1, XDATA, add(CFA_XSP16, literal(-6)))
          CFI (cfiCond262) ?RET_LOW load(1, XDATA, add(CFA_XSP16, literal(-5)))
          CFI (cfiCond262) ?RET_HIGH load(1, XDATA, add(CFA_XSP16, literal(-4)))
          CFI (cfiCond262) ?BRET_EXT load(1, XDATA, add(CFA_XSP16, literal(-3)))
          CFI (cfiCond262) DPL0 load(1, XDATA, add(CFA_XSP16, literal(-2)))
          CFI (cfiCond262) DPH0 load(1, XDATA, add(CFA_XSP16, literal(-1)))
          CFI (cfiCond262) CFA_SP SP+0
          CFI (cfiCond262) CFA_XSP16 add(XSP16, 27)
          CFI Block cfiCond263 Using cfiCommon0
          CFI (cfiCond263) Function MT_AfIncomingMsg
          CFI (cfiCond263) Conditional ??CrossCallReturnLabel_131
          CFI (cfiCond263) R6 load(1, XDATA, add(CFA_XSP16, literal(-24)))
          CFI (cfiCond263) VB load(1, XDATA, add(CFA_XSP16, literal(-23)))
          CFI (cfiCond263) V0 load(1, XDATA, add(CFA_XSP16, literal(-22)))
          CFI (cfiCond263) V1 load(1, XDATA, add(CFA_XSP16, literal(-21)))
          CFI (cfiCond263) V2 load(1, XDATA, add(CFA_XSP16, literal(-20)))
          CFI (cfiCond263) V3 load(1, XDATA, add(CFA_XSP16, literal(-19)))
          CFI (cfiCond263) V4 load(1, XDATA, add(CFA_XSP16, literal(-18)))
          CFI (cfiCond263) V5 load(1, XDATA, add(CFA_XSP16, literal(-17)))
          CFI (cfiCond263) V6 load(1, XDATA, add(CFA_XSP16, literal(-16)))
          CFI (cfiCond263) V7 load(1, XDATA, add(CFA_XSP16, literal(-15)))
          CFI (cfiCond263) V8 load(1, XDATA, add(CFA_XSP16, literal(-14)))
          CFI (cfiCond263) V9 load(1, XDATA, add(CFA_XSP16, literal(-13)))
          CFI (cfiCond263) V10 load(1, XDATA, add(CFA_XSP16, literal(-12)))
          CFI (cfiCond263) V11 load(1, XDATA, add(CFA_XSP16, literal(-11)))
          CFI (cfiCond263) V12 load(1, XDATA, add(CFA_XSP16, literal(-10)))
          CFI (cfiCond263) V13 load(1, XDATA, add(CFA_XSP16, literal(-9)))
          CFI (cfiCond263) V14 load(1, XDATA, add(CFA_XSP16, literal(-8)))
          CFI (cfiCond263) V15 load(1, XDATA, add(CFA_XSP16, literal(-7)))
          CFI (cfiCond263) R7 load(1, XDATA, add(CFA_XSP16, literal(-6)))
          CFI (cfiCond263) ?RET_LOW load(1, XDATA, add(CFA_XSP16, literal(-5)))
          CFI (cfiCond263) ?RET_HIGH load(1, XDATA, add(CFA_XSP16, literal(-4)))
          CFI (cfiCond263) ?BRET_EXT load(1, XDATA, add(CFA_XSP16, literal(-3)))
          CFI (cfiCond263) DPL0 load(1, XDATA, add(CFA_XSP16, literal(-2)))
          CFI (cfiCond263) DPH0 load(1, XDATA, add(CFA_XSP16, literal(-1)))
          CFI (cfiCond263) CFA_SP SP+0
          CFI (cfiCond263) CFA_XSP16 add(XSP16, 27)
          CFI Block cfiPicker264 Using cfiCommon1
          CFI (cfiPicker264) NoFunction
          CFI (cfiPicker264) Picker
        LCALL   ?Subroutine42 & 0xFFFF
??CrossCallReturnLabel_136:
        MOV     A,?V0 + 8
        RET
          CFI EndBlock cfiCond258
          CFI EndBlock cfiCond259
          CFI EndBlock cfiCond260
          CFI EndBlock cfiCond261
          CFI EndBlock cfiCond262
          CFI EndBlock cfiCond263
          CFI EndBlock cfiPicker264
//  817 
//  818 /**************************************************************************************************
//  819  * @fn          MT_AfDataRetrieve
//  820  *
//  821  * @brief   Process AF Data Retrieve command to incrementally read out a very large
//  822  *          incoming AF message.
//  823  *
//  824  * input parameters
//  825  *
//  826  * @param pBuf - pointer to the received buffer
//  827  *
//  828  * output parameters
//  829  *
//  830  * @param rtrn - AF-Status of the operation.
//  831  *
//  832  * @return      None.
//  833  **************************************************************************************************
//  834  */

        RSEG BANKED_CODE:CODE:NOROOT(0)
//  835 void MT_AfDataRetrieve(uint8 *pBuf)
MT_AfDataRetrieve:
          CFI Block cfiBlock265 Using cfiCommon0
          CFI Function MT_AfDataRetrieve
        CODE
//  836 {
        FUNCALL MT_AfDataRetrieve, osal_mem_free
        LOCFRAME ISTACK, 0, STACK
        LOCFRAME PSTACK, 0, STACK
        LOCFRAME XSTACK, 20, STACK
        LOCFRAME IOVERLAY, 0, STATIC
        LOCFRAME DOVERLAY, 0, STATIC
        ARGFRAME ISTACK, 0, STACK
        ARGFRAME PSTACK, 0, STACK
        ARGFRAME XSTACK, 20, STACK
        ARGFRAME IOVERLAY, 0, STATIC
        ARGFRAME DOVERLAY, 0, STATIC
        FUNCALL MT_AfDataRetrieve, MT_BuildAndSendZToolResponse
        LOCFRAME ISTACK, 0, STACK
        LOCFRAME PSTACK, 0, STACK
        LOCFRAME XSTACK, 20, STACK
        LOCFRAME IOVERLAY, 0, STATIC
        LOCFRAME DOVERLAY, 0, STATIC
        ARGFRAME ISTACK, 0, STACK
        ARGFRAME PSTACK, 0, STACK
        ARGFRAME XSTACK, 20, STACK
        ARGFRAME IOVERLAY, 0, STATIC
        ARGFRAME DOVERLAY, 0, STATIC
        FUNCALL MT_AfDataRetrieve, osal_mem_alloc
        LOCFRAME ISTACK, 0, STACK
        LOCFRAME PSTACK, 0, STACK
        LOCFRAME XSTACK, 20, STACK
        LOCFRAME IOVERLAY, 0, STATIC
        LOCFRAME DOVERLAY, 0, STATIC
        ARGFRAME ISTACK, 0, STACK
        ARGFRAME PSTACK, 0, STACK
        ARGFRAME XSTACK, 20, STACK
        ARGFRAME IOVERLAY, 0, STATIC
        ARGFRAME DOVERLAY, 0, STATIC
        FUNCALL MT_AfDataRetrieve, osal_memcpy
        LOCFRAME ISTACK, 0, STACK
        LOCFRAME PSTACK, 0, STACK
        LOCFRAME XSTACK, 23, STACK
        LOCFRAME IOVERLAY, 0, STATIC
        LOCFRAME DOVERLAY, 0, STATIC
        ARGFRAME ISTACK, 0, STACK
        ARGFRAME PSTACK, 0, STACK
        ARGFRAME XSTACK, 23, STACK
        ARGFRAME IOVERLAY, 0, STATIC
        ARGFRAME DOVERLAY, 0, STATIC
        FUNCALL MT_AfDataRetrieve, MT_BuildAndSendZToolResponse
        LOCFRAME ISTACK, 0, STACK
        LOCFRAME PSTACK, 0, STACK
        LOCFRAME XSTACK, 20, STACK
        LOCFRAME IOVERLAY, 0, STATIC
        LOCFRAME DOVERLAY, 0, STATIC
        ARGFRAME ISTACK, 0, STACK
        ARGFRAME PSTACK, 0, STACK
        ARGFRAME XSTACK, 20, STACK
        ARGFRAME IOVERLAY, 0, STATIC
        ARGFRAME DOVERLAY, 0, STATIC
        FUNCALL MT_AfDataRetrieve, osal_mem_free
        LOCFRAME ISTACK, 0, STACK
        LOCFRAME PSTACK, 0, STACK
        LOCFRAME XSTACK, 20, STACK
        LOCFRAME IOVERLAY, 0, STATIC
        LOCFRAME DOVERLAY, 0, STATIC
        ARGFRAME ISTACK, 0, STACK
        ARGFRAME PSTACK, 0, STACK
        ARGFRAME XSTACK, 20, STACK
        ARGFRAME IOVERLAY, 0, STATIC
        ARGFRAME DOVERLAY, 0, STATIC
        MOV     A,#-0x14
        LCALL   ?BANKED_ENTER_XDATA
          CFI DPH0 load(1, XDATA, add(CFA_XSP16, literal(-1)))
          CFI DPL0 load(1, XDATA, add(CFA_XSP16, literal(-2)))
          CFI ?BRET_EXT load(1, XDATA, add(CFA_XSP16, literal(-3)))
          CFI ?RET_HIGH load(1, XDATA, add(CFA_XSP16, literal(-4)))
          CFI ?RET_LOW load(1, XDATA, add(CFA_XSP16, literal(-5)))
          CFI R7 load(1, XDATA, add(CFA_XSP16, literal(-6)))
          CFI V11 load(1, XDATA, add(CFA_XSP16, literal(-7)))
          CFI V10 load(1, XDATA, add(CFA_XSP16, literal(-8)))
          CFI V9 load(1, XDATA, add(CFA_XSP16, literal(-9)))
          CFI V8 load(1, XDATA, add(CFA_XSP16, literal(-10)))
          CFI V7 load(1, XDATA, add(CFA_XSP16, literal(-11)))
          CFI V6 load(1, XDATA, add(CFA_XSP16, literal(-12)))
          CFI V5 load(1, XDATA, add(CFA_XSP16, literal(-13)))
          CFI V4 load(1, XDATA, add(CFA_XSP16, literal(-14)))
          CFI V3 load(1, XDATA, add(CFA_XSP16, literal(-15)))
          CFI V2 load(1, XDATA, add(CFA_XSP16, literal(-16)))
          CFI V1 load(1, XDATA, add(CFA_XSP16, literal(-17)))
          CFI V0 load(1, XDATA, add(CFA_XSP16, literal(-18)))
          CFI VB load(1, XDATA, add(CFA_XSP16, literal(-19)))
          CFI R6 load(1, XDATA, add(CFA_XSP16, literal(-20)))
          CFI CFA_SP SP+0
          CFI CFA_XSP16 add(XSP16, 20)
        ; Saved register size: 20
        ; Auto size: 0
        MOV     A,R2
        MOV     R6,A
        MOV     A,R3
        MOV     R7,A
//  837   #define MT_AF_RTV_HDR_SZ  2
//  838 
//  839   uint32 timestamp;
//  840   mtAfInMsgList_t *pPrev, *pItem = pMtAfInMsgList;
        MOV     DPTR,#pMtAfInMsgList
        MOVX    A,@DPTR
        MOV     ?V0 + 6,A
        INC     DPTR
        MOVX    A,@DPTR
        MOV     ?V0 + 7,A
//  841   uint8 rtrn = afStatus_FAILED;
        MOV     R2,#0x1
//  842   uint8 len = 0;
        MOV     ?V0 + 4,#0x0
//  843 
//  844   pBuf += MT_RPC_FRAME_HDR_SZ;
        MOV     A,R6
        ADD     A,#0x3
        LCALL   ??Subroutine58_0 & 0xFFFF
//  845   timestamp = BUILD_UINT32(pBuf[0], pBuf[1], pBuf[2], pBuf[3]);
??CrossCallReturnLabel_116:
        MOV     ?V0 + 0,A
        CLR     A
        MOV     ?V0 + 1,A
        MOV     ?V0 + 2,A
        MOV     ?V0 + 3,A
        INC     DPTR
        MOVX    A,@DPTR
        MOV     ?V0 + 8,A
        CLR     A
        MOV     ?V0 + 9,A
        MOV     ?V0 + 10,A
        MOV     ?V0 + 11,A
        MOV     A,#0x8
        MOV     R0,#?V0 + 8
        LCALL   ?L_SHL
        MOV     R0,#?V0 + 0
        MOV     R1,#?V0 + 8
        LCALL   ?L_ADD
        MOV     DPL,R6
        MOV     DPH,R7
        INC     DPTR
        INC     DPTR
        MOVX    A,@DPTR
        MOV     ?V0 + 8,A
        CLR     A
        MOV     ?V0 + 9,A
        MOV     A,#0x10
        MOV     R0,#?V0 + 8
        LCALL   ?L_SHL
        MOV     R0,#?V0 + 0
        MOV     R1,#?V0 + 8
        LCALL   ?L_ADD
        MOV     DPL,R6
        MOV     DPH,R7
        INC     DPTR
        INC     DPTR
        INC     DPTR
        MOVX    A,@DPTR
        MOV     ?V0 + 8,A
        CLR     A
        MOV     ?V0 + 10,A
        MOV     A,#0x18
        MOV     R0,#?V0 + 8
        LCALL   ?L_SHL
        MOV     R0,#?V0 + 0
        MOV     R1,#?V0 + 8
        LCALL   ?L_ADD
        SJMP    ??MT_AfDataRetrieve_0
//  846 
//  847   while (pItem != NULL)
//  848   {
//  849     pPrev = pItem;
//  850     if (pItem->timestamp == timestamp)
//  851     {
//  852       break;
//  853     }
//  854     pItem = pItem->next;
??MT_AfDataRetrieve_1:
        MOV     DPL,R4
        MOV     DPH,R5
        MOVX    A,@DPTR
        MOV     ?V0 + 6,A
        INC     DPTR
        MOVX    A,@DPTR
        MOV     ?V0 + 7,A
??MT_AfDataRetrieve_0:
        MOV     A,?V0 + 6
        ORL     A,?V0 + 7
        JZ      ??MT_AfDataRetrieve_2
        MOV     R4,?V0 + 6
        MOV     R5,?V0 + 7
        MOV     DPL,R4
        MOV     DPH,R5
        INC     DPTR
        INC     DPTR
        INC     DPTR
        INC     DPTR
        MOV     R0,#?V0 + 0
        LCALL   ?L_EQ_X
        JNZ     ??MT_AfDataRetrieve_1
//  855   }
//  856 
//  857   if (pItem != NULL)
//  858   {
//  859     uint16 idx;
//  860     uint8 *pRsp;
//  861 
//  862     pBuf += 4;
        MOV     A,R6
        ADD     A,#0x4
        MOV     R6,A
        MOV     A,R7
        ADDC    A,#0x0
        MOV     R7,A
//  863     idx = BUILD_UINT16(pBuf[0], pBuf[1]);
        LCALL   ?Subroutine15 & 0xFFFF
??CrossCallReturnLabel_122:
        MOV     ?V0 + 2,A
        CLR     A
        ADDC    A,R1
        MOV     ?V0 + 3,A
//  864     len = pBuf[2];
        MOV     DPL,R6
        MOV     DPH,R7
        INC     DPTR
        INC     DPTR
        MOVX    A,@DPTR
        MOV     ?V0 + 4,A
//  865 
//  866     if (len == 0)  // Indication to delete the afIncomingMSGPacket.
        JNZ     ??MT_AfDataRetrieve_3
//  867     {
//  868       if (pMtAfInMsgList == pItem)
        MOV     DPL,R4
        MOV     DPH,R5
        LCALL   ?Subroutine21 & 0xFFFF
??CrossCallReturnLabel_26:
        LCALL   ??Subroutine64_0 & 0xFFFF
??CrossCallReturnLabel_148:
        MOV     A,R4
        XRL     A,R2
        JNZ     ??MT_AfDataRetrieve_4
        MOV     A,R5
        XRL     A,R3
??MT_AfDataRetrieve_4:
        JNZ     ??MT_AfDataRetrieve_5
//  869       {
//  870         pMtAfInMsgList = pItem->next;
        MOV     DPTR,#pMtAfInMsgList
        SJMP    ??MT_AfDataRetrieve_6
//  871       }
//  872       else
//  873       {
//  874         pPrev->next = pItem->next;
??MT_AfDataRetrieve_5:
        MOV     DPL,R4
        MOV     DPH,R5
//  875       }
??MT_AfDataRetrieve_6:
        LCALL   ?Subroutine32 & 0xFFFF
//  876       (void)osal_mem_free(pItem);
??CrossCallReturnLabel_52:
        ; Setup parameters for call to function osal_mem_free
        MOV     R2,?V0 + 6
        MOV     R3,?V0 + 7
        LCALL   ??osal_mem_free?relay
//  877       rtrn = afStatus_SUCCESS;
        MOV     R2,#0x0
//  878     }
//  879     else if ((pRsp = osal_mem_alloc(len + MT_AF_RTV_HDR_SZ)) == NULL)
//  880     {
//  881       rtrn = afStatus_MEM_FAIL;
//  882       len = 0;
//  883     }
//  884     else
//  885     {
//  886       pRsp[0] = ZSuccess;
//  887       pRsp[1] = len;
//  888       (void)osal_memcpy(pRsp + MT_AF_RTV_HDR_SZ, pItem->data+idx, len);
//  889       MT_BuildAndSendZToolResponse(((uint8)MT_RPC_CMD_SRSP | (uint8)MT_RPC_SYS_AF),
//  890                                            MT_AF_DATA_RETRIEVE, len + MT_AF_RTV_HDR_SZ, pRsp);
//  891       (void)osal_mem_free(pRsp);
//  892       return;
//  893     }
//  894   }
//  895 
//  896   pBuf[0] = rtrn;
??MT_AfDataRetrieve_2:
        MOV     A,R2
        MOV     DPL,R6
        MOV     DPH,R7
        MOVX    @DPTR,A
//  897   pBuf[1] = len;
        INC     DPTR
        MOV     A,?V0 + 4
        MOVX    @DPTR,A
//  898   MT_BuildAndSendZToolResponse(((uint8)MT_RPC_CMD_SRSP | (uint8)MT_RPC_SYS_AF),
//  899                                        MT_AF_DATA_RETRIEVE, MT_AF_RTV_HDR_SZ, pBuf);
        ; Setup parameters for call to function MT_BuildAndSendZToolResponse
        MOV     A,R6
        MOV     R4,A
        MOV     A,R7
        MOV     R5,A
        MOV     R3,#0x2
        MOV     R2,#0x12
        MOV     R1,#0x64
        LCALL   ??MT_BuildAndSendZToolResponse?relay
//  900 }
??MT_AfDataRetrieve_7:
        MOV     R7,#0xc
        LJMP    ?BANKED_LEAVE_XDATA
??MT_AfDataRetrieve_3:
        ; Setup parameters for call to function osal_mem_alloc
        ADD     A,#0x2
        MOV     R2,A
        CLR     A
        ADDC    A,#0x0
        MOV     R3,A
        LCALL   ??osal_mem_alloc?relay
        MOV     ?V0 + 0,R2
        MOV     ?V0 + 1,R3
        MOV     A,R2
        ORL     A,?V0 + 1
        JNZ     ??MT_AfDataRetrieve_8
        MOV     R2,#0x10
        MOV     ?V0 + 4,#0x0
        SJMP    ??MT_AfDataRetrieve_2
??MT_AfDataRetrieve_8:
        MOV     DPL,R2
        MOV     DPH,R3
        CLR     A
        MOVX    @DPTR,A
        INC     DPTR
        MOV     A,?V0 + 4
        MOVX    @DPTR,A
        ; Setup parameters for call to function osal_memcpy
        MOV     DPL,?V0 + 6
        MOV     DPH,?V0 + 7
        INC     DPTR
        INC     DPTR
        MOVX    A,@DPTR
        ADD     A,?V0 + 2
        MOV     ?V0 + 8,A
        INC     DPTR
        MOVX    A,@DPTR
        ADDC    A,?V0 + 3
        MOV     ?V0 + 9,A
        MOV     R0,#?V0 + 8
        LCALL   ?PUSH_XSTACK_I_THREE
          CFI CFA_XSP16 add(XSP16, 23)
        MOV     ?V0 + 2,?V0 + 4
        MOV     R4,?V0 + 2
        MOV     R5,#0x0
        MOV     A,R2
        ADD     A,#0x2
        MOV     R2,A
        MOV     A,R3
        ADDC    A,#0x0
        MOV     R3,A
        LCALL   ??osal_memcpy?relay
        MOV     A,#0x3
        LCALL   ?DEALLOC_XSTACK8
          CFI CFA_XSP16 add(XSP16, 20)
        ; Setup parameters for call to function MT_BuildAndSendZToolResponse
        MOV     R4,?V0 + 0
        MOV     R5,?V0 + 1
        MOV     A,#0x2
        ADD     A,?V0 + 4
        MOV     R3,A
        MOV     R2,#0x12
        MOV     R1,#0x64
        LCALL   ??MT_BuildAndSendZToolResponse?relay
        ; Setup parameters for call to function osal_mem_free
        MOV     R2,?V0 + 0
        MOV     R3,?V0 + 1
        LCALL   ??osal_mem_free?relay
        SJMP    ??MT_AfDataRetrieve_7
          CFI EndBlock cfiBlock265

        RSEG BANKED_CODE:CODE:NOROOT(0)
?Subroutine21:
          CFI Block cfiCond266 Using cfiCommon0
          CFI Function MT_AfExec
          CFI Conditional ??CrossCallReturnLabel_25
          CFI R6 load(1, XDATA, add(CFA_XSP16, literal(-9)))
          CFI VB load(1, XDATA, add(CFA_XSP16, literal(-8)))
          CFI V0 load(1, XDATA, add(CFA_XSP16, literal(-7)))
          CFI R7 load(1, XDATA, add(CFA_XSP16, literal(-6)))
          CFI ?RET_LOW load(1, XDATA, add(CFA_XSP16, literal(-5)))
          CFI ?RET_HIGH load(1, XDATA, add(CFA_XSP16, literal(-4)))
          CFI ?BRET_EXT load(1, XDATA, add(CFA_XSP16, literal(-3)))
          CFI DPL0 load(1, XDATA, add(CFA_XSP16, literal(-2)))
          CFI DPH0 load(1, XDATA, add(CFA_XSP16, literal(-1)))
          CFI CFA_SP SP+0
          CFI CFA_XSP16 add(XSP16, 9)
          CFI Block cfiCond267 Using cfiCommon0
          CFI (cfiCond267) Function MT_AfDataRetrieve
          CFI (cfiCond267) Conditional ??CrossCallReturnLabel_26
          CFI (cfiCond267) R6 load(1, XDATA, add(CFA_XSP16, literal(-20)))
          CFI (cfiCond267) VB load(1, XDATA, add(CFA_XSP16, literal(-19)))
          CFI (cfiCond267) V0 load(1, XDATA, add(CFA_XSP16, literal(-18)))
          CFI (cfiCond267) V1 load(1, XDATA, add(CFA_XSP16, literal(-17)))
          CFI (cfiCond267) V2 load(1, XDATA, add(CFA_XSP16, literal(-16)))
          CFI (cfiCond267) V3 load(1, XDATA, add(CFA_XSP16, literal(-15)))
          CFI (cfiCond267) V4 load(1, XDATA, add(CFA_XSP16, literal(-14)))
          CFI (cfiCond267) V5 load(1, XDATA, add(CFA_XSP16, literal(-13)))
          CFI (cfiCond267) V6 load(1, XDATA, add(CFA_XSP16, literal(-12)))
          CFI (cfiCond267) V7 load(1, XDATA, add(CFA_XSP16, literal(-11)))
          CFI (cfiCond267) V8 load(1, XDATA, add(CFA_XSP16, literal(-10)))
          CFI (cfiCond267) V9 load(1, XDATA, add(CFA_XSP16, literal(-9)))
          CFI (cfiCond267) V10 load(1, XDATA, add(CFA_XSP16, literal(-8)))
          CFI (cfiCond267) V11 load(1, XDATA, add(CFA_XSP16, literal(-7)))
          CFI (cfiCond267) R7 load(1, XDATA, add(CFA_XSP16, literal(-6)))
          CFI (cfiCond267) ?RET_LOW load(1, XDATA, add(CFA_XSP16, literal(-5)))
          CFI (cfiCond267) ?RET_HIGH load(1, XDATA, add(CFA_XSP16, literal(-4)))
          CFI (cfiCond267) ?BRET_EXT load(1, XDATA, add(CFA_XSP16, literal(-3)))
          CFI (cfiCond267) DPL0 load(1, XDATA, add(CFA_XSP16, literal(-2)))
          CFI (cfiCond267) DPH0 load(1, XDATA, add(CFA_XSP16, literal(-1)))
          CFI (cfiCond267) CFA_SP SP+0
          CFI (cfiCond267) CFA_XSP16 add(XSP16, 20)
          CFI Block cfiPicker268 Using cfiCommon1
          CFI (cfiPicker268) NoFunction
          CFI (cfiPicker268) Picker
        LCALL   ??Subroutine63_0 & 0xFFFF
??CrossCallReturnLabel_140:
        MOV     DPTR,#pMtAfInMsgList
        RET
          CFI EndBlock cfiCond266
          CFI EndBlock cfiCond267
          CFI EndBlock cfiPicker268

        RSEG BANKED_CODE:CODE:NOROOT(0)
?Subroutine43:
          CFI Block cfiCond269 Using cfiCommon0
          CFI Function MT_AfExec
          CFI Conditional ??CrossCallReturnLabel_141
          CFI R6 load(1, XDATA, add(CFA_XSP16, literal(-9)))
          CFI VB load(1, XDATA, add(CFA_XSP16, literal(-8)))
          CFI V0 load(1, XDATA, add(CFA_XSP16, literal(-7)))
          CFI R7 load(1, XDATA, add(CFA_XSP16, literal(-6)))
          CFI ?RET_LOW load(1, XDATA, add(CFA_XSP16, literal(-5)))
          CFI ?RET_HIGH load(1, XDATA, add(CFA_XSP16, literal(-4)))
          CFI ?BRET_EXT load(1, XDATA, add(CFA_XSP16, literal(-3)))
          CFI DPL0 load(1, XDATA, add(CFA_XSP16, literal(-2)))
          CFI DPH0 load(1, XDATA, add(CFA_XSP16, literal(-1)))
          CFI CFA_SP SP+0
          CFI CFA_XSP16 add(XSP16, 9)
          CFI Block cfiCond270 Using cfiCommon0
          CFI (cfiCond270) Function MT_AfIncomingMsg
          CFI (cfiCond270) Conditional ??CrossCallReturnLabel_142
          CFI (cfiCond270) R6 load(1, XDATA, add(CFA_XSP16, literal(-24)))
          CFI (cfiCond270) VB load(1, XDATA, add(CFA_XSP16, literal(-23)))
          CFI (cfiCond270) V0 load(1, XDATA, add(CFA_XSP16, literal(-22)))
          CFI (cfiCond270) V1 load(1, XDATA, add(CFA_XSP16, literal(-21)))
          CFI (cfiCond270) V2 load(1, XDATA, add(CFA_XSP16, literal(-20)))
          CFI (cfiCond270) V3 load(1, XDATA, add(CFA_XSP16, literal(-19)))
          CFI (cfiCond270) V4 load(1, XDATA, add(CFA_XSP16, literal(-18)))
          CFI (cfiCond270) V5 load(1, XDATA, add(CFA_XSP16, literal(-17)))
          CFI (cfiCond270) V6 load(1, XDATA, add(CFA_XSP16, literal(-16)))
          CFI (cfiCond270) V7 load(1, XDATA, add(CFA_XSP16, literal(-15)))
          CFI (cfiCond270) V8 load(1, XDATA, add(CFA_XSP16, literal(-14)))
          CFI (cfiCond270) V9 load(1, XDATA, add(CFA_XSP16, literal(-13)))
          CFI (cfiCond270) V10 load(1, XDATA, add(CFA_XSP16, literal(-12)))
          CFI (cfiCond270) V11 load(1, XDATA, add(CFA_XSP16, literal(-11)))
          CFI (cfiCond270) V12 load(1, XDATA, add(CFA_XSP16, literal(-10)))
          CFI (cfiCond270) V13 load(1, XDATA, add(CFA_XSP16, literal(-9)))
          CFI (cfiCond270) V14 load(1, XDATA, add(CFA_XSP16, literal(-8)))
          CFI (cfiCond270) V15 load(1, XDATA, add(CFA_XSP16, literal(-7)))
          CFI (cfiCond270) R7 load(1, XDATA, add(CFA_XSP16, literal(-6)))
          CFI (cfiCond270) ?RET_LOW load(1, XDATA, add(CFA_XSP16, literal(-5)))
          CFI (cfiCond270) ?RET_HIGH load(1, XDATA, add(CFA_XSP16, literal(-4)))
          CFI (cfiCond270) ?BRET_EXT load(1, XDATA, add(CFA_XSP16, literal(-3)))
          CFI (cfiCond270) DPL0 load(1, XDATA, add(CFA_XSP16, literal(-2)))
          CFI (cfiCond270) DPH0 load(1, XDATA, add(CFA_XSP16, literal(-1)))
          CFI (cfiCond270) CFA_SP SP+0
          CFI (cfiCond270) CFA_XSP16 add(XSP16, 27)
          CFI Block cfiPicker271 Using cfiCommon1
          CFI (cfiPicker271) NoFunction
          CFI (cfiPicker271) Picker
        MOV     DPTR,#pMtAfInMsgList
          CFI EndBlock cfiCond269
          CFI EndBlock cfiCond270
          CFI EndBlock cfiPicker271
        REQUIRE ??Subroutine63_0
        ; // Fall through to label ??Subroutine63_0

        RSEG BANKED_CODE:CODE:NOROOT(0)
??Subroutine63_0:
          CFI Block cfiCond272 Using cfiCommon0
          CFI Function MT_AfExec
          CFI Conditional ??CrossCallReturnLabel_139
          CFI R6 load(1, XDATA, add(CFA_XSP16, literal(-9)))
          CFI VB load(1, XDATA, add(CFA_XSP16, literal(-8)))
          CFI V0 load(1, XDATA, add(CFA_XSP16, literal(-7)))
          CFI R7 load(1, XDATA, add(CFA_XSP16, literal(-6)))
          CFI ?RET_LOW load(1, XDATA, add(CFA_XSP16, literal(-5)))
          CFI ?RET_HIGH load(1, XDATA, add(CFA_XSP16, literal(-4)))
          CFI ?BRET_EXT load(1, XDATA, add(CFA_XSP16, literal(-3)))
          CFI DPL0 load(1, XDATA, add(CFA_XSP16, literal(-2)))
          CFI DPH0 load(1, XDATA, add(CFA_XSP16, literal(-1)))
          CFI CFA_SP SP+0
          CFI CFA_XSP16 add(XSP16, 9)
          CFI Block cfiCond273 Using cfiCommon0
          CFI (cfiCond273) Function MT_AfExec
          CFI (cfiCond273) Conditional ??CrossCallReturnLabel_143, ??CrossCallReturnLabel_109
          CFI (cfiCond273) R6 load(1, XDATA, add(CFA_XSP16, literal(-9)))
          CFI (cfiCond273) VB load(1, XDATA, add(CFA_XSP16, literal(-8)))
          CFI (cfiCond273) V0 load(1, XDATA, add(CFA_XSP16, literal(-7)))
          CFI (cfiCond273) R7 load(1, XDATA, add(CFA_XSP16, literal(-6)))
          CFI (cfiCond273) ?RET_LOW load(1, XDATA, add(CFA_XSP16, literal(-5)))
          CFI (cfiCond273) ?RET_HIGH load(1, XDATA, add(CFA_XSP16, literal(-4)))
          CFI (cfiCond273) ?BRET_EXT load(1, XDATA, add(CFA_XSP16, literal(-3)))
          CFI (cfiCond273) DPL0 load(1, XDATA, add(CFA_XSP16, literal(-2)))
          CFI (cfiCond273) DPH0 load(1, XDATA, add(CFA_XSP16, literal(-1)))
          CFI (cfiCond273) CFA_SP SP+0
          CFI (cfiCond273) CFA_XSP16 add(XSP16, 9)
          CFI Block cfiCond274 Using cfiCommon0
          CFI (cfiCond274) Function MT_AfExec
          CFI (cfiCond274) Conditional ??CrossCallReturnLabel_143, ??CrossCallReturnLabel_110
          CFI (cfiCond274) R6 load(1, XDATA, add(CFA_XSP16, literal(-9)))
          CFI (cfiCond274) VB load(1, XDATA, add(CFA_XSP16, literal(-8)))
          CFI (cfiCond274) V0 load(1, XDATA, add(CFA_XSP16, literal(-7)))
          CFI (cfiCond274) R7 load(1, XDATA, add(CFA_XSP16, literal(-6)))
          CFI (cfiCond274) ?RET_LOW load(1, XDATA, add(CFA_XSP16, literal(-5)))
          CFI (cfiCond274) ?RET_HIGH load(1, XDATA, add(CFA_XSP16, literal(-4)))
          CFI (cfiCond274) ?BRET_EXT load(1, XDATA, add(CFA_XSP16, literal(-3)))
          CFI (cfiCond274) DPL0 load(1, XDATA, add(CFA_XSP16, literal(-2)))
          CFI (cfiCond274) DPH0 load(1, XDATA, add(CFA_XSP16, literal(-1)))
          CFI (cfiCond274) CFA_SP SP+0
          CFI (cfiCond274) CFA_XSP16 add(XSP16, 9)
          CFI Block cfiCond275 Using cfiCommon0
          CFI (cfiCond275) Function MT_AfDataRequest
          CFI (cfiCond275) Conditional ??CrossCallReturnLabel_143, ??CrossCallReturnLabel_111
          CFI (cfiCond275) R6 load(1, XDATA, add(CFA_XSP16, literal(-22)))
          CFI (cfiCond275) VB load(1, XDATA, add(CFA_XSP16, literal(-21)))
          CFI (cfiCond275) V0 load(1, XDATA, add(CFA_XSP16, literal(-20)))
          CFI (cfiCond275) V1 load(1, XDATA, add(CFA_XSP16, literal(-19)))
          CFI (cfiCond275) V2 load(1, XDATA, add(CFA_XSP16, literal(-18)))
          CFI (cfiCond275) V3 load(1, XDATA, add(CFA_XSP16, literal(-17)))
          CFI (cfiCond275) V4 load(1, XDATA, add(CFA_XSP16, literal(-16)))
          CFI (cfiCond275) V5 load(1, XDATA, add(CFA_XSP16, literal(-15)))
          CFI (cfiCond275) V6 load(1, XDATA, add(CFA_XSP16, literal(-14)))
          CFI (cfiCond275) V7 load(1, XDATA, add(CFA_XSP16, literal(-13)))
          CFI (cfiCond275) V8 load(1, XDATA, add(CFA_XSP16, literal(-12)))
          CFI (cfiCond275) V9 load(1, XDATA, add(CFA_XSP16, literal(-11)))
          CFI (cfiCond275) V10 load(1, XDATA, add(CFA_XSP16, literal(-10)))
          CFI (cfiCond275) V11 load(1, XDATA, add(CFA_XSP16, literal(-9)))
          CFI (cfiCond275) V12 load(1, XDATA, add(CFA_XSP16, literal(-8)))
          CFI (cfiCond275) V13 load(1, XDATA, add(CFA_XSP16, literal(-7)))
          CFI (cfiCond275) R7 load(1, XDATA, add(CFA_XSP16, literal(-6)))
          CFI (cfiCond275) ?RET_LOW load(1, XDATA, add(CFA_XSP16, literal(-5)))
          CFI (cfiCond275) ?RET_HIGH load(1, XDATA, add(CFA_XSP16, literal(-4)))
          CFI (cfiCond275) ?BRET_EXT load(1, XDATA, add(CFA_XSP16, literal(-3)))
          CFI (cfiCond275) DPL0 load(1, XDATA, add(CFA_XSP16, literal(-2)))
          CFI (cfiCond275) DPH0 load(1, XDATA, add(CFA_XSP16, literal(-1)))
          CFI (cfiCond275) CFA_SP SP+0
          CFI (cfiCond275) CFA_XSP16 add(XSP16, 36)
          CFI Block cfiCond276 Using cfiCommon0
          CFI (cfiCond276) Function MT_AfDataRequest
          CFI (cfiCond276) Conditional ??CrossCallReturnLabel_143, ??CrossCallReturnLabel_112
          CFI (cfiCond276) R6 load(1, XDATA, add(CFA_XSP16, literal(-22)))
          CFI (cfiCond276) VB load(1, XDATA, add(CFA_XSP16, literal(-21)))
          CFI (cfiCond276) V0 load(1, XDATA, add(CFA_XSP16, literal(-20)))
          CFI (cfiCond276) V1 load(1, XDATA, add(CFA_XSP16, literal(-19)))
          CFI (cfiCond276) V2 load(1, XDATA, add(CFA_XSP16, literal(-18)))
          CFI (cfiCond276) V3 load(1, XDATA, add(CFA_XSP16, literal(-17)))
          CFI (cfiCond276) V4 load(1, XDATA, add(CFA_XSP16, literal(-16)))
          CFI (cfiCond276) V5 load(1, XDATA, add(CFA_XSP16, literal(-15)))
          CFI (cfiCond276) V6 load(1, XDATA, add(CFA_XSP16, literal(-14)))
          CFI (cfiCond276) V7 load(1, XDATA, add(CFA_XSP16, literal(-13)))
          CFI (cfiCond276) V8 load(1, XDATA, add(CFA_XSP16, literal(-12)))
          CFI (cfiCond276) V9 load(1, XDATA, add(CFA_XSP16, literal(-11)))
          CFI (cfiCond276) V10 load(1, XDATA, add(CFA_XSP16, literal(-10)))
          CFI (cfiCond276) V11 load(1, XDATA, add(CFA_XSP16, literal(-9)))
          CFI (cfiCond276) V12 load(1, XDATA, add(CFA_XSP16, literal(-8)))
          CFI (cfiCond276) V13 load(1, XDATA, add(CFA_XSP16, literal(-7)))
          CFI (cfiCond276) R7 load(1, XDATA, add(CFA_XSP16, literal(-6)))
          CFI (cfiCond276) ?RET_LOW load(1, XDATA, add(CFA_XSP16, literal(-5)))
          CFI (cfiCond276) ?RET_HIGH load(1, XDATA, add(CFA_XSP16, literal(-4)))
          CFI (cfiCond276) ?BRET_EXT load(1, XDATA, add(CFA_XSP16, literal(-3)))
          CFI (cfiCond276) DPL0 load(1, XDATA, add(CFA_XSP16, literal(-2)))
          CFI (cfiCond276) DPH0 load(1, XDATA, add(CFA_XSP16, literal(-1)))
          CFI (cfiCond276) CFA_SP SP+0
          CFI (cfiCond276) CFA_XSP16 add(XSP16, 36)
          CFI Block cfiCond277 Using cfiCommon0
          CFI (cfiCond277) Function MT_AfDataStore
          CFI (cfiCond277) Conditional ??CrossCallReturnLabel_143, ??CrossCallReturnLabel_113
          CFI (cfiCond277) R6 load(1, XDATA, add(CFA_XSP16, literal(-14)))
          CFI (cfiCond277) VB load(1, XDATA, add(CFA_XSP16, literal(-13)))
          CFI (cfiCond277) V0 load(1, XDATA, add(CFA_XSP16, literal(-12)))
          CFI (cfiCond277) V1 load(1, XDATA, add(CFA_XSP16, literal(-11)))
          CFI (cfiCond277) V2 load(1, XDATA, add(CFA_XSP16, literal(-10)))
          CFI (cfiCond277) V3 load(1, XDATA, add(CFA_XSP16, literal(-9)))
          CFI (cfiCond277) V4 load(1, XDATA, add(CFA_XSP16, literal(-8)))
          CFI (cfiCond277) V5 load(1, XDATA, add(CFA_XSP16, literal(-7)))
          CFI (cfiCond277) R7 load(1, XDATA, add(CFA_XSP16, literal(-6)))
          CFI (cfiCond277) ?RET_LOW load(1, XDATA, add(CFA_XSP16, literal(-5)))
          CFI (cfiCond277) ?RET_HIGH load(1, XDATA, add(CFA_XSP16, literal(-4)))
          CFI (cfiCond277) ?BRET_EXT load(1, XDATA, add(CFA_XSP16, literal(-3)))
          CFI (cfiCond277) DPL0 load(1, XDATA, add(CFA_XSP16, literal(-2)))
          CFI (cfiCond277) DPH0 load(1, XDATA, add(CFA_XSP16, literal(-1)))
          CFI (cfiCond277) CFA_SP SP+0
          CFI (cfiCond277) CFA_XSP16 add(XSP16, 15)
          CFI Block cfiCond278 Using cfiCommon0
          CFI (cfiCond278) Function MT_AfExec
          CFI (cfiCond278) Conditional ??CrossCallReturnLabel_143, ??CrossCallReturnLabel_107
          CFI (cfiCond278) R6 load(1, XDATA, add(CFA_XSP16, literal(-9)))
          CFI (cfiCond278) VB load(1, XDATA, add(CFA_XSP16, literal(-8)))
          CFI (cfiCond278) V0 load(1, XDATA, add(CFA_XSP16, literal(-7)))
          CFI (cfiCond278) R7 load(1, XDATA, add(CFA_XSP16, literal(-6)))
          CFI (cfiCond278) ?RET_LOW load(1, XDATA, add(CFA_XSP16, literal(-5)))
          CFI (cfiCond278) ?RET_HIGH load(1, XDATA, add(CFA_XSP16, literal(-4)))
          CFI (cfiCond278) ?BRET_EXT load(1, XDATA, add(CFA_XSP16, literal(-3)))
          CFI (cfiCond278) DPL0 load(1, XDATA, add(CFA_XSP16, literal(-2)))
          CFI (cfiCond278) DPH0 load(1, XDATA, add(CFA_XSP16, literal(-1)))
          CFI (cfiCond278) CFA_SP SP+0
          CFI (cfiCond278) CFA_XSP16 add(XSP16, 9)
          CFI Block cfiCond279 Using cfiCommon0
          CFI (cfiCond279) Function MT_AfIncomingMsg
          CFI (cfiCond279) Conditional ??CrossCallReturnLabel_143, ??CrossCallReturnLabel_108
          CFI (cfiCond279) R6 load(1, XDATA, add(CFA_XSP16, literal(-24)))
          CFI (cfiCond279) VB load(1, XDATA, add(CFA_XSP16, literal(-23)))
          CFI (cfiCond279) V0 load(1, XDATA, add(CFA_XSP16, literal(-22)))
          CFI (cfiCond279) V1 load(1, XDATA, add(CFA_XSP16, literal(-21)))
          CFI (cfiCond279) V2 load(1, XDATA, add(CFA_XSP16, literal(-20)))
          CFI (cfiCond279) V3 load(1, XDATA, add(CFA_XSP16, literal(-19)))
          CFI (cfiCond279) V4 load(1, XDATA, add(CFA_XSP16, literal(-18)))
          CFI (cfiCond279) V5 load(1, XDATA, add(CFA_XSP16, literal(-17)))
          CFI (cfiCond279) V6 load(1, XDATA, add(CFA_XSP16, literal(-16)))
          CFI (cfiCond279) V7 load(1, XDATA, add(CFA_XSP16, literal(-15)))
          CFI (cfiCond279) V8 load(1, XDATA, add(CFA_XSP16, literal(-14)))
          CFI (cfiCond279) V9 load(1, XDATA, add(CFA_XSP16, literal(-13)))
          CFI (cfiCond279) V10 load(1, XDATA, add(CFA_XSP16, literal(-12)))
          CFI (cfiCond279) V11 load(1, XDATA, add(CFA_XSP16, literal(-11)))
          CFI (cfiCond279) V12 load(1, XDATA, add(CFA_XSP16, literal(-10)))
          CFI (cfiCond279) V13 load(1, XDATA, add(CFA_XSP16, literal(-9)))
          CFI (cfiCond279) V14 load(1, XDATA, add(CFA_XSP16, literal(-8)))
          CFI (cfiCond279) V15 load(1, XDATA, add(CFA_XSP16, literal(-7)))
          CFI (cfiCond279) R7 load(1, XDATA, add(CFA_XSP16, literal(-6)))
          CFI (cfiCond279) ?RET_LOW load(1, XDATA, add(CFA_XSP16, literal(-5)))
          CFI (cfiCond279) ?RET_HIGH load(1, XDATA, add(CFA_XSP16, literal(-4)))
          CFI (cfiCond279) ?BRET_EXT load(1, XDATA, add(CFA_XSP16, literal(-3)))
          CFI (cfiCond279) DPL0 load(1, XDATA, add(CFA_XSP16, literal(-2)))
          CFI (cfiCond279) DPH0 load(1, XDATA, add(CFA_XSP16, literal(-1)))
          CFI (cfiCond279) CFA_SP SP+0
          CFI (cfiCond279) CFA_XSP16 add(XSP16, 27)
          CFI Block cfiCond280 Using cfiCommon0
          CFI (cfiCond280) Function MT_AfExec
          CFI (cfiCond280) Conditional ??CrossCallReturnLabel_140, ??CrossCallReturnLabel_25
          CFI (cfiCond280) R6 load(1, XDATA, add(CFA_XSP16, literal(-9)))
          CFI (cfiCond280) VB load(1, XDATA, add(CFA_XSP16, literal(-8)))
          CFI (cfiCond280) V0 load(1, XDATA, add(CFA_XSP16, literal(-7)))
          CFI (cfiCond280) R7 load(1, XDATA, add(CFA_XSP16, literal(-6)))
          CFI (cfiCond280) ?RET_LOW load(1, XDATA, add(CFA_XSP16, literal(-5)))
          CFI (cfiCond280) ?RET_HIGH load(1, XDATA, add(CFA_XSP16, literal(-4)))
          CFI (cfiCond280) ?BRET_EXT load(1, XDATA, add(CFA_XSP16, literal(-3)))
          CFI (cfiCond280) DPL0 load(1, XDATA, add(CFA_XSP16, literal(-2)))
          CFI (cfiCond280) DPH0 load(1, XDATA, add(CFA_XSP16, literal(-1)))
          CFI (cfiCond280) CFA_SP SP+0
          CFI (cfiCond280) CFA_XSP16 add(XSP16, 9)
          CFI Block cfiCond281 Using cfiCommon0
          CFI (cfiCond281) Function MT_AfDataRetrieve
          CFI (cfiCond281) Conditional ??CrossCallReturnLabel_140, ??CrossCallReturnLabel_26
          CFI (cfiCond281) R6 load(1, XDATA, add(CFA_XSP16, literal(-20)))
          CFI (cfiCond281) VB load(1, XDATA, add(CFA_XSP16, literal(-19)))
          CFI (cfiCond281) V0 load(1, XDATA, add(CFA_XSP16, literal(-18)))
          CFI (cfiCond281) V1 load(1, XDATA, add(CFA_XSP16, literal(-17)))
          CFI (cfiCond281) V2 load(1, XDATA, add(CFA_XSP16, literal(-16)))
          CFI (cfiCond281) V3 load(1, XDATA, add(CFA_XSP16, literal(-15)))
          CFI (cfiCond281) V4 load(1, XDATA, add(CFA_XSP16, literal(-14)))
          CFI (cfiCond281) V5 load(1, XDATA, add(CFA_XSP16, literal(-13)))
          CFI (cfiCond281) V6 load(1, XDATA, add(CFA_XSP16, literal(-12)))
          CFI (cfiCond281) V7 load(1, XDATA, add(CFA_XSP16, literal(-11)))
          CFI (cfiCond281) V8 load(1, XDATA, add(CFA_XSP16, literal(-10)))
          CFI (cfiCond281) V9 load(1, XDATA, add(CFA_XSP16, literal(-9)))
          CFI (cfiCond281) V10 load(1, XDATA, add(CFA_XSP16, literal(-8)))
          CFI (cfiCond281) V11 load(1, XDATA, add(CFA_XSP16, literal(-7)))
          CFI (cfiCond281) R7 load(1, XDATA, add(CFA_XSP16, literal(-6)))
          CFI (cfiCond281) ?RET_LOW load(1, XDATA, add(CFA_XSP16, literal(-5)))
          CFI (cfiCond281) ?RET_HIGH load(1, XDATA, add(CFA_XSP16, literal(-4)))
          CFI (cfiCond281) ?BRET_EXT load(1, XDATA, add(CFA_XSP16, literal(-3)))
          CFI (cfiCond281) DPL0 load(1, XDATA, add(CFA_XSP16, literal(-2)))
          CFI (cfiCond281) DPH0 load(1, XDATA, add(CFA_XSP16, literal(-1)))
          CFI (cfiCond281) CFA_SP SP+0
          CFI (cfiCond281) CFA_XSP16 add(XSP16, 20)
          CFI Block cfiCond282 Using cfiCommon0
          CFI (cfiCond282) Function MT_AfExec
          CFI (cfiCond282) Conditional ??CrossCallReturnLabel_141
          CFI (cfiCond282) R6 load(1, XDATA, add(CFA_XSP16, literal(-9)))
          CFI (cfiCond282) VB load(1, XDATA, add(CFA_XSP16, literal(-8)))
          CFI (cfiCond282) V0 load(1, XDATA, add(CFA_XSP16, literal(-7)))
          CFI (cfiCond282) R7 load(1, XDATA, add(CFA_XSP16, literal(-6)))
          CFI (cfiCond282) ?RET_LOW load(1, XDATA, add(CFA_XSP16, literal(-5)))
          CFI (cfiCond282) ?RET_HIGH load(1, XDATA, add(CFA_XSP16, literal(-4)))
          CFI (cfiCond282) ?BRET_EXT load(1, XDATA, add(CFA_XSP16, literal(-3)))
          CFI (cfiCond282) DPL0 load(1, XDATA, add(CFA_XSP16, literal(-2)))
          CFI (cfiCond282) DPH0 load(1, XDATA, add(CFA_XSP16, literal(-1)))
          CFI (cfiCond282) CFA_SP SP+0
          CFI (cfiCond282) CFA_XSP16 add(XSP16, 9)
          CFI Block cfiCond283 Using cfiCommon0
          CFI (cfiCond283) Function MT_AfIncomingMsg
          CFI (cfiCond283) Conditional ??CrossCallReturnLabel_142
          CFI (cfiCond283) R6 load(1, XDATA, add(CFA_XSP16, literal(-24)))
          CFI (cfiCond283) VB load(1, XDATA, add(CFA_XSP16, literal(-23)))
          CFI (cfiCond283) V0 load(1, XDATA, add(CFA_XSP16, literal(-22)))
          CFI (cfiCond283) V1 load(1, XDATA, add(CFA_XSP16, literal(-21)))
          CFI (cfiCond283) V2 load(1, XDATA, add(CFA_XSP16, literal(-20)))
          CFI (cfiCond283) V3 load(1, XDATA, add(CFA_XSP16, literal(-19)))
          CFI (cfiCond283) V4 load(1, XDATA, add(CFA_XSP16, literal(-18)))
          CFI (cfiCond283) V5 load(1, XDATA, add(CFA_XSP16, literal(-17)))
          CFI (cfiCond283) V6 load(1, XDATA, add(CFA_XSP16, literal(-16)))
          CFI (cfiCond283) V7 load(1, XDATA, add(CFA_XSP16, literal(-15)))
          CFI (cfiCond283) V8 load(1, XDATA, add(CFA_XSP16, literal(-14)))
          CFI (cfiCond283) V9 load(1, XDATA, add(CFA_XSP16, literal(-13)))
          CFI (cfiCond283) V10 load(1, XDATA, add(CFA_XSP16, literal(-12)))
          CFI (cfiCond283) V11 load(1, XDATA, add(CFA_XSP16, literal(-11)))
          CFI (cfiCond283) V12 load(1, XDATA, add(CFA_XSP16, literal(-10)))
          CFI (cfiCond283) V13 load(1, XDATA, add(CFA_XSP16, literal(-9)))
          CFI (cfiCond283) V14 load(1, XDATA, add(CFA_XSP16, literal(-8)))
          CFI (cfiCond283) V15 load(1, XDATA, add(CFA_XSP16, literal(-7)))
          CFI (cfiCond283) R7 load(1, XDATA, add(CFA_XSP16, literal(-6)))
          CFI (cfiCond283) ?RET_LOW load(1, XDATA, add(CFA_XSP16, literal(-5)))
          CFI (cfiCond283) ?RET_HIGH load(1, XDATA, add(CFA_XSP16, literal(-4)))
          CFI (cfiCond283) ?BRET_EXT load(1, XDATA, add(CFA_XSP16, literal(-3)))
          CFI (cfiCond283) DPL0 load(1, XDATA, add(CFA_XSP16, literal(-2)))
          CFI (cfiCond283) DPH0 load(1, XDATA, add(CFA_XSP16, literal(-1)))
          CFI (cfiCond283) CFA_SP SP+0
          CFI (cfiCond283) CFA_XSP16 add(XSP16, 27)
          CFI Block cfiPicker284 Using cfiCommon1
          CFI (cfiPicker284) NoFunction
          CFI (cfiPicker284) Picker
        MOVX    A,@DPTR
        MOV     R0,A
        INC     DPTR
        MOVX    A,@DPTR
        MOV     R1,A
        RET
          CFI EndBlock cfiCond272
          CFI EndBlock cfiCond273
          CFI EndBlock cfiCond274
          CFI EndBlock cfiCond275
          CFI EndBlock cfiCond276
          CFI EndBlock cfiCond277
          CFI EndBlock cfiCond278
          CFI EndBlock cfiCond279
          CFI EndBlock cfiCond280
          CFI EndBlock cfiCond281
          CFI EndBlock cfiCond282
          CFI EndBlock cfiCond283
          CFI EndBlock cfiPicker284

        RSEG BANKED_CODE:CODE:NOROOT(0)
?Subroutine7:
          CFI Block cfiCond285 Using cfiCommon0
          CFI Function MT_AfExec
          CFI Conditional ??CrossCallReturnLabel_149
          CFI R6 load(1, XDATA, add(CFA_XSP16, literal(-9)))
          CFI VB load(1, XDATA, add(CFA_XSP16, literal(-8)))
          CFI V0 load(1, XDATA, add(CFA_XSP16, literal(-7)))
          CFI R7 load(1, XDATA, add(CFA_XSP16, literal(-6)))
          CFI ?RET_LOW load(1, XDATA, add(CFA_XSP16, literal(-5)))
          CFI ?RET_HIGH load(1, XDATA, add(CFA_XSP16, literal(-4)))
          CFI ?BRET_EXT load(1, XDATA, add(CFA_XSP16, literal(-3)))
          CFI DPL0 load(1, XDATA, add(CFA_XSP16, literal(-2)))
          CFI DPH0 load(1, XDATA, add(CFA_XSP16, literal(-1)))
          CFI CFA_SP SP+0
          CFI CFA_XSP16 add(XSP16, 9)
          CFI Block cfiCond286 Using cfiCommon0
          CFI (cfiCond286) Function MT_AfDataStore
          CFI (cfiCond286) Conditional ??CrossCallReturnLabel_150
          CFI (cfiCond286) R6 load(1, XDATA, add(CFA_XSP16, literal(-14)))
          CFI (cfiCond286) VB load(1, XDATA, add(CFA_XSP16, literal(-13)))
          CFI (cfiCond286) V0 load(1, XDATA, add(CFA_XSP16, literal(-12)))
          CFI (cfiCond286) V1 load(1, XDATA, add(CFA_XSP16, literal(-11)))
          CFI (cfiCond286) V2 load(1, XDATA, add(CFA_XSP16, literal(-10)))
          CFI (cfiCond286) V3 load(1, XDATA, add(CFA_XSP16, literal(-9)))
          CFI (cfiCond286) V4 load(1, XDATA, add(CFA_XSP16, literal(-8)))
          CFI (cfiCond286) V5 load(1, XDATA, add(CFA_XSP16, literal(-7)))
          CFI (cfiCond286) R7 load(1, XDATA, add(CFA_XSP16, literal(-6)))
          CFI (cfiCond286) ?RET_LOW load(1, XDATA, add(CFA_XSP16, literal(-5)))
          CFI (cfiCond286) ?RET_HIGH load(1, XDATA, add(CFA_XSP16, literal(-4)))
          CFI (cfiCond286) ?BRET_EXT load(1, XDATA, add(CFA_XSP16, literal(-3)))
          CFI (cfiCond286) DPL0 load(1, XDATA, add(CFA_XSP16, literal(-2)))
          CFI (cfiCond286) DPH0 load(1, XDATA, add(CFA_XSP16, literal(-1)))
          CFI (cfiCond286) CFA_SP SP+0
          CFI (cfiCond286) CFA_XSP16 add(XSP16, 15)
          CFI Block cfiPicker287 Using cfiCommon1
          CFI (cfiPicker287) NoFunction
          CFI (cfiPicker287) Picker
        MOV     DPTR,#pMtAfDataReq
          CFI EndBlock cfiCond285
          CFI EndBlock cfiCond286
          CFI EndBlock cfiPicker287
        REQUIRE ??Subroutine64_0
        ; // Fall through to label ??Subroutine64_0

        RSEG BANKED_CODE:CODE:NOROOT(0)
??Subroutine64_0:
          CFI Block cfiCond288 Using cfiCommon0
          CFI Function MT_AfExec
          CFI Conditional ??CrossCallReturnLabel_144
          CFI R6 load(1, XDATA, add(CFA_XSP16, literal(-9)))
          CFI VB load(1, XDATA, add(CFA_XSP16, literal(-8)))
          CFI V0 load(1, XDATA, add(CFA_XSP16, literal(-7)))
          CFI R7 load(1, XDATA, add(CFA_XSP16, literal(-6)))
          CFI ?RET_LOW load(1, XDATA, add(CFA_XSP16, literal(-5)))
          CFI ?RET_HIGH load(1, XDATA, add(CFA_XSP16, literal(-4)))
          CFI ?BRET_EXT load(1, XDATA, add(CFA_XSP16, literal(-3)))
          CFI DPL0 load(1, XDATA, add(CFA_XSP16, literal(-2)))
          CFI DPH0 load(1, XDATA, add(CFA_XSP16, literal(-1)))
          CFI CFA_SP SP+0
          CFI CFA_XSP16 add(XSP16, 9)
          CFI Block cfiCond289 Using cfiCommon0
          CFI (cfiCond289) Function MT_AfIncomingMsg
          CFI (cfiCond289) Conditional ??CrossCallReturnLabel_145
          CFI (cfiCond289) R6 load(1, XDATA, add(CFA_XSP16, literal(-24)))
          CFI (cfiCond289) VB load(1, XDATA, add(CFA_XSP16, literal(-23)))
          CFI (cfiCond289) V0 load(1, XDATA, add(CFA_XSP16, literal(-22)))
          CFI (cfiCond289) V1 load(1, XDATA, add(CFA_XSP16, literal(-21)))
          CFI (cfiCond289) V2 load(1, XDATA, add(CFA_XSP16, literal(-20)))
          CFI (cfiCond289) V3 load(1, XDATA, add(CFA_XSP16, literal(-19)))
          CFI (cfiCond289) V4 load(1, XDATA, add(CFA_XSP16, literal(-18)))
          CFI (cfiCond289) V5 load(1, XDATA, add(CFA_XSP16, literal(-17)))
          CFI (cfiCond289) V6 load(1, XDATA, add(CFA_XSP16, literal(-16)))
          CFI (cfiCond289) V7 load(1, XDATA, add(CFA_XSP16, literal(-15)))
          CFI (cfiCond289) V8 load(1, XDATA, add(CFA_XSP16, literal(-14)))
          CFI (cfiCond289) V9 load(1, XDATA, add(CFA_XSP16, literal(-13)))
          CFI (cfiCond289) V10 load(1, XDATA, add(CFA_XSP16, literal(-12)))
          CFI (cfiCond289) V11 load(1, XDATA, add(CFA_XSP16, literal(-11)))
          CFI (cfiCond289) V12 load(1, XDATA, add(CFA_XSP16, literal(-10)))
          CFI (cfiCond289) V13 load(1, XDATA, add(CFA_XSP16, literal(-9)))
          CFI (cfiCond289) V14 load(1, XDATA, add(CFA_XSP16, literal(-8)))
          CFI (cfiCond289) V15 load(1, XDATA, add(CFA_XSP16, literal(-7)))
          CFI (cfiCond289) R7 load(1, XDATA, add(CFA_XSP16, literal(-6)))
          CFI (cfiCond289) ?RET_LOW load(1, XDATA, add(CFA_XSP16, literal(-5)))
          CFI (cfiCond289) ?RET_HIGH load(1, XDATA, add(CFA_XSP16, literal(-4)))
          CFI (cfiCond289) ?BRET_EXT load(1, XDATA, add(CFA_XSP16, literal(-3)))
          CFI (cfiCond289) DPL0 load(1, XDATA, add(CFA_XSP16, literal(-2)))
          CFI (cfiCond289) DPH0 load(1, XDATA, add(CFA_XSP16, literal(-1)))
          CFI (cfiCond289) CFA_SP SP+0
          CFI (cfiCond289) CFA_XSP16 add(XSP16, 27)
          CFI Block cfiCond290 Using cfiCommon0
          CFI (cfiCond290) Function MT_AfIncomingMsg
          CFI (cfiCond290) Conditional ??CrossCallReturnLabel_146
          CFI (cfiCond290) R6 load(1, XDATA, add(CFA_XSP16, literal(-24)))
          CFI (cfiCond290) VB load(1, XDATA, add(CFA_XSP16, literal(-23)))
          CFI (cfiCond290) V0 load(1, XDATA, add(CFA_XSP16, literal(-22)))
          CFI (cfiCond290) V1 load(1, XDATA, add(CFA_XSP16, literal(-21)))
          CFI (cfiCond290) V2 load(1, XDATA, add(CFA_XSP16, literal(-20)))
          CFI (cfiCond290) V3 load(1, XDATA, add(CFA_XSP16, literal(-19)))
          CFI (cfiCond290) V4 load(1, XDATA, add(CFA_XSP16, literal(-18)))
          CFI (cfiCond290) V5 load(1, XDATA, add(CFA_XSP16, literal(-17)))
          CFI (cfiCond290) V6 load(1, XDATA, add(CFA_XSP16, literal(-16)))
          CFI (cfiCond290) V7 load(1, XDATA, add(CFA_XSP16, literal(-15)))
          CFI (cfiCond290) V8 load(1, XDATA, add(CFA_XSP16, literal(-14)))
          CFI (cfiCond290) V9 load(1, XDATA, add(CFA_XSP16, literal(-13)))
          CFI (cfiCond290) V10 load(1, XDATA, add(CFA_XSP16, literal(-12)))
          CFI (cfiCond290) V11 load(1, XDATA, add(CFA_XSP16, literal(-11)))
          CFI (cfiCond290) V12 load(1, XDATA, add(CFA_XSP16, literal(-10)))
          CFI (cfiCond290) V13 load(1, XDATA, add(CFA_XSP16, literal(-9)))
          CFI (cfiCond290) V14 load(1, XDATA, add(CFA_XSP16, literal(-8)))
          CFI (cfiCond290) V15 load(1, XDATA, add(CFA_XSP16, literal(-7)))
          CFI (cfiCond290) R7 load(1, XDATA, add(CFA_XSP16, literal(-6)))
          CFI (cfiCond290) ?RET_LOW load(1, XDATA, add(CFA_XSP16, literal(-5)))
          CFI (cfiCond290) ?RET_HIGH load(1, XDATA, add(CFA_XSP16, literal(-4)))
          CFI (cfiCond290) ?BRET_EXT load(1, XDATA, add(CFA_XSP16, literal(-3)))
          CFI (cfiCond290) DPL0 load(1, XDATA, add(CFA_XSP16, literal(-2)))
          CFI (cfiCond290) DPH0 load(1, XDATA, add(CFA_XSP16, literal(-1)))
          CFI (cfiCond290) CFA_SP SP+0
          CFI (cfiCond290) CFA_XSP16 add(XSP16, 30)
          CFI Block cfiCond291 Using cfiCommon0
          CFI (cfiCond291) Function MT_AfIncomingMsg
          CFI (cfiCond291) Conditional ??CrossCallReturnLabel_147
          CFI (cfiCond291) R6 load(1, XDATA, add(CFA_XSP16, literal(-24)))
          CFI (cfiCond291) VB load(1, XDATA, add(CFA_XSP16, literal(-23)))
          CFI (cfiCond291) V0 load(1, XDATA, add(CFA_XSP16, literal(-22)))
          CFI (cfiCond291) V1 load(1, XDATA, add(CFA_XSP16, literal(-21)))
          CFI (cfiCond291) V2 load(1, XDATA, add(CFA_XSP16, literal(-20)))
          CFI (cfiCond291) V3 load(1, XDATA, add(CFA_XSP16, literal(-19)))
          CFI (cfiCond291) V4 load(1, XDATA, add(CFA_XSP16, literal(-18)))
          CFI (cfiCond291) V5 load(1, XDATA, add(CFA_XSP16, literal(-17)))
          CFI (cfiCond291) V6 load(1, XDATA, add(CFA_XSP16, literal(-16)))
          CFI (cfiCond291) V7 load(1, XDATA, add(CFA_XSP16, literal(-15)))
          CFI (cfiCond291) V8 load(1, XDATA, add(CFA_XSP16, literal(-14)))
          CFI (cfiCond291) V9 load(1, XDATA, add(CFA_XSP16, literal(-13)))
          CFI (cfiCond291) V10 load(1, XDATA, add(CFA_XSP16, literal(-12)))
          CFI (cfiCond291) V11 load(1, XDATA, add(CFA_XSP16, literal(-11)))
          CFI (cfiCond291) V12 load(1, XDATA, add(CFA_XSP16, literal(-10)))
          CFI (cfiCond291) V13 load(1, XDATA, add(CFA_XSP16, literal(-9)))
          CFI (cfiCond291) V14 load(1, XDATA, add(CFA_XSP16, literal(-8)))
          CFI (cfiCond291) V15 load(1, XDATA, add(CFA_XSP16, literal(-7)))
          CFI (cfiCond291) R7 load(1, XDATA, add(CFA_XSP16, literal(-6)))
          CFI (cfiCond291) ?RET_LOW load(1, XDATA, add(CFA_XSP16, literal(-5)))
          CFI (cfiCond291) ?RET_HIGH load(1, XDATA, add(CFA_XSP16, literal(-4)))
          CFI (cfiCond291) ?BRET_EXT load(1, XDATA, add(CFA_XSP16, literal(-3)))
          CFI (cfiCond291) DPL0 load(1, XDATA, add(CFA_XSP16, literal(-2)))
          CFI (cfiCond291) DPH0 load(1, XDATA, add(CFA_XSP16, literal(-1)))
          CFI (cfiCond291) CFA_SP SP+0
          CFI (cfiCond291) CFA_XSP16 add(XSP16, 27)
          CFI Block cfiCond292 Using cfiCommon0
          CFI (cfiCond292) Function MT_AfDataRetrieve
          CFI (cfiCond292) Conditional ??CrossCallReturnLabel_148
          CFI (cfiCond292) R6 load(1, XDATA, add(CFA_XSP16, literal(-20)))
          CFI (cfiCond292) VB load(1, XDATA, add(CFA_XSP16, literal(-19)))
          CFI (cfiCond292) V0 load(1, XDATA, add(CFA_XSP16, literal(-18)))
          CFI (cfiCond292) V1 load(1, XDATA, add(CFA_XSP16, literal(-17)))
          CFI (cfiCond292) V2 load(1, XDATA, add(CFA_XSP16, literal(-16)))
          CFI (cfiCond292) V3 load(1, XDATA, add(CFA_XSP16, literal(-15)))
          CFI (cfiCond292) V4 load(1, XDATA, add(CFA_XSP16, literal(-14)))
          CFI (cfiCond292) V5 load(1, XDATA, add(CFA_XSP16, literal(-13)))
          CFI (cfiCond292) V6 load(1, XDATA, add(CFA_XSP16, literal(-12)))
          CFI (cfiCond292) V7 load(1, XDATA, add(CFA_XSP16, literal(-11)))
          CFI (cfiCond292) V8 load(1, XDATA, add(CFA_XSP16, literal(-10)))
          CFI (cfiCond292) V9 load(1, XDATA, add(CFA_XSP16, literal(-9)))
          CFI (cfiCond292) V10 load(1, XDATA, add(CFA_XSP16, literal(-8)))
          CFI (cfiCond292) V11 load(1, XDATA, add(CFA_XSP16, literal(-7)))
          CFI (cfiCond292) R7 load(1, XDATA, add(CFA_XSP16, literal(-6)))
          CFI (cfiCond292) ?RET_LOW load(1, XDATA, add(CFA_XSP16, literal(-5)))
          CFI (cfiCond292) ?RET_HIGH load(1, XDATA, add(CFA_XSP16, literal(-4)))
          CFI (cfiCond292) ?BRET_EXT load(1, XDATA, add(CFA_XSP16, literal(-3)))
          CFI (cfiCond292) DPL0 load(1, XDATA, add(CFA_XSP16, literal(-2)))
          CFI (cfiCond292) DPH0 load(1, XDATA, add(CFA_XSP16, literal(-1)))
          CFI (cfiCond292) CFA_SP SP+0
          CFI (cfiCond292) CFA_XSP16 add(XSP16, 20)
          CFI Block cfiCond293 Using cfiCommon0
          CFI (cfiCond293) Function MT_AfExec
          CFI (cfiCond293) Conditional ??CrossCallReturnLabel_149
          CFI (cfiCond293) R6 load(1, XDATA, add(CFA_XSP16, literal(-9)))
          CFI (cfiCond293) VB load(1, XDATA, add(CFA_XSP16, literal(-8)))
          CFI (cfiCond293) V0 load(1, XDATA, add(CFA_XSP16, literal(-7)))
          CFI (cfiCond293) R7 load(1, XDATA, add(CFA_XSP16, literal(-6)))
          CFI (cfiCond293) ?RET_LOW load(1, XDATA, add(CFA_XSP16, literal(-5)))
          CFI (cfiCond293) ?RET_HIGH load(1, XDATA, add(CFA_XSP16, literal(-4)))
          CFI (cfiCond293) ?BRET_EXT load(1, XDATA, add(CFA_XSP16, literal(-3)))
          CFI (cfiCond293) DPL0 load(1, XDATA, add(CFA_XSP16, literal(-2)))
          CFI (cfiCond293) DPH0 load(1, XDATA, add(CFA_XSP16, literal(-1)))
          CFI (cfiCond293) CFA_SP SP+0
          CFI (cfiCond293) CFA_XSP16 add(XSP16, 9)
          CFI Block cfiCond294 Using cfiCommon0
          CFI (cfiCond294) Function MT_AfDataStore
          CFI (cfiCond294) Conditional ??CrossCallReturnLabel_150
          CFI (cfiCond294) R6 load(1, XDATA, add(CFA_XSP16, literal(-14)))
          CFI (cfiCond294) VB load(1, XDATA, add(CFA_XSP16, literal(-13)))
          CFI (cfiCond294) V0 load(1, XDATA, add(CFA_XSP16, literal(-12)))
          CFI (cfiCond294) V1 load(1, XDATA, add(CFA_XSP16, literal(-11)))
          CFI (cfiCond294) V2 load(1, XDATA, add(CFA_XSP16, literal(-10)))
          CFI (cfiCond294) V3 load(1, XDATA, add(CFA_XSP16, literal(-9)))
          CFI (cfiCond294) V4 load(1, XDATA, add(CFA_XSP16, literal(-8)))
          CFI (cfiCond294) V5 load(1, XDATA, add(CFA_XSP16, literal(-7)))
          CFI (cfiCond294) R7 load(1, XDATA, add(CFA_XSP16, literal(-6)))
          CFI (cfiCond294) ?RET_LOW load(1, XDATA, add(CFA_XSP16, literal(-5)))
          CFI (cfiCond294) ?RET_HIGH load(1, XDATA, add(CFA_XSP16, literal(-4)))
          CFI (cfiCond294) ?BRET_EXT load(1, XDATA, add(CFA_XSP16, literal(-3)))
          CFI (cfiCond294) DPL0 load(1, XDATA, add(CFA_XSP16, literal(-2)))
          CFI (cfiCond294) DPH0 load(1, XDATA, add(CFA_XSP16, literal(-1)))
          CFI (cfiCond294) CFA_SP SP+0
          CFI (cfiCond294) CFA_XSP16 add(XSP16, 15)
          CFI Block cfiPicker295 Using cfiCommon1
          CFI (cfiPicker295) NoFunction
          CFI (cfiPicker295) Picker
        MOVX    A,@DPTR
        MOV     R2,A
        INC     DPTR
        MOVX    A,@DPTR
        MOV     R3,A
        RET
          CFI EndBlock cfiCond288
          CFI EndBlock cfiCond289
          CFI EndBlock cfiCond290
          CFI EndBlock cfiCond291
          CFI EndBlock cfiCond292
          CFI EndBlock cfiCond293
          CFI EndBlock cfiCond294
          CFI EndBlock cfiPicker295
//  901 
//  902 /**************************************************************************************************
//  903  * @fn          MT_AfDataStore
//  904  *
//  905  * @brief   Process AF Data Store command to incrementally store the data buffer for very large
//  906  *          outgoing AF message.
//  907  *
//  908  * input parameters
//  909  *
//  910  * @param pBuf - pointer to the received buffer
//  911  *
//  912  * output parameters
//  913  *
//  914  * @param rtrn - AF-Status of the operation.
//  915  *
//  916  * @return      None.
//  917  **************************************************************************************************
//  918  */

        RSEG BANKED_CODE:CODE:NOROOT(0)
//  919 void MT_AfDataStore(uint8 *pBuf)
MT_AfDataStore:
          CFI Block cfiBlock296 Using cfiCommon0
          CFI Function MT_AfDataStore
        CODE
//  920 {
        FUNCALL MT_AfDataStore, AF_DataRequest
        LOCFRAME ISTACK, 0, STACK
        LOCFRAME PSTACK, 0, STACK
        LOCFRAME XSTACK, 24, STACK
        LOCFRAME IOVERLAY, 0, STATIC
        LOCFRAME DOVERLAY, 0, STATIC
        ARGFRAME ISTACK, 0, STACK
        ARGFRAME PSTACK, 0, STACK
        ARGFRAME XSTACK, 24, STACK
        ARGFRAME IOVERLAY, 0, STATIC
        ARGFRAME DOVERLAY, 0, STATIC
        FUNCALL MT_AfDataStore, osal_mem_free
        LOCFRAME ISTACK, 0, STACK
        LOCFRAME PSTACK, 0, STACK
        LOCFRAME XSTACK, 15, STACK
        LOCFRAME IOVERLAY, 0, STATIC
        LOCFRAME DOVERLAY, 0, STATIC
        ARGFRAME ISTACK, 0, STACK
        ARGFRAME PSTACK, 0, STACK
        ARGFRAME XSTACK, 15, STACK
        ARGFRAME IOVERLAY, 0, STATIC
        ARGFRAME DOVERLAY, 0, STATIC
        FUNCALL MT_AfDataStore, osal_memcpy
        LOCFRAME ISTACK, 0, STACK
        LOCFRAME PSTACK, 0, STACK
        LOCFRAME XSTACK, 18, STACK
        LOCFRAME IOVERLAY, 0, STATIC
        LOCFRAME DOVERLAY, 0, STATIC
        ARGFRAME ISTACK, 0, STACK
        ARGFRAME PSTACK, 0, STACK
        ARGFRAME XSTACK, 18, STACK
        ARGFRAME IOVERLAY, 0, STATIC
        ARGFRAME DOVERLAY, 0, STATIC
        FUNCALL MT_AfDataStore, MT_BuildAndSendZToolResponse
        LOCFRAME ISTACK, 0, STACK
        LOCFRAME PSTACK, 0, STACK
        LOCFRAME XSTACK, 15, STACK
        LOCFRAME IOVERLAY, 0, STATIC
        LOCFRAME DOVERLAY, 0, STATIC
        ARGFRAME ISTACK, 0, STACK
        ARGFRAME PSTACK, 0, STACK
        ARGFRAME XSTACK, 15, STACK
        ARGFRAME IOVERLAY, 0, STATIC
        ARGFRAME DOVERLAY, 0, STATIC
        MOV     A,#-0xe
        LCALL   ?BANKED_ENTER_XDATA
          CFI DPH0 load(1, XDATA, add(CFA_XSP16, literal(-1)))
          CFI DPL0 load(1, XDATA, add(CFA_XSP16, literal(-2)))
          CFI ?BRET_EXT load(1, XDATA, add(CFA_XSP16, literal(-3)))
          CFI ?RET_HIGH load(1, XDATA, add(CFA_XSP16, literal(-4)))
          CFI ?RET_LOW load(1, XDATA, add(CFA_XSP16, literal(-5)))
          CFI R7 load(1, XDATA, add(CFA_XSP16, literal(-6)))
          CFI V5 load(1, XDATA, add(CFA_XSP16, literal(-7)))
          CFI V4 load(1, XDATA, add(CFA_XSP16, literal(-8)))
          CFI V3 load(1, XDATA, add(CFA_XSP16, literal(-9)))
          CFI V2 load(1, XDATA, add(CFA_XSP16, literal(-10)))
          CFI V1 load(1, XDATA, add(CFA_XSP16, literal(-11)))
          CFI V0 load(1, XDATA, add(CFA_XSP16, literal(-12)))
          CFI VB load(1, XDATA, add(CFA_XSP16, literal(-13)))
          CFI R6 load(1, XDATA, add(CFA_XSP16, literal(-14)))
          CFI CFA_SP SP+0
          CFI CFA_XSP16 add(XSP16, 14)
        ; Saved register size: 14
        ; Auto size: 1
        MOV     A,#-0x1
        LCALL   ?ALLOC_XSTACK8
          CFI CFA_XSP16 add(XSP16, 15)
//  921   uint16 idx;
//  922   uint8 len, rtrn = afStatus_FAILED;
        MOV     DPL,?XSP + 0
        MOV     DPH,?XSP + 1
        MOV     A,#0x1
        MOVX    @DPTR,A
//  923 
//  924   pBuf += MT_RPC_FRAME_HDR_SZ;
        MOV     A,R2
        ADD     A,#0x3
        MOV     R2,A
        MOV     A,R3
        ADDC    A,#0x0
        MOV     R3,A
//  925   idx = BUILD_UINT16(pBuf[0], pBuf[1]);
        MOV     DPL,R2
        MOV     DPH,R3
        MOVX    A,@DPTR
        MOV     R4,A
        INC     DPTR
        MOVX    A,@DPTR
        MOV     R1,A
        MOV     A,R4
        ADD     A,#0x0
        MOV     R6,A
        CLR     A
        ADDC    A,R1
        MOV     R7,A
//  926   len = pBuf[2];
        MOV     DPL,R2
        MOV     DPH,R3
        INC     DPTR
        INC     DPTR
        MOVX    A,@DPTR
        MOV     R4,A
//  927   pBuf += 3;
        MOV     A,R2
        ADD     A,#0x3
        MOV     R2,A
        MOV     A,R3
        ADDC    A,#0x0
        MOV     R3,A
//  928 
//  929   if (pMtAfDataReq == NULL)
        LCALL   ?Subroutine5 & 0xFFFF
??CrossCallReturnLabel_113:
        JNZ     ??MT_AfDataStore_0
//  930   {
//  931     rtrn = afStatus_MEM_FAIL;
        MOV     DPL,?XSP + 0
        MOV     DPH,?XSP + 1
        MOV     A,#0x10
        LJMP    ??MT_AfDataStore_1 & 0xFFFF
//  932   }
//  933   else if (len == 0)  // Indication to send the message.
??MT_AfDataStore_0:
        LCALL   ?Subroutine22 & 0xFFFF
??CrossCallReturnLabel_28:
        LCALL   ?Subroutine44 & 0xFFFF
??CrossCallReturnLabel_70:
        MOV     A,R4
        JNZ     ??MT_AfDataStore_2
//  934   {
//  935     rtrn = AF_DataRequest(&(pMtAfDataReq->dstAddr), pMtAfDataReq->epDesc, pMtAfDataReq->cId,
//  936                             pMtAfDataReq->dataLen,  pMtAfDataReq->data,
//  937                           &(pMtAfDataReq->transId), pMtAfDataReq->txOpts, pMtAfDataReq->radius);
        ; Setup parameters for call to function AF_DataRequest
        MOV     DPTR,#pMtAfDataReq + 1
        LCALL   ?Subroutine17 & 0xFFFF
??CrossCallReturnLabel_20:
        MOVX    A,@DPTR
        MOV     ?V0 + 0,A
        MOV     R0,#?V0 + 0
        LCALL   ?PUSH_XSTACK_I_ONE
          CFI CFA_XSP16 add(XSP16, 16)
        MOV     DPTR,#pMtAfDataReq
        MOVX    A,@DPTR
        ADD     A,#0x14
        MOV     ?V0 + 0,A
        INC     DPTR
        MOVX    A,@DPTR
        ADDC    A,#0x0
        MOV     ?V0 + 1,A
        MOV     R0,#?V0 + 0
        LCALL   ?PUSH_XSTACK_I_TWO
          CFI CFA_XSP16 add(XSP16, 18)
        MOV     R0,#?V0 + 4
        LCALL   ?PUSH_XSTACK_I_TWO
          CFI CFA_XSP16 add(XSP16, 20)
        LCALL   ?Subroutine13 & 0xFFFF
??CrossCallReturnLabel_13:
        LCALL   ?PUSH_XSTACK8_X_TWO
          CFI CFA_XSP16 add(XSP16, 22)
        LCALL   ?Subroutine12 & 0xFFFF
??CrossCallReturnLabel_11:
        LCALL   ?PUSH_XSTACK8_X_TWO
          CFI CFA_XSP16 add(XSP16, 24)
        LCALL   ?Subroutine14 & 0xFFFF
??CrossCallReturnLabel_15:
        MOVX    A,@DPTR
        MOV     R1,A
        LCALL   ?Subroutine11 & 0xFFFF
??CrossCallReturnLabel_9:
        MOVX    A,@DPTR
        MOV     R4,A
        INC     DPTR
        MOVX    A,@DPTR
        MOV     R5,A
        LCALL   ?Subroutine20 & 0xFFFF
??CrossCallReturnLabel_24:
        LCALL   ??AF_DataRequest?relay
        MOV     A,#0x9
        LCALL   ?DEALLOC_XSTACK8
          CFI CFA_XSP16 add(XSP16, 15)
        MOV     A,R1
        MOV     DPL,?XSP + 0
        MOV     DPH,?XSP + 1
        MOVX    @DPTR,A
//  938     (void)osal_mem_free(pMtAfDataReq);
        ; Setup parameters for call to function osal_mem_free
        LCALL   ?Subroutine7 & 0xFFFF
??CrossCallReturnLabel_150:
        LCALL   ??osal_mem_free?relay
//  939     pMtAfDataReq = NULL;
        MOV     DPTR,#pMtAfDataReq
        CLR     A
        MOVX    @DPTR,A
        INC     DPTR
        SJMP    ??MT_AfDataStore_1
//  940   }
//  941   else
//  942   {
//  943     (void)osal_memcpy(pMtAfDataReq->data+idx, pBuf, len);
??MT_AfDataStore_2:
        ; Setup parameters for call to function osal_memcpy
        MOV     ?V0 + 0,R2
        MOV     ?V0 + 1,R3
        MOV     ?V0 + 2,#0x0
        MOV     R0,#?V0 + 0
        LCALL   ?PUSH_XSTACK_I_THREE
          CFI CFA_XSP16 add(XSP16, 18)
        MOV     R5,#0x0
        MOV     A,?V0 + 4
        ADD     A,R6
        MOV     R2,A
        MOV     A,?V0 + 5
        ADDC    A,R7
        MOV     R3,A
        LCALL   ??osal_memcpy?relay
        MOV     A,#0x3
        LCALL   ?DEALLOC_XSTACK8
          CFI CFA_XSP16 add(XSP16, 15)
//  944     rtrn = afStatus_SUCCESS;
        MOV     DPL,?XSP + 0
        MOV     DPH,?XSP + 1
        CLR     A
//  945   }
??MT_AfDataStore_1:
        LCALL   ?Subroutine29 & 0xFFFF
//  946 
//  947   MT_BuildAndSendZToolResponse(((uint8)MT_RPC_CMD_SRSP | (uint8)MT_RPC_SYS_AF),
//  948                                                                 MT_AF_DATA_STORE, 1, &rtrn);
??CrossCallReturnLabel_37:
        MOV     R3,#0x1
        MOV     R2,#0x11
        LJMP    ?Subroutine1 & 0xFFFF
          CFI EndBlock cfiBlock296
//  949 }

        RSEG BANKED_CODE:CODE:NOROOT(0)
?Subroutine22:
          CFI Block cfiCond297 Using cfiCommon0
          CFI Function MT_AfDataRequest
          CFI Conditional ??CrossCallReturnLabel_27
          CFI R6 load(1, XDATA, add(CFA_XSP16, literal(-22)))
          CFI VB load(1, XDATA, add(CFA_XSP16, literal(-21)))
          CFI V0 load(1, XDATA, add(CFA_XSP16, literal(-20)))
          CFI V1 load(1, XDATA, add(CFA_XSP16, literal(-19)))
          CFI V2 load(1, XDATA, add(CFA_XSP16, literal(-18)))
          CFI V3 load(1, XDATA, add(CFA_XSP16, literal(-17)))
          CFI V4 load(1, XDATA, add(CFA_XSP16, literal(-16)))
          CFI V5 load(1, XDATA, add(CFA_XSP16, literal(-15)))
          CFI V6 load(1, XDATA, add(CFA_XSP16, literal(-14)))
          CFI V7 load(1, XDATA, add(CFA_XSP16, literal(-13)))
          CFI V8 load(1, XDATA, add(CFA_XSP16, literal(-12)))
          CFI V9 load(1, XDATA, add(CFA_XSP16, literal(-11)))
          CFI V10 load(1, XDATA, add(CFA_XSP16, literal(-10)))
          CFI V11 load(1, XDATA, add(CFA_XSP16, literal(-9)))
          CFI V12 load(1, XDATA, add(CFA_XSP16, literal(-8)))
          CFI V13 load(1, XDATA, add(CFA_XSP16, literal(-7)))
          CFI R7 load(1, XDATA, add(CFA_XSP16, literal(-6)))
          CFI ?RET_LOW load(1, XDATA, add(CFA_XSP16, literal(-5)))
          CFI ?RET_HIGH load(1, XDATA, add(CFA_XSP16, literal(-4)))
          CFI ?BRET_EXT load(1, XDATA, add(CFA_XSP16, literal(-3)))
          CFI DPL0 load(1, XDATA, add(CFA_XSP16, literal(-2)))
          CFI DPH0 load(1, XDATA, add(CFA_XSP16, literal(-1)))
          CFI CFA_SP SP+0
          CFI CFA_XSP16 add(XSP16, 36)
          CFI Block cfiCond298 Using cfiCommon0
          CFI (cfiCond298) Function MT_AfDataStore
          CFI (cfiCond298) Conditional ??CrossCallReturnLabel_28
          CFI (cfiCond298) R6 load(1, XDATA, add(CFA_XSP16, literal(-14)))
          CFI (cfiCond298) VB load(1, XDATA, add(CFA_XSP16, literal(-13)))
          CFI (cfiCond298) V0 load(1, XDATA, add(CFA_XSP16, literal(-12)))
          CFI (cfiCond298) V1 load(1, XDATA, add(CFA_XSP16, literal(-11)))
          CFI (cfiCond298) V2 load(1, XDATA, add(CFA_XSP16, literal(-10)))
          CFI (cfiCond298) V3 load(1, XDATA, add(CFA_XSP16, literal(-9)))
          CFI (cfiCond298) V4 load(1, XDATA, add(CFA_XSP16, literal(-8)))
          CFI (cfiCond298) V5 load(1, XDATA, add(CFA_XSP16, literal(-7)))
          CFI (cfiCond298) R7 load(1, XDATA, add(CFA_XSP16, literal(-6)))
          CFI (cfiCond298) ?RET_LOW load(1, XDATA, add(CFA_XSP16, literal(-5)))
          CFI (cfiCond298) ?RET_HIGH load(1, XDATA, add(CFA_XSP16, literal(-4)))
          CFI (cfiCond298) ?BRET_EXT load(1, XDATA, add(CFA_XSP16, literal(-3)))
          CFI (cfiCond298) DPL0 load(1, XDATA, add(CFA_XSP16, literal(-2)))
          CFI (cfiCond298) DPH0 load(1, XDATA, add(CFA_XSP16, literal(-1)))
          CFI (cfiCond298) CFA_SP SP+0
          CFI (cfiCond298) CFA_XSP16 add(XSP16, 15)
          CFI Block cfiPicker299 Using cfiCommon1
          CFI (cfiPicker299) NoFunction
          CFI (cfiPicker299) Picker
        MOV     DPTR,#pMtAfDataReq
        MOVX    A,@DPTR
        MOV     R0,A
        INC     DPTR
        MOVX    A,@DPTR
        MOV     DPH,A
        MOV     DPL,R0
        RET
          CFI EndBlock cfiCond297
          CFI EndBlock cfiCond298
          CFI EndBlock cfiPicker299

        RSEG BANKED_CODE:CODE:NOROOT(0)
?Subroutine20:
          CFI Block cfiCond300 Using cfiCommon0
          CFI Function MT_AfDataRequest
          CFI Conditional ??CrossCallReturnLabel_23
          CFI R6 load(1, XDATA, add(CFA_XSP16, literal(-22)))
          CFI VB load(1, XDATA, add(CFA_XSP16, literal(-21)))
          CFI V0 load(1, XDATA, add(CFA_XSP16, literal(-20)))
          CFI V1 load(1, XDATA, add(CFA_XSP16, literal(-19)))
          CFI V2 load(1, XDATA, add(CFA_XSP16, literal(-18)))
          CFI V3 load(1, XDATA, add(CFA_XSP16, literal(-17)))
          CFI V4 load(1, XDATA, add(CFA_XSP16, literal(-16)))
          CFI V5 load(1, XDATA, add(CFA_XSP16, literal(-15)))
          CFI V6 load(1, XDATA, add(CFA_XSP16, literal(-14)))
          CFI V7 load(1, XDATA, add(CFA_XSP16, literal(-13)))
          CFI V8 load(1, XDATA, add(CFA_XSP16, literal(-12)))
          CFI V9 load(1, XDATA, add(CFA_XSP16, literal(-11)))
          CFI V10 load(1, XDATA, add(CFA_XSP16, literal(-10)))
          CFI V11 load(1, XDATA, add(CFA_XSP16, literal(-9)))
          CFI V12 load(1, XDATA, add(CFA_XSP16, literal(-8)))
          CFI V13 load(1, XDATA, add(CFA_XSP16, literal(-7)))
          CFI R7 load(1, XDATA, add(CFA_XSP16, literal(-6)))
          CFI ?RET_LOW load(1, XDATA, add(CFA_XSP16, literal(-5)))
          CFI ?RET_HIGH load(1, XDATA, add(CFA_XSP16, literal(-4)))
          CFI ?BRET_EXT load(1, XDATA, add(CFA_XSP16, literal(-3)))
          CFI DPL0 load(1, XDATA, add(CFA_XSP16, literal(-2)))
          CFI DPH0 load(1, XDATA, add(CFA_XSP16, literal(-1)))
          CFI CFA_SP SP+0
          CFI CFA_XSP16 add(XSP16, 39)
          CFI Block cfiCond301 Using cfiCommon0
          CFI (cfiCond301) Function MT_AfDataStore
          CFI (cfiCond301) Conditional ??CrossCallReturnLabel_24
          CFI (cfiCond301) R6 load(1, XDATA, add(CFA_XSP16, literal(-14)))
          CFI (cfiCond301) VB load(1, XDATA, add(CFA_XSP16, literal(-13)))
          CFI (cfiCond301) V0 load(1, XDATA, add(CFA_XSP16, literal(-12)))
          CFI (cfiCond301) V1 load(1, XDATA, add(CFA_XSP16, literal(-11)))
          CFI (cfiCond301) V2 load(1, XDATA, add(CFA_XSP16, literal(-10)))
          CFI (cfiCond301) V3 load(1, XDATA, add(CFA_XSP16, literal(-9)))
          CFI (cfiCond301) V4 load(1, XDATA, add(CFA_XSP16, literal(-8)))
          CFI (cfiCond301) V5 load(1, XDATA, add(CFA_XSP16, literal(-7)))
          CFI (cfiCond301) R7 load(1, XDATA, add(CFA_XSP16, literal(-6)))
          CFI (cfiCond301) ?RET_LOW load(1, XDATA, add(CFA_XSP16, literal(-5)))
          CFI (cfiCond301) ?RET_HIGH load(1, XDATA, add(CFA_XSP16, literal(-4)))
          CFI (cfiCond301) ?BRET_EXT load(1, XDATA, add(CFA_XSP16, literal(-3)))
          CFI (cfiCond301) DPL0 load(1, XDATA, add(CFA_XSP16, literal(-2)))
          CFI (cfiCond301) DPH0 load(1, XDATA, add(CFA_XSP16, literal(-1)))
          CFI (cfiCond301) CFA_SP SP+0
          CFI (cfiCond301) CFA_XSP16 add(XSP16, 24)
          CFI Block cfiPicker302 Using cfiCommon1
          CFI (cfiPicker302) NoFunction
          CFI (cfiPicker302) Picker
        MOV     DPTR,#pMtAfDataReq
        MOVX    A,@DPTR
        ADD     A,#0x2
        MOV     R2,A
        INC     DPTR
        MOVX    A,@DPTR
        ADDC    A,#0x0
        MOV     R3,A
        RET
          CFI EndBlock cfiCond300
          CFI EndBlock cfiCond301
          CFI EndBlock cfiPicker302

        RSEG BANKED_CODE:CODE:NOROOT(0)
?Subroutine17:
          CFI Block cfiCond303 Using cfiCommon0
          CFI Function MT_AfDataRequest
          CFI Conditional ??CrossCallReturnLabel_19
          CFI R6 load(1, XDATA, add(CFA_XSP16, literal(-22)))
          CFI VB load(1, XDATA, add(CFA_XSP16, literal(-21)))
          CFI V0 load(1, XDATA, add(CFA_XSP16, literal(-20)))
          CFI V1 load(1, XDATA, add(CFA_XSP16, literal(-19)))
          CFI V2 load(1, XDATA, add(CFA_XSP16, literal(-18)))
          CFI V3 load(1, XDATA, add(CFA_XSP16, literal(-17)))
          CFI V4 load(1, XDATA, add(CFA_XSP16, literal(-16)))
          CFI V5 load(1, XDATA, add(CFA_XSP16, literal(-15)))
          CFI V6 load(1, XDATA, add(CFA_XSP16, literal(-14)))
          CFI V7 load(1, XDATA, add(CFA_XSP16, literal(-13)))
          CFI V8 load(1, XDATA, add(CFA_XSP16, literal(-12)))
          CFI V9 load(1, XDATA, add(CFA_XSP16, literal(-11)))
          CFI V10 load(1, XDATA, add(CFA_XSP16, literal(-10)))
          CFI V11 load(1, XDATA, add(CFA_XSP16, literal(-9)))
          CFI V12 load(1, XDATA, add(CFA_XSP16, literal(-8)))
          CFI V13 load(1, XDATA, add(CFA_XSP16, literal(-7)))
          CFI R7 load(1, XDATA, add(CFA_XSP16, literal(-6)))
          CFI ?RET_LOW load(1, XDATA, add(CFA_XSP16, literal(-5)))
          CFI ?RET_HIGH load(1, XDATA, add(CFA_XSP16, literal(-4)))
          CFI ?BRET_EXT load(1, XDATA, add(CFA_XSP16, literal(-3)))
          CFI DPL0 load(1, XDATA, add(CFA_XSP16, literal(-2)))
          CFI DPH0 load(1, XDATA, add(CFA_XSP16, literal(-1)))
          CFI CFA_SP SP+0
          CFI CFA_XSP16 add(XSP16, 36)
          CFI Block cfiCond304 Using cfiCommon0
          CFI (cfiCond304) Function MT_AfDataStore
          CFI (cfiCond304) Conditional ??CrossCallReturnLabel_20
          CFI (cfiCond304) R6 load(1, XDATA, add(CFA_XSP16, literal(-14)))
          CFI (cfiCond304) VB load(1, XDATA, add(CFA_XSP16, literal(-13)))
          CFI (cfiCond304) V0 load(1, XDATA, add(CFA_XSP16, literal(-12)))
          CFI (cfiCond304) V1 load(1, XDATA, add(CFA_XSP16, literal(-11)))
          CFI (cfiCond304) V2 load(1, XDATA, add(CFA_XSP16, literal(-10)))
          CFI (cfiCond304) V3 load(1, XDATA, add(CFA_XSP16, literal(-9)))
          CFI (cfiCond304) V4 load(1, XDATA, add(CFA_XSP16, literal(-8)))
          CFI (cfiCond304) V5 load(1, XDATA, add(CFA_XSP16, literal(-7)))
          CFI (cfiCond304) R7 load(1, XDATA, add(CFA_XSP16, literal(-6)))
          CFI (cfiCond304) ?RET_LOW load(1, XDATA, add(CFA_XSP16, literal(-5)))
          CFI (cfiCond304) ?RET_HIGH load(1, XDATA, add(CFA_XSP16, literal(-4)))
          CFI (cfiCond304) ?BRET_EXT load(1, XDATA, add(CFA_XSP16, literal(-3)))
          CFI (cfiCond304) DPL0 load(1, XDATA, add(CFA_XSP16, literal(-2)))
          CFI (cfiCond304) DPH0 load(1, XDATA, add(CFA_XSP16, literal(-1)))
          CFI (cfiCond304) CFA_SP SP+0
          CFI (cfiCond304) CFA_XSP16 add(XSP16, 15)
          CFI Block cfiPicker305 Using cfiCommon1
          CFI (cfiPicker305) NoFunction
          CFI (cfiPicker305) Picker
        MOVX    A,@DPTR
        XCH     A,R0
        ADD     A,#0x16
        LCALL   ??Subroutine55_0 & 0xFFFF
??CrossCallReturnLabel_104:
        RET
          CFI EndBlock cfiCond303
          CFI EndBlock cfiCond304
          CFI EndBlock cfiPicker305

        RSEG BANKED_CODE:CODE:NOROOT(0)
?Subroutine14:
          CFI Block cfiCond306 Using cfiCommon0
          CFI Function MT_AfDataRequest
          CFI Conditional ??CrossCallReturnLabel_14
          CFI R6 load(1, XDATA, add(CFA_XSP16, literal(-22)))
          CFI VB load(1, XDATA, add(CFA_XSP16, literal(-21)))
          CFI V0 load(1, XDATA, add(CFA_XSP16, literal(-20)))
          CFI V1 load(1, XDATA, add(CFA_XSP16, literal(-19)))
          CFI V2 load(1, XDATA, add(CFA_XSP16, literal(-18)))
          CFI V3 load(1, XDATA, add(CFA_XSP16, literal(-17)))
          CFI V4 load(1, XDATA, add(CFA_XSP16, literal(-16)))
          CFI V5 load(1, XDATA, add(CFA_XSP16, literal(-15)))
          CFI V6 load(1, XDATA, add(CFA_XSP16, literal(-14)))
          CFI V7 load(1, XDATA, add(CFA_XSP16, literal(-13)))
          CFI V8 load(1, XDATA, add(CFA_XSP16, literal(-12)))
          CFI V9 load(1, XDATA, add(CFA_XSP16, literal(-11)))
          CFI V10 load(1, XDATA, add(CFA_XSP16, literal(-10)))
          CFI V11 load(1, XDATA, add(CFA_XSP16, literal(-9)))
          CFI V12 load(1, XDATA, add(CFA_XSP16, literal(-8)))
          CFI V13 load(1, XDATA, add(CFA_XSP16, literal(-7)))
          CFI R7 load(1, XDATA, add(CFA_XSP16, literal(-6)))
          CFI ?RET_LOW load(1, XDATA, add(CFA_XSP16, literal(-5)))
          CFI ?RET_HIGH load(1, XDATA, add(CFA_XSP16, literal(-4)))
          CFI ?BRET_EXT load(1, XDATA, add(CFA_XSP16, literal(-3)))
          CFI DPL0 load(1, XDATA, add(CFA_XSP16, literal(-2)))
          CFI DPH0 load(1, XDATA, add(CFA_XSP16, literal(-1)))
          CFI CFA_SP SP+0
          CFI CFA_XSP16 add(XSP16, 36)
          CFI Block cfiCond307 Using cfiCommon0
          CFI (cfiCond307) Function MT_AfDataStore
          CFI (cfiCond307) Conditional ??CrossCallReturnLabel_15
          CFI (cfiCond307) R6 load(1, XDATA, add(CFA_XSP16, literal(-14)))
          CFI (cfiCond307) VB load(1, XDATA, add(CFA_XSP16, literal(-13)))
          CFI (cfiCond307) V0 load(1, XDATA, add(CFA_XSP16, literal(-12)))
          CFI (cfiCond307) V1 load(1, XDATA, add(CFA_XSP16, literal(-11)))
          CFI (cfiCond307) V2 load(1, XDATA, add(CFA_XSP16, literal(-10)))
          CFI (cfiCond307) V3 load(1, XDATA, add(CFA_XSP16, literal(-9)))
          CFI (cfiCond307) V4 load(1, XDATA, add(CFA_XSP16, literal(-8)))
          CFI (cfiCond307) V5 load(1, XDATA, add(CFA_XSP16, literal(-7)))
          CFI (cfiCond307) R7 load(1, XDATA, add(CFA_XSP16, literal(-6)))
          CFI (cfiCond307) ?RET_LOW load(1, XDATA, add(CFA_XSP16, literal(-5)))
          CFI (cfiCond307) ?RET_HIGH load(1, XDATA, add(CFA_XSP16, literal(-4)))
          CFI (cfiCond307) ?BRET_EXT load(1, XDATA, add(CFA_XSP16, literal(-3)))
          CFI (cfiCond307) DPL0 load(1, XDATA, add(CFA_XSP16, literal(-2)))
          CFI (cfiCond307) DPH0 load(1, XDATA, add(CFA_XSP16, literal(-1)))
          CFI (cfiCond307) CFA_SP SP+0
          CFI (cfiCond307) CFA_XSP16 add(XSP16, 24)
          CFI Block cfiPicker308 Using cfiCommon1
          CFI (cfiPicker308) NoFunction
          CFI (cfiPicker308) Picker
        LCALL   ?Subroutine45 & 0xFFFF
??CrossCallReturnLabel_76:
        ADD     A,#0x15
        LCALL   ??Subroutine55_0 & 0xFFFF
??CrossCallReturnLabel_103:
        RET
          CFI EndBlock cfiCond306
          CFI EndBlock cfiCond307
          CFI EndBlock cfiPicker308

        RSEG BANKED_CODE:CODE:NOROOT(0)
?Subroutine13:
          CFI Block cfiCond309 Using cfiCommon0
          CFI Function MT_AfDataRequest
          CFI Conditional ??CrossCallReturnLabel_12
          CFI R6 load(1, XDATA, add(CFA_XSP16, literal(-22)))
          CFI VB load(1, XDATA, add(CFA_XSP16, literal(-21)))
          CFI V0 load(1, XDATA, add(CFA_XSP16, literal(-20)))
          CFI V1 load(1, XDATA, add(CFA_XSP16, literal(-19)))
          CFI V2 load(1, XDATA, add(CFA_XSP16, literal(-18)))
          CFI V3 load(1, XDATA, add(CFA_XSP16, literal(-17)))
          CFI V4 load(1, XDATA, add(CFA_XSP16, literal(-16)))
          CFI V5 load(1, XDATA, add(CFA_XSP16, literal(-15)))
          CFI V6 load(1, XDATA, add(CFA_XSP16, literal(-14)))
          CFI V7 load(1, XDATA, add(CFA_XSP16, literal(-13)))
          CFI V8 load(1, XDATA, add(CFA_XSP16, literal(-12)))
          CFI V9 load(1, XDATA, add(CFA_XSP16, literal(-11)))
          CFI V10 load(1, XDATA, add(CFA_XSP16, literal(-10)))
          CFI V11 load(1, XDATA, add(CFA_XSP16, literal(-9)))
          CFI V12 load(1, XDATA, add(CFA_XSP16, literal(-8)))
          CFI V13 load(1, XDATA, add(CFA_XSP16, literal(-7)))
          CFI R7 load(1, XDATA, add(CFA_XSP16, literal(-6)))
          CFI ?RET_LOW load(1, XDATA, add(CFA_XSP16, literal(-5)))
          CFI ?RET_HIGH load(1, XDATA, add(CFA_XSP16, literal(-4)))
          CFI ?BRET_EXT load(1, XDATA, add(CFA_XSP16, literal(-3)))
          CFI DPL0 load(1, XDATA, add(CFA_XSP16, literal(-2)))
          CFI DPH0 load(1, XDATA, add(CFA_XSP16, literal(-1)))
          CFI CFA_SP SP+0
          CFI CFA_XSP16 add(XSP16, 36)
          CFI Block cfiCond310 Using cfiCommon0
          CFI (cfiCond310) Function MT_AfDataStore
          CFI (cfiCond310) Conditional ??CrossCallReturnLabel_13
          CFI (cfiCond310) R6 load(1, XDATA, add(CFA_XSP16, literal(-14)))
          CFI (cfiCond310) VB load(1, XDATA, add(CFA_XSP16, literal(-13)))
          CFI (cfiCond310) V0 load(1, XDATA, add(CFA_XSP16, literal(-12)))
          CFI (cfiCond310) V1 load(1, XDATA, add(CFA_XSP16, literal(-11)))
          CFI (cfiCond310) V2 load(1, XDATA, add(CFA_XSP16, literal(-10)))
          CFI (cfiCond310) V3 load(1, XDATA, add(CFA_XSP16, literal(-9)))
          CFI (cfiCond310) V4 load(1, XDATA, add(CFA_XSP16, literal(-8)))
          CFI (cfiCond310) V5 load(1, XDATA, add(CFA_XSP16, literal(-7)))
          CFI (cfiCond310) R7 load(1, XDATA, add(CFA_XSP16, literal(-6)))
          CFI (cfiCond310) ?RET_LOW load(1, XDATA, add(CFA_XSP16, literal(-5)))
          CFI (cfiCond310) ?RET_HIGH load(1, XDATA, add(CFA_XSP16, literal(-4)))
          CFI (cfiCond310) ?BRET_EXT load(1, XDATA, add(CFA_XSP16, literal(-3)))
          CFI (cfiCond310) DPL0 load(1, XDATA, add(CFA_XSP16, literal(-2)))
          CFI (cfiCond310) DPH0 load(1, XDATA, add(CFA_XSP16, literal(-1)))
          CFI (cfiCond310) CFA_SP SP+0
          CFI (cfiCond310) CFA_XSP16 add(XSP16, 20)
          CFI Block cfiPicker311 Using cfiCommon1
          CFI (cfiPicker311) NoFunction
          CFI (cfiPicker311) Picker
        LCALL   ?Subroutine45 & 0xFFFF
??CrossCallReturnLabel_75:
        ADD     A,#0x12
        LCALL   ??Subroutine55_0 & 0xFFFF
??CrossCallReturnLabel_102:
        RET
          CFI EndBlock cfiCond309
          CFI EndBlock cfiCond310
          CFI EndBlock cfiPicker311

        RSEG BANKED_CODE:CODE:NOROOT(0)
?Subroutine45:
          CFI Block cfiCond312 Using cfiCommon0
          CFI Function MT_AfDataRequest
          CFI Conditional ??CrossCallReturnLabel_72
          CFI R6 load(1, XDATA, add(CFA_XSP16, literal(-22)))
          CFI VB load(1, XDATA, add(CFA_XSP16, literal(-21)))
          CFI V0 load(1, XDATA, add(CFA_XSP16, literal(-20)))
          CFI V1 load(1, XDATA, add(CFA_XSP16, literal(-19)))
          CFI V2 load(1, XDATA, add(CFA_XSP16, literal(-18)))
          CFI V3 load(1, XDATA, add(CFA_XSP16, literal(-17)))
          CFI V4 load(1, XDATA, add(CFA_XSP16, literal(-16)))
          CFI V5 load(1, XDATA, add(CFA_XSP16, literal(-15)))
          CFI V6 load(1, XDATA, add(CFA_XSP16, literal(-14)))
          CFI V7 load(1, XDATA, add(CFA_XSP16, literal(-13)))
          CFI V8 load(1, XDATA, add(CFA_XSP16, literal(-12)))
          CFI V9 load(1, XDATA, add(CFA_XSP16, literal(-11)))
          CFI V10 load(1, XDATA, add(CFA_XSP16, literal(-10)))
          CFI V11 load(1, XDATA, add(CFA_XSP16, literal(-9)))
          CFI V12 load(1, XDATA, add(CFA_XSP16, literal(-8)))
          CFI V13 load(1, XDATA, add(CFA_XSP16, literal(-7)))
          CFI R7 load(1, XDATA, add(CFA_XSP16, literal(-6)))
          CFI ?RET_LOW load(1, XDATA, add(CFA_XSP16, literal(-5)))
          CFI ?RET_HIGH load(1, XDATA, add(CFA_XSP16, literal(-4)))
          CFI ?BRET_EXT load(1, XDATA, add(CFA_XSP16, literal(-3)))
          CFI DPL0 load(1, XDATA, add(CFA_XSP16, literal(-2)))
          CFI DPH0 load(1, XDATA, add(CFA_XSP16, literal(-1)))
          CFI CFA_SP SP+-1
          CFI CFA_XSP16 add(XSP16, 36)
          CFI Block cfiCond313 Using cfiCommon0
          CFI (cfiCond313) Function MT_AfDataRequest
          CFI (cfiCond313) Conditional ??CrossCallReturnLabel_76, ??CrossCallReturnLabel_14
          CFI (cfiCond313) R6 load(1, XDATA, add(CFA_XSP16, literal(-22)))
          CFI (cfiCond313) VB load(1, XDATA, add(CFA_XSP16, literal(-21)))
          CFI (cfiCond313) V0 load(1, XDATA, add(CFA_XSP16, literal(-20)))
          CFI (cfiCond313) V1 load(1, XDATA, add(CFA_XSP16, literal(-19)))
          CFI (cfiCond313) V2 load(1, XDATA, add(CFA_XSP16, literal(-18)))
          CFI (cfiCond313) V3 load(1, XDATA, add(CFA_XSP16, literal(-17)))
          CFI (cfiCond313) V4 load(1, XDATA, add(CFA_XSP16, literal(-16)))
          CFI (cfiCond313) V5 load(1, XDATA, add(CFA_XSP16, literal(-15)))
          CFI (cfiCond313) V6 load(1, XDATA, add(CFA_XSP16, literal(-14)))
          CFI (cfiCond313) V7 load(1, XDATA, add(CFA_XSP16, literal(-13)))
          CFI (cfiCond313) V8 load(1, XDATA, add(CFA_XSP16, literal(-12)))
          CFI (cfiCond313) V9 load(1, XDATA, add(CFA_XSP16, literal(-11)))
          CFI (cfiCond313) V10 load(1, XDATA, add(CFA_XSP16, literal(-10)))
          CFI (cfiCond313) V11 load(1, XDATA, add(CFA_XSP16, literal(-9)))
          CFI (cfiCond313) V12 load(1, XDATA, add(CFA_XSP16, literal(-8)))
          CFI (cfiCond313) V13 load(1, XDATA, add(CFA_XSP16, literal(-7)))
          CFI (cfiCond313) R7 load(1, XDATA, add(CFA_XSP16, literal(-6)))
          CFI (cfiCond313) ?RET_LOW load(1, XDATA, add(CFA_XSP16, literal(-5)))
          CFI (cfiCond313) ?RET_HIGH load(1, XDATA, add(CFA_XSP16, literal(-4)))
          CFI (cfiCond313) ?BRET_EXT load(1, XDATA, add(CFA_XSP16, literal(-3)))
          CFI (cfiCond313) DPL0 load(1, XDATA, add(CFA_XSP16, literal(-2)))
          CFI (cfiCond313) DPH0 load(1, XDATA, add(CFA_XSP16, literal(-1)))
          CFI (cfiCond313) CFA_SP SP+0
          CFI (cfiCond313) CFA_XSP16 add(XSP16, 36)
          CFI Block cfiCond314 Using cfiCommon0
          CFI (cfiCond314) Function MT_AfDataStore
          CFI (cfiCond314) Conditional ??CrossCallReturnLabel_76, ??CrossCallReturnLabel_15
          CFI (cfiCond314) R6 load(1, XDATA, add(CFA_XSP16, literal(-14)))
          CFI (cfiCond314) VB load(1, XDATA, add(CFA_XSP16, literal(-13)))
          CFI (cfiCond314) V0 load(1, XDATA, add(CFA_XSP16, literal(-12)))
          CFI (cfiCond314) V1 load(1, XDATA, add(CFA_XSP16, literal(-11)))
          CFI (cfiCond314) V2 load(1, XDATA, add(CFA_XSP16, literal(-10)))
          CFI (cfiCond314) V3 load(1, XDATA, add(CFA_XSP16, literal(-9)))
          CFI (cfiCond314) V4 load(1, XDATA, add(CFA_XSP16, literal(-8)))
          CFI (cfiCond314) V5 load(1, XDATA, add(CFA_XSP16, literal(-7)))
          CFI (cfiCond314) R7 load(1, XDATA, add(CFA_XSP16, literal(-6)))
          CFI (cfiCond314) ?RET_LOW load(1, XDATA, add(CFA_XSP16, literal(-5)))
          CFI (cfiCond314) ?RET_HIGH load(1, XDATA, add(CFA_XSP16, literal(-4)))
          CFI (cfiCond314) ?BRET_EXT load(1, XDATA, add(CFA_XSP16, literal(-3)))
          CFI (cfiCond314) DPL0 load(1, XDATA, add(CFA_XSP16, literal(-2)))
          CFI (cfiCond314) DPH0 load(1, XDATA, add(CFA_XSP16, literal(-1)))
          CFI (cfiCond314) CFA_SP SP+0
          CFI (cfiCond314) CFA_XSP16 add(XSP16, 24)
          CFI Block cfiCond315 Using cfiCommon0
          CFI (cfiCond315) Function MT_AfDataRequest
          CFI (cfiCond315) Conditional ??CrossCallReturnLabel_75, ??CrossCallReturnLabel_12
          CFI (cfiCond315) R6 load(1, XDATA, add(CFA_XSP16, literal(-22)))
          CFI (cfiCond315) VB load(1, XDATA, add(CFA_XSP16, literal(-21)))
          CFI (cfiCond315) V0 load(1, XDATA, add(CFA_XSP16, literal(-20)))
          CFI (cfiCond315) V1 load(1, XDATA, add(CFA_XSP16, literal(-19)))
          CFI (cfiCond315) V2 load(1, XDATA, add(CFA_XSP16, literal(-18)))
          CFI (cfiCond315) V3 load(1, XDATA, add(CFA_XSP16, literal(-17)))
          CFI (cfiCond315) V4 load(1, XDATA, add(CFA_XSP16, literal(-16)))
          CFI (cfiCond315) V5 load(1, XDATA, add(CFA_XSP16, literal(-15)))
          CFI (cfiCond315) V6 load(1, XDATA, add(CFA_XSP16, literal(-14)))
          CFI (cfiCond315) V7 load(1, XDATA, add(CFA_XSP16, literal(-13)))
          CFI (cfiCond315) V8 load(1, XDATA, add(CFA_XSP16, literal(-12)))
          CFI (cfiCond315) V9 load(1, XDATA, add(CFA_XSP16, literal(-11)))
          CFI (cfiCond315) V10 load(1, XDATA, add(CFA_XSP16, literal(-10)))
          CFI (cfiCond315) V11 load(1, XDATA, add(CFA_XSP16, literal(-9)))
          CFI (cfiCond315) V12 load(1, XDATA, add(CFA_XSP16, literal(-8)))
          CFI (cfiCond315) V13 load(1, XDATA, add(CFA_XSP16, literal(-7)))
          CFI (cfiCond315) R7 load(1, XDATA, add(CFA_XSP16, literal(-6)))
          CFI (cfiCond315) ?RET_LOW load(1, XDATA, add(CFA_XSP16, literal(-5)))
          CFI (cfiCond315) ?RET_HIGH load(1, XDATA, add(CFA_XSP16, literal(-4)))
          CFI (cfiCond315) ?BRET_EXT load(1, XDATA, add(CFA_XSP16, literal(-3)))
          CFI (cfiCond315) DPL0 load(1, XDATA, add(CFA_XSP16, literal(-2)))
          CFI (cfiCond315) DPH0 load(1, XDATA, add(CFA_XSP16, literal(-1)))
          CFI (cfiCond315) CFA_SP SP+0
          CFI (cfiCond315) CFA_XSP16 add(XSP16, 36)
          CFI Block cfiCond316 Using cfiCommon0
          CFI (cfiCond316) Function MT_AfDataStore
          CFI (cfiCond316) Conditional ??CrossCallReturnLabel_75, ??CrossCallReturnLabel_13
          CFI (cfiCond316) R6 load(1, XDATA, add(CFA_XSP16, literal(-14)))
          CFI (cfiCond316) VB load(1, XDATA, add(CFA_XSP16, literal(-13)))
          CFI (cfiCond316) V0 load(1, XDATA, add(CFA_XSP16, literal(-12)))
          CFI (cfiCond316) V1 load(1, XDATA, add(CFA_XSP16, literal(-11)))
          CFI (cfiCond316) V2 load(1, XDATA, add(CFA_XSP16, literal(-10)))
          CFI (cfiCond316) V3 load(1, XDATA, add(CFA_XSP16, literal(-9)))
          CFI (cfiCond316) V4 load(1, XDATA, add(CFA_XSP16, literal(-8)))
          CFI (cfiCond316) V5 load(1, XDATA, add(CFA_XSP16, literal(-7)))
          CFI (cfiCond316) R7 load(1, XDATA, add(CFA_XSP16, literal(-6)))
          CFI (cfiCond316) ?RET_LOW load(1, XDATA, add(CFA_XSP16, literal(-5)))
          CFI (cfiCond316) ?RET_HIGH load(1, XDATA, add(CFA_XSP16, literal(-4)))
          CFI (cfiCond316) ?BRET_EXT load(1, XDATA, add(CFA_XSP16, literal(-3)))
          CFI (cfiCond316) DPL0 load(1, XDATA, add(CFA_XSP16, literal(-2)))
          CFI (cfiCond316) DPH0 load(1, XDATA, add(CFA_XSP16, literal(-1)))
          CFI (cfiCond316) CFA_SP SP+0
          CFI (cfiCond316) CFA_XSP16 add(XSP16, 20)
          CFI Block cfiCond317 Using cfiCommon0
          CFI (cfiCond317) Function MT_AfDataRequest
          CFI (cfiCond317) Conditional ??CrossCallReturnLabel_74, ??CrossCallReturnLabel_10
          CFI (cfiCond317) R6 load(1, XDATA, add(CFA_XSP16, literal(-22)))
          CFI (cfiCond317) VB load(1, XDATA, add(CFA_XSP16, literal(-21)))
          CFI (cfiCond317) V0 load(1, XDATA, add(CFA_XSP16, literal(-20)))
          CFI (cfiCond317) V1 load(1, XDATA, add(CFA_XSP16, literal(-19)))
          CFI (cfiCond317) V2 load(1, XDATA, add(CFA_XSP16, literal(-18)))
          CFI (cfiCond317) V3 load(1, XDATA, add(CFA_XSP16, literal(-17)))
          CFI (cfiCond317) V4 load(1, XDATA, add(CFA_XSP16, literal(-16)))
          CFI (cfiCond317) V5 load(1, XDATA, add(CFA_XSP16, literal(-15)))
          CFI (cfiCond317) V6 load(1, XDATA, add(CFA_XSP16, literal(-14)))
          CFI (cfiCond317) V7 load(1, XDATA, add(CFA_XSP16, literal(-13)))
          CFI (cfiCond317) V8 load(1, XDATA, add(CFA_XSP16, literal(-12)))
          CFI (cfiCond317) V9 load(1, XDATA, add(CFA_XSP16, literal(-11)))
          CFI (cfiCond317) V10 load(1, XDATA, add(CFA_XSP16, literal(-10)))
          CFI (cfiCond317) V11 load(1, XDATA, add(CFA_XSP16, literal(-9)))
          CFI (cfiCond317) V12 load(1, XDATA, add(CFA_XSP16, literal(-8)))
          CFI (cfiCond317) V13 load(1, XDATA, add(CFA_XSP16, literal(-7)))
          CFI (cfiCond317) R7 load(1, XDATA, add(CFA_XSP16, literal(-6)))
          CFI (cfiCond317) ?RET_LOW load(1, XDATA, add(CFA_XSP16, literal(-5)))
          CFI (cfiCond317) ?RET_HIGH load(1, XDATA, add(CFA_XSP16, literal(-4)))
          CFI (cfiCond317) ?BRET_EXT load(1, XDATA, add(CFA_XSP16, literal(-3)))
          CFI (cfiCond317) DPL0 load(1, XDATA, add(CFA_XSP16, literal(-2)))
          CFI (cfiCond317) DPH0 load(1, XDATA, add(CFA_XSP16, literal(-1)))
          CFI (cfiCond317) CFA_SP SP+0
          CFI (cfiCond317) CFA_XSP16 add(XSP16, 36)
          CFI Block cfiCond318 Using cfiCommon0
          CFI (cfiCond318) Function MT_AfDataStore
          CFI (cfiCond318) Conditional ??CrossCallReturnLabel_74, ??CrossCallReturnLabel_11
          CFI (cfiCond318) R6 load(1, XDATA, add(CFA_XSP16, literal(-14)))
          CFI (cfiCond318) VB load(1, XDATA, add(CFA_XSP16, literal(-13)))
          CFI (cfiCond318) V0 load(1, XDATA, add(CFA_XSP16, literal(-12)))
          CFI (cfiCond318) V1 load(1, XDATA, add(CFA_XSP16, literal(-11)))
          CFI (cfiCond318) V2 load(1, XDATA, add(CFA_XSP16, literal(-10)))
          CFI (cfiCond318) V3 load(1, XDATA, add(CFA_XSP16, literal(-9)))
          CFI (cfiCond318) V4 load(1, XDATA, add(CFA_XSP16, literal(-8)))
          CFI (cfiCond318) V5 load(1, XDATA, add(CFA_XSP16, literal(-7)))
          CFI (cfiCond318) R7 load(1, XDATA, add(CFA_XSP16, literal(-6)))
          CFI (cfiCond318) ?RET_LOW load(1, XDATA, add(CFA_XSP16, literal(-5)))
          CFI (cfiCond318) ?RET_HIGH load(1, XDATA, add(CFA_XSP16, literal(-4)))
          CFI (cfiCond318) ?BRET_EXT load(1, XDATA, add(CFA_XSP16, literal(-3)))
          CFI (cfiCond318) DPL0 load(1, XDATA, add(CFA_XSP16, literal(-2)))
          CFI (cfiCond318) DPH0 load(1, XDATA, add(CFA_XSP16, literal(-1)))
          CFI (cfiCond318) CFA_SP SP+0
          CFI (cfiCond318) CFA_XSP16 add(XSP16, 22)
          CFI Block cfiCond319 Using cfiCommon0
          CFI (cfiCond319) Function MT_AfDataRequest
          CFI (cfiCond319) Conditional ??CrossCallReturnLabel_73, ??CrossCallReturnLabel_8
          CFI (cfiCond319) R6 load(1, XDATA, add(CFA_XSP16, literal(-22)))
          CFI (cfiCond319) VB load(1, XDATA, add(CFA_XSP16, literal(-21)))
          CFI (cfiCond319) V0 load(1, XDATA, add(CFA_XSP16, literal(-20)))
          CFI (cfiCond319) V1 load(1, XDATA, add(CFA_XSP16, literal(-19)))
          CFI (cfiCond319) V2 load(1, XDATA, add(CFA_XSP16, literal(-18)))
          CFI (cfiCond319) V3 load(1, XDATA, add(CFA_XSP16, literal(-17)))
          CFI (cfiCond319) V4 load(1, XDATA, add(CFA_XSP16, literal(-16)))
          CFI (cfiCond319) V5 load(1, XDATA, add(CFA_XSP16, literal(-15)))
          CFI (cfiCond319) V6 load(1, XDATA, add(CFA_XSP16, literal(-14)))
          CFI (cfiCond319) V7 load(1, XDATA, add(CFA_XSP16, literal(-13)))
          CFI (cfiCond319) V8 load(1, XDATA, add(CFA_XSP16, literal(-12)))
          CFI (cfiCond319) V9 load(1, XDATA, add(CFA_XSP16, literal(-11)))
          CFI (cfiCond319) V10 load(1, XDATA, add(CFA_XSP16, literal(-10)))
          CFI (cfiCond319) V11 load(1, XDATA, add(CFA_XSP16, literal(-9)))
          CFI (cfiCond319) V12 load(1, XDATA, add(CFA_XSP16, literal(-8)))
          CFI (cfiCond319) V13 load(1, XDATA, add(CFA_XSP16, literal(-7)))
          CFI (cfiCond319) R7 load(1, XDATA, add(CFA_XSP16, literal(-6)))
          CFI (cfiCond319) ?RET_LOW load(1, XDATA, add(CFA_XSP16, literal(-5)))
          CFI (cfiCond319) ?RET_HIGH load(1, XDATA, add(CFA_XSP16, literal(-4)))
          CFI (cfiCond319) ?BRET_EXT load(1, XDATA, add(CFA_XSP16, literal(-3)))
          CFI (cfiCond319) DPL0 load(1, XDATA, add(CFA_XSP16, literal(-2)))
          CFI (cfiCond319) DPH0 load(1, XDATA, add(CFA_XSP16, literal(-1)))
          CFI (cfiCond319) CFA_SP SP+0
          CFI (cfiCond319) CFA_XSP16 add(XSP16, 36)
          CFI Block cfiCond320 Using cfiCommon0
          CFI (cfiCond320) Function MT_AfDataStore
          CFI (cfiCond320) Conditional ??CrossCallReturnLabel_73, ??CrossCallReturnLabel_9
          CFI (cfiCond320) R6 load(1, XDATA, add(CFA_XSP16, literal(-14)))
          CFI (cfiCond320) VB load(1, XDATA, add(CFA_XSP16, literal(-13)))
          CFI (cfiCond320) V0 load(1, XDATA, add(CFA_XSP16, literal(-12)))
          CFI (cfiCond320) V1 load(1, XDATA, add(CFA_XSP16, literal(-11)))
          CFI (cfiCond320) V2 load(1, XDATA, add(CFA_XSP16, literal(-10)))
          CFI (cfiCond320) V3 load(1, XDATA, add(CFA_XSP16, literal(-9)))
          CFI (cfiCond320) V4 load(1, XDATA, add(CFA_XSP16, literal(-8)))
          CFI (cfiCond320) V5 load(1, XDATA, add(CFA_XSP16, literal(-7)))
          CFI (cfiCond320) R7 load(1, XDATA, add(CFA_XSP16, literal(-6)))
          CFI (cfiCond320) ?RET_LOW load(1, XDATA, add(CFA_XSP16, literal(-5)))
          CFI (cfiCond320) ?RET_HIGH load(1, XDATA, add(CFA_XSP16, literal(-4)))
          CFI (cfiCond320) ?BRET_EXT load(1, XDATA, add(CFA_XSP16, literal(-3)))
          CFI (cfiCond320) DPL0 load(1, XDATA, add(CFA_XSP16, literal(-2)))
          CFI (cfiCond320) DPH0 load(1, XDATA, add(CFA_XSP16, literal(-1)))
          CFI (cfiCond320) CFA_SP SP+0
          CFI (cfiCond320) CFA_XSP16 add(XSP16, 24)
          CFI Block cfiPicker321 Using cfiCommon1
          CFI (cfiPicker321) NoFunction
          CFI (cfiPicker321) Picker
        MOV     DPTR,#pMtAfDataReq
        MOVX    A,@DPTR
        MOV     R0,A
        INC     DPTR
        MOVX    A,@DPTR
        XCH     A,R0
        RET
          CFI EndBlock cfiCond312
          CFI EndBlock cfiCond313
          CFI EndBlock cfiCond314
          CFI EndBlock cfiCond315
          CFI EndBlock cfiCond316
          CFI EndBlock cfiCond317
          CFI EndBlock cfiCond318
          CFI EndBlock cfiCond319
          CFI EndBlock cfiCond320
          CFI EndBlock cfiPicker321

        RSEG BANKED_CODE:CODE:NOROOT(0)
?Subroutine12:
          CFI Block cfiCond322 Using cfiCommon0
          CFI Function MT_AfDataRequest
          CFI Conditional ??CrossCallReturnLabel_10
          CFI R6 load(1, XDATA, add(CFA_XSP16, literal(-22)))
          CFI VB load(1, XDATA, add(CFA_XSP16, literal(-21)))
          CFI V0 load(1, XDATA, add(CFA_XSP16, literal(-20)))
          CFI V1 load(1, XDATA, add(CFA_XSP16, literal(-19)))
          CFI V2 load(1, XDATA, add(CFA_XSP16, literal(-18)))
          CFI V3 load(1, XDATA, add(CFA_XSP16, literal(-17)))
          CFI V4 load(1, XDATA, add(CFA_XSP16, literal(-16)))
          CFI V5 load(1, XDATA, add(CFA_XSP16, literal(-15)))
          CFI V6 load(1, XDATA, add(CFA_XSP16, literal(-14)))
          CFI V7 load(1, XDATA, add(CFA_XSP16, literal(-13)))
          CFI V8 load(1, XDATA, add(CFA_XSP16, literal(-12)))
          CFI V9 load(1, XDATA, add(CFA_XSP16, literal(-11)))
          CFI V10 load(1, XDATA, add(CFA_XSP16, literal(-10)))
          CFI V11 load(1, XDATA, add(CFA_XSP16, literal(-9)))
          CFI V12 load(1, XDATA, add(CFA_XSP16, literal(-8)))
          CFI V13 load(1, XDATA, add(CFA_XSP16, literal(-7)))
          CFI R7 load(1, XDATA, add(CFA_XSP16, literal(-6)))
          CFI ?RET_LOW load(1, XDATA, add(CFA_XSP16, literal(-5)))
          CFI ?RET_HIGH load(1, XDATA, add(CFA_XSP16, literal(-4)))
          CFI ?BRET_EXT load(1, XDATA, add(CFA_XSP16, literal(-3)))
          CFI DPL0 load(1, XDATA, add(CFA_XSP16, literal(-2)))
          CFI DPH0 load(1, XDATA, add(CFA_XSP16, literal(-1)))
          CFI CFA_SP SP+0
          CFI CFA_XSP16 add(XSP16, 36)
          CFI Block cfiCond323 Using cfiCommon0
          CFI (cfiCond323) Function MT_AfDataStore
          CFI (cfiCond323) Conditional ??CrossCallReturnLabel_11
          CFI (cfiCond323) R6 load(1, XDATA, add(CFA_XSP16, literal(-14)))
          CFI (cfiCond323) VB load(1, XDATA, add(CFA_XSP16, literal(-13)))
          CFI (cfiCond323) V0 load(1, XDATA, add(CFA_XSP16, literal(-12)))
          CFI (cfiCond323) V1 load(1, XDATA, add(CFA_XSP16, literal(-11)))
          CFI (cfiCond323) V2 load(1, XDATA, add(CFA_XSP16, literal(-10)))
          CFI (cfiCond323) V3 load(1, XDATA, add(CFA_XSP16, literal(-9)))
          CFI (cfiCond323) V4 load(1, XDATA, add(CFA_XSP16, literal(-8)))
          CFI (cfiCond323) V5 load(1, XDATA, add(CFA_XSP16, literal(-7)))
          CFI (cfiCond323) R7 load(1, XDATA, add(CFA_XSP16, literal(-6)))
          CFI (cfiCond323) ?RET_LOW load(1, XDATA, add(CFA_XSP16, literal(-5)))
          CFI (cfiCond323) ?RET_HIGH load(1, XDATA, add(CFA_XSP16, literal(-4)))
          CFI (cfiCond323) ?BRET_EXT load(1, XDATA, add(CFA_XSP16, literal(-3)))
          CFI (cfiCond323) DPL0 load(1, XDATA, add(CFA_XSP16, literal(-2)))
          CFI (cfiCond323) DPH0 load(1, XDATA, add(CFA_XSP16, literal(-1)))
          CFI (cfiCond323) CFA_SP SP+0
          CFI (cfiCond323) CFA_XSP16 add(XSP16, 22)
          CFI Block cfiPicker324 Using cfiCommon1
          CFI (cfiPicker324) NoFunction
          CFI (cfiPicker324) Picker
        LCALL   ?Subroutine45 & 0xFFFF
??CrossCallReturnLabel_74:
        ADD     A,#0x10
        LCALL   ??Subroutine55_0 & 0xFFFF
??CrossCallReturnLabel_101:
        RET
          CFI EndBlock cfiCond322
          CFI EndBlock cfiCond323
          CFI EndBlock cfiPicker324

        RSEG BANKED_CODE:CODE:NOROOT(0)
?Subroutine11:
          CFI Block cfiCond325 Using cfiCommon0
          CFI Function MT_AfDataRequest
          CFI Conditional ??CrossCallReturnLabel_8
          CFI R6 load(1, XDATA, add(CFA_XSP16, literal(-22)))
          CFI VB load(1, XDATA, add(CFA_XSP16, literal(-21)))
          CFI V0 load(1, XDATA, add(CFA_XSP16, literal(-20)))
          CFI V1 load(1, XDATA, add(CFA_XSP16, literal(-19)))
          CFI V2 load(1, XDATA, add(CFA_XSP16, literal(-18)))
          CFI V3 load(1, XDATA, add(CFA_XSP16, literal(-17)))
          CFI V4 load(1, XDATA, add(CFA_XSP16, literal(-16)))
          CFI V5 load(1, XDATA, add(CFA_XSP16, literal(-15)))
          CFI V6 load(1, XDATA, add(CFA_XSP16, literal(-14)))
          CFI V7 load(1, XDATA, add(CFA_XSP16, literal(-13)))
          CFI V8 load(1, XDATA, add(CFA_XSP16, literal(-12)))
          CFI V9 load(1, XDATA, add(CFA_XSP16, literal(-11)))
          CFI V10 load(1, XDATA, add(CFA_XSP16, literal(-10)))
          CFI V11 load(1, XDATA, add(CFA_XSP16, literal(-9)))
          CFI V12 load(1, XDATA, add(CFA_XSP16, literal(-8)))
          CFI V13 load(1, XDATA, add(CFA_XSP16, literal(-7)))
          CFI R7 load(1, XDATA, add(CFA_XSP16, literal(-6)))
          CFI ?RET_LOW load(1, XDATA, add(CFA_XSP16, literal(-5)))
          CFI ?RET_HIGH load(1, XDATA, add(CFA_XSP16, literal(-4)))
          CFI ?BRET_EXT load(1, XDATA, add(CFA_XSP16, literal(-3)))
          CFI DPL0 load(1, XDATA, add(CFA_XSP16, literal(-2)))
          CFI DPH0 load(1, XDATA, add(CFA_XSP16, literal(-1)))
          CFI CFA_SP SP+0
          CFI CFA_XSP16 add(XSP16, 36)
          CFI Block cfiCond326 Using cfiCommon0
          CFI (cfiCond326) Function MT_AfDataStore
          CFI (cfiCond326) Conditional ??CrossCallReturnLabel_9
          CFI (cfiCond326) R6 load(1, XDATA, add(CFA_XSP16, literal(-14)))
          CFI (cfiCond326) VB load(1, XDATA, add(CFA_XSP16, literal(-13)))
          CFI (cfiCond326) V0 load(1, XDATA, add(CFA_XSP16, literal(-12)))
          CFI (cfiCond326) V1 load(1, XDATA, add(CFA_XSP16, literal(-11)))
          CFI (cfiCond326) V2 load(1, XDATA, add(CFA_XSP16, literal(-10)))
          CFI (cfiCond326) V3 load(1, XDATA, add(CFA_XSP16, literal(-9)))
          CFI (cfiCond326) V4 load(1, XDATA, add(CFA_XSP16, literal(-8)))
          CFI (cfiCond326) V5 load(1, XDATA, add(CFA_XSP16, literal(-7)))
          CFI (cfiCond326) R7 load(1, XDATA, add(CFA_XSP16, literal(-6)))
          CFI (cfiCond326) ?RET_LOW load(1, XDATA, add(CFA_XSP16, literal(-5)))
          CFI (cfiCond326) ?RET_HIGH load(1, XDATA, add(CFA_XSP16, literal(-4)))
          CFI (cfiCond326) ?BRET_EXT load(1, XDATA, add(CFA_XSP16, literal(-3)))
          CFI (cfiCond326) DPL0 load(1, XDATA, add(CFA_XSP16, literal(-2)))
          CFI (cfiCond326) DPH0 load(1, XDATA, add(CFA_XSP16, literal(-1)))
          CFI (cfiCond326) CFA_SP SP+0
          CFI (cfiCond326) CFA_XSP16 add(XSP16, 24)
          CFI Block cfiPicker327 Using cfiCommon1
          CFI (cfiPicker327) NoFunction
          CFI (cfiPicker327) Picker
        LCALL   ?Subroutine45 & 0xFFFF
??CrossCallReturnLabel_73:
        ADD     A,#0xe
        LCALL   ??Subroutine55_0 & 0xFFFF
??CrossCallReturnLabel_100:
        RET
          CFI EndBlock cfiCond325
          CFI EndBlock cfiCond326
          CFI EndBlock cfiPicker327

        RSEG BANK_RELAYS:CODE:REORDER:NOROOT(0)
??MT_AfExec?relay:
        CODE
        LCALL   ?BDISPATCH
        DATA24
        DC24    MT_AfExec

        RSEG BANK_RELAYS:CODE:REORDER:NOROOT(0)
??MT_AfCommandProcessing?relay:
        CODE
        LCALL   ?BDISPATCH
        DATA24
        DC24    MT_AfCommandProcessing

        RSEG BANK_RELAYS:CODE:REORDER:NOROOT(0)
??MT_AfRegister?relay:
        CODE
        LCALL   ?BDISPATCH
        DATA24
        DC24    MT_AfRegister

        RSEG BANK_RELAYS:CODE:REORDER:NOROOT(0)
??MT_AfDelete?relay:
        CODE
        LCALL   ?BDISPATCH
        DATA24
        DC24    MT_AfDelete

        RSEG BANK_RELAYS:CODE:REORDER:NOROOT(0)
??MT_AfDataRequest?relay:
        CODE
        LCALL   ?BDISPATCH
        DATA24
        DC24    MT_AfDataRequest

        RSEG BANK_RELAYS:CODE:REORDER:NOROOT(0)
??MT_AfDataRequestSrcRtg?relay:
        CODE
        LCALL   ?BDISPATCH
        DATA24
        DC24    MT_AfDataRequestSrcRtg

        RSEG BANK_RELAYS:CODE:REORDER:NOROOT(0)
??MT_AfInterPanCtl?relay:
        CODE
        LCALL   ?BDISPATCH
        DATA24
        DC24    MT_AfInterPanCtl

        RSEG BANK_RELAYS:CODE:REORDER:NOROOT(0)
??MT_AfDataConfirm?relay:
        CODE
        LCALL   ?BDISPATCH
        DATA24
        DC24    MT_AfDataConfirm

        RSEG BANK_RELAYS:CODE:REORDER:NOROOT(0)
??MT_AfReflectError?relay:
        CODE
        LCALL   ?BDISPATCH
        DATA24
        DC24    MT_AfReflectError

        RSEG BANK_RELAYS:CODE:REORDER:NOROOT(0)
??MT_AfIncomingMsg?relay:
        CODE
        LCALL   ?BDISPATCH
        DATA24
        DC24    MT_AfIncomingMsg

        RSEG BANK_RELAYS:CODE:REORDER:NOROOT(0)
??MT_AfDataRetrieve?relay:
        CODE
        LCALL   ?BDISPATCH
        DATA24
        DC24    MT_AfDataRetrieve

        RSEG BANK_RELAYS:CODE:REORDER:NOROOT(0)
??MT_AfDataStore?relay:
        CODE
        LCALL   ?BDISPATCH
        DATA24
        DC24    MT_AfDataStore

        RSEG XDATA_ROM_C:CONST:REORDER:NOROOT(0)
        DATA16
`?<Constant {0, 0}>`:
        DATA8
        DB 0
        DB 0

        RSEG XDATA_ROM_C:CONST:REORDER:NOROOT(0)
        DATA32
__Constant_3e8:
        DD 1000

        END
//  950 
//  951 /**************************************************************************************************
//  952  * @fn          MT_AfAPSF_ConfigSet
//  953  *
//  954  * @brief       This function is the MT proxy for afAPSF_ConfigSet().
//  955  *
//  956  * input parameters
//  957  *
//  958  * @param       pBuf - Pointer to the received buffer.
//  959  *
//  960  * output parameters
//  961  *
//  962  * None.
//  963  *
//  964  * @return      None.
//  965  */
//  966 static void MT_AfAPSF_ConfigSet(uint8 *pBuf)
//  967 {
//  968   afAPSF_Config_t cfg = { pBuf[MT_RPC_POS_DAT0+1], pBuf[MT_RPC_POS_DAT0+2] };
//  969   afStatus_t rtrn = afAPSF_ConfigSet(pBuf[MT_RPC_POS_DAT0], &cfg);
//  970 
//  971   MT_BuildAndSendZToolResponse(((uint8)MT_RPC_CMD_SRSP | (uint8)MT_RPC_SYS_AF),
//  972                                        MT_AF_APSF_CONFIG_SET, 1, (uint8 *)&rtrn);
//  973 }
//  974 
//  975 /**************************************************************************************************
//  976  * @fn          MT_AfAPSF_ConfigGet
//  977  *
//  978  * @brief       This function is the MT proxy for afAPSF_ConfigGet().
//  979  *
//  980  * input parameters
//  981  *
//  982  * @param       pBuf - Pointer to the received buffer.
//  983  *
//  984  * output parameters
//  985  *
//  986  * None.
//  987  *
//  988  * @return      None.
//  989  */
//  990 static void MT_AfAPSF_ConfigGet(uint8 *pBuf)
//  991 {
//  992   afAPSF_Config_t cfg = { 0, 0 };
//  993   uint8 buf[3];
//  994   
//  995   afStatus_t rtrn = afAPSF_ConfigSet( pBuf[MT_RPC_POS_DAT0], &cfg );
//  996   
//  997   buf[0] = rtrn;
//  998   buf[1] = cfg.frameDelay;
//  999   buf[2] = cfg.windowSize;
// 1000 
// 1001   MT_BuildAndSendZToolResponse(((uint8)MT_RPC_CMD_SRSP | (uint8)MT_RPC_SYS_AF),
// 1002                                        MT_AF_APSF_CONFIG_GET, 3, buf );
// 1003 }
// 1004 
// 1005 /***************************************************************************************************
// 1006 ***************************************************************************************************/
// 
// 3 857 bytes in segment BANKED_CODE
//    72 bytes in segment BANK_RELAYS
//     6 bytes in segment XDATA_ROM_C
//     4 bytes in segment XDATA_Z
// 
// 3 929 bytes of CODE  memory
//     2 bytes of CONST memory (+ 4 bytes shared)
//     4 bytes of XDATA memory
//
//Errors: none
//Warnings: none
