###############################################################################
#                                                                             #
# IAR C/C++ Compiler V8.20.2.41139 for 8051             12/Apr/2014  12:18:06 #
# Copyright 2004-2013 IAR Systems AB.                                         #
#                                                                             #
#    Core               =  plain                                              #
#    Code model         =  banked                                             #
#    Data model         =  large                                              #
#    Calling convention =  xdata reentrant                                    #
#    Constant location  =  data_rom                                           #
#    Dptr setup         =  1,16                                               #
#                                                                             #
#    Source file        =  D:\Texas Instruments\Z-Stack Lighting              #
#                          1.0.2\Components\osal\common\OSAL_Timers.c         #
#    Command line       =  -f "D:\Texas Instruments\Z-Stack Lighting          #
#                          1.0.2\Projects\zstack\ZLL\SampleApp\CC253x\..\..\. #
#                          .\Tools\CC2530DB\f8wRouter.cfg" (-DCPU32MHZ        #
#                          -DROOT=__near_func -DMAC_CFG_APP_PENDING_QUEUE=TRU #
#                          E -DMAC_CFG_TX_DATA_MAX=5 -DMAC_CFG_TX_MAX=8       #
#                          -DMAC_CFG_RX_MAX=5 -DRTR_NWK) -f "D:\Texas         #
#                          Instruments\Z-Stack Lighting                       #
#                          1.0.2\Projects\zstack\ZLL\SampleApp\CC253x\..\..\. #
#                          .\Tools\CC2530DB\f8wConfig.cfg" (-DZIGBEEPRO       #
#                          -DSECURE=1 -DZG_SECURE_DYNAMIC=0 -DREFLECTOR       #
#                          -DDEFAULT_CHANLIST=0x00000800                      #
#                          -DZDAPP_CONFIG_PAN_ID=0xFFFF                       #
#                          -DNWK_START_DELAY=100 -DEXTENDED_JOINING_RANDOM_MA #
#                          SK=0x007F -DBEACON_REQUEST_DELAY=100               #
#                          -DBEACON_REQ_DELAY_MASK=0x00FF                     #
#                          -DLINK_STATUS_JITTER_MASK=0x007F                   #
#                          -DROUTE_EXPIRY_TIME=30 -DAPSC_ACK_WAIT_DURATION_PO #
#                          LLED=3000 -DNWK_INDIRECT_MSG_TIMEOUT=7             #
#                          -DMAX_RREQ_ENTRIES=8 -DAPSC_MAX_FRAME_RETRIES=3    #
#                          -DNWK_MAX_DATA_RETRIES=2                           #
#                          -DMAX_POLL_FAILURE_RETRIES=2 -DMAX_BCAST=9         #
#                          -DAPS_MAX_GROUPS=16 -DMAX_RTG_ENTRIES=40           #
#                          -DNWK_MAX_BINDING_ENTRIES=4                        #
#                          -DMAX_BINDING_CLUSTER_IDS=4 "-DDEFAULT_KEY={0x01,  #
#                          0x03, 0x05, 0x07, 0x09, 0x0B, 0x0D, 0x0F, 0x00,    #
#                          0x02, 0x04, 0x06, 0x08, 0x0A, 0x0C, 0x0D}"         #
#                          -DMAC_MAX_FRAME_SIZE=116                           #
#                          -DZDNWKMGR_MIN_TRANSMISSIONS=20 "-DCONST=const     #
#                          __code" -DGENERIC=__generic                        #
#                          -DRFD_RCVC_ALWAYS_ON=FALSE -DPOLL_RATE=1000        #
#                          -DQUEUED_POLL_RATE=100 -DRESPONSE_POLL_RATE=100    #
#                          -DREJOIN_POLL_RATE=440) -f "D:\Texas               #
#                          Instruments\Z-Stack Lighting                       #
#                          1.0.2\Projects\zstack\ZLL\SampleApp\CC253x\..\..\. #
#                          .\Tools\CC2530DB\f8wZCL.cfg" "D:\Texas             #
#                          Instruments\Z-Stack Lighting                       #
#                          1.0.2\Components\osal\common\OSAL_Timers.c" -D     #
#                          FEATURE_GREEN_POWER -D SECURE=1 -D                 #
#                          TC_LINKKEY_JOIN -D ZDSECMGR_TC_DEVICE_MAX=2 -D     #
#                          NV_RESTORE -D HOLD_AUTO_START -D INTER_PAN -D      #
#                          ZTOOL_P1 -D MT_TASK -D MT_APP_FUNC -D MT_SYS_FUNC  #
#                          -D MT_ZDO_FUNC -D MT_ZDO_CB_FUNC -D MT_UTIL_FUNC   #
#                          -D MT_ZDO_MGMT -D LCD_SUPPORTED -D HAL_LCD=FALSE   #
#                          -D HAL_KEY=FALSE -D ZCL_BASIC -D ZCL_READ -D       #
#                          ZCL_WRITE -D ZCL_IDENTIFY -D ZCL_ON_OFF -D         #
#                          ZCL_SCENES -D ZCL_GROUPS -D                        #
#                          ZCL_LIGHT_LINK_ENHANCE -D ZCL_LEVEL_CTRL -D        #
#                          ZCL_COLOR_CTRL -D xMAX_CHANNELS_24GHZ=0x02108800   #
#                          -lC "D:\Texas Instruments\Z-Stack Lighting         #
#                          1.0.2\Projects\zstack\ZLL\SampleApp\CC253x\BridgeE #
#                          B-Pro\List\" -lA "D:\Texas Instruments\Z-Stack     #
#                          Lighting 1.0.2\Projects\zstack\ZLL\SampleApp\CC253 #
#                          x\BridgeEB-Pro\List\" --diag_suppress Pe001,Pa010  #
#                          -o "D:\Texas Instruments\Z-Stack Lighting          #
#                          1.0.2\Projects\zstack\ZLL\SampleApp\CC253x\BridgeE #
#                          B-Pro\Obj\" -e --debug --core=plain --dptr=16,1    #
#                          --data_model=large --code_model=banked             #
#                          --calling_convention=xdata_reentrant               #
#                          --place_constants=data_rom --nr_virtual_regs 16    #
#                          -I "D:\Texas Instruments\Z-Stack Lighting          #
#                          1.0.2\Projects\zstack\ZLL\SampleApp\CC253x\" -I    #
#                          "D:\Texas Instruments\Z-Stack Lighting             #
#                          1.0.2\Projects\zstack\ZLL\SampleApp\CC253x\..\Sour #
#                          ce\" -I "D:\Texas Instruments\Z-Stack Lighting     #
#                          1.0.2\Projects\zstack\ZLL\SampleApp\CC253x\..\..\S #
#                          ource\" -I "D:\Texas Instruments\Z-Stack Lighting  #
#                          1.0.2\Projects\zstack\ZLL\SampleApp\CC253x\..\..\. #
#                          .\HomeAutomation\Source\" -I "D:\Texas             #
#                          Instruments\Z-Stack Lighting                       #
#                          1.0.2\Projects\zstack\ZLL\SampleApp\CC253x\..\..\. #
#                          .\HomeAutomation\SampleLight\Source\" -I           #
#                          "D:\Texas Instruments\Z-Stack Lighting             #
#                          1.0.2\Projects\zstack\ZLL\SampleApp\CC253x\..\..\. #
#                          .\ZMain\TI2530DB\" -I "D:\Texas                    #
#                          Instruments\Z-Stack Lighting                       #
#                          1.0.2\Projects\zstack\ZLL\SampleApp\CC253x\..\..\. #
#                          .\..\..\Components\hal\include\" -I "D:\Texas      #
#                          Instruments\Z-Stack Lighting                       #
#                          1.0.2\Projects\zstack\ZLL\SampleApp\CC253x\..\..\. #
#                          .\..\..\Components\hal\target\CC2530EB\" -I        #
#                          "D:\Texas Instruments\Z-Stack Lighting             #
#                          1.0.2\Projects\zstack\ZLL\SampleApp\CC253x\..\..\. #
#                          .\..\..\Components\mac\include\" -I "D:\Texas      #
#                          Instruments\Z-Stack Lighting                       #
#                          1.0.2\Projects\zstack\ZLL\SampleApp\CC253x\..\..\. #
#                          .\..\..\Components\mac\high_level\" -I "D:\Texas   #
#                          Instruments\Z-Stack Lighting                       #
#                          1.0.2\Projects\zstack\ZLL\SampleApp\CC253x\..\..\. #
#                          .\..\..\Components\mac\low_level\srf04\" -I        #
#                          "D:\Texas Instruments\Z-Stack Lighting             #
#                          1.0.2\Projects\zstack\ZLL\SampleApp\CC253x\..\..\. #
#                          .\..\..\Components\mac\low_level\srf04\single_chip #
#                          \" -I "D:\Texas Instruments\Z-Stack Lighting       #
#                          1.0.2\Projects\zstack\ZLL\SampleApp\CC253x\..\..\. #
#                          .\..\..\Components\mt\" -I "D:\Texas               #
#                          Instruments\Z-Stack Lighting                       #
#                          1.0.2\Projects\zstack\ZLL\SampleApp\CC253x\..\..\. #
#                          .\..\..\Components\osal\include\" -I "D:\Texas     #
#                          Instruments\Z-Stack Lighting                       #
#                          1.0.2\Projects\zstack\ZLL\SampleApp\CC253x\..\..\. #
#                          .\..\..\Components\services\saddr\" -I "D:\Texas   #
#                          Instruments\Z-Stack Lighting                       #
#                          1.0.2\Projects\zstack\ZLL\SampleApp\CC253x\..\..\. #
#                          .\..\..\Components\services\sdata\" -I "D:\Texas   #
#                          Instruments\Z-Stack Lighting                       #
#                          1.0.2\Projects\zstack\ZLL\SampleApp\CC253x\..\..\. #
#                          .\..\..\Components\stack\af\" -I "D:\Texas         #
#                          Instruments\Z-Stack Lighting                       #
#                          1.0.2\Projects\zstack\ZLL\SampleApp\CC253x\..\..\. #
#                          .\..\..\Components\stack\nwk\" -I "D:\Texas        #
#                          Instruments\Z-Stack Lighting                       #
#                          1.0.2\Projects\zstack\ZLL\SampleApp\CC253x\..\..\. #
#                          .\..\..\Components\stack\sapi\" -I "D:\Texas       #
#                          Instruments\Z-Stack Lighting                       #
#                          1.0.2\Projects\zstack\ZLL\SampleApp\CC253x\..\..\. #
#                          .\..\..\Components\stack\sec\" -I "D:\Texas        #
#                          Instruments\Z-Stack Lighting                       #
#                          1.0.2\Projects\zstack\ZLL\SampleApp\CC253x\..\..\. #
#                          .\..\..\Components\stack\sys\" -I "D:\Texas        #
#                          Instruments\Z-Stack Lighting                       #
#                          1.0.2\Projects\zstack\ZLL\SampleApp\CC253x\..\..\. #
#                          .\..\..\Components\stack\zcl\" -I "D:\Texas        #
#                          Instruments\Z-Stack Lighting                       #
#                          1.0.2\Projects\zstack\ZLL\SampleApp\CC253x\..\..\. #
#                          .\..\..\Components\stack\zdo\" -I "D:\Texas        #
#                          Instruments\Z-Stack Lighting                       #
#                          1.0.2\Projects\zstack\ZLL\SampleApp\CC253x\..\..\. #
#                          .\..\..\Components\zmac\" -I "D:\Texas             #
#                          Instruments\Z-Stack Lighting                       #
#                          1.0.2\Projects\zstack\ZLL\SampleApp\CC253x\..\..\. #
#                          .\..\..\Components\zmac\f8w\" -Ohz                 #
#                          --require_prototypes                               #
#    List file          =  D:\Texas Instruments\Z-Stack Lighting              #
#                          1.0.2\Projects\zstack\ZLL\SampleApp\CC253x\BridgeE #
#                          B-Pro\List\OSAL_Timers.lst                         #
#    Object file        =  D:\Texas Instruments\Z-Stack Lighting              #
#                          1.0.2\Projects\zstack\ZLL\SampleApp\CC253x\BridgeE #
#                          B-Pro\Obj\OSAL_Timers.r51                          #
#                                                                             #
#                                                                             #
###############################################################################

D:\Texas Instruments\Z-Stack Lighting 1.0.2\Components\osal\common\OSAL_Timers.c
      1          /**************************************************************************************************
      2            Filename:       OSAL_Timers.c
      3            Revised:        $Date: 2012-11-28 00:37:02 -0800 (Wed, 28 Nov 2012) $
      4            Revision:       $Revision: 32329 $
      5          
      6            Description:    OSAL Timer definition and manipulation functions.
      7          
      8          
      9            Copyright 2004-2012 Texas Instruments Incorporated. All rights reserved.
     10          
     11            IMPORTANT: Your use of this Software is limited to those specific rights
     12            granted under the terms of a software license agreement between the user
     13            who downloaded the software, his/her employer (which must be your employer)
     14            and Texas Instruments Incorporated (the "License"). You may not use this
     15            Software unless you agree to abide by the terms of the License. The License
     16            limits your use, and you acknowledge, that the Software may not be modified,
     17            copied or distributed unless embedded on a Texas Instruments microcontroller
     18            or used solely and exclusively in conjunction with a Texas Instruments radio
     19            frequency transceiver, which is integrated into your product. Other than for
     20            the foregoing purpose, you may not use, reproduce, copy, prepare derivative
     21            works of, modify, distribute, perform, display or sell this Software and/or
     22            its documentation for any purpose.
     23          
     24            YOU FURTHER ACKNOWLEDGE AND AGREE THAT THE SOFTWARE AND DOCUMENTATION ARE
     25            PROVIDED “AS IS” WITHOUT WARRANTY OF ANY KIND, EITHER EXPRESS OR IMPLIED,
     26            INCLUDING WITHOUT LIMITATION, ANY WARRANTY OF MERCHANTABILITY, TITLE,
     27            NON-INFRINGEMENT AND FITNESS FOR A PARTICULAR PURPOSE. IN NO EVENT SHALL
     28            TEXAS INSTRUMENTS OR ITS LICENSORS BE LIABLE OR OBLIGATED UNDER CONTRACT,
     29            NEGLIGENCE, STRICT LIABILITY, CONTRIBUTION, BREACH OF WARRANTY, OR OTHER
     30            LEGAL EQUITABLE THEORY ANY DIRECT OR INDIRECT DAMAGES OR EXPENSES
     31            INCLUDING BUT NOT LIMITED TO ANY INCIDENTAL, SPECIAL, INDIRECT, PUNITIVE
     32            OR CONSEQUENTIAL DAMAGES, LOST PROFITS OR LOST DATA, COST OF PROCUREMENT
     33            OF SUBSTITUTE GOODS, TECHNOLOGY, SERVICES, OR ANY CLAIMS BY THIRD PARTIES
     34            (INCLUDING BUT NOT LIMITED TO ANY DEFENSE THEREOF), OR OTHER SIMILAR COSTS.
     35          
     36            Should you have any questions regarding your right to use this Software,
     37            contact Texas Instruments Incorporated at www.TI.com.
     38          **************************************************************************************************/
     39          
     40          /*********************************************************************
     41           * INCLUDES
     42           */
     43          
     44          #include "comdef.h"
     45          #include "OnBoard.h"

   \                                 In  segment SFR_AN, at 0xa8
   \   union <unnamed> volatile __sfr _A_IEN0
   \                     _A_IEN0:
   \   000000                DS 1
     46          #include "OSAL.h"
     47          #include "OSAL_Timers.h"
     48          #include "hal_timer.h"
     49          
     50          /*********************************************************************
     51           * MACROS
     52           */
     53          
     54          /*********************************************************************
     55           * CONSTANTS
     56           */
     57          
     58          /*********************************************************************
     59           * TYPEDEFS
     60           */
     61          
     62          typedef union {
     63            uint32 time32;
     64            uint16 time16[2];
     65            uint8 time8[4];
     66          } osalTime_t;
     67          
     68          typedef struct
     69          {
     70            void   *next;
     71            osalTime_t timeout;
     72            uint16 event_flag;
     73            uint8  task_id;
     74            uint32 reloadTimeout;
     75          } osalTimerRec_t;
     76          
     77          /*********************************************************************
     78           * GLOBAL VARIABLES
     79           */
     80          

   \                                 In  segment XDATA_Z, align 1, keep-with-next
     81          osalTimerRec_t *timerHead;
   \                     timerHead:
   \   000000                DS 2
   \   000002                REQUIRE __INIT_XDATA_Z
     82          
     83          /*********************************************************************
     84           * EXTERNAL VARIABLES
     85           */
     86          
     87          /*********************************************************************
     88           * EXTERNAL FUNCTIONS
     89           */
     90          
     91          /*********************************************************************
     92           * LOCAL VARIABLES
     93           */
     94          // Milliseconds since last reboot

   \                                 In  segment XDATA_Z, align 1, keep-with-next
     95          static uint32 osal_systemClock;
   \                     osal_systemClock:
   \   000000                DS 4
   \   000004                REQUIRE __INIT_XDATA_Z
     96          
     97          /*********************************************************************
     98           * LOCAL FUNCTION PROTOTYPES
     99           */
    100          osalTimerRec_t  *osalAddTimer( uint8 task_id, uint16 event_flag, uint32 timeout );
    101          osalTimerRec_t *osalFindTimer( uint8 task_id, uint16 event_flag );
    102          void osalDeleteTimer( osalTimerRec_t *rmTimer );
    103          
    104          /*********************************************************************
    105           * FUNCTIONS
    106           *********************************************************************/
    107          
    108          /*********************************************************************
    109           * @fn      osalTimerInit
    110           *
    111           * @brief   Initialization for the OSAL Timer System.
    112           *
    113           * @param   none
    114           *
    115           * @return
    116           */

   \                                 In  segment BANKED_CODE, align 1, keep-with-next
    117          void osalTimerInit( void )
   \                     osalTimerInit:
    118          {
   \   000000   74F7         MOV     A,#-0x9
   \   000002   12....       LCALL   ?BANKED_ENTER_XDATA
   \   000005                ; Saved register size: 9
   \   000005                ; Auto size: 0
    119            osal_systemClock = 0;
   \   000005   90....       MOV     DPTR,#osal_systemClock
   \   000008   E4           CLR     A
   \   000009   F0           MOVX    @DPTR,A
   \   00000A   A3           INC     DPTR
   \   00000B   F0           MOVX    @DPTR,A
   \   00000C   A3           INC     DPTR
   \   00000D   F0           MOVX    @DPTR,A
   \   00000E   A3           INC     DPTR
   \   00000F   F0           MOVX    @DPTR,A
    120          }
   \   000010   7F01         MOV     R7,#0x1
   \   000012   02....       LJMP    ?BANKED_LEAVE_XDATA
    121          
    122          /*********************************************************************
    123           * @fn      osalAddTimer
    124           *
    125           * @brief   Add a timer to the timer list.
    126           *          Ints must be disabled.
    127           *
    128           * @param   task_id
    129           * @param   event_flag
    130           * @param   timeout
    131           *
    132           * @return  osalTimerRec_t * - pointer to newly created timer
    133           */

   \                                 In  segment BANKED_CODE, align 1, keep-with-next
    134          osalTimerRec_t * osalAddTimer( uint8 task_id, uint16 event_flag, uint32 timeout )
   \                     osalAddTimer:
    135          {
   \   000000   74F0         MOV     A,#-0x10
   \   000002   12....       LCALL   ?BANKED_ENTER_XDATA
   \   000005                ; Saved register size: 16
   \   000005                ; Auto size: 0
   \   000005   E9           MOV     A,R1
   \   000006   FE           MOV     R6,A
   \   000007   8A..         MOV     ?V0 + 0,R2
   \   000009   8B..         MOV     ?V0 + 1,R3
    136            osalTimerRec_t *newTimer;
    137            osalTimerRec_t *srchTimer;
    138          
    139            // Look for an existing timer first
    140            newTimer = osalFindTimer( task_id, event_flag );
   \   00000B                ; Setup parameters for call to function osalFindTimer
   \   00000B   12....       LCALL   ??osalFindTimer?relay
   \   00000E   7410         MOV     A,#0x10
   \   000010   12....       LCALL   ?XSTACK_DISP0_8
   \   000013   78..         MOV     R0,#?V0 + 4
   \   000015   12....       LCALL   ?L_MOV_X
    141            if ( newTimer )
   \   000018   EA           MOV     A,R2
   \   000019   4B           ORL     A,R3
   \   00001A   600E         JZ      ??osalAddTimer_0
    142            {
    143              // Timer is found - update it.
    144              newTimer->timeout.time32 = timeout;
   \   00001C   8A82         MOV     DPL,R2
   \   00001E   8B83         MOV     DPH,R3
   \   000020   A3           INC     DPTR
   \   000021   A3           INC     DPTR
   \   000022   78..         MOV     R0,#?V0 + 4
   \   000024   12....       LCALL   ?L_MOV_TO_X
    145          
    146              return ( newTimer );
   \   000027   02....       LJMP    ??osalAddTimer_1 & 0xFFFF
    147            }
    148            else
    149            {
    150              // New Timer
    151              newTimer = osal_mem_alloc( sizeof( osalTimerRec_t ) );
   \                     ??osalAddTimer_0:
   \   00002A                ; Setup parameters for call to function osal_mem_alloc
   \   00002A   7A0D         MOV     R2,#0xd
   \   00002C   7B00         MOV     R3,#0x0
   \   00002E   12....       LCALL   ??osal_mem_alloc?relay
    152          
    153              if ( newTimer )
   \   000031   EA           MOV     A,R2
   \   000032   4B           ORL     A,R3
   \   000033   6075         JZ      ??osalAddTimer_2
    154              {
    155                // Fill in new timer
    156                newTimer->task_id = task_id;
   \   000035   EE           MOV     A,R6
   \   000036   8A82         MOV     DPL,R2
   \   000038   8B83         MOV     DPH,R3
   \   00003A   A3           INC     DPTR
   \   00003B   A3           INC     DPTR
   \   00003C   A3           INC     DPTR
   \   00003D   A3           INC     DPTR
   \   00003E   A3           INC     DPTR
   \   00003F   A3           INC     DPTR
   \   000040   A3           INC     DPTR
   \   000041   A3           INC     DPTR
   \   000042   F0           MOVX    @DPTR,A
    157                newTimer->event_flag = event_flag;
   \   000043   8A82         MOV     DPL,R2
   \   000045   8B83         MOV     DPH,R3
   \   000047   A3           INC     DPTR
   \   000048   A3           INC     DPTR
   \   000049   A3           INC     DPTR
   \   00004A   A3           INC     DPTR
   \   00004B   A3           INC     DPTR
   \   00004C   A3           INC     DPTR
   \   00004D   E5..         MOV     A,?V0 + 0
   \   00004F   F0           MOVX    @DPTR,A
   \   000050   A3           INC     DPTR
   \   000051   E5..         MOV     A,?V0 + 1
   \   000053   F0           MOVX    @DPTR,A
    158                newTimer->timeout.time32 = timeout;
   \   000054   8A82         MOV     DPL,R2
   \   000056   8B83         MOV     DPH,R3
   \   000058   A3           INC     DPTR
   \   000059   A3           INC     DPTR
   \   00005A   78..         MOV     R0,#?V0 + 4
   \   00005C   12....       LCALL   ?L_MOV_TO_X
    159                newTimer->next = (void *)NULL;
   \   00005F   8A82         MOV     DPL,R2
   \   000061   8B83         MOV     DPH,R3
   \   000063   E4           CLR     A
   \   000064   F0           MOVX    @DPTR,A
   \   000065   A3           INC     DPTR
   \   000066   F0           MOVX    @DPTR,A
    160                newTimer->reloadTimeout = 0;
   \   000067   F5..         MOV     ?V0 + 0,A
   \   000069   F5..         MOV     ?V0 + 1,A
   \   00006B   F5..         MOV     ?V0 + 2,A
   \   00006D   F5..         MOV     ?V0 + 3,A
   \   00006F   8A82         MOV     DPL,R2
   \   000071   8B83         MOV     DPH,R3
   \   000073   A3           INC     DPTR
   \   000074   A3           INC     DPTR
   \   000075   A3           INC     DPTR
   \   000076   A3           INC     DPTR
   \   000077   A3           INC     DPTR
   \   000078   A3           INC     DPTR
   \   000079   A3           INC     DPTR
   \   00007A   A3           INC     DPTR
   \   00007B   A3           INC     DPTR
   \   00007C   78..         MOV     R0,#?V0 + 0
   \   00007E   12....       LCALL   ?L_MOV_TO_X
    161          
    162                // Does the timer list already exist
    163                if ( timerHead == NULL )
   \   000081   90....       MOV     DPTR,#timerHead
   \   000084   12....       LCALL   ??Subroutine4_0 & 0xFFFF
   \                     ??CrossCallReturnLabel_0:
   \   000087   90....       MOV     DPTR,#timerHead
   \   00008A   6017         JZ      ??osalAddTimer_3
    164                {
    165                  // Start task list
    166                  timerHead = newTimer;
    167                }
    168                else
    169                {
    170                  // Add it to the end of the timer list
    171                  srchTimer = timerHead;
   \   00008C   E0           MOVX    A,@DPTR
   \   00008D   FC           MOV     R4,A
   \   00008E   A3           INC     DPTR
   \   00008F   E0           MOVX    A,@DPTR
   \   000090   8003         SJMP    ??osalAddTimer_4
    172          
    173                  // Stop at the last record
    174                  while ( srchTimer->next )
    175                    srchTimer = srchTimer->next;
   \                     ??osalAddTimer_5:
   \   000092   E8           MOV     A,R0
   \   000093   FC           MOV     R4,A
   \   000094   E9           MOV     A,R1
   \                     ??osalAddTimer_4:
   \   000095   FD           MOV     R5,A
   \   000096   8C82         MOV     DPL,R4
   \   000098   8D83         MOV     DPH,R5
   \   00009A   12....       LCALL   ??Subroutine4_0 & 0xFFFF
   \                     ??CrossCallReturnLabel_1:
   \   00009D   70F3         JNZ     ??osalAddTimer_5
    176          
    177                  // Add to the list
    178                  srchTimer->next = newTimer;
   \   00009F   8C82         MOV     DPL,R4
   \   0000A1   8D83         MOV     DPH,R5
   \                     ??osalAddTimer_3:
   \   0000A3   EA           MOV     A,R2
   \   0000A4   F0           MOVX    @DPTR,A
   \   0000A5   A3           INC     DPTR
   \   0000A6   EB           MOV     A,R3
   \   0000A7   F0           MOVX    @DPTR,A
    179                }
    180          
    181                return ( newTimer );
   \   0000A8   8004         SJMP    ??osalAddTimer_1
    182              }
    183              else
    184              {
    185                return ( (osalTimerRec_t *)NULL );
   \                     ??osalAddTimer_2:
   \   0000AA   7A00         MOV     R2,#0x0
   \   0000AC   7B00         MOV     R3,#0x0
   \                     ??osalAddTimer_1:
   \   0000AE   7F08         MOV     R7,#0x8
   \   0000B0   02....       LJMP    ?BANKED_LEAVE_XDATA
    186              }
    187            }
    188          }

   \                                 In  segment BANKED_CODE, align 1, keep-with-next
   \                     ??Subroutine4_0:
   \   000000   E0           MOVX    A,@DPTR
   \   000001   F8           MOV     R0,A
   \   000002   A3           INC     DPTR
   \   000003   E0           MOVX    A,@DPTR
   \   000004   F9           MOV     R1,A
   \   000005   E8           MOV     A,R0
   \   000006   49           ORL     A,R1
   \   000007   22           RET
    189          
    190          /*********************************************************************
    191           * @fn      osalFindTimer
    192           *
    193           * @brief   Find a timer in a timer list.
    194           *          Ints must be disabled.
    195           *
    196           * @param   task_id
    197           * @param   event_flag
    198           *
    199           * @return  osalTimerRec_t *
    200           */

   \                                 In  segment BANKED_CODE, align 1, keep-with-next
    201          osalTimerRec_t *osalFindTimer( uint8 task_id, uint16 event_flag )
   \                     osalFindTimer:
    202          {
   \   000000   C082         PUSH    DPL
   \   000002   C083         PUSH    DPH
   \   000004                ; Saved register size: 2
   \   000004                ; Auto size: 0
    203            osalTimerRec_t *srchTimer;
    204          
    205            // Head of the timer list
    206            srchTimer = timerHead;
   \   000004   90....       MOV     DPTR,#timerHead
   \   000007   8004         SJMP    ??osalFindTimer_0
    207          
    208            // Stop when found or at the end
    209            while ( srchTimer )
    210            {
    211              if ( srchTimer->event_flag == event_flag &&
    212                   srchTimer->task_id == task_id )
    213              {
    214                break;
    215              }
    216          
    217              // Not this one, check another
    218              srchTimer = srchTimer->next;
   \                     ??osalFindTimer_1:
   \   000009   8C82         MOV     DPL,R4
   \   00000B   8D83         MOV     DPH,R5
   \                     ??osalFindTimer_0:
   \   00000D   E0           MOVX    A,@DPTR
   \   00000E   FC           MOV     R4,A
   \   00000F   A3           INC     DPTR
   \   000010   E0           MOVX    A,@DPTR
   \   000011   FD           MOV     R5,A
   \   000012   EC           MOV     A,R4
   \   000013   4D           ORL     A,R5
   \   000014   6023         JZ      ??osalFindTimer_2
   \   000016   8C82         MOV     DPL,R4
   \   000018   8D83         MOV     DPH,R5
   \   00001A   A3           INC     DPTR
   \   00001B   A3           INC     DPTR
   \   00001C   A3           INC     DPTR
   \   00001D   A3           INC     DPTR
   \   00001E   A3           INC     DPTR
   \   00001F   A3           INC     DPTR
   \   000020   E0           MOVX    A,@DPTR
   \   000021   6A           XRL     A,R2
   \   000022   7003         JNZ     ??osalFindTimer_3
   \   000024   A3           INC     DPTR
   \   000025   E0           MOVX    A,@DPTR
   \   000026   6B           XRL     A,R3
   \                     ??osalFindTimer_3:
   \   000027   70E0         JNZ     ??osalFindTimer_1
   \   000029   8C82         MOV     DPL,R4
   \   00002B   8D83         MOV     DPH,R5
   \   00002D   A3           INC     DPTR
   \   00002E   A3           INC     DPTR
   \   00002F   A3           INC     DPTR
   \   000030   A3           INC     DPTR
   \   000031   A3           INC     DPTR
   \   000032   A3           INC     DPTR
   \   000033   A3           INC     DPTR
   \   000034   A3           INC     DPTR
   \   000035   E0           MOVX    A,@DPTR
   \   000036   69           XRL     A,R1
   \   000037   70D0         JNZ     ??osalFindTimer_1
    219            }
    220          
    221            return ( srchTimer );
   \                     ??osalFindTimer_2:
   \   000039   EC           MOV     A,R4
   \   00003A   FA           MOV     R2,A
   \   00003B   ED           MOV     A,R5
   \   00003C   FB           MOV     R3,A
   \   00003D   02....       LJMP    ?Subroutine0 & 0xFFFF
    222          }

   \                                 In  segment BANKED_CODE, align 1, keep-with-next
   \                     ?Subroutine0:
   \   000000   D083         POP     DPH
   \   000002   D082         POP     DPL
   \   000004   02....       LJMP    ?BRET
    223          
    224          /*********************************************************************
    225           * @fn      osalDeleteTimer
    226           *
    227           * @brief   Delete a timer from a timer list.
    228           *
    229           * @param   table
    230           * @param   rmTimer
    231           *
    232           * @return  none
    233           */

   \                                 In  segment BANKED_CODE, align 1, keep-with-next
    234          void osalDeleteTimer( osalTimerRec_t *rmTimer )
   \                     osalDeleteTimer:
    235          {
   \   000000   C082         PUSH    DPL
   \   000002   C083         PUSH    DPH
   \   000004                ; Saved register size: 2
   \   000004                ; Auto size: 0
    236            // Does the timer list really exist
    237            if ( rmTimer )
   \   000004   EA           MOV     A,R2
   \   000005   4B           ORL     A,R3
   \   000006   600E         JZ      ??osalDeleteTimer_0
    238            {
    239              // Clear the event flag and osalTimerUpdate() will delete
    240              // the timer from the list.
    241              rmTimer->event_flag = 0;
   \   000008   8A82         MOV     DPL,R2
   \   00000A   8B83         MOV     DPH,R3
   \   00000C   A3           INC     DPTR
   \   00000D   A3           INC     DPTR
   \   00000E   A3           INC     DPTR
   \   00000F   A3           INC     DPTR
   \   000010   A3           INC     DPTR
   \   000011   A3           INC     DPTR
   \   000012   E4           CLR     A
   \   000013   F0           MOVX    @DPTR,A
   \   000014   A3           INC     DPTR
   \   000015   F0           MOVX    @DPTR,A
    242            }
    243          }
   \                     ??osalDeleteTimer_0:
   \   000016   02....       LJMP    ?Subroutine0 & 0xFFFF
    244          
    245          /*********************************************************************
    246           * @fn      osal_start_timerEx
    247           *
    248           * @brief
    249           *
    250           *   This function is called to start a timer to expire in n mSecs.
    251           *   When the timer expires, the calling task will get the specified event.
    252           *
    253           * @param   uint8 taskID - task id to set timer for
    254           * @param   uint16 event_id - event to be notified with
    255           * @param   uint32 timeout_value - in milliseconds.
    256           *
    257           * @return  SUCCESS, or NO_TIMER_AVAIL.
    258           */

   \                                 In  segment BANKED_CODE, align 1, keep-with-next
    259          uint8 osal_start_timerEx( uint8 taskID, uint16 event_id, uint32 timeout_value )
   \                     osal_start_timerEx:
    260          {
   \   000000   74F4         MOV     A,#-0xc
   \   000002   12....       LCALL   ?BANKED_ENTER_XDATA
   \   000005                ; Saved register size: 12
   \   000005                ; Auto size: 0
   \   000005   740C         MOV     A,#0xc
   \   000007   12....       LCALL   ?XSTACK_DISP0_8
   \   00000A   78..         MOV     R0,#?V0 + 0
   \   00000C   12....       LCALL   ?L_MOV_X
    261            halIntState_t intState;
    262            osalTimerRec_t *newTimer;
    263          
    264            HAL_ENTER_CRITICAL_SECTION( intState );  // Hold off interrupts.
   \   00000F   E5A8         MOV     A,0xa8
   \   000011   FF           MOV     R7,A
   \   000012   C2AF         CLR     0xa8.7
    265          
    266            // Add timer
    267            newTimer = osalAddTimer( taskID, event_id, timeout_value );
   \   000014                ; Setup parameters for call to function osalAddTimer
   \   000014   78..         MOV     R0,#?V0 + 0
   \   000016   12....       LCALL   ?PUSH_XSTACK_I_FOUR
   \   000019   12....       LCALL   ??osalAddTimer?relay
   \   00001C   7404         MOV     A,#0x4
   \   00001E   12....       LCALL   ?DEALLOC_XSTACK8
   \   000021   8B..         MOV     ?V0 + 1,R3
   \   000023   A9..         MOV     R1,?V0 + 1
    268          
    269            HAL_EXIT_CRITICAL_SECTION( intState );   // Re-enable interrupts.
   \   000025   EF           MOV     A,R7
   \   000026   A2E7         MOV     C,0xE0 /* A   */.7
   \   000028   A2E7         MOV     C,0xE0 /* A   */.7
   \   00002A   92AF         MOV     0xa8.7,C
    270          
    271            return ( (newTimer != NULL) ? SUCCESS : NO_TIMER_AVAIL );
   \   00002C   EA           MOV     A,R2
   \   00002D   49           ORL     A,R1
   \   00002E   6004         JZ      ??osal_start_timerEx_0
   \   000030   7900         MOV     R1,#0x0
   \   000032   8002         SJMP    ??osal_start_timerEx_1
   \                     ??osal_start_timerEx_0:
   \   000034   7908         MOV     R1,#0x8
   \                     ??osal_start_timerEx_1:
   \   000036                REQUIRE ?Subroutine1
   \   000036                REQUIRE _A_IEN0
   \   000036                ; // Fall through to label ?Subroutine1
    272          }

   \                                 In  segment BANKED_CODE, align 1, keep-with-next
   \                     ?Subroutine1:
   \   000000   7F04         MOV     R7,#0x4
   \   000002   02....       LJMP    ?BANKED_LEAVE_XDATA
    273          
    274          /*********************************************************************
    275           * @fn      osal_start_reload_timer
    276           *
    277           * @brief
    278           *
    279           *   This function is called to start a timer to expire in n mSecs.
    280           *   When the timer expires, the calling task will get the specified event
    281           *   and the timer will be reloaded with the timeout value.
    282           *
    283           * @param   uint8 taskID - task id to set timer for
    284           * @param   uint16 event_id - event to be notified with
    285           * @param   UNINT16 timeout_value - in milliseconds.
    286           *
    287           * @return  SUCCESS, or NO_TIMER_AVAIL.
    288           */

   \                                 In  segment BANKED_CODE, align 1, keep-with-next
    289          uint8 osal_start_reload_timer( uint8 taskID, uint16 event_id, uint32 timeout_value )
   \                     osal_start_reload_timer:
    290          {
   \   000000   74F2         MOV     A,#-0xe
   \   000002   12....       LCALL   ?BANKED_ENTER_XDATA
   \   000005                ; Saved register size: 14
   \   000005                ; Auto size: 0
    291            halIntState_t intState;
    292            osalTimerRec_t *newTimer;
    293          
    294            HAL_ENTER_CRITICAL_SECTION( intState );  // Hold off interrupts.
   \   000005   A2AF         MOV     C,0xa8.7
   \   000007   E4           CLR     A
   \   000008   33           RLC     A
   \   000009   FF           MOV     R7,A
   \   00000A   C2AF         CLR     0xa8.7
   \   00000C   740E         MOV     A,#0xe
   \   00000E   12....       LCALL   ?XSTACK_DISP0_8
   \   000011   78..         MOV     R0,#?V0 + 0
   \   000013   12....       LCALL   ?L_MOV_X
    295          
    296            // Add timer
    297            newTimer = osalAddTimer( taskID, event_id, timeout_value );
   \   000016                ; Setup parameters for call to function osalAddTimer
   \   000016   78..         MOV     R0,#?V0 + 0
   \   000018   12....       LCALL   ?PUSH_XSTACK_I_FOUR
   \   00001B   12....       LCALL   ??osalAddTimer?relay
   \   00001E   7404         MOV     A,#0x4
   \   000020   12....       LCALL   ?DEALLOC_XSTACK8
    298            if ( newTimer )
   \   000023   EA           MOV     A,R2
   \   000024   4B           ORL     A,R3
   \   000025   6012         JZ      ??osal_start_reload_timer_0
    299            {
    300              // Load the reload timeout value
    301              newTimer->reloadTimeout = timeout_value;
   \   000027   8A82         MOV     DPL,R2
   \   000029   8B83         MOV     DPH,R3
   \   00002B   A3           INC     DPTR
   \   00002C   A3           INC     DPTR
   \   00002D   A3           INC     DPTR
   \   00002E   A3           INC     DPTR
   \   00002F   A3           INC     DPTR
   \   000030   A3           INC     DPTR
   \   000031   A3           INC     DPTR
   \   000032   A3           INC     DPTR
   \   000033   A3           INC     DPTR
   \   000034   78..         MOV     R0,#?V0 + 0
   \   000036   12....       LCALL   ?L_MOV_TO_X
    302            }
    303          
    304            HAL_EXIT_CRITICAL_SECTION( intState );   // Re-enable interrupts.
   \                     ??osal_start_reload_timer_0:
   \   000039   EF           MOV     A,R7
   \   00003A   A2E0         MOV     C,0xE0 /* A   */.0
   \   00003C   92AF         MOV     0xa8.7,C
    305          
    306            return ( (newTimer != NULL) ? SUCCESS : NO_TIMER_AVAIL );
   \   00003E   EA           MOV     A,R2
   \   00003F   4B           ORL     A,R3
   \   000040   6004         JZ      ??osal_start_reload_timer_1
   \   000042   7900         MOV     R1,#0x0
   \   000044   8002         SJMP    ??osal_start_reload_timer_2
   \                     ??osal_start_reload_timer_1:
   \   000046   7908         MOV     R1,#0x8
   \                     ??osal_start_reload_timer_2:
   \   000048                REQUIRE ?Subroutine2
   \   000048                REQUIRE _A_IEN0
   \   000048                ; // Fall through to label ?Subroutine2
    307          }

   \                                 In  segment BANKED_CODE, align 1, keep-with-next
   \                     ?Subroutine2:
   \   000000   7F06         MOV     R7,#0x6
   \   000002   02....       LJMP    ?BANKED_LEAVE_XDATA
    308          
    309          /*********************************************************************
    310           * @fn      osal_stop_timerEx
    311           *
    312           * @brief
    313           *
    314           *   This function is called to stop a timer that has already been started.
    315           *   If ZSUCCESS, the function will cancel the timer and prevent the event
    316           *   associated with the timer from being set for the calling task.
    317           *
    318           * @param   uint8 task_id - task id of timer to stop
    319           * @param   uint16 event_id - identifier of the timer that is to be stopped
    320           *
    321           * @return  SUCCESS or INVALID_EVENT_ID
    322           */

   \                                 In  segment BANKED_CODE, align 1, keep-with-next
    323          uint8 osal_stop_timerEx( uint8 task_id, uint16 event_id )
   \                     osal_stop_timerEx:
    324          {
   \   000000   74F4         MOV     A,#-0xc
   \   000002   12....       LCALL   ?BANKED_ENTER_XDATA
   \   000005                ; Saved register size: 12
   \   000005                ; Auto size: 0
    325            halIntState_t intState;
    326            osalTimerRec_t *foundTimer;
    327          
    328            HAL_ENTER_CRITICAL_SECTION( intState );  // Hold off interrupts.
   \   000005   A2AF         MOV     C,0xa8.7
   \   000007   E4           CLR     A
   \   000008   33           RLC     A
   \   000009   F5..         MOV     ?V0 + 1,A
   \   00000B   C2AF         CLR     0xa8.7
    329          
    330            // Find the timer to stop
    331            foundTimer = osalFindTimer( task_id, event_id );
   \   00000D                ; Setup parameters for call to function osalFindTimer
   \   00000D   12....       LCALL   ??osalFindTimer?relay
   \   000010   8A..         MOV     ?V0 + 2,R2
   \   000012   8B..         MOV     ?V0 + 3,R3
   \   000014   AE..         MOV     R6,?V0 + 2
   \   000016   AF..         MOV     R7,?V0 + 3
    332            if ( foundTimer )
   \   000018   EE           MOV     A,R6
   \   000019   4F           ORL     A,R7
   \   00001A   6003         JZ      ??osal_stop_timerEx_0
    333            {
    334              osalDeleteTimer( foundTimer );
   \   00001C                ; Setup parameters for call to function osalDeleteTimer
   \   00001C   12....       LCALL   ??osalDeleteTimer?relay
    335            }
    336          
    337            HAL_EXIT_CRITICAL_SECTION( intState );   // Re-enable interrupts.
   \                     ??osal_stop_timerEx_0:
   \   00001F   E5..         MOV     A,?V0 + 1
   \   000021   A2E0         MOV     C,0xE0 /* A   */.0
   \   000023   92AF         MOV     0xa8.7,C
    338          
    339            return ( (foundTimer != NULL) ? SUCCESS : INVALID_EVENT_ID );
   \   000025   EE           MOV     A,R6
   \   000026   4F           ORL     A,R7
   \   000027   6004         JZ      ??osal_stop_timerEx_1
   \   000029   7900         MOV     R1,#0x0
   \   00002B   8002         SJMP    ??osal_stop_timerEx_2
   \                     ??osal_stop_timerEx_1:
   \   00002D   7906         MOV     R1,#0x6
   \                     ??osal_stop_timerEx_2:
   \   00002F   02....       LJMP    ?Subroutine1 & 0xFFFF
   \   000032                REQUIRE _A_IEN0
    340          }
    341          
    342          /*********************************************************************
    343           * @fn      osal_get_timeoutEx
    344           *
    345           * @brief
    346           *
    347           * @param   uint8 task_id - task id of timer to check
    348           * @param   uint16 event_id - identifier of timer to be checked
    349           *
    350           * @return  Return the timer's tick count if found, zero otherwise.
    351           */

   \                                 In  segment BANKED_CODE, align 1, keep-with-next
    352          uint32 osal_get_timeoutEx( uint8 task_id, uint16 event_id )
   \                     osal_get_timeoutEx:
    353          {
   \   000000   74F2         MOV     A,#-0xe
   \   000002   12....       LCALL   ?BANKED_ENTER_XDATA
   \   000005                ; Saved register size: 14
   \   000005                ; Auto size: 0
    354            halIntState_t intState;
    355            uint32 rtrn = 0;
   \   000005   75..00       MOV     ?V0 + 0,#0x0
   \   000008   75..00       MOV     ?V0 + 1,#0x0
   \   00000B   75..00       MOV     ?V0 + 2,#0x0
   \   00000E   75..00       MOV     ?V0 + 3,#0x0
    356            osalTimerRec_t *tmr;
    357          
    358            HAL_ENTER_CRITICAL_SECTION( intState );  // Hold off interrupts.
   \   000011   A2AF         MOV     C,0xa8.7
   \   000013   E4           CLR     A
   \   000014   33           RLC     A
   \   000015   FF           MOV     R7,A
   \   000016   C2AF         CLR     0xa8.7
    359          
    360            tmr = osalFindTimer( task_id, event_id );
   \   000018                ; Setup parameters for call to function osalFindTimer
   \   000018   12....       LCALL   ??osalFindTimer?relay
   \   00001B   8A82         MOV     DPL,R2
   \   00001D   8B83         MOV     DPH,R3
    361          
    362            if ( tmr )
   \   00001F   E582         MOV     A,DPL
   \   000021   4583         ORL     A,DPH
   \   000023   6007         JZ      ??osal_get_timeoutEx_0
    363            {
    364              rtrn = tmr->timeout.time32;
   \   000025   A3           INC     DPTR
   \   000026   A3           INC     DPTR
   \   000027   78..         MOV     R0,#?V0 + 0
   \   000029   12....       LCALL   ?L_MOV_X
    365            }
    366          
    367            HAL_EXIT_CRITICAL_SECTION( intState );   // Re-enable interrupts.
   \                     ??osal_get_timeoutEx_0:
   \   00002C   EF           MOV     A,R7
   \   00002D   A2E0         MOV     C,0xE0 /* A   */.0
   \   00002F   92AF         MOV     0xa8.7,C
    368          
    369            return rtrn;
   \   000031   AA..         MOV     R2,?V0 + 0
   \   000033   AB..         MOV     R3,?V0 + 1
   \   000035   AC..         MOV     R4,?V0 + 2
   \   000037   AD..         MOV     R5,?V0 + 3
   \   000039   80..         SJMP    ?Subroutine2
   \   00003B                REQUIRE _A_IEN0
    370          }
    371          
    372          /*********************************************************************
    373           * @fn      osal_timer_num_active
    374           *
    375           * @brief
    376           *
    377           *   This function counts the number of active timers.
    378           *
    379           * @return  uint8 - number of timers
    380           */

   \                                 In  segment BANKED_CODE, align 1, keep-with-next
    381          uint8 osal_timer_num_active( void )
   \                     osal_timer_num_active:
    382          {
   \   000000   C082         PUSH    DPL
   \   000002   C083         PUSH    DPH
   \   000004                ; Saved register size: 2
   \   000004                ; Auto size: 0
    383            halIntState_t intState;
    384            uint8 num_timers = 0;
   \   000004   7900         MOV     R1,#0x0
    385            osalTimerRec_t *srchTimer;
    386          
    387            HAL_ENTER_CRITICAL_SECTION( intState );  // Hold off interrupts.
   \   000006   A2AF         MOV     C,0xa8.7
   \   000008   E4           CLR     A
   \   000009   33           RLC     A
   \   00000A   F8           MOV     R0,A
   \   00000B   C2AF         CLR     0xa8.7
    388          
    389            // Head of the timer list
    390            srchTimer = timerHead;
   \   00000D   90....       MOV     DPTR,#timerHead
   \   000010   8001         SJMP    ??osal_timer_num_active_0
    391          
    392            // Count timers in the list
    393            while ( srchTimer != NULL )
    394            {
    395              num_timers++;
   \                     ??osal_timer_num_active_1:
   \   000012   09           INC     R1
    396              srchTimer = srchTimer->next;
   \                     ??osal_timer_num_active_0:
   \   000013   E0           MOVX    A,@DPTR
   \   000014   FA           MOV     R2,A
   \   000015   A3           INC     DPTR
   \   000016   E0           MOVX    A,@DPTR
   \   000017   FB           MOV     R3,A
   \   000018   8A82         MOV     DPL,R2
   \   00001A   8B83         MOV     DPH,R3
    397            }
   \   00001C   E582         MOV     A,DPL
   \   00001E   4583         ORL     A,DPH
   \   000020   70F0         JNZ     ??osal_timer_num_active_1
    398          
    399            HAL_EXIT_CRITICAL_SECTION( intState );   // Re-enable interrupts.
   \   000022   E8           MOV     A,R0
   \   000023   A2E0         MOV     C,0xE0 /* A   */.0
   \   000025   92AF         MOV     0xa8.7,C
    400          
    401            return num_timers;
   \   000027                REQUIRE ?Subroutine0
   \   000027                REQUIRE _A_IEN0
   \   000027                ; // Fall through to label ?Subroutine0
    402          }
    403          
    404          /*********************************************************************
    405           * @fn      osalTimerUpdate
    406           *
    407           * @brief   Update the timer structures for a timer tick.
    408           *
    409           * @param   none
    410           *
    411           * @return  none
    412           *********************************************************************/

   \                                 In  segment BANKED_CODE, align 1, keep-with-next
    413          void osalTimerUpdate( uint32 updateTime )
   \                     osalTimerUpdate:
    414          {
   \   000000   74E8         MOV     A,#-0x18
   \   000002   12....       LCALL   ?BANKED_ENTER_XDATA
   \   000005                ; Saved register size: 24
   \   000005                ; Auto size: 5
   \   000005   74FB         MOV     A,#-0x5
   \   000007   12....       LCALL   ?ALLOC_XSTACK8
   \   00000A   8A..         MOV     ?V0 + 0,R2
   \   00000C   8B..         MOV     ?V0 + 1,R3
   \   00000E   8C..         MOV     ?V0 + 2,R4
   \   000010   8D..         MOV     ?V0 + 3,R5
    415            halIntState_t intState;
    416            osalTimerRec_t *srchTimer;
    417            osalTimerRec_t *prevTimer;
    418          
    419            osalTime_t timeUnion;
    420            timeUnion.time32 = updateTime;
   \   000012   7401         MOV     A,#0x1
   \   000014   12....       LCALL   ?XSTACK_DISP0_8
   \   000017   78..         MOV     R0,#?V0 + 0
   \   000019   12....       LCALL   ?L_MOV_TO_X
    421          
    422            HAL_ENTER_CRITICAL_SECTION( intState );  // Hold off interrupts.
   \   00001C   E5A8         MOV     A,0xa8
   \   00001E   F9           MOV     R1,A
   \   00001F   C2AF         CLR     0xa8.7
    423            // Update the system time
    424            osal_systemClock += updateTime;
   \   000021   90....       MOV     DPTR,#osal_systemClock
   \   000024   78..         MOV     R0,#?V0 + 0
   \   000026   12....       LCALL   ?L_ADD_TO_X
    425            HAL_EXIT_CRITICAL_SECTION( intState );   // Re-enable interrupts.
   \   000029   E9           MOV     A,R1
   \   00002A   A2E7         MOV     C,0xE0 /* A   */.7
   \   00002C   A2E7         MOV     C,0xE0 /* A   */.7
   \   00002E   92AF         MOV     0xa8.7,C
    426          
    427            // Look for open timer slot
    428            if ( timerHead != NULL )
   \   000030   90....       MOV     DPTR,#timerHead
   \   000033   12....       LCALL   ??Subroutine4_0 & 0xFFFF
   \                     ??CrossCallReturnLabel_2:
   \   000036   7003         JNZ     $+5
   \   000038   02....       LJMP    ??osalTimerUpdate_0 & 0xFFFF
    429            {
    430              // Add it to the end of the timer list
    431              srchTimer = timerHead;
   \   00003B   90....       MOV     DPTR,#timerHead
   \   00003E   E0           MOVX    A,@DPTR
   \   00003F   FE           MOV     R6,A
   \   000040   A3           INC     DPTR
   \   000041   E0           MOVX    A,@DPTR
   \   000042   FF           MOV     R7,A
    432              prevTimer = (void *)NULL;
   \   000043   75..00       MOV     ?V0 + 14,#0x0
   \   000046   75..00       MOV     ?V0 + 15,#0x0
    433          
    434              // Look for open timer slot
    435              while ( srchTimer )
    436              {
    437                osalTimerRec_t *freeTimer = NULL;
   \                     ??osalTimerUpdate_1:
   \   000049   75..00       MOV     ?V0 + 0,#0x0
   \   00004C   75..00       MOV     ?V0 + 1,#0x0
    438          
    439                HAL_ENTER_CRITICAL_SECTION( intState );  // Hold off interrupts.
   \   00004F   A2AF         MOV     C,0xa8.7
   \   000051   E4           CLR     A
   \   000052   33           RLC     A
   \   000053   85..82       MOV     DPL,?XSP + 0
   \   000056   85..83       MOV     DPH,?XSP + 1
   \   000059   F0           MOVX    @DPTR,A
   \   00005A   C2AF         CLR     0xa8.7
    440          
    441                // To minimize time in this critical section, avoid 32-bit math
    442                if ((timeUnion.time16[1] == 0) && (timeUnion.time8[1] == 0))
   \   00005C   EE           MOV     A,R6
   \   00005D   2402         ADD     A,#0x2
   \   00005F   F5..         MOV     ?V0 + 12,A
   \   000061   EF           MOV     A,R7
   \   000062   3400         ADDC    A,#0x0
   \   000064   F5..         MOV     ?V0 + 13,A
   \   000066   EE           MOV     A,R6
   \   000067   2402         ADD     A,#0x2
   \   000069   F5..         MOV     ?V0 + 8,A
   \   00006B   EF           MOV     A,R7
   \   00006C   3400         ADDC    A,#0x0
   \   00006E   F5..         MOV     ?V0 + 9,A
   \   000070   7403         MOV     A,#0x3
   \   000072   12....       LCALL   ?XSTACK_DISP0_8
   \   000075   12....       LCALL   ??Subroutine4_0 & 0xFFFF
   \                     ??CrossCallReturnLabel_3:
   \   000078   701F         JNZ     ??osalTimerUpdate_2
   \   00007A   7402         MOV     A,#0x2
   \   00007C   12....       LCALL   ?XSTACK_DISP0_8
   \   00007F   E0           MOVX    A,@DPTR
   \   000080   7017         JNZ     ??osalTimerUpdate_2
    443                {
    444                  // If upper 24 bits are zero, check lower 8 bits for roll over
    445                  if (srchTimer->timeout.time8[0] >= timeUnion.time8[0])
   \   000082   7401         MOV     A,#0x1
   \   000084   12....       LCALL   ?XSTACK_DISP0_8
   \   000087   E0           MOVX    A,@DPTR
   \   000088   F8           MOV     R0,A
   \   000089   85..82       MOV     DPL,?V0 + 8
   \   00008C   85..83       MOV     DPH,?V0 + 9
   \   00008F   E0           MOVX    A,@DPTR
   \   000090   C3           CLR     C
   \   000091   98           SUBB    A,R0
   \   000092   4005         JC      ??osalTimerUpdate_2
    446                  {
    447                    // 8-bit math
    448                    srchTimer->timeout.time8[0] -= timeUnion.time8[0];
   \   000094   E0           MOVX    A,@DPTR
   \   000095   C3           CLR     C
   \   000096   98           SUBB    A,R0
   \   000097   803B         SJMP    ??osalTimerUpdate_3
    449                  }
    450                  else
    451                  {
    452                    // 32-bit math
    453                    if (srchTimer->timeout.time32 > timeUnion.time32)
    454                    {
    455                      srchTimer->timeout.time32 -= timeUnion.time32;
    456                    }
    457                    else
    458                    {
    459                      srchTimer->timeout.time32 = 0;
    460                    }
    461                  }
    462                }
    463                else
    464                {
    465                    // 32-bit math
    466                  if (srchTimer->timeout.time32 > timeUnion.time32)
   \                     ??osalTimerUpdate_2:
   \   000099   85..82       MOV     DPL,?V0 + 12
   \   00009C   85..83       MOV     DPH,?V0 + 13
   \   00009F   78..         MOV     R0,#?V0 + 4
   \   0000A1   12....       LCALL   ?L_MOV_X
   \   0000A4   7401         MOV     A,#0x1
   \   0000A6   12....       LCALL   ?XSTACK_DISP0_8
   \   0000A9   78..         MOV     R0,#?V0 + 4
   \   0000AB   12....       LCALL   ?UL_GT_X
   \   0000AE   5017         JNC     ??osalTimerUpdate_4
    467                  {
    468                    srchTimer->timeout.time32 -= timeUnion.time32;
   \   0000B0   7401         MOV     A,#0x1
   \   0000B2   12....       LCALL   ?XSTACK_DISP0_8
   \   0000B5   78..         MOV     R0,#?V0 + 4
   \   0000B7   12....       LCALL   ?L_MOV_X
   \   0000BA   85..82       MOV     DPL,?V0 + 12
   \   0000BD   85..83       MOV     DPH,?V0 + 13
   \   0000C0   78..         MOV     R0,#?V0 + 4
   \   0000C2   12....       LCALL   ?L_SUB_FROM_X
   \   0000C5   800E         SJMP    ??osalTimerUpdate_5
    469                  }
    470                  else
    471                  {
    472                    srchTimer->timeout.time32 = 0;
   \                     ??osalTimerUpdate_4:
   \   0000C7   85..82       MOV     DPL,?V0 + 12
   \   0000CA   85..83       MOV     DPH,?V0 + 13
   \   0000CD   E4           CLR     A
   \   0000CE   F0           MOVX    @DPTR,A
   \   0000CF   A3           INC     DPTR
   \   0000D0   F0           MOVX    @DPTR,A
   \   0000D1   A3           INC     DPTR
   \   0000D2   F0           MOVX    @DPTR,A
   \   0000D3   A3           INC     DPTR
   \                     ??osalTimerUpdate_3:
   \   0000D4   F0           MOVX    @DPTR,A
   \                     ??osalTimerUpdate_5:
   \   0000D5   EE           MOV     A,R6
   \   0000D6   2404         ADD     A,#0x4
   \   0000D8   F5..         MOV     ?V0 + 10,A
   \   0000DA   EF           MOV     A,R7
   \   0000DB   3400         ADDC    A,#0x0
   \   0000DD   F5..         MOV     ?V0 + 11,A
    473                  }
    474                }
   \   0000DF   12....       LCALL   ?Subroutine3 & 0xFFFF
   \                     ??CrossCallReturnLabel_9:
   \   0000E2   705F         JNZ     ??osalTimerUpdate_6
   \   0000E4   85..82       MOV     DPL,?V0 + 10
   \   0000E7   85..83       MOV     DPH,?V0 + 11
   \   0000EA   12....       LCALL   ??Subroutine4_0 & 0xFFFF
   \                     ??CrossCallReturnLabel_4:
   \   0000ED   7059         JNZ     ??osalTimerUpdate_7
   \   0000EF   EE           MOV     A,R6
   \   0000F0   2409         ADD     A,#0x9
   \   0000F2   F5..         MOV     ?V0 + 2,A
   \   0000F4   EF           MOV     A,R7
   \   0000F5   3400         ADDC    A,#0x0
   \   0000F7   F5..         MOV     ?V0 + 3,A
   \   0000F9   85..82       MOV     DPL,?V0 + 2
   \   0000FC   F583         MOV     DPH,A
   \   0000FE   78..         MOV     R0,#?V0 + 4
   \   000100   12....       LCALL   ?L_MOV_X
   \   000103   E5..         MOV     A,?V0 + 4
   \   000105   45..         ORL     A,?V0 + 5
   \   000107   45..         ORL     A,?V0 + 6
   \   000109   45..         ORL     A,?V0 + 7
   \   00010B   6055         JZ      ??osalTimerUpdate_8
   \   00010D   8E82         MOV     DPL,R6
   \   00010F   8F83         MOV     DPH,R7
   \   000111   A3           INC     DPTR
   \   000112   A3           INC     DPTR
   \   000113   A3           INC     DPTR
   \   000114   A3           INC     DPTR
   \   000115   A3           INC     DPTR
   \   000116   A3           INC     DPTR
   \   000117   E0           MOVX    A,@DPTR
   \   000118   FA           MOV     R2,A
   \   000119   A3           INC     DPTR
   \   00011A   E0           MOVX    A,@DPTR
   \   00011B   FB           MOV     R3,A
   \   00011C   EA           MOV     A,R2
   \   00011D   4B           ORL     A,R3
   \   00011E   6042         JZ      ??osalTimerUpdate_8
    475          
    476                // Check for reloading
    477                if ( (srchTimer->timeout.time16[0] == 0) && (srchTimer->timeout.time16[1] == 0) &&
    478                     (srchTimer->reloadTimeout) && (srchTimer->event_flag) )
    479                {
    480                  // Notify the task of a timeout
    481                  osal_set_event( srchTimer->task_id, srchTimer->event_flag );
   \   000120                ; Setup parameters for call to function osal_set_event
   \   000120   8E82         MOV     DPL,R6
   \   000122   8F83         MOV     DPH,R7
   \   000124   A3           INC     DPTR
   \   000125   A3           INC     DPTR
   \   000126   A3           INC     DPTR
   \   000127   A3           INC     DPTR
   \   000128   A3           INC     DPTR
   \   000129   A3           INC     DPTR
   \   00012A   A3           INC     DPTR
   \   00012B   A3           INC     DPTR
   \   00012C   E0           MOVX    A,@DPTR
   \   00012D   F9           MOV     R1,A
   \   00012E   12....       LCALL   ??osal_set_event?relay
    482          
    483                  // Reload the timer timeout value
    484                  srchTimer->timeout.time32 = srchTimer->reloadTimeout;
   \   000131   85..82       MOV     DPL,?V0 + 2
   \   000134   85..83       MOV     DPH,?V0 + 3
   \   000137   12....       LCALL   ?XLOAD_R2345
   \   00013A   85..82       MOV     DPL,?V0 + 12
   \   00013D   85..83       MOV     DPH,?V0 + 13
   \   000140   12....       LCALL   ?XSTORE_R2345
    485                }
    486          
    487                // When timeout or delete (event_flag == 0)
    488                if ( ((srchTimer->timeout.time16[0] == 0) && (srchTimer->timeout.time16[1] == 0)) ||
    489                      (srchTimer->event_flag == 0) )
   \                     ??osalTimerUpdate_6:
   \   000143   12....       LCALL   ?Subroutine3 & 0xFFFF
   \                     ??CrossCallReturnLabel_10:
   \   000146   700B         JNZ     ??osalTimerUpdate_9
   \                     ??osalTimerUpdate_7:
   \   000148   85..82       MOV     DPL,?V0 + 10
   \   00014B   85..83       MOV     DPH,?V0 + 11
   \   00014E   12....       LCALL   ??Subroutine4_0 & 0xFFFF
   \                     ??CrossCallReturnLabel_5:
   \   000151   600F         JZ      ??osalTimerUpdate_8
   \                     ??osalTimerUpdate_9:
   \   000153   8E82         MOV     DPL,R6
   \   000155   8F83         MOV     DPH,R7
   \   000157   A3           INC     DPTR
   \   000158   A3           INC     DPTR
   \   000159   A3           INC     DPTR
   \   00015A   A3           INC     DPTR
   \   00015B   A3           INC     DPTR
   \   00015C   A3           INC     DPTR
   \   00015D   12....       LCALL   ??Subroutine4_0 & 0xFFFF
   \                     ??CrossCallReturnLabel_6:
   \   000160   7025         JNZ     ??osalTimerUpdate_10
    490                {
    491                  // Take out of list
    492                  if ( prevTimer == NULL )
   \                     ??osalTimerUpdate_8:
   \   000162   8E82         MOV     DPL,R6
   \   000164   8F83         MOV     DPH,R7
   \   000166   E0           MOVX    A,@DPTR
   \   000167   F8           MOV     R0,A
   \   000168   A3           INC     DPTR
   \   000169   E0           MOVX    A,@DPTR
   \   00016A   F9           MOV     R1,A
   \   00016B   E5..         MOV     A,?V0 + 14
   \   00016D   45..         ORL     A,?V0 + 15
   \   00016F   7005         JNZ     ??osalTimerUpdate_11
    493                  {
    494                    timerHead = srchTimer->next;
   \   000171   90....       MOV     DPTR,#timerHead
   \   000174   8006         SJMP    ??osalTimerUpdate_12
    495                  }
    496                  else
    497                  {
    498                    prevTimer->next = srchTimer->next;
   \                     ??osalTimerUpdate_11:
   \   000176   85..82       MOV     DPL,?V0 + 14
   \   000179   85..83       MOV     DPH,?V0 + 15
   \                     ??osalTimerUpdate_12:
   \   00017C   E8           MOV     A,R0
   \   00017D   F0           MOVX    @DPTR,A
   \   00017E   A3           INC     DPTR
   \   00017F   E9           MOV     A,R1
   \   000180   F0           MOVX    @DPTR,A
    499                  }
    500          
    501                  // Setup to free memory
    502                  freeTimer = srchTimer;
   \   000181   8E..         MOV     ?V0 + 0,R6
   \   000183   8F..         MOV     ?V0 + 1,R7
    503          
    504                  // Next
    505                  srchTimer = srchTimer->next;
   \   000185   8004         SJMP    ??osalTimerUpdate_13
    506                }
    507                else
    508                {
    509                  // Get next
    510                  prevTimer = srchTimer;
   \                     ??osalTimerUpdate_10:
   \   000187   8E..         MOV     ?V0 + 14,R6
   \   000189   8F..         MOV     ?V0 + 15,R7
    511                  srchTimer = srchTimer->next;
   \                     ??osalTimerUpdate_13:
   \   00018B   8E82         MOV     DPL,R6
   \   00018D   8F83         MOV     DPH,R7
   \   00018F   E0           MOVX    A,@DPTR
   \   000190   FE           MOV     R6,A
   \   000191   A3           INC     DPTR
   \   000192   E0           MOVX    A,@DPTR
   \   000193   FF           MOV     R7,A
    512                }
    513          
    514                HAL_EXIT_CRITICAL_SECTION( intState );   // Re-enable interrupts.
   \   000194   85..82       MOV     DPL,?XSP + 0
   \   000197   85..83       MOV     DPH,?XSP + 1
   \   00019A   E0           MOVX    A,@DPTR
   \   00019B   A2E0         MOV     C,0xE0 /* A   */.0
   \   00019D   92AF         MOV     0xa8.7,C
    515          
    516                if ( freeTimer )
   \   00019F   E5..         MOV     A,?V0 + 0
   \   0001A1   45..         ORL     A,?V0 + 1
   \   0001A3   6047         JZ      ??osalTimerUpdate_14
    517                {
    518                  if ( (freeTimer->timeout.time16[0] == 0) && (freeTimer->timeout.time16[1] == 0) )
   \   0001A5   85..82       MOV     DPL,?V0 + 0
   \   0001A8   85..83       MOV     DPH,?V0 + 1
   \   0001AB   A3           INC     DPTR
   \   0001AC   A3           INC     DPTR
   \   0001AD   12....       LCALL   ??Subroutine4_0 & 0xFFFF
   \                     ??CrossCallReturnLabel_7:
   \   0001B0   7033         JNZ     ??osalTimerUpdate_15
   \   0001B2   85..82       MOV     DPL,?V0 + 0
   \   0001B5   85..83       MOV     DPH,?V0 + 1
   \   0001B8   A3           INC     DPTR
   \   0001B9   A3           INC     DPTR
   \   0001BA   A3           INC     DPTR
   \   0001BB   A3           INC     DPTR
   \   0001BC   12....       LCALL   ??Subroutine4_0 & 0xFFFF
   \                     ??CrossCallReturnLabel_8:
   \   0001BF   7024         JNZ     ??osalTimerUpdate_15
    519                  {
    520                    osal_set_event( freeTimer->task_id, freeTimer->event_flag );
   \   0001C1                ; Setup parameters for call to function osal_set_event
   \   0001C1   85..82       MOV     DPL,?V0 + 0
   \   0001C4   85..83       MOV     DPH,?V0 + 1
   \   0001C7   A3           INC     DPTR
   \   0001C8   A3           INC     DPTR
   \   0001C9   A3           INC     DPTR
   \   0001CA   A3           INC     DPTR
   \   0001CB   A3           INC     DPTR
   \   0001CC   A3           INC     DPTR
   \   0001CD   E0           MOVX    A,@DPTR
   \   0001CE   FA           MOV     R2,A
   \   0001CF   A3           INC     DPTR
   \   0001D0   E0           MOVX    A,@DPTR
   \   0001D1   FB           MOV     R3,A
   \   0001D2   85..82       MOV     DPL,?V0 + 0
   \   0001D5   85..83       MOV     DPH,?V0 + 1
   \   0001D8   A3           INC     DPTR
   \   0001D9   A3           INC     DPTR
   \   0001DA   A3           INC     DPTR
   \   0001DB   A3           INC     DPTR
   \   0001DC   A3           INC     DPTR
   \   0001DD   A3           INC     DPTR
   \   0001DE   A3           INC     DPTR
   \   0001DF   A3           INC     DPTR
   \   0001E0   E0           MOVX    A,@DPTR
   \   0001E1   F9           MOV     R1,A
   \   0001E2   12....       LCALL   ??osal_set_event?relay
    521                  }
    522                  osal_mem_free( freeTimer );
   \                     ??osalTimerUpdate_15:
   \   0001E5                ; Setup parameters for call to function osal_mem_free
   \   0001E5   AA..         MOV     R2,?V0 + 0
   \   0001E7   AB..         MOV     R3,?V0 + 1
   \   0001E9   12....       LCALL   ??osal_mem_free?relay
    523                }
    524              }
   \                     ??osalTimerUpdate_14:
   \   0001EC   EE           MOV     A,R6
   \   0001ED   4F           ORL     A,R7
   \   0001EE   6003         JZ      $+5
   \   0001F0   02....       LJMP    ??osalTimerUpdate_1 & 0xFFFF
    525            }
    526          }
   \                     ??osalTimerUpdate_0:
   \   0001F3   7405         MOV     A,#0x5
   \   0001F5   12....       LCALL   ?DEALLOC_XSTACK8
   \   0001F8   7F10         MOV     R7,#0x10
   \   0001FA   02....       LJMP    ?BANKED_LEAVE_XDATA
   \   0001FD                REQUIRE _A_IEN0

   \                                 In  segment BANKED_CODE, align 1, keep-with-next
   \                     ?Subroutine3:
   \   000000   85..82       MOV     DPL,?V0 + 8
   \   000003   85..83       MOV     DPH,?V0 + 9
   \   000006                REQUIRE ??Subroutine4_0
   \   000006                ; // Fall through to label ??Subroutine4_0
    527          
    528          #ifdef POWER_SAVING
    529          /*********************************************************************
    530           * @fn      osal_adjust_timers
    531           *
    532           * @brief   Update the timer structures for elapsed ticks.
    533           *
    534           * @param   none
    535           *
    536           * @return  none
    537           *********************************************************************/
    538          void osal_adjust_timers( void )
    539          {
    540            uint32 eTime;
    541          
    542            if ( timerHead != NULL )
    543            {
    544              // Compute elapsed time (msec)
    545              eTime = TimerElapsed() / TICK_COUNT;
    546          
    547              if ( eTime )
    548              {
    549                osalTimerUpdate( eTime );
    550              }
    551            }
    552          }
    553          
    554          /*********************************************************************
    555           * @fn      osal_next_timeout
    556           *
    557           * @brief
    558           *
    559           *   Search timer table to return the lowest timeout value. If the
    560           *   timer list is empty, then the returned timeout will be zero.
    561           *
    562           * @param   none
    563           *
    564           * @return  none
    565           *********************************************************************/
    566          uint32 osal_next_timeout( void )
    567          {
    568            uint32 nextTimeout;
    569            osalTimerRec_t *srchTimer;
    570          
    571            if ( timerHead != NULL )
    572            {
    573              // Head of the timer list
    574              srchTimer = timerHead;
    575              nextTimeout = OSAL_TIMERS_MAX_TIMEOUT;
    576          
    577              // Look for the next timeout timer
    578              while ( srchTimer != NULL )
    579              {
    580                if (srchTimer->timeout.time32 < nextTimeout)
    581                {
    582                  nextTimeout = srchTimer->timeout.time32;
    583                }
    584                // Check next timer
    585                srchTimer = srchTimer->next;
    586              }
    587            }
    588            else
    589            {
    590              // No timers
    591              nextTimeout = 0;
    592            }
    593          
    594            return ( nextTimeout );
    595          }
    596          #endif // POWER_SAVING
    597          
    598          /*********************************************************************
    599           * @fn      osal_GetSystemClock()
    600           *
    601           * @brief   Read the local system clock.
    602           *
    603           * @param   none
    604           *
    605           * @return  local clock in milliseconds
    606           */

   \                                 In  segment BANKED_CODE, align 1, keep-with-next
    607          uint32 osal_GetSystemClock( void )
   \                     osal_GetSystemClock:
    608          {
   \   000000   C082         PUSH    DPL
   \   000002   C083         PUSH    DPH
   \   000004                ; Saved register size: 2
   \   000004                ; Auto size: 0
    609            return ( osal_systemClock );
   \   000004   90....       MOV     DPTR,#osal_systemClock
   \   000007   12....       LCALL   ?XLOAD_R2345
   \   00000A   02....       LJMP    ?Subroutine0 & 0xFFFF
    610          }

   \                                 In  segment BANK_RELAYS, align 1
   \                     ??osalTimerInit?relay:
   \   000000   12....       LCALL   ?BDISPATCH
   \   000003   ......       DC24    osalTimerInit

   \                                 In  segment BANK_RELAYS, align 1
   \                     ??osalAddTimer?relay:
   \   000000   12....       LCALL   ?BDISPATCH
   \   000003   ......       DC24    osalAddTimer

   \                                 In  segment BANK_RELAYS, align 1
   \                     ??osalFindTimer?relay:
   \   000000   12....       LCALL   ?BDISPATCH
   \   000003   ......       DC24    osalFindTimer

   \                                 In  segment BANK_RELAYS, align 1
   \                     ??osalDeleteTimer?relay:
   \   000000   12....       LCALL   ?BDISPATCH
   \   000003   ......       DC24    osalDeleteTimer

   \                                 In  segment BANK_RELAYS, align 1
   \                     ??osal_start_timerEx?relay:
   \   000000   12....       LCALL   ?BDISPATCH
   \   000003   ......       DC24    osal_start_timerEx

   \                                 In  segment BANK_RELAYS, align 1
   \                     ??osal_start_reload_timer?relay:
   \   000000   12....       LCALL   ?BDISPATCH
   \   000003   ......       DC24    osal_start_reload_timer

   \                                 In  segment BANK_RELAYS, align 1
   \                     ??osal_stop_timerEx?relay:
   \   000000   12....       LCALL   ?BDISPATCH
   \   000003   ......       DC24    osal_stop_timerEx

   \                                 In  segment BANK_RELAYS, align 1
   \                     ??osal_get_timeoutEx?relay:
   \   000000   12....       LCALL   ?BDISPATCH
   \   000003   ......       DC24    osal_get_timeoutEx

   \                                 In  segment BANK_RELAYS, align 1
   \                     ??osal_timer_num_active?relay:
   \   000000   12....       LCALL   ?BDISPATCH
   \   000003   ......       DC24    osal_timer_num_active

   \                                 In  segment BANK_RELAYS, align 1
   \                     ??osalTimerUpdate?relay:
   \   000000   12....       LCALL   ?BDISPATCH
   \   000003   ......       DC24    osalTimerUpdate

   \                                 In  segment BANK_RELAYS, align 1
   \                     ??osal_GetSystemClock?relay:
   \   000000   12....       LCALL   ?BDISPATCH
   \   000003   ......       DC24    osal_GetSystemClock
    611          
    612          /*********************************************************************
    613          *********************************************************************/

   Maximum stack usage in bytes:

   ISTACK PSTACK XSTACK Function
   ------ ------ ------ --------
       1      0     34  osalAddTimer
                          0 0 16 -> osalFindTimer
                          0 0 16 -> osal_mem_alloc
       2      0     12  osalDeleteTimer
       2      0     16  osalFindTimer
       0      0      9  osalTimerInit
       1      0     29  osalTimerUpdate
                          0 0 29 -> osal_mem_free
                          0 0 29 -> osal_set_event
       2      0      0  osal_GetSystemClock
       0      0     14  osal_get_timeoutEx
                          0 0 14 -> osalFindTimer
       0      0     22  osal_start_reload_timer
                          0 0 18 -> osalAddTimer
       0      0     20  osal_start_timerEx
                          0 0 16 -> osalAddTimer
       0      0     12  osal_stop_timerEx
                          0 0 12 -> osalDeleteTimer
                          0 0 12 -> osalFindTimer
       2      0      0  osal_timer_num_active


   Segment part sizes:

   Bytes  Function/Label
   -----  --------------
       8  ??Subroutine4_0
       6  ??osalAddTimer?relay
       6  ??osalDeleteTimer?relay
       6  ??osalFindTimer?relay
       6  ??osalTimerInit?relay
       6  ??osalTimerUpdate?relay
       6  ??osal_GetSystemClock?relay
       6  ??osal_get_timeoutEx?relay
       6  ??osal_start_reload_timer?relay
       6  ??osal_start_timerEx?relay
       6  ??osal_stop_timerEx?relay
       6  ??osal_timer_num_active?relay
       7  ?Subroutine0
       5  ?Subroutine1
       5  ?Subroutine2
       6  ?Subroutine3
       1  _A_IEN0
     179  osalAddTimer
      25  osalDeleteTimer
      64  osalFindTimer
      21  osalTimerInit
     509  osalTimerUpdate
      13  osal_GetSystemClock
      59  osal_get_timeoutEx
      72  osal_start_reload_timer
      54  osal_start_timerEx
      50  osal_stop_timerEx
       4  osal_systemClock
      39  osal_timer_num_active
       2  timerHead

 
 1 116 bytes in segment BANKED_CODE
    66 bytes in segment BANK_RELAYS
     1 byte  in segment SFR_AN
     6 bytes in segment XDATA_Z
 
 1 182 bytes of CODE  memory
     0 bytes of DATA  memory (+ 1 byte shared)
     6 bytes of XDATA memory

Errors: none
Warnings: none
