///////////////////////////////////////////////////////////////////////////////
//                                                                            /
// IAR C/C++ Compiler V8.20.2.41139 for 8051            29/May/2014  14:59:41 /
// Copyright 2004-2013 IAR Systems AB.                                        /
//                                                                            /
//    Core               =  plain                                             /
//    Code model         =  banked                                            /
//    Data model         =  large                                             /
//    Calling convention =  xdata reentrant                                   /
//    Constant location  =  data_rom                                          /
//    Dptr setup         =  1,16                                              /
//                                                                            /
//    Source file        =  D:\Texas Instruments\Z-Stack Lighting             /
//                          1.0.2\Components\stack\zcl\zcl_general.c          /
//    Command line       =  -f "D:\Texas Instruments\Z-Stack Lighting         /
//                          1.0.2\Projects\zstack\ZLL\SampleApp\CC253x\..\..\ /
//                          ..\Tools\CC2530DB\f8wRouter.cfg" (-DCPU32MHZ      /
//                          -DROOT=__near_func -DMAC_CFG_APP_PENDING_QUEUE=TR /
//                          UE -DMAC_CFG_TX_DATA_MAX=5 -DMAC_CFG_TX_MAX=8     /
//                          -DMAC_CFG_RX_MAX=5 -DRTR_NWK) -f "D:\Texas        /
//                          Instruments\Z-Stack Lighting                      /
//                          1.0.2\Projects\zstack\ZLL\SampleApp\CC253x\..\..\ /
//                          ..\Tools\CC2530DB\f8wConfig.cfg" (-DZIGBEEPRO     /
//                          -DSECURE=1 -DZG_SECURE_DYNAMIC=0 -DREFLECTOR      /
//                          -DDEFAULT_CHANLIST=0x00000800                     /
//                          -DZDAPP_CONFIG_PAN_ID=0xFFFF                      /
//                          -DNWK_START_DELAY=100 -DEXTENDED_JOINING_RANDOM_M /
//                          ASK=0x007F -DBEACON_REQUEST_DELAY=100             /
//                          -DBEACON_REQ_DELAY_MASK=0x00FF                    /
//                          -DLINK_STATUS_JITTER_MASK=0x007F                  /
//                          -DROUTE_EXPIRY_TIME=30 -DAPSC_ACK_WAIT_DURATION_P /
//                          OLLED=3000 -DNWK_INDIRECT_MSG_TIMEOUT=7           /
//                          -DMAX_RREQ_ENTRIES=8 -DAPSC_MAX_FRAME_RETRIES=3   /
//                          -DNWK_MAX_DATA_RETRIES=2                          /
//                          -DMAX_POLL_FAILURE_RETRIES=2 -DMAX_BCAST=9        /
//                          -DAPS_MAX_GROUPS=16 -DMAX_RTG_ENTRIES=40          /
//                          -DNWK_MAX_BINDING_ENTRIES=4                       /
//                          -DMAX_BINDING_CLUSTER_IDS=4                       /
//                          "-DDEFAULT_KEY={0x01, 0x03, 0x05, 0x07, 0x09,     /
//                          0x0B, 0x0D, 0x0F, 0x00, 0x02, 0x04, 0x06, 0x08,   /
//                          0x0A, 0x0C, 0x0D}" -DMAC_MAX_FRAME_SIZE=116       /
//                          -DZDNWKMGR_MIN_TRANSMISSIONS=20 "-DCONST=const    /
//                          __code" -DGENERIC=__generic                       /
//                          -DRFD_RCVC_ALWAYS_ON=FALSE -DPOLL_RATE=1000       /
//                          -DQUEUED_POLL_RATE=100 -DRESPONSE_POLL_RATE=100   /
//                          -DREJOIN_POLL_RATE=440) -f "D:\Texas              /
//                          Instruments\Z-Stack Lighting                      /
//                          1.0.2\Projects\zstack\ZLL\SampleApp\CC253x\..\..\ /
//                          ..\Tools\CC2530DB\f8wZCL.cfg" "D:\Texas           /
//                          Instruments\Z-Stack Lighting                      /
//                          1.0.2\Components\stack\zcl\zcl_general.c" -D      /
//                          FEATURE_GREEN_POWER -D SECURE=1 -D                /
//                          TC_LINKKEY_JOIN -D ZDSECMGR_TC_DEVICE_MAX=2 -D    /
//                          NV_RESTORE -D HOLD_AUTO_START -D INTER_PAN -D     /
//                          ZTOOL_P1 -D MT_TASK -D MT_APP_FUNC -D             /
//                          MT_SYS_FUNC -D MT_ZDO_FUNC -D MT_ZDO_CB_FUNC -D   /
//                          MT_UTIL_FUNC -D MT_ZDO_MGMT -D LCD_SUPPORTED -D   /
//                          HAL_LCD=FALSE -D HAL_KEY=FALSE -D ZCL_BASIC -D    /
//                          ZCL_READ -D ZCL_WRITE -D ZCL_IDENTIFY -D          /
//                          ZCL_ON_OFF -D ZCL_SCENES -D ZCL_GROUPS -D         /
//                          ZCL_LIGHT_LINK_ENHANCE -D ZCL_LEVEL_CTRL -D       /
//                          ZCL_COLOR_CTRL -D xMAX_CHANNELS_24GHZ=0x02108800  /
//                          -lC "D:\Texas Instruments\Z-Stack Lighting        /
//                          1.0.2\Projects\zstack\ZLL\SampleApp\CC253x\Bridge /
//                          EB-Pro\List\" -lA "D:\Texas Instruments\Z-Stack   /
//                          Lighting 1.0.2\Projects\zstack\ZLL\SampleApp\CC25 /
//                          3x\BridgeEB-Pro\List\" --diag_suppress            /
//                          Pe001,Pa010 -o "D:\Texas Instruments\Z-Stack      /
//                          Lighting 1.0.2\Projects\zstack\ZLL\SampleApp\CC25 /
//                          3x\BridgeEB-Pro\Obj\" -e --debug --core=plain     /
//                          --dptr=16,1 --data_model=large                    /
//                          --code_model=banked --calling_convention=xdata_re /
//                          entrant --place_constants=data_rom                /
//                          --nr_virtual_regs 16 -I "D:\Texas                 /
//                          Instruments\Z-Stack Lighting                      /
//                          1.0.2\Projects\zstack\ZLL\SampleApp\CC253x\" -I   /
//                          "D:\Texas Instruments\Z-Stack Lighting            /
//                          1.0.2\Projects\zstack\ZLL\SampleApp\CC253x\..\Sou /
//                          rce\" -I "D:\Texas Instruments\Z-Stack Lighting   /
//                          1.0.2\Projects\zstack\ZLL\SampleApp\CC253x\..\..\ /
//                          Source\" -I "D:\Texas Instruments\Z-Stack         /
//                          Lighting 1.0.2\Projects\zstack\ZLL\SampleApp\CC25 /
//                          3x\..\..\..\HomeAutomation\Source\" -I "D:\Texas  /
//                          Instruments\Z-Stack Lighting                      /
//                          1.0.2\Projects\zstack\ZLL\SampleApp\CC253x\..\..\ /
//                          ..\HomeAutomation\SampleLight\Source\" -I         /
//                          "D:\Texas Instruments\Z-Stack Lighting            /
//                          1.0.2\Projects\zstack\ZLL\SampleApp\CC253x\..\..\ /
//                          ..\ZMain\TI2530DB\" -I "D:\Texas                  /
//                          Instruments\Z-Stack Lighting                      /
//                          1.0.2\Projects\zstack\ZLL\SampleApp\CC253x\..\..\ /
//                          ..\..\..\Components\hal\include\" -I "D:\Texas    /
//                          Instruments\Z-Stack Lighting                      /
//                          1.0.2\Projects\zstack\ZLL\SampleApp\CC253x\..\..\ /
//                          ..\..\..\Components\hal\target\CC2530EB\" -I      /
//                          "D:\Texas Instruments\Z-Stack Lighting            /
//                          1.0.2\Projects\zstack\ZLL\SampleApp\CC253x\..\..\ /
//                          ..\..\..\Components\mac\include\" -I "D:\Texas    /
//                          Instruments\Z-Stack Lighting                      /
//                          1.0.2\Projects\zstack\ZLL\SampleApp\CC253x\..\..\ /
//                          ..\..\..\Components\mac\high_level\" -I           /
//                          "D:\Texas Instruments\Z-Stack Lighting            /
//                          1.0.2\Projects\zstack\ZLL\SampleApp\CC253x\..\..\ /
//                          ..\..\..\Components\mac\low_level\srf04\" -I      /
//                          "D:\Texas Instruments\Z-Stack Lighting            /
//                          1.0.2\Projects\zstack\ZLL\SampleApp\CC253x\..\..\ /
//                          ..\..\..\Components\mac\low_level\srf04\single_ch /
//                          ip\" -I "D:\Texas Instruments\Z-Stack Lighting    /
//                          1.0.2\Projects\zstack\ZLL\SampleApp\CC253x\..\..\ /
//                          ..\..\..\Components\mt\" -I "D:\Texas             /
//                          Instruments\Z-Stack Lighting                      /
//                          1.0.2\Projects\zstack\ZLL\SampleApp\CC253x\..\..\ /
//                          ..\..\..\Components\osal\include\" -I "D:\Texas   /
//                          Instruments\Z-Stack Lighting                      /
//                          1.0.2\Projects\zstack\ZLL\SampleApp\CC253x\..\..\ /
//                          ..\..\..\Components\services\saddr\" -I           /
//                          "D:\Texas Instruments\Z-Stack Lighting            /
//                          1.0.2\Projects\zstack\ZLL\SampleApp\CC253x\..\..\ /
//                          ..\..\..\Components\services\sdata\" -I           /
//                          "D:\Texas Instruments\Z-Stack Lighting            /
//                          1.0.2\Projects\zstack\ZLL\SampleApp\CC253x\..\..\ /
//                          ..\..\..\Components\stack\af\" -I "D:\Texas       /
//                          Instruments\Z-Stack Lighting                      /
//                          1.0.2\Projects\zstack\ZLL\SampleApp\CC253x\..\..\ /
//                          ..\..\..\Components\stack\nwk\" -I "D:\Texas      /
//                          Instruments\Z-Stack Lighting                      /
//                          1.0.2\Projects\zstack\ZLL\SampleApp\CC253x\..\..\ /
//                          ..\..\..\Components\stack\sapi\" -I "D:\Texas     /
//                          Instruments\Z-Stack Lighting                      /
//                          1.0.2\Projects\zstack\ZLL\SampleApp\CC253x\..\..\ /
//                          ..\..\..\Components\stack\sec\" -I "D:\Texas      /
//                          Instruments\Z-Stack Lighting                      /
//                          1.0.2\Projects\zstack\ZLL\SampleApp\CC253x\..\..\ /
//                          ..\..\..\Components\stack\sys\" -I "D:\Texas      /
//                          Instruments\Z-Stack Lighting                      /
//                          1.0.2\Projects\zstack\ZLL\SampleApp\CC253x\..\..\ /
//                          ..\..\..\Components\stack\zcl\" -I "D:\Texas      /
//                          Instruments\Z-Stack Lighting                      /
//                          1.0.2\Projects\zstack\ZLL\SampleApp\CC253x\..\..\ /
//                          ..\..\..\Components\stack\zdo\" -I "D:\Texas      /
//                          Instruments\Z-Stack Lighting                      /
//                          1.0.2\Projects\zstack\ZLL\SampleApp\CC253x\..\..\ /
//                          ..\..\..\Components\zmac\" -I "D:\Texas           /
//                          Instruments\Z-Stack Lighting                      /
//                          1.0.2\Projects\zstack\ZLL\SampleApp\CC253x\..\..\ /
//                          ..\..\..\Components\zmac\f8w\" -Ohz               /
//                          --require_prototypes                              /
//    List file          =  D:\Texas Instruments\Z-Stack Lighting             /
//                          1.0.2\Projects\zstack\ZLL\SampleApp\CC253x\Bridge /
//                          EB-Pro\List\zcl_general.s51                       /
//                                                                            /
//                                                                            /
///////////////////////////////////////////////////////////////////////////////

        NAME zcl_general

        RTMODEL "__SystemLibrary", "CLib"
        RTMODEL "__calling_convention", "xdata_reentrant"
        RTMODEL "__code_model", "banked"
        RTMODEL "__core", "plain"
        RTMODEL "__data_model", "large"
        RTMODEL "__dptr_size", "16"
        RTMODEL "__extended_stack", "disabled"
        RTMODEL "__location_for_constants", "data"
        RTMODEL "__number_of_dptrs", "1"
        RTMODEL "__rt_version", "1"

        RSEG DOVERLAY:DATA:NOROOT(0)
        RSEG IOVERLAY:IDATA:NOROOT(0)
        RSEG ISTACK:IDATA:NOROOT(0)
        RSEG PSTACK:XDATA:NOROOT(0)
        RSEG XSTACK:XDATA:NOROOT(0)

        EXTERN ?ALLOC_XSTACK8
        EXTERN ?BANKED_ENTER_XDATA
        EXTERN ?BANKED_LEAVE_XDATA
        EXTERN ?BDISPATCH
        EXTERN ?BRET
        EXTERN ?CALL_IND
        EXTERN ?DEALLOC_XSTACK8
        EXTERN ?MOVE_LONG8_XDATA_XDATA
        EXTERN ?PUSH_XSTACK8_X_TWO
        EXTERN ?PUSH_XSTACK_I_ONE
        EXTERN ?PUSH_XSTACK_I_THREE
        EXTERN ?PUSH_XSTACK_I_TWO
        EXTERN ?US_DIV_MOD
        EXTERN ?US_SWITCH_DENSE
        EXTERN ?V0
        EXTERN ?XSP
        EXTERN ?XSTACK_DISP0_8
        EXTERN __INIT_XDATA_Z

        FUNCTION ??zclGeneral_AddGroup?relay,0203H
        PUBLIC ??zclGeneral_AddScene?relay
        FUNCTION ??zclGeneral_AddScene?relay,0203H
        PUBLIC ??zclGeneral_CountAllScenes?relay
        FUNCTION ??zclGeneral_CountAllScenes?relay,0203H
        PUBLIC ??zclGeneral_CountScenes?relay
        FUNCTION ??zclGeneral_CountScenes?relay,0203H
        PUBLIC ??zclGeneral_FindAllScenesForGroup?relay
        FUNCTION ??zclGeneral_FindAllScenesForGroup?relay,0203H
        FUNCTION ??zclGeneral_FindCallbacks?relay,0203H
        PUBLIC ??zclGeneral_FindScene?relay
        FUNCTION ??zclGeneral_FindScene?relay,0203H
        FUNCTION ??zclGeneral_HdlInSpecificCommands?relay,0203H
        FUNCTION ??zclGeneral_HdlIncoming?relay,0203H
        FUNCTION ??zclGeneral_ProcessInGroupsClient?relay,0203H
        FUNCTION ??zclGeneral_ProcessInGroupsServer?relay,0203H
        FUNCTION ??zclGeneral_ProcessInIdentity?relay,0203H
        FUNCTION ??zclGeneral_ProcessInLevelControl?relay,0203H
        FUNCTION ??zclGeneral_ProcessInOnOff?relay,0203H
        FUNCTION ??zclGeneral_ProcessInScenesClient?relay,0203H
        FUNCTION ??zclGeneral_ProcessInScenesServer?relay,0203H
        PUBLIC ??zclGeneral_ReadSceneCountCB?relay
        FUNCTION ??zclGeneral_ReadSceneCountCB?relay,0203H
        PUBLIC ??zclGeneral_RegisterCmdCallbacks?relay
        FUNCTION ??zclGeneral_RegisterCmdCallbacks?relay,0203H
        PUBLIC ??zclGeneral_RemoveAllScenes?relay
        FUNCTION ??zclGeneral_RemoveAllScenes?relay,0203H
        PUBLIC ??zclGeneral_RemoveScene?relay
        FUNCTION ??zclGeneral_RemoveScene?relay,0203H
        PUBLIC ??zclGeneral_ScenesInit?relay
        FUNCTION ??zclGeneral_ScenesInit?relay,0203H
        FUNCTION ??zclGeneral_ScenesRestoreFromNV?relay,0203H
        PUBLIC ??zclGeneral_ScenesSave?relay
        FUNCTION ??zclGeneral_ScenesSave?relay,0203H
        FUNCTION ??zclGeneral_ScenesWriteNV?relay,0203H
        PUBLIC ??zclGeneral_SendAddGroupRequest?relay
        FUNCTION ??zclGeneral_SendAddGroupRequest?relay,0203H
        PUBLIC ??zclGeneral_SendAddSceneRequest?relay
        FUNCTION ??zclGeneral_SendAddSceneRequest?relay,0203H
        PUBLIC ??zclGeneral_SendGroupGetMembershipRequest?rela
        FUNCTION ??zclGeneral_SendGroupGetMembershipRequest?rela,0203H
        PUBLIC ??zclGeneral_SendGroupRequest?relay
        FUNCTION ??zclGeneral_SendGroupRequest?relay,0203H
        PUBLIC ??zclGeneral_SendGroupResponse?relay
        FUNCTION ??zclGeneral_SendGroupResponse?relay,0203H
        PUBLIC ??zclGeneral_SendGroupViewResponse?relay
        FUNCTION ??zclGeneral_SendGroupViewResponse?relay,0203H
        PUBLIC ??zclGeneral_SendIdentify?relay
        FUNCTION ??zclGeneral_SendIdentify?relay,0203H
        PUBLIC ??zclGeneral_SendIdentifyEZModeInvoke?relay
        FUNCTION ??zclGeneral_SendIdentifyEZModeInvoke?relay,0203H
        PUBLIC ??zclGeneral_SendIdentifyQueryResponse?relay
        FUNCTION ??zclGeneral_SendIdentifyQueryResponse?relay,0203H
        PUBLIC ??zclGeneral_SendIdentifyTriggerEffect?relay
        FUNCTION ??zclGeneral_SendIdentifyTriggerEffect?relay,0203H
        PUBLIC ??zclGeneral_SendIdentifyUpdateCommState?relay
        FUNCTION ??zclGeneral_SendIdentifyUpdateCommState?relay,0203H
        PUBLIC ??zclGeneral_SendLevelControlMoveRequest?relay
        FUNCTION ??zclGeneral_SendLevelControlMoveRequest?relay,0203H
        PUBLIC ??zclGeneral_SendLevelControlMoveToLevelRequest
        FUNCTION ??zclGeneral_SendLevelControlMoveToLevelRequest,0203H
        PUBLIC ??zclGeneral_SendLevelControlStepRequest?relay
        FUNCTION ??zclGeneral_SendLevelControlStepRequest?relay,0203H
        PUBLIC ??zclGeneral_SendLevelControlStopRequest?relay
        FUNCTION ??zclGeneral_SendLevelControlStopRequest?relay,0203H
        PUBLIC ??zclGeneral_SendOnOff_CmdOffWithEffect?relay
        FUNCTION ??zclGeneral_SendOnOff_CmdOffWithEffect?relay,0203H
        PUBLIC ??zclGeneral_SendOnOff_CmdOnWithTimedOff?relay
        FUNCTION ??zclGeneral_SendOnOff_CmdOnWithTimedOff?relay,0203H
        PUBLIC ??zclGeneral_SendSceneCopy?relay
        FUNCTION ??zclGeneral_SendSceneCopy?relay,0203H
        PUBLIC ??zclGeneral_SendSceneCopyResponse?relay
        FUNCTION ??zclGeneral_SendSceneCopyResponse?relay,0203H
        PUBLIC ??zclGeneral_SendSceneGetMembershipResponse?rel
        FUNCTION ??zclGeneral_SendSceneGetMembershipResponse?rel,0203H
        PUBLIC ??zclGeneral_SendSceneRequest?relay
        FUNCTION ??zclGeneral_SendSceneRequest?relay,0203H
        PUBLIC ??zclGeneral_SendSceneResponse?relay
        FUNCTION ??zclGeneral_SendSceneResponse?relay,0203H
        PUBLIC ??zclGeneral_SendSceneViewRsp?relay
        FUNCTION ??zclGeneral_SendSceneViewRsp?relay,0203H
        FUNCTION zclGeneral_AddGroup,021203H
        ARGFRAME XSTACK, 42, STACK
        ARGFRAME IOVERLAY, 0, STATIC
        ARGFRAME DOVERLAY, 0, STATIC
        LOCFRAME ISTACK, 1, STACK
        LOCFRAME XSTACK, 24, STACK
        PUBLIC zclGeneral_AddScene
        FUNCTION zclGeneral_AddScene,021203H
        ARGFRAME XSTACK, 87, STACK
        ARGFRAME IOVERLAY, 0, STATIC
        ARGFRAME DOVERLAY, 0, STATIC
        LOCFRAME ISTACK, 1, STACK
        LOCFRAME XSTACK, 18, STACK
        PUBLIC zclGeneral_CountAllScenes
        FUNCTION zclGeneral_CountAllScenes,0203H
        ARGFRAME XSTACK, 87, STACK
        ARGFRAME IOVERLAY, 0, STATIC
        ARGFRAME DOVERLAY, 0, STATIC
        LOCFRAME ISTACK, 2, STACK
        PUBLIC zclGeneral_CountScenes
        FUNCTION zclGeneral_CountScenes,0203H
        ARGFRAME XSTACK, 0, STACK
        LOCFRAME ISTACK, 2, STACK
        PUBLIC zclGeneral_FindAllScenesForGroup
        FUNCTION zclGeneral_FindAllScenesForGroup,0203H
        ARGFRAME XSTACK, 87, STACK
        ARGFRAME IOVERLAY, 0, STATIC
        ARGFRAME DOVERLAY, 0, STATIC
        LOCFRAME ISTACK, 1, STACK
        LOCFRAME XSTACK, 10, STACK
        FUNCTION zclGeneral_FindCallbacks,0203H
        ARGFRAME XSTACK, 10, STACK
        ARGFRAME IOVERLAY, 0, STATIC
        ARGFRAME DOVERLAY, 0, STATIC
        LOCFRAME ISTACK, 2, STACK
        PUBLIC zclGeneral_FindScene
        FUNCTION zclGeneral_FindScene,0203H
        ARGFRAME XSTACK, 87, STACK
        ARGFRAME IOVERLAY, 0, STATIC
        ARGFRAME DOVERLAY, 0, STATIC
        LOCFRAME XSTACK, 9, STACK
        FUNCTION zclGeneral_HdlInSpecificCommands,0a1203H
        ARGFRAME XSTACK, 10, STACK
        ARGFRAME IOVERLAY, 0, STATIC
        ARGFRAME DOVERLAY, 0, STATIC
        LOCFRAME XSTACK, 10, STACK
        FUNCTION zclGeneral_HdlIncoming,0a1603H
        ARGFRAME XSTACK, 0, STACK
        LOCFRAME XSTACK, 10, STACK
        FUNCTION zclGeneral_ProcessInGroupsClient,021203H
        ARGFRAME XSTACK, 10, STACK
        ARGFRAME IOVERLAY, 0, STATIC
        ARGFRAME DOVERLAY, 0, STATIC
        LOCFRAME ISTACK, 1, STACK
        LOCFRAME XSTACK, 53, STACK
        FUNCTION zclGeneral_ProcessInGroupsServer,021203H
        ARGFRAME XSTACK, 10, STACK
        ARGFRAME IOVERLAY, 0, STATIC
        ARGFRAME DOVERLAY, 0, STATIC
        LOCFRAME ISTACK, 1, STACK
        LOCFRAME XSTACK, 49, STACK
        FUNCTION zclGeneral_ProcessInIdentity,021203H
        ARGFRAME XSTACK, 10, STACK
        ARGFRAME IOVERLAY, 0, STATIC
        ARGFRAME DOVERLAY, 0, STATIC
        LOCFRAME ISTACK, 1, STACK
        LOCFRAME XSTACK, 22, STACK
        FUNCTION zclGeneral_ProcessInLevelControl,0203H
        ARGFRAME XSTACK, 10, STACK
        ARGFRAME IOVERLAY, 0, STATIC
        ARGFRAME DOVERLAY, 0, STATIC
        LOCFRAME ISTACK, 1, STACK
        LOCFRAME XSTACK, 21, STACK
        FUNCTION zclGeneral_ProcessInOnOff,0203H
        ARGFRAME XSTACK, 10, STACK
        ARGFRAME IOVERLAY, 0, STATIC
        ARGFRAME DOVERLAY, 0, STATIC
        LOCFRAME ISTACK, 1, STACK
        LOCFRAME XSTACK, 20, STACK
        FUNCTION zclGeneral_ProcessInScenesClient,021203H
        ARGFRAME XSTACK, 10, STACK
        ARGFRAME IOVERLAY, 0, STATIC
        ARGFRAME DOVERLAY, 0, STATIC
        LOCFRAME ISTACK, 1, STACK
        LOCFRAME XSTACK, 90, STACK
        FUNCTION zclGeneral_ProcessInScenesServer,021203H
        ARGFRAME XSTACK, 10, STACK
        ARGFRAME IOVERLAY, 0, STATIC
        ARGFRAME DOVERLAY, 0, STATIC
        LOCFRAME ISTACK, 2, STACK
        LOCFRAME XSTACK, 94, STACK
        PUBLIC zclGeneral_ReadSceneCountCB
        FUNCTION zclGeneral_ReadSceneCountCB,021203H
        ARGFRAME XSTACK, 4, STACK
        LOCFRAME ISTACK, 1, STACK
        LOCFRAME XSTACK, 12, STACK
        PUBLIC zclGeneral_RegisterCmdCallbacks
        FUNCTION zclGeneral_RegisterCmdCallbacks,021203H
        ARGFRAME XSTACK, 0, STACK
        LOCFRAME ISTACK, 1, STACK
        LOCFRAME XSTACK, 14, STACK
        PUBLIC zclGeneral_RemoveAllScenes
        FUNCTION zclGeneral_RemoveAllScenes,021203H
        ARGFRAME XSTACK, 87, STACK
        ARGFRAME IOVERLAY, 0, STATIC
        ARGFRAME DOVERLAY, 0, STATIC
        LOCFRAME XSTACK, 13, STACK
        PUBLIC zclGeneral_RemoveScene
        FUNCTION zclGeneral_RemoveScene,021203H
        ARGFRAME XSTACK, 87, STACK
        ARGFRAME IOVERLAY, 0, STATIC
        ARGFRAME DOVERLAY, 0, STATIC
        LOCFRAME XSTACK, 9, STACK
        PUBLIC zclGeneral_ScenesInit
        FUNCTION zclGeneral_ScenesInit,021203H
        ARGFRAME XSTACK, 12, STACK
        ARGFRAME IOVERLAY, 0, STATIC
        ARGFRAME DOVERLAY, 0, STATIC
        LOCFRAME XSTACK, 16, STACK
        FUNCTION zclGeneral_ScenesRestoreFromNV,021203H
        ARGFRAME XSTACK, 12, STACK
        ARGFRAME IOVERLAY, 0, STATIC
        ARGFRAME DOVERLAY, 0, STATIC
        LOCFRAME XSTACK, 74, STACK
        PUBLIC zclGeneral_ScenesSave
        FUNCTION zclGeneral_ScenesSave,021203H
        ARGFRAME XSTACK, 0, STACK
        LOCFRAME ISTACK, 2, STACK
        FUNCTION zclGeneral_ScenesWriteNV,021203H
        ARGFRAME XSTACK, 87, STACK
        ARGFRAME IOVERLAY, 0, STATIC
        ARGFRAME DOVERLAY, 0, STATIC
        LOCFRAME ISTACK, 1, STACK
        LOCFRAME XSTACK, 73, STACK
        PUBLIC zclGeneral_SendAddGroupRequest
        FUNCTION zclGeneral_SendAddGroupRequest,021203H
        ARGFRAME XSTACK, 5, STACK
        LOCFRAME ISTACK, 1, STACK
        LOCFRAME XSTACK, 35, STACK
        PUBLIC zclGeneral_SendAddSceneRequest
        FUNCTION zclGeneral_SendAddSceneRequest,021203H
        ARGFRAME XSTACK, 3, STACK
        LOCFRAME ISTACK, 1, STACK
        LOCFRAME XSTACK, 38, STACK
        PUBLIC zclGeneral_SendGroupGetMembershipRequest
        FUNCTION zclGeneral_SendGroupGetMembershipRequest,021203H
        ARGFRAME XSTACK, 49, STACK
        ARGFRAME IOVERLAY, 0, STATIC
        ARGFRAME DOVERLAY, 0, STATIC
        LOCFRAME ISTACK, 1, STACK
        LOCFRAME XSTACK, 33, STACK
        PUBLIC zclGeneral_SendGroupRequest
        FUNCTION zclGeneral_SendGroupRequest,021203H
        ARGFRAME XSTACK, 3, STACK
        LOCFRAME ISTACK, 1, STACK
        LOCFRAME XSTACK, 25, STACK
        PUBLIC zclGeneral_SendGroupResponse
        FUNCTION zclGeneral_SendGroupResponse,021203H
        ARGFRAME XSTACK, 46, STACK
        ARGFRAME IOVERLAY, 0, STATIC
        ARGFRAME DOVERLAY, 0, STATIC
        LOCFRAME ISTACK, 1, STACK
        LOCFRAME XSTACK, 26, STACK
        PUBLIC zclGeneral_SendGroupViewResponse
        FUNCTION zclGeneral_SendGroupViewResponse,021203H
        ARGFRAME XSTACK, 45, STACK
        ARGFRAME IOVERLAY, 0, STATIC
        ARGFRAME DOVERLAY, 0, STATIC
        LOCFRAME ISTACK, 1, STACK
        LOCFRAME XSTACK, 35, STACK
        PUBLIC zclGeneral_SendIdentify
        FUNCTION zclGeneral_SendIdentify,021203H
        ARGFRAME XSTACK, 2, STACK
        LOCFRAME ISTACK, 1, STACK
        LOCFRAME XSTACK, 23, STACK
        PUBLIC zclGeneral_SendIdentifyEZModeInvoke
        FUNCTION zclGeneral_SendIdentifyEZModeInvoke,021203H
        ARGFRAME XSTACK, 1, STACK
        LOCFRAME ISTACK, 1, STACK
        LOCFRAME XSTACK, 23, STACK
        PUBLIC zclGeneral_SendIdentifyQueryResponse
        FUNCTION zclGeneral_SendIdentifyQueryResponse,021203H
        ARGFRAME XSTACK, 20, STACK
        ARGFRAME IOVERLAY, 0, STATIC
        ARGFRAME DOVERLAY, 0, STATIC
        LOCFRAME ISTACK, 1, STACK
        LOCFRAME XSTACK, 23, STACK
        PUBLIC zclGeneral_SendIdentifyTriggerEffect
        FUNCTION zclGeneral_SendIdentifyTriggerEffect,021203H
        ARGFRAME XSTACK, 2, STACK
        LOCFRAME ISTACK, 1, STACK
        LOCFRAME XSTACK, 24, STACK
        PUBLIC zclGeneral_SendIdentifyUpdateCommState
        FUNCTION zclGeneral_SendIdentifyUpdateCommState,021203H
        ARGFRAME XSTACK, 2, STACK
        LOCFRAME ISTACK, 1, STACK
        LOCFRAME XSTACK, 24, STACK
        PUBLIC zclGeneral_SendLevelControlMoveRequest
        FUNCTION zclGeneral_SendLevelControlMoveRequest,021203H
        ARGFRAME XSTACK, 3, STACK
        LOCFRAME ISTACK, 1, STACK
        LOCFRAME XSTACK, 24, STACK
        PUBLIC zclGeneral_SendLevelControlMoveToLevelRequest
        FUNCTION zclGeneral_SendLevelControlMoveToLevelRequest,021203H
        ARGFRAME XSTACK, 4, STACK
        LOCFRAME ISTACK, 1, STACK
        LOCFRAME XSTACK, 26, STACK
        PUBLIC zclGeneral_SendLevelControlStepRequest
        FUNCTION zclGeneral_SendLevelControlStepRequest,021203H
        ARGFRAME XSTACK, 5, STACK
        LOCFRAME ISTACK, 1, STACK
        LOCFRAME XSTACK, 27, STACK
        PUBLIC zclGeneral_SendLevelControlStopRequest
        FUNCTION zclGeneral_SendLevelControlStopRequest,021203H
        ARGFRAME XSTACK, 1, STACK
        LOCFRAME XSTACK, 23, STACK
        PUBLIC zclGeneral_SendOnOff_CmdOffWithEffect
        FUNCTION zclGeneral_SendOnOff_CmdOffWithEffect,021203H
        ARGFRAME XSTACK, 2, STACK
        LOCFRAME ISTACK, 1, STACK
        LOCFRAME XSTACK, 24, STACK
        PUBLIC zclGeneral_SendOnOff_CmdOnWithTimedOff
        FUNCTION zclGeneral_SendOnOff_CmdOnWithTimedOff,021203H
        ARGFRAME XSTACK, 6, STACK
        LOCFRAME ISTACK, 1, STACK
        LOCFRAME XSTACK, 27, STACK
        PUBLIC zclGeneral_SendSceneCopy
        FUNCTION zclGeneral_SendSceneCopy,021203H
        ARGFRAME XSTACK, 7, STACK
        LOCFRAME ISTACK, 1, STACK
        LOCFRAME XSTACK, 30, STACK
        PUBLIC zclGeneral_SendSceneCopyResponse
        FUNCTION zclGeneral_SendSceneCopyResponse,021203H
        ARGFRAME XSTACK, 91, STACK
        ARGFRAME IOVERLAY, 0, STATIC
        ARGFRAME DOVERLAY, 0, STATIC
        LOCFRAME ISTACK, 1, STACK
        LOCFRAME XSTACK, 27, STACK
        PUBLIC zclGeneral_SendSceneGetMembershipResponse
        FUNCTION zclGeneral_SendSceneGetMembershipResponse,021203H
        ARGFRAME XSTACK, 94, STACK
        ARGFRAME IOVERLAY, 0, STATIC
        ARGFRAME DOVERLAY, 0, STATIC
        LOCFRAME ISTACK, 1, STACK
        LOCFRAME XSTACK, 31, STACK
        PUBLIC zclGeneral_SendSceneRequest
        FUNCTION zclGeneral_SendSceneRequest,021203H
        ARGFRAME XSTACK, 4, STACK
        LOCFRAME ISTACK, 1, STACK
        LOCFRAME XSTACK, 26, STACK
        PUBLIC zclGeneral_SendSceneResponse
        FUNCTION zclGeneral_SendSceneResponse,021203H
        ARGFRAME XSTACK, 92, STACK
        ARGFRAME IOVERLAY, 0, STATIC
        ARGFRAME DOVERLAY, 0, STATIC
        LOCFRAME ISTACK, 1, STACK
        LOCFRAME XSTACK, 28, STACK
        PUBLIC zclGeneral_SendSceneViewRsp
        FUNCTION zclGeneral_SendSceneViewRsp,021203H
        ARGFRAME XSTACK, 91, STACK
        ARGFRAME IOVERLAY, 0, STATIC
        ARGFRAME DOVERLAY, 0, STATIC
        LOCFRAME ISTACK, 1, STACK
        LOCFRAME XSTACK, 38, STACK
        
          CFI Names cfiNames0
          CFI StackFrame CFA_SP SP IDATA
          CFI StackFrame CFA_PSP16 PSP16 XDATA
          CFI StackFrame CFA_XSP16 XSP16 XDATA
          CFI StaticOverlayFrame CFA_IOVERLAY IOVERLAY
          CFI StaticOverlayFrame CFA_DOVERLAY DOVERLAY
          CFI Resource `PSW.CY`:1, `B.BR0`:1, `B.BR1`:1, `B.BR2`:1, `B.BR3`:1
          CFI Resource `B.BR4`:1, `B.BR5`:1, `B.BR6`:1, `B.BR7`:1, `VB.BR8`:1
          CFI Resource `VB.BR9`:1, `VB.BR10`:1, `VB.BR11`:1, `VB.BR12`:1
          CFI Resource `VB.BR13`:1, `VB.BR14`:1, `VB.BR15`:1, VB:8, B:8, A:8
          CFI Resource PSW:8, DPL0:8, DPH0:8, R0:8, R1:8, R2:8, R3:8, R4:8, R5:8
          CFI Resource R6:8, R7:8, V0:8, V1:8, V2:8, V3:8, V4:8, V5:8, V6:8, V7:8
          CFI Resource V8:8, V9:8, V10:8, V11:8, V12:8, V13:8, V14:8, V15:8, SP:8
          CFI Resource PSPH:8, PSPL:8, PSP16:16, XSPH:8, XSPL:8, XSP16:16
          CFI VirtualResource ?RET:24
          CFI Resource ?BRET_EXT:8
          CFI VirtualResource ?RET_HIGH:8, ?RET_LOW:8
          CFI ResourceParts PSP16 PSPH, PSPL
          CFI ResourceParts XSP16 XSPH, XSPL
          CFI ResourceParts ?RET ?BRET_EXT, ?RET_HIGH, ?RET_LOW
          CFI EndNames cfiNames0
        
          CFI Common cfiCommon0 Using cfiNames0
          CFI CodeAlign 1
          CFI DataAlign -1
          CFI ReturnAddress ?RET CODE
          CFI CFA_DOVERLAY Used
          CFI CFA_IOVERLAY Used
          CFI CFA_SP SP+-3
          CFI CFA_PSP16 PSP16+0
          CFI CFA_XSP16 XSP16+0
          CFI `PSW.CY` SameValue
          CFI `B.BR0` SameValue
          CFI `B.BR1` SameValue
          CFI `B.BR2` SameValue
          CFI `B.BR3` SameValue
          CFI `B.BR4` SameValue
          CFI `B.BR5` SameValue
          CFI `B.BR6` SameValue
          CFI `B.BR7` SameValue
          CFI `VB.BR8` SameValue
          CFI `VB.BR9` SameValue
          CFI `VB.BR10` SameValue
          CFI `VB.BR11` SameValue
          CFI `VB.BR12` SameValue
          CFI `VB.BR13` SameValue
          CFI `VB.BR14` SameValue
          CFI `VB.BR15` SameValue
          CFI VB SameValue
          CFI B Undefined
          CFI A Undefined
          CFI PSW SameValue
          CFI DPL0 SameValue
          CFI DPH0 SameValue
          CFI R0 Undefined
          CFI R1 Undefined
          CFI R2 Undefined
          CFI R3 Undefined
          CFI R4 Undefined
          CFI R5 Undefined
          CFI R6 SameValue
          CFI R7 SameValue
          CFI V0 SameValue
          CFI V1 SameValue
          CFI V2 SameValue
          CFI V3 SameValue
          CFI V4 SameValue
          CFI V5 SameValue
          CFI V6 SameValue
          CFI V7 SameValue
          CFI V8 SameValue
          CFI V9 SameValue
          CFI V10 SameValue
          CFI V11 SameValue
          CFI V12 SameValue
          CFI V13 SameValue
          CFI V14 SameValue
          CFI V15 SameValue
          CFI PSPH Undefined
          CFI PSPL Undefined
          CFI XSPH Undefined
          CFI XSPL Undefined
          CFI ?RET Concat
          CFI ?BRET_EXT Frame(CFA_SP, 3)
          CFI ?RET_HIGH Frame(CFA_SP, 2)
          CFI ?RET_LOW Frame(CFA_SP, 1)
          CFI EndCommon cfiCommon0
        
        
          CFI Common cfiCommon1 Using cfiNames0
          CFI CodeAlign 1
          CFI DataAlign -1
          CFI ReturnAddress ?RET CODE
          CFI CFA_DOVERLAY Used
          CFI CFA_IOVERLAY Used
          CFI CFA_SP SP+-2
          CFI CFA_PSP16 PSP16+0
          CFI CFA_XSP16 XSP16+0
          CFI `PSW.CY` SameValue
          CFI `B.BR0` SameValue
          CFI `B.BR1` SameValue
          CFI `B.BR2` SameValue
          CFI `B.BR3` SameValue
          CFI `B.BR4` SameValue
          CFI `B.BR5` SameValue
          CFI `B.BR6` SameValue
          CFI `B.BR7` SameValue
          CFI `VB.BR8` SameValue
          CFI `VB.BR9` SameValue
          CFI `VB.BR10` SameValue
          CFI `VB.BR11` SameValue
          CFI `VB.BR12` SameValue
          CFI `VB.BR13` SameValue
          CFI `VB.BR14` SameValue
          CFI `VB.BR15` SameValue
          CFI VB SameValue
          CFI B SameValue
          CFI A SameValue
          CFI PSW SameValue
          CFI DPL0 SameValue
          CFI DPH0 SameValue
          CFI R0 SameValue
          CFI R1 SameValue
          CFI R2 SameValue
          CFI R3 SameValue
          CFI R4 SameValue
          CFI R5 SameValue
          CFI R6 SameValue
          CFI R7 SameValue
          CFI V0 SameValue
          CFI V1 SameValue
          CFI V2 SameValue
          CFI V3 SameValue
          CFI V4 SameValue
          CFI V5 SameValue
          CFI V6 SameValue
          CFI V7 SameValue
          CFI V8 SameValue
          CFI V9 SameValue
          CFI V10 SameValue
          CFI V11 SameValue
          CFI V12 SameValue
          CFI V13 SameValue
          CFI V14 SameValue
          CFI V15 SameValue
          CFI PSPH Undefined
          CFI PSPL Undefined
          CFI XSPH Undefined
          CFI XSPL Undefined
          CFI ?RET Concat
          CFI ?BRET_EXT SameValue
          CFI ?RET_HIGH Frame(CFA_SP, 2)
          CFI ?RET_LOW Frame(CFA_SP, 1)
          CFI EndCommon cfiCommon1
        
StubAPS_InterPan    SYMBOL "StubAPS_InterPan"
??StubAPS_InterPan?relay SYMBOL "?relay", StubAPS_InterPan
aps_AddGroup        SYMBOL "aps_AddGroup"
??aps_AddGroup?relay SYMBOL "?relay", aps_AddGroup
aps_CountAllGroups  SYMBOL "aps_CountAllGroups"
??aps_CountAllGroups?relay SYMBOL "?relay", aps_CountAllGroups
aps_FindAllGroupsForEndpoint SYMBOL "aps_FindAllGroupsForEndpoint"
??aps_FindAllGroupsForEndpoint?relay SYMBOL "?relay", aps_FindAllGroupsForEndpoint
aps_FindGroup       SYMBOL "aps_FindGroup"
??aps_FindGroup?relay SYMBOL "?relay", aps_FindGroup
aps_RemoveAllGroup  SYMBOL "aps_RemoveAllGroup"
??aps_RemoveAllGroup?relay SYMBOL "?relay", aps_RemoveAllGroup
aps_RemoveGroup     SYMBOL "aps_RemoveGroup"
??aps_RemoveGroup?relay SYMBOL "?relay", aps_RemoveGroup
osal_mem_alloc      SYMBOL "osal_mem_alloc"
??osal_mem_alloc?relay SYMBOL "?relay", osal_mem_alloc
osal_mem_free       SYMBOL "osal_mem_free"
??osal_mem_free?relay SYMBOL "?relay", osal_mem_free
osal_memcpy         SYMBOL "osal_memcpy"
??osal_memcpy?relay SYMBOL "?relay", osal_memcpy
osal_memset         SYMBOL "osal_memset"
??osal_memset?relay SYMBOL "?relay", osal_memset
osal_nv_item_init   SYMBOL "osal_nv_item_init"
??osal_nv_item_init?relay SYMBOL "?relay", osal_nv_item_init
osal_nv_read        SYMBOL "osal_nv_read"
??osal_nv_read?relay SYMBOL "?relay", osal_nv_read
osal_nv_write       SYMBOL "osal_nv_write"
??osal_nv_write?relay SYMBOL "?relay", osal_nv_write
zcl_ReadAttrData    SYMBOL "zcl_ReadAttrData"
??zcl_ReadAttrData?relay SYMBOL "?relay", zcl_ReadAttrData
zcl_SendCommand     SYMBOL "zcl_SendCommand"
??zcl_SendCommand?relay SYMBOL "?relay", zcl_SendCommand
zcl_SendDefaultRspCmd SYMBOL "zcl_SendDefaultRspCmd"
??zcl_SendDefaultRspCmd?relay SYMBOL "?relay", zcl_SendDefaultRspCmd
zcl_registerPlugin  SYMBOL "zcl_registerPlugin"
??zcl_registerPlugin?relay SYMBOL "?relay", zcl_registerPlugin
zclGeneral_AddScene SYMBOL "zclGeneral_AddScene"
??zclGeneral_AddScene?relay SYMBOL "?relay", zclGeneral_AddScene
zclGeneral_CountAllScenes SYMBOL "zclGeneral_CountAllScenes"
??zclGeneral_CountAllScenes?relay SYMBOL "?relay", zclGeneral_CountAllScenes
zclGeneral_CountScenes SYMBOL "zclGeneral_CountScenes"
??zclGeneral_CountScenes?relay SYMBOL "?relay", zclGeneral_CountScenes
zclGeneral_FindAllScenesForGroup SYMBOL "zclGeneral_FindAllScenesForGroup"
??zclGeneral_FindAllScenesForGroup?relay SYMBOL "?relay", zclGeneral_FindAllScenesForGroup
zclGeneral_FindScene SYMBOL "zclGeneral_FindScene"
??zclGeneral_FindScene?relay SYMBOL "?relay", zclGeneral_FindScene
zclGeneral_ReadSceneCountCB SYMBOL "zclGeneral_ReadSceneCountCB"
??zclGeneral_ReadSceneCountCB?relay SYMBOL "?relay", zclGeneral_ReadSceneCountCB
zclGeneral_RegisterCmdCallbacks SYMBOL "zclGeneral_RegisterCmdCallbacks"
??zclGeneral_RegisterCmdCallbacks?relay SYMBOL "?relay", zclGeneral_RegisterCmdCallbacks
zclGeneral_RemoveAllScenes SYMBOL "zclGeneral_RemoveAllScenes"
??zclGeneral_RemoveAllScenes?relay SYMBOL "?relay", zclGeneral_RemoveAllScenes
zclGeneral_RemoveScene SYMBOL "zclGeneral_RemoveScene"
??zclGeneral_RemoveScene?relay SYMBOL "?relay", zclGeneral_RemoveScene
zclGeneral_ScenesInit SYMBOL "zclGeneral_ScenesInit"
??zclGeneral_ScenesInit?relay SYMBOL "?relay", zclGeneral_ScenesInit
zclGeneral_ScenesSave SYMBOL "zclGeneral_ScenesSave"
??zclGeneral_ScenesSave?relay SYMBOL "?relay", zclGeneral_ScenesSave
zclGeneral_SendAddGroupRequest SYMBOL "zclGeneral_SendAddGroupRequest"
??zclGeneral_SendAddGroupRequest?relay SYMBOL "?relay", zclGeneral_SendAddGroupRequest
zclGeneral_SendAddSceneRequest SYMBOL "zclGeneral_SendAddSceneRequest"
??zclGeneral_SendAddSceneRequest?relay SYMBOL "?relay", zclGeneral_SendAddSceneRequest
zclGeneral_SendGroupGetMembershipRequest SYMBOL "zclGeneral_SendGroupGetMembershipRequest"
??zclGeneral_SendGroupGetMembershipRequest?rela SYMBOL "?relay", zclGeneral_SendGroupGetMembershipRequest
zclGeneral_SendGroupRequest SYMBOL "zclGeneral_SendGroupRequest"
??zclGeneral_SendGroupRequest?relay SYMBOL "?relay", zclGeneral_SendGroupRequest
zclGeneral_SendGroupResponse SYMBOL "zclGeneral_SendGroupResponse"
??zclGeneral_SendGroupResponse?relay SYMBOL "?relay", zclGeneral_SendGroupResponse
zclGeneral_SendGroupViewResponse SYMBOL "zclGeneral_SendGroupViewResponse"
??zclGeneral_SendGroupViewResponse?relay SYMBOL "?relay", zclGeneral_SendGroupViewResponse
zclGeneral_SendIdentify SYMBOL "zclGeneral_SendIdentify"
??zclGeneral_SendIdentify?relay SYMBOL "?relay", zclGeneral_SendIdentify
zclGeneral_SendIdentifyEZModeInvoke SYMBOL "zclGeneral_SendIdentifyEZModeInvoke"
??zclGeneral_SendIdentifyEZModeInvoke?relay SYMBOL "?relay", zclGeneral_SendIdentifyEZModeInvoke
zclGeneral_SendIdentifyQueryResponse SYMBOL "zclGeneral_SendIdentifyQueryResponse"
??zclGeneral_SendIdentifyQueryResponse?relay SYMBOL "?relay", zclGeneral_SendIdentifyQueryResponse
zclGeneral_SendIdentifyTriggerEffect SYMBOL "zclGeneral_SendIdentifyTriggerEffect"
??zclGeneral_SendIdentifyTriggerEffect?relay SYMBOL "?relay", zclGeneral_SendIdentifyTriggerEffect
zclGeneral_SendIdentifyUpdateCommState SYMBOL "zclGeneral_SendIdentifyUpdateCommState"
??zclGeneral_SendIdentifyUpdateCommState?relay SYMBOL "?relay", zclGeneral_SendIdentifyUpdateCommState
zclGeneral_SendLevelControlMoveRequest SYMBOL "zclGeneral_SendLevelControlMoveRequest"
??zclGeneral_SendLevelControlMoveRequest?relay SYMBOL "?relay", zclGeneral_SendLevelControlMoveRequest
zclGeneral_SendLevelControlMoveToLevelRequest SYMBOL "zclGeneral_SendLevelControlMoveToLevelRequest"
??zclGeneral_SendLevelControlMoveToLevelRequest SYMBOL "?relay", zclGeneral_SendLevelControlMoveToLevelRequest
zclGeneral_SendLevelControlStepRequest SYMBOL "zclGeneral_SendLevelControlStepRequest"
??zclGeneral_SendLevelControlStepRequest?relay SYMBOL "?relay", zclGeneral_SendLevelControlStepRequest
zclGeneral_SendLevelControlStopRequest SYMBOL "zclGeneral_SendLevelControlStopRequest"
??zclGeneral_SendLevelControlStopRequest?relay SYMBOL "?relay", zclGeneral_SendLevelControlStopRequest
zclGeneral_SendOnOff_CmdOffWithEffect SYMBOL "zclGeneral_SendOnOff_CmdOffWithEffect"
??zclGeneral_SendOnOff_CmdOffWithEffect?relay SYMBOL "?relay", zclGeneral_SendOnOff_CmdOffWithEffect
zclGeneral_SendOnOff_CmdOnWithTimedOff SYMBOL "zclGeneral_SendOnOff_CmdOnWithTimedOff"
??zclGeneral_SendOnOff_CmdOnWithTimedOff?relay SYMBOL "?relay", zclGeneral_SendOnOff_CmdOnWithTimedOff
zclGeneral_SendSceneCopy SYMBOL "zclGeneral_SendSceneCopy"
??zclGeneral_SendSceneCopy?relay SYMBOL "?relay", zclGeneral_SendSceneCopy
zclGeneral_SendSceneCopyResponse SYMBOL "zclGeneral_SendSceneCopyResponse"
??zclGeneral_SendSceneCopyResponse?relay SYMBOL "?relay", zclGeneral_SendSceneCopyResponse
zclGeneral_SendSceneGetMembershipResponse SYMBOL "zclGeneral_SendSceneGetMembershipResponse"
??zclGeneral_SendSceneGetMembershipResponse?rel SYMBOL "?relay", zclGeneral_SendSceneGetMembershipResponse
zclGeneral_SendSceneRequest SYMBOL "zclGeneral_SendSceneRequest"
??zclGeneral_SendSceneRequest?relay SYMBOL "?relay", zclGeneral_SendSceneRequest
zclGeneral_SendSceneResponse SYMBOL "zclGeneral_SendSceneResponse"
??zclGeneral_SendSceneResponse?relay SYMBOL "?relay", zclGeneral_SendSceneResponse
zclGeneral_SendSceneViewRsp SYMBOL "zclGeneral_SendSceneViewRsp"
??zclGeneral_SendSceneViewRsp?relay SYMBOL "?relay", zclGeneral_SendSceneViewRsp

        EXTERN ??StubAPS_InterPan?relay
        FUNCTION ??StubAPS_InterPan?relay,00H
        EXTERN ??aps_AddGroup?relay
        FUNCTION ??aps_AddGroup?relay,00H
        EXTERN ??aps_CountAllGroups?relay
        FUNCTION ??aps_CountAllGroups?relay,00H
        EXTERN ??aps_FindAllGroupsForEndpoint?relay
        FUNCTION ??aps_FindAllGroupsForEndpoint?relay,00H
        EXTERN ??aps_FindGroup?relay
        FUNCTION ??aps_FindGroup?relay,00H
        EXTERN ??aps_RemoveAllGroup?relay
        FUNCTION ??aps_RemoveAllGroup?relay,00H
        EXTERN ??aps_RemoveGroup?relay
        FUNCTION ??aps_RemoveGroup?relay,00H
        EXTERN ??osal_mem_alloc?relay
        FUNCTION ??osal_mem_alloc?relay,00H
        EXTERN ??osal_mem_free?relay
        FUNCTION ??osal_mem_free?relay,00H
        EXTERN ??osal_memcpy?relay
        FUNCTION ??osal_memcpy?relay,00H
        EXTERN ??osal_memset?relay
        FUNCTION ??osal_memset?relay,00H
        EXTERN ??osal_nv_item_init?relay
        FUNCTION ??osal_nv_item_init?relay,00H
        EXTERN ??osal_nv_read?relay
        FUNCTION ??osal_nv_read?relay,00H
        EXTERN ??osal_nv_write?relay
        FUNCTION ??osal_nv_write?relay,00H
        EXTERN ??zcl_ReadAttrData?relay
        FUNCTION ??zcl_ReadAttrData?relay,00H
        EXTERN ??zcl_SendCommand?relay
        FUNCTION ??zcl_SendCommand?relay,00H
        EXTERN ??zcl_SendDefaultRspCmd?relay
        FUNCTION ??zcl_SendDefaultRspCmd?relay,00H
        EXTERN ??zcl_registerPlugin?relay
        FUNCTION ??zcl_registerPlugin?relay,00H
        EXTERN StubAPS_InterPan
        FUNCTION StubAPS_InterPan,0202H
        ARGFRAME ISTACK, 0, STACK
        ARGFRAME PSTACK, 0, STACK
        ARGFRAME XSTACK, 10, STACK
        ARGFRAME IOVERLAY, 0, STATIC
        ARGFRAME DOVERLAY, 0, STATIC
        EXTERN aps_AddGroup
        FUNCTION aps_AddGroup,0202H
        ARGFRAME ISTACK, 0, STACK
        ARGFRAME PSTACK, 0, STACK
        ARGFRAME XSTACK, 20, STACK
        ARGFRAME IOVERLAY, 0, STATIC
        ARGFRAME DOVERLAY, 0, STATIC
        EXTERN aps_CountAllGroups
        FUNCTION aps_CountAllGroups,0202H
        ARGFRAME ISTACK, 0, STACK
        ARGFRAME PSTACK, 0, STACK
        ARGFRAME XSTACK, 42, STACK
        ARGFRAME IOVERLAY, 0, STATIC
        ARGFRAME DOVERLAY, 0, STATIC
        EXTERN aps_FindAllGroupsForEndpoint
        FUNCTION aps_FindAllGroupsForEndpoint,0202H
        ARGFRAME ISTACK, 0, STACK
        ARGFRAME PSTACK, 0, STACK
        ARGFRAME XSTACK, 42, STACK
        ARGFRAME IOVERLAY, 0, STATIC
        ARGFRAME DOVERLAY, 0, STATIC
        EXTERN aps_FindGroup
        FUNCTION aps_FindGroup,0202H
        ARGFRAME ISTACK, 0, STACK
        ARGFRAME PSTACK, 0, STACK
        ARGFRAME XSTACK, 87, STACK
        ARGFRAME IOVERLAY, 0, STATIC
        ARGFRAME DOVERLAY, 0, STATIC
        EXTERN aps_RemoveAllGroup
        FUNCTION aps_RemoveAllGroup,0202H
        ARGFRAME ISTACK, 0, STACK
        ARGFRAME PSTACK, 0, STACK
        ARGFRAME XSTACK, 42, STACK
        ARGFRAME IOVERLAY, 0, STATIC
        ARGFRAME DOVERLAY, 0, STATIC
        EXTERN aps_RemoveGroup
        FUNCTION aps_RemoveGroup,0202H
        ARGFRAME ISTACK, 0, STACK
        ARGFRAME PSTACK, 0, STACK
        ARGFRAME XSTACK, 42, STACK
        ARGFRAME IOVERLAY, 0, STATIC
        ARGFRAME DOVERLAY, 0, STATIC
        EXTERN osal_mem_alloc
        FUNCTION osal_mem_alloc,0202H
        ARGFRAME ISTACK, 0, STACK
        ARGFRAME PSTACK, 0, STACK
        ARGFRAME XSTACK, 87, STACK
        ARGFRAME IOVERLAY, 0, STATIC
        ARGFRAME DOVERLAY, 0, STATIC
        EXTERN osal_mem_free
        FUNCTION osal_mem_free,0202H
        ARGFRAME ISTACK, 0, STACK
        ARGFRAME PSTACK, 0, STACK
        ARGFRAME XSTACK, 87, STACK
        ARGFRAME IOVERLAY, 0, STATIC
        ARGFRAME DOVERLAY, 0, STATIC
        EXTERN osal_memcpy
        FUNCTION osal_memcpy,0202H
        ARGFRAME ISTACK, 0, STACK
        ARGFRAME PSTACK, 0, STACK
        ARGFRAME XSTACK, 90, STACK
        ARGFRAME IOVERLAY, 0, STATIC
        ARGFRAME DOVERLAY, 0, STATIC
        EXTERN osal_memset
        FUNCTION osal_memset,0202H
        ARGFRAME ISTACK, 0, STACK
        ARGFRAME PSTACK, 0, STACK
        ARGFRAME XSTACK, 87, STACK
        ARGFRAME IOVERLAY, 0, STATIC
        ARGFRAME DOVERLAY, 0, STATIC
        EXTERN osal_nv_item_init
        FUNCTION osal_nv_item_init,0202H
        ARGFRAME ISTACK, 0, STACK
        ARGFRAME PSTACK, 0, STACK
        ARGFRAME XSTACK, 14, STACK
        ARGFRAME IOVERLAY, 0, STATIC
        ARGFRAME DOVERLAY, 0, STATIC
        EXTERN osal_nv_read
        FUNCTION osal_nv_read,0202H
        ARGFRAME ISTACK, 0, STACK
        ARGFRAME PSTACK, 0, STACK
        ARGFRAME XSTACK, 74, STACK
        ARGFRAME IOVERLAY, 0, STATIC
        ARGFRAME DOVERLAY, 0, STATIC
        EXTERN osal_nv_write
        FUNCTION osal_nv_write,0202H
        ARGFRAME ISTACK, 0, STACK
        ARGFRAME PSTACK, 0, STACK
        ARGFRAME XSTACK, 73, STACK
        ARGFRAME IOVERLAY, 0, STATIC
        ARGFRAME DOVERLAY, 0, STATIC
        EXTERN zcl_ReadAttrData
        FUNCTION zcl_ReadAttrData,0202H
        ARGFRAME ISTACK, 0, STACK
        ARGFRAME PSTACK, 0, STACK
        ARGFRAME XSTACK, 91, STACK
        ARGFRAME IOVERLAY, 0, STATIC
        ARGFRAME DOVERLAY, 0, STATIC
        EXTERN zcl_SendCommand
        FUNCTION zcl_SendCommand,0202H
        ARGFRAME ISTACK, 0, STACK
        ARGFRAME PSTACK, 0, STACK
        ARGFRAME XSTACK, 38, STACK
        ARGFRAME IOVERLAY, 0, STATIC
        ARGFRAME DOVERLAY, 0, STATIC
        EXTERN zcl_SendDefaultRspCmd
        FUNCTION zcl_SendDefaultRspCmd,0202H
        ARGFRAME ISTACK, 0, STACK
        ARGFRAME PSTACK, 0, STACK
        ARGFRAME XSTACK, 49, STACK
        ARGFRAME IOVERLAY, 0, STATIC
        ARGFRAME DOVERLAY, 0, STATIC
        EXTERN zcl_registerPlugin
        FUNCTION zcl_registerPlugin,0202H
        ARGFRAME ISTACK, 0, STACK
        ARGFRAME PSTACK, 0, STACK
        ARGFRAME XSTACK, 14, STACK
        ARGFRAME IOVERLAY, 0, STATIC
        ARGFRAME DOVERLAY, 0, STATIC

// D:\Texas Instruments\Z-Stack Lighting 1.0.2\Components\stack\zcl\zcl_general.c
//    1 /**************************************************************************************************
//    2   Filename:       zcl_general.c
//    3   Revised:        $Date: 2013-10-16 16:08:27 -0700 (Wed, 16 Oct 2013) $
//    4   Revision:       $Revision: 35699 $
//    5 
//    6   Description:    Zigbee Cluster Library - General.  This application receives all
//    7                   ZCL messages and initially parses them before passing to application.
//    8 
//    9 
//   10   Copyright 2006-2013 Texas Instruments Incorporated. All rights reserved.
//   11 
//   12   IMPORTANT: Your use of this Software is limited to those specific rights
//   13   granted under the terms of a software license agreement between the user
//   14   who downloaded the software, his/her employer (which must be your employer)
//   15   and Texas Instruments Incorporated (the "License").  You may not use this
//   16   Software unless you agree to abide by the terms of the License. The License
//   17   limits your use, and you acknowledge, that the Software may not be modified,
//   18   copied or distributed unless embedded on a Texas Instruments microcontroller
//   19   or used solely and exclusively in conjunction with a Texas Instruments radio
//   20   frequency transceiver, which is integrated into your product.  Other than for
//   21   the foregoing purpose, you may not use, reproduce, copy, prepare derivative
//   22   works of, modify, distribute, perform, display or sell this Software and/or
//   23   its documentation for any purpose.
//   24 
//   25   YOU FURTHER ACKNOWLEDGE AND AGREE THAT THE SOFTWARE AND DOCUMENTATION ARE
//   26   PROVIDED "AS IS" WITHOUT WARRANTY OF ANY KIND, EITHER EXPRESS OR IMPLIED,
//   27   INCLUDING WITHOUT LIMITATION, ANY WARRANTY OF MERCHANTABILITY, TITLE,
//   28   NON-INFRINGEMENT AND FITNESS FOR A PARTICULAR PURPOSE. IN NO EVENT SHALL
//   29   TEXAS INSTRUMENTS OR ITS LICENSORS BE LIABLE OR OBLIGATED UNDER CONTRACT,
//   30   NEGLIGENCE, STRICT LIABILITY, CONTRIBUTION, BREACH OF WARRANTY, OR OTHER
//   31   LEGAL EQUITABLE THEORY ANY DIRECT OR INDIRECT DAMAGES OR EXPENSES
//   32   INCLUDING BUT NOT LIMITED TO ANY INCIDENTAL, SPECIAL, INDIRECT, PUNITIVE
//   33   OR CONSEQUENTIAL DAMAGES, LOST PROFITS OR LOST DATA, COST OF PROCUREMENT
//   34   OF SUBSTITUTE GOODS, TECHNOLOGY, SERVICES, OR ANY CLAIMS BY THIRD PARTIES
//   35   (INCLUDING BUT NOT LIMITED TO ANY DEFENSE THEREOF), OR OTHER SIMILAR COSTS.
//   36 
//   37   Should you have any questions regarding your right to use this Software,
//   38   contact Texas Instruments Incorporated at www.TI.com.
//   39 **************************************************************************************************/
//   40 
//   41 /*********************************************************************
//   42  * INCLUDES
//   43  */
//   44 #include "ZComDef.h"
//   45 #include "zcl.h"
//   46 #include "zcl_general.h"
//   47 //#include "ZDApp.h"
//   48 #include "zcl_ezmode.h"
//   49 
//   50 #if defined ( INTER_PAN )
//   51   #include "stub_aps.h"
//   52 #endif
//   53 
//   54 #include "dali_thread.h"
//   55 
//   56 /*********************************************************************
//   57  * MACROS
//   58  */
//   59 #define locationTypeAbsolute( a )          ( (a) & LOCATION_TYPE_ABSOLUTE )
//   60 #define locationType2D( a )                ( (a) & LOCATION_TYPE_2_D )
//   61 #define locationTypeCoordinateSystem( a )  ( (a) & LOCATION_TYPE_COORDINATE_SYSTEM )
//   62 
//   63 #ifdef ZCL_SCENES
//   64 #define zclGeneral_ScenesRemaingCapacity() ( ZCL_GEN_MAX_SCENES - zclGeneral_CountAllScenes() )
//   65 #endif // ZCL_SCENES
//   66 
//   67 /*********************************************************************
//   68  * CONSTANTS
//   69  */
//   70 
//   71 /*********************************************************************
//   72  * TYPEDEFS
//   73  */
//   74 typedef struct zclGenCBRec
//   75 {
//   76   struct zclGenCBRec        *next;
//   77   uint8                     endpoint; // Used to link it into the endpoint descriptor
//   78   zclGeneral_AppCallbacks_t *CBs;     // Pointer to Callback function
//   79 } zclGenCBRec_t;
//   80 
//   81 typedef struct zclGenSceneItem
//   82 {
//   83   struct zclGenSceneItem    *next;
//   84   uint8                     endpoint; // Used to link it into the endpoint descriptor
//   85   zclGeneral_Scene_t        scene;    // Scene info
//   86 } zclGenSceneItem_t;
//   87 
//   88 typedef struct zclGenAlarmItem
//   89 {
//   90   struct zclGenAlarmItem    *next;
//   91   uint8                     endpoint; // Used to link it into the endpoint descriptor
//   92   zclGeneral_Alarm_t        alarm;    // Alarm info
//   93 } zclGenAlarmItem_t;
//   94 
//   95 // Scene NV types
//   96 typedef struct
//   97 {
//   98   uint16                    numRecs;
//   99 } nvGenScenesHdr_t;
//  100 
//  101 typedef struct zclGenSceneNVItem
//  102 {
//  103   uint8                     endpoint;
//  104   zclGeneral_Scene_t        scene;
//  105 } zclGenSceneNVItem_t;
//  106 
//  107 /*********************************************************************
//  108  * GLOBAL VARIABLES
//  109  */
//  110 
//  111 /*********************************************************************
//  112  * GLOBAL FUNCTIONS
//  113  */
//  114 
//  115 /*********************************************************************
//  116  * LOCAL VARIABLES
//  117  */

        RSEG XDATA_Z:XDATA:NOROOT(0)
        DATA16
//  118 static zclGenCBRec_t *zclGenCBs = (zclGenCBRec_t *)NULL;
zclGenCBs:
        DS 2
        REQUIRE __INIT_XDATA_Z

        RSEG XDATA_Z:XDATA:NOROOT(0)
        DATA8
//  119 static uint8 zclGenPluginRegisted = FALSE;
zclGenPluginRegisted:
        DS 1
        REQUIRE __INIT_XDATA_Z
//  120 
//  121 #if defined( ZCL_SCENES )
//  122   #if !defined ( ZCL_STANDALONE )

        RSEG XDATA_Z:XDATA:NOROOT(0)
        DATA16
//  123     static zclGenSceneItem_t *zclGenSceneTable = (zclGenSceneItem_t *)NULL;
zclGenSceneTable:
        DS 2
        REQUIRE __INIT_XDATA_Z
//  124   #endif
//  125 #endif // ZCL_SCENES
//  126 
//  127 #ifdef ZCL_ALARMS
//  128 static zclGenAlarmItem_t *zclGenAlarmTable = (zclGenAlarmItem_t *)NULL;
//  129 #endif // ZCL_ALARMS
//  130 
//  131 /*********************************************************************
//  132  * LOCAL FUNCTIONS
//  133  */
//  134 static ZStatus_t zclGeneral_HdlIncoming( zclIncoming_t *pInMsg );
//  135 static ZStatus_t zclGeneral_HdlInSpecificCommands( zclIncoming_t *pInMsg );
//  136 static ZStatus_t zclGeneral_HdlInManuSpecificCommands( zclIncoming_t *pInMsg );//add my own function
//  137 static zclGeneral_AppCallbacks_t *zclGeneral_FindCallbacks( uint8 endpoint );
//  138 
//  139 // Device Configuration and Installation clusters
//  140 #ifdef ZCL_BASIC
//  141 static ZStatus_t zclGeneral_ProcessInBasic( zclIncoming_t *pInMsg, zclGeneral_AppCallbacks_t *pCBs );
//  142 #endif // ZCL_BASIC
//  143 
//  144 #ifdef ZCL_IDENTIFY
//  145 static ZStatus_t zclGeneral_ProcessInIdentity( zclIncoming_t *pInMsg, zclGeneral_AppCallbacks_t *pCBs );
//  146 #endif // ZCL_IDENTIFY
//  147 
//  148 // Groups and Scenes clusters
//  149 #ifdef ZCL_GROUPS
//  150 static ZStatus_t zclGeneral_ProcessInGroupsServer( zclIncoming_t *pInMsg );
//  151 static ZStatus_t zclGeneral_ProcessInGroupsClient( zclIncoming_t *pInMsg, zclGeneral_AppCallbacks_t *pCBs );
//  152 static ZStatus_t zclGeneral_AddGroup( uint8 endPoint, aps_Group_t *group, uint8 *pData );
//  153 #endif // ZCL_GROUPS
//  154 
//  155 #ifdef ZCL_SCENES
//  156 static ZStatus_t zclGeneral_ProcessInScenesServer( zclIncoming_t *pInMsg, zclGeneral_AppCallbacks_t *pCBs );
//  157 static ZStatus_t zclGeneral_ProcessInScenesClient( zclIncoming_t *pInMsg, zclGeneral_AppCallbacks_t *pCBs );
//  158 #endif // ZCL_SCENES
//  159 
//  160 // On/Off and Level Control Configuration clusters
//  161 #ifdef ZCL_ON_OFF
//  162 static ZStatus_t zclGeneral_ProcessInOnOff( zclIncoming_t *pInMsg, zclGeneral_AppCallbacks_t *pCBs );
//  163 static ZStatus_t zclGeneral_ProcessInManuOnOff( zclIncoming_t *pInMsg, zclGeneral_AppCallbacks_t *pCBs );
//  164 #endif // ZCL_ONOFF
//  165 
//  166 #ifdef ZCL_LEVEL_CTRL
//  167 static ZStatus_t zclGeneral_ProcessInLevelControl( zclIncoming_t *pInMsg, zclGeneral_AppCallbacks_t *pCBs );
//  168 static ZStatus_t zclGeneral_ProcessInManuLevelControl( zclIncoming_t *pInMsg, zclGeneral_AppCallbacks_t *pCBs );
//  169 #endif // ZCL_LEVEL_CTRL
//  170 
//  171 // Alarms cluster
//  172 #ifdef ZCL_ALARMS
//  173 static ZStatus_t zclGeneral_ProcessInAlarmsServer( zclIncoming_t *pInMsg, zclGeneral_AppCallbacks_t *pCBs );
//  174 static ZStatus_t zclGeneral_ProcessInAlarmsClient( zclIncoming_t *pInMsg, zclGeneral_AppCallbacks_t *pCBs );
//  175 #endif // ZCL_ALARMS
//  176 
//  177 // Location cluster
//  178 #ifdef ZCL_LOCATION
//  179 static ZStatus_t zclGeneral_ProcessInLocationServer( zclIncoming_t *pInMsg, zclGeneral_AppCallbacks_t *pCBs );
//  180 static ZStatus_t zclGeneral_ProcessInLocationClient( zclIncoming_t *pInMsg, zclGeneral_AppCallbacks_t *pCBs );
//  181 #endif // ZCL_LOCATION
//  182 
//  183 #ifdef ZCL_SCENES
//  184   #if !defined ( ZCL_STANDALONE )
//  185     static uint8 zclGeneral_ScenesInitNV( void );
//  186     static void zclGeneral_ScenesSetDefaultNV( void );
//  187     static void zclGeneral_ScenesWriteNV( void );
//  188     static uint16 zclGeneral_ScenesRestoreFromNV( void );
//  189   #endif
//  190 #endif // ZCL_SCENES
//  191 
//  192 /*********************************************************************
//  193  * @fn      zclGeneral_RegisterCmdCallbacks
//  194  *
//  195  * @brief   Register an applications command callbacks
//  196  *
//  197  * @param   endpoint - application's endpoint
//  198  * @param   callbacks - pointer to the callback record.
//  199  *
//  200  * @return  ZMemError if not able to allocate
//  201  */

        RSEG BANKED_CODE:CODE:NOROOT(0)
//  202 ZStatus_t zclGeneral_RegisterCmdCallbacks( uint8 endpoint, zclGeneral_AppCallbacks_t *callbacks )
zclGeneral_RegisterCmdCallbacks:
          CFI Block cfiBlock0 Using cfiCommon0
          CFI Function zclGeneral_RegisterCmdCallbacks
        CODE
//  203 {
        FUNCALL zclGeneral_RegisterCmdCallbacks, zcl_registerPlugin
        LOCFRAME ISTACK, 0, STACK
        LOCFRAME PSTACK, 0, STACK
        LOCFRAME XSTACK, 14, STACK
        LOCFRAME IOVERLAY, 0, STATIC
        LOCFRAME DOVERLAY, 0, STATIC
        ARGFRAME ISTACK, 0, STACK
        ARGFRAME PSTACK, 0, STACK
        ARGFRAME XSTACK, 14, STACK
        ARGFRAME IOVERLAY, 0, STATIC
        ARGFRAME DOVERLAY, 0, STATIC
        FUNCALL zclGeneral_RegisterCmdCallbacks, zclGeneral_ScenesInit
        LOCFRAME ISTACK, 0, STACK
        LOCFRAME PSTACK, 0, STACK
        LOCFRAME XSTACK, 12, STACK
        LOCFRAME IOVERLAY, 0, STATIC
        LOCFRAME DOVERLAY, 0, STATIC
        ARGFRAME ISTACK, 0, STACK
        ARGFRAME PSTACK, 0, STACK
        ARGFRAME XSTACK, 12, STACK
        ARGFRAME IOVERLAY, 0, STATIC
        ARGFRAME DOVERLAY, 0, STATIC
        FUNCALL zclGeneral_RegisterCmdCallbacks, osal_mem_alloc
        LOCFRAME ISTACK, 0, STACK
        LOCFRAME PSTACK, 0, STACK
        LOCFRAME XSTACK, 12, STACK
        LOCFRAME IOVERLAY, 0, STATIC
        LOCFRAME DOVERLAY, 0, STATIC
        ARGFRAME ISTACK, 0, STACK
        ARGFRAME PSTACK, 0, STACK
        ARGFRAME XSTACK, 12, STACK
        ARGFRAME IOVERLAY, 0, STATIC
        ARGFRAME DOVERLAY, 0, STATIC
        MOV     A,#-0xc
        LCALL   ?BANKED_ENTER_XDATA
          CFI DPH0 load(1, XDATA, add(CFA_XSP16, literal(-1)))
          CFI DPL0 load(1, XDATA, add(CFA_XSP16, literal(-2)))
          CFI ?BRET_EXT load(1, XDATA, add(CFA_XSP16, literal(-3)))
          CFI ?RET_HIGH load(1, XDATA, add(CFA_XSP16, literal(-4)))
          CFI ?RET_LOW load(1, XDATA, add(CFA_XSP16, literal(-5)))
          CFI R7 load(1, XDATA, add(CFA_XSP16, literal(-6)))
          CFI V3 load(1, XDATA, add(CFA_XSP16, literal(-7)))
          CFI V2 load(1, XDATA, add(CFA_XSP16, literal(-8)))
          CFI V1 load(1, XDATA, add(CFA_XSP16, literal(-9)))
          CFI V0 load(1, XDATA, add(CFA_XSP16, literal(-10)))
          CFI VB load(1, XDATA, add(CFA_XSP16, literal(-11)))
          CFI R6 load(1, XDATA, add(CFA_XSP16, literal(-12)))
          CFI CFA_SP SP+0
          CFI CFA_XSP16 add(XSP16, 12)
        ; Saved register size: 12
        ; Auto size: 0
        MOV     ?V0 + 0,R1
        MOV     A,R2
        MOV     R6,A
        MOV     A,R3
        MOV     R7,A
//  204   zclGenCBRec_t *pNewItem;
//  205   zclGenCBRec_t *pLoop;
//  206 
//  207   // Register as a ZCL Plugin
//  208   if ( zclGenPluginRegisted == FALSE )
        MOV     DPTR,#zclGenPluginRegisted
        MOVX    A,@DPTR
        JNZ     ??zclGeneral_RegisterCmdCallbacks_0
//  209   {
//  210     zcl_registerPlugin( ZCL_CLUSTER_ID_GEN_BASIC,
//  211                         ZCL_CLUSTER_ID_GEN_MULTISTATE_VALUE_BASIC,
//  212                         zclGeneral_HdlIncoming );
        ; Setup parameters for call to function zcl_registerPlugin
        MOV     ?V0 + 2,#??zclGeneral_HdlIncoming?relay & 0xff
        MOV     ?V0 + 3,#(??zclGeneral_HdlIncoming?relay >> 8) & 0xff
        MOV     R0,#?V0 + 2
        LCALL   ?PUSH_XSTACK_I_TWO
          CFI CFA_XSP16 add(XSP16, 14)
        MOV     R4,#0x14
        MOV     R5,#0x0
        MOV     R2,#0x0
        MOV     R3,#0x0
        LCALL   ??zcl_registerPlugin?relay
        MOV     A,#0x2
        LCALL   ?DEALLOC_XSTACK8
          CFI CFA_XSP16 add(XSP16, 12)
//  213 
//  214 #ifdef ZCL_SCENES
//  215     // Initialize the Scenes Table
//  216     zclGeneral_ScenesInit();
        ; Setup parameters for call to function zclGeneral_ScenesInit
        LCALL   ??zclGeneral_ScenesInit?relay
//  217 #endif // ZCL_SCENES
//  218 
//  219     zclGenPluginRegisted = TRUE;
        MOV     DPTR,#zclGenPluginRegisted
        MOV     A,#0x1
        MOVX    @DPTR,A
//  220   }
//  221 
//  222   // Fill in the new profile list
//  223   pNewItem = zcl_mem_alloc( sizeof( zclGenCBRec_t ) );
??zclGeneral_RegisterCmdCallbacks_0:
        ; Setup parameters for call to function osal_mem_alloc
        MOV     R2,#0x5
        MOV     R3,#0x0
        LCALL   ??osal_mem_alloc?relay
        MOV     ?V0 + 2,R2
        MOV     ?V0 + 3,R3
        MOV     R0,?V0 + 2
        MOV     R1,?V0 + 3
//  224   if ( pNewItem == NULL )
        MOV     A,R0
        ORL     A,R1
        JNZ     ??zclGeneral_RegisterCmdCallbacks_1
//  225     return (ZMemError);
        MOV     R1,#0x10
        SJMP    ??zclGeneral_RegisterCmdCallbacks_2
//  226 
//  227   pNewItem->next = (zclGenCBRec_t *)NULL;
??zclGeneral_RegisterCmdCallbacks_1:
        MOV     DPL,R0
        MOV     DPH,R1
        CLR     A
        MOVX    @DPTR,A
        INC     DPTR
        LCALL   ?Subroutine58 & 0xFFFF
//  228   pNewItem->endpoint = endpoint;
??CrossCallReturnLabel_90:
        INC     DPTR
        INC     DPTR
        MOV     A,?V0 + 0
        LCALL   ?Subroutine58 & 0xFFFF
//  229   pNewItem->CBs = callbacks;
??CrossCallReturnLabel_91:
        INC     DPTR
        INC     DPTR
        INC     DPTR
        MOV     A,R6
        MOVX    @DPTR,A
        INC     DPTR
        MOV     A,R7
        MOVX    @DPTR,A
//  230 
//  231   // Find spot in list
//  232   if (  zclGenCBs == NULL )
        MOV     DPTR,#zclGenCBs
        LCALL   ??Subroutine126_0 & 0xFFFF
??CrossCallReturnLabel_309:
        MOV     DPTR,#zclGenCBs
        JZ      ??zclGeneral_RegisterCmdCallbacks_3
//  233   {
//  234     zclGenCBs = pNewItem;
//  235   }
//  236   else
//  237   {
//  238     // Look for end of list
//  239     pLoop = zclGenCBs;
        MOVX    A,@DPTR
        MOV     R4,A
        INC     DPTR
        MOVX    A,@DPTR
        SJMP    ??zclGeneral_RegisterCmdCallbacks_4
//  240     while ( pLoop->next != NULL )
//  241       pLoop = pLoop->next;
??zclGeneral_RegisterCmdCallbacks_5:
        MOV     A,R2
        MOV     R4,A
        MOV     A,R3
??zclGeneral_RegisterCmdCallbacks_4:
        LCALL   ??Subroutine125_0 & 0xFFFF
??CrossCallReturnLabel_306:
        JNZ     ??zclGeneral_RegisterCmdCallbacks_5
//  242 
//  243     // Put new item at end of list
//  244     pLoop->next = pNewItem;
        MOV     DPL,R4
        MOV     DPH,R5
//  245   }
??zclGeneral_RegisterCmdCallbacks_3:
        LCALL   ?Subroutine64 & 0xFFFF
//  246 
//  247   return ( ZSuccess );
??CrossCallReturnLabel_255:
        MOV     R1,#0x0
??zclGeneral_RegisterCmdCallbacks_2:
        LJMP    ??Subroutine109_0 & 0xFFFF
          CFI EndBlock cfiBlock0
//  248 }
//  249 
//  250 #ifdef ZCL_IDENTIFY
//  251 /*********************************************************************
//  252  * @fn      zclGeneral_SendIdentify
//  253  *
//  254  * @brief   Call to send out an Identify Command
//  255  *
//  256  * @param   srcEP - Sending application's endpoint
//  257  * @param   dstAddr - where you want the message to go
//  258  * @param   identifyTime - how long the device will continue to identify itself (in seconds)
//  259  * @param   seqNum - identification number for the transaction
//  260  *
//  261  * @return  ZStatus_t
//  262  */

        RSEG BANKED_CODE:CODE:NOROOT(0)
//  263 ZStatus_t zclGeneral_SendIdentify( uint8 srcEP, afAddrType_t *dstAddr,
zclGeneral_SendIdentify:
          CFI Block cfiBlock1 Using cfiCommon0
          CFI Function zclGeneral_SendIdentify
        CODE
//  264                                    uint16 identifyTime, uint8 disableDefaultRsp, uint8 seqNum )
//  265 {
        FUNCALL zclGeneral_SendIdentify, zcl_SendCommand
        LOCFRAME ISTACK, 0, STACK
        LOCFRAME PSTACK, 0, STACK
        LOCFRAME XSTACK, 23, STACK
        LOCFRAME IOVERLAY, 0, STATIC
        LOCFRAME DOVERLAY, 0, STATIC
        ARGFRAME ISTACK, 0, STACK
        ARGFRAME PSTACK, 0, STACK
        ARGFRAME XSTACK, 23, STACK
        ARGFRAME IOVERLAY, 0, STATIC
        ARGFRAME DOVERLAY, 0, STATIC
        MOV     A,#-0xa
        LCALL   ?BANKED_ENTER_XDATA
          CFI DPH0 load(1, XDATA, add(CFA_XSP16, literal(-1)))
          CFI DPL0 load(1, XDATA, add(CFA_XSP16, literal(-2)))
          CFI ?BRET_EXT load(1, XDATA, add(CFA_XSP16, literal(-3)))
          CFI ?RET_HIGH load(1, XDATA, add(CFA_XSP16, literal(-4)))
          CFI ?RET_LOW load(1, XDATA, add(CFA_XSP16, literal(-5)))
          CFI R7 load(1, XDATA, add(CFA_XSP16, literal(-6)))
          CFI V1 load(1, XDATA, add(CFA_XSP16, literal(-7)))
          CFI V0 load(1, XDATA, add(CFA_XSP16, literal(-8)))
          CFI VB load(1, XDATA, add(CFA_XSP16, literal(-9)))
          CFI R6 load(1, XDATA, add(CFA_XSP16, literal(-10)))
          CFI CFA_SP SP+0
          CFI CFA_XSP16 add(XSP16, 10)
        ; Saved register size: 10
        ; Auto size: 2
        MOV     A,#-0x2
        LCALL   ?ALLOC_XSTACK8
          CFI CFA_XSP16 add(XSP16, 12)
        MOV     A,R1
        MOV     R6,A
        MOV     A,#0xc
        LCALL   ?XSTACK_DISP0_8
        MOVX    A,@DPTR
        MOV     R1,A
        MOV     A,#0xd
        LCALL   ?XSTACK_DISP0_8
        LCALL   ?Subroutine37 & 0xFFFF
//  266   uint8 buf[2];
//  267 
//  268   buf[0] = LO_UINT16( identifyTime );
//  269   buf[1] = HI_UINT16( identifyTime );
??CrossCallReturnLabel_45:
        LCALL   ?XSTACK_DISP0_8
        LCALL   ?Subroutine52 & 0xFFFF
//  270 
//  271   return zcl_SendCommand( srcEP, dstAddr, ZCL_CLUSTER_ID_GEN_IDENTIFY,
//  272                           COMMAND_IDENTIFY, TRUE, ZCL_FRAME_CLIENT_SERVER_DIR,
//  273                           disableDefaultRsp, 0, seqNum, 2, buf );
??CrossCallReturnLabel_155:
        LCALL   ?PUSH_XSTACK_I_TWO
          CFI CFA_XSP16 add(XSP16, 14)
        MOV     ?V0 + 0,#0x2
        MOV     ?V0 + 1,#0x0
        MOV     R0,#?V0 + 0
        LCALL   ?PUSH_XSTACK_I_TWO
          CFI CFA_XSP16 add(XSP16, 16)
        MOV     A,R7
        MOV     ?V0 + 0,A
        MOV     R0,#?V0 + 0
        LCALL   ?PUSH_XSTACK_I_ONE
          CFI CFA_XSP16 add(XSP16, 17)
        CLR     A
        MOV     ?V0 + 0,A
        MOV     R0,#?V0 + 0
        LCALL   ?PUSH_XSTACK_I_TWO
          CFI CFA_XSP16 add(XSP16, 19)
        MOV     A,R1
        MOV     ?V0 + 0,A
        MOV     R0,#?V0 + 0
        LCALL   ?PUSH_XSTACK_I_ONE
          CFI CFA_XSP16 add(XSP16, 20)
        MOV     ?V0 + 0,#0x0
        MOV     R0,#?V0 + 0
        LCALL   ?PUSH_XSTACK_I_ONE
          CFI CFA_XSP16 add(XSP16, 21)
        MOV     ?V0 + 0,#0x1
        LJMP    ?Subroutine1 & 0xFFFF
          CFI EndBlock cfiBlock1
//  274 }
//  275 
//  276 /*********************************************************************
//  277  * @fn      zclGeneral_SendIdentifyEZModeInvoke
//  278  *
//  279  * @brief   Call to send out an Identify EZ-Mode Invoke Command
//  280  *
//  281  * @param   srcEP - Sending application's endpoint
//  282  * @param   dstAddr - where you want the message to go
//  283  * @param   action - describes the EZ-Mode action to be performed
//  284  * @param   seqNum - identification number for the transaction
//  285  *
//  286  * @return  ZStatus_t
//  287  */

        RSEG BANKED_CODE:CODE:NOROOT(0)
//  288 ZStatus_t zclGeneral_SendIdentifyEZModeInvoke( uint8 srcEP, afAddrType_t *dstAddr,
zclGeneral_SendIdentifyEZModeInvoke:
          CFI Block cfiBlock2 Using cfiCommon0
          CFI Function zclGeneral_SendIdentifyEZModeInvoke
        CODE
//  289                                                uint8 action, uint8 disableDefaultRsp, uint8 seqNum )
//  290 {
        FUNCALL zclGeneral_SendIdentifyEZModeInvoke, zcl_SendCommand
        LOCFRAME ISTACK, 0, STACK
        LOCFRAME PSTACK, 0, STACK
        LOCFRAME XSTACK, 23, STACK
        LOCFRAME IOVERLAY, 0, STATIC
        LOCFRAME DOVERLAY, 0, STATIC
        ARGFRAME ISTACK, 0, STACK
        ARGFRAME PSTACK, 0, STACK
        ARGFRAME XSTACK, 23, STACK
        ARGFRAME IOVERLAY, 0, STATIC
        ARGFRAME DOVERLAY, 0, STATIC
        MOV     A,#-0xb
        LCALL   ?BANKED_ENTER_XDATA
          CFI DPH0 load(1, XDATA, add(CFA_XSP16, literal(-1)))
          CFI DPL0 load(1, XDATA, add(CFA_XSP16, literal(-2)))
          CFI ?BRET_EXT load(1, XDATA, add(CFA_XSP16, literal(-3)))
          CFI ?RET_HIGH load(1, XDATA, add(CFA_XSP16, literal(-4)))
          CFI ?RET_LOW load(1, XDATA, add(CFA_XSP16, literal(-5)))
          CFI R7 load(1, XDATA, add(CFA_XSP16, literal(-6)))
          CFI V2 load(1, XDATA, add(CFA_XSP16, literal(-7)))
          CFI V1 load(1, XDATA, add(CFA_XSP16, literal(-8)))
          CFI V0 load(1, XDATA, add(CFA_XSP16, literal(-9)))
          CFI VB load(1, XDATA, add(CFA_XSP16, literal(-10)))
          CFI R6 load(1, XDATA, add(CFA_XSP16, literal(-11)))
          CFI CFA_SP SP+0
          CFI CFA_XSP16 add(XSP16, 11)
        ; Saved register size: 11
        ; Auto size: 1
        MOV     A,#-0x1
        LCALL   ?ALLOC_XSTACK8
          CFI CFA_XSP16 add(XSP16, 12)
        MOV     A,R1
        MOV     R6,A
        MOV     A,R5
        MOV     R7,A
        MOV     A,#0xc
        LCALL   ?XSTACK_DISP0_8
        MOVX    A,@DPTR
        MOV     R1,A
//  291   uint8 buf[1];
//  292 
//  293   buf[0] = action;
        MOV     DPL,?XSP + 0
        MOV     DPH,?XSP + 1
        MOV     A,R4
        MOVX    @DPTR,A
//  294 
//  295   return zcl_SendCommand( srcEP, dstAddr, ZCL_CLUSTER_ID_GEN_IDENTIFY,
//  296                           COMMAND_IDENTIFY_EZMODE_INVOKE, TRUE, ZCL_FRAME_CLIENT_SERVER_DIR,
//  297                           disableDefaultRsp, 0, seqNum, 1, buf );
        ; Setup parameters for call to function zcl_SendCommand
        MOV     ?V0 + 0,DPL
        MOV     ?V0 + 1,DPH
        MOV     R0,#?V0 + 0
        LCALL   ?PUSH_XSTACK_I_TWO
          CFI CFA_XSP16 add(XSP16, 14)
        MOV     ?V0 + 0,#0x1
        MOV     ?V0 + 1,#0x0
        MOV     R0,#?V0 + 0
        LCALL   ?PUSH_XSTACK_I_TWO
          CFI CFA_XSP16 add(XSP16, 16)
        MOV     A,R1
        MOV     ?V0 + 0,A
        MOV     R0,#?V0 + 0
        LCALL   ?PUSH_XSTACK_I_ONE
          CFI CFA_XSP16 add(XSP16, 17)
        CLR     A
        MOV     ?V0 + 0,A
        MOV     R0,#?V0 + 0
        LCALL   ?PUSH_XSTACK_I_TWO
          CFI CFA_XSP16 add(XSP16, 19)
        MOV     A,R7
        MOV     ?V0 + 0,A
        MOV     R0,#?V0 + 0
        LCALL   ?PUSH_XSTACK_I_ONE
          CFI CFA_XSP16 add(XSP16, 20)
        MOV     ?V0 + 0,#0x0
        MOV     R0,#?V0 + 0
        LCALL   ?PUSH_XSTACK_I_ONE
          CFI CFA_XSP16 add(XSP16, 21)
        MOV     ?V0 + 0,#0x1
        MOV     R0,#?V0 + 0
        LCALL   ?PUSH_XSTACK_I_ONE
          CFI CFA_XSP16 add(XSP16, 22)
        MOV     ?V0 + 0,#0x2
        MOV     R0,#?V0 + 0
        LCALL   ?PUSH_XSTACK_I_ONE
          CFI CFA_XSP16 add(XSP16, 23)
        MOV     R4,#0x3
        MOV     R5,#0x0
        MOV     A,R6
        MOV     R1,A
        LCALL   ??zcl_SendCommand?relay
        MOV     A,#0xb
        LCALL   ?DEALLOC_XSTACK8
          CFI CFA_XSP16 add(XSP16, 12)
        MOV     A,#0x1
        LJMP    ??Subroutine107_0 & 0xFFFF
          CFI EndBlock cfiBlock2
//  298 }
//  299 
//  300 /*********************************************************************
//  301  * @fn      zclGeneral_SendIdentifyUpdateCommState
//  302  *
//  303  * @brief   Call to send out an Identify Update Commission State Command
//  304  *
//  305  * @param   srcEP - Sending application's endpoint
//  306  * @param   dstAddr - where you want the message to go
//  307  * @param   action - describes the EZ-Mode action to be performed
//  308  * @param   commissionStateMask - updates the device's commission state
//  309  * @param   seqNum - identification number for the transaction
//  310  *
//  311  * @return  ZStatus_t
//  312  */

        RSEG BANKED_CODE:CODE:NOROOT(0)
//  313 ZStatus_t zclGeneral_SendIdentifyUpdateCommState( uint8 srcEP, afAddrType_t *dstAddr,
zclGeneral_SendIdentifyUpdateCommState:
          CFI Block cfiBlock3 Using cfiCommon0
          CFI Function zclGeneral_SendIdentifyUpdateCommState
        CODE
//  314                                                   uint8 action, uint8 commissionStateMask,
//  315                                                   uint8 disableDefaultRsp, uint8 seqNum )
//  316 {
        FUNCALL zclGeneral_SendIdentifyUpdateCommState, zcl_SendCommand
        LOCFRAME ISTACK, 0, STACK
        LOCFRAME PSTACK, 0, STACK
        LOCFRAME XSTACK, 24, STACK
        LOCFRAME IOVERLAY, 0, STATIC
        LOCFRAME DOVERLAY, 0, STATIC
        ARGFRAME ISTACK, 0, STACK
        ARGFRAME PSTACK, 0, STACK
        ARGFRAME XSTACK, 24, STACK
        ARGFRAME IOVERLAY, 0, STATIC
        ARGFRAME DOVERLAY, 0, STATIC
        MOV     A,#-0xb
        LCALL   ?BANKED_ENTER_XDATA
          CFI DPH0 load(1, XDATA, add(CFA_XSP16, literal(-1)))
          CFI DPL0 load(1, XDATA, add(CFA_XSP16, literal(-2)))
          CFI ?BRET_EXT load(1, XDATA, add(CFA_XSP16, literal(-3)))
          CFI ?RET_HIGH load(1, XDATA, add(CFA_XSP16, literal(-4)))
          CFI ?RET_LOW load(1, XDATA, add(CFA_XSP16, literal(-5)))
          CFI R7 load(1, XDATA, add(CFA_XSP16, literal(-6)))
          CFI V2 load(1, XDATA, add(CFA_XSP16, literal(-7)))
          CFI V1 load(1, XDATA, add(CFA_XSP16, literal(-8)))
          CFI V0 load(1, XDATA, add(CFA_XSP16, literal(-9)))
          CFI VB load(1, XDATA, add(CFA_XSP16, literal(-10)))
          CFI R6 load(1, XDATA, add(CFA_XSP16, literal(-11)))
          CFI CFA_SP SP+0
          CFI CFA_XSP16 add(XSP16, 11)
        ; Saved register size: 11
        ; Auto size: 2
        MOV     A,#-0x2
        LCALL   ?ALLOC_XSTACK8
          CFI CFA_XSP16 add(XSP16, 13)
        MOV     A,R1
        MOV     R6,A
        MOV     A,R4
        MOV     R7,A
        MOV     A,#0xd
        LCALL   ?XSTACK_DISP0_8
        MOVX    A,@DPTR
        MOV     R1,A
        MOV     A,#0xe
        LCALL   ?XSTACK_DISP0_8
        LCALL   ?Subroutine23 & 0xFFFF
//  317   uint8 buf[2];
//  318 
//  319   buf[0] = action;
//  320   buf[1] = commissionStateMask;
??CrossCallReturnLabel_19:
        LCALL   ?XSTACK_DISP0_8
        LCALL   ?Subroutine52 & 0xFFFF
//  321 
//  322   return zcl_SendCommand( srcEP, dstAddr, ZCL_CLUSTER_ID_GEN_IDENTIFY,
//  323                           COMMAND_IDENTIFY_UPDATE_COMMISSION_STATE, TRUE, ZCL_FRAME_CLIENT_SERVER_DIR,
//  324                           disableDefaultRsp, 0, seqNum, 2, buf );
??CrossCallReturnLabel_156:
        LCALL   ?PUSH_XSTACK_I_TWO
          CFI CFA_XSP16 add(XSP16, 15)
        MOV     ?V0 + 0,#0x2
        MOV     ?V0 + 1,#0x0
        MOV     R0,#?V0 + 0
        LCALL   ?PUSH_XSTACK_I_TWO
          CFI CFA_XSP16 add(XSP16, 17)
        MOV     A,R4
        MOV     ?V0 + 0,A
        MOV     R0,#?V0 + 0
        LCALL   ?PUSH_XSTACK_I_ONE
          CFI CFA_XSP16 add(XSP16, 18)
        CLR     A
        MOV     ?V0 + 0,A
        MOV     R0,#?V0 + 0
        LCALL   ?PUSH_XSTACK_I_TWO
          CFI CFA_XSP16 add(XSP16, 20)
        MOV     A,R1
        MOV     ?V0 + 0,A
        MOV     R0,#?V0 + 0
        LCALL   ?PUSH_XSTACK_I_ONE
          CFI CFA_XSP16 add(XSP16, 21)
        MOV     ?V0 + 0,#0x0
        MOV     R0,#?V0 + 0
        LCALL   ?PUSH_XSTACK_I_ONE
          CFI CFA_XSP16 add(XSP16, 22)
        MOV     ?V0 + 0,#0x1
        MOV     R0,#?V0 + 0
        LCALL   ?PUSH_XSTACK_I_ONE
          CFI CFA_XSP16 add(XSP16, 23)
        MOV     ?V0 + 0,#0x3
        LJMP    ?Subroutine2 & 0xFFFF
          CFI EndBlock cfiBlock3

        RSEG BANKED_CODE:CODE:NOROOT(0)
?Subroutine52:
          CFI Block cfiCond4 Using cfiCommon0
          CFI Function zclGeneral_SendIdentify
          CFI Conditional ??CrossCallReturnLabel_155
          CFI R6 load(1, XDATA, add(CFA_XSP16, literal(-10)))
          CFI VB load(1, XDATA, add(CFA_XSP16, literal(-9)))
          CFI V0 load(1, XDATA, add(CFA_XSP16, literal(-8)))
          CFI V1 load(1, XDATA, add(CFA_XSP16, literal(-7)))
          CFI R7 load(1, XDATA, add(CFA_XSP16, literal(-6)))
          CFI ?RET_LOW load(1, XDATA, add(CFA_XSP16, literal(-5)))
          CFI ?RET_HIGH load(1, XDATA, add(CFA_XSP16, literal(-4)))
          CFI ?BRET_EXT load(1, XDATA, add(CFA_XSP16, literal(-3)))
          CFI DPL0 load(1, XDATA, add(CFA_XSP16, literal(-2)))
          CFI DPH0 load(1, XDATA, add(CFA_XSP16, literal(-1)))
          CFI CFA_SP SP+0
          CFI CFA_XSP16 add(XSP16, 12)
          CFI Block cfiCond5 Using cfiCommon0
          CFI (cfiCond5) Function zclGeneral_SendIdentifyUpdateCommState
          CFI (cfiCond5) Conditional ??CrossCallReturnLabel_156
          CFI (cfiCond5) R6 load(1, XDATA, add(CFA_XSP16, literal(-11)))
          CFI (cfiCond5) VB load(1, XDATA, add(CFA_XSP16, literal(-10)))
          CFI (cfiCond5) V0 load(1, XDATA, add(CFA_XSP16, literal(-9)))
          CFI (cfiCond5) V1 load(1, XDATA, add(CFA_XSP16, literal(-8)))
          CFI (cfiCond5) V2 load(1, XDATA, add(CFA_XSP16, literal(-7)))
          CFI (cfiCond5) R7 load(1, XDATA, add(CFA_XSP16, literal(-6)))
          CFI (cfiCond5) ?RET_LOW load(1, XDATA, add(CFA_XSP16, literal(-5)))
          CFI (cfiCond5) ?RET_HIGH load(1, XDATA, add(CFA_XSP16, literal(-4)))
          CFI (cfiCond5) ?BRET_EXT load(1, XDATA, add(CFA_XSP16, literal(-3)))
          CFI (cfiCond5) DPL0 load(1, XDATA, add(CFA_XSP16, literal(-2)))
          CFI (cfiCond5) DPH0 load(1, XDATA, add(CFA_XSP16, literal(-1)))
          CFI (cfiCond5) CFA_SP SP+0
          CFI (cfiCond5) CFA_XSP16 add(XSP16, 13)
          CFI Block cfiCond6 Using cfiCommon0
          CFI (cfiCond6) Function zclGeneral_SendIdentifyTriggerEffect
          CFI (cfiCond6) Conditional ??CrossCallReturnLabel_157
          CFI (cfiCond6) R6 load(1, XDATA, add(CFA_XSP16, literal(-11)))
          CFI (cfiCond6) VB load(1, XDATA, add(CFA_XSP16, literal(-10)))
          CFI (cfiCond6) V0 load(1, XDATA, add(CFA_XSP16, literal(-9)))
          CFI (cfiCond6) V1 load(1, XDATA, add(CFA_XSP16, literal(-8)))
          CFI (cfiCond6) V2 load(1, XDATA, add(CFA_XSP16, literal(-7)))
          CFI (cfiCond6) R7 load(1, XDATA, add(CFA_XSP16, literal(-6)))
          CFI (cfiCond6) ?RET_LOW load(1, XDATA, add(CFA_XSP16, literal(-5)))
          CFI (cfiCond6) ?RET_HIGH load(1, XDATA, add(CFA_XSP16, literal(-4)))
          CFI (cfiCond6) ?BRET_EXT load(1, XDATA, add(CFA_XSP16, literal(-3)))
          CFI (cfiCond6) DPL0 load(1, XDATA, add(CFA_XSP16, literal(-2)))
          CFI (cfiCond6) DPH0 load(1, XDATA, add(CFA_XSP16, literal(-1)))
          CFI (cfiCond6) CFA_SP SP+0
          CFI (cfiCond6) CFA_XSP16 add(XSP16, 13)
          CFI Block cfiCond7 Using cfiCommon0
          CFI (cfiCond7) Function zclGeneral_SendIdentifyQueryResponse
          CFI (cfiCond7) Conditional ??CrossCallReturnLabel_158
          CFI (cfiCond7) R6 load(1, XDATA, add(CFA_XSP16, literal(-10)))
          CFI (cfiCond7) VB load(1, XDATA, add(CFA_XSP16, literal(-9)))
          CFI (cfiCond7) V0 load(1, XDATA, add(CFA_XSP16, literal(-8)))
          CFI (cfiCond7) V1 load(1, XDATA, add(CFA_XSP16, literal(-7)))
          CFI (cfiCond7) R7 load(1, XDATA, add(CFA_XSP16, literal(-6)))
          CFI (cfiCond7) ?RET_LOW load(1, XDATA, add(CFA_XSP16, literal(-5)))
          CFI (cfiCond7) ?RET_HIGH load(1, XDATA, add(CFA_XSP16, literal(-4)))
          CFI (cfiCond7) ?BRET_EXT load(1, XDATA, add(CFA_XSP16, literal(-3)))
          CFI (cfiCond7) DPL0 load(1, XDATA, add(CFA_XSP16, literal(-2)))
          CFI (cfiCond7) DPH0 load(1, XDATA, add(CFA_XSP16, literal(-1)))
          CFI (cfiCond7) CFA_SP SP+0
          CFI (cfiCond7) CFA_XSP16 add(XSP16, 12)
          CFI Block cfiCond8 Using cfiCommon0
          CFI (cfiCond8) Function zclGeneral_SendOnOff_CmdOffWithEffect
          CFI (cfiCond8) Conditional ??CrossCallReturnLabel_159
          CFI (cfiCond8) R6 load(1, XDATA, add(CFA_XSP16, literal(-11)))
          CFI (cfiCond8) VB load(1, XDATA, add(CFA_XSP16, literal(-10)))
          CFI (cfiCond8) V0 load(1, XDATA, add(CFA_XSP16, literal(-9)))
          CFI (cfiCond8) V1 load(1, XDATA, add(CFA_XSP16, literal(-8)))
          CFI (cfiCond8) V2 load(1, XDATA, add(CFA_XSP16, literal(-7)))
          CFI (cfiCond8) R7 load(1, XDATA, add(CFA_XSP16, literal(-6)))
          CFI (cfiCond8) ?RET_LOW load(1, XDATA, add(CFA_XSP16, literal(-5)))
          CFI (cfiCond8) ?RET_HIGH load(1, XDATA, add(CFA_XSP16, literal(-4)))
          CFI (cfiCond8) ?BRET_EXT load(1, XDATA, add(CFA_XSP16, literal(-3)))
          CFI (cfiCond8) DPL0 load(1, XDATA, add(CFA_XSP16, literal(-2)))
          CFI (cfiCond8) DPH0 load(1, XDATA, add(CFA_XSP16, literal(-1)))
          CFI (cfiCond8) CFA_SP SP+0
          CFI (cfiCond8) CFA_XSP16 add(XSP16, 13)
          CFI Block cfiPicker9 Using cfiCommon1
          CFI (cfiPicker9) NoFunction
          CFI (cfiPicker9) Picker
        MOV     A,R5
          CFI EndBlock cfiCond4
          CFI EndBlock cfiCond5
          CFI EndBlock cfiCond6
          CFI EndBlock cfiCond7
          CFI EndBlock cfiCond8
          CFI EndBlock cfiPicker9
        REQUIRE ??Subroutine102_0
        ; // Fall through to label ??Subroutine102_0

        RSEG BANKED_CODE:CODE:NOROOT(0)
??Subroutine102_0:
          CFI Block cfiCond10 Using cfiCommon0
          CFI Function zclGeneral_SendOnOff_CmdOnWithTimedOff
          CFI Conditional ??CrossCallReturnLabel_160
          CFI R6 load(1, XDATA, add(CFA_XSP16, literal(-11)))
          CFI VB load(1, XDATA, add(CFA_XSP16, literal(-10)))
          CFI V0 load(1, XDATA, add(CFA_XSP16, literal(-9)))
          CFI V1 load(1, XDATA, add(CFA_XSP16, literal(-8)))
          CFI V2 load(1, XDATA, add(CFA_XSP16, literal(-7)))
          CFI R7 load(1, XDATA, add(CFA_XSP16, literal(-6)))
          CFI ?RET_LOW load(1, XDATA, add(CFA_XSP16, literal(-5)))
          CFI ?RET_HIGH load(1, XDATA, add(CFA_XSP16, literal(-4)))
          CFI ?BRET_EXT load(1, XDATA, add(CFA_XSP16, literal(-3)))
          CFI DPL0 load(1, XDATA, add(CFA_XSP16, literal(-2)))
          CFI DPH0 load(1, XDATA, add(CFA_XSP16, literal(-1)))
          CFI CFA_SP SP+0
          CFI CFA_XSP16 add(XSP16, 16)
          CFI Block cfiCond11 Using cfiCommon0
          CFI (cfiCond11) Function zclGeneral_SendLevelControlMoveRequest
          CFI (cfiCond11) Conditional ??CrossCallReturnLabel_161
          CFI (cfiCond11) R6 load(1, XDATA, add(CFA_XSP16, literal(-11)))
          CFI (cfiCond11) VB load(1, XDATA, add(CFA_XSP16, literal(-10)))
          CFI (cfiCond11) V0 load(1, XDATA, add(CFA_XSP16, literal(-9)))
          CFI (cfiCond11) V1 load(1, XDATA, add(CFA_XSP16, literal(-8)))
          CFI (cfiCond11) V2 load(1, XDATA, add(CFA_XSP16, literal(-7)))
          CFI (cfiCond11) R7 load(1, XDATA, add(CFA_XSP16, literal(-6)))
          CFI (cfiCond11) ?RET_LOW load(1, XDATA, add(CFA_XSP16, literal(-5)))
          CFI (cfiCond11) ?RET_HIGH load(1, XDATA, add(CFA_XSP16, literal(-4)))
          CFI (cfiCond11) ?BRET_EXT load(1, XDATA, add(CFA_XSP16, literal(-3)))
          CFI (cfiCond11) DPL0 load(1, XDATA, add(CFA_XSP16, literal(-2)))
          CFI (cfiCond11) DPH0 load(1, XDATA, add(CFA_XSP16, literal(-1)))
          CFI (cfiCond11) CFA_SP SP+0
          CFI (cfiCond11) CFA_XSP16 add(XSP16, 13)
          CFI Block cfiCond12 Using cfiCommon0
          CFI (cfiCond12) Function zclGeneral_ScenesInit
          CFI (cfiCond12) Conditional ??CrossCallReturnLabel_162
          CFI (cfiCond12) R6 load(1, XDATA, add(CFA_XSP16, literal(-10)))
          CFI (cfiCond12) VB load(1, XDATA, add(CFA_XSP16, literal(-9)))
          CFI (cfiCond12) V0 load(1, XDATA, add(CFA_XSP16, literal(-8)))
          CFI (cfiCond12) V1 load(1, XDATA, add(CFA_XSP16, literal(-7)))
          CFI (cfiCond12) R7 load(1, XDATA, add(CFA_XSP16, literal(-6)))
          CFI (cfiCond12) ?RET_LOW load(1, XDATA, add(CFA_XSP16, literal(-5)))
          CFI (cfiCond12) ?RET_HIGH load(1, XDATA, add(CFA_XSP16, literal(-4)))
          CFI (cfiCond12) ?BRET_EXT load(1, XDATA, add(CFA_XSP16, literal(-3)))
          CFI (cfiCond12) DPL0 load(1, XDATA, add(CFA_XSP16, literal(-2)))
          CFI (cfiCond12) DPH0 load(1, XDATA, add(CFA_XSP16, literal(-1)))
          CFI (cfiCond12) CFA_SP SP+0
          CFI (cfiCond12) CFA_XSP16 add(XSP16, 12)
          CFI Block cfiCond13 Using cfiCommon0
          CFI (cfiCond13) Function zclGeneral_SendIdentify
          CFI (cfiCond13) Conditional ??CrossCallReturnLabel_155
          CFI (cfiCond13) R6 load(1, XDATA, add(CFA_XSP16, literal(-10)))
          CFI (cfiCond13) VB load(1, XDATA, add(CFA_XSP16, literal(-9)))
          CFI (cfiCond13) V0 load(1, XDATA, add(CFA_XSP16, literal(-8)))
          CFI (cfiCond13) V1 load(1, XDATA, add(CFA_XSP16, literal(-7)))
          CFI (cfiCond13) R7 load(1, XDATA, add(CFA_XSP16, literal(-6)))
          CFI (cfiCond13) ?RET_LOW load(1, XDATA, add(CFA_XSP16, literal(-5)))
          CFI (cfiCond13) ?RET_HIGH load(1, XDATA, add(CFA_XSP16, literal(-4)))
          CFI (cfiCond13) ?BRET_EXT load(1, XDATA, add(CFA_XSP16, literal(-3)))
          CFI (cfiCond13) DPL0 load(1, XDATA, add(CFA_XSP16, literal(-2)))
          CFI (cfiCond13) DPH0 load(1, XDATA, add(CFA_XSP16, literal(-1)))
          CFI (cfiCond13) CFA_SP SP+0
          CFI (cfiCond13) CFA_XSP16 add(XSP16, 12)
          CFI Block cfiCond14 Using cfiCommon0
          CFI (cfiCond14) Function zclGeneral_SendIdentifyUpdateCommState
          CFI (cfiCond14) Conditional ??CrossCallReturnLabel_156
          CFI (cfiCond14) R6 load(1, XDATA, add(CFA_XSP16, literal(-11)))
          CFI (cfiCond14) VB load(1, XDATA, add(CFA_XSP16, literal(-10)))
          CFI (cfiCond14) V0 load(1, XDATA, add(CFA_XSP16, literal(-9)))
          CFI (cfiCond14) V1 load(1, XDATA, add(CFA_XSP16, literal(-8)))
          CFI (cfiCond14) V2 load(1, XDATA, add(CFA_XSP16, literal(-7)))
          CFI (cfiCond14) R7 load(1, XDATA, add(CFA_XSP16, literal(-6)))
          CFI (cfiCond14) ?RET_LOW load(1, XDATA, add(CFA_XSP16, literal(-5)))
          CFI (cfiCond14) ?RET_HIGH load(1, XDATA, add(CFA_XSP16, literal(-4)))
          CFI (cfiCond14) ?BRET_EXT load(1, XDATA, add(CFA_XSP16, literal(-3)))
          CFI (cfiCond14) DPL0 load(1, XDATA, add(CFA_XSP16, literal(-2)))
          CFI (cfiCond14) DPH0 load(1, XDATA, add(CFA_XSP16, literal(-1)))
          CFI (cfiCond14) CFA_SP SP+0
          CFI (cfiCond14) CFA_XSP16 add(XSP16, 13)
          CFI Block cfiCond15 Using cfiCommon0
          CFI (cfiCond15) Function zclGeneral_SendIdentifyTriggerEffect
          CFI (cfiCond15) Conditional ??CrossCallReturnLabel_157
          CFI (cfiCond15) R6 load(1, XDATA, add(CFA_XSP16, literal(-11)))
          CFI (cfiCond15) VB load(1, XDATA, add(CFA_XSP16, literal(-10)))
          CFI (cfiCond15) V0 load(1, XDATA, add(CFA_XSP16, literal(-9)))
          CFI (cfiCond15) V1 load(1, XDATA, add(CFA_XSP16, literal(-8)))
          CFI (cfiCond15) V2 load(1, XDATA, add(CFA_XSP16, literal(-7)))
          CFI (cfiCond15) R7 load(1, XDATA, add(CFA_XSP16, literal(-6)))
          CFI (cfiCond15) ?RET_LOW load(1, XDATA, add(CFA_XSP16, literal(-5)))
          CFI (cfiCond15) ?RET_HIGH load(1, XDATA, add(CFA_XSP16, literal(-4)))
          CFI (cfiCond15) ?BRET_EXT load(1, XDATA, add(CFA_XSP16, literal(-3)))
          CFI (cfiCond15) DPL0 load(1, XDATA, add(CFA_XSP16, literal(-2)))
          CFI (cfiCond15) DPH0 load(1, XDATA, add(CFA_XSP16, literal(-1)))
          CFI (cfiCond15) CFA_SP SP+0
          CFI (cfiCond15) CFA_XSP16 add(XSP16, 13)
          CFI Block cfiCond16 Using cfiCommon0
          CFI (cfiCond16) Function zclGeneral_SendIdentifyQueryResponse
          CFI (cfiCond16) Conditional ??CrossCallReturnLabel_158
          CFI (cfiCond16) R6 load(1, XDATA, add(CFA_XSP16, literal(-10)))
          CFI (cfiCond16) VB load(1, XDATA, add(CFA_XSP16, literal(-9)))
          CFI (cfiCond16) V0 load(1, XDATA, add(CFA_XSP16, literal(-8)))
          CFI (cfiCond16) V1 load(1, XDATA, add(CFA_XSP16, literal(-7)))
          CFI (cfiCond16) R7 load(1, XDATA, add(CFA_XSP16, literal(-6)))
          CFI (cfiCond16) ?RET_LOW load(1, XDATA, add(CFA_XSP16, literal(-5)))
          CFI (cfiCond16) ?RET_HIGH load(1, XDATA, add(CFA_XSP16, literal(-4)))
          CFI (cfiCond16) ?BRET_EXT load(1, XDATA, add(CFA_XSP16, literal(-3)))
          CFI (cfiCond16) DPL0 load(1, XDATA, add(CFA_XSP16, literal(-2)))
          CFI (cfiCond16) DPH0 load(1, XDATA, add(CFA_XSP16, literal(-1)))
          CFI (cfiCond16) CFA_SP SP+0
          CFI (cfiCond16) CFA_XSP16 add(XSP16, 12)
          CFI Block cfiCond17 Using cfiCommon0
          CFI (cfiCond17) Function zclGeneral_SendOnOff_CmdOffWithEffect
          CFI (cfiCond17) Conditional ??CrossCallReturnLabel_159
          CFI (cfiCond17) R6 load(1, XDATA, add(CFA_XSP16, literal(-11)))
          CFI (cfiCond17) VB load(1, XDATA, add(CFA_XSP16, literal(-10)))
          CFI (cfiCond17) V0 load(1, XDATA, add(CFA_XSP16, literal(-9)))
          CFI (cfiCond17) V1 load(1, XDATA, add(CFA_XSP16, literal(-8)))
          CFI (cfiCond17) V2 load(1, XDATA, add(CFA_XSP16, literal(-7)))
          CFI (cfiCond17) R7 load(1, XDATA, add(CFA_XSP16, literal(-6)))
          CFI (cfiCond17) ?RET_LOW load(1, XDATA, add(CFA_XSP16, literal(-5)))
          CFI (cfiCond17) ?RET_HIGH load(1, XDATA, add(CFA_XSP16, literal(-4)))
          CFI (cfiCond17) ?BRET_EXT load(1, XDATA, add(CFA_XSP16, literal(-3)))
          CFI (cfiCond17) DPL0 load(1, XDATA, add(CFA_XSP16, literal(-2)))
          CFI (cfiCond17) DPH0 load(1, XDATA, add(CFA_XSP16, literal(-1)))
          CFI (cfiCond17) CFA_SP SP+0
          CFI (cfiCond17) CFA_XSP16 add(XSP16, 13)
          CFI Block cfiPicker18 Using cfiCommon1
          CFI (cfiPicker18) NoFunction
          CFI (cfiPicker18) Picker
        LCALL   ?Subroutine90 & 0xFFFF
??CrossCallReturnLabel_169:
        MOV     ?V0 + 0,DPL
        MOV     ?V0 + 1,DPH
        MOV     R0,#?V0 + 0
        RET
          CFI EndBlock cfiCond10
          CFI EndBlock cfiCond11
          CFI EndBlock cfiCond12
          CFI EndBlock cfiCond13
          CFI EndBlock cfiCond14
          CFI EndBlock cfiCond15
          CFI EndBlock cfiCond16
          CFI EndBlock cfiCond17
          CFI EndBlock cfiPicker18
//  325 }
//  326 
//  327 #ifdef ZCL_LIGHT_LINK_ENHANCE
//  328 /*********************************************************************
//  329  * @fn      zclGeneral_SendIdentifyTriggerEffect
//  330  *
//  331  * @brief   Call to send out a Trigger Effect Command
//  332  *
//  333  * @param   srcEP - Sending application's endpoint
//  334  * @param   dstAddr - where you want the message to go
//  335  * @param   effectId - identify effect to use
//  336  * @param   effectVariant - which variant of effect to be triggered
//  337  * @param   disableDefaultRsp - whether to disable the Default Response command
//  338  * @param   seqNum - identification number for the transaction
//  339  *
//  340  * @return  ZStatus_t
//  341  */

        RSEG BANKED_CODE:CODE:NOROOT(0)
//  342 ZStatus_t zclGeneral_SendIdentifyTriggerEffect( uint8 srcEP, afAddrType_t *dstAddr,
zclGeneral_SendIdentifyTriggerEffect:
          CFI Block cfiBlock19 Using cfiCommon0
          CFI Function zclGeneral_SendIdentifyTriggerEffect
        CODE
//  343                                                 uint8 effectId, uint8 effectVariant,
//  344                                                 uint8 disableDefaultRsp, uint8 seqNum )
//  345 {
        FUNCALL zclGeneral_SendIdentifyTriggerEffect, zcl_SendCommand
        LOCFRAME ISTACK, 0, STACK
        LOCFRAME PSTACK, 0, STACK
        LOCFRAME XSTACK, 24, STACK
        LOCFRAME IOVERLAY, 0, STATIC
        LOCFRAME DOVERLAY, 0, STATIC
        ARGFRAME ISTACK, 0, STACK
        ARGFRAME PSTACK, 0, STACK
        ARGFRAME XSTACK, 24, STACK
        ARGFRAME IOVERLAY, 0, STATIC
        ARGFRAME DOVERLAY, 0, STATIC
        MOV     A,#-0xb
        LCALL   ?BANKED_ENTER_XDATA
          CFI DPH0 load(1, XDATA, add(CFA_XSP16, literal(-1)))
          CFI DPL0 load(1, XDATA, add(CFA_XSP16, literal(-2)))
          CFI ?BRET_EXT load(1, XDATA, add(CFA_XSP16, literal(-3)))
          CFI ?RET_HIGH load(1, XDATA, add(CFA_XSP16, literal(-4)))
          CFI ?RET_LOW load(1, XDATA, add(CFA_XSP16, literal(-5)))
          CFI R7 load(1, XDATA, add(CFA_XSP16, literal(-6)))
          CFI V2 load(1, XDATA, add(CFA_XSP16, literal(-7)))
          CFI V1 load(1, XDATA, add(CFA_XSP16, literal(-8)))
          CFI V0 load(1, XDATA, add(CFA_XSP16, literal(-9)))
          CFI VB load(1, XDATA, add(CFA_XSP16, literal(-10)))
          CFI R6 load(1, XDATA, add(CFA_XSP16, literal(-11)))
          CFI CFA_SP SP+0
          CFI CFA_XSP16 add(XSP16, 11)
        ; Saved register size: 11
        ; Auto size: 2
        MOV     A,#-0x2
        LCALL   ?ALLOC_XSTACK8
          CFI CFA_XSP16 add(XSP16, 13)
        MOV     A,R1
        MOV     R6,A
        MOV     A,R4
        MOV     R7,A
        MOV     A,#0xd
        LCALL   ?XSTACK_DISP0_8
        MOVX    A,@DPTR
        MOV     R1,A
        MOV     A,#0xe
        LCALL   ?XSTACK_DISP0_8
        LCALL   ?Subroutine23 & 0xFFFF
//  346   uint8 buf[2];
//  347 
//  348   buf[0] = effectId;
//  349   buf[1] = effectVariant;
??CrossCallReturnLabel_20:
        LCALL   ?XSTACK_DISP0_8
        LCALL   ?Subroutine52 & 0xFFFF
//  350 
//  351   return zcl_SendCommand( srcEP, dstAddr, ZCL_CLUSTER_ID_GEN_IDENTIFY,
//  352                           COMMAND_IDENTIFY_TRIGGER_EFFECT, TRUE, ZCL_FRAME_CLIENT_SERVER_DIR,
//  353                           disableDefaultRsp, 0, seqNum, 2, buf );
??CrossCallReturnLabel_157:
        LCALL   ?PUSH_XSTACK_I_TWO
          CFI CFA_XSP16 add(XSP16, 15)
        MOV     ?V0 + 0,#0x2
        MOV     ?V0 + 1,#0x0
        MOV     R0,#?V0 + 0
        LCALL   ?PUSH_XSTACK_I_TWO
          CFI CFA_XSP16 add(XSP16, 17)
        MOV     A,R4
        MOV     ?V0 + 0,A
        MOV     R0,#?V0 + 0
        LCALL   ?PUSH_XSTACK_I_ONE
          CFI CFA_XSP16 add(XSP16, 18)
        CLR     A
        MOV     ?V0 + 0,A
        MOV     R0,#?V0 + 0
        LCALL   ?PUSH_XSTACK_I_TWO
          CFI CFA_XSP16 add(XSP16, 20)
        MOV     A,R1
        MOV     ?V0 + 0,A
        MOV     R0,#?V0 + 0
        LCALL   ?PUSH_XSTACK_I_ONE
          CFI CFA_XSP16 add(XSP16, 21)
        MOV     ?V0 + 0,#0x0
        MOV     R0,#?V0 + 0
        LCALL   ?PUSH_XSTACK_I_ONE
          CFI CFA_XSP16 add(XSP16, 22)
        MOV     ?V0 + 0,#0x1
        MOV     R0,#?V0 + 0
        LCALL   ?PUSH_XSTACK_I_ONE
          CFI CFA_XSP16 add(XSP16, 23)
        MOV     ?V0 + 0,#0x40
        LJMP    ?Subroutine2 & 0xFFFF
          CFI EndBlock cfiBlock19

        RSEG BANKED_CODE:CODE:NOROOT(0)
?Subroutine23:
          CFI Block cfiCond20 Using cfiCommon0
          CFI Function zclGeneral_SendIdentifyUpdateCommState
          CFI Conditional ??CrossCallReturnLabel_19
          CFI R6 load(1, XDATA, add(CFA_XSP16, literal(-11)))
          CFI VB load(1, XDATA, add(CFA_XSP16, literal(-10)))
          CFI V0 load(1, XDATA, add(CFA_XSP16, literal(-9)))
          CFI V1 load(1, XDATA, add(CFA_XSP16, literal(-8)))
          CFI V2 load(1, XDATA, add(CFA_XSP16, literal(-7)))
          CFI R7 load(1, XDATA, add(CFA_XSP16, literal(-6)))
          CFI ?RET_LOW load(1, XDATA, add(CFA_XSP16, literal(-5)))
          CFI ?RET_HIGH load(1, XDATA, add(CFA_XSP16, literal(-4)))
          CFI ?BRET_EXT load(1, XDATA, add(CFA_XSP16, literal(-3)))
          CFI DPL0 load(1, XDATA, add(CFA_XSP16, literal(-2)))
          CFI DPH0 load(1, XDATA, add(CFA_XSP16, literal(-1)))
          CFI CFA_SP SP+0
          CFI CFA_XSP16 add(XSP16, 13)
          CFI Block cfiCond21 Using cfiCommon0
          CFI (cfiCond21) Function zclGeneral_SendIdentifyTriggerEffect
          CFI (cfiCond21) Conditional ??CrossCallReturnLabel_20
          CFI (cfiCond21) R6 load(1, XDATA, add(CFA_XSP16, literal(-11)))
          CFI (cfiCond21) VB load(1, XDATA, add(CFA_XSP16, literal(-10)))
          CFI (cfiCond21) V0 load(1, XDATA, add(CFA_XSP16, literal(-9)))
          CFI (cfiCond21) V1 load(1, XDATA, add(CFA_XSP16, literal(-8)))
          CFI (cfiCond21) V2 load(1, XDATA, add(CFA_XSP16, literal(-7)))
          CFI (cfiCond21) R7 load(1, XDATA, add(CFA_XSP16, literal(-6)))
          CFI (cfiCond21) ?RET_LOW load(1, XDATA, add(CFA_XSP16, literal(-5)))
          CFI (cfiCond21) ?RET_HIGH load(1, XDATA, add(CFA_XSP16, literal(-4)))
          CFI (cfiCond21) ?BRET_EXT load(1, XDATA, add(CFA_XSP16, literal(-3)))
          CFI (cfiCond21) DPL0 load(1, XDATA, add(CFA_XSP16, literal(-2)))
          CFI (cfiCond21) DPH0 load(1, XDATA, add(CFA_XSP16, literal(-1)))
          CFI (cfiCond21) CFA_SP SP+0
          CFI (cfiCond21) CFA_XSP16 add(XSP16, 13)
          CFI Block cfiCond22 Using cfiCommon0
          CFI (cfiCond22) Function zclGeneral_SendOnOff_CmdOffWithEffect
          CFI (cfiCond22) Conditional ??CrossCallReturnLabel_21
          CFI (cfiCond22) R6 load(1, XDATA, add(CFA_XSP16, literal(-11)))
          CFI (cfiCond22) VB load(1, XDATA, add(CFA_XSP16, literal(-10)))
          CFI (cfiCond22) V0 load(1, XDATA, add(CFA_XSP16, literal(-9)))
          CFI (cfiCond22) V1 load(1, XDATA, add(CFA_XSP16, literal(-8)))
          CFI (cfiCond22) V2 load(1, XDATA, add(CFA_XSP16, literal(-7)))
          CFI (cfiCond22) R7 load(1, XDATA, add(CFA_XSP16, literal(-6)))
          CFI (cfiCond22) ?RET_LOW load(1, XDATA, add(CFA_XSP16, literal(-5)))
          CFI (cfiCond22) ?RET_HIGH load(1, XDATA, add(CFA_XSP16, literal(-4)))
          CFI (cfiCond22) ?BRET_EXT load(1, XDATA, add(CFA_XSP16, literal(-3)))
          CFI (cfiCond22) DPL0 load(1, XDATA, add(CFA_XSP16, literal(-2)))
          CFI (cfiCond22) DPH0 load(1, XDATA, add(CFA_XSP16, literal(-1)))
          CFI (cfiCond22) CFA_SP SP+0
          CFI (cfiCond22) CFA_XSP16 add(XSP16, 13)
          CFI Block cfiPicker23 Using cfiCommon1
          CFI (cfiPicker23) NoFunction
          CFI (cfiPicker23) Picker
        MOVX    A,@DPTR
        MOV     R4,A
        MOV     A,R7
        MOV     DPL,?XSP + 0
        MOV     DPH,?XSP + 1
        MOVX    @DPTR,A
        MOV     A,#0x1
        RET
          CFI EndBlock cfiCond20
          CFI EndBlock cfiCond21
          CFI EndBlock cfiCond22
          CFI EndBlock cfiPicker23
//  354 }
//  355 #endif // ZCL_LIGHT_LINK_ENHANCE
//  356 
//  357 /*********************************************************************
//  358  * @fn      zclGeneral_SendIdentifyQueryResponse
//  359  *
//  360  * @brief   Call to send out an Identify Query Response Command
//  361  *
//  362  * @param   srcEP - Sending application's endpoint
//  363  * @param   dstAddr - where you want the message to go
//  364  * @param   timeout - how long the device will continue to identify itself (in seconds)
//  365  * @param   seqNum - identification number for the transaction
//  366  *
//  367  * @return  ZStatus_t
//  368  */

        RSEG BANKED_CODE:CODE:NOROOT(0)
//  369 ZStatus_t zclGeneral_SendIdentifyQueryResponse( uint8 srcEP, afAddrType_t *dstAddr,
zclGeneral_SendIdentifyQueryResponse:
          CFI Block cfiBlock24 Using cfiCommon0
          CFI Function zclGeneral_SendIdentifyQueryResponse
        CODE
//  370                                                 uint16 timeout, uint8 disableDefaultRsp, uint8 seqNum )
//  371 {
        FUNCALL zclGeneral_SendIdentifyQueryResponse, zcl_SendCommand
        LOCFRAME ISTACK, 0, STACK
        LOCFRAME PSTACK, 0, STACK
        LOCFRAME XSTACK, 23, STACK
        LOCFRAME IOVERLAY, 0, STATIC
        LOCFRAME DOVERLAY, 0, STATIC
        ARGFRAME ISTACK, 0, STACK
        ARGFRAME PSTACK, 0, STACK
        ARGFRAME XSTACK, 23, STACK
        ARGFRAME IOVERLAY, 0, STATIC
        ARGFRAME DOVERLAY, 0, STATIC
        MOV     A,#-0xa
        LCALL   ?BANKED_ENTER_XDATA
          CFI DPH0 load(1, XDATA, add(CFA_XSP16, literal(-1)))
          CFI DPL0 load(1, XDATA, add(CFA_XSP16, literal(-2)))
          CFI ?BRET_EXT load(1, XDATA, add(CFA_XSP16, literal(-3)))
          CFI ?RET_HIGH load(1, XDATA, add(CFA_XSP16, literal(-4)))
          CFI ?RET_LOW load(1, XDATA, add(CFA_XSP16, literal(-5)))
          CFI R7 load(1, XDATA, add(CFA_XSP16, literal(-6)))
          CFI V1 load(1, XDATA, add(CFA_XSP16, literal(-7)))
          CFI V0 load(1, XDATA, add(CFA_XSP16, literal(-8)))
          CFI VB load(1, XDATA, add(CFA_XSP16, literal(-9)))
          CFI R6 load(1, XDATA, add(CFA_XSP16, literal(-10)))
          CFI CFA_SP SP+0
          CFI CFA_XSP16 add(XSP16, 10)
        ; Saved register size: 10
        ; Auto size: 2
        MOV     A,#-0x2
        LCALL   ?ALLOC_XSTACK8
          CFI CFA_XSP16 add(XSP16, 12)
        MOV     A,R1
        MOV     R6,A
        MOV     A,#0xc
        LCALL   ?XSTACK_DISP0_8
        MOVX    A,@DPTR
        MOV     R1,A
        MOV     A,#0xd
        LCALL   ?XSTACK_DISP0_8
        LCALL   ?Subroutine37 & 0xFFFF
//  372   uint8 buf[2];
//  373 
//  374   buf[0] = LO_UINT16( timeout );
//  375   buf[1] = HI_UINT16( timeout );
??CrossCallReturnLabel_46:
        LCALL   ?XSTACK_DISP0_8
        LCALL   ?Subroutine52 & 0xFFFF
//  376 
//  377   return zcl_SendCommand( srcEP, dstAddr, ZCL_CLUSTER_ID_GEN_IDENTIFY,
//  378                           COMMAND_IDENTIFY_QUERY_RSP, TRUE,
//  379                           ZCL_FRAME_SERVER_CLIENT_DIR, disableDefaultRsp, 0, seqNum, 2, buf );
??CrossCallReturnLabel_158:
        LCALL   ?PUSH_XSTACK_I_TWO
          CFI CFA_XSP16 add(XSP16, 14)
        MOV     ?V0 + 0,#0x2
        MOV     ?V0 + 1,#0x0
        MOV     R0,#?V0 + 0
        LCALL   ?PUSH_XSTACK_I_TWO
          CFI CFA_XSP16 add(XSP16, 16)
        MOV     A,R7
        MOV     ?V0 + 0,A
        MOV     R0,#?V0 + 0
        LCALL   ?PUSH_XSTACK_I_ONE
          CFI CFA_XSP16 add(XSP16, 17)
        CLR     A
        MOV     ?V0 + 0,A
        MOV     R0,#?V0 + 0
        LCALL   ?PUSH_XSTACK_I_TWO
          CFI CFA_XSP16 add(XSP16, 19)
        MOV     A,R1
        MOV     ?V0 + 0,A
        MOV     R0,#?V0 + 0
        LCALL   ?PUSH_XSTACK_I_ONE
          CFI CFA_XSP16 add(XSP16, 20)
        MOV     ?V0 + 0,#0x1
        MOV     R0,#?V0 + 0
        LCALL   ?PUSH_XSTACK_I_ONE
          CFI CFA_XSP16 add(XSP16, 21)
        LJMP    ?Subroutine1 & 0xFFFF
          CFI EndBlock cfiBlock24

        RSEG BANKED_CODE:CODE:NOROOT(0)
?Subroutine37:
          CFI Block cfiCond25 Using cfiCommon0
          CFI Function zclGeneral_SendIdentify
          CFI Conditional ??CrossCallReturnLabel_45
          CFI R6 load(1, XDATA, add(CFA_XSP16, literal(-10)))
          CFI VB load(1, XDATA, add(CFA_XSP16, literal(-9)))
          CFI V0 load(1, XDATA, add(CFA_XSP16, literal(-8)))
          CFI V1 load(1, XDATA, add(CFA_XSP16, literal(-7)))
          CFI R7 load(1, XDATA, add(CFA_XSP16, literal(-6)))
          CFI ?RET_LOW load(1, XDATA, add(CFA_XSP16, literal(-5)))
          CFI ?RET_HIGH load(1, XDATA, add(CFA_XSP16, literal(-4)))
          CFI ?BRET_EXT load(1, XDATA, add(CFA_XSP16, literal(-3)))
          CFI DPL0 load(1, XDATA, add(CFA_XSP16, literal(-2)))
          CFI DPH0 load(1, XDATA, add(CFA_XSP16, literal(-1)))
          CFI CFA_SP SP+0
          CFI CFA_XSP16 add(XSP16, 12)
          CFI Block cfiCond26 Using cfiCommon0
          CFI (cfiCond26) Function zclGeneral_SendIdentifyQueryResponse
          CFI (cfiCond26) Conditional ??CrossCallReturnLabel_46
          CFI (cfiCond26) R6 load(1, XDATA, add(CFA_XSP16, literal(-10)))
          CFI (cfiCond26) VB load(1, XDATA, add(CFA_XSP16, literal(-9)))
          CFI (cfiCond26) V0 load(1, XDATA, add(CFA_XSP16, literal(-8)))
          CFI (cfiCond26) V1 load(1, XDATA, add(CFA_XSP16, literal(-7)))
          CFI (cfiCond26) R7 load(1, XDATA, add(CFA_XSP16, literal(-6)))
          CFI (cfiCond26) ?RET_LOW load(1, XDATA, add(CFA_XSP16, literal(-5)))
          CFI (cfiCond26) ?RET_HIGH load(1, XDATA, add(CFA_XSP16, literal(-4)))
          CFI (cfiCond26) ?BRET_EXT load(1, XDATA, add(CFA_XSP16, literal(-3)))
          CFI (cfiCond26) DPL0 load(1, XDATA, add(CFA_XSP16, literal(-2)))
          CFI (cfiCond26) DPH0 load(1, XDATA, add(CFA_XSP16, literal(-1)))
          CFI (cfiCond26) CFA_SP SP+0
          CFI (cfiCond26) CFA_XSP16 add(XSP16, 12)
          CFI Block cfiPicker27 Using cfiCommon1
          CFI (cfiPicker27) NoFunction
          CFI (cfiPicker27) Picker
        MOVX    A,@DPTR
        MOV     R7,A
        MOV     A,R4
        MOV     DPL,?XSP + 0
        MOV     DPH,?XSP + 1
        MOVX    @DPTR,A
        MOV     A,#0x1
        RET
          CFI EndBlock cfiCond25
          CFI EndBlock cfiCond26
          CFI EndBlock cfiPicker27
//  380 }
//  381 #endif // ZCL_IDENTIFY
//  382 
//  383 #ifdef ZCL_GROUPS
//  384 /*********************************************************************
//  385  * @fn      zclGeneral_SendGroupRequest
//  386  *
//  387  * @brief   Send a Group Request to a device.  You can also use the
//  388  *          appropriate macro.
//  389  *
//  390  * @param   srcEP - Sending Apps endpoint
//  391  * @param   dstAddr - where to send the request
//  392  * @param   cmd - one of the following:
//  393  *              COMMAND_GROUP_VIEW
//  394  *              COMMAND_GROUP_REMOVE
//  395  * @param   groupID -
//  396  *
//  397  * @return  ZStatus_t
//  398  */

        RSEG BANKED_CODE:CODE:NOROOT(0)
//  399 ZStatus_t zclGeneral_SendGroupRequest( uint8 srcEP, afAddrType_t *dstAddr,
zclGeneral_SendGroupRequest:
          CFI Block cfiBlock28 Using cfiCommon0
          CFI Function zclGeneral_SendGroupRequest
        CODE
//  400                                        uint8 cmd, uint16 groupID, uint8 disableDefaultRsp, uint8 seqNum )
//  401 {
        FUNCALL zclGeneral_SendGroupRequest, zcl_SendCommand
        LOCFRAME ISTACK, 0, STACK
        LOCFRAME PSTACK, 0, STACK
        LOCFRAME XSTACK, 25, STACK
        LOCFRAME IOVERLAY, 0, STATIC
        LOCFRAME DOVERLAY, 0, STATIC
        ARGFRAME ISTACK, 0, STACK
        ARGFRAME PSTACK, 0, STACK
        ARGFRAME XSTACK, 25, STACK
        ARGFRAME IOVERLAY, 0, STATIC
        ARGFRAME DOVERLAY, 0, STATIC
        MOV     A,#-0xc
        LCALL   ?BANKED_ENTER_XDATA
          CFI DPH0 load(1, XDATA, add(CFA_XSP16, literal(-1)))
          CFI DPL0 load(1, XDATA, add(CFA_XSP16, literal(-2)))
          CFI ?BRET_EXT load(1, XDATA, add(CFA_XSP16, literal(-3)))
          CFI ?RET_HIGH load(1, XDATA, add(CFA_XSP16, literal(-4)))
          CFI ?RET_LOW load(1, XDATA, add(CFA_XSP16, literal(-5)))
          CFI R7 load(1, XDATA, add(CFA_XSP16, literal(-6)))
          CFI V3 load(1, XDATA, add(CFA_XSP16, literal(-7)))
          CFI V2 load(1, XDATA, add(CFA_XSP16, literal(-8)))
          CFI V1 load(1, XDATA, add(CFA_XSP16, literal(-9)))
          CFI V0 load(1, XDATA, add(CFA_XSP16, literal(-10)))
          CFI VB load(1, XDATA, add(CFA_XSP16, literal(-11)))
          CFI R6 load(1, XDATA, add(CFA_XSP16, literal(-12)))
          CFI CFA_SP SP+0
          CFI CFA_XSP16 add(XSP16, 12)
        ; Saved register size: 12
        ; Auto size: 2
        MOV     A,#-0x2
        LCALL   ?ALLOC_XSTACK8
          CFI CFA_XSP16 add(XSP16, 14)
        MOV     ?V0 + 0,R1
        MOV     A,R4
        MOV     R6,A
        MOV     A,R5
        MOV     R7,A
        MOV     A,#0x10
        LCALL   ?XSTACK_DISP0_8
        MOVX    A,@DPTR
        MOV     R4,A
        MOV     A,#0xe
        LCALL   ?XSTACK_DISP0_8
        LCALL   ?Subroutine31 & 0xFFFF
//  402   uint8 buf[2];
//  403 
//  404   buf[0] = LO_UINT16( groupID );
//  405   buf[1] = HI_UINT16( groupID );
??CrossCallReturnLabel_37:
        LCALL   ?XSTACK_DISP0_8
        LCALL   ?Subroutine53 & 0xFFFF
//  406 
//  407   return ( zcl_SendCommand( srcEP, dstAddr, ZCL_CLUSTER_ID_GEN_GROUPS,
//  408                             cmd, TRUE, ZCL_FRAME_CLIENT_SERVER_DIR,
//  409                             disableDefaultRsp, 0, seqNum, 2, buf ) );
??CrossCallReturnLabel_163:
        LCALL   ?PUSH_XSTACK_I_TWO
          CFI CFA_XSP16 add(XSP16, 16)
        MOV     ?V0 + 2,#0x2
        MOV     ?V0 + 3,#0x0
        MOV     R0,#?V0 + 2
        LCALL   ?PUSH_XSTACK_I_TWO
          CFI CFA_XSP16 add(XSP16, 18)
        MOV     A,R4
        MOV     ?V0 + 1,A
        MOV     R0,#?V0 + 1
        LCALL   ?PUSH_XSTACK_I_ONE
          CFI CFA_XSP16 add(XSP16, 19)
        CLR     A
        MOV     ?V0 + 2,A
        MOV     R0,#?V0 + 2
        LCALL   ?PUSH_XSTACK_I_TWO
          CFI CFA_XSP16 add(XSP16, 21)
        MOV     A,R7
        MOV     ?V0 + 1,A
        MOV     R0,#?V0 + 1
        LCALL   ?PUSH_XSTACK_I_ONE
          CFI CFA_XSP16 add(XSP16, 22)
        MOV     ?V0 + 1,#0x0
        MOV     R0,#?V0 + 1
        LCALL   ?PUSH_XSTACK_I_ONE
          CFI CFA_XSP16 add(XSP16, 23)
        MOV     ?V0 + 1,#0x1
        MOV     R0,#?V0 + 1
        LCALL   ?PUSH_XSTACK_I_ONE
          CFI CFA_XSP16 add(XSP16, 24)
        MOV     A,R6
        MOV     ?V0 + 1,A
        MOV     R0,#?V0 + 1
        LCALL   ?PUSH_XSTACK_I_ONE
          CFI CFA_XSP16 add(XSP16, 25)
        MOV     R4,#0x4
        MOV     R5,#0x0
        MOV     R1,?V0 + 0
        LCALL   ??zcl_SendCommand?relay
        MOV     A,#0xb
        LCALL   ?DEALLOC_XSTACK8
          CFI CFA_XSP16 add(XSP16, 14)
        MOV     A,#0x2
        LJMP    ??Subroutine108_0 & 0xFFFF
          CFI EndBlock cfiBlock28
//  410 }
//  411 
//  412 /*********************************************************************
//  413  * @fn      zclGeneral_SendAddGroupRequest
//  414  *
//  415  * @brief   Send the Add Group Request to a device
//  416  *
//  417  * @param   srcEP - Sending Apps endpoint
//  418  * @param   dstAddr - where to send the request
//  419  * @param   cmd - one of the following:
//  420  *                COMMAND_GROUP_ADD
//  421  *                COMMAND_GROUP_ADD_IF_IDENTIFYING
//  422  * @param   groupID - pointer to the group structure
//  423  * @param   groupName - pointer to Group Name.  This is a Zigbee
//  424  *          string data type, so the first byte is the length of the
//  425  *          name (in bytes), then the name.
//  426  *
//  427  * @return  ZStatus_t
//  428  */

        RSEG BANKED_CODE:CODE:NOROOT(0)
//  429 ZStatus_t zclGeneral_SendAddGroupRequest( uint8 srcEP, afAddrType_t *dstAddr,
zclGeneral_SendAddGroupRequest:
          CFI Block cfiBlock29 Using cfiCommon0
          CFI Function zclGeneral_SendAddGroupRequest
        CODE
//  430                                           uint8 cmd, uint16 groupID, uint8 *groupName,
//  431                                           uint8 disableDefaultRsp, uint8 seqNum )
//  432 {
        FUNCALL zclGeneral_SendAddGroupRequest, osal_mem_alloc
        LOCFRAME ISTACK, 0, STACK
        LOCFRAME PSTACK, 0, STACK
        LOCFRAME XSTACK, 24, STACK
        LOCFRAME IOVERLAY, 0, STATIC
        LOCFRAME DOVERLAY, 0, STATIC
        ARGFRAME ISTACK, 0, STACK
        ARGFRAME PSTACK, 0, STACK
        ARGFRAME XSTACK, 24, STACK
        ARGFRAME IOVERLAY, 0, STATIC
        ARGFRAME DOVERLAY, 0, STATIC
        FUNCALL zclGeneral_SendAddGroupRequest, osal_memcpy
        LOCFRAME ISTACK, 0, STACK
        LOCFRAME PSTACK, 0, STACK
        LOCFRAME XSTACK, 27, STACK
        LOCFRAME IOVERLAY, 0, STATIC
        LOCFRAME DOVERLAY, 0, STATIC
        ARGFRAME ISTACK, 0, STACK
        ARGFRAME PSTACK, 0, STACK
        ARGFRAME XSTACK, 27, STACK
        ARGFRAME IOVERLAY, 0, STATIC
        ARGFRAME DOVERLAY, 0, STATIC
        FUNCALL zclGeneral_SendAddGroupRequest, zcl_SendCommand
        LOCFRAME ISTACK, 0, STACK
        LOCFRAME PSTACK, 0, STACK
        LOCFRAME XSTACK, 35, STACK
        LOCFRAME IOVERLAY, 0, STATIC
        LOCFRAME DOVERLAY, 0, STATIC
        ARGFRAME ISTACK, 0, STACK
        ARGFRAME PSTACK, 0, STACK
        ARGFRAME XSTACK, 35, STACK
        ARGFRAME IOVERLAY, 0, STATIC
        ARGFRAME DOVERLAY, 0, STATIC
        FUNCALL zclGeneral_SendAddGroupRequest, osal_mem_free
        LOCFRAME ISTACK, 0, STACK
        LOCFRAME PSTACK, 0, STACK
        LOCFRAME XSTACK, 24, STACK
        LOCFRAME IOVERLAY, 0, STATIC
        LOCFRAME DOVERLAY, 0, STATIC
        ARGFRAME ISTACK, 0, STACK
        ARGFRAME PSTACK, 0, STACK
        ARGFRAME XSTACK, 24, STACK
        ARGFRAME IOVERLAY, 0, STATIC
        ARGFRAME DOVERLAY, 0, STATIC
        MOV     A,#-0x18
        LCALL   ?BANKED_ENTER_XDATA
          CFI DPH0 load(1, XDATA, add(CFA_XSP16, literal(-1)))
          CFI DPL0 load(1, XDATA, add(CFA_XSP16, literal(-2)))
          CFI ?BRET_EXT load(1, XDATA, add(CFA_XSP16, literal(-3)))
          CFI ?RET_HIGH load(1, XDATA, add(CFA_XSP16, literal(-4)))
          CFI ?RET_LOW load(1, XDATA, add(CFA_XSP16, literal(-5)))
          CFI R7 load(1, XDATA, add(CFA_XSP16, literal(-6)))
          CFI V15 load(1, XDATA, add(CFA_XSP16, literal(-7)))
          CFI V14 load(1, XDATA, add(CFA_XSP16, literal(-8)))
          CFI V13 load(1, XDATA, add(CFA_XSP16, literal(-9)))
          CFI V12 load(1, XDATA, add(CFA_XSP16, literal(-10)))
          CFI V11 load(1, XDATA, add(CFA_XSP16, literal(-11)))
          CFI V10 load(1, XDATA, add(CFA_XSP16, literal(-12)))
          CFI V9 load(1, XDATA, add(CFA_XSP16, literal(-13)))
          CFI V8 load(1, XDATA, add(CFA_XSP16, literal(-14)))
          CFI V7 load(1, XDATA, add(CFA_XSP16, literal(-15)))
          CFI V6 load(1, XDATA, add(CFA_XSP16, literal(-16)))
          CFI V5 load(1, XDATA, add(CFA_XSP16, literal(-17)))
          CFI V4 load(1, XDATA, add(CFA_XSP16, literal(-18)))
          CFI V3 load(1, XDATA, add(CFA_XSP16, literal(-19)))
          CFI V2 load(1, XDATA, add(CFA_XSP16, literal(-20)))
          CFI V1 load(1, XDATA, add(CFA_XSP16, literal(-21)))
          CFI V0 load(1, XDATA, add(CFA_XSP16, literal(-22)))
          CFI VB load(1, XDATA, add(CFA_XSP16, literal(-23)))
          CFI R6 load(1, XDATA, add(CFA_XSP16, literal(-24)))
          CFI CFA_SP SP+0
          CFI CFA_XSP16 add(XSP16, 24)
        ; Saved register size: 24
        ; Auto size: 0
        MOV     ?V0 + 10,R1
        MOV     ?V0 + 14,R2
        MOV     ?V0 + 15,R3
        MOV     ?V0 + 12,R4
        MOV     ?V0 + 11,R5
        MOV     A,#0x1c
        LCALL   ?XSTACK_DISP0_8
        MOVX    A,@DPTR
        MOV     ?V0 + 7,A
        MOV     A,#0x1a
        LCALL   ?XSTACK_DISP0_8
        LCALL   ?Subroutine32 & 0xFFFF
//  433   uint8 *buf;
//  434   uint8 *pBuf;
//  435   uint8 len;
//  436   ZStatus_t status;
//  437 
//  438   len = 2;    // Group ID
//  439   len += groupName[0] + 1;  // String + 1 for length
??CrossCallReturnLabel_39:
        MOV     DPL,?V0 + 0
        MOV     DPH,A
        MOVX    A,@DPTR
        ADD     A,#0x3
        MOV     R0,A
//  440 
//  441   buf = zcl_mem_alloc( len );
        MOV     DPL,R0
        MOV     R6,DPL
        ; Setup parameters for call to function osal_mem_alloc
        MOV     R2,A
        MOV     R3,#0x0
        LCALL   ??osal_mem_alloc?relay
        MOV     ?V0 + 2,R2
        MOV     ?V0 + 3,R3
//  442   if ( buf )
        MOV     A,R2
        ORL     A,?V0 + 3
        JNZ     $+5
        LJMP    ??zclGeneral_SendAddGroupRequest_0 & 0xFFFF
//  443   {
//  444     pBuf = buf;
        MOV     A,#0x18
        LCALL   ?XSTACK_DISP0_8
        LCALL   ?Subroutine46 & 0xFFFF
//  445     *pBuf++ = LO_UINT16( groupID );
??CrossCallReturnLabel_61:
        MOV     DPL,R2
        MOV     DPH,R3
        MOVX    @DPTR,A
        INC     DPTR
//  446     *pBuf++ = HI_UINT16( groupID );
        MOV     A,R1
        LCALL   ?Subroutine56 & 0xFFFF
//  447     *pBuf++ = groupName[0]; // string length
??CrossCallReturnLabel_88:
        MOVX    A,@DPTR
        MOV     DPL,?V0 + 8
        MOV     DPH,?V0 + 9
        LCALL   ?Subroutine56 & 0xFFFF
//  448     zcl_memcpy( pBuf, &(groupName[1]), groupName[0] );
??CrossCallReturnLabel_89:
        INC     DPTR
        MOV     R1,DPL
        MOV     R2,DPH
        MOV     ?V0 + 4,R1
        MOV     ?V0 + 5,R2
        MOV     ?V0 + 6,#0x0
        MOV     R0,#?V0 + 4
        LCALL   ?PUSH_XSTACK_I_THREE
          CFI CFA_XSP16 add(XSP16, 27)
        MOV     DPL,?V0 + 0
        MOV     DPH,?V0 + 1
        MOVX    A,@DPTR
        MOV     R4,A
        MOV     R5,#0x0
        MOV     R2,?V0 + 8
        MOV     R3,?V0 + 9
        LCALL   ??osal_memcpy?relay
        MOV     A,#0x3
        LCALL   ?DEALLOC_XSTACK8
          CFI CFA_XSP16 add(XSP16, 24)
//  449 
//  450     status = zcl_SendCommand( srcEP, dstAddr, ZCL_CLUSTER_ID_GEN_GROUPS,
//  451                               cmd, TRUE, ZCL_FRAME_CLIENT_SERVER_DIR,
//  452                               disableDefaultRsp, 0, seqNum, len, buf );
        ; Setup parameters for call to function zcl_SendCommand
        MOV     R0,#?V0 + 2
        LCALL   ?PUSH_XSTACK_I_TWO
          CFI CFA_XSP16 add(XSP16, 26)
        MOV     ?V0 + 0,R6
        MOV     ?V0 + 1,#0x0
        MOV     R0,#?V0 + 0
        LCALL   ?PUSH_XSTACK_I_TWO
          CFI CFA_XSP16 add(XSP16, 28)
        MOV     A,?V0 + 7
        MOV     ?V0 + 0,A
        MOV     R0,#?V0 + 0
        LCALL   ?PUSH_XSTACK_I_ONE
          CFI CFA_XSP16 add(XSP16, 29)
        CLR     A
        MOV     ?V0 + 0,A
        MOV     R0,#?V0 + 0
        LCALL   ?PUSH_XSTACK_I_TWO
          CFI CFA_XSP16 add(XSP16, 31)
        MOV     A,?V0 + 11
        MOV     ?V0 + 0,A
        MOV     R0,#?V0 + 0
        LCALL   ?PUSH_XSTACK_I_ONE
          CFI CFA_XSP16 add(XSP16, 32)
        MOV     ?V0 + 0,#0x0
        MOV     R0,#?V0 + 0
        LCALL   ?PUSH_XSTACK_I_ONE
          CFI CFA_XSP16 add(XSP16, 33)
        MOV     ?V0 + 0,#0x1
        MOV     R0,#?V0 + 0
        LCALL   ?PUSH_XSTACK_I_ONE
          CFI CFA_XSP16 add(XSP16, 34)
        MOV     A,?V0 + 12
        MOV     ?V0 + 0,A
        MOV     R0,#?V0 + 0
        LCALL   ?PUSH_XSTACK_I_ONE
          CFI CFA_XSP16 add(XSP16, 35)
        MOV     R4,#0x4
        MOV     R5,#0x0
        MOV     R2,?V0 + 14
        MOV     R3,?V0 + 15
        MOV     R1,?V0 + 10
        LCALL   ??zcl_SendCommand?relay
        MOV     A,#0xb
        LCALL   ?DEALLOC_XSTACK8
          CFI CFA_XSP16 add(XSP16, 24)
        MOV     A,R1
        MOV     R6,A
//  453     zcl_mem_free( buf );
        ; Setup parameters for call to function osal_mem_free
        MOV     R2,?V0 + 2
        MOV     R3,?V0 + 3
        LCALL   ??osal_mem_free?relay
        SJMP    ??zclGeneral_SendAddGroupRequest_1
//  454   }
//  455   else
//  456     status = ZMemError;
??zclGeneral_SendAddGroupRequest_0:
        MOV     R6,#0x10
          CFI EndBlock cfiBlock29
//  457 
//  458   return ( status );
??zclGeneral_SendAddGroupRequest_1:
        REQUIRE ?Subroutine10
        ; // Fall through to label ?Subroutine10
//  459 }

        RSEG BANKED_CODE:CODE:NOROOT(0)
?Subroutine10:
          CFI Block cfiBlock30 Using cfiCommon0
          CFI NoFunction
          CFI CFA_SP SP+0
          CFI CFA_XSP16 add(XSP16, 24)
          CFI VB load(1, XDATA, add(CFA_XSP16, literal(-23)))
          CFI DPL0 load(1, XDATA, add(CFA_XSP16, literal(-2)))
          CFI DPH0 load(1, XDATA, add(CFA_XSP16, literal(-1)))
          CFI R6 load(1, XDATA, add(CFA_XSP16, literal(-24)))
          CFI R7 load(1, XDATA, add(CFA_XSP16, literal(-6)))
          CFI V0 load(1, XDATA, add(CFA_XSP16, literal(-22)))
          CFI V1 load(1, XDATA, add(CFA_XSP16, literal(-21)))
          CFI V2 load(1, XDATA, add(CFA_XSP16, literal(-20)))
          CFI V3 load(1, XDATA, add(CFA_XSP16, literal(-19)))
          CFI V4 load(1, XDATA, add(CFA_XSP16, literal(-18)))
          CFI V5 load(1, XDATA, add(CFA_XSP16, literal(-17)))
          CFI V6 load(1, XDATA, add(CFA_XSP16, literal(-16)))
          CFI V7 load(1, XDATA, add(CFA_XSP16, literal(-15)))
          CFI V8 load(1, XDATA, add(CFA_XSP16, literal(-14)))
          CFI V9 load(1, XDATA, add(CFA_XSP16, literal(-13)))
          CFI V10 load(1, XDATA, add(CFA_XSP16, literal(-12)))
          CFI V11 load(1, XDATA, add(CFA_XSP16, literal(-11)))
          CFI V12 load(1, XDATA, add(CFA_XSP16, literal(-10)))
          CFI V13 load(1, XDATA, add(CFA_XSP16, literal(-9)))
          CFI V14 load(1, XDATA, add(CFA_XSP16, literal(-8)))
          CFI V15 load(1, XDATA, add(CFA_XSP16, literal(-7)))
          CFI ?BRET_EXT load(1, XDATA, add(CFA_XSP16, literal(-3)))
          CFI ?RET_HIGH load(1, XDATA, add(CFA_XSP16, literal(-4)))
          CFI ?RET_LOW load(1, XDATA, add(CFA_XSP16, literal(-5)))
        MOV     A,R6
        MOV     R1,A
        LJMP    ??Subroutine133_0 & 0xFFFF
          CFI EndBlock cfiBlock30

        RSEG BANKED_CODE:CODE:NOROOT(0)
?Subroutine56:
          CFI Block cfiCond31 Using cfiCommon0
          CFI Function zclGeneral_SendAddGroupRequest
          CFI Conditional ??CrossCallReturnLabel_88
          CFI R6 load(1, XDATA, add(CFA_XSP16, literal(-24)))
          CFI VB load(1, XDATA, add(CFA_XSP16, literal(-23)))
          CFI V0 load(1, XDATA, add(CFA_XSP16, literal(-22)))
          CFI V1 load(1, XDATA, add(CFA_XSP16, literal(-21)))
          CFI V2 load(1, XDATA, add(CFA_XSP16, literal(-20)))
          CFI V3 load(1, XDATA, add(CFA_XSP16, literal(-19)))
          CFI V4 load(1, XDATA, add(CFA_XSP16, literal(-18)))
          CFI V5 load(1, XDATA, add(CFA_XSP16, literal(-17)))
          CFI V6 load(1, XDATA, add(CFA_XSP16, literal(-16)))
          CFI V7 load(1, XDATA, add(CFA_XSP16, literal(-15)))
          CFI V8 load(1, XDATA, add(CFA_XSP16, literal(-14)))
          CFI V9 load(1, XDATA, add(CFA_XSP16, literal(-13)))
          CFI V10 load(1, XDATA, add(CFA_XSP16, literal(-12)))
          CFI V11 load(1, XDATA, add(CFA_XSP16, literal(-11)))
          CFI V12 load(1, XDATA, add(CFA_XSP16, literal(-10)))
          CFI V13 load(1, XDATA, add(CFA_XSP16, literal(-9)))
          CFI V14 load(1, XDATA, add(CFA_XSP16, literal(-8)))
          CFI V15 load(1, XDATA, add(CFA_XSP16, literal(-7)))
          CFI R7 load(1, XDATA, add(CFA_XSP16, literal(-6)))
          CFI ?RET_LOW load(1, XDATA, add(CFA_XSP16, literal(-5)))
          CFI ?RET_HIGH load(1, XDATA, add(CFA_XSP16, literal(-4)))
          CFI ?BRET_EXT load(1, XDATA, add(CFA_XSP16, literal(-3)))
          CFI DPL0 load(1, XDATA, add(CFA_XSP16, literal(-2)))
          CFI DPH0 load(1, XDATA, add(CFA_XSP16, literal(-1)))
          CFI CFA_SP SP+0
          CFI CFA_XSP16 add(XSP16, 24)
          CFI Block cfiCond32 Using cfiCommon0
          CFI (cfiCond32) Function zclGeneral_SendAddGroupRequest
          CFI (cfiCond32) Conditional ??CrossCallReturnLabel_89
          CFI (cfiCond32) R6 load(1, XDATA, add(CFA_XSP16, literal(-24)))
          CFI (cfiCond32) VB load(1, XDATA, add(CFA_XSP16, literal(-23)))
          CFI (cfiCond32) V0 load(1, XDATA, add(CFA_XSP16, literal(-22)))
          CFI (cfiCond32) V1 load(1, XDATA, add(CFA_XSP16, literal(-21)))
          CFI (cfiCond32) V2 load(1, XDATA, add(CFA_XSP16, literal(-20)))
          CFI (cfiCond32) V3 load(1, XDATA, add(CFA_XSP16, literal(-19)))
          CFI (cfiCond32) V4 load(1, XDATA, add(CFA_XSP16, literal(-18)))
          CFI (cfiCond32) V5 load(1, XDATA, add(CFA_XSP16, literal(-17)))
          CFI (cfiCond32) V6 load(1, XDATA, add(CFA_XSP16, literal(-16)))
          CFI (cfiCond32) V7 load(1, XDATA, add(CFA_XSP16, literal(-15)))
          CFI (cfiCond32) V8 load(1, XDATA, add(CFA_XSP16, literal(-14)))
          CFI (cfiCond32) V9 load(1, XDATA, add(CFA_XSP16, literal(-13)))
          CFI (cfiCond32) V10 load(1, XDATA, add(CFA_XSP16, literal(-12)))
          CFI (cfiCond32) V11 load(1, XDATA, add(CFA_XSP16, literal(-11)))
          CFI (cfiCond32) V12 load(1, XDATA, add(CFA_XSP16, literal(-10)))
          CFI (cfiCond32) V13 load(1, XDATA, add(CFA_XSP16, literal(-9)))
          CFI (cfiCond32) V14 load(1, XDATA, add(CFA_XSP16, literal(-8)))
          CFI (cfiCond32) V15 load(1, XDATA, add(CFA_XSP16, literal(-7)))
          CFI (cfiCond32) R7 load(1, XDATA, add(CFA_XSP16, literal(-6)))
          CFI (cfiCond32) ?RET_LOW load(1, XDATA, add(CFA_XSP16, literal(-5)))
          CFI (cfiCond32) ?RET_HIGH load(1, XDATA, add(CFA_XSP16, literal(-4)))
          CFI (cfiCond32) ?BRET_EXT load(1, XDATA, add(CFA_XSP16, literal(-3)))
          CFI (cfiCond32) DPL0 load(1, XDATA, add(CFA_XSP16, literal(-2)))
          CFI (cfiCond32) DPH0 load(1, XDATA, add(CFA_XSP16, literal(-1)))
          CFI (cfiCond32) CFA_SP SP+0
          CFI (cfiCond32) CFA_XSP16 add(XSP16, 24)
          CFI Block cfiPicker33 Using cfiCommon1
          CFI (cfiPicker33) NoFunction
          CFI (cfiPicker33) Picker
        MOVX    @DPTR,A
        INC     DPTR
        MOV     ?V0 + 8,DPL
        MOV     ?V0 + 9,DPH
        ; Setup parameters for call to function osal_memcpy
        MOV     DPL,?V0 + 0
        MOV     DPH,?V0 + 1
        RET
          CFI EndBlock cfiCond31
          CFI EndBlock cfiCond32
          CFI EndBlock cfiPicker33
//  460 
//  461 /*********************************************************************
//  462  * @fn      zclGeneral_SendGroupGetMembershipRequest
//  463  *
//  464  * @brief   Send a Get Group Membership (Resposne) Command to a device
//  465  *
//  466  * @param   srcEP - Sending Apps endpoint
//  467  * @param   dstAddr - where to send the request
//  468  * @param   cmd - one of the following:
//  469  *                COMMAND_GROUP_GET_MEMBERSHIP
//  470  *                COMMAND_GROUP_GET_MEMBERSHIP_RSP
//  471  * @param   groupID - pointer to the group structure
//  472  * @param   groupName - pointer to Group Name.  This is a Zigbee
//  473  *          string data type, so the first byte is the length of the
//  474  *          name (in bytes), then the name.
//  475  *
//  476  * @return  ZStatus_t
//  477  */

        RSEG BANKED_CODE:CODE:NOROOT(0)
//  478 ZStatus_t zclGeneral_SendGroupGetMembershipRequest( uint8 srcEP, afAddrType_t *dstAddr,
zclGeneral_SendGroupGetMembershipRequest:
          CFI Block cfiBlock34 Using cfiCommon0
          CFI Function zclGeneral_SendGroupGetMembershipRequest
        CODE
//  479                                                     uint8 cmd, uint8 rspCmd, uint8 direction, uint8 capacity,
//  480                                                     uint8 grpCnt, uint16 *grpList, uint8 disableDefaultRsp, uint8 seqNum )
//  481 {
        FUNCALL zclGeneral_SendGroupGetMembershipRequest, osal_mem_alloc
        LOCFRAME ISTACK, 0, STACK
        LOCFRAME PSTACK, 0, STACK
        LOCFRAME XSTACK, 22, STACK
        LOCFRAME IOVERLAY, 0, STATIC
        LOCFRAME DOVERLAY, 0, STATIC
        ARGFRAME ISTACK, 0, STACK
        ARGFRAME PSTACK, 0, STACK
        ARGFRAME XSTACK, 22, STACK
        ARGFRAME IOVERLAY, 0, STATIC
        ARGFRAME DOVERLAY, 0, STATIC
        FUNCALL zclGeneral_SendGroupGetMembershipRequest, zcl_SendCommand
        LOCFRAME ISTACK, 0, STACK
        LOCFRAME PSTACK, 0, STACK
        LOCFRAME XSTACK, 33, STACK
        LOCFRAME IOVERLAY, 0, STATIC
        LOCFRAME DOVERLAY, 0, STATIC
        ARGFRAME ISTACK, 0, STACK
        ARGFRAME PSTACK, 0, STACK
        ARGFRAME XSTACK, 33, STACK
        ARGFRAME IOVERLAY, 0, STATIC
        ARGFRAME DOVERLAY, 0, STATIC
        FUNCALL zclGeneral_SendGroupGetMembershipRequest, osal_mem_free
        LOCFRAME ISTACK, 0, STACK
        LOCFRAME PSTACK, 0, STACK
        LOCFRAME XSTACK, 22, STACK
        LOCFRAME IOVERLAY, 0, STATIC
        LOCFRAME DOVERLAY, 0, STATIC
        ARGFRAME ISTACK, 0, STACK
        ARGFRAME PSTACK, 0, STACK
        ARGFRAME XSTACK, 22, STACK
        ARGFRAME IOVERLAY, 0, STATIC
        ARGFRAME DOVERLAY, 0, STATIC
        MOV     A,#-0x16
        LCALL   ?BANKED_ENTER_XDATA
          CFI DPH0 load(1, XDATA, add(CFA_XSP16, literal(-1)))
          CFI DPL0 load(1, XDATA, add(CFA_XSP16, literal(-2)))
          CFI ?BRET_EXT load(1, XDATA, add(CFA_XSP16, literal(-3)))
          CFI ?RET_HIGH load(1, XDATA, add(CFA_XSP16, literal(-4)))
          CFI ?RET_LOW load(1, XDATA, add(CFA_XSP16, literal(-5)))
          CFI R7 load(1, XDATA, add(CFA_XSP16, literal(-6)))
          CFI V13 load(1, XDATA, add(CFA_XSP16, literal(-7)))
          CFI V12 load(1, XDATA, add(CFA_XSP16, literal(-8)))
          CFI V11 load(1, XDATA, add(CFA_XSP16, literal(-9)))
          CFI V10 load(1, XDATA, add(CFA_XSP16, literal(-10)))
          CFI V9 load(1, XDATA, add(CFA_XSP16, literal(-11)))
          CFI V8 load(1, XDATA, add(CFA_XSP16, literal(-12)))
          CFI V7 load(1, XDATA, add(CFA_XSP16, literal(-13)))
          CFI V6 load(1, XDATA, add(CFA_XSP16, literal(-14)))
          CFI V5 load(1, XDATA, add(CFA_XSP16, literal(-15)))
          CFI V4 load(1, XDATA, add(CFA_XSP16, literal(-16)))
          CFI V3 load(1, XDATA, add(CFA_XSP16, literal(-17)))
          CFI V2 load(1, XDATA, add(CFA_XSP16, literal(-18)))
          CFI V1 load(1, XDATA, add(CFA_XSP16, literal(-19)))
          CFI V0 load(1, XDATA, add(CFA_XSP16, literal(-20)))
          CFI VB load(1, XDATA, add(CFA_XSP16, literal(-21)))
          CFI R6 load(1, XDATA, add(CFA_XSP16, literal(-22)))
          CFI CFA_SP SP+0
          CFI CFA_XSP16 add(XSP16, 22)
        ; Saved register size: 22
        ; Auto size: 0
        MOV     A,R1
        MOV     R6,A
        MOV     ?V0 + 12,R2
        MOV     ?V0 + 13,R3
        MOV     ?V0 + 10,R4
        MOV     A,R5
        MOV     R7,A
        MOV     A,#0x16
        LCALL   ?XSTACK_DISP0_8
        MOVX    A,@DPTR
        MOV     ?V0 + 4,A
        MOV     A,#0x17
        LCALL   ?XSTACK_DISP0_8
        MOVX    A,@DPTR
        MOV     ?V0 + 11,A
        MOV     A,#0x1b
        LCALL   ?XSTACK_DISP0_8
        MOVX    A,@DPTR
        MOV     ?V0 + 5,A
        MOV     A,#0x1c
        LCALL   ?XSTACK_DISP0_8
        MOVX    A,@DPTR
        MOV     ?V0 + 8,A
//  482   uint8 *buf;
//  483   uint8 *pBuf;
//  484   uint8 len = 0;
        MOV     R0,#0x0
//  485   uint8 i;
//  486   ZStatus_t status;
//  487 
//  488   if ( rspCmd )
        MOV     A,R7
        JZ      ??zclGeneral_SendGroupGetMembershipRequest_0
//  489     len++;  // Capacity
        INC     R0
??zclGeneral_SendGroupGetMembershipRequest_0:
        MOV     A,#0x18
        LCALL   ?XSTACK_DISP0_8
        MOVX    A,@DPTR
        MOV     ?V0 + 9,A
//  490 
//  491   len++;  // Group Count
//  492   len += sizeof ( uint16 ) * grpCnt;  // Group List
        CLR     C
        RLC     A
        INC     A
        ADD     A,R0
        MOV     R0,A
//  493 
//  494   buf = zcl_mem_alloc( len );
        MOV     DPL,R0
        MOV     ?V0 + 2,DPL
        MOV     ?V0 + 3,#0x0
        ; Setup parameters for call to function osal_mem_alloc
        MOV     R2,A
        MOV     R3,?V0 + 3
        LCALL   ??osal_mem_alloc?relay
        MOV     ?V0 + 0,R2
        MOV     ?V0 + 1,R3
//  495   if ( buf )
        MOV     A,R2
        ORL     A,?V0 + 1
        JNZ     $+5
        LJMP    ??zclGeneral_SendGroupGetMembershipRequest_1 & 0xFFFF
//  496   {
//  497     pBuf = buf;
        MOV     R0,?V0 + 0
        MOV     R1,?V0 + 1
//  498     if ( rspCmd )
        MOV     A,R7
        JZ      ??CrossCallReturnLabel_102
//  499       *pBuf++ = capacity;
        MOV     DPL,R0
        MOV     DPH,R1
        MOV     A,?V0 + 11
        LCALL   ?Subroutine62 & 0xFFFF
//  500 
//  501     *pBuf++ = grpCnt;
??CrossCallReturnLabel_102:
        MOV     DPL,R0
        MOV     DPH,R1
        MOV     A,?V0 + 9
        LCALL   ?Subroutine62 & 0xFFFF
//  502     for ( i = 0; i < grpCnt; i++ )
??CrossCallReturnLabel_103:
        MOV     ?V0 + 11,#0x0
        MOV     A,#0x19
        LCALL   ?XSTACK_DISP0_8
        LCALL   ??Subroutine115_0 & 0xFFFF
??CrossCallReturnLabel_203:
        SJMP    ??zclGeneral_SendGroupGetMembershipRequest_2
//  503     {
//  504       *pBuf++ = LO_UINT16( grpList[i] );
??zclGeneral_SendGroupGetMembershipRequest_3:
        MOV     A,?V0 + 11
        CLR     C
        RLC     A
        MOV     R4,A
        CLR     A
        RLC     A
        MOV     R5,A
        MOV     A,R2
        ADD     A,R4
        MOV     ?V0 + 6,A
        MOV     A,R3
        ADDC    A,R5
        MOV     ?V0 + 7,A
        MOV     DPL,?V0 + 6
        LCALL   ?Subroutine39 & 0xFFFF
//  505       *pBuf++ = HI_UINT16( grpList[i] );
??CrossCallReturnLabel_49:
        MOV     DPL,?V0 + 6
        MOV     DPH,?V0 + 7
        INC     DPTR
        MOVX    A,@DPTR
        MOV     DPL,R0
        MOV     DPH,R1
        MOVX    @DPTR,A
        INC     DPTR
        INC     R0
        MOV     R1,DPH
//  506     }
        INC     ?V0 + 11
??zclGeneral_SendGroupGetMembershipRequest_2:
        MOV     A,?V0 + 11
        CLR     C
        SUBB    A,?V0 + 9
        JC      ??zclGeneral_SendGroupGetMembershipRequest_3
//  507 
//  508     status = zcl_SendCommand( srcEP, dstAddr, ZCL_CLUSTER_ID_GEN_GROUPS,
//  509                               cmd, TRUE, direction,
//  510                               disableDefaultRsp, 0, seqNum, len, buf );
        ; Setup parameters for call to function zcl_SendCommand
        MOV     R0,#?V0 + 0
        LCALL   ?PUSH_XSTACK_I_TWO
          CFI CFA_XSP16 add(XSP16, 24)
        MOV     R0,#?V0 + 2
        LCALL   ?PUSH_XSTACK_I_TWO
          CFI CFA_XSP16 add(XSP16, 26)
        MOV     A,?V0 + 8
        MOV     ?V0 + 2,A
        MOV     R0,#?V0 + 2
        LCALL   ?PUSH_XSTACK_I_ONE
          CFI CFA_XSP16 add(XSP16, 27)
        CLR     A
        MOV     ?V0 + 2,A
        MOV     R0,#?V0 + 2
        LCALL   ?PUSH_XSTACK_I_TWO
          CFI CFA_XSP16 add(XSP16, 29)
        MOV     A,?V0 + 5
        MOV     ?V0 + 2,A
        MOV     R0,#?V0 + 2
        LCALL   ?PUSH_XSTACK_I_ONE
          CFI CFA_XSP16 add(XSP16, 30)
        MOV     A,?V0 + 4
        MOV     ?V0 + 2,A
        MOV     R0,#?V0 + 2
        LCALL   ?PUSH_XSTACK_I_ONE
          CFI CFA_XSP16 add(XSP16, 31)
        MOV     ?V0 + 2,#0x1
        MOV     R0,#?V0 + 2
        LCALL   ?PUSH_XSTACK_I_ONE
          CFI CFA_XSP16 add(XSP16, 32)
        MOV     A,?V0 + 10
        MOV     ?V0 + 2,A
        MOV     R0,#?V0 + 2
        LCALL   ?PUSH_XSTACK_I_ONE
          CFI CFA_XSP16 add(XSP16, 33)
        MOV     R4,#0x4
        MOV     R5,#0x0
        MOV     R2,?V0 + 12
        MOV     R3,?V0 + 13
        MOV     A,R6
        MOV     R1,A
        LCALL   ??zcl_SendCommand?relay
        MOV     A,#0xb
        LCALL   ?DEALLOC_XSTACK8
          CFI CFA_XSP16 add(XSP16, 22)
        MOV     A,R1
        MOV     ?V0 + 2,A
//  511     zcl_mem_free( buf );
        ; Setup parameters for call to function osal_mem_free
        MOV     R2,?V0 + 0
        MOV     R3,?V0 + 1
        LCALL   ??osal_mem_free?relay
        SJMP    ??zclGeneral_SendGroupGetMembershipRequest_4
//  512   }
//  513   else
//  514     status = ZMemError;
??zclGeneral_SendGroupGetMembershipRequest_1:
        MOV     ?V0 + 2,#0x10
//  515 
//  516   return ( status );
??zclGeneral_SendGroupGetMembershipRequest_4:
        MOV     R1,?V0 + 2
        LJMP    ??Subroutine119_0 & 0xFFFF
          CFI EndBlock cfiBlock34
//  517 }
//  518 
//  519 /*********************************************************************
//  520  * @fn      zclGeneral_SendGroupResponse
//  521  *
//  522  * @brief   Send Group Response (not Group View Response)
//  523  *
//  524  * @param   srcEP - Sending application's endpoint
//  525  * @param   dstAddr - where you want the message to go
//  526  * @param   cmd - either COMMAND_GROUP_ADD_RSP or COMMAND_GROUP_REMOVE_RSP
//  527  * @param   status - group command status
//  528  * @param   groupID - what group
//  529  *
//  530  * @return  ZStatus_t
//  531  */

        RSEG BANKED_CODE:CODE:NOROOT(0)
//  532 ZStatus_t zclGeneral_SendGroupResponse( uint8 srcEP, afAddrType_t *dstAddr,
zclGeneral_SendGroupResponse:
          CFI Block cfiBlock35 Using cfiCommon0
          CFI Function zclGeneral_SendGroupResponse
        CODE
//  533                                         uint8 cmd, uint8 status, uint16 groupID,
//  534                                         uint8 disableDefaultRsp, uint8 seqNum )
//  535 {
        FUNCALL zclGeneral_SendGroupResponse, zcl_SendCommand
        LOCFRAME ISTACK, 0, STACK
        LOCFRAME PSTACK, 0, STACK
        LOCFRAME XSTACK, 26, STACK
        LOCFRAME IOVERLAY, 0, STATIC
        LOCFRAME DOVERLAY, 0, STATIC
        ARGFRAME ISTACK, 0, STACK
        ARGFRAME PSTACK, 0, STACK
        ARGFRAME XSTACK, 26, STACK
        ARGFRAME IOVERLAY, 0, STATIC
        ARGFRAME DOVERLAY, 0, STATIC
        MOV     A,#-0xc
        LCALL   ?BANKED_ENTER_XDATA
          CFI DPH0 load(1, XDATA, add(CFA_XSP16, literal(-1)))
          CFI DPL0 load(1, XDATA, add(CFA_XSP16, literal(-2)))
          CFI ?BRET_EXT load(1, XDATA, add(CFA_XSP16, literal(-3)))
          CFI ?RET_HIGH load(1, XDATA, add(CFA_XSP16, literal(-4)))
          CFI ?RET_LOW load(1, XDATA, add(CFA_XSP16, literal(-5)))
          CFI R7 load(1, XDATA, add(CFA_XSP16, literal(-6)))
          CFI V3 load(1, XDATA, add(CFA_XSP16, literal(-7)))
          CFI V2 load(1, XDATA, add(CFA_XSP16, literal(-8)))
          CFI V1 load(1, XDATA, add(CFA_XSP16, literal(-9)))
          CFI V0 load(1, XDATA, add(CFA_XSP16, literal(-10)))
          CFI VB load(1, XDATA, add(CFA_XSP16, literal(-11)))
          CFI R6 load(1, XDATA, add(CFA_XSP16, literal(-12)))
          CFI CFA_SP SP+0
          CFI CFA_XSP16 add(XSP16, 12)
        ; Saved register size: 12
        ; Auto size: 3
        MOV     A,#-0x3
        LCALL   ?ALLOC_XSTACK8
          CFI CFA_XSP16 add(XSP16, 15)
        MOV     A,R1
        MOV     R6,A
        MOV     A,R4
        MOV     R7,A
        MOV     ?V0 + 0,R5
        MOV     A,#0x11
        LCALL   ?XSTACK_DISP0_8
        MOVX    A,@DPTR
        MOV     R4,A
        MOV     A,#0x12
        LCALL   ?XSTACK_DISP0_8
        LCALL   ?Subroutine34 & 0xFFFF
//  536   uint8 buf[3];
//  537 
//  538   buf[0] = status;
??CrossCallReturnLabel_43:
        LCALL   ?XSTACK_DISP0_8
        LCALL   ?Subroutine27 & 0xFFFF
//  539   buf[1] = LO_UINT16( groupID );
??CrossCallReturnLabel_26:
        LCALL   ?XSTACK_DISP0_8
        MOV     A,R0
        MOVX    @DPTR,A
//  540   buf[2] = HI_UINT16( groupID );
        MOV     A,#0x2
        LCALL   ?XSTACK_DISP0_8
        LCALL   ?Subroutine53 & 0xFFFF
//  541 
//  542   return zcl_SendCommand( srcEP, dstAddr, ZCL_CLUSTER_ID_GEN_GROUPS,
//  543                           cmd, TRUE, ZCL_FRAME_SERVER_CLIENT_DIR,
//  544                           disableDefaultRsp, 0, seqNum, 3, buf );
??CrossCallReturnLabel_164:
        LCALL   ?PUSH_XSTACK_I_TWO
          CFI CFA_XSP16 add(XSP16, 17)
        MOV     ?V0 + 2,#0x3
        MOV     ?V0 + 3,#0x0
        MOV     R0,#?V0 + 2
        LCALL   ?PUSH_XSTACK_I_TWO
          CFI CFA_XSP16 add(XSP16, 19)
        MOV     A,R5
        MOV     ?V0 + 1,A
        MOV     R0,#?V0 + 1
        LCALL   ?PUSH_XSTACK_I_ONE
          CFI CFA_XSP16 add(XSP16, 20)
        CLR     A
        MOV     ?V0 + 2,A
        MOV     R0,#?V0 + 2
        LCALL   ?PUSH_XSTACK_I_TWO
          CFI CFA_XSP16 add(XSP16, 22)
        MOV     A,R4
        MOV     ?V0 + 1,A
        MOV     R0,#?V0 + 1
        LCALL   ?PUSH_XSTACK_I_ONE
          CFI CFA_XSP16 add(XSP16, 23)
        MOV     ?V0 + 1,#0x1
        MOV     R0,#?V0 + 1
        LCALL   ?PUSH_XSTACK_I_ONE
          CFI CFA_XSP16 add(XSP16, 24)
        MOV     R0,#?V0 + 1
        LCALL   ?PUSH_XSTACK_I_ONE
          CFI CFA_XSP16 add(XSP16, 25)
        MOV     A,R7
        MOV     ?V0 + 1,A
        MOV     R0,#?V0 + 1
        LCALL   ?PUSH_XSTACK_I_ONE
          CFI CFA_XSP16 add(XSP16, 26)
        MOV     R4,#0x4
        LJMP    ?Subroutine0 & 0xFFFF
          CFI EndBlock cfiBlock35
//  545 }

        RSEG BANKED_CODE:CODE:NOROOT(0)
?Subroutine53:
          CFI Block cfiCond36 Using cfiCommon0
          CFI Function zclGeneral_SendGroupRequest
          CFI Conditional ??CrossCallReturnLabel_163
          CFI R6 load(1, XDATA, add(CFA_XSP16, literal(-12)))
          CFI VB load(1, XDATA, add(CFA_XSP16, literal(-11)))
          CFI V0 load(1, XDATA, add(CFA_XSP16, literal(-10)))
          CFI V1 load(1, XDATA, add(CFA_XSP16, literal(-9)))
          CFI V2 load(1, XDATA, add(CFA_XSP16, literal(-8)))
          CFI V3 load(1, XDATA, add(CFA_XSP16, literal(-7)))
          CFI R7 load(1, XDATA, add(CFA_XSP16, literal(-6)))
          CFI ?RET_LOW load(1, XDATA, add(CFA_XSP16, literal(-5)))
          CFI ?RET_HIGH load(1, XDATA, add(CFA_XSP16, literal(-4)))
          CFI ?BRET_EXT load(1, XDATA, add(CFA_XSP16, literal(-3)))
          CFI DPL0 load(1, XDATA, add(CFA_XSP16, literal(-2)))
          CFI DPH0 load(1, XDATA, add(CFA_XSP16, literal(-1)))
          CFI CFA_SP SP+0
          CFI CFA_XSP16 add(XSP16, 14)
          CFI Block cfiCond37 Using cfiCommon0
          CFI (cfiCond37) Function zclGeneral_SendGroupResponse
          CFI (cfiCond37) Conditional ??CrossCallReturnLabel_164
          CFI (cfiCond37) R6 load(1, XDATA, add(CFA_XSP16, literal(-12)))
          CFI (cfiCond37) VB load(1, XDATA, add(CFA_XSP16, literal(-11)))
          CFI (cfiCond37) V0 load(1, XDATA, add(CFA_XSP16, literal(-10)))
          CFI (cfiCond37) V1 load(1, XDATA, add(CFA_XSP16, literal(-9)))
          CFI (cfiCond37) V2 load(1, XDATA, add(CFA_XSP16, literal(-8)))
          CFI (cfiCond37) V3 load(1, XDATA, add(CFA_XSP16, literal(-7)))
          CFI (cfiCond37) R7 load(1, XDATA, add(CFA_XSP16, literal(-6)))
          CFI (cfiCond37) ?RET_LOW load(1, XDATA, add(CFA_XSP16, literal(-5)))
          CFI (cfiCond37) ?RET_HIGH load(1, XDATA, add(CFA_XSP16, literal(-4)))
          CFI (cfiCond37) ?BRET_EXT load(1, XDATA, add(CFA_XSP16, literal(-3)))
          CFI (cfiCond37) DPL0 load(1, XDATA, add(CFA_XSP16, literal(-2)))
          CFI (cfiCond37) DPH0 load(1, XDATA, add(CFA_XSP16, literal(-1)))
          CFI (cfiCond37) CFA_SP SP+0
          CFI (cfiCond37) CFA_XSP16 add(XSP16, 15)
          CFI Block cfiCond38 Using cfiCommon0
          CFI (cfiCond38) Function zclGeneral_SendLevelControlMoveToLevelRequest
          CFI (cfiCond38) Conditional ??CrossCallReturnLabel_165
          CFI (cfiCond38) R6 load(1, XDATA, add(CFA_XSP16, literal(-12)))
          CFI (cfiCond38) VB load(1, XDATA, add(CFA_XSP16, literal(-11)))
          CFI (cfiCond38) V0 load(1, XDATA, add(CFA_XSP16, literal(-10)))
          CFI (cfiCond38) V1 load(1, XDATA, add(CFA_XSP16, literal(-9)))
          CFI (cfiCond38) V2 load(1, XDATA, add(CFA_XSP16, literal(-8)))
          CFI (cfiCond38) V3 load(1, XDATA, add(CFA_XSP16, literal(-7)))
          CFI (cfiCond38) R7 load(1, XDATA, add(CFA_XSP16, literal(-6)))
          CFI (cfiCond38) ?RET_LOW load(1, XDATA, add(CFA_XSP16, literal(-5)))
          CFI (cfiCond38) ?RET_HIGH load(1, XDATA, add(CFA_XSP16, literal(-4)))
          CFI (cfiCond38) ?BRET_EXT load(1, XDATA, add(CFA_XSP16, literal(-3)))
          CFI (cfiCond38) DPL0 load(1, XDATA, add(CFA_XSP16, literal(-2)))
          CFI (cfiCond38) DPH0 load(1, XDATA, add(CFA_XSP16, literal(-1)))
          CFI (cfiCond38) CFA_SP SP+0
          CFI (cfiCond38) CFA_XSP16 add(XSP16, 15)
          CFI Block cfiCond39 Using cfiCommon0
          CFI (cfiCond39) Function zclGeneral_SendLevelControlStepRequest
          CFI (cfiCond39) Conditional ??CrossCallReturnLabel_166
          CFI (cfiCond39) R6 load(1, XDATA, add(CFA_XSP16, literal(-12)))
          CFI (cfiCond39) VB load(1, XDATA, add(CFA_XSP16, literal(-11)))
          CFI (cfiCond39) V0 load(1, XDATA, add(CFA_XSP16, literal(-10)))
          CFI (cfiCond39) V1 load(1, XDATA, add(CFA_XSP16, literal(-9)))
          CFI (cfiCond39) V2 load(1, XDATA, add(CFA_XSP16, literal(-8)))
          CFI (cfiCond39) V3 load(1, XDATA, add(CFA_XSP16, literal(-7)))
          CFI (cfiCond39) R7 load(1, XDATA, add(CFA_XSP16, literal(-6)))
          CFI (cfiCond39) ?RET_LOW load(1, XDATA, add(CFA_XSP16, literal(-5)))
          CFI (cfiCond39) ?RET_HIGH load(1, XDATA, add(CFA_XSP16, literal(-4)))
          CFI (cfiCond39) ?BRET_EXT load(1, XDATA, add(CFA_XSP16, literal(-3)))
          CFI (cfiCond39) DPL0 load(1, XDATA, add(CFA_XSP16, literal(-2)))
          CFI (cfiCond39) DPH0 load(1, XDATA, add(CFA_XSP16, literal(-1)))
          CFI (cfiCond39) CFA_SP SP+0
          CFI (cfiCond39) CFA_XSP16 add(XSP16, 16)
          CFI Block cfiPicker40 Using cfiCommon1
          CFI (cfiPicker40) NoFunction
          CFI (cfiPicker40) Picker
        MOV     A,R1
          CFI EndBlock cfiCond36
          CFI EndBlock cfiCond37
          CFI EndBlock cfiCond38
          CFI EndBlock cfiCond39
          CFI EndBlock cfiPicker40
        REQUIRE ??Subroutine103_0
        ; // Fall through to label ??Subroutine103_0

        RSEG BANKED_CODE:CODE:NOROOT(0)
??Subroutine103_0:
          CFI Block cfiCond41 Using cfiCommon0
          CFI Function zclGeneral_SendSceneCopy
          CFI Conditional ??CrossCallReturnLabel_167
          CFI R6 load(1, XDATA, add(CFA_XSP16, literal(-12)))
          CFI VB load(1, XDATA, add(CFA_XSP16, literal(-11)))
          CFI V0 load(1, XDATA, add(CFA_XSP16, literal(-10)))
          CFI V1 load(1, XDATA, add(CFA_XSP16, literal(-9)))
          CFI V2 load(1, XDATA, add(CFA_XSP16, literal(-8)))
          CFI V3 load(1, XDATA, add(CFA_XSP16, literal(-7)))
          CFI R7 load(1, XDATA, add(CFA_XSP16, literal(-6)))
          CFI ?RET_LOW load(1, XDATA, add(CFA_XSP16, literal(-5)))
          CFI ?RET_HIGH load(1, XDATA, add(CFA_XSP16, literal(-4)))
          CFI ?BRET_EXT load(1, XDATA, add(CFA_XSP16, literal(-3)))
          CFI DPL0 load(1, XDATA, add(CFA_XSP16, literal(-2)))
          CFI DPH0 load(1, XDATA, add(CFA_XSP16, literal(-1)))
          CFI CFA_SP SP+0
          CFI CFA_XSP16 add(XSP16, 19)
          CFI Block cfiCond42 Using cfiCommon0
          CFI (cfiCond42) Function zclGeneral_SendSceneCopyResponse
          CFI (cfiCond42) Conditional ??CrossCallReturnLabel_168
          CFI (cfiCond42) R6 load(1, XDATA, add(CFA_XSP16, literal(-12)))
          CFI (cfiCond42) VB load(1, XDATA, add(CFA_XSP16, literal(-11)))
          CFI (cfiCond42) V0 load(1, XDATA, add(CFA_XSP16, literal(-10)))
          CFI (cfiCond42) V1 load(1, XDATA, add(CFA_XSP16, literal(-9)))
          CFI (cfiCond42) V2 load(1, XDATA, add(CFA_XSP16, literal(-8)))
          CFI (cfiCond42) V3 load(1, XDATA, add(CFA_XSP16, literal(-7)))
          CFI (cfiCond42) R7 load(1, XDATA, add(CFA_XSP16, literal(-6)))
          CFI (cfiCond42) ?RET_LOW load(1, XDATA, add(CFA_XSP16, literal(-5)))
          CFI (cfiCond42) ?RET_HIGH load(1, XDATA, add(CFA_XSP16, literal(-4)))
          CFI (cfiCond42) ?BRET_EXT load(1, XDATA, add(CFA_XSP16, literal(-3)))
          CFI (cfiCond42) DPL0 load(1, XDATA, add(CFA_XSP16, literal(-2)))
          CFI (cfiCond42) DPH0 load(1, XDATA, add(CFA_XSP16, literal(-1)))
          CFI (cfiCond42) CFA_SP SP+0
          CFI (cfiCond42) CFA_XSP16 add(XSP16, 16)
          CFI Block cfiCond43 Using cfiCommon0
          CFI (cfiCond43) Function zclGeneral_SendGroupRequest
          CFI (cfiCond43) Conditional ??CrossCallReturnLabel_163
          CFI (cfiCond43) R6 load(1, XDATA, add(CFA_XSP16, literal(-12)))
          CFI (cfiCond43) VB load(1, XDATA, add(CFA_XSP16, literal(-11)))
          CFI (cfiCond43) V0 load(1, XDATA, add(CFA_XSP16, literal(-10)))
          CFI (cfiCond43) V1 load(1, XDATA, add(CFA_XSP16, literal(-9)))
          CFI (cfiCond43) V2 load(1, XDATA, add(CFA_XSP16, literal(-8)))
          CFI (cfiCond43) V3 load(1, XDATA, add(CFA_XSP16, literal(-7)))
          CFI (cfiCond43) R7 load(1, XDATA, add(CFA_XSP16, literal(-6)))
          CFI (cfiCond43) ?RET_LOW load(1, XDATA, add(CFA_XSP16, literal(-5)))
          CFI (cfiCond43) ?RET_HIGH load(1, XDATA, add(CFA_XSP16, literal(-4)))
          CFI (cfiCond43) ?BRET_EXT load(1, XDATA, add(CFA_XSP16, literal(-3)))
          CFI (cfiCond43) DPL0 load(1, XDATA, add(CFA_XSP16, literal(-2)))
          CFI (cfiCond43) DPH0 load(1, XDATA, add(CFA_XSP16, literal(-1)))
          CFI (cfiCond43) CFA_SP SP+0
          CFI (cfiCond43) CFA_XSP16 add(XSP16, 14)
          CFI Block cfiCond44 Using cfiCommon0
          CFI (cfiCond44) Function zclGeneral_SendGroupResponse
          CFI (cfiCond44) Conditional ??CrossCallReturnLabel_164
          CFI (cfiCond44) R6 load(1, XDATA, add(CFA_XSP16, literal(-12)))
          CFI (cfiCond44) VB load(1, XDATA, add(CFA_XSP16, literal(-11)))
          CFI (cfiCond44) V0 load(1, XDATA, add(CFA_XSP16, literal(-10)))
          CFI (cfiCond44) V1 load(1, XDATA, add(CFA_XSP16, literal(-9)))
          CFI (cfiCond44) V2 load(1, XDATA, add(CFA_XSP16, literal(-8)))
          CFI (cfiCond44) V3 load(1, XDATA, add(CFA_XSP16, literal(-7)))
          CFI (cfiCond44) R7 load(1, XDATA, add(CFA_XSP16, literal(-6)))
          CFI (cfiCond44) ?RET_LOW load(1, XDATA, add(CFA_XSP16, literal(-5)))
          CFI (cfiCond44) ?RET_HIGH load(1, XDATA, add(CFA_XSP16, literal(-4)))
          CFI (cfiCond44) ?BRET_EXT load(1, XDATA, add(CFA_XSP16, literal(-3)))
          CFI (cfiCond44) DPL0 load(1, XDATA, add(CFA_XSP16, literal(-2)))
          CFI (cfiCond44) DPH0 load(1, XDATA, add(CFA_XSP16, literal(-1)))
          CFI (cfiCond44) CFA_SP SP+0
          CFI (cfiCond44) CFA_XSP16 add(XSP16, 15)
          CFI Block cfiCond45 Using cfiCommon0
          CFI (cfiCond45) Function zclGeneral_SendLevelControlMoveToLevelRequest
          CFI (cfiCond45) Conditional ??CrossCallReturnLabel_165
          CFI (cfiCond45) R6 load(1, XDATA, add(CFA_XSP16, literal(-12)))
          CFI (cfiCond45) VB load(1, XDATA, add(CFA_XSP16, literal(-11)))
          CFI (cfiCond45) V0 load(1, XDATA, add(CFA_XSP16, literal(-10)))
          CFI (cfiCond45) V1 load(1, XDATA, add(CFA_XSP16, literal(-9)))
          CFI (cfiCond45) V2 load(1, XDATA, add(CFA_XSP16, literal(-8)))
          CFI (cfiCond45) V3 load(1, XDATA, add(CFA_XSP16, literal(-7)))
          CFI (cfiCond45) R7 load(1, XDATA, add(CFA_XSP16, literal(-6)))
          CFI (cfiCond45) ?RET_LOW load(1, XDATA, add(CFA_XSP16, literal(-5)))
          CFI (cfiCond45) ?RET_HIGH load(1, XDATA, add(CFA_XSP16, literal(-4)))
          CFI (cfiCond45) ?BRET_EXT load(1, XDATA, add(CFA_XSP16, literal(-3)))
          CFI (cfiCond45) DPL0 load(1, XDATA, add(CFA_XSP16, literal(-2)))
          CFI (cfiCond45) DPH0 load(1, XDATA, add(CFA_XSP16, literal(-1)))
          CFI (cfiCond45) CFA_SP SP+0
          CFI (cfiCond45) CFA_XSP16 add(XSP16, 15)
          CFI Block cfiCond46 Using cfiCommon0
          CFI (cfiCond46) Function zclGeneral_SendLevelControlStepRequest
          CFI (cfiCond46) Conditional ??CrossCallReturnLabel_166
          CFI (cfiCond46) R6 load(1, XDATA, add(CFA_XSP16, literal(-12)))
          CFI (cfiCond46) VB load(1, XDATA, add(CFA_XSP16, literal(-11)))
          CFI (cfiCond46) V0 load(1, XDATA, add(CFA_XSP16, literal(-10)))
          CFI (cfiCond46) V1 load(1, XDATA, add(CFA_XSP16, literal(-9)))
          CFI (cfiCond46) V2 load(1, XDATA, add(CFA_XSP16, literal(-8)))
          CFI (cfiCond46) V3 load(1, XDATA, add(CFA_XSP16, literal(-7)))
          CFI (cfiCond46) R7 load(1, XDATA, add(CFA_XSP16, literal(-6)))
          CFI (cfiCond46) ?RET_LOW load(1, XDATA, add(CFA_XSP16, literal(-5)))
          CFI (cfiCond46) ?RET_HIGH load(1, XDATA, add(CFA_XSP16, literal(-4)))
          CFI (cfiCond46) ?BRET_EXT load(1, XDATA, add(CFA_XSP16, literal(-3)))
          CFI (cfiCond46) DPL0 load(1, XDATA, add(CFA_XSP16, literal(-2)))
          CFI (cfiCond46) DPH0 load(1, XDATA, add(CFA_XSP16, literal(-1)))
          CFI (cfiCond46) CFA_SP SP+0
          CFI (cfiCond46) CFA_XSP16 add(XSP16, 16)
          CFI Block cfiPicker47 Using cfiCommon1
          CFI (cfiPicker47) NoFunction
          CFI (cfiPicker47) Picker
        LCALL   ?Subroutine90 & 0xFFFF
??CrossCallReturnLabel_170:
        MOV     ?V0 + 2,DPL
        MOV     ?V0 + 3,DPH
        MOV     R0,#?V0 + 2
        RET
          CFI EndBlock cfiCond41
          CFI EndBlock cfiCond42
          CFI EndBlock cfiCond43
          CFI EndBlock cfiCond44
          CFI EndBlock cfiCond45
          CFI EndBlock cfiCond46
          CFI EndBlock cfiPicker47
//  546 
//  547 /*********************************************************************
//  548  * @fn      zclGeneral_SendGroupViewResponse
//  549  *
//  550  * @brief   Call to send Group Response Command
//  551  *
//  552  * @param   srcEP - Sending application's endpoint
//  553  * @param   dstAddr - where you want the message to go
//  554  * @param   cmd - either COMMAND_GROUP_ADD_RSP or COMMAND_GROUP_REMOVE_RSP
//  555  * @param   status - group command status
//  556  * @param   grp - group info
//  557  *
//  558  * @return  ZStatus_t
//  559  */

        RSEG BANKED_CODE:CODE:NOROOT(0)
//  560 ZStatus_t zclGeneral_SendGroupViewResponse( uint8 srcEP, afAddrType_t *dstAddr,
zclGeneral_SendGroupViewResponse:
          CFI Block cfiBlock48 Using cfiCommon0
          CFI Function zclGeneral_SendGroupViewResponse
        CODE
//  561                                             uint8 status, aps_Group_t *grp, uint8 disableDefaultRsp, uint8 seqNum )
//  562 {
        FUNCALL zclGeneral_SendGroupViewResponse, osal_mem_alloc
        LOCFRAME ISTACK, 0, STACK
        LOCFRAME PSTACK, 0, STACK
        LOCFRAME XSTACK, 24, STACK
        LOCFRAME IOVERLAY, 0, STATIC
        LOCFRAME DOVERLAY, 0, STATIC
        ARGFRAME ISTACK, 0, STACK
        ARGFRAME PSTACK, 0, STACK
        ARGFRAME XSTACK, 24, STACK
        ARGFRAME IOVERLAY, 0, STATIC
        ARGFRAME DOVERLAY, 0, STATIC
        FUNCALL zclGeneral_SendGroupViewResponse, osal_memcpy
        LOCFRAME ISTACK, 0, STACK
        LOCFRAME PSTACK, 0, STACK
        LOCFRAME XSTACK, 27, STACK
        LOCFRAME IOVERLAY, 0, STATIC
        LOCFRAME DOVERLAY, 0, STATIC
        ARGFRAME ISTACK, 0, STACK
        ARGFRAME PSTACK, 0, STACK
        ARGFRAME XSTACK, 27, STACK
        ARGFRAME IOVERLAY, 0, STATIC
        ARGFRAME DOVERLAY, 0, STATIC
        FUNCALL zclGeneral_SendGroupViewResponse, zcl_SendCommand
        LOCFRAME ISTACK, 0, STACK
        LOCFRAME PSTACK, 0, STACK
        LOCFRAME XSTACK, 35, STACK
        LOCFRAME IOVERLAY, 0, STATIC
        LOCFRAME DOVERLAY, 0, STATIC
        ARGFRAME ISTACK, 0, STACK
        ARGFRAME PSTACK, 0, STACK
        ARGFRAME XSTACK, 35, STACK
        ARGFRAME IOVERLAY, 0, STATIC
        ARGFRAME DOVERLAY, 0, STATIC
        FUNCALL zclGeneral_SendGroupViewResponse, osal_mem_free
        LOCFRAME ISTACK, 0, STACK
        LOCFRAME PSTACK, 0, STACK
        LOCFRAME XSTACK, 24, STACK
        LOCFRAME IOVERLAY, 0, STATIC
        LOCFRAME DOVERLAY, 0, STATIC
        ARGFRAME ISTACK, 0, STACK
        ARGFRAME PSTACK, 0, STACK
        ARGFRAME XSTACK, 24, STACK
        ARGFRAME IOVERLAY, 0, STATIC
        ARGFRAME DOVERLAY, 0, STATIC
        MOV     A,#-0x18
        LCALL   ?BANKED_ENTER_XDATA
          CFI DPH0 load(1, XDATA, add(CFA_XSP16, literal(-1)))
          CFI DPL0 load(1, XDATA, add(CFA_XSP16, literal(-2)))
          CFI ?BRET_EXT load(1, XDATA, add(CFA_XSP16, literal(-3)))
          CFI ?RET_HIGH load(1, XDATA, add(CFA_XSP16, literal(-4)))
          CFI ?RET_LOW load(1, XDATA, add(CFA_XSP16, literal(-5)))
          CFI R7 load(1, XDATA, add(CFA_XSP16, literal(-6)))
          CFI V15 load(1, XDATA, add(CFA_XSP16, literal(-7)))
          CFI V14 load(1, XDATA, add(CFA_XSP16, literal(-8)))
          CFI V13 load(1, XDATA, add(CFA_XSP16, literal(-9)))
          CFI V12 load(1, XDATA, add(CFA_XSP16, literal(-10)))
          CFI V11 load(1, XDATA, add(CFA_XSP16, literal(-11)))
          CFI V10 load(1, XDATA, add(CFA_XSP16, literal(-12)))
          CFI V9 load(1, XDATA, add(CFA_XSP16, literal(-13)))
          CFI V8 load(1, XDATA, add(CFA_XSP16, literal(-14)))
          CFI V7 load(1, XDATA, add(CFA_XSP16, literal(-15)))
          CFI V6 load(1, XDATA, add(CFA_XSP16, literal(-16)))
          CFI V5 load(1, XDATA, add(CFA_XSP16, literal(-17)))
          CFI V4 load(1, XDATA, add(CFA_XSP16, literal(-18)))
          CFI V3 load(1, XDATA, add(CFA_XSP16, literal(-19)))
          CFI V2 load(1, XDATA, add(CFA_XSP16, literal(-20)))
          CFI V1 load(1, XDATA, add(CFA_XSP16, literal(-21)))
          CFI V0 load(1, XDATA, add(CFA_XSP16, literal(-22)))
          CFI VB load(1, XDATA, add(CFA_XSP16, literal(-23)))
          CFI R6 load(1, XDATA, add(CFA_XSP16, literal(-24)))
          CFI CFA_SP SP+0
          CFI CFA_XSP16 add(XSP16, 24)
        ; Saved register size: 24
        ; Auto size: 0
        MOV     ?V0 + 9,R1
        MOV     ?V0 + 14,R2
        MOV     ?V0 + 15,R3
        MOV     ?V0 + 7,R4
        MOV     ?V0 + 12,R5
        MOV     A,#0x1a
        LCALL   ?XSTACK_DISP0_8
        MOVX    A,@DPTR
        MOV     ?V0 + 8,A
//  563   uint8 *buf;
//  564   uint8 len;
//  565   ZStatus_t stat;
//  566 
//  567   len = 1 + 2 + 1; // Status + Group ID + name length
        MOV     R0,#0x4
        MOV     A,#0x18
        LCALL   ?XSTACK_DISP0_8
        MOVX    A,@DPTR
        MOV     ?V0 + 4,A
        INC     DPTR
        MOVX    A,@DPTR
        MOV     ?V0 + 5,A
//  568 
//  569   if ( status == ZCL_STATUS_SUCCESS )
        MOV     A,?V0 + 4
        ADD     A,#0x2
        MOV     ?V0 + 2,A
        MOV     A,?V0 + 5
        ADDC    A,#0x0
        MOV     ?V0 + 3,A
        MOV     A,R4
        JNZ     ??zclGeneral_SendGroupViewResponse_0
//  570   {
//  571     len += grp->name[0];  // String length
        MOV     DPL,?V0 + 2
        MOV     DPH,?V0 + 3
        MOVX    A,@DPTR
        ADD     A,#0x4
        MOV     R0,A
//  572   }
//  573 
//  574   buf = zcl_mem_alloc( len );
??zclGeneral_SendGroupViewResponse_0:
        MOV     DPL,R0
        MOV     R6,DPL
        ; Setup parameters for call to function osal_mem_alloc
        MOV     A,R6
        MOV     R2,A
        MOV     R3,#0x0
        LCALL   ??osal_mem_alloc?relay
        MOV     ?V0 + 0,R2
        MOV     ?V0 + 1,R3
//  575   if ( buf )
        MOV     A,R2
        ORL     A,?V0 + 1
        JNZ     $+5
        LJMP    ??zclGeneral_SendGroupViewResponse_1 & 0xFFFF
//  576   {
//  577     buf[0] = status;
        MOV     DPL,R2
        MOV     DPH,R3
        MOV     A,?V0 + 7
        MOVX    @DPTR,A
//  578     buf[1] = LO_UINT16( grp->ID );
        MOV     DPL,?V0 + 4
        MOV     DPH,?V0 + 5
        MOVX    A,@DPTR
        MOV     DPL,R2
        MOV     DPH,R3
        INC     DPTR
        LCALL   ?Subroutine66 & 0xFFFF
//  579     buf[2] = HI_UINT16( grp->ID );
??CrossCallReturnLabel_108:
        MOVX    A,@DPTR
        MOV     DPL,R2
        MOV     DPH,R3
        INC     DPTR
        INC     DPTR
        MOVX    @DPTR,A
//  580 
//  581     if ( status == ZCL_STATUS_SUCCESS )
        MOV     A,R2
        ADD     A,#0x3
        MOV     R0,A
        MOV     A,R3
        ADDC    A,#0x0
        MOV     R1,A
        MOV     A,?V0 + 7
        JNZ     ??zclGeneral_SendGroupViewResponse_2
//  582     {
//  583       buf[3] = grp->name[0]; // string length
        MOV     DPL,?V0 + 2
        MOV     DPH,?V0 + 3
        MOVX    A,@DPTR
        MOV     DPL,R0
        MOV     DPH,R1
        LCALL   ?Subroutine66 & 0xFFFF
//  584       zcl_memcpy( &buf[4], (&grp->name[1]), grp->name[0] );
//  585     }
??CrossCallReturnLabel_109:
        INC     DPTR
        INC     DPTR
        MOV     R1,DPL
        MOV     R2,DPH
        MOV     ?V0 + 4,R1
        MOV     ?V0 + 5,R2
        MOV     ?V0 + 6,#0x0
        MOV     R0,#?V0 + 4
        LCALL   ?PUSH_XSTACK_I_THREE
          CFI CFA_XSP16 add(XSP16, 27)
        MOV     DPL,?V0 + 2
        MOV     DPH,?V0 + 3
        MOVX    A,@DPTR
        MOV     R4,A
        MOV     R5,#0x0
        MOV     A,?V0 + 0
        ADD     A,#0x4
        MOV     R2,A
        MOV     A,R3
        ADDC    A,#0x0
        MOV     R3,A
        LCALL   ??osal_memcpy?relay
        MOV     A,#0x3
        LCALL   ?DEALLOC_XSTACK8
          CFI CFA_XSP16 add(XSP16, 24)
        SJMP    ??zclGeneral_SendGroupViewResponse_3
//  586     else //ZCL_STATUS_NOT_FOUND
//  587     {
//  588       buf[3] = 0;
??zclGeneral_SendGroupViewResponse_2:
        MOV     DPL,R0
        MOV     DPH,R1
        CLR     A
        MOVX    @DPTR,A
//  589     }
//  590 
//  591     stat = zcl_SendCommand( srcEP, dstAddr, ZCL_CLUSTER_ID_GEN_GROUPS,
//  592                             COMMAND_GROUP_VIEW_RSP, TRUE, ZCL_FRAME_SERVER_CLIENT_DIR,
//  593                             disableDefaultRsp, 0, seqNum, len, buf );
??zclGeneral_SendGroupViewResponse_3:
        ; Setup parameters for call to function zcl_SendCommand
        MOV     R0,#?V0 + 0
        LCALL   ?PUSH_XSTACK_I_TWO
          CFI CFA_XSP16 add(XSP16, 26)
        MOV     ?V0 + 2,R6
        MOV     ?V0 + 3,#0x0
        MOV     R0,#?V0 + 2
        LCALL   ?PUSH_XSTACK_I_TWO
          CFI CFA_XSP16 add(XSP16, 28)
        MOV     A,?V0 + 8
        MOV     ?V0 + 2,A
        MOV     R0,#?V0 + 2
        LCALL   ?PUSH_XSTACK_I_ONE
          CFI CFA_XSP16 add(XSP16, 29)
        CLR     A
        MOV     ?V0 + 2,A
        MOV     R0,#?V0 + 2
        LCALL   ?PUSH_XSTACK_I_TWO
          CFI CFA_XSP16 add(XSP16, 31)
        MOV     A,?V0 + 12
        MOV     ?V0 + 2,A
        MOV     R0,#?V0 + 2
        LCALL   ?PUSH_XSTACK_I_ONE
          CFI CFA_XSP16 add(XSP16, 32)
        MOV     ?V0 + 2,#0x1
        MOV     R0,#?V0 + 2
        LCALL   ?PUSH_XSTACK_I_ONE
          CFI CFA_XSP16 add(XSP16, 33)
        MOV     R0,#?V0 + 2
        LCALL   ?PUSH_XSTACK_I_ONE
          CFI CFA_XSP16 add(XSP16, 34)
        MOV     R0,#?V0 + 2
        LCALL   ?PUSH_XSTACK_I_ONE
          CFI CFA_XSP16 add(XSP16, 35)
        MOV     R4,#0x4
        MOV     R5,#0x0
        MOV     R2,?V0 + 14
        MOV     R3,?V0 + 15
        MOV     R1,?V0 + 9
        LCALL   ??zcl_SendCommand?relay
        MOV     A,#0xb
        LCALL   ?DEALLOC_XSTACK8
          CFI CFA_XSP16 add(XSP16, 24)
        MOV     A,R1
        MOV     R6,A
//  594     zcl_mem_free( buf );
        ; Setup parameters for call to function osal_mem_free
        MOV     R2,?V0 + 0
        MOV     R3,?V0 + 1
        LCALL   ??osal_mem_free?relay
        SJMP    ??zclGeneral_SendGroupViewResponse_4
//  595   }
//  596   else
//  597   {
//  598     stat = ZMemError;
??zclGeneral_SendGroupViewResponse_1:
        MOV     R6,#0x10
//  599   }
//  600 
//  601   return ( stat );
??zclGeneral_SendGroupViewResponse_4:
        LJMP    ?Subroutine10 & 0xFFFF
          CFI EndBlock cfiBlock48
//  602 }

        RSEG BANKED_CODE:CODE:NOROOT(0)
?Subroutine66:
          CFI Block cfiCond49 Using cfiCommon0
          CFI Function zclGeneral_SendGroupViewResponse
          CFI Conditional ??CrossCallReturnLabel_108
          CFI R6 load(1, XDATA, add(CFA_XSP16, literal(-24)))
          CFI VB load(1, XDATA, add(CFA_XSP16, literal(-23)))
          CFI V0 load(1, XDATA, add(CFA_XSP16, literal(-22)))
          CFI V1 load(1, XDATA, add(CFA_XSP16, literal(-21)))
          CFI V2 load(1, XDATA, add(CFA_XSP16, literal(-20)))
          CFI V3 load(1, XDATA, add(CFA_XSP16, literal(-19)))
          CFI V4 load(1, XDATA, add(CFA_XSP16, literal(-18)))
          CFI V5 load(1, XDATA, add(CFA_XSP16, literal(-17)))
          CFI V6 load(1, XDATA, add(CFA_XSP16, literal(-16)))
          CFI V7 load(1, XDATA, add(CFA_XSP16, literal(-15)))
          CFI V8 load(1, XDATA, add(CFA_XSP16, literal(-14)))
          CFI V9 load(1, XDATA, add(CFA_XSP16, literal(-13)))
          CFI V10 load(1, XDATA, add(CFA_XSP16, literal(-12)))
          CFI V11 load(1, XDATA, add(CFA_XSP16, literal(-11)))
          CFI V12 load(1, XDATA, add(CFA_XSP16, literal(-10)))
          CFI V13 load(1, XDATA, add(CFA_XSP16, literal(-9)))
          CFI V14 load(1, XDATA, add(CFA_XSP16, literal(-8)))
          CFI V15 load(1, XDATA, add(CFA_XSP16, literal(-7)))
          CFI R7 load(1, XDATA, add(CFA_XSP16, literal(-6)))
          CFI ?RET_LOW load(1, XDATA, add(CFA_XSP16, literal(-5)))
          CFI ?RET_HIGH load(1, XDATA, add(CFA_XSP16, literal(-4)))
          CFI ?BRET_EXT load(1, XDATA, add(CFA_XSP16, literal(-3)))
          CFI DPL0 load(1, XDATA, add(CFA_XSP16, literal(-2)))
          CFI DPH0 load(1, XDATA, add(CFA_XSP16, literal(-1)))
          CFI CFA_SP SP+0
          CFI CFA_XSP16 add(XSP16, 24)
          CFI Block cfiCond50 Using cfiCommon0
          CFI (cfiCond50) Function zclGeneral_SendGroupViewResponse
          CFI (cfiCond50) Conditional ??CrossCallReturnLabel_109
          CFI (cfiCond50) R6 load(1, XDATA, add(CFA_XSP16, literal(-24)))
          CFI (cfiCond50) VB load(1, XDATA, add(CFA_XSP16, literal(-23)))
          CFI (cfiCond50) V0 load(1, XDATA, add(CFA_XSP16, literal(-22)))
          CFI (cfiCond50) V1 load(1, XDATA, add(CFA_XSP16, literal(-21)))
          CFI (cfiCond50) V2 load(1, XDATA, add(CFA_XSP16, literal(-20)))
          CFI (cfiCond50) V3 load(1, XDATA, add(CFA_XSP16, literal(-19)))
          CFI (cfiCond50) V4 load(1, XDATA, add(CFA_XSP16, literal(-18)))
          CFI (cfiCond50) V5 load(1, XDATA, add(CFA_XSP16, literal(-17)))
          CFI (cfiCond50) V6 load(1, XDATA, add(CFA_XSP16, literal(-16)))
          CFI (cfiCond50) V7 load(1, XDATA, add(CFA_XSP16, literal(-15)))
          CFI (cfiCond50) V8 load(1, XDATA, add(CFA_XSP16, literal(-14)))
          CFI (cfiCond50) V9 load(1, XDATA, add(CFA_XSP16, literal(-13)))
          CFI (cfiCond50) V10 load(1, XDATA, add(CFA_XSP16, literal(-12)))
          CFI (cfiCond50) V11 load(1, XDATA, add(CFA_XSP16, literal(-11)))
          CFI (cfiCond50) V12 load(1, XDATA, add(CFA_XSP16, literal(-10)))
          CFI (cfiCond50) V13 load(1, XDATA, add(CFA_XSP16, literal(-9)))
          CFI (cfiCond50) V14 load(1, XDATA, add(CFA_XSP16, literal(-8)))
          CFI (cfiCond50) V15 load(1, XDATA, add(CFA_XSP16, literal(-7)))
          CFI (cfiCond50) R7 load(1, XDATA, add(CFA_XSP16, literal(-6)))
          CFI (cfiCond50) ?RET_LOW load(1, XDATA, add(CFA_XSP16, literal(-5)))
          CFI (cfiCond50) ?RET_HIGH load(1, XDATA, add(CFA_XSP16, literal(-4)))
          CFI (cfiCond50) ?BRET_EXT load(1, XDATA, add(CFA_XSP16, literal(-3)))
          CFI (cfiCond50) DPL0 load(1, XDATA, add(CFA_XSP16, literal(-2)))
          CFI (cfiCond50) DPH0 load(1, XDATA, add(CFA_XSP16, literal(-1)))
          CFI (cfiCond50) CFA_SP SP+0
          CFI (cfiCond50) CFA_XSP16 add(XSP16, 24)
          CFI Block cfiPicker51 Using cfiCommon1
          CFI (cfiPicker51) NoFunction
          CFI (cfiPicker51) Picker
        MOVX    @DPTR,A
        ; Setup parameters for call to function osal_memcpy
        MOV     DPL,?V0 + 4
        MOV     DPH,?V0 + 5
        INC     DPTR
        RET
          CFI EndBlock cfiCond49
          CFI EndBlock cfiCond50
          CFI EndBlock cfiPicker51
//  603 #endif // ZCL_GROUPS
//  604 
//  605 #ifdef ZCL_SCENES
//  606 /*********************************************************************
//  607  * @fn      zclGeneral_SendAddSceneRequest
//  608  *
//  609  * @brief   Send the (Enhanced) Add Scene Request to a device. You can
//  610  *           also use the appropriate macro.
//  611  *
//  612  * @param   srcEP - Sending Apps endpoint
//  613  * @param   dstAddr - where to send the request
//  614  * @param   scene - pointer to the scene structure
//  615  * @param  cmd - COMMAND_SCENE_ADD or COMMAND_SCENE_ENHANCED_ADD
//  616  * @param   disableDefaultRsp - whether to disable the Default Response command
//  617  * @param   seqNum - sequence number
//  618  *
//  619  * @return  ZStatus_t
//  620  */

        RSEG BANKED_CODE:CODE:NOROOT(0)
//  621 ZStatus_t zclGeneral_SendAddSceneRequest( uint8 srcEP, afAddrType_t *dstAddr,
zclGeneral_SendAddSceneRequest:
          CFI Block cfiBlock52 Using cfiCommon0
          CFI Function zclGeneral_SendAddSceneRequest
        CODE
//  622                                           uint8 cmd, zclGeneral_Scene_t *scene,
//  623                                           uint8 disableDefaultRsp, uint8 seqNum )
//  624 {
        FUNCALL zclGeneral_SendAddSceneRequest, osal_mem_alloc
        LOCFRAME ISTACK, 0, STACK
        LOCFRAME PSTACK, 0, STACK
        LOCFRAME XSTACK, 27, STACK
        LOCFRAME IOVERLAY, 0, STATIC
        LOCFRAME DOVERLAY, 0, STATIC
        ARGFRAME ISTACK, 0, STACK
        ARGFRAME PSTACK, 0, STACK
        ARGFRAME XSTACK, 27, STACK
        ARGFRAME IOVERLAY, 0, STATIC
        ARGFRAME DOVERLAY, 0, STATIC
        FUNCALL zclGeneral_SendAddSceneRequest, osal_memcpy
        LOCFRAME ISTACK, 0, STACK
        LOCFRAME PSTACK, 0, STACK
        LOCFRAME XSTACK, 30, STACK
        LOCFRAME IOVERLAY, 0, STATIC
        LOCFRAME DOVERLAY, 0, STATIC
        ARGFRAME ISTACK, 0, STACK
        ARGFRAME PSTACK, 0, STACK
        ARGFRAME XSTACK, 30, STACK
        ARGFRAME IOVERLAY, 0, STATIC
        ARGFRAME DOVERLAY, 0, STATIC
        FUNCALL zclGeneral_SendAddSceneRequest, osal_memcpy
        LOCFRAME ISTACK, 0, STACK
        LOCFRAME PSTACK, 0, STACK
        LOCFRAME XSTACK, 30, STACK
        LOCFRAME IOVERLAY, 0, STATIC
        LOCFRAME DOVERLAY, 0, STATIC
        ARGFRAME ISTACK, 0, STACK
        ARGFRAME PSTACK, 0, STACK
        ARGFRAME XSTACK, 30, STACK
        ARGFRAME IOVERLAY, 0, STATIC
        ARGFRAME DOVERLAY, 0, STATIC
        FUNCALL zclGeneral_SendAddSceneRequest, zcl_SendCommand
        LOCFRAME ISTACK, 0, STACK
        LOCFRAME PSTACK, 0, STACK
        LOCFRAME XSTACK, 38, STACK
        LOCFRAME IOVERLAY, 0, STATIC
        LOCFRAME DOVERLAY, 0, STATIC
        ARGFRAME ISTACK, 0, STACK
        ARGFRAME PSTACK, 0, STACK
        ARGFRAME XSTACK, 38, STACK
        ARGFRAME IOVERLAY, 0, STATIC
        ARGFRAME DOVERLAY, 0, STATIC
        FUNCALL zclGeneral_SendAddSceneRequest, osal_mem_free
        LOCFRAME ISTACK, 0, STACK
        LOCFRAME PSTACK, 0, STACK
        LOCFRAME XSTACK, 27, STACK
        LOCFRAME IOVERLAY, 0, STATIC
        LOCFRAME DOVERLAY, 0, STATIC
        ARGFRAME ISTACK, 0, STACK
        ARGFRAME PSTACK, 0, STACK
        ARGFRAME XSTACK, 27, STACK
        ARGFRAME IOVERLAY, 0, STATIC
        ARGFRAME DOVERLAY, 0, STATIC
        MOV     A,#-0x18
        LCALL   ?BANKED_ENTER_XDATA
          CFI DPH0 load(1, XDATA, add(CFA_XSP16, literal(-1)))
          CFI DPL0 load(1, XDATA, add(CFA_XSP16, literal(-2)))
          CFI ?BRET_EXT load(1, XDATA, add(CFA_XSP16, literal(-3)))
          CFI ?RET_HIGH load(1, XDATA, add(CFA_XSP16, literal(-4)))
          CFI ?RET_LOW load(1, XDATA, add(CFA_XSP16, literal(-5)))
          CFI R7 load(1, XDATA, add(CFA_XSP16, literal(-6)))
          CFI V15 load(1, XDATA, add(CFA_XSP16, literal(-7)))
          CFI V14 load(1, XDATA, add(CFA_XSP16, literal(-8)))
          CFI V13 load(1, XDATA, add(CFA_XSP16, literal(-9)))
          CFI V12 load(1, XDATA, add(CFA_XSP16, literal(-10)))
          CFI V11 load(1, XDATA, add(CFA_XSP16, literal(-11)))
          CFI V10 load(1, XDATA, add(CFA_XSP16, literal(-12)))
          CFI V9 load(1, XDATA, add(CFA_XSP16, literal(-13)))
          CFI V8 load(1, XDATA, add(CFA_XSP16, literal(-14)))
          CFI V7 load(1, XDATA, add(CFA_XSP16, literal(-15)))
          CFI V6 load(1, XDATA, add(CFA_XSP16, literal(-16)))
          CFI V5 load(1, XDATA, add(CFA_XSP16, literal(-17)))
          CFI V4 load(1, XDATA, add(CFA_XSP16, literal(-18)))
          CFI V3 load(1, XDATA, add(CFA_XSP16, literal(-19)))
          CFI V2 load(1, XDATA, add(CFA_XSP16, literal(-20)))
          CFI V1 load(1, XDATA, add(CFA_XSP16, literal(-21)))
          CFI V0 load(1, XDATA, add(CFA_XSP16, literal(-22)))
          CFI VB load(1, XDATA, add(CFA_XSP16, literal(-23)))
          CFI R6 load(1, XDATA, add(CFA_XSP16, literal(-24)))
          CFI CFA_SP SP+0
          CFI CFA_XSP16 add(XSP16, 24)
        ; Saved register size: 24
        ; Auto size: 3
        MOV     A,#-0x3
        LCALL   ?ALLOC_XSTACK8
          CFI CFA_XSP16 add(XSP16, 27)
        MOV     A,#0x1
        LCALL   ?XSTACK_DISP0_8
        LCALL   ??Subroutine110_0 & 0xFFFF
??CrossCallReturnLabel_183:
        MOV     A,R4
        MOV     DPL,?XSP + 0
        MOV     DPH,?XSP + 1
        MOVX    @DPTR,A
        MOV     ?V0 + 14,R1
        MOV     ?V0 + 15,R5
        MOV     A,#0x1d
        LCALL   ?XSTACK_DISP0_8
        MOVX    A,@DPTR
        MOV     ?V0 + 7,A
        MOV     A,#0x1b
        LCALL   ?XSTACK_DISP0_8
        LCALL   ?Subroutine18 & 0xFFFF
//  625   uint8 *buf;
//  626   uint8 *pBuf;
//  627   uint8 len;
//  628   ZStatus_t status;
//  629 
//  630   len = 2 + 1 + 2;    // Group ID + Scene ID + transition time
//  631   len += scene->name[0] + 1; // String + 1 for length
//  632 
//  633   // Add something for the extension field length
//  634   len += scene->extLen;
??CrossCallReturnLabel_8:
        LCALL   ?Subroutine42 & 0xFFFF
??CrossCallReturnLabel_53:
        ADD     A,#0x6
        MOV     R0,A
//  635 
//  636   buf = zcl_mem_alloc( len );
        MOV     DPL,R0
        MOV     ?V0 + 2,DPL
        MOV     ?V0 + 3,#0x0
        ; Setup parameters for call to function osal_mem_alloc
        MOV     R2,A
        MOV     R3,?V0 + 3
        LCALL   ??osal_mem_alloc?relay
        MOV     ?V0 + 8,R2
        MOV     ?V0 + 9,R3
//  637   if ( buf )
        MOV     A,R2
        ORL     A,?V0 + 9
        JNZ     $+5
        LJMP    ??zclGeneral_SendAddSceneRequest_0 & 0xFFFF
//  638   {
//  639     pBuf = buf;
        MOV     R6,?V0 + 8
        MOV     R7,?V0 + 9
//  640     *pBuf++ = LO_UINT16( scene->groupID );
        MOV     DPL,?V0 + 0
        MOV     DPH,?V0 + 1
        MOVX    A,@DPTR
        MOV     DPL,R6
        MOV     DPH,R7
        MOVX    @DPTR,A
        INC     DPTR
        MOV     R6,DPL
        LCALL   ?Subroutine20 & 0xFFFF
//  641     *pBuf++ = HI_UINT16( scene->groupID );
//  642     *pBuf++ = scene->ID;
//  643     *pBuf++ = LO_UINT16( scene->transTime );
??CrossCallReturnLabel_10:
        MOV     A,?V0 + 0
        ADD     A,#0x3
        MOV     R0,A
        MOV     A,?V0 + 1
        ADDC    A,#0x0
        MOV     R1,A
        MOV     DPL,R0
        MOV     DPH,R1
        LCALL   ?Subroutine50 & 0xFFFF
??CrossCallReturnLabel_80:
        MOV     R7,DPH
//  644     *pBuf++ = HI_UINT16( scene->transTime );
        MOV     DPL,R0
        MOV     DPH,R1
        INC     DPTR
        LCALL   ?Subroutine28 & 0xFFFF
//  645     *pBuf++ = scene->name[0]; // string length
??CrossCallReturnLabel_31:
        MOV     DPL,R6
        MOV     DPH,R7
        MOVX    @DPTR,A
        INC     DPTR
        INC     R6
        MOV     R7,DPH
//  646     zcl_memcpy( pBuf, &(scene->name[1]), scene->name[0] );
        ; Setup parameters for call to function osal_memcpy
        LCALL   ?Subroutine71 & 0xFFFF
??CrossCallReturnLabel_174:
        LCALL   ?PUSH_XSTACK_I_THREE
          CFI CFA_XSP16 add(XSP16, 30)
        MOV     DPL,?V0 + 10
        MOV     DPH,?V0 + 11
        MOVX    A,@DPTR
        MOV     R4,A
        MOV     R5,#0x0
        MOV     A,R6
        MOV     R2,A
        MOV     A,R7
        MOV     R3,A
        LCALL   ??osal_memcpy?relay
        MOV     A,#0x3
        LCALL   ?DEALLOC_XSTACK8
          CFI CFA_XSP16 add(XSP16, 27)
//  647     pBuf += scene->name[0]; // move pass name
//  648 
//  649     // Add the extension fields
//  650     if ( scene->extLen > 0 )
        MOV     DPL,?V0 + 12
        MOV     DPH,?V0 + 13
        MOVX    A,@DPTR
        MOV     R1,A
        JZ      ??zclGeneral_SendAddSceneRequest_1
//  651       zcl_memcpy( pBuf, scene->extField, scene->extLen );
        ; Setup parameters for call to function osal_memcpy
        MOV     A,?V0 + 0
        ADD     A,#0x18
        MOV     ?V0 + 4,A
        MOV     A,?V0 + 1
        ADDC    A,#0x0
        MOV     ?V0 + 5,A
        MOV     R0,#?V0 + 4
        LCALL   ?PUSH_XSTACK_I_THREE
          CFI CFA_XSP16 add(XSP16, 30)
        MOV     ?V0 + 0,R1
        MOV     R4,?V0 + 0
        MOV     R5,#0x0
        MOV     DPL,?V0 + 10
        MOV     DPH,?V0 + 11
        MOVX    A,@DPTR
        MOV     R0,A
        MOV     A,R6
        ADD     A,R0
        MOV     R2,A
        MOV     A,R7
        ADDC    A,#0x0
        MOV     R3,A
        LCALL   ??osal_memcpy?relay
        MOV     A,#0x3
        LCALL   ?DEALLOC_XSTACK8
          CFI CFA_XSP16 add(XSP16, 27)
//  652 
//  653     status = zcl_SendCommand( srcEP, dstAddr, ZCL_CLUSTER_ID_GEN_SCENES,
//  654                               cmd, TRUE, ZCL_FRAME_CLIENT_SERVER_DIR,
//  655                               disableDefaultRsp, 0, seqNum, len, buf );
??zclGeneral_SendAddSceneRequest_1:
        ; Setup parameters for call to function zcl_SendCommand
        MOV     R0,#?V0 + 8
        LCALL   ?PUSH_XSTACK_I_TWO
          CFI CFA_XSP16 add(XSP16, 29)
        MOV     R0,#?V0 + 2
        LCALL   ?PUSH_XSTACK_I_TWO
          CFI CFA_XSP16 add(XSP16, 31)
        MOV     A,?V0 + 7
        MOV     ?V0 + 0,A
        MOV     R0,#?V0 + 0
        LCALL   ?PUSH_XSTACK_I_ONE
          CFI CFA_XSP16 add(XSP16, 32)
        CLR     A
        MOV     ?V0 + 0,A
        MOV     ?V0 + 1,A
        MOV     R0,#?V0 + 0
        LCALL   ?PUSH_XSTACK_I_TWO
          CFI CFA_XSP16 add(XSP16, 34)
        MOV     A,?V0 + 15
        MOV     ?V0 + 0,A
        MOV     R0,#?V0 + 0
        LCALL   ?PUSH_XSTACK_I_ONE
          CFI CFA_XSP16 add(XSP16, 35)
        MOV     ?V0 + 0,#0x0
        MOV     R0,#?V0 + 0
        LCALL   ?PUSH_XSTACK_I_ONE
          CFI CFA_XSP16 add(XSP16, 36)
        MOV     ?V0 + 0,#0x1
        MOV     R0,#?V0 + 0
        LCALL   ?PUSH_XSTACK_I_ONE
          CFI CFA_XSP16 add(XSP16, 37)
        MOV     A,#0xa
        LCALL   ?XSTACK_DISP0_8
        LCALL   ?Subroutine83 & 0xFFFF
??CrossCallReturnLabel_130:
        LCALL   ?PUSH_XSTACK_I_ONE
          CFI CFA_XSP16 add(XSP16, 38)
        MOV     R4,#0x5
        MOV     R5,#0x0
        MOV     A,#0xc
        LCALL   ?XSTACK_DISP0_8
        LCALL   ??Subroutine115_0 & 0xFFFF
??CrossCallReturnLabel_204:
        MOV     R1,?V0 + 14
        LCALL   ??zcl_SendCommand?relay
        MOV     A,#0xb
        LCALL   ?DEALLOC_XSTACK8
          CFI CFA_XSP16 add(XSP16, 27)
        MOV     A,R1
        MOV     R6,A
//  656     zcl_mem_free( buf );
        ; Setup parameters for call to function osal_mem_free
        MOV     R2,?V0 + 8
        MOV     R3,?V0 + 9
        LCALL   ??osal_mem_free?relay
        SJMP    ??zclGeneral_SendAddSceneRequest_2
//  657   }
//  658   else
//  659     status = ZMemError;
??zclGeneral_SendAddSceneRequest_0:
        MOV     R6,#0x10
//  660 
//  661   return ( status );
??zclGeneral_SendAddSceneRequest_2:
        LJMP    ?Subroutine3 & 0xFFFF
          CFI EndBlock cfiBlock52
//  662 }

        RSEG BANKED_CODE:CODE:NOROOT(0)
?Subroutine71:
          CFI Block cfiCond53 Using cfiCommon0
          CFI Function zclGeneral_SendAddSceneRequest
          CFI Conditional ??CrossCallReturnLabel_174
          CFI R6 load(1, XDATA, add(CFA_XSP16, literal(-24)))
          CFI VB load(1, XDATA, add(CFA_XSP16, literal(-23)))
          CFI V0 load(1, XDATA, add(CFA_XSP16, literal(-22)))
          CFI V1 load(1, XDATA, add(CFA_XSP16, literal(-21)))
          CFI V2 load(1, XDATA, add(CFA_XSP16, literal(-20)))
          CFI V3 load(1, XDATA, add(CFA_XSP16, literal(-19)))
          CFI V4 load(1, XDATA, add(CFA_XSP16, literal(-18)))
          CFI V5 load(1, XDATA, add(CFA_XSP16, literal(-17)))
          CFI V6 load(1, XDATA, add(CFA_XSP16, literal(-16)))
          CFI V7 load(1, XDATA, add(CFA_XSP16, literal(-15)))
          CFI V8 load(1, XDATA, add(CFA_XSP16, literal(-14)))
          CFI V9 load(1, XDATA, add(CFA_XSP16, literal(-13)))
          CFI V10 load(1, XDATA, add(CFA_XSP16, literal(-12)))
          CFI V11 load(1, XDATA, add(CFA_XSP16, literal(-11)))
          CFI V12 load(1, XDATA, add(CFA_XSP16, literal(-10)))
          CFI V13 load(1, XDATA, add(CFA_XSP16, literal(-9)))
          CFI V14 load(1, XDATA, add(CFA_XSP16, literal(-8)))
          CFI V15 load(1, XDATA, add(CFA_XSP16, literal(-7)))
          CFI R7 load(1, XDATA, add(CFA_XSP16, literal(-6)))
          CFI ?RET_LOW load(1, XDATA, add(CFA_XSP16, literal(-5)))
          CFI ?RET_HIGH load(1, XDATA, add(CFA_XSP16, literal(-4)))
          CFI ?BRET_EXT load(1, XDATA, add(CFA_XSP16, literal(-3)))
          CFI DPL0 load(1, XDATA, add(CFA_XSP16, literal(-2)))
          CFI DPH0 load(1, XDATA, add(CFA_XSP16, literal(-1)))
          CFI CFA_SP SP+0
          CFI CFA_XSP16 add(XSP16, 27)
          CFI Block cfiCond54 Using cfiCommon0
          CFI (cfiCond54) Function zclGeneral_SendSceneViewRsp
          CFI (cfiCond54) Conditional ??CrossCallReturnLabel_175
          CFI (cfiCond54) R6 load(1, XDATA, add(CFA_XSP16, literal(-24)))
          CFI (cfiCond54) VB load(1, XDATA, add(CFA_XSP16, literal(-23)))
          CFI (cfiCond54) V0 load(1, XDATA, add(CFA_XSP16, literal(-22)))
          CFI (cfiCond54) V1 load(1, XDATA, add(CFA_XSP16, literal(-21)))
          CFI (cfiCond54) V2 load(1, XDATA, add(CFA_XSP16, literal(-20)))
          CFI (cfiCond54) V3 load(1, XDATA, add(CFA_XSP16, literal(-19)))
          CFI (cfiCond54) V4 load(1, XDATA, add(CFA_XSP16, literal(-18)))
          CFI (cfiCond54) V5 load(1, XDATA, add(CFA_XSP16, literal(-17)))
          CFI (cfiCond54) V6 load(1, XDATA, add(CFA_XSP16, literal(-16)))
          CFI (cfiCond54) V7 load(1, XDATA, add(CFA_XSP16, literal(-15)))
          CFI (cfiCond54) V8 load(1, XDATA, add(CFA_XSP16, literal(-14)))
          CFI (cfiCond54) V9 load(1, XDATA, add(CFA_XSP16, literal(-13)))
          CFI (cfiCond54) V10 load(1, XDATA, add(CFA_XSP16, literal(-12)))
          CFI (cfiCond54) V11 load(1, XDATA, add(CFA_XSP16, literal(-11)))
          CFI (cfiCond54) V12 load(1, XDATA, add(CFA_XSP16, literal(-10)))
          CFI (cfiCond54) V13 load(1, XDATA, add(CFA_XSP16, literal(-9)))
          CFI (cfiCond54) V14 load(1, XDATA, add(CFA_XSP16, literal(-8)))
          CFI (cfiCond54) V15 load(1, XDATA, add(CFA_XSP16, literal(-7)))
          CFI (cfiCond54) R7 load(1, XDATA, add(CFA_XSP16, literal(-6)))
          CFI (cfiCond54) ?RET_LOW load(1, XDATA, add(CFA_XSP16, literal(-5)))
          CFI (cfiCond54) ?RET_HIGH load(1, XDATA, add(CFA_XSP16, literal(-4)))
          CFI (cfiCond54) ?BRET_EXT load(1, XDATA, add(CFA_XSP16, literal(-3)))
          CFI (cfiCond54) DPL0 load(1, XDATA, add(CFA_XSP16, literal(-2)))
          CFI (cfiCond54) DPH0 load(1, XDATA, add(CFA_XSP16, literal(-1)))
          CFI (cfiCond54) CFA_SP SP+0
          CFI (cfiCond54) CFA_XSP16 add(XSP16, 27)
          CFI Block cfiPicker55 Using cfiCommon1
          CFI (cfiPicker55) NoFunction
          CFI (cfiPicker55) Picker
        MOV     A,?V0 + 0
        ADD     A,#0x8
          CFI EndBlock cfiCond53
          CFI EndBlock cfiCond54
          CFI EndBlock cfiPicker55
        REQUIRE ??Subroutine104_0
        ; // Fall through to label ??Subroutine104_0

        RSEG BANKED_CODE:CODE:NOROOT(0)
??Subroutine104_0:
          CFI Block cfiCond56 Using cfiCommon0
          CFI Function zclGeneral_SendSceneViewRsp
          CFI Conditional ??CrossCallReturnLabel_173
          CFI R6 load(1, XDATA, add(CFA_XSP16, literal(-24)))
          CFI VB load(1, XDATA, add(CFA_XSP16, literal(-23)))
          CFI V0 load(1, XDATA, add(CFA_XSP16, literal(-22)))
          CFI V1 load(1, XDATA, add(CFA_XSP16, literal(-21)))
          CFI V2 load(1, XDATA, add(CFA_XSP16, literal(-20)))
          CFI V3 load(1, XDATA, add(CFA_XSP16, literal(-19)))
          CFI V4 load(1, XDATA, add(CFA_XSP16, literal(-18)))
          CFI V5 load(1, XDATA, add(CFA_XSP16, literal(-17)))
          CFI V6 load(1, XDATA, add(CFA_XSP16, literal(-16)))
          CFI V7 load(1, XDATA, add(CFA_XSP16, literal(-15)))
          CFI V8 load(1, XDATA, add(CFA_XSP16, literal(-14)))
          CFI V9 load(1, XDATA, add(CFA_XSP16, literal(-13)))
          CFI V10 load(1, XDATA, add(CFA_XSP16, literal(-12)))
          CFI V11 load(1, XDATA, add(CFA_XSP16, literal(-11)))
          CFI V12 load(1, XDATA, add(CFA_XSP16, literal(-10)))
          CFI V13 load(1, XDATA, add(CFA_XSP16, literal(-9)))
          CFI V14 load(1, XDATA, add(CFA_XSP16, literal(-8)))
          CFI V15 load(1, XDATA, add(CFA_XSP16, literal(-7)))
          CFI R7 load(1, XDATA, add(CFA_XSP16, literal(-6)))
          CFI ?RET_LOW load(1, XDATA, add(CFA_XSP16, literal(-5)))
          CFI ?RET_HIGH load(1, XDATA, add(CFA_XSP16, literal(-4)))
          CFI ?BRET_EXT load(1, XDATA, add(CFA_XSP16, literal(-3)))
          CFI DPL0 load(1, XDATA, add(CFA_XSP16, literal(-2)))
          CFI DPH0 load(1, XDATA, add(CFA_XSP16, literal(-1)))
          CFI CFA_SP SP+0
          CFI CFA_XSP16 add(XSP16, 27)
          CFI Block cfiCond57 Using cfiCommon0
          CFI (cfiCond57) Function zclGeneral_SendAddSceneRequest
          CFI (cfiCond57) Conditional ??CrossCallReturnLabel_174
          CFI (cfiCond57) R6 load(1, XDATA, add(CFA_XSP16, literal(-24)))
          CFI (cfiCond57) VB load(1, XDATA, add(CFA_XSP16, literal(-23)))
          CFI (cfiCond57) V0 load(1, XDATA, add(CFA_XSP16, literal(-22)))
          CFI (cfiCond57) V1 load(1, XDATA, add(CFA_XSP16, literal(-21)))
          CFI (cfiCond57) V2 load(1, XDATA, add(CFA_XSP16, literal(-20)))
          CFI (cfiCond57) V3 load(1, XDATA, add(CFA_XSP16, literal(-19)))
          CFI (cfiCond57) V4 load(1, XDATA, add(CFA_XSP16, literal(-18)))
          CFI (cfiCond57) V5 load(1, XDATA, add(CFA_XSP16, literal(-17)))
          CFI (cfiCond57) V6 load(1, XDATA, add(CFA_XSP16, literal(-16)))
          CFI (cfiCond57) V7 load(1, XDATA, add(CFA_XSP16, literal(-15)))
          CFI (cfiCond57) V8 load(1, XDATA, add(CFA_XSP16, literal(-14)))
          CFI (cfiCond57) V9 load(1, XDATA, add(CFA_XSP16, literal(-13)))
          CFI (cfiCond57) V10 load(1, XDATA, add(CFA_XSP16, literal(-12)))
          CFI (cfiCond57) V11 load(1, XDATA, add(CFA_XSP16, literal(-11)))
          CFI (cfiCond57) V12 load(1, XDATA, add(CFA_XSP16, literal(-10)))
          CFI (cfiCond57) V13 load(1, XDATA, add(CFA_XSP16, literal(-9)))
          CFI (cfiCond57) V14 load(1, XDATA, add(CFA_XSP16, literal(-8)))
          CFI (cfiCond57) V15 load(1, XDATA, add(CFA_XSP16, literal(-7)))
          CFI (cfiCond57) R7 load(1, XDATA, add(CFA_XSP16, literal(-6)))
          CFI (cfiCond57) ?RET_LOW load(1, XDATA, add(CFA_XSP16, literal(-5)))
          CFI (cfiCond57) ?RET_HIGH load(1, XDATA, add(CFA_XSP16, literal(-4)))
          CFI (cfiCond57) ?BRET_EXT load(1, XDATA, add(CFA_XSP16, literal(-3)))
          CFI (cfiCond57) DPL0 load(1, XDATA, add(CFA_XSP16, literal(-2)))
          CFI (cfiCond57) DPH0 load(1, XDATA, add(CFA_XSP16, literal(-1)))
          CFI (cfiCond57) CFA_SP SP+0
          CFI (cfiCond57) CFA_XSP16 add(XSP16, 27)
          CFI Block cfiCond58 Using cfiCommon0
          CFI (cfiCond58) Function zclGeneral_SendSceneViewRsp
          CFI (cfiCond58) Conditional ??CrossCallReturnLabel_175
          CFI (cfiCond58) R6 load(1, XDATA, add(CFA_XSP16, literal(-24)))
          CFI (cfiCond58) VB load(1, XDATA, add(CFA_XSP16, literal(-23)))
          CFI (cfiCond58) V0 load(1, XDATA, add(CFA_XSP16, literal(-22)))
          CFI (cfiCond58) V1 load(1, XDATA, add(CFA_XSP16, literal(-21)))
          CFI (cfiCond58) V2 load(1, XDATA, add(CFA_XSP16, literal(-20)))
          CFI (cfiCond58) V3 load(1, XDATA, add(CFA_XSP16, literal(-19)))
          CFI (cfiCond58) V4 load(1, XDATA, add(CFA_XSP16, literal(-18)))
          CFI (cfiCond58) V5 load(1, XDATA, add(CFA_XSP16, literal(-17)))
          CFI (cfiCond58) V6 load(1, XDATA, add(CFA_XSP16, literal(-16)))
          CFI (cfiCond58) V7 load(1, XDATA, add(CFA_XSP16, literal(-15)))
          CFI (cfiCond58) V8 load(1, XDATA, add(CFA_XSP16, literal(-14)))
          CFI (cfiCond58) V9 load(1, XDATA, add(CFA_XSP16, literal(-13)))
          CFI (cfiCond58) V10 load(1, XDATA, add(CFA_XSP16, literal(-12)))
          CFI (cfiCond58) V11 load(1, XDATA, add(CFA_XSP16, literal(-11)))
          CFI (cfiCond58) V12 load(1, XDATA, add(CFA_XSP16, literal(-10)))
          CFI (cfiCond58) V13 load(1, XDATA, add(CFA_XSP16, literal(-9)))
          CFI (cfiCond58) V14 load(1, XDATA, add(CFA_XSP16, literal(-8)))
          CFI (cfiCond58) V15 load(1, XDATA, add(CFA_XSP16, literal(-7)))
          CFI (cfiCond58) R7 load(1, XDATA, add(CFA_XSP16, literal(-6)))
          CFI (cfiCond58) ?RET_LOW load(1, XDATA, add(CFA_XSP16, literal(-5)))
          CFI (cfiCond58) ?RET_HIGH load(1, XDATA, add(CFA_XSP16, literal(-4)))
          CFI (cfiCond58) ?BRET_EXT load(1, XDATA, add(CFA_XSP16, literal(-3)))
          CFI (cfiCond58) DPL0 load(1, XDATA, add(CFA_XSP16, literal(-2)))
          CFI (cfiCond58) DPH0 load(1, XDATA, add(CFA_XSP16, literal(-1)))
          CFI (cfiCond58) CFA_SP SP+0
          CFI (cfiCond58) CFA_XSP16 add(XSP16, 27)
          CFI Block cfiPicker59 Using cfiCommon1
          CFI (cfiPicker59) NoFunction
          CFI (cfiPicker59) Picker
        MOV     ?V0 + 4,A
        MOV     A,?V0 + 1
        ADDC    A,#0x0
        MOV     ?V0 + 5,A
        MOV     ?V0 + 6,#0x0
        MOV     R0,#?V0 + 4
        RET
          CFI EndBlock cfiCond56
          CFI EndBlock cfiCond57
          CFI EndBlock cfiCond58
          CFI EndBlock cfiPicker59
//  663 
//  664 /*********************************************************************
//  665  * @fn      zclGeneral_SendSceneRequest
//  666  *
//  667  * @brief   Send a Scene Request to a device.  You can also use the
//  668  *          appropriate macro.
//  669  *
//  670  * @param   srcEP - Sending Apps endpoint
//  671  * @param   dstAddr - where to send the request
//  672  * @param   cmd - one of the following:
//  673  *              COMMAND_SCENE_VIEW
//  674  *              COMMAND_SCENE_REMOVE
//  675  *              COMMAND_SCENE_REMOVE_ALL
//  676  *              COMMAND_SCENE_STORE
//  677  *              COMMAND_SCENE_RECALL
//  678  *              COMMAND_SCENE_GET_MEMBERSHIP
//  679  *              COMMAND_SCENE_ENHANCED_VIEW
//  680  * @param   groupID - group ID
//  681  * @param   sceneID - scene ID (not applicable to COMMAND_SCENE_REMOVE_ALL and
//  682  *                    COMMAND_SCENE_GET_MEMBERSHIP)
//  683  * @param   disableDefaultRsp - whether to disable the Default Response command
//  684  * @param   seqNum - sequence number
//  685  * @return  ZStatus_t
//  686  */

        RSEG BANKED_CODE:CODE:NOROOT(0)
//  687 ZStatus_t zclGeneral_SendSceneRequest( uint8 srcEP, afAddrType_t *dstAddr,
zclGeneral_SendSceneRequest:
          CFI Block cfiBlock60 Using cfiCommon0
          CFI Function zclGeneral_SendSceneRequest
        CODE
//  688                                        uint8 cmd, uint16 groupID, uint8 sceneID,
//  689                                        uint8 disableDefaultRsp, uint8 seqNum )
//  690 {
        FUNCALL zclGeneral_SendSceneRequest, zcl_SendCommand
        LOCFRAME ISTACK, 0, STACK
        LOCFRAME PSTACK, 0, STACK
        LOCFRAME XSTACK, 26, STACK
        LOCFRAME IOVERLAY, 0, STATIC
        LOCFRAME DOVERLAY, 0, STATIC
        ARGFRAME ISTACK, 0, STACK
        ARGFRAME PSTACK, 0, STACK
        ARGFRAME XSTACK, 26, STACK
        ARGFRAME IOVERLAY, 0, STATIC
        ARGFRAME DOVERLAY, 0, STATIC
        MOV     A,#-0xc
        LCALL   ?BANKED_ENTER_XDATA
          CFI DPH0 load(1, XDATA, add(CFA_XSP16, literal(-1)))
          CFI DPL0 load(1, XDATA, add(CFA_XSP16, literal(-2)))
          CFI ?BRET_EXT load(1, XDATA, add(CFA_XSP16, literal(-3)))
          CFI ?RET_HIGH load(1, XDATA, add(CFA_XSP16, literal(-4)))
          CFI ?RET_LOW load(1, XDATA, add(CFA_XSP16, literal(-5)))
          CFI R7 load(1, XDATA, add(CFA_XSP16, literal(-6)))
          CFI V3 load(1, XDATA, add(CFA_XSP16, literal(-7)))
          CFI V2 load(1, XDATA, add(CFA_XSP16, literal(-8)))
          CFI V1 load(1, XDATA, add(CFA_XSP16, literal(-9)))
          CFI V0 load(1, XDATA, add(CFA_XSP16, literal(-10)))
          CFI VB load(1, XDATA, add(CFA_XSP16, literal(-11)))
          CFI R6 load(1, XDATA, add(CFA_XSP16, literal(-12)))
          CFI CFA_SP SP+0
          CFI CFA_XSP16 add(XSP16, 12)
        ; Saved register size: 12
        ; Auto size: 3
        MOV     A,#-0x3
        LCALL   ?ALLOC_XSTACK8
          CFI CFA_XSP16 add(XSP16, 15)
        MOV     A,R1
        MOV     R6,A
        MOV     A,R4
        MOV     R7,A
        MOV     ?V0 + 0,R5
        MOV     A,#0x11
        LCALL   ?XSTACK_DISP0_8
        MOVX    A,@DPTR
        MOV     R5,A
        MOV     A,#0x12
        LCALL   ?XSTACK_DISP0_8
        MOVX    A,@DPTR
        MOV     ?V0 + 1,A
//  691   uint8 buf[3];
//  692   uint8 len = 2;
        MOV     R4,#0x2
        MOV     A,#0xf
        LCALL   ?XSTACK_DISP0_8
        LCALL   ?Subroutine31 & 0xFFFF
//  693 
//  694   buf[0] = LO_UINT16( groupID );
//  695   buf[1] = HI_UINT16( groupID );
??CrossCallReturnLabel_38:
        LCALL   ?XSTACK_DISP0_8
        MOV     A,R1
        MOVX    @DPTR,A
//  696 
//  697   if ( cmd != COMMAND_SCENE_REMOVE_ALL && cmd != COMMAND_SCENE_GET_MEMBERSHIP )
        MOV     A,#0x3
        XRL     A,R7
        JZ      ??zclGeneral_SendSceneRequest_0
        MOV     A,#0x6
        XRL     A,R7
        JZ      ??zclGeneral_SendSceneRequest_0
//  698   {
//  699     buf[2] = sceneID;
        MOV     A,R4
        LCALL   ?XSTACK_DISP0_8
        MOV     A,?V0 + 0
        MOVX    @DPTR,A
//  700     len++;
        INC     R4
//  701   }
//  702 
//  703   return ( zcl_SendCommand( srcEP, dstAddr, ZCL_CLUSTER_ID_GEN_SCENES,
//  704                             cmd, TRUE, ZCL_FRAME_CLIENT_SERVER_DIR,
//  705                             disableDefaultRsp, 0, seqNum, len, buf ) );
??zclGeneral_SendSceneRequest_0:
        ; Setup parameters for call to function zcl_SendCommand
        MOV     DPL,?XSP + 0
        MOV     DPH,?XSP + 1
        MOV     ?V0 + 2,DPL
        MOV     ?V0 + 3,DPH
        MOV     R0,#?V0 + 2
        LCALL   ?PUSH_XSTACK_I_TWO
          CFI CFA_XSP16 add(XSP16, 17)
        MOV     ?V0 + 2,R4
        MOV     ?V0 + 3,#0x0
        MOV     R0,#?V0 + 2
        LCALL   ?PUSH_XSTACK_I_TWO
          CFI CFA_XSP16 add(XSP16, 19)
        MOV     R0,#?V0 + 1
        LCALL   ?PUSH_XSTACK_I_ONE
          CFI CFA_XSP16 add(XSP16, 20)
        CLR     A
        MOV     ?V0 + 2,A
        MOV     R0,#?V0 + 2
        LCALL   ?PUSH_XSTACK_I_TWO
          CFI CFA_XSP16 add(XSP16, 22)
        MOV     A,R5
        MOV     ?V0 + 1,A
        MOV     R0,#?V0 + 1
        LCALL   ?PUSH_XSTACK_I_ONE
          CFI CFA_XSP16 add(XSP16, 23)
        MOV     ?V0 + 1,#0x0
        MOV     R0,#?V0 + 1
        LCALL   ?PUSH_XSTACK_I_ONE
          CFI CFA_XSP16 add(XSP16, 24)
        MOV     ?V0 + 1,#0x1
        MOV     R0,#?V0 + 1
        LCALL   ?PUSH_XSTACK_I_ONE
          CFI CFA_XSP16 add(XSP16, 25)
        MOV     A,R7
        MOV     ?V0 + 1,A
        MOV     R0,#?V0 + 1
        LCALL   ?PUSH_XSTACK_I_ONE
          CFI CFA_XSP16 add(XSP16, 26)
        MOV     R4,#0x5
        LJMP    ?Subroutine0 & 0xFFFF
          CFI EndBlock cfiBlock60
//  706 }

        RSEG BANKED_CODE:CODE:NOROOT(0)
?Subroutine31:
          CFI Block cfiCond61 Using cfiCommon0
          CFI Function zclGeneral_SendGroupRequest
          CFI Conditional ??CrossCallReturnLabel_37
          CFI R6 load(1, XDATA, add(CFA_XSP16, literal(-12)))
          CFI VB load(1, XDATA, add(CFA_XSP16, literal(-11)))
          CFI V0 load(1, XDATA, add(CFA_XSP16, literal(-10)))
          CFI V1 load(1, XDATA, add(CFA_XSP16, literal(-9)))
          CFI V2 load(1, XDATA, add(CFA_XSP16, literal(-8)))
          CFI V3 load(1, XDATA, add(CFA_XSP16, literal(-7)))
          CFI R7 load(1, XDATA, add(CFA_XSP16, literal(-6)))
          CFI ?RET_LOW load(1, XDATA, add(CFA_XSP16, literal(-5)))
          CFI ?RET_HIGH load(1, XDATA, add(CFA_XSP16, literal(-4)))
          CFI ?BRET_EXT load(1, XDATA, add(CFA_XSP16, literal(-3)))
          CFI DPL0 load(1, XDATA, add(CFA_XSP16, literal(-2)))
          CFI DPH0 load(1, XDATA, add(CFA_XSP16, literal(-1)))
          CFI CFA_SP SP+0
          CFI CFA_XSP16 add(XSP16, 14)
          CFI Block cfiCond62 Using cfiCommon0
          CFI (cfiCond62) Function zclGeneral_SendSceneRequest
          CFI (cfiCond62) Conditional ??CrossCallReturnLabel_38
          CFI (cfiCond62) R6 load(1, XDATA, add(CFA_XSP16, literal(-12)))
          CFI (cfiCond62) VB load(1, XDATA, add(CFA_XSP16, literal(-11)))
          CFI (cfiCond62) V0 load(1, XDATA, add(CFA_XSP16, literal(-10)))
          CFI (cfiCond62) V1 load(1, XDATA, add(CFA_XSP16, literal(-9)))
          CFI (cfiCond62) V2 load(1, XDATA, add(CFA_XSP16, literal(-8)))
          CFI (cfiCond62) V3 load(1, XDATA, add(CFA_XSP16, literal(-7)))
          CFI (cfiCond62) R7 load(1, XDATA, add(CFA_XSP16, literal(-6)))
          CFI (cfiCond62) ?RET_LOW load(1, XDATA, add(CFA_XSP16, literal(-5)))
          CFI (cfiCond62) ?RET_HIGH load(1, XDATA, add(CFA_XSP16, literal(-4)))
          CFI (cfiCond62) ?BRET_EXT load(1, XDATA, add(CFA_XSP16, literal(-3)))
          CFI (cfiCond62) DPL0 load(1, XDATA, add(CFA_XSP16, literal(-2)))
          CFI (cfiCond62) DPH0 load(1, XDATA, add(CFA_XSP16, literal(-1)))
          CFI (cfiCond62) CFA_SP SP+0
          CFI (cfiCond62) CFA_XSP16 add(XSP16, 15)
          CFI Block cfiPicker63 Using cfiCommon1
          CFI (cfiPicker63) NoFunction
          CFI (cfiPicker63) Picker
        LCALL   ?Subroutine79 & 0xFFFF
??CrossCallReturnLabel_297:
        MOV     DPL,?XSP + 0
        MOV     DPH,?XSP + 1
        MOVX    @DPTR,A
        MOV     A,#0x1
        RET
          CFI EndBlock cfiCond61
          CFI EndBlock cfiCond62
          CFI EndBlock cfiPicker63
//  707 
//  708 /*********************************************************************
//  709  * @fn      zclGeneral_SendSceneResponse
//  710  *
//  711  * @brief   Send Group Response (not Group View Response)
//  712  *
//  713  * @param   srcEP - Sending application's endpoint
//  714  * @param   dstAddr - where you want the message to go
//  715  * @param   cmd - either COMMAND_SCENE_ADD_RSP, COMMAND_SCENE_REMOVE_RSP
//  716  *                COMMAND_SCENE_STORE_RSP, or COMMAND_SCENE_REMOVE_ALL_RSP
//  717  * @param   status - scene command status
//  718  * @param   groupID - what group
//  719  * @param   sceneID - what scene (not applicable to COMMAND_SCENE_REMOVE_ALL_RSP)
//  720  *
//  721  * @return  ZStatus_t
//  722  */

        RSEG BANKED_CODE:CODE:NOROOT(0)
//  723 ZStatus_t zclGeneral_SendSceneResponse( uint8 srcEP, afAddrType_t *dstAddr,
zclGeneral_SendSceneResponse:
          CFI Block cfiBlock64 Using cfiCommon0
          CFI Function zclGeneral_SendSceneResponse
        CODE
//  724                                         uint8 cmd, uint8 status, uint16 groupID,
//  725                                         uint8 sceneID, uint8 disableDefaultRsp, uint8 seqNum )
//  726 {
        FUNCALL zclGeneral_SendSceneResponse, zcl_SendCommand
        LOCFRAME ISTACK, 0, STACK
        LOCFRAME PSTACK, 0, STACK
        LOCFRAME XSTACK, 28, STACK
        LOCFRAME IOVERLAY, 0, STATIC
        LOCFRAME DOVERLAY, 0, STATIC
        ARGFRAME ISTACK, 0, STACK
        ARGFRAME PSTACK, 0, STACK
        ARGFRAME XSTACK, 28, STACK
        ARGFRAME IOVERLAY, 0, STATIC
        ARGFRAME DOVERLAY, 0, STATIC
        MOV     A,#-0xd
        LCALL   ?BANKED_ENTER_XDATA
          CFI DPH0 load(1, XDATA, add(CFA_XSP16, literal(-1)))
          CFI DPL0 load(1, XDATA, add(CFA_XSP16, literal(-2)))
          CFI ?BRET_EXT load(1, XDATA, add(CFA_XSP16, literal(-3)))
          CFI ?RET_HIGH load(1, XDATA, add(CFA_XSP16, literal(-4)))
          CFI ?RET_LOW load(1, XDATA, add(CFA_XSP16, literal(-5)))
          CFI R7 load(1, XDATA, add(CFA_XSP16, literal(-6)))
          CFI V4 load(1, XDATA, add(CFA_XSP16, literal(-7)))
          CFI V3 load(1, XDATA, add(CFA_XSP16, literal(-8)))
          CFI V2 load(1, XDATA, add(CFA_XSP16, literal(-9)))
          CFI V1 load(1, XDATA, add(CFA_XSP16, literal(-10)))
          CFI V0 load(1, XDATA, add(CFA_XSP16, literal(-11)))
          CFI VB load(1, XDATA, add(CFA_XSP16, literal(-12)))
          CFI R6 load(1, XDATA, add(CFA_XSP16, literal(-13)))
          CFI CFA_SP SP+0
          CFI CFA_XSP16 add(XSP16, 13)
        ; Saved register size: 13
        ; Auto size: 4
        MOV     A,#-0x4
        LCALL   ?ALLOC_XSTACK8
          CFI CFA_XSP16 add(XSP16, 17)
        MOV     A,R1
        MOV     R6,A
        MOV     A,R4
        MOV     R7,A
        MOV     ?V0 + 0,R5
        MOV     A,#0x13
        LCALL   ?XSTACK_DISP0_8
        MOVX    A,@DPTR
        MOV     R5,A
        MOV     A,#0x14
        LCALL   ?XSTACK_DISP0_8
        MOVX    A,@DPTR
        MOV     ?V0 + 1,A
        MOV     A,#0x15
        LCALL   ?XSTACK_DISP0_8
        MOVX    A,@DPTR
        MOV     ?V0 + 4,A
//  727   uint8 buf[4];
//  728   uint8 len = 1 + 2; // Status + Group ID
        MOV     R4,#0x3
//  729 
//  730   buf[0] = status;
        MOV     DPL,?XSP + 0
        MOV     DPH,?XSP + 1
        MOV     A,?V0 + 0
        MOVX    @DPTR,A
        MOV     A,#0x11
        LCALL   ?XSTACK_DISP0_8
        LCALL   ?Subroutine27 & 0xFFFF
//  731   buf[1] = LO_UINT16( groupID );
??CrossCallReturnLabel_27:
        LCALL   ?XSTACK_DISP0_8
        MOV     A,R0
        MOVX    @DPTR,A
//  732   buf[2] = HI_UINT16( groupID );
        MOV     A,#0x2
        LCALL   ?XSTACK_DISP0_8
        MOV     A,R1
        MOVX    @DPTR,A
//  733 
//  734   if ( cmd != COMMAND_SCENE_REMOVE_ALL_RSP )
        MOV     A,R4
        XRL     A,R7
        JZ      ??zclGeneral_SendSceneResponse_0
//  735   {
//  736     buf[3] = sceneID;
        MOV     A,R4
        LCALL   ?XSTACK_DISP0_8
        MOV     A,R5
        MOVX    @DPTR,A
//  737     len++;
        INC     R4
//  738   }
//  739 
//  740   return zcl_SendCommand( srcEP, dstAddr, ZCL_CLUSTER_ID_GEN_SCENES,
//  741                           cmd, TRUE, ZCL_FRAME_SERVER_CLIENT_DIR,
//  742                           disableDefaultRsp, 0, seqNum, len, buf );
??zclGeneral_SendSceneResponse_0:
        ; Setup parameters for call to function zcl_SendCommand
        MOV     DPL,?XSP + 0
        MOV     DPH,?XSP + 1
        MOV     ?V0 + 2,DPL
        MOV     ?V0 + 3,DPH
        MOV     R0,#?V0 + 2
        LCALL   ?PUSH_XSTACK_I_TWO
          CFI CFA_XSP16 add(XSP16, 19)
        MOV     ?V0 + 2,R4
        MOV     ?V0 + 3,#0x0
        MOV     R0,#?V0 + 2
        LCALL   ?PUSH_XSTACK_I_TWO
          CFI CFA_XSP16 add(XSP16, 21)
        MOV     A,?V0 + 4
        MOV     ?V0 + 2,A
        MOV     R0,#?V0 + 2
        LCALL   ?PUSH_XSTACK_I_ONE
          CFI CFA_XSP16 add(XSP16, 22)
        CLR     A
        MOV     ?V0 + 2,A
        MOV     R0,#?V0 + 2
        LCALL   ?PUSH_XSTACK_I_TWO
          CFI CFA_XSP16 add(XSP16, 24)
        MOV     R0,#?V0 + 1
        LCALL   ?PUSH_XSTACK_I_ONE
          CFI CFA_XSP16 add(XSP16, 25)
        MOV     ?V0 + 1,#0x1
        MOV     R0,#?V0 + 1
        LCALL   ?PUSH_XSTACK_I_ONE
          CFI CFA_XSP16 add(XSP16, 26)
        MOV     R0,#?V0 + 1
        LCALL   ?PUSH_XSTACK_I_ONE
          CFI CFA_XSP16 add(XSP16, 27)
        MOV     A,R7
        MOV     ?V0 + 1,A
        MOV     R0,#?V0 + 1
        LCALL   ?PUSH_XSTACK_I_ONE
          CFI CFA_XSP16 add(XSP16, 28)
        MOV     R4,#0x5
        MOV     R5,#0x0
        MOV     A,R6
        MOV     R1,A
        LCALL   ??zcl_SendCommand?relay
        MOV     A,#0xb
        LCALL   ?DEALLOC_XSTACK8
          CFI CFA_XSP16 add(XSP16, 17)
        MOV     A,#0x4
        LCALL   ?DEALLOC_XSTACK8
          CFI EndBlock cfiBlock64
        REQUIRE ?Subroutine5
        ; // Fall through to label ?Subroutine5
//  743 }

        RSEG BANKED_CODE:CODE:NOROOT(0)
?Subroutine5:
          CFI Block cfiBlock65 Using cfiCommon0
          CFI NoFunction
          CFI CFA_SP SP+0
          CFI CFA_XSP16 add(XSP16, 13)
          CFI VB load(1, XDATA, add(CFA_XSP16, literal(-12)))
          CFI DPL0 load(1, XDATA, add(CFA_XSP16, literal(-2)))
          CFI DPH0 load(1, XDATA, add(CFA_XSP16, literal(-1)))
          CFI R6 load(1, XDATA, add(CFA_XSP16, literal(-13)))
          CFI R7 load(1, XDATA, add(CFA_XSP16, literal(-6)))
          CFI V0 load(1, XDATA, add(CFA_XSP16, literal(-11)))
          CFI V1 load(1, XDATA, add(CFA_XSP16, literal(-10)))
          CFI V2 load(1, XDATA, add(CFA_XSP16, literal(-9)))
          CFI V3 load(1, XDATA, add(CFA_XSP16, literal(-8)))
          CFI V4 load(1, XDATA, add(CFA_XSP16, literal(-7)))
          CFI ?BRET_EXT load(1, XDATA, add(CFA_XSP16, literal(-3)))
          CFI ?RET_HIGH load(1, XDATA, add(CFA_XSP16, literal(-4)))
          CFI ?RET_LOW load(1, XDATA, add(CFA_XSP16, literal(-5)))
        MOV     R7,#0x5
        LJMP    ?BANKED_LEAVE_XDATA
          CFI EndBlock cfiBlock65
//  744 
//  745 /*********************************************************************
//  746  * @fn      zclGeneral_SendSceneViewResponse
//  747  *
//  748  * @brief   Call to send Scene (Enahced) View Response Command. You can
//  749  *           also use the appropriate macro.
//  750  *
//  751  * @param   srcEP - Sending application's endpoint
//  752  * @param   dstAddr - where you want the message to go
//  753  * @param   cmd - either COMMAND_SCENE_VIEW_RSP or COMMAND_SCENE_ENHANCED_VIEW_RSP
//  754  * @param   status - scene command status
//  755  * @param   scene - scene info
//  756  *
//  757  * @return  ZStatus_t
//  758  */

        RSEG BANKED_CODE:CODE:NOROOT(0)
//  759 ZStatus_t zclGeneral_SendSceneViewRsp( uint8 srcEP, afAddrType_t *dstAddr,
zclGeneral_SendSceneViewRsp:
          CFI Block cfiBlock66 Using cfiCommon0
          CFI Function zclGeneral_SendSceneViewRsp
        CODE
//  760                                        uint8 cmd, uint8 status, zclGeneral_Scene_t *scene,
//  761                                        uint8 disableDefaultRsp, uint8 seqNum )
//  762 {
        FUNCALL zclGeneral_SendSceneViewRsp, osal_mem_alloc
        LOCFRAME ISTACK, 0, STACK
        LOCFRAME PSTACK, 0, STACK
        LOCFRAME XSTACK, 27, STACK
        LOCFRAME IOVERLAY, 0, STATIC
        LOCFRAME DOVERLAY, 0, STATIC
        ARGFRAME ISTACK, 0, STACK
        ARGFRAME PSTACK, 0, STACK
        ARGFRAME XSTACK, 27, STACK
        ARGFRAME IOVERLAY, 0, STATIC
        ARGFRAME DOVERLAY, 0, STATIC
        FUNCALL zclGeneral_SendSceneViewRsp, osal_memcpy
        LOCFRAME ISTACK, 0, STACK
        LOCFRAME PSTACK, 0, STACK
        LOCFRAME XSTACK, 30, STACK
        LOCFRAME IOVERLAY, 0, STATIC
        LOCFRAME DOVERLAY, 0, STATIC
        ARGFRAME ISTACK, 0, STACK
        ARGFRAME PSTACK, 0, STACK
        ARGFRAME XSTACK, 30, STACK
        ARGFRAME IOVERLAY, 0, STATIC
        ARGFRAME DOVERLAY, 0, STATIC
        FUNCALL zclGeneral_SendSceneViewRsp, osal_memcpy
        LOCFRAME ISTACK, 0, STACK
        LOCFRAME PSTACK, 0, STACK
        LOCFRAME XSTACK, 30, STACK
        LOCFRAME IOVERLAY, 0, STATIC
        LOCFRAME DOVERLAY, 0, STATIC
        ARGFRAME ISTACK, 0, STACK
        ARGFRAME PSTACK, 0, STACK
        ARGFRAME XSTACK, 30, STACK
        ARGFRAME IOVERLAY, 0, STATIC
        ARGFRAME DOVERLAY, 0, STATIC
        FUNCALL zclGeneral_SendSceneViewRsp, zcl_SendCommand
        LOCFRAME ISTACK, 0, STACK
        LOCFRAME PSTACK, 0, STACK
        LOCFRAME XSTACK, 38, STACK
        LOCFRAME IOVERLAY, 0, STATIC
        LOCFRAME DOVERLAY, 0, STATIC
        ARGFRAME ISTACK, 0, STACK
        ARGFRAME PSTACK, 0, STACK
        ARGFRAME XSTACK, 38, STACK
        ARGFRAME IOVERLAY, 0, STATIC
        ARGFRAME DOVERLAY, 0, STATIC
        FUNCALL zclGeneral_SendSceneViewRsp, osal_mem_free
        LOCFRAME ISTACK, 0, STACK
        LOCFRAME PSTACK, 0, STACK
        LOCFRAME XSTACK, 27, STACK
        LOCFRAME IOVERLAY, 0, STATIC
        LOCFRAME DOVERLAY, 0, STATIC
        ARGFRAME ISTACK, 0, STACK
        ARGFRAME PSTACK, 0, STACK
        ARGFRAME XSTACK, 27, STACK
        ARGFRAME IOVERLAY, 0, STATIC
        ARGFRAME DOVERLAY, 0, STATIC
        MOV     A,#-0x18
        LCALL   ?BANKED_ENTER_XDATA
          CFI DPH0 load(1, XDATA, add(CFA_XSP16, literal(-1)))
          CFI DPL0 load(1, XDATA, add(CFA_XSP16, literal(-2)))
          CFI ?BRET_EXT load(1, XDATA, add(CFA_XSP16, literal(-3)))
          CFI ?RET_HIGH load(1, XDATA, add(CFA_XSP16, literal(-4)))
          CFI ?RET_LOW load(1, XDATA, add(CFA_XSP16, literal(-5)))
          CFI R7 load(1, XDATA, add(CFA_XSP16, literal(-6)))
          CFI V15 load(1, XDATA, add(CFA_XSP16, literal(-7)))
          CFI V14 load(1, XDATA, add(CFA_XSP16, literal(-8)))
          CFI V13 load(1, XDATA, add(CFA_XSP16, literal(-9)))
          CFI V12 load(1, XDATA, add(CFA_XSP16, literal(-10)))
          CFI V11 load(1, XDATA, add(CFA_XSP16, literal(-11)))
          CFI V10 load(1, XDATA, add(CFA_XSP16, literal(-12)))
          CFI V9 load(1, XDATA, add(CFA_XSP16, literal(-13)))
          CFI V8 load(1, XDATA, add(CFA_XSP16, literal(-14)))
          CFI V7 load(1, XDATA, add(CFA_XSP16, literal(-15)))
          CFI V6 load(1, XDATA, add(CFA_XSP16, literal(-16)))
          CFI V5 load(1, XDATA, add(CFA_XSP16, literal(-17)))
          CFI V4 load(1, XDATA, add(CFA_XSP16, literal(-18)))
          CFI V3 load(1, XDATA, add(CFA_XSP16, literal(-19)))
          CFI V2 load(1, XDATA, add(CFA_XSP16, literal(-20)))
          CFI V1 load(1, XDATA, add(CFA_XSP16, literal(-21)))
          CFI V0 load(1, XDATA, add(CFA_XSP16, literal(-22)))
          CFI VB load(1, XDATA, add(CFA_XSP16, literal(-23)))
          CFI R6 load(1, XDATA, add(CFA_XSP16, literal(-24)))
          CFI CFA_SP SP+0
          CFI CFA_XSP16 add(XSP16, 24)
        ; Saved register size: 24
        ; Auto size: 3
        MOV     A,#-0x3
        LCALL   ?ALLOC_XSTACK8
          CFI CFA_XSP16 add(XSP16, 27)
        MOV     A,R1
        MOV     DPL,?XSP + 0
        MOV     DPH,?XSP + 1
        MOVX    @DPTR,A
        MOV     A,#0x1
        LCALL   ?XSTACK_DISP0_8
        LCALL   ??Subroutine110_0 & 0xFFFF
??CrossCallReturnLabel_184:
        MOV     ?V0 + 14,R4
        MOV     ?V0 + 7,R5
        MOV     A,#0x1e
        LCALL   ?XSTACK_DISP0_8
        MOVX    A,@DPTR
        MOV     ?V0 + 15,A
//  763   uint8 *buf;
//  764   uint8 *pBuf;
//  765   uint8 len = 1 + 2 + 1; // Status + Group ID + Scene ID
        MOV     R0,#0x4
        MOV     A,#0x1b
        LCALL   ?XSTACK_DISP0_8
        LCALL   ?Subroutine18 & 0xFFFF
//  766   ZStatus_t stat;
//  767 
//  768   if ( status == ZCL_STATUS_SUCCESS )
??CrossCallReturnLabel_9:
        MOV     A,R5
        JNZ     ??zclGeneral_SendSceneViewRsp_0
//  769   {
//  770     len += 2; // Transition Time
//  771     len += scene->name[0] + 1; // string + 1 for length
//  772 
//  773     // Add something for the extension field length
//  774     len += scene->extLen;
        LCALL   ?Subroutine42 & 0xFFFF
//  775   }
??CrossCallReturnLabel_54:
        ADD     A,#0x7
        MOV     R0,A
//  776 
//  777   buf = zcl_mem_alloc( len );
??zclGeneral_SendSceneViewRsp_0:
        MOV     DPL,R0
        MOV     ?V0 + 2,DPL
        MOV     ?V0 + 3,#0x0
        ; Setup parameters for call to function osal_mem_alloc
        MOV     R2,?V0 + 2
        MOV     R3,?V0 + 3
        LCALL   ??osal_mem_alloc?relay
        MOV     ?V0 + 8,R2
        MOV     ?V0 + 9,R3
//  778   if ( buf )
        MOV     A,R2
        ORL     A,?V0 + 9
        JNZ     $+5
        LJMP    ??zclGeneral_SendSceneViewRsp_1 & 0xFFFF
//  779   {
//  780     pBuf = buf;
        MOV     R6,?V0 + 8
        MOV     R7,?V0 + 9
//  781     *pBuf++ = status;
        MOV     DPL,R6
        MOV     DPH,R7
        MOV     A,?V0 + 7
        MOVX    @DPTR,A
        INC     DPTR
        MOV     R6,DPL
        MOV     R7,DPH
//  782     *pBuf++ = LO_UINT16( scene->groupID );
        MOV     DPL,?V0 + 0
        MOV     DPH,?V0 + 1
        LCALL   ?Subroutine50 & 0xFFFF
??CrossCallReturnLabel_81:
        LCALL   ?Subroutine20 & 0xFFFF
//  783     *pBuf++ = HI_UINT16( scene->groupID );
//  784     *pBuf++ = scene->ID;
//  785     if ( status == ZCL_STATUS_SUCCESS )
??CrossCallReturnLabel_11:
        MOV     A,?V0 + 7
        JZ      $+5
        LJMP    ??zclGeneral_SendSceneViewRsp_2 & 0xFFFF
//  786     {
//  787       uint16 transTime = scene->transTime;
        MOV     DPL,?V0 + 0
        MOV     DPH,?V0 + 1
        INC     DPTR
        INC     DPTR
        INC     DPTR
        LCALL   ?Subroutine48 & 0xFFFF
//  788       if ( cmd == COMMAND_SCENE_ENHANCED_VIEW_RSP )
??CrossCallReturnLabel_67:
        MOV     A,#0x41
        XRL     A,?V0 + 14
        JNZ     ??zclGeneral_SendSceneViewRsp_3
//  789       {
//  790         // Transition time is in 1/10s
//  791         transTime *= 10;
//  792         transTime += scene->transTime100ms;
        MOV     A,R0
        MOV     B,#0xa
        MUL     AB
        MOV     R0,A
        MOV     R2,B
        MOV     B,#0xa
        MOV     A,R1
        MUL     AB
        ADD     A,R2
        MOV     R1,A
        MOV     DPL,?V0 + 0
        MOV     DPH,?V0 + 1
        INC     DPTR
        INC     DPTR
        INC     DPTR
        INC     DPTR
        INC     DPTR
        MOVX    A,@DPTR
        ADD     A,R0
        MOV     R0,A
        INC     DPTR
        MOVX    A,@DPTR
        ADDC    A,R1
        MOV     R1,A
//  793       }
//  794 
//  795       *pBuf++ = LO_UINT16( transTime );
??zclGeneral_SendSceneViewRsp_3:
        MOV     A,R0
        MOV     DPL,R6
        MOV     DPH,R7
        LCALL   ??Subroutine120_0 & 0xFFFF
//  796       *pBuf++ = HI_UINT16( transTime );
??CrossCallReturnLabel_254:
        INC     DPTR
        INC     R6
        INC     R6
        MOV     R7,DPH
//  797       *pBuf++ = scene->name[0]; // string length
        MOV     DPL,?V0 + 10
        MOV     DPH,?V0 + 11
        LCALL   ?Subroutine28 & 0xFFFF
//  798       if ( scene->name[0] != 0 )
??CrossCallReturnLabel_32:
        MOV     R1,A
        JZ      ??zclGeneral_SendSceneViewRsp_4
//  799       {
//  800         zcl_memcpy( pBuf, &(scene->name[1]), scene->name[0] );
        ; Setup parameters for call to function osal_memcpy
        LCALL   ?Subroutine71 & 0xFFFF
??CrossCallReturnLabel_175:
        LCALL   ?PUSH_XSTACK_I_THREE
          CFI CFA_XSP16 add(XSP16, 30)
        MOV     ?V0 + 4,R1
        MOV     R4,?V0 + 4
        MOV     R5,#0x0
        MOV     A,R6
        MOV     R2,A
        MOV     A,R7
        MOV     R3,A
        LCALL   ??osal_memcpy?relay
        MOV     A,#0x3
        LCALL   ?DEALLOC_XSTACK8
          CFI CFA_XSP16 add(XSP16, 27)
//  801         pBuf += scene->name[0]; // move pass name
        MOV     DPL,?V0 + 10
        MOV     DPH,?V0 + 11
        MOVX    A,@DPTR
        MOV     R0,A
        MOV     A,R6
        ADD     A,R0
        MOV     R6,A
        MOV     A,R7
        ADDC    A,#0x0
        MOV     R7,A
//  802       }
//  803 
//  804       // Add the extension fields
//  805       if ( scene->extLen > 0 )
??zclGeneral_SendSceneViewRsp_4:
        MOV     DPL,?V0 + 12
        MOV     DPH,?V0 + 13
        MOVX    A,@DPTR
        MOV     R1,A
        JZ      ??zclGeneral_SendSceneViewRsp_2
//  806         zcl_memcpy( pBuf, scene->extField, scene->extLen );
        ; Setup parameters for call to function osal_memcpy
        MOV     A,?V0 + 0
        ADD     A,#0x18
        LCALL   ??Subroutine104_0 & 0xFFFF
//  807     }
??CrossCallReturnLabel_173:
        LCALL   ?PUSH_XSTACK_I_THREE
          CFI CFA_XSP16 add(XSP16, 30)
        MOV     ?V0 + 0,R1
        MOV     R4,?V0 + 0
        MOV     R5,#0x0
        MOV     A,R6
        MOV     R2,A
        MOV     A,R7
        MOV     R3,A
        LCALL   ??osal_memcpy?relay
        MOV     A,#0x3
        LCALL   ?DEALLOC_XSTACK8
          CFI CFA_XSP16 add(XSP16, 27)
//  808 
//  809     stat = zcl_SendCommand( srcEP, dstAddr, ZCL_CLUSTER_ID_GEN_SCENES,
//  810                             cmd, TRUE, ZCL_FRAME_SERVER_CLIENT_DIR,
//  811                             disableDefaultRsp, 0, seqNum, len, buf );
??zclGeneral_SendSceneViewRsp_2:
        ; Setup parameters for call to function zcl_SendCommand
        MOV     R0,#?V0 + 8
        LCALL   ?PUSH_XSTACK_I_TWO
          CFI CFA_XSP16 add(XSP16, 29)
        MOV     R0,#?V0 + 2
        LCALL   ?PUSH_XSTACK_I_TWO
          CFI CFA_XSP16 add(XSP16, 31)
        MOV     A,?V0 + 15
        MOV     ?V0 + 0,A
        MOV     R0,#?V0 + 0
        LCALL   ?PUSH_XSTACK_I_ONE
          CFI CFA_XSP16 add(XSP16, 32)
        CLR     A
        MOV     ?V0 + 0,A
        MOV     ?V0 + 1,A
        MOV     R0,#?V0 + 0
        LCALL   ?PUSH_XSTACK_I_TWO
          CFI CFA_XSP16 add(XSP16, 34)
        MOV     A,#0x24
        LCALL   ?XSTACK_DISP0_8
        LCALL   ?Subroutine83 & 0xFFFF
??CrossCallReturnLabel_131:
        LCALL   ?PUSH_XSTACK_I_ONE
          CFI CFA_XSP16 add(XSP16, 35)
        MOV     ?V0 + 0,#0x1
        MOV     R0,#?V0 + 0
        LCALL   ?PUSH_XSTACK_I_ONE
          CFI CFA_XSP16 add(XSP16, 36)
        MOV     R0,#?V0 + 0
        LCALL   ?PUSH_XSTACK_I_ONE
          CFI CFA_XSP16 add(XSP16, 37)
        MOV     A,?V0 + 14
        MOV     ?V0 + 0,A
        MOV     R0,#?V0 + 0
        LCALL   ?PUSH_XSTACK_I_ONE
          CFI CFA_XSP16 add(XSP16, 38)
        MOV     R4,#0x5
        MOV     R5,#0x0
        MOV     A,#0xc
        LCALL   ?XSTACK_DISP0_8
        LCALL   ??Subroutine115_0 & 0xFFFF
??CrossCallReturnLabel_205:
        MOV     A,#0xb
        LCALL   ?XSTACK_DISP0_8
        MOVX    A,@DPTR
        MOV     R1,A
        LCALL   ??zcl_SendCommand?relay
        MOV     A,#0xb
        LCALL   ?DEALLOC_XSTACK8
          CFI CFA_XSP16 add(XSP16, 27)
        MOV     A,R1
        MOV     R6,A
//  812     zcl_mem_free( buf );
        ; Setup parameters for call to function osal_mem_free
        MOV     R2,?V0 + 8
        MOV     R3,?V0 + 9
        LCALL   ??osal_mem_free?relay
        SJMP    ??zclGeneral_SendSceneViewRsp_5
//  813   }
//  814   else
//  815     stat = ZMemError;
??zclGeneral_SendSceneViewRsp_1:
        MOV     R6,#0x10
//  816 
//  817   return ( stat );
??zclGeneral_SendSceneViewRsp_5:
        LJMP    ?Subroutine3 & 0xFFFF
          CFI EndBlock cfiBlock66
//  818 }

        RSEG BANKED_CODE:CODE:NOROOT(0)
?Subroutine50:
          CFI Block cfiCond67 Using cfiCommon0
          CFI Function zclGeneral_SendAddSceneRequest
          CFI Conditional ??CrossCallReturnLabel_80
          CFI R6 load(1, XDATA, add(CFA_XSP16, literal(-24)))
          CFI VB load(1, XDATA, add(CFA_XSP16, literal(-23)))
          CFI V0 load(1, XDATA, add(CFA_XSP16, literal(-22)))
          CFI V1 load(1, XDATA, add(CFA_XSP16, literal(-21)))
          CFI V2 load(1, XDATA, add(CFA_XSP16, literal(-20)))
          CFI V3 load(1, XDATA, add(CFA_XSP16, literal(-19)))
          CFI V4 load(1, XDATA, add(CFA_XSP16, literal(-18)))
          CFI V5 load(1, XDATA, add(CFA_XSP16, literal(-17)))
          CFI V6 load(1, XDATA, add(CFA_XSP16, literal(-16)))
          CFI V7 load(1, XDATA, add(CFA_XSP16, literal(-15)))
          CFI V8 load(1, XDATA, add(CFA_XSP16, literal(-14)))
          CFI V9 load(1, XDATA, add(CFA_XSP16, literal(-13)))
          CFI V10 load(1, XDATA, add(CFA_XSP16, literal(-12)))
          CFI V11 load(1, XDATA, add(CFA_XSP16, literal(-11)))
          CFI V12 load(1, XDATA, add(CFA_XSP16, literal(-10)))
          CFI V13 load(1, XDATA, add(CFA_XSP16, literal(-9)))
          CFI V14 load(1, XDATA, add(CFA_XSP16, literal(-8)))
          CFI V15 load(1, XDATA, add(CFA_XSP16, literal(-7)))
          CFI R7 load(1, XDATA, add(CFA_XSP16, literal(-6)))
          CFI ?RET_LOW load(1, XDATA, add(CFA_XSP16, literal(-5)))
          CFI ?RET_HIGH load(1, XDATA, add(CFA_XSP16, literal(-4)))
          CFI ?BRET_EXT load(1, XDATA, add(CFA_XSP16, literal(-3)))
          CFI DPL0 load(1, XDATA, add(CFA_XSP16, literal(-2)))
          CFI DPH0 load(1, XDATA, add(CFA_XSP16, literal(-1)))
          CFI CFA_SP SP+0
          CFI CFA_XSP16 add(XSP16, 27)
          CFI Block cfiCond68 Using cfiCommon0
          CFI (cfiCond68) Function zclGeneral_SendSceneViewRsp
          CFI (cfiCond68) Conditional ??CrossCallReturnLabel_81
          CFI (cfiCond68) R6 load(1, XDATA, add(CFA_XSP16, literal(-24)))
          CFI (cfiCond68) VB load(1, XDATA, add(CFA_XSP16, literal(-23)))
          CFI (cfiCond68) V0 load(1, XDATA, add(CFA_XSP16, literal(-22)))
          CFI (cfiCond68) V1 load(1, XDATA, add(CFA_XSP16, literal(-21)))
          CFI (cfiCond68) V2 load(1, XDATA, add(CFA_XSP16, literal(-20)))
          CFI (cfiCond68) V3 load(1, XDATA, add(CFA_XSP16, literal(-19)))
          CFI (cfiCond68) V4 load(1, XDATA, add(CFA_XSP16, literal(-18)))
          CFI (cfiCond68) V5 load(1, XDATA, add(CFA_XSP16, literal(-17)))
          CFI (cfiCond68) V6 load(1, XDATA, add(CFA_XSP16, literal(-16)))
          CFI (cfiCond68) V7 load(1, XDATA, add(CFA_XSP16, literal(-15)))
          CFI (cfiCond68) V8 load(1, XDATA, add(CFA_XSP16, literal(-14)))
          CFI (cfiCond68) V9 load(1, XDATA, add(CFA_XSP16, literal(-13)))
          CFI (cfiCond68) V10 load(1, XDATA, add(CFA_XSP16, literal(-12)))
          CFI (cfiCond68) V11 load(1, XDATA, add(CFA_XSP16, literal(-11)))
          CFI (cfiCond68) V12 load(1, XDATA, add(CFA_XSP16, literal(-10)))
          CFI (cfiCond68) V13 load(1, XDATA, add(CFA_XSP16, literal(-9)))
          CFI (cfiCond68) V14 load(1, XDATA, add(CFA_XSP16, literal(-8)))
          CFI (cfiCond68) V15 load(1, XDATA, add(CFA_XSP16, literal(-7)))
          CFI (cfiCond68) R7 load(1, XDATA, add(CFA_XSP16, literal(-6)))
          CFI (cfiCond68) ?RET_LOW load(1, XDATA, add(CFA_XSP16, literal(-5)))
          CFI (cfiCond68) ?RET_HIGH load(1, XDATA, add(CFA_XSP16, literal(-4)))
          CFI (cfiCond68) ?BRET_EXT load(1, XDATA, add(CFA_XSP16, literal(-3)))
          CFI (cfiCond68) DPL0 load(1, XDATA, add(CFA_XSP16, literal(-2)))
          CFI (cfiCond68) DPH0 load(1, XDATA, add(CFA_XSP16, literal(-1)))
          CFI (cfiCond68) CFA_SP SP+0
          CFI (cfiCond68) CFA_XSP16 add(XSP16, 27)
          CFI Block cfiPicker69 Using cfiCommon1
          CFI (cfiPicker69) NoFunction
          CFI (cfiPicker69) Picker
        LCALL   ?Subroutine99 & 0xFFFF
??CrossCallReturnLabel_179:
        RET
          CFI EndBlock cfiCond67
          CFI EndBlock cfiCond68
          CFI EndBlock cfiPicker69

        RSEG BANKED_CODE:CODE:NOROOT(0)
?Subroutine99:
          CFI Block cfiCond70 Using cfiCommon0
          CFI Function zclGeneral_SendAddSceneRequest
          CFI Conditional ??CrossCallReturnLabel_179, ??CrossCallReturnLabel_80
          CFI R6 load(1, XDATA, add(CFA_XSP16, literal(-24)))
          CFI VB load(1, XDATA, add(CFA_XSP16, literal(-23)))
          CFI V0 load(1, XDATA, add(CFA_XSP16, literal(-22)))
          CFI V1 load(1, XDATA, add(CFA_XSP16, literal(-21)))
          CFI V2 load(1, XDATA, add(CFA_XSP16, literal(-20)))
          CFI V3 load(1, XDATA, add(CFA_XSP16, literal(-19)))
          CFI V4 load(1, XDATA, add(CFA_XSP16, literal(-18)))
          CFI V5 load(1, XDATA, add(CFA_XSP16, literal(-17)))
          CFI V6 load(1, XDATA, add(CFA_XSP16, literal(-16)))
          CFI V7 load(1, XDATA, add(CFA_XSP16, literal(-15)))
          CFI V8 load(1, XDATA, add(CFA_XSP16, literal(-14)))
          CFI V9 load(1, XDATA, add(CFA_XSP16, literal(-13)))
          CFI V10 load(1, XDATA, add(CFA_XSP16, literal(-12)))
          CFI V11 load(1, XDATA, add(CFA_XSP16, literal(-11)))
          CFI V12 load(1, XDATA, add(CFA_XSP16, literal(-10)))
          CFI V13 load(1, XDATA, add(CFA_XSP16, literal(-9)))
          CFI V14 load(1, XDATA, add(CFA_XSP16, literal(-8)))
          CFI V15 load(1, XDATA, add(CFA_XSP16, literal(-7)))
          CFI R7 load(1, XDATA, add(CFA_XSP16, literal(-6)))
          CFI ?RET_LOW load(1, XDATA, add(CFA_XSP16, literal(-5)))
          CFI ?RET_HIGH load(1, XDATA, add(CFA_XSP16, literal(-4)))
          CFI ?BRET_EXT load(1, XDATA, add(CFA_XSP16, literal(-3)))
          CFI DPL0 load(1, XDATA, add(CFA_XSP16, literal(-2)))
          CFI DPH0 load(1, XDATA, add(CFA_XSP16, literal(-1)))
          CFI CFA_SP SP+0
          CFI CFA_XSP16 add(XSP16, 27)
          CFI Block cfiCond71 Using cfiCommon0
          CFI (cfiCond71) Function zclGeneral_SendSceneViewRsp
          CFI (cfiCond71) Conditional ??CrossCallReturnLabel_179, ??CrossCallReturnLabel_81
          CFI (cfiCond71) R6 load(1, XDATA, add(CFA_XSP16, literal(-24)))
          CFI (cfiCond71) VB load(1, XDATA, add(CFA_XSP16, literal(-23)))
          CFI (cfiCond71) V0 load(1, XDATA, add(CFA_XSP16, literal(-22)))
          CFI (cfiCond71) V1 load(1, XDATA, add(CFA_XSP16, literal(-21)))
          CFI (cfiCond71) V2 load(1, XDATA, add(CFA_XSP16, literal(-20)))
          CFI (cfiCond71) V3 load(1, XDATA, add(CFA_XSP16, literal(-19)))
          CFI (cfiCond71) V4 load(1, XDATA, add(CFA_XSP16, literal(-18)))
          CFI (cfiCond71) V5 load(1, XDATA, add(CFA_XSP16, literal(-17)))
          CFI (cfiCond71) V6 load(1, XDATA, add(CFA_XSP16, literal(-16)))
          CFI (cfiCond71) V7 load(1, XDATA, add(CFA_XSP16, literal(-15)))
          CFI (cfiCond71) V8 load(1, XDATA, add(CFA_XSP16, literal(-14)))
          CFI (cfiCond71) V9 load(1, XDATA, add(CFA_XSP16, literal(-13)))
          CFI (cfiCond71) V10 load(1, XDATA, add(CFA_XSP16, literal(-12)))
          CFI (cfiCond71) V11 load(1, XDATA, add(CFA_XSP16, literal(-11)))
          CFI (cfiCond71) V12 load(1, XDATA, add(CFA_XSP16, literal(-10)))
          CFI (cfiCond71) V13 load(1, XDATA, add(CFA_XSP16, literal(-9)))
          CFI (cfiCond71) V14 load(1, XDATA, add(CFA_XSP16, literal(-8)))
          CFI (cfiCond71) V15 load(1, XDATA, add(CFA_XSP16, literal(-7)))
          CFI (cfiCond71) R7 load(1, XDATA, add(CFA_XSP16, literal(-6)))
          CFI (cfiCond71) ?RET_LOW load(1, XDATA, add(CFA_XSP16, literal(-5)))
          CFI (cfiCond71) ?RET_HIGH load(1, XDATA, add(CFA_XSP16, literal(-4)))
          CFI (cfiCond71) ?BRET_EXT load(1, XDATA, add(CFA_XSP16, literal(-3)))
          CFI (cfiCond71) DPL0 load(1, XDATA, add(CFA_XSP16, literal(-2)))
          CFI (cfiCond71) DPH0 load(1, XDATA, add(CFA_XSP16, literal(-1)))
          CFI (cfiCond71) CFA_SP SP+0
          CFI (cfiCond71) CFA_XSP16 add(XSP16, 27)
          CFI Block cfiCond72 Using cfiCommon0
          CFI (cfiCond72) Function zclGeneral_SendAddSceneRequest
          CFI (cfiCond72) Conditional ??CrossCallReturnLabel_180, ??CrossCallReturnLabel_177, ??CrossCallReturnLabel_10
          CFI (cfiCond72) R6 load(1, XDATA, add(CFA_XSP16, literal(-24)))
          CFI (cfiCond72) VB load(1, XDATA, add(CFA_XSP16, literal(-23)))
          CFI (cfiCond72) V0 load(1, XDATA, add(CFA_XSP16, literal(-22)))
          CFI (cfiCond72) V1 load(1, XDATA, add(CFA_XSP16, literal(-21)))
          CFI (cfiCond72) V2 load(1, XDATA, add(CFA_XSP16, literal(-20)))
          CFI (cfiCond72) V3 load(1, XDATA, add(CFA_XSP16, literal(-19)))
          CFI (cfiCond72) V4 load(1, XDATA, add(CFA_XSP16, literal(-18)))
          CFI (cfiCond72) V5 load(1, XDATA, add(CFA_XSP16, literal(-17)))
          CFI (cfiCond72) V6 load(1, XDATA, add(CFA_XSP16, literal(-16)))
          CFI (cfiCond72) V7 load(1, XDATA, add(CFA_XSP16, literal(-15)))
          CFI (cfiCond72) V8 load(1, XDATA, add(CFA_XSP16, literal(-14)))
          CFI (cfiCond72) V9 load(1, XDATA, add(CFA_XSP16, literal(-13)))
          CFI (cfiCond72) V10 load(1, XDATA, add(CFA_XSP16, literal(-12)))
          CFI (cfiCond72) V11 load(1, XDATA, add(CFA_XSP16, literal(-11)))
          CFI (cfiCond72) V12 load(1, XDATA, add(CFA_XSP16, literal(-10)))
          CFI (cfiCond72) V13 load(1, XDATA, add(CFA_XSP16, literal(-9)))
          CFI (cfiCond72) V14 load(1, XDATA, add(CFA_XSP16, literal(-8)))
          CFI (cfiCond72) V15 load(1, XDATA, add(CFA_XSP16, literal(-7)))
          CFI (cfiCond72) R7 load(1, XDATA, add(CFA_XSP16, literal(-6)))
          CFI (cfiCond72) ?RET_LOW load(1, XDATA, add(CFA_XSP16, literal(-5)))
          CFI (cfiCond72) ?RET_HIGH load(1, XDATA, add(CFA_XSP16, literal(-4)))
          CFI (cfiCond72) ?BRET_EXT load(1, XDATA, add(CFA_XSP16, literal(-3)))
          CFI (cfiCond72) DPL0 load(1, XDATA, add(CFA_XSP16, literal(-2)))
          CFI (cfiCond72) DPH0 load(1, XDATA, add(CFA_XSP16, literal(-1)))
          CFI (cfiCond72) CFA_SP SP+0
          CFI (cfiCond72) CFA_XSP16 add(XSP16, 27)
          CFI Block cfiCond73 Using cfiCommon0
          CFI (cfiCond73) Function zclGeneral_SendSceneViewRsp
          CFI (cfiCond73) Conditional ??CrossCallReturnLabel_180, ??CrossCallReturnLabel_177, ??CrossCallReturnLabel_11
          CFI (cfiCond73) R6 load(1, XDATA, add(CFA_XSP16, literal(-24)))
          CFI (cfiCond73) VB load(1, XDATA, add(CFA_XSP16, literal(-23)))
          CFI (cfiCond73) V0 load(1, XDATA, add(CFA_XSP16, literal(-22)))
          CFI (cfiCond73) V1 load(1, XDATA, add(CFA_XSP16, literal(-21)))
          CFI (cfiCond73) V2 load(1, XDATA, add(CFA_XSP16, literal(-20)))
          CFI (cfiCond73) V3 load(1, XDATA, add(CFA_XSP16, literal(-19)))
          CFI (cfiCond73) V4 load(1, XDATA, add(CFA_XSP16, literal(-18)))
          CFI (cfiCond73) V5 load(1, XDATA, add(CFA_XSP16, literal(-17)))
          CFI (cfiCond73) V6 load(1, XDATA, add(CFA_XSP16, literal(-16)))
          CFI (cfiCond73) V7 load(1, XDATA, add(CFA_XSP16, literal(-15)))
          CFI (cfiCond73) V8 load(1, XDATA, add(CFA_XSP16, literal(-14)))
          CFI (cfiCond73) V9 load(1, XDATA, add(CFA_XSP16, literal(-13)))
          CFI (cfiCond73) V10 load(1, XDATA, add(CFA_XSP16, literal(-12)))
          CFI (cfiCond73) V11 load(1, XDATA, add(CFA_XSP16, literal(-11)))
          CFI (cfiCond73) V12 load(1, XDATA, add(CFA_XSP16, literal(-10)))
          CFI (cfiCond73) V13 load(1, XDATA, add(CFA_XSP16, literal(-9)))
          CFI (cfiCond73) V14 load(1, XDATA, add(CFA_XSP16, literal(-8)))
          CFI (cfiCond73) V15 load(1, XDATA, add(CFA_XSP16, literal(-7)))
          CFI (cfiCond73) R7 load(1, XDATA, add(CFA_XSP16, literal(-6)))
          CFI (cfiCond73) ?RET_LOW load(1, XDATA, add(CFA_XSP16, literal(-5)))
          CFI (cfiCond73) ?RET_HIGH load(1, XDATA, add(CFA_XSP16, literal(-4)))
          CFI (cfiCond73) ?BRET_EXT load(1, XDATA, add(CFA_XSP16, literal(-3)))
          CFI (cfiCond73) DPL0 load(1, XDATA, add(CFA_XSP16, literal(-2)))
          CFI (cfiCond73) DPH0 load(1, XDATA, add(CFA_XSP16, literal(-1)))
          CFI (cfiCond73) CFA_SP SP+0
          CFI (cfiCond73) CFA_XSP16 add(XSP16, 27)
          CFI Block cfiCond74 Using cfiCommon0
          CFI (cfiCond74) Function zclGeneral_SendAddSceneRequest
          CFI (cfiCond74) Conditional ??CrossCallReturnLabel_180, ??CrossCallReturnLabel_178, ??CrossCallReturnLabel_10
          CFI (cfiCond74) R6 load(1, XDATA, add(CFA_XSP16, literal(-24)))
          CFI (cfiCond74) VB load(1, XDATA, add(CFA_XSP16, literal(-23)))
          CFI (cfiCond74) V0 load(1, XDATA, add(CFA_XSP16, literal(-22)))
          CFI (cfiCond74) V1 load(1, XDATA, add(CFA_XSP16, literal(-21)))
          CFI (cfiCond74) V2 load(1, XDATA, add(CFA_XSP16, literal(-20)))
          CFI (cfiCond74) V3 load(1, XDATA, add(CFA_XSP16, literal(-19)))
          CFI (cfiCond74) V4 load(1, XDATA, add(CFA_XSP16, literal(-18)))
          CFI (cfiCond74) V5 load(1, XDATA, add(CFA_XSP16, literal(-17)))
          CFI (cfiCond74) V6 load(1, XDATA, add(CFA_XSP16, literal(-16)))
          CFI (cfiCond74) V7 load(1, XDATA, add(CFA_XSP16, literal(-15)))
          CFI (cfiCond74) V8 load(1, XDATA, add(CFA_XSP16, literal(-14)))
          CFI (cfiCond74) V9 load(1, XDATA, add(CFA_XSP16, literal(-13)))
          CFI (cfiCond74) V10 load(1, XDATA, add(CFA_XSP16, literal(-12)))
          CFI (cfiCond74) V11 load(1, XDATA, add(CFA_XSP16, literal(-11)))
          CFI (cfiCond74) V12 load(1, XDATA, add(CFA_XSP16, literal(-10)))
          CFI (cfiCond74) V13 load(1, XDATA, add(CFA_XSP16, literal(-9)))
          CFI (cfiCond74) V14 load(1, XDATA, add(CFA_XSP16, literal(-8)))
          CFI (cfiCond74) V15 load(1, XDATA, add(CFA_XSP16, literal(-7)))
          CFI (cfiCond74) R7 load(1, XDATA, add(CFA_XSP16, literal(-6)))
          CFI (cfiCond74) ?RET_LOW load(1, XDATA, add(CFA_XSP16, literal(-5)))
          CFI (cfiCond74) ?RET_HIGH load(1, XDATA, add(CFA_XSP16, literal(-4)))
          CFI (cfiCond74) ?BRET_EXT load(1, XDATA, add(CFA_XSP16, literal(-3)))
          CFI (cfiCond74) DPL0 load(1, XDATA, add(CFA_XSP16, literal(-2)))
          CFI (cfiCond74) DPH0 load(1, XDATA, add(CFA_XSP16, literal(-1)))
          CFI (cfiCond74) CFA_SP SP+0
          CFI (cfiCond74) CFA_XSP16 add(XSP16, 27)
          CFI Block cfiCond75 Using cfiCommon0
          CFI (cfiCond75) Function zclGeneral_SendSceneViewRsp
          CFI (cfiCond75) Conditional ??CrossCallReturnLabel_180, ??CrossCallReturnLabel_178, ??CrossCallReturnLabel_11
          CFI (cfiCond75) R6 load(1, XDATA, add(CFA_XSP16, literal(-24)))
          CFI (cfiCond75) VB load(1, XDATA, add(CFA_XSP16, literal(-23)))
          CFI (cfiCond75) V0 load(1, XDATA, add(CFA_XSP16, literal(-22)))
          CFI (cfiCond75) V1 load(1, XDATA, add(CFA_XSP16, literal(-21)))
          CFI (cfiCond75) V2 load(1, XDATA, add(CFA_XSP16, literal(-20)))
          CFI (cfiCond75) V3 load(1, XDATA, add(CFA_XSP16, literal(-19)))
          CFI (cfiCond75) V4 load(1, XDATA, add(CFA_XSP16, literal(-18)))
          CFI (cfiCond75) V5 load(1, XDATA, add(CFA_XSP16, literal(-17)))
          CFI (cfiCond75) V6 load(1, XDATA, add(CFA_XSP16, literal(-16)))
          CFI (cfiCond75) V7 load(1, XDATA, add(CFA_XSP16, literal(-15)))
          CFI (cfiCond75) V8 load(1, XDATA, add(CFA_XSP16, literal(-14)))
          CFI (cfiCond75) V9 load(1, XDATA, add(CFA_XSP16, literal(-13)))
          CFI (cfiCond75) V10 load(1, XDATA, add(CFA_XSP16, literal(-12)))
          CFI (cfiCond75) V11 load(1, XDATA, add(CFA_XSP16, literal(-11)))
          CFI (cfiCond75) V12 load(1, XDATA, add(CFA_XSP16, literal(-10)))
          CFI (cfiCond75) V13 load(1, XDATA, add(CFA_XSP16, literal(-9)))
          CFI (cfiCond75) V14 load(1, XDATA, add(CFA_XSP16, literal(-8)))
          CFI (cfiCond75) V15 load(1, XDATA, add(CFA_XSP16, literal(-7)))
          CFI (cfiCond75) R7 load(1, XDATA, add(CFA_XSP16, literal(-6)))
          CFI (cfiCond75) ?RET_LOW load(1, XDATA, add(CFA_XSP16, literal(-5)))
          CFI (cfiCond75) ?RET_HIGH load(1, XDATA, add(CFA_XSP16, literal(-4)))
          CFI (cfiCond75) ?BRET_EXT load(1, XDATA, add(CFA_XSP16, literal(-3)))
          CFI (cfiCond75) DPL0 load(1, XDATA, add(CFA_XSP16, literal(-2)))
          CFI (cfiCond75) DPH0 load(1, XDATA, add(CFA_XSP16, literal(-1)))
          CFI (cfiCond75) CFA_SP SP+0
          CFI (cfiCond75) CFA_XSP16 add(XSP16, 27)
          CFI Block cfiCond76 Using cfiCommon0
          CFI (cfiCond76) Function zclGeneral_SendAddSceneRequest
          CFI (cfiCond76) Conditional ??CrossCallReturnLabel_180, ??CrossCallReturnLabel_176, ??CrossCallReturnLabel_31
          CFI (cfiCond76) R6 load(1, XDATA, add(CFA_XSP16, literal(-24)))
          CFI (cfiCond76) VB load(1, XDATA, add(CFA_XSP16, literal(-23)))
          CFI (cfiCond76) V0 load(1, XDATA, add(CFA_XSP16, literal(-22)))
          CFI (cfiCond76) V1 load(1, XDATA, add(CFA_XSP16, literal(-21)))
          CFI (cfiCond76) V2 load(1, XDATA, add(CFA_XSP16, literal(-20)))
          CFI (cfiCond76) V3 load(1, XDATA, add(CFA_XSP16, literal(-19)))
          CFI (cfiCond76) V4 load(1, XDATA, add(CFA_XSP16, literal(-18)))
          CFI (cfiCond76) V5 load(1, XDATA, add(CFA_XSP16, literal(-17)))
          CFI (cfiCond76) V6 load(1, XDATA, add(CFA_XSP16, literal(-16)))
          CFI (cfiCond76) V7 load(1, XDATA, add(CFA_XSP16, literal(-15)))
          CFI (cfiCond76) V8 load(1, XDATA, add(CFA_XSP16, literal(-14)))
          CFI (cfiCond76) V9 load(1, XDATA, add(CFA_XSP16, literal(-13)))
          CFI (cfiCond76) V10 load(1, XDATA, add(CFA_XSP16, literal(-12)))
          CFI (cfiCond76) V11 load(1, XDATA, add(CFA_XSP16, literal(-11)))
          CFI (cfiCond76) V12 load(1, XDATA, add(CFA_XSP16, literal(-10)))
          CFI (cfiCond76) V13 load(1, XDATA, add(CFA_XSP16, literal(-9)))
          CFI (cfiCond76) V14 load(1, XDATA, add(CFA_XSP16, literal(-8)))
          CFI (cfiCond76) V15 load(1, XDATA, add(CFA_XSP16, literal(-7)))
          CFI (cfiCond76) R7 load(1, XDATA, add(CFA_XSP16, literal(-6)))
          CFI (cfiCond76) ?RET_LOW load(1, XDATA, add(CFA_XSP16, literal(-5)))
          CFI (cfiCond76) ?RET_HIGH load(1, XDATA, add(CFA_XSP16, literal(-4)))
          CFI (cfiCond76) ?BRET_EXT load(1, XDATA, add(CFA_XSP16, literal(-3)))
          CFI (cfiCond76) DPL0 load(1, XDATA, add(CFA_XSP16, literal(-2)))
          CFI (cfiCond76) DPH0 load(1, XDATA, add(CFA_XSP16, literal(-1)))
          CFI (cfiCond76) CFA_SP SP+0
          CFI (cfiCond76) CFA_XSP16 add(XSP16, 27)
          CFI Block cfiCond77 Using cfiCommon0
          CFI (cfiCond77) Function zclGeneral_SendSceneViewRsp
          CFI (cfiCond77) Conditional ??CrossCallReturnLabel_180, ??CrossCallReturnLabel_176, ??CrossCallReturnLabel_32
          CFI (cfiCond77) R6 load(1, XDATA, add(CFA_XSP16, literal(-24)))
          CFI (cfiCond77) VB load(1, XDATA, add(CFA_XSP16, literal(-23)))
          CFI (cfiCond77) V0 load(1, XDATA, add(CFA_XSP16, literal(-22)))
          CFI (cfiCond77) V1 load(1, XDATA, add(CFA_XSP16, literal(-21)))
          CFI (cfiCond77) V2 load(1, XDATA, add(CFA_XSP16, literal(-20)))
          CFI (cfiCond77) V3 load(1, XDATA, add(CFA_XSP16, literal(-19)))
          CFI (cfiCond77) V4 load(1, XDATA, add(CFA_XSP16, literal(-18)))
          CFI (cfiCond77) V5 load(1, XDATA, add(CFA_XSP16, literal(-17)))
          CFI (cfiCond77) V6 load(1, XDATA, add(CFA_XSP16, literal(-16)))
          CFI (cfiCond77) V7 load(1, XDATA, add(CFA_XSP16, literal(-15)))
          CFI (cfiCond77) V8 load(1, XDATA, add(CFA_XSP16, literal(-14)))
          CFI (cfiCond77) V9 load(1, XDATA, add(CFA_XSP16, literal(-13)))
          CFI (cfiCond77) V10 load(1, XDATA, add(CFA_XSP16, literal(-12)))
          CFI (cfiCond77) V11 load(1, XDATA, add(CFA_XSP16, literal(-11)))
          CFI (cfiCond77) V12 load(1, XDATA, add(CFA_XSP16, literal(-10)))
          CFI (cfiCond77) V13 load(1, XDATA, add(CFA_XSP16, literal(-9)))
          CFI (cfiCond77) V14 load(1, XDATA, add(CFA_XSP16, literal(-8)))
          CFI (cfiCond77) V15 load(1, XDATA, add(CFA_XSP16, literal(-7)))
          CFI (cfiCond77) R7 load(1, XDATA, add(CFA_XSP16, literal(-6)))
          CFI (cfiCond77) ?RET_LOW load(1, XDATA, add(CFA_XSP16, literal(-5)))
          CFI (cfiCond77) ?RET_HIGH load(1, XDATA, add(CFA_XSP16, literal(-4)))
          CFI (cfiCond77) ?BRET_EXT load(1, XDATA, add(CFA_XSP16, literal(-3)))
          CFI (cfiCond77) DPL0 load(1, XDATA, add(CFA_XSP16, literal(-2)))
          CFI (cfiCond77) DPH0 load(1, XDATA, add(CFA_XSP16, literal(-1)))
          CFI (cfiCond77) CFA_SP SP+0
          CFI (cfiCond77) CFA_XSP16 add(XSP16, 27)
          CFI Block cfiPicker78 Using cfiCommon1
          CFI (cfiPicker78) NoFunction
          CFI (cfiPicker78) Picker
        MOVX    A,@DPTR
        MOV     DPL,R6
        MOV     DPH,R7
        MOVX    @DPTR,A
        INC     DPTR
        INC     R6
        RET
          CFI EndBlock cfiCond70
          CFI EndBlock cfiCond71
          CFI EndBlock cfiCond72
          CFI EndBlock cfiCond73
          CFI EndBlock cfiCond74
          CFI EndBlock cfiCond75
          CFI EndBlock cfiCond76
          CFI EndBlock cfiCond77
          CFI EndBlock cfiPicker78

        RSEG BANKED_CODE:CODE:NOROOT(0)
?Subroutine42:
          CFI Block cfiCond79 Using cfiCommon0
          CFI Function zclGeneral_SendAddSceneRequest
          CFI Conditional ??CrossCallReturnLabel_53
          CFI R6 load(1, XDATA, add(CFA_XSP16, literal(-24)))
          CFI VB load(1, XDATA, add(CFA_XSP16, literal(-23)))
          CFI V0 load(1, XDATA, add(CFA_XSP16, literal(-22)))
          CFI V1 load(1, XDATA, add(CFA_XSP16, literal(-21)))
          CFI V2 load(1, XDATA, add(CFA_XSP16, literal(-20)))
          CFI V3 load(1, XDATA, add(CFA_XSP16, literal(-19)))
          CFI V4 load(1, XDATA, add(CFA_XSP16, literal(-18)))
          CFI V5 load(1, XDATA, add(CFA_XSP16, literal(-17)))
          CFI V6 load(1, XDATA, add(CFA_XSP16, literal(-16)))
          CFI V7 load(1, XDATA, add(CFA_XSP16, literal(-15)))
          CFI V8 load(1, XDATA, add(CFA_XSP16, literal(-14)))
          CFI V9 load(1, XDATA, add(CFA_XSP16, literal(-13)))
          CFI V10 load(1, XDATA, add(CFA_XSP16, literal(-12)))
          CFI V11 load(1, XDATA, add(CFA_XSP16, literal(-11)))
          CFI V12 load(1, XDATA, add(CFA_XSP16, literal(-10)))
          CFI V13 load(1, XDATA, add(CFA_XSP16, literal(-9)))
          CFI V14 load(1, XDATA, add(CFA_XSP16, literal(-8)))
          CFI V15 load(1, XDATA, add(CFA_XSP16, literal(-7)))
          CFI R7 load(1, XDATA, add(CFA_XSP16, literal(-6)))
          CFI ?RET_LOW load(1, XDATA, add(CFA_XSP16, literal(-5)))
          CFI ?RET_HIGH load(1, XDATA, add(CFA_XSP16, literal(-4)))
          CFI ?BRET_EXT load(1, XDATA, add(CFA_XSP16, literal(-3)))
          CFI DPL0 load(1, XDATA, add(CFA_XSP16, literal(-2)))
          CFI DPH0 load(1, XDATA, add(CFA_XSP16, literal(-1)))
          CFI CFA_SP SP+0
          CFI CFA_XSP16 add(XSP16, 27)
          CFI Block cfiCond80 Using cfiCommon0
          CFI (cfiCond80) Function zclGeneral_SendSceneViewRsp
          CFI (cfiCond80) Conditional ??CrossCallReturnLabel_54
          CFI (cfiCond80) R6 load(1, XDATA, add(CFA_XSP16, literal(-24)))
          CFI (cfiCond80) VB load(1, XDATA, add(CFA_XSP16, literal(-23)))
          CFI (cfiCond80) V0 load(1, XDATA, add(CFA_XSP16, literal(-22)))
          CFI (cfiCond80) V1 load(1, XDATA, add(CFA_XSP16, literal(-21)))
          CFI (cfiCond80) V2 load(1, XDATA, add(CFA_XSP16, literal(-20)))
          CFI (cfiCond80) V3 load(1, XDATA, add(CFA_XSP16, literal(-19)))
          CFI (cfiCond80) V4 load(1, XDATA, add(CFA_XSP16, literal(-18)))
          CFI (cfiCond80) V5 load(1, XDATA, add(CFA_XSP16, literal(-17)))
          CFI (cfiCond80) V6 load(1, XDATA, add(CFA_XSP16, literal(-16)))
          CFI (cfiCond80) V7 load(1, XDATA, add(CFA_XSP16, literal(-15)))
          CFI (cfiCond80) V8 load(1, XDATA, add(CFA_XSP16, literal(-14)))
          CFI (cfiCond80) V9 load(1, XDATA, add(CFA_XSP16, literal(-13)))
          CFI (cfiCond80) V10 load(1, XDATA, add(CFA_XSP16, literal(-12)))
          CFI (cfiCond80) V11 load(1, XDATA, add(CFA_XSP16, literal(-11)))
          CFI (cfiCond80) V12 load(1, XDATA, add(CFA_XSP16, literal(-10)))
          CFI (cfiCond80) V13 load(1, XDATA, add(CFA_XSP16, literal(-9)))
          CFI (cfiCond80) V14 load(1, XDATA, add(CFA_XSP16, literal(-8)))
          CFI (cfiCond80) V15 load(1, XDATA, add(CFA_XSP16, literal(-7)))
          CFI (cfiCond80) R7 load(1, XDATA, add(CFA_XSP16, literal(-6)))
          CFI (cfiCond80) ?RET_LOW load(1, XDATA, add(CFA_XSP16, literal(-5)))
          CFI (cfiCond80) ?RET_HIGH load(1, XDATA, add(CFA_XSP16, literal(-4)))
          CFI (cfiCond80) ?BRET_EXT load(1, XDATA, add(CFA_XSP16, literal(-3)))
          CFI (cfiCond80) DPL0 load(1, XDATA, add(CFA_XSP16, literal(-2)))
          CFI (cfiCond80) DPH0 load(1, XDATA, add(CFA_XSP16, literal(-1)))
          CFI (cfiCond80) CFA_SP SP+0
          CFI (cfiCond80) CFA_XSP16 add(XSP16, 27)
          CFI Block cfiPicker81 Using cfiCommon1
          CFI (cfiPicker81) NoFunction
          CFI (cfiPicker81) Picker
        MOV     DPL,?V0 + 12
        MOV     DPH,?V0 + 13
        MOVX    A,@DPTR
        MOV     R0,A
        MOV     DPL,?V0 + 10
        MOV     DPH,?V0 + 11
        MOVX    A,@DPTR
        ADD     A,R0
        RET
          CFI EndBlock cfiCond79
          CFI EndBlock cfiCond80
          CFI EndBlock cfiPicker81

        RSEG BANKED_CODE:CODE:NOROOT(0)
?Subroutine28:
          CFI Block cfiCond82 Using cfiCommon0
          CFI Function zclGeneral_SendAddSceneRequest
          CFI Conditional ??CrossCallReturnLabel_31
          CFI R6 load(1, XDATA, add(CFA_XSP16, literal(-24)))
          CFI VB load(1, XDATA, add(CFA_XSP16, literal(-23)))
          CFI V0 load(1, XDATA, add(CFA_XSP16, literal(-22)))
          CFI V1 load(1, XDATA, add(CFA_XSP16, literal(-21)))
          CFI V2 load(1, XDATA, add(CFA_XSP16, literal(-20)))
          CFI V3 load(1, XDATA, add(CFA_XSP16, literal(-19)))
          CFI V4 load(1, XDATA, add(CFA_XSP16, literal(-18)))
          CFI V5 load(1, XDATA, add(CFA_XSP16, literal(-17)))
          CFI V6 load(1, XDATA, add(CFA_XSP16, literal(-16)))
          CFI V7 load(1, XDATA, add(CFA_XSP16, literal(-15)))
          CFI V8 load(1, XDATA, add(CFA_XSP16, literal(-14)))
          CFI V9 load(1, XDATA, add(CFA_XSP16, literal(-13)))
          CFI V10 load(1, XDATA, add(CFA_XSP16, literal(-12)))
          CFI V11 load(1, XDATA, add(CFA_XSP16, literal(-11)))
          CFI V12 load(1, XDATA, add(CFA_XSP16, literal(-10)))
          CFI V13 load(1, XDATA, add(CFA_XSP16, literal(-9)))
          CFI V14 load(1, XDATA, add(CFA_XSP16, literal(-8)))
          CFI V15 load(1, XDATA, add(CFA_XSP16, literal(-7)))
          CFI R7 load(1, XDATA, add(CFA_XSP16, literal(-6)))
          CFI ?RET_LOW load(1, XDATA, add(CFA_XSP16, literal(-5)))
          CFI ?RET_HIGH load(1, XDATA, add(CFA_XSP16, literal(-4)))
          CFI ?BRET_EXT load(1, XDATA, add(CFA_XSP16, literal(-3)))
          CFI DPL0 load(1, XDATA, add(CFA_XSP16, literal(-2)))
          CFI DPH0 load(1, XDATA, add(CFA_XSP16, literal(-1)))
          CFI CFA_SP SP+0
          CFI CFA_XSP16 add(XSP16, 27)
          CFI Block cfiCond83 Using cfiCommon0
          CFI (cfiCond83) Function zclGeneral_SendSceneViewRsp
          CFI (cfiCond83) Conditional ??CrossCallReturnLabel_32
          CFI (cfiCond83) R6 load(1, XDATA, add(CFA_XSP16, literal(-24)))
          CFI (cfiCond83) VB load(1, XDATA, add(CFA_XSP16, literal(-23)))
          CFI (cfiCond83) V0 load(1, XDATA, add(CFA_XSP16, literal(-22)))
          CFI (cfiCond83) V1 load(1, XDATA, add(CFA_XSP16, literal(-21)))
          CFI (cfiCond83) V2 load(1, XDATA, add(CFA_XSP16, literal(-20)))
          CFI (cfiCond83) V3 load(1, XDATA, add(CFA_XSP16, literal(-19)))
          CFI (cfiCond83) V4 load(1, XDATA, add(CFA_XSP16, literal(-18)))
          CFI (cfiCond83) V5 load(1, XDATA, add(CFA_XSP16, literal(-17)))
          CFI (cfiCond83) V6 load(1, XDATA, add(CFA_XSP16, literal(-16)))
          CFI (cfiCond83) V7 load(1, XDATA, add(CFA_XSP16, literal(-15)))
          CFI (cfiCond83) V8 load(1, XDATA, add(CFA_XSP16, literal(-14)))
          CFI (cfiCond83) V9 load(1, XDATA, add(CFA_XSP16, literal(-13)))
          CFI (cfiCond83) V10 load(1, XDATA, add(CFA_XSP16, literal(-12)))
          CFI (cfiCond83) V11 load(1, XDATA, add(CFA_XSP16, literal(-11)))
          CFI (cfiCond83) V12 load(1, XDATA, add(CFA_XSP16, literal(-10)))
          CFI (cfiCond83) V13 load(1, XDATA, add(CFA_XSP16, literal(-9)))
          CFI (cfiCond83) V14 load(1, XDATA, add(CFA_XSP16, literal(-8)))
          CFI (cfiCond83) V15 load(1, XDATA, add(CFA_XSP16, literal(-7)))
          CFI (cfiCond83) R7 load(1, XDATA, add(CFA_XSP16, literal(-6)))
          CFI (cfiCond83) ?RET_LOW load(1, XDATA, add(CFA_XSP16, literal(-5)))
          CFI (cfiCond83) ?RET_HIGH load(1, XDATA, add(CFA_XSP16, literal(-4)))
          CFI (cfiCond83) ?BRET_EXT load(1, XDATA, add(CFA_XSP16, literal(-3)))
          CFI (cfiCond83) DPL0 load(1, XDATA, add(CFA_XSP16, literal(-2)))
          CFI (cfiCond83) DPH0 load(1, XDATA, add(CFA_XSP16, literal(-1)))
          CFI (cfiCond83) CFA_SP SP+0
          CFI (cfiCond83) CFA_XSP16 add(XSP16, 27)
          CFI Block cfiPicker84 Using cfiCommon1
          CFI (cfiPicker84) NoFunction
          CFI (cfiPicker84) Picker
        LCALL   ??Subroutine105_0 & 0xFFFF
??CrossCallReturnLabel_176:
        MOV     DPL,?V0 + 10
        MOV     DPH,?V0 + 11
        MOVX    A,@DPTR
        RET
          CFI EndBlock cfiCond82
          CFI EndBlock cfiCond83
          CFI EndBlock cfiPicker84

        RSEG BANKED_CODE:CODE:NOROOT(0)
?Subroutine20:
          CFI Block cfiCond85 Using cfiCommon0
          CFI Function zclGeneral_SendAddSceneRequest
          CFI Conditional ??CrossCallReturnLabel_10
          CFI R6 load(1, XDATA, add(CFA_XSP16, literal(-24)))
          CFI VB load(1, XDATA, add(CFA_XSP16, literal(-23)))
          CFI V0 load(1, XDATA, add(CFA_XSP16, literal(-22)))
          CFI V1 load(1, XDATA, add(CFA_XSP16, literal(-21)))
          CFI V2 load(1, XDATA, add(CFA_XSP16, literal(-20)))
          CFI V3 load(1, XDATA, add(CFA_XSP16, literal(-19)))
          CFI V4 load(1, XDATA, add(CFA_XSP16, literal(-18)))
          CFI V5 load(1, XDATA, add(CFA_XSP16, literal(-17)))
          CFI V6 load(1, XDATA, add(CFA_XSP16, literal(-16)))
          CFI V7 load(1, XDATA, add(CFA_XSP16, literal(-15)))
          CFI V8 load(1, XDATA, add(CFA_XSP16, literal(-14)))
          CFI V9 load(1, XDATA, add(CFA_XSP16, literal(-13)))
          CFI V10 load(1, XDATA, add(CFA_XSP16, literal(-12)))
          CFI V11 load(1, XDATA, add(CFA_XSP16, literal(-11)))
          CFI V12 load(1, XDATA, add(CFA_XSP16, literal(-10)))
          CFI V13 load(1, XDATA, add(CFA_XSP16, literal(-9)))
          CFI V14 load(1, XDATA, add(CFA_XSP16, literal(-8)))
