###############################################################################
#                                                                             #
# IAR C/C++ Compiler V8.20.2.41139 for 8051             29/May/2014  14:49:51 #
# Copyright 2004-2013 IAR Systems AB.                                         #
#                                                                             #
#    Core               =  plain                                              #
#    Code model         =  banked                                             #
#    Data model         =  large                                              #
#    Calling convention =  xdata reentrant                                    #
#    Constant location  =  data_rom                                           #
#    Dptr setup         =  1,16                                               #
#                                                                             #
#    Source file        =  D:\Texas Instruments\Z-Stack Lighting              #
#                          1.0.2\Components\stack\zcl\zcl_ll.c                #
#    Command line       =  -f "D:\Texas Instruments\Z-Stack Lighting          #
#                          1.0.2\Projects\zstack\ZLL\SampleApp\CC253x\..\..\. #
#                          .\Tools\CC2530DB\f8wRouter.cfg" (-DCPU32MHZ        #
#                          -DROOT=__near_func -DMAC_CFG_APP_PENDING_QUEUE=TRU #
#                          E -DMAC_CFG_TX_DATA_MAX=5 -DMAC_CFG_TX_MAX=8       #
#                          -DMAC_CFG_RX_MAX=5 -DRTR_NWK) -f "D:\Texas         #
#                          Instruments\Z-Stack Lighting                       #
#                          1.0.2\Projects\zstack\ZLL\SampleApp\CC253x\..\..\. #
#                          .\Tools\CC2530DB\f8wConfig.cfg" (-DZIGBEEPRO       #
#                          -DSECURE=1 -DZG_SECURE_DYNAMIC=0 -DREFLECTOR       #
#                          -DDEFAULT_CHANLIST=0x00000800                      #
#                          -DZDAPP_CONFIG_PAN_ID=0xFFFF                       #
#                          -DNWK_START_DELAY=100 -DEXTENDED_JOINING_RANDOM_MA #
#                          SK=0x007F -DBEACON_REQUEST_DELAY=100               #
#                          -DBEACON_REQ_DELAY_MASK=0x00FF                     #
#                          -DLINK_STATUS_JITTER_MASK=0x007F                   #
#                          -DROUTE_EXPIRY_TIME=30 -DAPSC_ACK_WAIT_DURATION_PO #
#                          LLED=3000 -DNWK_INDIRECT_MSG_TIMEOUT=7             #
#                          -DMAX_RREQ_ENTRIES=8 -DAPSC_MAX_FRAME_RETRIES=3    #
#                          -DNWK_MAX_DATA_RETRIES=2                           #
#                          -DMAX_POLL_FAILURE_RETRIES=2 -DMAX_BCAST=9         #
#                          -DAPS_MAX_GROUPS=16 -DMAX_RTG_ENTRIES=40           #
#                          -DNWK_MAX_BINDING_ENTRIES=4                        #
#                          -DMAX_BINDING_CLUSTER_IDS=4 "-DDEFAULT_KEY={0x01,  #
#                          0x03, 0x05, 0x07, 0x09, 0x0B, 0x0D, 0x0F, 0x00,    #
#                          0x02, 0x04, 0x06, 0x08, 0x0A, 0x0C, 0x0D}"         #
#                          -DMAC_MAX_FRAME_SIZE=116                           #
#                          -DZDNWKMGR_MIN_TRANSMISSIONS=20 "-DCONST=const     #
#                          __code" -DGENERIC=__generic                        #
#                          -DRFD_RCVC_ALWAYS_ON=FALSE -DPOLL_RATE=1000        #
#                          -DQUEUED_POLL_RATE=100 -DRESPONSE_POLL_RATE=100    #
#                          -DREJOIN_POLL_RATE=440) -f "D:\Texas               #
#                          Instruments\Z-Stack Lighting                       #
#                          1.0.2\Projects\zstack\ZLL\SampleApp\CC253x\..\..\. #
#                          .\Tools\CC2530DB\f8wZCL.cfg" "D:\Texas             #
#                          Instruments\Z-Stack Lighting                       #
#                          1.0.2\Components\stack\zcl\zcl_ll.c" -D            #
#                          FEATURE_GREEN_POWER -D SECURE=1 -D                 #
#                          TC_LINKKEY_JOIN -D ZDSECMGR_TC_DEVICE_MAX=2 -D     #
#                          NV_RESTORE -D HOLD_AUTO_START -D INTER_PAN -D      #
#                          ZTOOL_P1 -D MT_TASK -D MT_APP_FUNC -D MT_SYS_FUNC  #
#                          -D MT_ZDO_FUNC -D MT_ZDO_CB_FUNC -D MT_UTIL_FUNC   #
#                          -D MT_ZDO_MGMT -D LCD_SUPPORTED -D HAL_LCD=FALSE   #
#                          -D HAL_KEY=FALSE -D ZCL_BASIC -D ZCL_READ -D       #
#                          ZCL_WRITE -D ZCL_IDENTIFY -D ZCL_ON_OFF -D         #
#                          ZCL_SCENES -D ZCL_GROUPS -D                        #
#                          ZCL_LIGHT_LINK_ENHANCE -D ZCL_LEVEL_CTRL -D        #
#                          ZCL_COLOR_CTRL -D xMAX_CHANNELS_24GHZ=0x02108800   #
#                          -lC "D:\Texas Instruments\Z-Stack Lighting         #
#                          1.0.2\Projects\zstack\ZLL\SampleApp\CC253x\BridgeE #
#                          B-Pro\List\" -lA "D:\Texas Instruments\Z-Stack     #
#                          Lighting 1.0.2\Projects\zstack\ZLL\SampleApp\CC253 #
#                          x\BridgeEB-Pro\List\" --diag_suppress Pe001,Pa010  #
#                          -o "D:\Texas Instruments\Z-Stack Lighting          #
#                          1.0.2\Projects\zstack\ZLL\SampleApp\CC253x\BridgeE #
#                          B-Pro\Obj\" -e --debug --core=plain --dptr=16,1    #
#                          --data_model=large --code_model=banked             #
#                          --calling_convention=xdata_reentrant               #
#                          --place_constants=data_rom --nr_virtual_regs 16    #
#                          -I "D:\Texas Instruments\Z-Stack Lighting          #
#                          1.0.2\Projects\zstack\ZLL\SampleApp\CC253x\" -I    #
#                          "D:\Texas Instruments\Z-Stack Lighting             #
#                          1.0.2\Projects\zstack\ZLL\SampleApp\CC253x\..\Sour #
#                          ce\" -I "D:\Texas Instruments\Z-Stack Lighting     #
#                          1.0.2\Projects\zstack\ZLL\SampleApp\CC253x\..\..\S #
#                          ource\" -I "D:\Texas Instruments\Z-Stack Lighting  #
#                          1.0.2\Projects\zstack\ZLL\SampleApp\CC253x\..\..\. #
#                          .\HomeAutomation\Source\" -I "D:\Texas             #
#                          Instruments\Z-Stack Lighting                       #
#                          1.0.2\Projects\zstack\ZLL\SampleApp\CC253x\..\..\. #
#                          .\HomeAutomation\SampleLight\Source\" -I           #
#                          "D:\Texas Instruments\Z-Stack Lighting             #
#                          1.0.2\Projects\zstack\ZLL\SampleApp\CC253x\..\..\. #
#                          .\ZMain\TI2530DB\" -I "D:\Texas                    #
#                          Instruments\Z-Stack Lighting                       #
#                          1.0.2\Projects\zstack\ZLL\SampleApp\CC253x\..\..\. #
#                          .\..\..\Components\hal\include\" -I "D:\Texas      #
#                          Instruments\Z-Stack Lighting                       #
#                          1.0.2\Projects\zstack\ZLL\SampleApp\CC253x\..\..\. #
#                          .\..\..\Components\hal\target\CC2530EB\" -I        #
#                          "D:\Texas Instruments\Z-Stack Lighting             #
#                          1.0.2\Projects\zstack\ZLL\SampleApp\CC253x\..\..\. #
#                          .\..\..\Components\mac\include\" -I "D:\Texas      #
#                          Instruments\Z-Stack Lighting                       #
#                          1.0.2\Projects\zstack\ZLL\SampleApp\CC253x\..\..\. #
#                          .\..\..\Components\mac\high_level\" -I "D:\Texas   #
#                          Instruments\Z-Stack Lighting                       #
#                          1.0.2\Projects\zstack\ZLL\SampleApp\CC253x\..\..\. #
#                          .\..\..\Components\mac\low_level\srf04\" -I        #
#                          "D:\Texas Instruments\Z-Stack Lighting             #
#                          1.0.2\Projects\zstack\ZLL\SampleApp\CC253x\..\..\. #
#                          .\..\..\Components\mac\low_level\srf04\single_chip #
#                          \" -I "D:\Texas Instruments\Z-Stack Lighting       #
#                          1.0.2\Projects\zstack\ZLL\SampleApp\CC253x\..\..\. #
#                          .\..\..\Components\mt\" -I "D:\Texas               #
#                          Instruments\Z-Stack Lighting                       #
#                          1.0.2\Projects\zstack\ZLL\SampleApp\CC253x\..\..\. #
#                          .\..\..\Components\osal\include\" -I "D:\Texas     #
#                          Instruments\Z-Stack Lighting                       #
#                          1.0.2\Projects\zstack\ZLL\SampleApp\CC253x\..\..\. #
#                          .\..\..\Components\services\saddr\" -I "D:\Texas   #
#                          Instruments\Z-Stack Lighting                       #
#                          1.0.2\Projects\zstack\ZLL\SampleApp\CC253x\..\..\. #
#                          .\..\..\Components\services\sdata\" -I "D:\Texas   #
#                          Instruments\Z-Stack Lighting                       #
#                          1.0.2\Projects\zstack\ZLL\SampleApp\CC253x\..\..\. #
#                          .\..\..\Components\stack\af\" -I "D:\Texas         #
#                          Instruments\Z-Stack Lighting                       #
#                          1.0.2\Projects\zstack\ZLL\SampleApp\CC253x\..\..\. #
#                          .\..\..\Components\stack\nwk\" -I "D:\Texas        #
#                          Instruments\Z-Stack Lighting                       #
#                          1.0.2\Projects\zstack\ZLL\SampleApp\CC253x\..\..\. #
#                          .\..\..\Components\stack\sapi\" -I "D:\Texas       #
#                          Instruments\Z-Stack Lighting                       #
#                          1.0.2\Projects\zstack\ZLL\SampleApp\CC253x\..\..\. #
#                          .\..\..\Components\stack\sec\" -I "D:\Texas        #
#                          Instruments\Z-Stack Lighting                       #
#                          1.0.2\Projects\zstack\ZLL\SampleApp\CC253x\..\..\. #
#                          .\..\..\Components\stack\sys\" -I "D:\Texas        #
#                          Instruments\Z-Stack Lighting                       #
#                          1.0.2\Projects\zstack\ZLL\SampleApp\CC253x\..\..\. #
#                          .\..\..\Components\stack\zcl\" -I "D:\Texas        #
#                          Instruments\Z-Stack Lighting                       #
#                          1.0.2\Projects\zstack\ZLL\SampleApp\CC253x\..\..\. #
#                          .\..\..\Components\stack\zdo\" -I "D:\Texas        #
#                          Instruments\Z-Stack Lighting                       #
#                          1.0.2\Projects\zstack\ZLL\SampleApp\CC253x\..\..\. #
#                          .\..\..\Components\zmac\" -I "D:\Texas             #
#                          Instruments\Z-Stack Lighting                       #
#                          1.0.2\Projects\zstack\ZLL\SampleApp\CC253x\..\..\. #
#                          .\..\..\Components\zmac\f8w\" -Ohz                 #
#                          --require_prototypes                               #
#    List file          =  D:\Texas Instruments\Z-Stack Lighting              #
#                          1.0.2\Projects\zstack\ZLL\SampleApp\CC253x\BridgeE #
#                          B-Pro\List\zcl_ll.lst                              #
#    Object file        =  D:\Texas Instruments\Z-Stack Lighting              #
#                          1.0.2\Projects\zstack\ZLL\SampleApp\CC253x\BridgeE #
#                          B-Pro\Obj\zcl_ll.r51                               #
#                                                                             #
#                                                                             #
###############################################################################

D:\Texas Instruments\Z-Stack Lighting 1.0.2\Components\stack\zcl\zcl_ll.c
      1          /**************************************************************************************************
      2            Filename:       zcl_ll.c
      3            Revised:        $Date: 2013-09-10 17:57:03 -0700 (Tue, 10 Sep 2013) $
      4            Revision:       $Revision: 35271 $
      5          
      6            Description:    Zigbee Cluster Library - Light Link commissioning cluster.
      7          
      8          
      9            Copyright 2011-2013 Texas Instruments Incorporated. All rights reserved.
     10          
     11            IMPORTANT: Your use of this Software is limited to those specific rights
     12            granted under the terms of a software license agreement between the user
     13            who downloaded the software, his/her employer (which must be your employer)
     14            and Texas Instruments Incorporated (the "License").  You may not use this
     15            Software unless you agree to abide by the terms of the License. The License
     16            limits your use, and you acknowledge, that the Software may not be modified,
     17            copied or distributed unless embedded on a Texas Instruments microcontroller
     18            or used solely and exclusively in conjunction with a Texas Instruments radio
     19            frequency transceiver, which is integrated into your product.  Other than for
     20            the foregoing purpose, you may not use, reproduce, copy, prepare derivative
     21            works of, modify, distribute, perform, display or sell this Software and/or
     22            its documentation for any purpose.
     23          
     24            YOU FURTHER ACKNOWLEDGE AND AGREE THAT THE SOFTWARE AND DOCUMENTATION ARE
     25            PROVIDED “AS IS” WITHOUT WARRANTY OF ANY KIND, EITHER EXPRESS OR IMPLIED,
     26            INCLUDING WITHOUT LIMITATION, ANY WARRANTY OF MERCHANTABILITY, TITLE,
     27            NON-INFRINGEMENT AND FITNESS FOR A PARTICULAR PURPOSE. IN NO EVENT SHALL
     28            TEXAS INSTRUMENTS OR ITS LICENSORS BE LIABLE OR OBLIGATED UNDER CONTRACT,
     29            NEGLIGENCE, STRICT LIABILITY, CONTRIBUTION, BREACH OF WARRANTY, OR OTHER
     30            LEGAL EQUITABLE THEORY ANY DIRECT OR INDIRECT DAMAGES OR EXPENSES
     31            INCLUDING BUT NOT LIMITED TO ANY INCIDENTAL, SPECIAL, INDIRECT, PUNITIVE
     32            OR CONSEQUENTIAL DAMAGES, LOST PROFITS OR LOST DATA, COST OF PROCUREMENT
     33            OF SUBSTITUTE GOODS, TECHNOLOGY, SERVICES, OR ANY CLAIMS BY THIRD PARTIES
     34            (INCLUDING BUT NOT LIMITED TO ANY DEFENSE THEREOF), OR OTHER SIMILAR COSTS.
     35          
     36            Should you have any questions regarding your right to use this Software,
     37            contact Texas Instruments Incorporated at www.TI.com.
     38          **************************************************************************************************/
     39          
     40          
     41          /*********************************************************************
     42           * INCLUDES
     43           */
     44          #include "zcl.h"
     45          #include "zcl_general.h"
     46          #include "zcl_ll.h"
     47          
     48          #if defined ( INTER_PAN )
     49            #include "stub_aps.h"
     50          #endif
     51          
     52          #include "hal_uart.h"

   \                                 In  segment SFR_AN, at 0x80
   \   union <unnamed> volatile __sfr _A_P0
   \                     _A_P0:
   \   000000                DS 1

   \                                 In  segment SFR_AN, at 0xfd
   \   unsigned char volatile __sfr P0DIR
   \                     P0DIR:
   \   000000                DS 1
     53          #include "MT_UART.h"
     54          
     55          /*********************************************************************
     56           * MACROS
     57           */
     58          
     59          /*********************************************************************
     60           * CONSTANTS
     61           */
     62          
     63          /*********************************************************************
     64           * TYPEDEFS
     65           */
     66          
     67          typedef struct zclLLCBRec
     68          {
     69            struct zclLLCBRec     *next;
     70            uint8 endpoint;               // Used to link it into the endpoint descriptor
     71            zclLL_AppCallbacks_t  *CBs;   // Pointer to Callback function
     72          } zclLLCBRec_t;
     73          
     74          /*********************************************************************
     75           * GLOBAL VARIABLES
     76           */
     77          
     78          /*********************************************************************
     79           * GLOBAL FUNCTIONS
     80           */
     81          
     82          /*********************************************************************
     83           * LOCAL VARIABLES
     84           */

   \                                 In  segment XDATA_Z, align 1, keep-with-next
     85          static zclLLCBRec_t *zclLLCBs = (zclLLCBRec_t *)NULL;
   \                     zclLLCBs:
   \   000000                DS 2
   \   000002                REQUIRE __INIT_XDATA_Z

   \                                 In  segment XDATA_Z, align 1, keep-with-next
     86          static uint8 zclLLPluginRegisted = FALSE;
   \                     zclLLPluginRegisted:
   \   000000                DS 1
   \   000001                REQUIRE __INIT_XDATA_Z
     87          

   \                                 In  segment XDATA_Z, align 1, keep-with-next
     88          static zclLL_InterPANCallbacks_t *pInterPANCBs = (zclLL_InterPANCallbacks_t *)NULL;
   \                     pInterPANCBs:
   \   000000                DS 2
   \   000002                REQUIRE __INIT_XDATA_Z
     89          

   \                                 In  segment XDATA_Z, align 1, keep-with-next
     90          static uint8 flag;
   \                     flag:
   \   000000                DS 1
   \   000001                REQUIRE __INIT_XDATA_Z
     91          
     92          /*********************************************************************
     93           * LOCAL FUNCTIONS
     94           */
     95          static zclLL_AppCallbacks_t *zclLL_FindCallbacks( uint8 endpoint );
     96          static ZStatus_t zclLL_HdlIncoming( zclIncoming_t *pInMsg );
     97          static ZStatus_t zclLL_HdlInSpecificCommands( zclIncoming_t *pInMsg );
     98          static ZStatus_t zclLL_HdlInManuSpecificCommands( zclIncoming_t *pInMsg );//add my own function
     99          static ZStatus_t zclLL_ProcessInLLCmds( zclIncoming_t *pInMsg, zclLL_AppCallbacks_t *pCBs );
    100          static ZStatus_t zclLL_ProcessInManuLLCmds( zclIncoming_t *pInMsg, zclLL_AppCallbacks_t *pCBs );//add my own function
    101          
    102          static ZStatus_t zclLL_ProcessInCmd_GetGrpIDsReq( zclIncoming_t *pInMsg, zclLL_AppCallbacks_t *pCBs );
    103          static ZStatus_t zclLL_ProcessInCmd_GetEPListReq( zclIncoming_t *pInMsg, zclLL_AppCallbacks_t *pCBs );
    104          
    105          static ZStatus_t zclLL_ProcessInCmd_EndpointInfo( zclIncoming_t *pInMsg, zclLL_AppCallbacks_t *pCBs );
    106          static ZStatus_t zclLL_ProcessInCmd_GetGrpIDsRsp( zclIncoming_t *pInMsg, zclLL_AppCallbacks_t *pCBs );
    107          static ZStatus_t zclLL_ProcessInCmd_GetEPListRsp( zclIncoming_t *pInMsg, zclLL_AppCallbacks_t *pCBs );
    108          
    109          static ZStatus_t zclLL_HdlInInterPANCommands( zclIncoming_t *pInMsg );
    110          static ZStatus_t zclLL_ProcessInLLInterPANCmds( zclIncoming_t *pInMsg );
    111          
    112          static void zclLL_ParseInCmd_NwkJoinReq( uint8 *pBuf, zclLLNwkJoinReq_t *pReq );
    113          
    114          static ZStatus_t zclLL_ProcessInCmd_ScanReq( zclIncoming_t *pInMsg );
    115          static ZStatus_t zclLL_ProcessInCmd_DeviceInfoReq( zclIncoming_t *pInMsg );
    116          static ZStatus_t zclLL_ProcessInCmd_IdentifyReq( zclIncoming_t *pInMsg );
    117          static ZStatus_t zclLL_ProcessInCmd_ResetToFNReq( zclIncoming_t *pInMsg );
    118          static ZStatus_t zclLL_ProcessInCmd_NwkStartReq( zclIncoming_t *pInMsg );
    119          static ZStatus_t zclLL_ProcessInCmd_NwkJoinRtrReq( zclIncoming_t *pInMsg );
    120          static ZStatus_t zclLL_ProcessInCmd_NwkJoinEDReq( zclIncoming_t *pInMsg );
    121          static ZStatus_t zclLL_ProcessInCmd_NwkUpdateReq( zclIncoming_t *pInMsg );
    122          
    123          static ZStatus_t zclLL_ProcessInCmd_ScanRsp( zclIncoming_t *pInMsg );
    124          static ZStatus_t zclLL_ProcessInCmd_DeviceInfoRsp( zclIncoming_t *pInMsg );
    125          static ZStatus_t zclLL_ProcessInCmd_NwkStartRsp( zclIncoming_t *pInMsg );
    126          static ZStatus_t zclLL_ProcessInCmd_NwkJoinRtrRsp( zclIncoming_t *pInMsg );
    127          static ZStatus_t zclLL_ProcessInCmd_NwkJoinEDRsp( zclIncoming_t *pInMsg );
    128          
    129          
    130          /*********************************************************************
    131           * @fn      zclLL_RegisterCmdCallbacks
    132           *
    133           * @brief   Register an applications command callbacks
    134           *
    135           * @param   endpoint - application's endpoint
    136           * @param   callbacks - pointer to the callback record.
    137           *
    138           * @return  ZMemError if not able to allocate
    139           */

   \                                 In  segment BANKED_CODE, align 1, keep-with-next
    140          ZStatus_t zclLL_RegisterCmdCallbacks( uint8 endpoint, zclLL_AppCallbacks_t *callbacks )
   \                     zclLL_RegisterCmdCallbacks:
    141          {
   \   000000   74F4         MOV     A,#-0xc
   \   000002   12....       LCALL   ?BANKED_ENTER_XDATA
   \   000005                ; Saved register size: 12
   \   000005                ; Auto size: 0
   \   000005   89..         MOV     ?V0 + 0,R1
   \   000007   EA           MOV     A,R2
   \   000008   FE           MOV     R6,A
   \   000009   EB           MOV     A,R3
   \   00000A   FF           MOV     R7,A
    142            zclLLCBRec_t *pNewItem;
    143            zclLLCBRec_t *pLoop;
    144          
    145            // Register as a ZCL Plugin
    146            if ( !zclLLPluginRegisted )
   \   00000B   90....       MOV     DPTR,#zclLLPluginRegisted
   \   00000E   E0           MOVX    A,@DPTR
   \   00000F   7021         JNZ     ??zclLL_RegisterCmdCallbacks_0
    147            {
    148              zcl_registerPlugin( ZCL_CLUSTER_ID_LIGHT_LINK,
    149                                  ZCL_CLUSTER_ID_LIGHT_LINK,
    150                                  zclLL_HdlIncoming );
   \   000011                ; Setup parameters for call to function zcl_registerPlugin
   \   000011   75....       MOV     ?V0 + 2,#??zclLL_HdlIncoming?relay & 0xff
   \   000014   75....       MOV     ?V0 + 3,#(??zclLL_HdlIncoming?relay >> 8) & 0xff
   \   000017   78..         MOV     R0,#?V0 + 2
   \   000019   12....       LCALL   ?PUSH_XSTACK_I_TWO
   \   00001C   7C00         MOV     R4,#0x0
   \   00001E   7D10         MOV     R5,#0x10
   \   000020   7A00         MOV     R2,#0x0
   \   000022   7B10         MOV     R3,#0x10
   \   000024   12....       LCALL   ??zcl_registerPlugin?relay
   \   000027   7402         MOV     A,#0x2
   \   000029   12....       LCALL   ?DEALLOC_XSTACK8
    151              zclLLPluginRegisted = TRUE;
   \   00002C   90....       MOV     DPTR,#zclLLPluginRegisted
   \   00002F   7401         MOV     A,#0x1
   \   000031   F0           MOVX    @DPTR,A
    152            }
    153          
    154            // Fill in the new profile list
    155            pNewItem = zcl_mem_alloc( sizeof( zclLLCBRec_t ) );
   \                     ??zclLL_RegisterCmdCallbacks_0:
   \   000032                ; Setup parameters for call to function osal_mem_alloc
   \   000032   7A05         MOV     R2,#0x5
   \   000034   7B00         MOV     R3,#0x0
   \   000036   12....       LCALL   ??osal_mem_alloc?relay
   \   000039   8A..         MOV     ?V0 + 2,R2
   \   00003B   8B..         MOV     ?V0 + 3,R3
   \   00003D   A8..         MOV     R0,?V0 + 2
   \   00003F   A9..         MOV     R1,?V0 + 3
    156            if ( pNewItem == NULL )
   \   000041   E8           MOV     A,R0
   \   000042   49           ORL     A,R1
   \   000043   7004         JNZ     ??zclLL_RegisterCmdCallbacks_1
    157              return (ZMemError);
   \   000045   7910         MOV     R1,#0x10
   \   000047   803D         SJMP    ??zclLL_RegisterCmdCallbacks_2
    158          
    159            pNewItem->next = (zclLLCBRec_t *)NULL;
   \                     ??zclLL_RegisterCmdCallbacks_1:
   \   000049   8882         MOV     DPL,R0
   \   00004B   8983         MOV     DPH,R1
   \   00004D   E4           CLR     A
   \   00004E   F0           MOVX    @DPTR,A
   \   00004F   12....       LCALL   ?Subroutine68 & 0xFFFF
    160            pNewItem->endpoint = endpoint;
   \                     ??CrossCallReturnLabel_183:
   \   000052   A3           INC     DPTR
   \   000053   E5..         MOV     A,?V0 + 0
   \   000055   12....       LCALL   ??Subroutine126_0 & 0xFFFF
    161            pNewItem->CBs = callbacks;
   \                     ??CrossCallReturnLabel_184:
   \   000058   A3           INC     DPTR
   \   000059   A3           INC     DPTR
   \   00005A   EE           MOV     A,R6
   \   00005B   F0           MOVX    @DPTR,A
   \   00005C   A3           INC     DPTR
   \   00005D   EF           MOV     A,R7
   \   00005E   F0           MOVX    @DPTR,A
    162          
    163            // Find spot in list
    164            if ( zclLLCBs == NULL )
   \   00005F   90....       MOV     DPTR,#zclLLCBs
   \   000062   12....       LCALL   ?Subroutine44 & 0xFFFF
   \                     ??CrossCallReturnLabel_63:
   \   000065   90....       MOV     DPTR,#zclLLCBs
   \   000068   6017         JZ      ??zclLL_RegisterCmdCallbacks_3
    165            {
    166              zclLLCBs = pNewItem;
    167            }
    168            else
    169            {
    170              // Look for end of list
    171              pLoop = zclLLCBs;
   \   00006A   E0           MOVX    A,@DPTR
   \   00006B   FC           MOV     R4,A
   \   00006C   A3           INC     DPTR
   \   00006D   E0           MOVX    A,@DPTR
   \   00006E   8003         SJMP    ??zclLL_RegisterCmdCallbacks_4
    172              while ( pLoop->next != NULL )
    173                pLoop = pLoop->next;
   \                     ??zclLL_RegisterCmdCallbacks_5:
   \   000070   EA           MOV     A,R2
   \   000071   FC           MOV     R4,A
   \   000072   EB           MOV     A,R3
   \                     ??zclLL_RegisterCmdCallbacks_4:
   \   000073   FD           MOV     R5,A
   \   000074   8C82         MOV     DPL,R4
   \   000076   8D83         MOV     DPH,R5
   \   000078   12....       LCALL   ?Subroutine44 & 0xFFFF
   \                     ??CrossCallReturnLabel_64:
   \   00007B   70F3         JNZ     ??zclLL_RegisterCmdCallbacks_5
    174          
    175              // Put new item at end of list
    176              pLoop->next = pNewItem;
   \   00007D   8C82         MOV     DPL,R4
   \   00007F   8D83         MOV     DPH,R5
    177            }
   \                     ??zclLL_RegisterCmdCallbacks_3:
   \   000081   12....       LCALL   ??Subroutine151_0 & 0xFFFF
    178          
    179            return ( ZSuccess );
   \                     ??CrossCallReturnLabel_312:
   \   000084   7900         MOV     R1,#0x0
   \                     ??zclLL_RegisterCmdCallbacks_2:
   \   000086   02....       LJMP    ??Subroutine128_0 & 0xFFFF
    180          }

   \                                 In  segment BANKED_CODE, align 1, keep-with-next
   \                     ?Subroutine68:
   \   000000   A3           INC     DPTR
   \   000001                REQUIRE ??Subroutine126_0
   \   000001                ; // Fall through to label ??Subroutine126_0

   \                                 In  segment BANKED_CODE, align 1, keep-with-next
   \                     ??Subroutine126_0:
   \   000000   F0           MOVX    @DPTR,A
   \   000001   8882         MOV     DPL,R0
   \   000003   8983         MOV     DPH,R1
   \   000005   A3           INC     DPTR
   \   000006   22           RET

   \                                 In  segment BANKED_CODE, align 1, keep-with-next
   \                     ??Subroutine128_0:
   \   000000   7F04         MOV     R7,#0x4
   \   000002   02....       LJMP    ?BANKED_LEAVE_XDATA

   \                                 In  segment BANKED_CODE, align 1, keep-with-next
   \                     ?Subroutine44:
   \   000000   E0           MOVX    A,@DPTR
   \   000001   FA           MOV     R2,A
   \   000002   A3           INC     DPTR
   \   000003   E0           MOVX    A,@DPTR
   \   000004   FB           MOV     R3,A
   \   000005   EA           MOV     A,R2
   \   000006   4B           ORL     A,R3
   \   000007   22           RET

   \                                 In  segment BANKED_CODE, align 1, keep-with-next
   \                     ??Subroutine151_0:
   \   000000   E8           MOV     A,R0
   \   000001   F0           MOVX    @DPTR,A
   \   000002   A3           INC     DPTR
   \   000003   E9           MOV     A,R1
   \   000004   F0           MOVX    @DPTR,A
   \   000005   22           RET
    181          
    182          /*********************************************************************
    183           * @fn      zclLL_RegisterInterPANCmdCallbacks
    184           *
    185           * @brief   Register an applications Inter-PAN command callbacks
    186           *
    187           * @param   callbacks - pointer to the callback record.
    188           *
    189           * @return  ZSuccess
    190           */

   \                                 In  segment BANKED_CODE, align 1, keep-with-next
    191          ZStatus_t zclLL_RegisterInterPANCmdCallbacks( zclLL_InterPANCallbacks_t *callbacks )
   \                     zclLL_RegisterInterPANCmdCallbacks:
    192          {
   \   000000   74F6         MOV     A,#-0xa
   \   000002   12....       LCALL   ?BANKED_ENTER_XDATA
   \   000005                ; Saved register size: 10
   \   000005                ; Auto size: 0
   \   000005   EA           MOV     A,R2
   \   000006   FE           MOV     R6,A
   \   000007   EB           MOV     A,R3
   \   000008   FF           MOV     R7,A
    193            // Register as a ZCL Plugin
    194            if ( !zclLLPluginRegisted )
   \   000009   90....       MOV     DPTR,#zclLLPluginRegisted
   \   00000C   E0           MOVX    A,@DPTR
   \   00000D   7021         JNZ     ??zclLL_RegisterInterPANCmdCallbacks_0
    195            {
    196              zcl_registerPlugin( ZCL_CLUSTER_ID_LIGHT_LINK,
    197                                  ZCL_CLUSTER_ID_LIGHT_LINK,
    198                                  zclLL_HdlIncoming );
   \   00000F                ; Setup parameters for call to function zcl_registerPlugin
   \   00000F   75....       MOV     ?V0 + 0,#??zclLL_HdlIncoming?relay & 0xff
   \   000012   75....       MOV     ?V0 + 1,#(??zclLL_HdlIncoming?relay >> 8) & 0xff
   \   000015   78..         MOV     R0,#?V0 + 0
   \   000017   12....       LCALL   ?PUSH_XSTACK_I_TWO
   \   00001A   7C00         MOV     R4,#0x0
   \   00001C   7D10         MOV     R5,#0x10
   \   00001E   7A00         MOV     R2,#0x0
   \   000020   7B10         MOV     R3,#0x10
   \   000022   12....       LCALL   ??zcl_registerPlugin?relay
   \   000025   7402         MOV     A,#0x2
   \   000027   12....       LCALL   ?DEALLOC_XSTACK8
    199              zclLLPluginRegisted = TRUE;
   \   00002A   90....       MOV     DPTR,#zclLLPluginRegisted
   \   00002D   7401         MOV     A,#0x1
   \   00002F   F0           MOVX    @DPTR,A
    200            }
    201            pInterPANCBs = callbacks;
   \                     ??zclLL_RegisterInterPANCmdCallbacks_0:
   \   000030   90....       MOV     DPTR,#pInterPANCBs
   \   000033   EE           MOV     A,R6
   \   000034   F0           MOVX    @DPTR,A
   \   000035   A3           INC     DPTR
   \   000036   EF           MOV     A,R7
   \   000037   F0           MOVX    @DPTR,A
    202          
    203            return ( ZSuccess );
   \   000038   7900         MOV     R1,#0x0
   \   00003A   7F02         MOV     R7,#0x2
   \   00003C   02....       LJMP    ?BANKED_LEAVE_XDATA
    204          }
    205          
    206          /*********************************************************************
    207           * @fn      zclLL_Send_ScanReq
    208           *
    209           * @brief   Call to send out an Scan Request command
    210           *
    211           * @param   srcEP - sending application's endpoint
    212           * @param   dstAddr - where you want the message to go
    213           * @param   pReq - request parameters
    214           * @param   seqNum - sequence number
    215           *
    216           * @return  ZStatus_t
    217           */

   \                                 In  segment BANKED_CODE, align 1, keep-with-next
    218          ZStatus_t zclLL_Send_ScanReq( uint8 srcEP, afAddrType_t *dstAddr,
   \                     zclLL_Send_ScanReq:
    219                                        zclLLScanReq_t *pReq, uint8 seqNum )
    220          {
   \   000000   74F4         MOV     A,#-0xc
   \   000002   12....       LCALL   ?BANKED_ENTER_XDATA
   \   000005                ; Saved register size: 12
   \   000005                ; Auto size: 6
   \   000005   74FA         MOV     A,#-0x6
   \   000007   12....       LCALL   ?ALLOC_XSTACK8
   \   00000A   89..         MOV     ?V0 + 2,R1
   \   00000C   EA           MOV     A,R2
   \   00000D   FE           MOV     R6,A
   \   00000E   EB           MOV     A,R3
   \   00000F   FF           MOV     R7,A
   \   000010   8C..         MOV     ?V0 + 0,R4
   \   000012   8D..         MOV     ?V0 + 1,R5
   \   000014   7412         MOV     A,#0x12
   \   000016   12....       LCALL   ?XSTACK_DISP0_8
   \   000019   12....       LCALL   ?Subroutine31 & 0xFFFF
    221            uint8 buf[ZLL_CMDLEN_SCAN_REQ];
    222          
    223            VOID zcl_buffer_uint32( buf, pReq->transID );
   \                     ??CrossCallReturnLabel_39:
   \   00001C   12....       LCALL   ?PUSH_XSTACK8_X_FOUR
   \   00001F   7404         MOV     A,#0x4
   \   000021   12....       LCALL   ?XSTACK_DISP0_8
   \   000024   AA82         MOV     R2,DPL
   \   000026   AB83         MOV     R3,DPH
   \   000028   12....       LCALL   ??osal_buffer_uint32?relay
   \   00002B   7404         MOV     A,#0x4
   \   00002D   12....       LCALL   ?DEALLOC_XSTACK8
    224          
    225            buf[4] = pReq->zInfo.zInfoByte;
   \   000030   85..82       MOV     DPL,?V0 + 0
   \   000033   85..83       MOV     DPH,?V0 + 1
   \   000036   A3           INC     DPTR
   \   000037   A3           INC     DPTR
   \   000038   A3           INC     DPTR
   \   000039   A3           INC     DPTR
   \   00003A   E0           MOVX    A,@DPTR
   \   00003B   C0E0         PUSH    A
   \   00003D   7404         MOV     A,#0x4
   \   00003F   12....       LCALL   ?XSTACK_DISP0_8
   \   000042   D0E0         POP     A
   \   000044   F0           MOVX    @DPTR,A
    226            buf[5] = pReq->zllInfo.zllInfoByte;
   \   000045   85..82       MOV     DPL,?V0 + 0
   \   000048   85..83       MOV     DPH,?V0 + 1
   \   00004B   A3           INC     DPTR
   \   00004C   A3           INC     DPTR
   \   00004D   A3           INC     DPTR
   \   00004E   A3           INC     DPTR
   \   00004F   A3           INC     DPTR
   \   000050   A3           INC     DPTR
   \   000051   E0           MOVX    A,@DPTR
   \   000052   C0E0         PUSH    A
   \   000054   7405         MOV     A,#0x5
   \   000056   12....       LCALL   ?XSTACK_DISP0_8
   \   000059   D0E0         POP     A
   \   00005B   12....       LCALL   ?Subroutine54 & 0xFFFF
    227          
    228            return zclLL_SendInterPANCommand( srcEP, dstAddr, COMMAND_ZLL_SCAN_REQ,
    229                                              ZCL_FRAME_CLIENT_SERVER_DIR, seqNum, ZLL_CMDLEN_SCAN_REQ, buf );
   \                     ??CrossCallReturnLabel_80:
   \   00005E   12....       LCALL   ?PUSH_XSTACK_I_TWO
   \   000061   75..06       MOV     ?V0 + 0,#0x6
   \   000064   75..00       MOV     ?V0 + 1,#0x0
   \   000067   78..         MOV     R0,#?V0 + 0
   \   000069   12....       LCALL   ?PUSH_XSTACK_I_TWO
   \   00006C   E5..         MOV     A,?V0 + 3
   \   00006E   F5..         MOV     ?V0 + 0,A
   \   000070   78..         MOV     R0,#?V0 + 0
   \   000072   12....       LCALL   ?PUSH_XSTACK_I_ONE
   \   000075   7D00         MOV     R5,#0x0
   \   000077   7C00         MOV     R4,#0x0
   \   000079   02....       LJMP    ?Subroutine0 & 0xFFFF
    230          }

   \                                 In  segment BANKED_CODE, align 1, keep-with-next
   \                     ?Subroutine54:
   \   000000   F0           MOVX    @DPTR,A
   \   000001                ; Setup parameters for call to function zclLL_SendInterPANCommand
   \   000001                ; Setup parameters for call to function zclLL_SendInterPANCommand
   \   000001                ; Setup parameters for call to function zclLL_SendInterPANCommand
   \   000001                ; Setup parameters for call to function zclLL_SendInterPANCommand
   \   000001   85..82       MOV     DPL,?XSP + 0
   \   000004   85..83       MOV     DPH,?XSP + 1
   \   000007   8582..       MOV     ?V0 + 0,DPL
   \   00000A   8583..       MOV     ?V0 + 1,DPH
   \   00000D   78..         MOV     R0,#?V0 + 0
   \   00000F   22           RET

   \                                 In  segment BANKED_CODE, align 1, keep-with-next
   \                     ?Subroutine31:
   \   000000   E0           MOVX    A,@DPTR
   \   000001   F5..         MOV     ?V0 + 3,A
   \   000003                ; Setup parameters for call to function osal_buffer_uint32
   \   000003                ; Setup parameters for call to function osal_buffer_uint32
   \   000003                ; Setup parameters for call to function osal_buffer_uint32
   \   000003                ; Setup parameters for call to function osal_buffer_uint32
   \   000003   8C82         MOV     DPL,R4
   \   000005   8D83         MOV     DPH,R5
   \   000007   22           RET

   \                                 In  segment BANKED_CODE, align 1, keep-with-next
   \                     ?Subroutine0:
   \   000000   EE           MOV     A,R6
   \   000001   FA           MOV     R2,A
   \   000002   EF           MOV     A,R7
   \   000003   FB           MOV     R3,A
   \   000004   A9..         MOV     R1,?V0 + 2
   \   000006   12....       LCALL   ??zclLL_SendInterPANCommand?relay
   \   000009   7405         MOV     A,#0x5
   \   00000B   12....       LCALL   ?DEALLOC_XSTACK8
   \   00000E   7406         MOV     A,#0x6
   \   000010                REQUIRE ??Subroutine127_0
   \   000010                ; // Fall through to label ??Subroutine127_0

   \                                 In  segment BANKED_CODE, align 1, keep-with-next
   \                     ??Subroutine127_0:
   \   000000   12....       LCALL   ?DEALLOC_XSTACK8
   \   000003                REQUIRE ??Subroutine128_0
   \   000003                ; // Fall through to label ??Subroutine128_0
    231          
    232          /*********************************************************************
    233           * @fn      zclLL_Send_DeviceInfoReq
    234           *
    235           * @brief   Call to send out a Device Information Request command
    236           *
    237           * @param   srcEP - sending application's endpoint
    238           * @param   dstAddr - where you want the message to go
    239           * @param   pReq - request parameters
    240           * @param   seqNum - sequence number
    241           *
    242           * @return  ZStatus_t
    243           */

   \                                 In  segment BANKED_CODE, align 1, keep-with-next
    244          ZStatus_t zclLL_Send_DeviceInfoReq( uint8 srcEP, afAddrType_t *dstAddr,
   \                     zclLL_Send_DeviceInfoReq:
    245                                              zclLLDeviceInfoReq_t *pReq, uint8 seqNum )
    246          {
   \   000000   74F4         MOV     A,#-0xc
   \   000002   12....       LCALL   ?BANKED_ENTER_XDATA
   \   000005                ; Saved register size: 12
   \   000005                ; Auto size: 5
   \   000005   74FB         MOV     A,#-0x5
   \   000007   12....       LCALL   ?ALLOC_XSTACK8
   \   00000A   89..         MOV     ?V0 + 2,R1
   \   00000C   EA           MOV     A,R2
   \   00000D   FE           MOV     R6,A
   \   00000E   EB           MOV     A,R3
   \   00000F   FF           MOV     R7,A
   \   000010   8C..         MOV     ?V0 + 0,R4
   \   000012   8D..         MOV     ?V0 + 1,R5
   \   000014   7411         MOV     A,#0x11
   \   000016   12....       LCALL   ?XSTACK_DISP0_8
   \   000019   12....       LCALL   ?Subroutine31 & 0xFFFF
    247            uint8 buf[ZLL_CMDLEN_DEVICE_INFO_REQ];
    248          
    249            VOID zcl_buffer_uint32( buf, pReq->transID );
   \                     ??CrossCallReturnLabel_40:
   \   00001C   12....       LCALL   ?PUSH_XSTACK8_X_FOUR
   \   00001F   7404         MOV     A,#0x4
   \   000021   12....       LCALL   ?XSTACK_DISP0_8
   \   000024   AA82         MOV     R2,DPL
   \   000026   AB83         MOV     R3,DPH
   \   000028   12....       LCALL   ??osal_buffer_uint32?relay
   \   00002B   7404         MOV     A,#0x4
   \   00002D   12....       LCALL   ?DEALLOC_XSTACK8
    250          
    251            buf[4] = pReq->startIndex;
   \   000030   85..82       MOV     DPL,?V0 + 0
   \   000033   85..83       MOV     DPH,?V0 + 1
   \   000036   A3           INC     DPTR
   \   000037   A3           INC     DPTR
   \   000038   A3           INC     DPTR
   \   000039   A3           INC     DPTR
   \   00003A   E0           MOVX    A,@DPTR
   \   00003B   C0E0         PUSH    A
   \   00003D   7404         MOV     A,#0x4
   \   00003F   12....       LCALL   ?XSTACK_DISP0_8
   \   000042   D0E0         POP     A
   \   000044   12....       LCALL   ?Subroutine54 & 0xFFFF
    252          
    253            return zclLL_SendInterPANCommand( srcEP, dstAddr, COMMAND_ZLL_DEVICE_INFO_REQ,
    254                                              ZCL_FRAME_CLIENT_SERVER_DIR, seqNum, ZLL_CMDLEN_DEVICE_INFO_REQ, buf );
   \                     ??CrossCallReturnLabel_81:
   \   000047   12....       LCALL   ?PUSH_XSTACK_I_TWO
   \   00004A   75..05       MOV     ?V0 + 0,#0x5
   \   00004D   75..00       MOV     ?V0 + 1,#0x0
   \   000050   78..         MOV     R0,#?V0 + 0
   \   000052   12....       LCALL   ?PUSH_XSTACK_I_TWO
   \   000055   E5..         MOV     A,?V0 + 3
   \   000057   F5..         MOV     ?V0 + 0,A
   \   000059   78..         MOV     R0,#?V0 + 0
   \   00005B   12....       LCALL   ?PUSH_XSTACK_I_ONE
   \   00005E   7D00         MOV     R5,#0x0
   \   000060   7C02         MOV     R4,#0x2
   \   000062   EE           MOV     A,R6
   \   000063   FA           MOV     R2,A
   \   000064   EF           MOV     A,R7
   \   000065   FB           MOV     R3,A
   \   000066   A9..         MOV     R1,?V0 + 2
   \   000068   12....       LCALL   ??zclLL_SendInterPANCommand?relay
   \   00006B   7405         MOV     A,#0x5
   \   00006D   12....       LCALL   ?DEALLOC_XSTACK8
   \   000070   7405         MOV     A,#0x5
   \   000072   02....       LJMP    ??Subroutine127_0 & 0xFFFF
    255          }
    256          
    257          /*********************************************************************
    258           * @fn      zclLL_Send_IndentifyReq
    259           *
    260           * @brief   Call to send out a Identify Request command
    261           *
    262           * @param   srcEP - sending application's endpoint
    263           * @param   dstAddr - where you want the message to go
    264           * @param   pReq - request parameters
    265           * @param   seqNum - sequence number
    266           *
    267           * @return  ZStatus_t
    268           */

   \                                 In  segment BANKED_CODE, align 1, keep-with-next
    269          ZStatus_t zclLL_Send_IndentifyReq( uint8 srcEP, afAddrType_t *dstAddr,
   \                     zclLL_Send_IndentifyReq:
    270                                             zclLLIdentifyReq_t *pReq, uint8 seqNum )
    271          {
   \   000000   74F4         MOV     A,#-0xc
   \   000002   12....       LCALL   ?BANKED_ENTER_XDATA
   \   000005                ; Saved register size: 12
   \   000005                ; Auto size: 6
   \   000005   74FA         MOV     A,#-0x6
   \   000007   12....       LCALL   ?ALLOC_XSTACK8
   \   00000A   89..         MOV     ?V0 + 2,R1
   \   00000C   EA           MOV     A,R2
   \   00000D   FE           MOV     R6,A
   \   00000E   EB           MOV     A,R3
   \   00000F   FF           MOV     R7,A
   \   000010   8C..         MOV     ?V0 + 0,R4
   \   000012   8D..         MOV     ?V0 + 1,R5
   \   000014   7412         MOV     A,#0x12
   \   000016   12....       LCALL   ?XSTACK_DISP0_8
   \   000019   12....       LCALL   ?Subroutine31 & 0xFFFF
    272            uint8 buf[ZLL_CMDLEN_IDENTIFY_REQ];
    273          
    274            VOID zcl_buffer_uint32( buf, pReq->transID );
   \                     ??CrossCallReturnLabel_41:
   \   00001C   12....       LCALL   ?PUSH_XSTACK8_X_FOUR
   \   00001F   7404         MOV     A,#0x4
   \   000021   12....       LCALL   ?XSTACK_DISP0_8
   \   000024   AA82         MOV     R2,DPL
   \   000026   AB83         MOV     R3,DPH
   \   000028   12....       LCALL   ??osal_buffer_uint32?relay
   \   00002B   7404         MOV     A,#0x4
   \   00002D   12....       LCALL   ?DEALLOC_XSTACK8
    275          
    276            buf[4] = LO_UINT16( pReq->IdDuration );
   \   000030   E5..         MOV     A,?V0 + 0
   \   000032   2404         ADD     A,#0x4
   \   000034   F8           MOV     R0,A
   \   000035   E5..         MOV     A,?V0 + 1
   \   000037   12....       LCALL   ?Subroutine81 & 0xFFFF
   \                     ??CrossCallReturnLabel_125:
   \   00003A   C0E0         PUSH    A
   \   00003C   7404         MOV     A,#0x4
   \   00003E   12....       LCALL   ?XSTACK_DISP0_8
   \   000041   D0E0         POP     A
   \   000043   12....       LCALL   ??Subroutine126_0 & 0xFFFF
    277            buf[5] = HI_UINT16( pReq->IdDuration );
   \                     ??CrossCallReturnLabel_185:
   \   000046   E0           MOVX    A,@DPTR
   \   000047   C0E0         PUSH    A
   \   000049   7405         MOV     A,#0x5
   \   00004B   12....       LCALL   ?XSTACK_DISP0_8
   \   00004E   D0E0         POP     A
   \   000050   12....       LCALL   ?Subroutine54 & 0xFFFF
    278          
    279            return zclLL_SendInterPANCommand( srcEP, dstAddr, COMMAND_ZLL_IDENTIFY_REQ,
    280                                              ZCL_FRAME_CLIENT_SERVER_DIR, seqNum, ZLL_CMDLEN_IDENTIFY_REQ, buf );
   \                     ??CrossCallReturnLabel_82:
   \   000053   12....       LCALL   ?PUSH_XSTACK_I_TWO
   \   000056   75..06       MOV     ?V0 + 0,#0x6
   \   000059   75..00       MOV     ?V0 + 1,#0x0
   \   00005C   78..         MOV     R0,#?V0 + 0
   \   00005E   12....       LCALL   ?PUSH_XSTACK_I_TWO
   \   000061   E5..         MOV     A,?V0 + 3
   \   000063   F5..         MOV     ?V0 + 0,A
   \   000065   78..         MOV     R0,#?V0 + 0
   \   000067   12....       LCALL   ?PUSH_XSTACK_I_ONE
   \   00006A   7D00         MOV     R5,#0x0
   \   00006C   7C06         MOV     R4,#0x6
   \   00006E   02....       LJMP    ?Subroutine0 & 0xFFFF
    281          }

   \                                 In  segment BANKED_CODE, align 1, keep-with-next
   \                     ??Subroutine129_0:
   \   000000   3400         ADDC    A,#0x0
   \   000002   F9           MOV     R1,A
   \   000003   8882         MOV     DPL,R0
   \   000005   8983         MOV     DPH,R1
   \   000007   22           RET

   \                                 In  segment BANKED_CODE, align 1, keep-with-next
   \                     ?Subroutine81:
   \   000000   12....       LCALL   ??Subroutine129_0 & 0xFFFF
   \                     ??CrossCallReturnLabel_187:
   \   000003   E0           MOVX    A,@DPTR
   \   000004   22           RET
    282          
    283          /*********************************************************************
    284           * @fn      zclLL_Send_ResetToFNReq
    285           *
    286           * @brief   Call to send out a Reset to Factory New Request command
    287           *
    288           * @param   srcEP - sending application's endpoint
    289           * @param   dstAddr - where you want the message to go
    290           * @param   pReq - request parameters
    291           * @param   seqNum - sequence number
    292           *
    293           * @return  ZStatus_t
    294           */

   \                                 In  segment BANKED_CODE, align 1, keep-with-next
    295          ZStatus_t zclLL_Send_ResetToFNReq( uint8 srcEP, afAddrType_t *dstAddr,
   \                     zclLL_Send_ResetToFNReq:
    296                                             zclLLResetToFNReq_t *pReq, uint8 seqNum )
    297          {
   \   000000   74F4         MOV     A,#-0xc
   \   000002   12....       LCALL   ?BANKED_ENTER_XDATA
   \   000005                ; Saved register size: 12
   \   000005                ; Auto size: 4
   \   000005   74FC         MOV     A,#-0x4
   \   000007   12....       LCALL   ?ALLOC_XSTACK8
   \   00000A   89..         MOV     ?V0 + 2,R1
   \   00000C   EA           MOV     A,R2
   \   00000D   FE           MOV     R6,A
   \   00000E   EB           MOV     A,R3
   \   00000F   FF           MOV     R7,A
   \   000010   7410         MOV     A,#0x10
   \   000012   12....       LCALL   ?XSTACK_DISP0_8
   \   000015   12....       LCALL   ?Subroutine31 & 0xFFFF
    298            uint8 buf[ZLL_CMDLEN_RESET_TO_FN_REQ];
    299          
    300            VOID zcl_buffer_uint32( buf, pReq->transID );
   \                     ??CrossCallReturnLabel_42:
   \   000018   12....       LCALL   ?PUSH_XSTACK8_X_FOUR
   \   00001B   7404         MOV     A,#0x4
   \   00001D   12....       LCALL   ?XSTACK_DISP0_8
   \   000020   AA82         MOV     R2,DPL
   \   000022   AB83         MOV     R3,DPH
   \   000024   12....       LCALL   ??osal_buffer_uint32?relay
   \   000027   7404         MOV     A,#0x4
   \   000029   12....       LCALL   ?DEALLOC_XSTACK8
    301          
    302            return zclLL_SendInterPANCommand( srcEP, dstAddr, COMMAND_ZLL_RESET_TO_FN_REQ,
    303                                              ZCL_FRAME_CLIENT_SERVER_DIR, seqNum, ZLL_CMDLEN_RESET_TO_FN_REQ, buf );
   \   00002C                ; Setup parameters for call to function zclLL_SendInterPANCommand
   \   00002C   85..82       MOV     DPL,?XSP + 0
   \   00002F   85..83       MOV     DPH,?XSP + 1
   \   000032   8582..       MOV     ?V0 + 0,DPL
   \   000035   8583..       MOV     ?V0 + 1,DPH
   \   000038   78..         MOV     R0,#?V0 + 0
   \   00003A   12....       LCALL   ?PUSH_XSTACK_I_TWO
   \   00003D   75..04       MOV     ?V0 + 0,#0x4
   \   000040   75..00       MOV     ?V0 + 1,#0x0
   \   000043   78..         MOV     R0,#?V0 + 0
   \   000045   12....       LCALL   ?PUSH_XSTACK_I_TWO
   \   000048   E5..         MOV     A,?V0 + 3
   \   00004A   F5..         MOV     ?V0 + 0,A
   \   00004C   78..         MOV     R0,#?V0 + 0
   \   00004E   12....       LCALL   ?PUSH_XSTACK_I_ONE
   \   000051   7D00         MOV     R5,#0x0
   \   000053   7C07         MOV     R4,#0x7
   \   000055   EE           MOV     A,R6
   \   000056   FA           MOV     R2,A
   \   000057   EF           MOV     A,R7
   \   000058   FB           MOV     R3,A
   \   000059   A9..         MOV     R1,?V0 + 2
   \   00005B   12....       LCALL   ??zclLL_SendInterPANCommand?relay
   \   00005E   7405         MOV     A,#0x5
   \   000060   12....       LCALL   ?DEALLOC_XSTACK8
   \   000063   7404         MOV     A,#0x4
   \   000065   80..         SJMP    ??Subroutine127_0
    304          }
    305          
    306          /*********************************************************************
    307           * @fn      zclLL_Send_NwkStartReq
    308           *
    309           * @brief   Call to send out a Network Start Request command
    310           *
    311           * @param   srcEP - sending application's endpoint
    312           * @param   dstAddr - where you want the message to go
    313           * @param   pRsp - response parameters
    314           * @param   seqNum - sequence number
    315           *
    316           * @return  ZStatus_t
    317           */

   \                                 In  segment BANKED_CODE, align 1, keep-with-next
    318          ZStatus_t zclLL_Send_NwkStartReq( uint8 srcEP, afAddrType_t *dstAddr,
   \                     zclLL_Send_NwkStartReq:
    319                                            zclLLNwkStartReq_t *pRsp, uint8 seqNum )
    320          {
   \   000000   74EE         MOV     A,#-0x12
   \   000002   12....       LCALL   ?BANKED_ENTER_XDATA
   \   000005                ; Saved register size: 18
   \   000005                ; Auto size: 0
   \   000005   89..         MOV     ?V0 + 3,R1
   \   000007   8A..         MOV     ?V0 + 0,R2
   \   000009   8B..         MOV     ?V0 + 1,R3
   \   00000B   EC           MOV     A,R4
   \   00000C   FE           MOV     R6,A
   \   00000D   ED           MOV     A,R5
   \   00000E   FF           MOV     R7,A
   \   00000F   7412         MOV     A,#0x12
   \   000011   12....       LCALL   ?XSTACK_DISP0_8
   \   000014   E0           MOVX    A,@DPTR
   \   000015   F5..         MOV     ?V0 + 2,A
    321            uint8 *buf;
    322            uint8 *pBuf;
    323            ZStatus_t status;
    324          
    325            buf = zcl_mem_alloc( ZLL_CMDLEN_NWK_START_REQ );
   \   000017                ; Setup parameters for call to function osal_mem_alloc
   \   000017   7A38         MOV     R2,#0x38
   \   000019   7B00         MOV     R3,#0x0
   \   00001B   12....       LCALL   ??osal_mem_alloc?relay
   \   00001E   8A..         MOV     ?V0 + 8,R2
   \   000020   8B..         MOV     ?V0 + 9,R3
    326            if ( buf != NULL )
   \   000022   EA           MOV     A,R2
   \   000023   45..         ORL     A,?V0 + 9
   \   000025   7003         JNZ     $+5
   \   000027   02....       LJMP    ??zclLL_Send_NwkStartReq_0 & 0xFFFF
    327            {
    328              pBuf = buf;
    329          
    330              pBuf = zcl_buffer_uint32( pBuf, pRsp->transID );
   \   00002A                ; Setup parameters for call to function osal_buffer_uint32
   \   00002A   8E82         MOV     DPL,R6
   \   00002C   8F83         MOV     DPH,R7
   \   00002E   12....       LCALL   ?PUSH_XSTACK8_X_FOUR
   \   000031   12....       LCALL   ??osal_buffer_uint32?relay
   \   000034   7404         MOV     A,#0x4
   \   000036   12....       LCALL   ?DEALLOC_XSTACK8
    331              pBuf = zcl_cpyExtAddr( pBuf, pRsp->nwkParams.extendedPANID );
   \   000039                ; Setup parameters for call to function sAddrExtCpy
   \   000039   12....       LCALL   ?Subroutine73 & 0xFFFF
   \                     ??CrossCallReturnLabel_113:
   \   00003C   12....       LCALL   ??sAddrExtCpy?relay
    332          
    333              *pBuf++ = pRsp->nwkParams.keyIndex;
   \   00003F   12....       LCALL   ?Subroutine20 & 0xFFFF
    334          
    335              pBuf = zcl_memcpy( pBuf, pRsp->nwkParams.nwkKey, SEC_KEY_LEN );
   \                     ??CrossCallReturnLabel_20:
   \   000042   12....       LCALL   ?PUSH_XSTACK_I_THREE
   \   000045   7C10         MOV     R4,#0x10
   \   000047   7D00         MOV     R5,#0x0
   \   000049   12....       LCALL   ??osal_memcpy?relay
   \   00004C   7403         MOV     A,#0x3
   \   00004E   12....       LCALL   ?DEALLOC_XSTACK8
    336          
    337              *pBuf++ = pRsp->nwkParams.logicalChannel;
   \   000051   EE           MOV     A,R6
   \   000052   241D         ADD     A,#0x1d
   \   000054   F582         MOV     DPL,A
   \   000056   EF           MOV     A,R7
   \   000057   12....       LCALL   ??Subroutine148_0 & 0xFFFF
   \                     ??CrossCallReturnLabel_267:
   \   00005A   12....       LCALL   ?Subroutine47 & 0xFFFF
   \                     ??CrossCallReturnLabel_67:
   \   00005D   12....       LCALL   ?Subroutine8 & 0xFFFF
    338          
    339              *pBuf++ = LO_UINT16( pRsp->nwkParams.panId );
    340              *pBuf++ = HI_UINT16( pRsp->nwkParams.panId );
    341          
    342              *pBuf++ = LO_UINT16( pRsp->nwkParams.nwkAddr );
    343              *pBuf++ = HI_UINT16( pRsp->nwkParams.nwkAddr );
    344          
    345              *pBuf++ = LO_UINT16( pRsp->nwkParams.grpIDsBegin );
    346              *pBuf++ = HI_UINT16( pRsp->nwkParams.grpIDsBegin );
    347          
    348              *pBuf++ = LO_UINT16( pRsp->nwkParams.grpIDsEnd );
    349              *pBuf++ = HI_UINT16( pRsp->nwkParams.grpIDsEnd );
    350          
    351              *pBuf++ = LO_UINT16( pRsp->nwkParams.freeNwkAddrBegin );
    352              *pBuf++ = HI_UINT16( pRsp->nwkParams.freeNwkAddrBegin );
    353          
    354              *pBuf++ = LO_UINT16( pRsp->nwkParams.freeNwkAddrEnd );
    355              *pBuf++ = HI_UINT16( pRsp->nwkParams.freeNwkAddrEnd );
    356          
    357              *pBuf++ = LO_UINT16( pRsp->nwkParams.freeGrpIDBegin );
    358              *pBuf++ = HI_UINT16( pRsp->nwkParams.freeGrpIDBegin );
    359          
    360              *pBuf++ = LO_UINT16( pRsp->nwkParams.freeGrpIDEnd );
    361              *pBuf++ = HI_UINT16( pRsp->nwkParams.freeGrpIDEnd );
   \                     ??CrossCallReturnLabel_0:
   \   000060   A3           INC     DPTR
   \   000061   0A           INC     R2
   \   000062   AB83         MOV     R3,DPH
    362          
    363              pBuf = zcl_cpyExtAddr( pBuf, pRsp->initiatorIeeeAddr );
   \   000064                ; Setup parameters for call to function sAddrExtCpy
   \   000064   EE           MOV     A,R6
   \   000065   242E         ADD     A,#0x2e
   \   000067   FC           MOV     R4,A
   \   000068   EF           MOV     A,R7
   \   000069   3400         ADDC    A,#0x0
   \   00006B   FD           MOV     R5,A
   \   00006C   12....       LCALL   ??sAddrExtCpy?relay
    364          
    365              *pBuf++ = LO_UINT16( pRsp->initiatorNwkAddr );
   \   00006F   EE           MOV     A,R6
   \   000070   2436         ADD     A,#0x36
   \   000072   12....       LCALL   ?Subroutine105 & 0xFFFF
   \                     ??CrossCallReturnLabel_188:
   \   000075   12....       LCALL   ?Subroutine35 & 0xFFFF
    366              *pBuf++ = HI_UINT16( pRsp->initiatorNwkAddr );
   \                     ??CrossCallReturnLabel_47:
   \   000078   8882         MOV     DPL,R0
   \   00007A   8983         MOV     DPH,R1
   \   00007C   A3           INC     DPTR
   \   00007D   12....       LCALL   ?Subroutine53 & 0xFFFF
    367          
    368              status = zclLL_SendInterPANCommand( srcEP, dstAddr, COMMAND_ZLL_NWK_START_REQ,
    369                                                  ZCL_FRAME_CLIENT_SERVER_DIR, seqNum, ZLL_CMDLEN_NWK_START_REQ, buf );
   \                     ??CrossCallReturnLabel_77:
   \   000080                ; Setup parameters for call to function zclLL_SendInterPANCommand
   \   000080   78..         MOV     R0,#?V0 + 8
   \   000082   12....       LCALL   ?PUSH_XSTACK_I_TWO
   \   000085   75..38       MOV     ?V0 + 4,#0x38
   \   000088   75..00       MOV     ?V0 + 5,#0x0
   \   00008B   78..         MOV     R0,#?V0 + 4
   \   00008D   12....       LCALL   ?PUSH_XSTACK_I_TWO
   \   000090   78..         MOV     R0,#?V0 + 2
   \   000092   12....       LCALL   ?PUSH_XSTACK_I_ONE
   \   000095   7D00         MOV     R5,#0x0
   \   000097   7C10         MOV     R4,#0x10
   \   000099   AA..         MOV     R2,?V0 + 0
   \   00009B   AB..         MOV     R3,?V0 + 1
   \   00009D   A9..         MOV     R1,?V0 + 3
   \   00009F   12....       LCALL   ??zclLL_SendInterPANCommand?relay
   \   0000A2   7405         MOV     A,#0x5
   \   0000A4   12....       LCALL   ?DEALLOC_XSTACK8
   \   0000A7   E9           MOV     A,R1
   \   0000A8   FE           MOV     R6,A
    370              zcl_mem_free( buf );
   \   0000A9                ; Setup parameters for call to function osal_mem_free
   \   0000A9   AA..         MOV     R2,?V0 + 8
   \   0000AB   AB..         MOV     R3,?V0 + 9
   \   0000AD   12....       LCALL   ??osal_mem_free?relay
   \   0000B0   8002         SJMP    ??zclLL_Send_NwkStartReq_1
    371            }
    372            else
    373            {
    374              status = ZMemError;
   \                     ??zclLL_Send_NwkStartReq_0:
   \   0000B2   7E10         MOV     R6,#0x10
    375            }
    376          
    377            return ( status );
   \                     ??zclLL_Send_NwkStartReq_1:
   \   0000B4   02....       LJMP    ?Subroutine1 & 0xFFFF
    378          }

   \                                 In  segment BANKED_CODE, align 1, keep-with-next
   \                     ?Subroutine105:
   \   000000   F8           MOV     R0,A
   \   000001   EF           MOV     A,R7
   \   000002                REQUIRE ??Subroutine129_0
   \   000002                ; // Fall through to label ??Subroutine129_0

   \                                 In  segment BANKED_CODE, align 1, keep-with-next
   \                     ?Subroutine73:
   \   000000   EE           MOV     A,R6
   \   000001   2404         ADD     A,#0x4
   \   000003   FC           MOV     R4,A
   \   000004   EF           MOV     A,R7
   \   000005   3400         ADDC    A,#0x0
   \   000007   FD           MOV     R5,A
   \   000008   22           RET

   \                                 In  segment BANKED_CODE, align 1, keep-with-next
   \                     ?Subroutine20:
   \   000000   EE           MOV     A,R6
   \   000001   240C         ADD     A,#0xc
   \   000003   12....       LCALL   ?Subroutine90 & 0xFFFF
   \                     ??CrossCallReturnLabel_144:
   \   000006   240D         ADD     A,#0xd
   \   000008   F5..         MOV     ?V0 + 4,A
   \   00000A   EF           MOV     A,R7
   \   00000B   3400         ADDC    A,#0x0
   \   00000D   F5..         MOV     ?V0 + 5,A
   \   00000F   75..00       MOV     ?V0 + 6,#0x0
   \   000012   78..         MOV     R0,#?V0 + 4
   \   000014   22           RET

   \                                 In  segment BANKED_CODE, align 1, keep-with-next
   \                     ?Subroutine8:
   \   000000   AB83         MOV     R3,DPH
   \   000002   EE           MOV     A,R6
   \   000003   241E         ADD     A,#0x1e
   \   000005   12....       LCALL   ?Subroutine83 & 0xFFFF
   \                     ??CrossCallReturnLabel_128:
   \   000008   2420         ADD     A,#0x20
   \   00000A   12....       LCALL   ?Subroutine83 & 0xFFFF
   \                     ??CrossCallReturnLabel_129:
   \   00000D   2422         ADD     A,#0x22
   \   00000F   12....       LCALL   ?Subroutine83 & 0xFFFF
   \                     ??CrossCallReturnLabel_130:
   \   000012   2424         ADD     A,#0x24
   \   000014   12....       LCALL   ?Subroutine83 & 0xFFFF
   \                     ??CrossCallReturnLabel_131:
   \   000017   2426         ADD     A,#0x26
   \   000019   12....       LCALL   ?Subroutine83 & 0xFFFF
   \                     ??CrossCallReturnLabel_132:
   \   00001C   2428         ADD     A,#0x28
   \   00001E   12....       LCALL   ?Subroutine83 & 0xFFFF
   \                     ??CrossCallReturnLabel_133:
   \   000021   242A         ADD     A,#0x2a
   \   000023   12....       LCALL   ?Subroutine83 & 0xFFFF
   \                     ??CrossCallReturnLabel_134:
   \   000026   242C         ADD     A,#0x2c
   \   000028   F8           MOV     R0,A
   \   000029   EF           MOV     A,R7
   \   00002A   12....       LCALL   ?Subroutine86 & 0xFFFF
   \                     ??CrossCallReturnLabel_137:
   \   00002D   22           RET

   \                                 In  segment BANKED_CODE, align 1, keep-with-next
   \                     ?Subroutine86:
   \   000000   12....       LCALL   ?Subroutine111 & 0xFFFF
   \                     ??CrossCallReturnLabel_174:
   \   000003   22           RET

   \                                 In  segment BANKED_CODE, align 1, keep-with-next
   \                     ?Subroutine111:
   \   000000   3400         ADDC    A,#0x0
   \   000002   F9           MOV     R1,A
   \   000003   8882         MOV     DPL,R0
   \   000005   8983         MOV     DPH,R1
   \   000007   12....       LCALL   ?Subroutine122 & 0xFFFF
   \                     ??CrossCallReturnLabel_207:
   \   00000A   8882         MOV     DPL,R0
   \   00000C   8983         MOV     DPH,R1
   \   00000E   A3           INC     DPTR
   \   00000F   12....       LCALL   ?Subroutine123 & 0xFFFF
   \                     ??CrossCallReturnLabel_181:
   \   000012   22           RET

   \                                 In  segment BANKED_CODE, align 1, keep-with-next
   \                     ?Subroutine90:
   \   000000   F582         MOV     DPL,A
   \   000002   EF           MOV     A,R7
   \   000003   3400         ADDC    A,#0x0
   \   000005   F583         MOV     DPH,A
   \   000007   12....       LCALL   ?Subroutine112 & 0xFFFF
   \                     ??CrossCallReturnLabel_176:
   \   00000A                ; Setup parameters for call to function osal_memcpy
   \   00000A                ; Setup parameters for call to function osal_memcpy
   \   00000A   EE           MOV     A,R6
   \   00000B   22           RET

   \                                 In  segment BANKED_CODE, align 1, keep-with-next
   \                     ?Subroutine53:
   \   000000   12....       LCALL   ?Subroutine98 & 0xFFFF
   \                     ??CrossCallReturnLabel_158:
   \   000003   22           RET

   \                                 In  segment BANKED_CODE, align 1, keep-with-next
   \                     ?Subroutine98:
   \   000000   12....       LCALL   ?Subroutine123 & 0xFFFF
   \                     ??CrossCallReturnLabel_180:
   \   000003   22           RET

   \                                 In  segment BANKED_CODE, align 1, keep-with-next
   \                     ?Subroutine123:
   \   000000   12....       LCALL   ?Subroutine125 & 0xFFFF
   \                     ??CrossCallReturnLabel_211:
   \   000003   F0           MOVX    @DPTR,A
   \   000004   22           RET

   \                                 In  segment BANKED_CODE, align 1, keep-with-next
   \                     ?Subroutine83:
   \   000000   F8           MOV     R0,A
   \   000001   EF           MOV     A,R7
   \   000002   12....       LCALL   ?Subroutine111 & 0xFFFF
   \                     ??CrossCallReturnLabel_175:
   \   000005   A3           INC     DPTR
   \   000006   0A           INC     R2
   \   000007   AB83         MOV     R3,DPH
   \   000009                ; Setup parameters for call to function osal_buffer_uint32
   \   000009   EE           MOV     A,R6
   \   00000A   22           RET

   \                                 In  segment BANKED_CODE, align 1, keep-with-next
   \                     ?Subroutine47:
   \   000000   12....       LCALL   ?Subroutine98 & 0xFFFF
   \                     ??CrossCallReturnLabel_156:
   \   000003   A3           INC     DPTR
   \   000004   AA82         MOV     R2,DPL
   \   000006   22           RET

   \                                 In  segment BANKED_CODE, align 1, keep-with-next
   \                     ?Subroutine35:
   \   000000   12....       LCALL   ?Subroutine91 & 0xFFFF
   \                     ??CrossCallReturnLabel_148:
   \   000003   22           RET

   \                                 In  segment BANKED_CODE, align 1, keep-with-next
   \                     ?Subroutine91:
   \   000000   12....       LCALL   ?Subroutine112 & 0xFFFF
   \                     ??CrossCallReturnLabel_177:
   \   000003   22           RET

   \                                 In  segment BANKED_CODE, align 1, keep-with-next
   \                     ?Subroutine112:
   \   000000   12....       LCALL   ?Subroutine123 & 0xFFFF
   \                     ??CrossCallReturnLabel_182:
   \   000003   A3           INC     DPTR
   \   000004   AA82         MOV     R2,DPL
   \   000006   AB83         MOV     R3,DPH
   \   000008   22           RET

   \                                 In  segment BANKED_CODE, align 1, keep-with-next
   \                     ?Subroutine122:
   \   000000   12....       LCALL   ?Subroutine125 & 0xFFFF
   \                     ??CrossCallReturnLabel_212:
   \   000003   F0           MOVX    @DPTR,A
   \   000004   A3           INC     DPTR
   \   000005   0A           INC     R2
   \   000006   AB83         MOV     R3,DPH
   \   000008   22           RET

   \                                 In  segment BANKED_CODE, align 1, keep-with-next
   \                     ?Subroutine125:
   \   000000   E0           MOVX    A,@DPTR
   \   000001   8A82         MOV     DPL,R2
   \   000003   8B83         MOV     DPH,R3
   \   000005   22           RET

   \                                 In  segment BANKED_CODE, align 1, keep-with-next
   \                     ?Subroutine1:
   \   000000   EE           MOV     A,R6
   \   000001   F9           MOV     R1,A
   \   000002                REQUIRE ??Subroutine141_0
   \   000002                ; // Fall through to label ??Subroutine141_0

   \                                 In  segment BANKED_CODE, align 1, keep-with-next
   \                     ??Subroutine141_0:
   \   000000   7F0A         MOV     R7,#0xa
   \   000002   02....       LJMP    ?BANKED_LEAVE_XDATA

   \                                 In  segment BANKED_CODE, align 1, keep-with-next
   \                     ??Subroutine148_0:
   \   000000   12....       LCALL   ??Subroutine164_0 & 0xFFFF
   \                     ??CrossCallReturnLabel_399:
   \   000003   22           RET

   \                                 In  segment BANKED_CODE, align 1, keep-with-next
   \                     ??Subroutine164_0:
   \   000000   3400         ADDC    A,#0x0
   \   000002   F583         MOV     DPH,A
   \   000004   22           RET
    379          
    380          /*********************************************************************
    381           * @fn      zclLL_Send_NwkJoinReq
    382           *
    383           * @brief   Call to send out a Network Join Router/End Device Request command
    384           *
    385           * @param   srcEP - sending application's endpoint
    386           * @param   dstAddr - where you want the message to go
    387           * @param   pRsp - response parameters
    388           * @param   cmd - COMMAND_ZLL_NWK_JOIN_RTR_REQ or COMMAND_ZLL_NWK_JOIN_ED_REQ
    389           * @param   seqNum - sequence number
    390           *
    391           * @return  ZStatus_t
    392           */

   \                                 In  segment BANKED_CODE, align 1, keep-with-next
    393          ZStatus_t zclLL_Send_NwkJoinReq( uint8 srcEP, afAddrType_t *dstAddr,
   \                     zclLL_Send_NwkJoinReq:
    394                                           zclLLNwkJoinReq_t *pRsp, uint8 cmd, uint8 seqNum )
    395          {
   \   000000   74EE         MOV     A,#-0x12
   \   000002   12....       LCALL   ?BANKED_ENTER_XDATA
   \   000005                ; Saved register size: 18
   \   000005                ; Auto size: 0
   \   000005   89..         MOV     ?V0 + 9,R1
   \   000007   8A..         MOV     ?V0 + 2,R2
   \   000009   8B..         MOV     ?V0 + 3,R3
   \   00000B   EC           MOV     A,R4
   \   00000C   FE           MOV     R6,A
   \   00000D   ED           MOV     A,R5
   \   00000E   FF           MOV     R7,A
   \   00000F   7412         MOV     A,#0x12
   \   000011   12....       LCALL   ?XSTACK_DISP0_8
   \   000014   E0           MOVX    A,@DPTR
   \   000015   F5..         MOV     ?V0 + 8,A
   \   000017   7413         MOV     A,#0x13
   \   000019   12....       LCALL   ?XSTACK_DISP0_8
   \   00001C   E0           MOVX    A,@DPTR
   \   00001D   F5..         MOV     ?V0 + 7,A
    396            uint8 *buf;
    397            uint8 *pBuf;
    398            ZStatus_t status;
    399          
    400            buf = zcl_mem_alloc( ZLL_CMDLEN_NWK_JOIN_REQ );
   \   00001F                ; Setup parameters for call to function osal_mem_alloc
   \   00001F   7A2F         MOV     R2,#0x2f
   \   000021   7B00         MOV     R3,#0x0
   \   000023   12....       LCALL   ??osal_mem_alloc?relay
   \   000026   8A..         MOV     ?V0 + 0,R2
   \   000028   8B..         MOV     ?V0 + 1,R3
    401            if ( buf != NULL )
   \   00002A   EA           MOV     A,R2
   \   00002B   45..         ORL     A,?V0 + 1
   \   00002D   6071         JZ      ??zclLL_Send_NwkJoinReq_0
    402            {
    403              pBuf = buf;
    404          
    405              pBuf = zcl_buffer_uint32( pBuf, pRsp->transID );
   \   00002F                ; Setup parameters for call to function osal_buffer_uint32
   \   00002F   8E82         MOV     DPL,R6
   \   000031   8F83         MOV     DPH,R7
   \   000033   12....       LCALL   ?PUSH_XSTACK8_X_FOUR
   \   000036   12....       LCALL   ??osal_buffer_uint32?relay
   \   000039   7404         MOV     A,#0x4
   \   00003B   12....       LCALL   ?DEALLOC_XSTACK8
    406              pBuf = zcl_cpyExtAddr( pBuf, pRsp->nwkParams.extendedPANID );
   \   00003E                ; Setup parameters for call to function sAddrExtCpy
   \   00003E   12....       LCALL   ?Subroutine73 & 0xFFFF
   \                     ??CrossCallReturnLabel_114:
   \   000041   12....       LCALL   ??sAddrExtCpy?relay
    407          
    408              *pBuf++ = pRsp->nwkParams.keyIndex;
   \   000044   12....       LCALL   ?Subroutine20 & 0xFFFF
    409          
    410              pBuf = zcl_memcpy( pBuf, pRsp->nwkParams.nwkKey, SEC_KEY_LEN );
   \                     ??CrossCallReturnLabel_21:
   \   000047   12....       LCALL   ?PUSH_XSTACK_I_THREE
   \   00004A   7C10         MOV     R4,#0x10
   \   00004C   7D00         MOV     R5,#0x0
   \   00004E   12....       LCALL   ??osal_memcpy?relay
   \   000051   7403         MOV     A,#0x3
   \   000053   12....       LCALL   ?DEALLOC_XSTACK8
    411          
    412              *pBuf++ = pRsp->nwkUpdateId;
   \   000056   EE           MOV     A,R6
   \   000057   242E         ADD     A,#0x2e
   \   000059   12....       LCALL   ?Subroutine27 & 0xFFFF
    413              *pBuf++ = pRsp->nwkParams.logicalChannel;
   \                     ??CrossCallReturnLabel_30:
   \   00005C   241D         ADD     A,#0x1d
   \   00005E   F582         MOV     DPL,A
   \   000060   EF           MOV     A,R7
   \   000061   12....       LCALL   ??Subroutine148_0 & 0xFFFF
   \                     ??CrossCallReturnLabel_268:
   \   000064   12....       LCALL   ?Subroutine52 & 0xFFFF
   \                     ??CrossCallReturnLabel_75:
   \   000067   12....       LCALL   ?Subroutine8 & 0xFFFF
    414          
    415              *pBuf++ = LO_UINT16( pRsp->nwkParams.panId );
    416              *pBuf++ = HI_UINT16( pRsp->nwkParams.panId );
    417          
    418              *pBuf++ = LO_UINT16( pRsp->nwkParams.nwkAddr );
    419              *pBuf++ = HI_UINT16( pRsp->nwkParams.nwkAddr );
    420          
    421              *pBuf++ = LO_UINT16( pRsp->nwkParams.grpIDsBegin );
    422              *pBuf++ = HI_UINT16( pRsp->nwkParams.grpIDsBegin );
    423          
    424              *pBuf++ = LO_UINT16( pRsp->nwkParams.grpIDsEnd );
    425              *pBuf++ = HI_UINT16( pRsp->nwkParams.grpIDsEnd );
    426          
    427              *pBuf++ = LO_UINT16( pRsp->nwkParams.freeNwkAddrBegin );
    428              *pBuf++ = HI_UINT16( pRsp->nwkParams.freeNwkAddrBegin );
    429          
    430              *pBuf++ = LO_UINT16( pRsp->nwkParams.freeNwkAddrEnd );
    431              *pBuf++ = HI_UINT16( pRsp->nwkParams.freeNwkAddrEnd );
    432          
    433              *pBuf++ = LO_UINT16( pRsp->nwkParams.freeGrpIDBegin );
    434              *pBuf++ = HI_UINT16( pRsp->nwkParams.freeGrpIDBegin );
    435          
    436              *pBuf++ = LO_UINT16( pRsp->nwkParams.freeGrpIDEnd );
    437              *pBuf++ = HI_UINT16( pRsp->nwkParams.freeGrpIDEnd );
    438          
    439              status = zclLL_SendInterPANCommand( srcEP, dstAddr, cmd, ZCL_FRAME_CLIENT_SERVER_DIR, seqNum,
    440                                                  ZLL_CMDLEN_NWK_JOIN_REQ, buf );
   \                     ??CrossCallReturnLabel_1:
   \   00006A                ; Setup parameters for call to function zclLL_SendInterPANCommand
   \   00006A   78..         MOV     R0,#?V0 + 0
   \   00006C   12....       LCALL   ?PUSH_XSTACK_I_TWO
   \   00006F   75..2F       MOV     ?V0 + 4,#0x2f
   \   000072   75..00       MOV     ?V0 + 5,#0x0
   \   000075   78..         MOV     R0,#?V0 + 4
   \   000077   12....       LCALL   ?PUSH_XSTACK_I_TWO
   \   00007A   E5..         MOV     A,?V0 + 7
   \   00007C   F5..         MOV     ?V0 + 4,A
   \   00007E   78..         MOV     R0,#?V0 + 4
   \   000080   12....       LCALL   ?PUSH_XSTACK_I_ONE
   \   000083   7D00         MOV     R5,#0x0
   \   000085   AC..         MOV     R4,?V0 + 8
   \   000087   AA..         MOV     R2,?V0 + 2
   \   000089   AB..         MOV     R3,?V0 + 3
   \   00008B   A9..         MOV     R1,?V0 + 9
   \   00008D   12....       LCALL   ??zclLL_SendInterPANCommand?relay
   \   000090   7405         MOV     A,#0x5
   \   000092   12....       LCALL   ?DEALLOC_XSTACK8
   \   000095   E9           MOV     A,R1
   \   000096   FE           MOV     R6,A
    441              zcl_mem_free( buf );
   \   000097                ; Setup parameters for call to function osal_mem_free
   \   000097   AA..         MOV     R2,?V0 + 0
   \   000099   AB..         MOV     R3,?V0 + 1
   \   00009B   12....       LCALL   ??osal_mem_free?relay
   \   00009E   8002         SJMP    ??zclLL_Send_NwkJoinReq_1
    442            }
    443            else
    444            {
    445              status = ZMemError;
   \                     ??zclLL_Send_NwkJoinReq_0:
   \   0000A0   7E10         MOV     R6,#0x10
    446            }
    447          
    448            return ( status );
   \                     ??zclLL_Send_NwkJoinReq_1:
   \   0000A2   02....       LJMP    ?Subroutine1 & 0xFFFF
    449          }

   \                                 In  segment BANKED_CODE, align 1, keep-with-next
   \                     ?Subroutine27:
   \   000000   12....       LCALL   ?Subroutine90 & 0xFFFF
   \                     ??CrossCallReturnLabel_145:
   \   000003   22           RET

   \                                 In  segment BANKED_CODE, align 1, keep-with-next
   \                     ?Subroutine52:
   \   000000   12....       LCALL   ?Subroutine98 & 0xFFFF
   \                     ??CrossCallReturnLabel_157:
   \   000003   A3           INC     DPTR
   \   000004   0A           INC     R2
   \   000005   22           RET
    450          
    451          /*********************************************************************
    452           * @fn      zclLL_Send_NwkUpdateReq
    453           *
    454           * @brief   Call to send out a Network Update Request command
    455           *
    456           * @param   srcEP - sending application's endpoint
    457           * @param   dstAddr - where you want the message to go
    458           * @param   pReq - response parameters
    459           * @param   seqNum - sequence number
    460           *
    461           * @return  ZStatus_t
    462           */

   \                                 In  segment BANKED_CODE, align 1, keep-with-next
    463          ZStatus_t zclLL_Send_NwkUpdateReq( uint8 srcEP, afAddrType_t *dstAddr,
   \                     zclLL_Send_NwkUpdateReq:
    464                                             zclLLNwkUpdateReq_t *pReq, uint8 seqNum )
    465          {
   \   000000   74F0         MOV     A,#-0x10
   \   000002   12....       LCALL   ?BANKED_ENTER_XDATA
   \   000005                ; Saved register size: 16
   \   000005                ; Auto size: 0
   \   000005   89..         MOV     ?V0 + 2,R1
   \   000007   8A..         MOV     ?V0 + 0,R2
   \   000009   8B..         MOV     ?V0 + 1,R3
   \   00000B   EC           MOV     A,R4
   \   00000C   FE           MOV     R6,A
   \   00000D   ED           MOV     A,R5
   \   00000E   FF           MOV     R7,A
   \   00000F   7410         MOV     A,#0x10
   \   000011   12....       LCALL   ?XSTACK_DISP0_8
   \   000014   E0           MOVX    A,@DPTR
   \   000015   F5..         MOV     ?V0 + 3,A
    466            uint8 *buf;
    467            uint8 *pBuf;
    468            ZStatus_t status;
    469          
    470            buf = zcl_mem_alloc( ZLL_CMDLEN_NWK_UPDATE_REQ );
   \   000017                ; Setup parameters for call to function osal_mem_alloc
   \   000017   7A12         MOV     R2,#0x12
   \   000019   7B00         MOV     R3,#0x0
   \   00001B   12....       LCALL   ??osal_mem_alloc?relay
   \   00001E   8A..         MOV     ?V0 + 4,R2
   \   000020   8B..         MOV     ?V0 + 5,R3
    471            if ( buf != NULL )
   \   000022   EA           MOV     A,R2
   \   000023   45..         ORL     A,?V0 + 5
   \   000025   6058         JZ      ??zclLL_Send_NwkUpdateReq_0
    472            {
    473              pBuf = buf;
    474          
    475              pBuf = zcl_buffer_uint32( pBuf, pReq->transID );
   \   000027                ; Setup parameters for call to function osal_buffer_uint32
   \   000027   8E82         MOV     DPL,R6
   \   000029   8F83         MOV     DPH,R7
   \   00002B   12....       LCALL   ?PUSH_XSTACK8_X_FOUR
   \   00002E   12....       LCALL   ??osal_buffer_uint32?relay
   \   000031   7404         MOV     A,#0x4
   \   000033   12....       LCALL   ?DEALLOC_XSTACK8
    476              pBuf = zcl_cpyExtAddr( pBuf, pReq->extendedPANID );
   \   000036                ; Setup parameters for call to function sAddrExtCpy
   \   000036   12....       LCALL   ?Subroutine73 & 0xFFFF
   \                     ??CrossCallReturnLabel_115:
   \   000039   12....       LCALL   ??sAddrExtCpy?relay
    477          
    478              *pBuf++ = pReq->nwkUpdateId;
   \   00003C   EE           MOV     A,R6
   \   00003D   240C         ADD     A,#0xc
   \   00003F   12....       LCALL   ?Subroutine27 & 0xFFFF
    479              *pBuf++ = pReq->logicalChannel;
   \                     ??CrossCallReturnLabel_31:
   \   000042   12....       LCALL   ?Subroutine36 & 0xFFFF
    480          
    481              *pBuf++ = LO_UINT16( pReq->PANID );
   \                     ??CrossCallReturnLabel_50:
   \   000045   12....       LCALL   ?Subroutine17 & 0xFFFF
    482              *pBuf++ = HI_UINT16( pReq->PANID );
    483          
    484              *pBuf++ = LO_UINT16( pReq->nwkAddr );
   \                     ??CrossCallReturnLabel_13:
   \   000048   2410         ADD     A,#0x10
   \   00004A   F8           MOV     R0,A
   \   00004B   EF           MOV     A,R7
   \   00004C   12....       LCALL   ?Subroutine25 & 0xFFFF
    485              *pBuf++ = HI_UINT16( pReq->nwkAddr );
    486          
    487              status = zclLL_SendInterPANCommand( srcEP, dstAddr, COMMAND_ZLL_NWK_UPDATE_REQ,
    488                                                  ZCL_FRAME_CLIENT_SERVER_DIR, seqNum, ZLL_CMDLEN_NWK_UPDATE_REQ, buf );
   \                     ??CrossCallReturnLabel_26:
   \   00004F   12....       LCALL   ?PUSH_XSTACK_I_TWO
   \   000052   75..12       MOV     ?V0 + 6,#0x12
   \   000055   75..00       MOV     ?V0 + 7,#0x0
   \   000058   78..         MOV     R0,#?V0 + 6
   \   00005A   12....       LCALL   ?PUSH_XSTACK_I_TWO
   \   00005D   78..         MOV     R0,#?V0 + 3
   \   00005F   12....       LCALL   ?PUSH_XSTACK_I_ONE
   \   000062   7D00         MOV     R5,#0x0
   \   000064   7C16         MOV     R4,#0x16
   \   000066   AA..         MOV     R2,?V0 + 0
   \   000068   AB..         MOV     R3,?V0 + 1
   \   00006A   A9..         MOV     R1,?V0 + 2
   \   00006C   12....       LCALL   ??zclLL_SendInterPANCommand?relay
   \   00006F   7405         MOV     A,#0x5
   \   000071   12....       LCALL   ?DEALLOC_XSTACK8
   \   000074   E9           MOV     A,R1
   \   000075   FE           MOV     R6,A
    489              zcl_mem_free( buf );
   \   000076                ; Setup parameters for call to function osal_mem_free
   \   000076   AA..         MOV     R2,?V0 + 4
   \   000078   AB..         MOV     R3,?V0 + 5
   \   00007A   12....       LCALL   ??osal_mem_free?relay
   \   00007D   8002         SJMP    ??zclLL_Send_NwkUpdateReq_1
    490            }
    491            else
    492            {
    493              status = ZMemError;
   \                     ??zclLL_Send_NwkUpdateReq_0:
   \   00007F   7E10         MOV     R6,#0x10
    494            }
    495          
    496            return ( status );
   \                     ??zclLL_Send_NwkUpdateReq_1:
   \   000081                REQUIRE ?Subroutine2
   \   000081                ; // Fall through to label ?Subroutine2
    497          }

   \                                 In  segment BANKED_CODE, align 1, keep-with-next
   \                     ?Subroutine2:
   \   000000   EE           MOV     A,R6
   \   000001   F9           MOV     R1,A
   \   000002                REQUIRE ??Subroutine130_0
   \   000002                ; // Fall through to label ??Subroutine130_0

   \                                 In  segment BANKED_CODE, align 1, keep-with-next
   \                     ??Subroutine130_0:
   \   000000   7F08         MOV     R7,#0x8
   \   000002   02....       LJMP    ?BANKED_LEAVE_XDATA

   \                                 In  segment BANKED_CODE, align 1, keep-with-next
   \                     ?Subroutine17:
   \   000000   12....       LCALL   ?Subroutine83 & 0xFFFF
   \                     ??CrossCallReturnLabel_135:
   \   000003   22           RET

   \                                 In  segment BANKED_CODE, align 1, keep-with-next
   \                     ?Subroutine95:
   \   000000   F582         MOV     DPL,A
   \   000002   EF           MOV     A,R7
   \   000003   3400         ADDC    A,#0x0
   \   000005   F583         MOV     DPH,A
   \   000007   12....       LCALL   ?Subroutine113 & 0xFFFF
   \                     ??CrossCallReturnLabel_205:
   \   00000A   EE           MOV     A,R6
   \   00000B   22           RET

   \                                 In  segment BANKED_CODE, align 1, keep-with-next
   \                     ?Subroutine36:
   \   000000   240D         ADD     A,#0xd
   \   000002   12....       LCALL   ?Subroutine95 & 0xFFFF
   \                     ??CrossCallReturnLabel_152:
   \   000005   240E         ADD     A,#0xe
   \   000007   22           RET

   \                                 In  segment BANKED_CODE, align 1, keep-with-next
   \                     ?Subroutine25:
   \   000000   12....       LCALL   ?Subroutine86 & 0xFFFF
   \                     ??CrossCallReturnLabel_138:
   \   000003                ; Setup parameters for call to function zclLL_SendInterPANCommand
   \   000003                ; Setup parameters for call to function zclLL_SendInterPANCommand
   \   000003   78..         MOV     R0,#?V0 + 4
   \   000005   22           RET

   \                                 In  segment BANKED_CODE, align 1, keep-with-next
   \                     ?Subroutine113:
   \   000000   12....       LCALL   ?Subroutine122 & 0xFFFF
   \                     ??CrossCallReturnLabel_208:
   \   000003   22           RET
    498          
    499          /*********************************************************************
    500           * @fn      zclLL_Send_ScanRsp
    501           *
    502           * @brief   Call to send out an Scan Response command
    503           *
    504           * @param   srcEP - sending application's endpoint
    505           * @param   dstAddr - where you want the message to go
    506           * @param   pRsp - response parameters
    507           * @param   seqNum - sequence number
    508           *
    509           * @return  ZStatus_t
    510           */

   \                                 In  segment BANKED_CODE, align 1, keep-with-next
    511          ZStatus_t zclLL_Send_ScanRsp( uint8 srcEP, afAddrType_t *dstAddr,
   \                     zclLL_Send_ScanRsp:
    512                                        zclLLScanRsp_t *pRsp, uint8 seqNum )
    513          {
   \   000000   74EC         MOV     A,#-0x14
   \   000002   12....       LCALL   ?BANKED_ENTER_XDATA
   \   000005                ; Saved register size: 20
   \   000005                ; Auto size: 0
   \   000005   89..         MOV     ?V0 + 9,R1
   \   000007   8A..         MOV     ?V0 + 6,R2
   \   000009   8B..         MOV     ?V0 + 7,R3
   \   00000B   EC           MOV     A,R4
   \   00000C   FE           MOV     R6,A
   \   00000D   ED           MOV     A,R5
   \   00000E   FF           MOV     R7,A
   \   00000F   7414         MOV     A,#0x14
   \   000011   12....       LCALL   ?XSTACK_DISP0_8
   \   000014   E0           MOVX    A,@DPTR
   \   000015   F5..         MOV     ?V0 + 8,A
    514            uint8 *buf;
    515            uint8 bufLen = ZLL_CMDLEN_SCAN_RSP;
   \   000017   791D         MOV     R1,#0x1d
    516            ZStatus_t status;
    517          
    518            // Calculate the total length needed
    519            if ( pRsp->numSubDevices == 1 )
   \   000019   EE           MOV     A,R6
   \   00001A   241D         ADD     A,#0x1d
   \   00001C   F5..         MOV     ?V0 + 0,A
   \   00001E   EF           MOV     A,R7
   \   00001F   12....       LCALL   ??Subroutine140_0 & 0xFFFF
   \                     ??CrossCallReturnLabel_227:
   \   000022   F583         MOV     DPH,A
   \   000024   E0           MOVX    A,@DPTR
   \   000025   6401         XRL     A,#0x1
   \   000027   7002         JNZ     ??zclLL_Send_ScanRsp_0
    520            {
    521              bufLen += ZLL_CMDLENOPTIONAL_SCAN_RSP;
   \   000029   7924         MOV     R1,#0x24
    522            }
    523          
    524            buf = zcl_mem_alloc( bufLen );
   \                     ??zclLL_Send_ScanRsp_0:
   \   00002B   8982         MOV     DPL,R1
   \   00002D   8582..       MOV     ?V0 + 2,DPL
   \   000030   75..00       MOV     ?V0 + 3,#0x0
   \   000033                ; Setup parameters for call to function osal_mem_alloc
   \   000033   AA..         MOV     R2,?V0 + 2
   \   000035   AB..         MOV     R3,?V0 + 3
   \   000037   12....       LCALL   ??osal_mem_alloc?relay
   \   00003A   8A..         MOV     ?V0 + 4,R2
   \   00003C   8B..         MOV     ?V0 + 5,R3
    525            if ( buf != NULL )
   \   00003E   EA           MOV     A,R2
   \   00003F   45..         ORL     A,?V0 + 5
   \   000041   7003         JNZ     $+5
   \   000043   02....       LJMP    ??zclLL_Send_ScanRsp_1 & 0xFFFF
    526            {
    527              uint8 *pBuf = buf;
    528          
    529              pBuf = zcl_buffer_uint32( pBuf, pRsp->transID );
   \   000046                ; Setup parameters for call to function osal_buffer_uint32
   \   000046   8E82         MOV     DPL,R6
   \   000048   8F83         MOV     DPH,R7
   \   00004A   12....       LCALL   ?PUSH_XSTACK8_X_FOUR
   \   00004D   12....       LCALL   ??osal_buffer_uint32?relay
   \   000050   7404         MOV     A,#0x4
   \   000052   12....       LCALL   ?DEALLOC_XSTACK8
    530          
    531              *pBuf++ = pRsp->rssiCorrection;
   \   000055   8E82         MOV     DPL,R6
   \   000057   8F83         MOV     DPH,R7
   \   000059   A3           INC     DPTR
   \   00005A   A3           INC     DPTR
   \   00005B   A3           INC     DPTR
   \   00005C   A3           INC     DPTR
   \   00005D   12....       LCALL   ?Subroutine29 & 0xFFFF
    532              *pBuf++ = pRsp->zInfo.zInfoByte;
   \                     ??CrossCallReturnLabel_35:
   \   000060   12....       LCALL   ??Subroutine131_0 & 0xFFFF
    533              *pBuf++ = pRsp->zllInfo.zllInfoByte;
   \                     ??CrossCallReturnLabel_198:
   \   000063   8E82         MOV     DPL,R6
   \   000065   8F83         MOV     DPH,R7
   \   000067   A3           INC     DPTR
   \   000068   A3           INC     DPTR
   \   000069   A3           INC     DPTR
   \   00006A   A3           INC     DPTR
   \   00006B   A3           INC     DPTR
   \   00006C   A3           INC     DPTR
   \   00006D   A3           INC     DPTR
   \   00006E   12....       LCALL   ?Subroutine52 & 0xFFFF
   \                     ??CrossCallReturnLabel_76:
   \   000071   12....       LCALL   ?Subroutine16 & 0xFFFF
    534          
    535              *pBuf++ = LO_UINT16( pRsp->keyBitmask );
    536              *pBuf++ = HI_UINT16( pRsp->keyBitmask );
    537          
    538              pBuf = zcl_buffer_uint32( pBuf, pRsp->responseID );
   \                     ??CrossCallReturnLabel_11:
   \   000074   F582         MOV     DPL,A
   \   000076   EF           MOV     A,R7
   \   000077   12....       LCALL   ??Subroutine148_0 & 0xFFFF
   \                     ??CrossCallReturnLabel_269:
   \   00007A   12....       LCALL   ?PUSH_XSTACK8_X_FOUR
   \   00007D   12....       LCALL   ??osal_buffer_uint32?relay
   \   000080   7404         MOV     A,#0x4
   \   000082   12....       LCALL   ?DEALLOC_XSTACK8
    539              pBuf = zcl_cpyExtAddr( pBuf, pRsp->extendedPANID );
   \   000085                ; Setup parameters for call to function sAddrExtCpy
   \   000085   EE           MOV     A,R6
   \   000086   240F         ADD     A,#0xf
   \   000088   FC           MOV     R4,A
   \   000089   EF           MOV     A,R7
   \   00008A   3400         ADDC    A,#0x0
   \   00008C   FD           MOV     R5,A
   \   00008D   12....       LCALL   ??sAddrExtCpy?relay
    540          
    541              *pBuf++ = pRsp->nwkUpdateId;
   \   000090   EE           MOV     A,R6
   \   000091   2417         ADD     A,#0x17
   \   000093   12....       LCALL   ?Subroutine27 & 0xFFFF
    542              *pBuf++ = pRsp->logicalChannel;
   \                     ??CrossCallReturnLabel_32:
   \   000096   2418         ADD     A,#0x18
   \   000098   12....       LCALL   ?Subroutine37 & 0xFFFF
    543          
    544              *pBuf++ = LO_UINT16( pRsp->PANID );
   \                     ??CrossCallReturnLabel_52:
   \   00009B   2419         ADD     A,#0x19
   \   00009D   12....       LCALL   ?Subroutine17 & 0xFFFF
    545              *pBuf++ = HI_UINT16( pRsp->PANID );
    546          
    547              *pBuf++ = LO_UINT16( pRsp->nwkAddr );
   \                     ??CrossCallReturnLabel_14:
   \   0000A0   241B         ADD     A,#0x1b
   \   0000A2   12....       LCALL   ?Subroutine105 & 0xFFFF
   \                     ??CrossCallReturnLabel_189:
   \   0000A5   12....       LCALL   ??Subroutine134_0 & 0xFFFF
    548              *pBuf++ = HI_UINT16( pRsp->nwkAddr );
   \                     ??CrossCallReturnLabel_190:
   \   0000A8   8882         MOV     DPL,R0
   \   0000AA   8983         MOV     DPH,R1
   \   0000AC   A3           INC     DPTR
   \   0000AD   12....       LCALL   ?Subroutine28 & 0xFFFF
    549          
    550              *pBuf++ = pRsp->numSubDevices;
   \                     ??CrossCallReturnLabel_33:
   \   0000B0   8A82         MOV     DPL,R2
   \   0000B2   8B83         MOV     DPH,R3
   \   0000B4   F0           MOVX    @DPTR,A
   \   0000B5   A3           INC     DPTR
   \   0000B6   0A           INC     R2
   \   0000B7   AB83         MOV     R3,DPH
    551              *pBuf++ = pRsp->totalGrpIDs;
   \   0000B9   EE           MOV     A,R6
   \   0000BA   241E         ADD     A,#0x1e
   \   0000BC   F582         MOV     DPL,A
   \   0000BE   EF           MOV     A,R7
   \   0000BF   12....       LCALL   ??Subroutine148_0 & 0xFFFF
   \                     ??CrossCallReturnLabel_270:
   \   0000C2   12....       LCALL   ?Subroutine28 & 0xFFFF
    552          
    553              if ( pRsp->numSubDevices == 1 )
   \                     ??CrossCallReturnLabel_34:
   \   0000C5   6401         XRL     A,#0x1
   \   0000C7   7020         JNZ     ??CrossCallReturnLabel_78
    554              {
    555                *pBuf++ = pRsp->deviceInfo.endpoint;
   \   0000C9   EE           MOV     A,R6
   \   0000CA   241F         ADD     A,#0x1f
   \   0000CC   12....       LCALL   ?Subroutine37 & 0xFFFF
    556          
    557                *pBuf++ = LO_UINT16( pRsp->deviceInfo.profileID );
    558                *pBuf++ = HI_UINT16( pRsp->deviceInfo.profileID );
    559          
    560                *pBuf++ = LO_UINT16( pRsp->deviceInfo.deviceID );
    561                *pBuf++ = HI_UINT16( pRsp->deviceInfo.deviceID );
    562          
    563                *pBuf++ = pRsp->deviceInfo.version;
    564                *pBuf++ = pRsp->deviceInfo.grpIdCnt;
    565              }
   \                     ??CrossCallReturnLabel_53:
   \   0000CF   2420         ADD     A,#0x20
   \   0000D1   12....       LCALL   ?Subroutine17 & 0xFFFF
   \                     ??CrossCallReturnLabel_15:
   \   0000D4   2422         ADD     A,#0x22
   \   0000D6   12....       LCALL   ?Subroutine17 & 0xFFFF
   \                     ??CrossCallReturnLabel_16:
   \   0000D9   2424         ADD     A,#0x24
   \   0000DB   12....       LCALL   ?Subroutine37 & 0xFFFF
   \                     ??CrossCallReturnLabel_54:
   \   0000DE   2425         ADD     A,#0x25
   \   0000E0   F582         MOV     DPL,A
   \   0000E2   EF           MOV     A,R7
   \   0000E3   12....       LCALL   ??Subroutine148_0 & 0xFFFF
   \                     ??CrossCallReturnLabel_271:
   \   0000E6   12....       LCALL   ?Subroutine53 & 0xFFFF
    566          
    567              status = zclLL_SendInterPANCommand( srcEP, dstAddr, COMMAND_ZLL_SCAN_RSP,
    568                                                  ZCL_FRAME_SERVER_CLIENT_DIR, seqNum, bufLen, buf );
   \                     ??CrossCallReturnLabel_78:
   \   0000E9                ; Setup parameters for call to function zclLL_SendInterPANCommand
   \   0000E9   78..         MOV     R0,#?V0 + 4
   \   0000EB   12....       LCALL   ?PUSH_XSTACK_I_TWO
   \   0000EE   78..         MOV     R0,#?V0 + 2
   \   0000F0   12....       LCALL   ?PUSH_XSTACK_I_TWO
   \   0000F3   E5..         MOV     A,?V0 + 8
   \   0000F5   F5..         MOV     ?V0 + 0,A
   \   0000F7   78..         MOV     R0,#?V0 + 0
   \   0000F9   12....       LCALL   ?PUSH_XSTACK_I_ONE
   \   0000FC   7D01         MOV     R5,#0x1
   \   0000FE   7C01         MOV     R4,#0x1
   \   000100   AA..         MOV     R2,?V0 + 6
   \   000102   AB..         MOV     R3,?V0 + 7
   \   000104   A9..         MOV     R1,?V0 + 9
   \   000106   12....       LCALL   ??zclLL_SendInterPANCommand?relay
   \   000109   7405         MOV     A,#0x5
   \   00010B   12....       LCALL   ?DEALLOC_XSTACK8
   \   00010E   E9           MOV     A,R1
   \   00010F   FE           MOV     R6,A
    569              zcl_mem_free( buf );
   \   000110                ; Setup parameters for call to function osal_mem_free
   \   000110   AA..         MOV     R2,?V0 + 4
   \   000112   AB..         MOV     R3,?V0 + 5
   \   000114   12....       LCALL   ??osal_mem_free?relay
   \   000117   8002         SJMP    ??zclLL_Send_ScanRsp_2
    570            }
    571            else
    572            {
    573              status = ZMemError;
   \                     ??zclLL_Send_ScanRsp_1:
   \   000119   7E10         MOV     R6,#0x10
    574            }
    575          
    576            return ( status );
   \                     ??zclLL_Send_ScanRsp_2:
   \   00011B   EE           MOV     A,R6
   \   00011C   F9           MOV     R1,A
   \   00011D                REQUIRE ?Subroutine3
   \   00011D                ; // Fall through to label ?Subroutine3
    577          }

   \                                 In  segment BANKED_CODE, align 1, keep-with-next
   \                     ?Subroutine3:
   \   000000   7F0C         MOV     R7,#0xc
   \   000002   02....       LJMP    ?BANKED_LEAVE_XDATA

   \                                 In  segment BANKED_CODE, align 1, keep-with-next
   \                     ?Subroutine28:
   \   000000   12....       LCALL   ?Subroutine96 & 0xFFFF
   \                     ??CrossCallReturnLabel_203:
   \   000003   85..82       MOV     DPL,?V0 + 0
   \   000006   85..83       MOV     DPH,?V0 + 1
   \   000009   E0           MOVX    A,@DPTR
   \   00000A   22           RET

   \                                 In  segment BANKED_CODE, align 1, keep-with-next
   \                     ?Subroutine37:
   \   000000   12....       LCALL   ?Subroutine95 & 0xFFFF
   \                     ??CrossCallReturnLabel_151:
   \   000003   22           RET

   \                                 In  segment BANKED_CODE, align 1, keep-with-next
   \                     ?Subroutine16:
   \   000000   AB83         MOV     R3,DPH
   \   000002   EE           MOV     A,R6
   \   000003   2409         ADD     A,#0x9
   \   000005   12....       LCALL   ?Subroutine83 & 0xFFFF
   \                     ??CrossCallReturnLabel_136:
   \   000008   240B         ADD     A,#0xb
   \   00000A   22           RET

   \                                 In  segment BANKED_CODE, align 1, keep-with-next
   \                     ??Subroutine131_0:
   \   000000   A3           INC     DPTR
   \   000001   A3           INC     DPTR
   \   000002                REQUIRE ??Subroutine132_0
   \   000002                ; // Fall through to label ??Subroutine132_0

   \                                 In  segment BANKED_CODE, align 1, keep-with-next
   \                     ??Subroutine132_0:
   \   000000   A3           INC     DPTR
   \   000001                REQUIRE ??Subroutine133_0
   \   000001                ; // Fall through to label ??Subroutine133_0

   \                                 In  segment BANKED_CODE, align 1, keep-with-next
   \                     ??Subroutine133_0:
   \   000000   A3           INC     DPTR
   \   000001                REQUIRE ??Subroutine134_0
   \   000001                ; // Fall through to label ??Subroutine134_0

   \                                 In  segment BANKED_CODE, align 1, keep-with-next
   \                     ??Subroutine134_0:
   \   000000   12....       LCALL   ?Subroutine96 & 0xFFFF
   \                     ??CrossCallReturnLabel_204:
   \   000003   22           RET

   \                                 In  segment BANKED_CODE, align 1, keep-with-next
   \                     ?Subroutine29:
   \   000000   12....       LCALL   ?Subroutine91 & 0xFFFF
   \                     ??CrossCallReturnLabel_146:
   \   000003   8E82         MOV     DPL,R6
   \   000005   8F83         MOV     DPH,R7
   \   000007   A3           INC     DPTR
   \   000008   22           RET

   \                                 In  segment BANKED_CODE, align 1, keep-with-next
   \                     ?Subroutine96:
   \   000000   12....       LCALL   ?Subroutine113 & 0xFFFF
   \                     ??CrossCallReturnLabel_206:
   \   000003   22           RET

   \                                 In  segment BANKED_CODE, align 1, keep-with-next
   \                     ??Subroutine140_0:
   \   000000   3400         ADDC    A,#0x0
   \   000002   F5..         MOV     ?V0 + 1,A
   \   000004   85..82       MOV     DPL,?V0 + 0
   \   000007   22           RET
    578          
    579          /*********************************************************************
    580           * @fn      zclLL_Send_DeviceInfoRsp
    581           *
    582           * @brief   Call to send out a Device Information Response command
    583           *
    584           * @param   srcEP - sending application's endpoint
    585           * @param   dstAddr - where you want the message to go
    586           * @param   pRsp - response parameters
    587           * @param   seqNum - sequence number
    588           *
    589           * @return  ZStatus_t
    590           */

   \                                 In  segment BANKED_CODE, align 1, keep-with-next
    591          ZStatus_t zclLL_Send_DeviceInfoRsp( uint8 srcEP, afAddrType_t *dstAddr,
   \                     zclLL_Send_DeviceInfoRsp:
    592                                              zclLLDeviceInfoRsp_t *pRsp, uint8 seqNum )
    593          {
   \   000000   74E8         MOV     A,#-0x18
   \   000002   12....       LCALL   ?BANKED_ENTER_XDATA
   \   000005                ; Saved register size: 24
   \   000005                ; Auto size: 0
   \   000005   89..         MOV     ?V0 + 12,R1
   \   000007   8A..         MOV     ?V0 + 14,R2
   \   000009   8B..         MOV     ?V0 + 15,R3
   \   00000B   8C..         MOV     ?V0 + 0,R4
   \   00000D   8D..         MOV     ?V0 + 1,R5
   \   00000F   7418         MOV     A,#0x18
   \   000011   12....       LCALL   ?XSTACK_DISP0_8
   \   000014   E0           MOVX    A,@DPTR
   \   000015   F5..         MOV     ?V0 + 5,A
    594            uint8 *buf;
    595            uint8 bufLen = ZLL_CMDLEN_DEVICE_INFO_RSP;
    596            ZStatus_t status;
    597          
    598            // Calculate the total length needed
    599            bufLen += ( pRsp->cnt * ZLL_CMDLENOPTIONAL_DEVICE_INFO_RSP );
   \   000017   EC           MOV     A,R4
   \   000018   2406         ADD     A,#0x6
   \   00001A   F5..         MOV     ?V0 + 6,A
   \   00001C   ED           MOV     A,R5
   \   00001D   3400         ADDC    A,#0x0
   \   00001F   F5..         MOV     ?V0 + 7,A
   \   000021   85..82       MOV     DPL,?V0 + 6
   \   000024   F583         MOV     DPH,A
   \   000026   E0           MOVX    A,@DPTR
   \   000027   C4           SWAP    A
   \   000028   54F0         ANL     A,#0xf0
   \   00002A   2407         ADD     A,#0x7
   \   00002C   F8           MOV     R0,A
    600          
    601            buf = zcl_mem_alloc( bufLen );
   \   00002D   8882         MOV     DPL,R0
   \   00002F   8582..       MOV     ?V0 + 2,DPL
   \   000032   75..00       MOV     ?V0 + 3,#0x0
   \   000035                ; Setup parameters for call to function osal_mem_alloc
   \   000035   FA           MOV     R2,A
   \   000036   AB..         MOV     R3,?V0 + 3
   \   000038   12....       LCALL   ??osal_mem_alloc?relay
   \   00003B   8A..         MOV     ?V0 + 8,R2
   \   00003D   8B..         MOV     ?V0 + 9,R3
    602            if ( buf != NULL )
   \   00003F   EA           MOV     A,R2
   \   000040   45..         ORL     A,?V0 + 9
   \   000042   7003         JNZ     $+5
   \   000044   02....       LJMP    ??zclLL_Send_DeviceInfoRsp_0 & 0xFFFF
    603            {
    604              uint8 *pBuf = buf;
    605              uint8 i;
    606          
    607              pBuf = zcl_buffer_uint32( pBuf, pRsp->transID );
   \   000047                ; Setup parameters for call to function osal_buffer_uint32
   \   000047   85..82       MOV     DPL,?V0 + 0
   \   00004A   85..83       MOV     DPH,?V0 + 1
   \   00004D   12....       LCALL   ?PUSH_XSTACK8_X_FOUR
   \   000050   12....       LCALL   ??osal_buffer_uint32?relay
   \   000053   7404         MOV     A,#0x4
   \   000055   12....       LCALL   ?DEALLOC_XSTACK8
    608          
    609              *pBuf++ = pRsp->numSubDevices;
   \   000058   85..82       MOV     DPL,?V0 + 0
   \   00005B   85..83       MOV     DPH,?V0 + 1
   \   00005E   A3           INC     DPTR
   \   00005F   A3           INC     DPTR
   \   000060   A3           INC     DPTR
   \   000061   A3           INC     DPTR
   \   000062   12....       LCALL   ?Subroutine35 & 0xFFFF
    610              *pBuf++ = pRsp->startIndex;
   \                     ??CrossCallReturnLabel_48:
   \   000065   85..82       MOV     DPL,?V0 + 0
   \   000068   85..83       MOV     DPH,?V0 + 1
   \   00006B   12....       LCALL   ?Subroutine38 & 0xFFFF
    611              *pBuf++ = pRsp->cnt;
   \                     ??CrossCallReturnLabel_199:
   \   00006E   85..82       MOV     DPL,?V0 + 6
   \   000071   85..83       MOV     DPH,?V0 + 7
   \   000074   12....       LCALL   ??Subroutine134_0 & 0xFFFF
    612          
    613              // Device information record
    614              for ( i = 0; i < pRsp->cnt; i++ )
   \                     ??CrossCallReturnLabel_191:
   \   000077   75..00       MOV     ?V0 + 4,#0x0
   \   00007A   8052         SJMP    ??zclLL_Send_DeviceInfoRsp_1
    615              {
    616                devInfoRec_t *pRec = &(pRsp->devInfoRec[i]);
   \                     ??zclLL_Send_DeviceInfoRsp_2:
   \   00007C   85....       MOV     ?V0 + 10,?V0 + 4
   \   00007F   75..00       MOV     ?V0 + 11,#0x0
   \   000082   7404         MOV     A,#0x4
   \   000084   78..         MOV     R0,#?V0 + 10
   \   000086   12....       LCALL   ?S_SHL
   \   000089   85..82       MOV     DPL,?V0 + 0
   \   00008C   85..83       MOV     DPH,?V0 + 1
   \   00008F   A3           INC     DPTR
   \   000090   A3           INC     DPTR
   \   000091   A3           INC     DPTR
   \   000092   A3           INC     DPTR
   \   000093   A3           INC     DPTR
   \   000094   A3           INC     DPTR
   \   000095   A3           INC     DPTR
   \   000096   E0           MOVX    A,@DPTR
   \   000097   25..         ADD     A,?V0 + 10
   \   000099   FE           MOV     R6,A
   \   00009A   A3           INC     DPTR
   \   00009B   E0           MOVX    A,@DPTR
   \   00009C   35..         ADDC    A,?V0 + 11
   \   00009E   FF           MOV     R7,A
    617          
    618                pBuf = zcl_cpyExtAddr( pBuf, pRec->ieeeAddr );
   \   00009F                ; Setup parameters for call to function sAddrExtCpy
   \   00009F   EE           MOV     A,R6
   \   0000A0   FC           MOV     R4,A
   \   0000A1   EF           MOV     A,R7
   \   0000A2   FD           MOV     R5,A
   \   0000A3   12....       LCALL   ??sAddrExtCpy?relay
    619          
    620                *pBuf++ = pRec->deviceInfo.endpoint;
   \   0000A6   8E82         MOV     DPL,R6
   \   0000A8   8F83         MOV     DPH,R7
   \   0000AA   A3           INC     DPTR
   \   0000AB   A3           INC     DPTR
   \   0000AC   A3           INC     DPTR
   \   0000AD   A3           INC     DPTR
   \   0000AE   A3           INC     DPTR
   \   0000AF   A3           INC     DPTR
   \   0000B0   A3           INC     DPTR
   \   0000B1   A3           INC     DPTR
   \   0000B2   12....       LCALL   ?Subroutine47 & 0xFFFF
    621          
    622                *pBuf++ = LO_UINT16( pRec->deviceInfo.profileID );
    623                *pBuf++ = HI_UINT16( pRec->deviceInfo.profileID );
    624          
    625                *pBuf++ = LO_UINT16( pRec->deviceInfo.deviceID );
    626                *pBuf++ = HI_UINT16( pRec->deviceInfo.deviceID );
    627          
    628                *pBuf++ = pRec->deviceInfo.version;
    629                *pBuf++ = pRec->deviceInfo.grpIdCnt;
    630          
    631                *pBuf++ = pRec->sort;
    632              }
   \                     ??CrossCallReturnLabel_68:
   \   0000B5   12....       LCALL   ?Subroutine16 & 0xFFFF
   \                     ??CrossCallReturnLabel_12:
   \   0000B8   12....       LCALL   ?Subroutine17 & 0xFFFF
   \                     ??CrossCallReturnLabel_17:
   \   0000BB   12....       LCALL   ?Subroutine36 & 0xFFFF
   \                     ??CrossCallReturnLabel_51:
   \   0000BE   12....       LCALL   ?Subroutine37 & 0xFFFF
   \                     ??CrossCallReturnLabel_55:
   \   0000C1   240F         ADD     A,#0xf
   \   0000C3   F582         MOV     DPL,A
   \   0000C5   EF           MOV     A,R7
   \   0000C6   12....       LCALL   ??Subroutine148_0 & 0xFFFF
   \                     ??CrossCallReturnLabel_272:
   \   0000C9   12....       LCALL   ??Subroutine134_0 & 0xFFFF
   \                     ??CrossCallReturnLabel_192:
   \   0000CC   05..         INC     ?V0 + 4
   \                     ??zclLL_Send_DeviceInfoRsp_1:
   \   0000CE   85..82       MOV     DPL,?V0 + 6
   \   0000D1   85..83       MOV     DPH,?V0 + 7
   \   0000D4   E0           MOVX    A,@DPTR
   \   0000D5   F8           MOV     R0,A
   \   0000D6   E5..         MOV     A,?V0 + 4
   \   0000D8   C3           CLR     C
   \   0000D9   98           SUBB    A,R0
   \   0000DA   40A0         JC      ??zclLL_Send_DeviceInfoRsp_2
    633          
    634              status = zclLL_SendInterPANCommand( srcEP, dstAddr, COMMAND_ZLL_DEVICE_INFO_RSP,
    635                                                  ZCL_FRAME_SERVER_CLIENT_DIR, seqNum, bufLen, buf );
   \   0000DC                ; Setup parameters for call to function zclLL_SendInterPANCommand
   \   0000DC   78..         MOV     R0,#?V0 + 8
   \   0000DE   12....       LCALL   ?PUSH_XSTACK_I_TWO
   \   0000E1   78..         MOV     R0,#?V0 + 2
   \   0000E3   12....       LCALL   ?PUSH_XSTACK_I_TWO
   \   0000E6   E5..         MOV     A,?V0 + 5
   \   0000E8   F5..         MOV     ?V0 + 0,A
   \   0000EA   78..         MOV     R0,#?V0 + 0
   \   0000EC   12....       LCALL   ?PUSH_XSTACK_I_ONE
   \   0000EF   7D01         MOV     R5,#0x1
   \   0000F1   7C03         MOV     R4,#0x3
   \   0000F3   AA..         MOV     R2,?V0 + 14
   \   0000F5   AB..         MOV     R3,?V0 + 15
   \   0000F7   A9..         MOV     R1,?V0 + 12
   \   0000F9   12....       LCALL   ??zclLL_SendInterPANCommand?relay
   \   0000FC   7405         MOV     A,#0x5
   \   0000FE   12....       LCALL   ?DEALLOC_XSTACK8
   \   000101   E9           MOV     A,R1
   \   000102   FE           MOV     R6,A
    636              zcl_mem_free( buf );
   \   000103                ; Setup parameters for call to function osal_mem_free
   \   000103   AA..         MOV     R2,?V0 + 8
   \   000105   AB..         MOV     R3,?V0 + 9
   \   000107   12....       LCALL   ??osal_mem_free?relay
   \   00010A   8002         SJMP    ??zclLL_Send_DeviceInfoRsp_3
    637            }
    638            else
    639            {
    640              status = ZMemError;
   \                     ??zclLL_Send_DeviceInfoRsp_0:
   \   00010C   7E10         MOV     R6,#0x10
    641            }
    642          
    643            return ( status );
   \                     ??zclLL_Send_DeviceInfoRsp_3:
   \   00010E                REQUIRE ?Subroutine4
   \   00010E                ; // Fall through to label ?Subroutine4
    644          }

   \                                 In  segment BANKED_CODE, align 1, keep-with-next
   \                     ?Subroutine4:
   \   000000   EE           MOV     A,R6
   \   000001   F9           MOV     R1,A
   \   000002   7F10         MOV     R7,#0x10
   \   000004   02....       LJMP    ?BANKED_LEAVE_XDATA

   \                                 In  segment BANKED_CODE, align 1, keep-with-next
   \                     ?Subroutine38:
   \   000000   A3           INC     DPTR
   \   000001                REQUIRE ??Subroutine131_0
   \   000001                ; // Fall through to label ??Subroutine131_0
    645          
    646          /*********************************************************************
    647           * @fn      zclLL_Send_NwkStartRsp
    648           *
    649           * @brief   Call to send out a Network Start Response command
    650           *
    651           * @param   srcEP - sending application's endpoint
    652           * @param   dstAddr - where you want the message to go
    653           * @param   pRsp - response parameters
    654           * @param   seqNum - sequence number
    655           *
    656           * @return  ZStatus_t
    657           */

   \                                 In  segment BANKED_CODE, align 1, keep-with-next
    658          ZStatus_t zclLL_Send_NwkStartRsp( uint8 srcEP, afAddrType_t *dstAddr,
   \                     zclLL_Send_NwkStartRsp:
    659                                            zclLLNwkStartRsp_t *pRsp, uint8 seqNum )
    660          {
   \   000000   74F0         MOV     A,#-0x10
   \   000002   12....       LCALL   ?BANKED_ENTER_XDATA
   \   000005                ; Saved register size: 16
   \   000005                ; Auto size: 0
   \   000005   89..         MOV     ?V0 + 2,R1
   \   000007   EA           MOV     A,R2
   \   000008   FE           MOV     R6,A
   \   000009   EB           MOV     A,R3
   \   00000A   FF           MOV     R7,A
   \   00000B   8C..         MOV     ?V0 + 0,R4
   \   00000D   8D..         MOV     ?V0 + 1,R5
   \   00000F   7410         MOV     A,#0x10
   \   000011   12....       LCALL   ?XSTACK_DISP0_8
   \   000014   E0           MOVX    A,@DPTR
   \   000015   F5..         MOV     ?V0 + 3,A
    661            uint8 *buf;
    662            ZStatus_t status;
    663          
    664            buf = zcl_mem_alloc( ZLL_CMDLEN_NWK_START_RSP );
   \   000017                ; Setup parameters for call to function osal_mem_alloc
   \   000017   7A11         MOV     R2,#0x11
   \   000019   7B00         MOV     R3,#0x0
   \   00001B   12....       LCALL   ??osal_mem_alloc?relay
   \   00001E   8A..         MOV     ?V0 + 4,R2
   \   000020   8B..         MOV     ?V0 + 5,R3
    665            if ( buf != NULL )
   \   000022   EA           MOV     A,R2
   \   000023   45..         ORL     A,?V0 + 5
   \   000025   6079         JZ      ??zclLL_Send_NwkStartRsp_0
    666            {
    667              uint8 *pBuf = buf;
    668          
    669              pBuf = zcl_buffer_uint32( pBuf, pRsp->transID );
   \   000027                ; Setup parameters for call to function osal_buffer_uint32
   \   000027   85..82       MOV     DPL,?V0 + 0
   \   00002A   85..83       MOV     DPH,?V0 + 1
   \   00002D   12....       LCALL   ?PUSH_XSTACK8_X_FOUR
   \   000030   12....       LCALL   ??osal_buffer_uint32?relay
   \   000033   7404         MOV     A,#0x4
   \   000035   12....       LCALL   ?DEALLOC_XSTACK8
    670          
    671              *pBuf++ = pRsp->status;
   \   000038   85..82       MOV     DPL,?V0 + 0
   \   00003B   85..83       MOV     DPH,?V0 + 1
   \   00003E   A3           INC     DPTR
   \   00003F   A3           INC     DPTR
   \   000040   A3           INC     DPTR
   \   000041   A3           INC     DPTR
   \   000042   12....       LCALL   ?Subroutine34 & 0xFFFF
    672          
    673              pBuf = zcl_cpyExtAddr( pBuf, pRsp->extendedPANID );
   \                     ??CrossCallReturnLabel_45:
   \   000045   2405         ADD     A,#0x5
   \   000047   FC           MOV     R4,A
   \   000048   E5..         MOV     A,?V0 + 1
   \   00004A   3400         ADDC    A,#0x0
   \   00004C   FD           MOV     R5,A
   \   00004D   12....       LCALL   ??sAddrExtCpy?relay
    674          
    675              *pBuf++ = pRsp->nwkUpdateId;
   \   000050   E5..         MOV     A,?V0 + 0
   \   000052   240D         ADD     A,#0xd
   \   000054   12....       LCALL   ??Subroutine147_0 & 0xFFFF
   \                     ??CrossCallReturnLabel_288:
   \   000057   12....       LCALL   ?Subroutine34 & 0xFFFF
    676              *pBuf++ = pRsp->logicalChannel;
   \                     ??CrossCallReturnLabel_46:
   \   00005A   240E         ADD     A,#0xe
   \   00005C   12....       LCALL   ??Subroutine147_0 & 0xFFFF
   \                     ??CrossCallReturnLabel_289:
   \   00005F   12....       LCALL   ??Subroutine134_0 & 0xFFFF
    677          
    678              *pBuf++ = LO_UINT16( pRsp->panId );
   \                     ??CrossCallReturnLabel_193:
   \   000062   E5..         MOV     A,?V0 + 0
   \   000064   240F         ADD     A,#0xf
   \   000066   F8           MOV     R0,A
   \   000067   E5..         MOV     A,?V0 + 1
   \   000069   12....       LCALL   ?Subroutine25 & 0xFFFF
    679              *pBuf++ = HI_UINT16( pRsp->panId );
    680          
    681              status = zclLL_SendInterPANCommand( srcEP, dstAddr, COMMAND_ZLL_NWK_START_RSP,
    682                                                  ZCL_FRAME_SERVER_CLIENT_DIR, seqNum, ZLL_CMDLEN_NWK_START_RSP, buf );
   \                     ??CrossCallReturnLabel_27:
   \   00006C   12....       LCALL   ?PUSH_XSTACK_I_TWO
   \   00006F   75..11       MOV     ?V0 + 0,#0x11
   \   000072   75..00       MOV     ?V0 + 1,#0x0
   \   000075   78..         MOV     R0,#?V0 + 0
   \   000077   12....       LCALL   ?PUSH_XSTACK_I_TWO
   \   00007A   E5..         MOV     A,?V0 + 3
   \   00007C   F5..         MOV     ?V0 + 0,A
   \   00007E   78..         MOV     R0,#?V0 + 0
   \   000080   12....       LCALL   ?PUSH_XSTACK_I_ONE
   \   000083   7D01         MOV     R5,#0x1
   \   000085   7C11         MOV     R4,#0x11
   \   000087   EE           MOV     A,R6
   \   000088   FA           MOV     R2,A
   \   000089   EF           MOV     A,R7
   \   00008A   FB           MOV     R3,A
   \   00008B   A9..         MOV     R1,?V0 + 2
   \   00008D   12....       LCALL   ??zclLL_SendInterPANCommand?relay
   \   000090   7405         MOV     A,#0x5
   \   000092   12....       LCALL   ?DEALLOC_XSTACK8
   \   000095   E9           MOV     A,R1
   \   000096   FE           MOV     R6,A
    683              zcl_mem_free( buf );
   \   000097                ; Setup parameters for call to function osal_mem_free
   \   000097   AA..         MOV     R2,?V0 + 4
   \   000099   AB..         MOV     R3,?V0 + 5
   \   00009B   12....       LCALL   ??osal_mem_free?relay
   \   00009E   8002         SJMP    ??zclLL_Send_NwkStartRsp_1
    684            }
    685            else
    686            {
    687              status = ZMemError;
   \                     ??zclLL_Send_NwkStartRsp_0:
   \   0000A0   7E10         MOV     R6,#0x10
    688            }
    689          
    690            return ( status );
   \                     ??zclLL_Send_NwkStartRsp_1:
   \   0000A2   02....       LJMP    ?Subroutine2 & 0xFFFF
    691          }

   \                                 In  segment BANKED_CODE, align 1, keep-with-next
   \                     ?Subroutine34:
   \   000000   12....       LCALL   ?Subroutine91 & 0xFFFF
   \                     ??CrossCallReturnLabel_147:
   \   000003                ; Setup parameters for call to function sAddrExtCpy
   \   000003   E5..         MOV     A,?V0 + 0
   \   000005   22           RET

   \                                 In  segment BANKED_CODE, align 1, keep-with-next
   \                     ??Subroutine147_0:
   \   000000   F582         MOV     DPL,A
   \   000002   E5..         MOV     A,?V0 + 1
   \   000004                REQUIRE ??Subroutine148_0
   \   000004                ; // Fall through to label ??Subroutine148_0
    692          
    693          /*********************************************************************
    694           * @fn      zclLL_Send_NwkJoinRsp
    695           *
    696           * @brief   Call to send out a Network Join Response command
    697           *
    698           * @param   srcEP - sending application's endpoint
    699           * @param   dstAddr - where you want the message to go
    700           * @param   pRsp - response parameters
    701           * @param   cmd - COMMAND_ZLL_NWK_JOIN_RTR_RSP or COMMAND_ZLL_NWK_JOIN_ED_RSP
    702           * @param   seqNum - sequence number
    703           *
    704           * @return  ZStatus_t
    705           */

   \                                 In  segment BANKED_CODE, align 1, keep-with-next
    706          ZStatus_t zclLL_Send_NwkJoinRsp( uint8 srcEP, afAddrType_t *dstAddr,
   \                     zclLL_Send_NwkJoinRsp:
    707                                           zclLLNwkJoinRsp_t *pRsp, uint8 cmd, uint8 seqNum )
    708          {
   \   000000   74F3         MOV     A,#-0xd
   \   000002   12....       LCALL   ?BANKED_ENTER_XDATA
   \   000005                ; Saved register size: 13
   \   000005                ; Auto size: 5
   \   000005   74FB         MOV     A,#-0x5
   \   000007   12....       LCALL   ?ALLOC_XSTACK8
   \   00000A   89..         MOV     ?V0 + 2,R1
   \   00000C   EA           MOV     A,R2
   \   00000D   FE           MOV     R6,A
   \   00000E   EB           MOV     A,R3
   \   00000F   FF           MOV     R7,A
   \   000010   8C..         MOV     ?V0 + 0,R4
   \   000012   8D..         MOV     ?V0 + 1,R5
   \   000014   7412         MOV     A,#0x12
   \   000016   12....       LCALL   ?XSTACK_DISP0_8
   \   000019   E0           MOVX    A,@DPTR
   \   00001A   F5..         MOV     ?V0 + 3,A
   \   00001C   7413         MOV     A,#0x13
   \   00001E   12....       LCALL   ?XSTACK_DISP0_8
   \   000021   E0           MOVX    A,@DPTR
   \   000022   F5..         MOV     ?V0 + 4,A
    709            uint8 buf[ZLL_CMDLEN_NWK_JOIN_RSP];
    710          
    711            VOID zcl_buffer_uint32( buf, pRsp->transID );
   \   000024                ; Setup parameters for call to function osal_buffer_uint32
   \   000024   8C82         MOV     DPL,R4
   \   000026   8D83         MOV     DPH,R5
   \   000028   12....       LCALL   ?PUSH_XSTACK8_X_FOUR
   \   00002B   7404         MOV     A,#0x4
   \   00002D   12....       LCALL   ?XSTACK_DISP0_8
   \   000030   AA82         MOV     R2,DPL
   \   000032   AB83         MOV     R3,DPH
   \   000034   12....       LCALL   ??osal_buffer_uint32?relay
   \   000037   7404         MOV     A,#0x4
   \   000039   12....       LCALL   ?DEALLOC_XSTACK8
    712          
    713            buf[4] = pRsp->status;
   \   00003C   85..82       MOV     DPL,?V0 + 0
   \   00003F   85..83       MOV     DPH,?V0 + 1
   \   000042   A3           INC     DPTR
   \   000043   A3           INC     DPTR
   \   000044   A3           INC     DPTR
   \   000045   A3           INC     DPTR
   \   000046   E0           MOVX    A,@DPTR
   \   000047   C0E0         PUSH    A
   \   000049   7404         MOV     A,#0x4
   \   00004B   12....       LCALL   ?XSTACK_DISP0_8
   \   00004E   D0E0         POP     A
   \   000050   12....       LCALL   ?Subroutine54 & 0xFFFF
    714          
    715            return zclLL_SendInterPANCommand( srcEP, dstAddr, cmd, ZCL_FRAME_SERVER_CLIENT_DIR, seqNum,
    716                                              ZLL_CMDLEN_NWK_JOIN_RSP, buf );
   \                     ??CrossCallReturnLabel_83:
   \   000053   12....       LCALL   ?PUSH_XSTACK_I_TWO
   \   000056   75..05       MOV     ?V0 + 0,#0x5
   \   000059   75..00       MOV     ?V0 + 1,#0x0
   \   00005C   78..         MOV     R0,#?V0 + 0
   \   00005E   12....       LCALL   ?PUSH_XSTACK_I_TWO
   \   000061   E5..         MOV     A,?V0 + 4
   \   000063   F5..         MOV     ?V0 + 0,A
   \   000065   78..         MOV     R0,#?V0 + 0
   \   000067   12....       LCALL   ?PUSH_XSTACK_I_ONE
   \   00006A   7D01         MOV     R5,#0x1
   \   00006C   AC..         MOV     R4,?V0 + 3
   \   00006E   EE           MOV     A,R6
   \   00006F   FA           MOV     R2,A
   \   000070   EF           MOV     A,R7
   \   000071   FB           MOV     R3,A
   \   000072   A9..         MOV     R1,?V0 + 2
   \   000074   12....       LCALL   ??zclLL_SendInterPANCommand?relay
   \   000077   7405         MOV     A,#0x5
   \   000079   12....       LCALL   ?DEALLOC_XSTACK8
   \   00007C   7405         MOV     A,#0x5
   \   00007E   12....       LCALL   ?DEALLOC_XSTACK8
   \   000081   7F05         MOV     R7,#0x5
   \   000083   02....       LJMP    ?BANKED_LEAVE_XDATA
    717          }
    718          
    719          /*********************************************************************
    720           * @fn      zclLL_Send_EndpointInfo
    721           *
    722           * @brief   Call to send out an Endpoint Information command
    723           *
    724           * @param   srcEP - sending application's endpoint
    725           * @param   dstAddr - where you want the message to go
    726           * @param   pCmd - cmd parameters
    727           * @param   disableDefaultRsp - whether to disable the Default Response command
    728           * @param   seqNum - sequence number
    729           *
    730           * @return  ZStatus_t
    731           */

   \                                 In  segment BANKED_CODE, align 1, keep-with-next
    732          ZStatus_t zclLL_Send_EndpointInfo( uint8 srcEP, afAddrType_t *dstAddr,
   \                     zclLL_Send_EndpointInfo:
    733                                             zclLLEndpointInfo_t *pCmd,
    734                                             uint8 disableDefaultRsp, uint8 seqNum )
    735          {
   \   000000   74EE         MOV     A,#-0x12
   \   000002   12....       LCALL   ?BANKED_ENTER_XDATA
   \   000005                ; Saved register size: 18
   \   000005                ; Auto size: 0
   \   000005   89..         MOV     ?V0 + 6,R1
   \   000007   8A..         MOV     ?V0 + 2,R2
   \   000009   8B..         MOV     ?V0 + 3,R3
   \   00000B   EC           MOV     A,R4
   \   00000C   FE           MOV     R6,A
   \   00000D   ED           MOV     A,R5
   \   00000E   FF           MOV     R7,A
   \   00000F   7412         MOV     A,#0x12
   \   000011   12....       LCALL   ?XSTACK_DISP0_8
   \   000014   E0           MOVX    A,@DPTR
   \   000015   F5..         MOV     ?V0 + 5,A
   \   000017   7413         MOV     A,#0x13
   \   000019   12....       LCALL   ?XSTACK_DISP0_8
   \   00001C   E0           MOVX    A,@DPTR
   \   00001D   F5..         MOV     ?V0 + 4,A
    736            uint8 *buf;
    737            ZStatus_t status;
    738          
    739            buf = zcl_mem_alloc( ZLL_CMDLEN_EP_INFO );
   \   00001F                ; Setup parameters for call to function osal_mem_alloc
   \   00001F   7A10         MOV     R2,#0x10
   \   000021   7B00         MOV     R3,#0x0
   \   000023   12....       LCALL   ??osal_mem_alloc?relay
   \   000026   8A..         MOV     ?V0 + 0,R2
   \   000028   8B..         MOV     ?V0 + 1,R3
    740            if ( buf != NULL )
   \   00002A   EA           MOV     A,R2
   \   00002B   45..         ORL     A,?V0 + 1
   \   00002D   7003         JNZ     $+5
   \   00002F   02....       LJMP    ??zclLL_Send_EndpointInfo_0 & 0xFFFF
    741            {
    742              uint8 *pBuf = buf;
    743          
    744              pBuf = zcl_cpyExtAddr( pBuf, pCmd->ieeeAddr );
   \   000032                ; Setup parameters for call to function sAddrExtCpy
   \   000032   EE           MOV     A,R6
   \   000033   FC           MOV     R4,A
   \   000034   EF           MOV     A,R7
   \   000035   FD           MOV     R5,A
   \   000036   12....       LCALL   ??sAddrExtCpy?relay
   \   000039   8A..         MOV     ?V0 + 8,R2
   \   00003B   8B..         MOV     ?V0 + 9,R3
   \   00003D   A8..         MOV     R0,?V0 + 8
   \   00003F   A9..         MOV     R1,?V0 + 9
    745          
    746              *pBuf++ = LO_UINT16( pCmd->nwkAddr );
   \   000041   EE           MOV     A,R6
   \   000042   2408         ADD     A,#0x8
   \   000044   FA           MOV     R2,A
   \   000045   EF           MOV     A,R7
   \   000046   3400         ADDC    A,#0x0
   \   000048   12....       LCALL   ?Subroutine21 & 0xFFFF
    747              *pBuf++ = HI_UINT16( pCmd->nwkAddr );
    748          
    749              *pBuf++ = pCmd->endpoint;
   \                     ??CrossCallReturnLabel_22:
   \   00004B   8E82         MOV     DPL,R6
   \   00004D   8F83         MOV     DPH,R7
   \   00004F   A3           INC     DPTR
   \   000050   A3           INC     DPTR
   \   000051   A3           INC     DPTR
   \   000052   A3           INC     DPTR
   \   000053   A3           INC     DPTR
   \   000054   A3           INC     DPTR
   \   000055   A3           INC     DPTR
   \   000056   A3           INC     DPTR
   \   000057   12....       LCALL   ?Subroutine23 & 0xFFFF
    750          
    751              *pBuf++ = LO_UINT16( pCmd->profileID );
   \                     ??CrossCallReturnLabel_215:
   \   00005A   EE           MOV     A,R6
   \   00005B   240B         ADD     A,#0xb
   \   00005D   12....       LCALL   ?Subroutine22 & 0xFFFF
    752              *pBuf++ = HI_UINT16( pCmd->profileID );
    753          
    754              *pBuf++ = LO_UINT16( pCmd->deviceID );
   \                     ??CrossCallReturnLabel_24:
   \   000060   240D         ADD     A,#0xd
   \   000062   12....       LCALL   ?Subroutine22 & 0xFFFF
    755              *pBuf++ = HI_UINT16( pCmd->deviceID );
    756          
    757              *pBuf++ = pCmd->version;
   \                     ??CrossCallReturnLabel_25:
   \   000065   240F         ADD     A,#0xf
   \   000067   F582         MOV     DPL,A
   \   000069   EF           MOV     A,R7
   \   00006A   12....       LCALL   ??Subroutine148_0 & 0xFFFF
   \                     ??CrossCallReturnLabel_273:
   \   00006D   12....       LCALL   ??Subroutine137_0 & 0xFFFF
    758          
    759              status = zcl_SendCommand( srcEP, dstAddr, ZCL_CLUSTER_ID_LIGHT_LINK,
    760                                        COMMAND_ZLL_EP_INFO, TRUE, ZCL_FRAME_SERVER_CLIENT_DIR,
    761                                        disableDefaultRsp, 0, seqNum, ZLL_CMDLEN_EP_INFO, buf );
   \                     ??CrossCallReturnLabel_217:
   \   000070                ; Setup parameters for call to function zcl_SendCommand
   \   000070   78..         MOV     R0,#?V0 + 0
   \   000072   12....       LCALL   ?PUSH_XSTACK_I_TWO
   \   000075   75..10       MOV     ?V0 + 8,#0x10
   \   000078   75..00       MOV     ?V0 + 9,#0x0
   \   00007B   78..         MOV     R0,#?V0 + 8
   \   00007D   12....       LCALL   ?PUSH_XSTACK_I_TWO
   \   000080   78..         MOV     R0,#?V0 + 4
   \   000082   12....       LCALL   ?PUSH_XSTACK_I_ONE
   \   000085   E4           CLR     A
   \   000086   F5..         MOV     ?V0 + 8,A
   \   000088   78..         MOV     R0,#?V0 + 8
   \   00008A   12....       LCALL   ?PUSH_XSTACK_I_TWO
   \   00008D   E5..         MOV     A,?V0 + 5
   \   00008F   F5..         MOV     ?V0 + 4,A
   \   000091   78..         MOV     R0,#?V0 + 4
   \   000093   12....       LCALL   ?PUSH_XSTACK_I_ONE
   \   000096   75..01       MOV     ?V0 + 4,#0x1
   \   000099   78..         MOV     R0,#?V0 + 4
   \   00009B   12....       LCALL   ?PUSH_XSTACK_I_ONE
   \   00009E   78..         MOV     R0,#?V0 + 4
   \   0000A0   12....       LCALL   ?PUSH_XSTACK_I_ONE
   \   0000A3   75..40       MOV     ?V0 + 4,#0x40
   \   0000A6   78..         MOV     R0,#?V0 + 4
   \   0000A8   12....       LCALL   ?PUSH_XSTACK_I_ONE
   \   0000AB   7C00         MOV     R4,#0x0
   \   0000AD   7D10         MOV     R5,#0x10
   \   0000AF   AA..         MOV     R2,?V0 + 2
   \   0000B1   AB..         MOV     R3,?V0 + 3
   \   0000B3   A9..         MOV     R1,?V0 + 6
   \   0000B5   12....       LCALL   ??zcl_SendCommand?relay
   \   0000B8   740B         MOV     A,#0xb
   \   0000BA   12....       LCALL   ?DEALLOC_XSTACK8
   \   0000BD   E9           MOV     A,R1
   \   0000BE   FE           MOV     R6,A
    762              zcl_mem_free( buf );
   \   0000BF                ; Setup parameters for call to function osal_mem_free
   \   0000BF   AA..         MOV     R2,?V0 + 0
   \   0000C1   AB..         MOV     R3,?V0 + 1
   \   0000C3   12....       LCALL   ??osal_mem_free?relay
   \   0000C6   8002         SJMP    ??zclLL_Send_EndpointInfo_1
    763            }
    764            else
    765            {
    766              status = ZMemError;
   \                     ??zclLL_Send_EndpointInfo_0:
   \   0000C8   7E10         MOV     R6,#0x10
    767            }
    768          
    769            return ( status );
   \                     ??zclLL_Send_EndpointInfo_1:
   \   0000CA   02....       LJMP    ?Subroutine1 & 0xFFFF
    770          }

   \                                 In  segment BANKED_CODE, align 1, keep-with-next
   \                     ?Subroutine23:
   \   000000   A3           INC     DPTR
   \   000001                REQUIRE ??Subroutine135_0
   \   000001                ; // Fall through to label ??Subroutine135_0

   \                                 In  segment BANKED_CODE, align 1, keep-with-next
   \                     ??Subroutine135_0:
   \   000000   A3           INC     DPTR
   \   000001                REQUIRE ??Subroutine136_0
   \   000001                ; // Fall through to label ??Subroutine136_0

   \                                 In  segment BANKED_CODE, align 1, keep-with-next
   \                     ??Subroutine136_0:
   \   000000   12....       LCALL   ??Subroutine138_0 & 0xFFFF
   \                     ??CrossCallReturnLabel_223:
   \   000003   22           RET

   \                                 In  segment BANKED_CODE, align 1, keep-with-next
   \                     ?Subroutine22:
   \   000000   FA           MOV     R2,A
   \   000001   EF           MOV     A,R7
   \   000002   3400         ADDC    A,#0x0
   \   000004   FB           MOV     R3,A
   \   000005   8A82         MOV     DPL,R2
   \   000007   8B83         MOV     DPH,R3
   \   000009   12....       LCALL   ??Subroutine138_0 & 0xFFFF
   \                     ??CrossCallReturnLabel_220:
   \   00000C   12....       LCALL   ?Subroutine85 & 0xFFFF
   \                     ??CrossCallReturnLabel_222:
   \   00000F   EE           MOV     A,R6
   \   000010   22           RET

   \                                 In  segment BANKED_CODE, align 1, keep-with-next
   \                     ??Subroutine137_0:
   \   000000   12....       LCALL   ?Subroutine115 & 0xFFFF
   \                     ??CrossCallReturnLabel_225:
   \   000003   22           RET

   \                                 In  segment BANKED_CODE, align 1, keep-with-next
   \                     ?Subroutine115:
   \   000000   E0           MOVX    A,@DPTR
   \   000001   8882         MOV     DPL,R0
   \   000003   8983         MOV     DPH,R1
   \   000005   F0           MOVX    @DPTR,A
   \   000006   22           RET

   \                                 In  segment BANKED_CODE, align 1, keep-with-next
   \                     ?Subroutine21:
   \   000000   FB           MOV     R3,A
   \   000001   8A82         MOV     DPL,R2
   \   000003   8B83         MOV     DPH,R3
   \   000005   12....       LCALL   ?Subroutine115 & 0xFFFF
   \                     ??CrossCallReturnLabel_224:
   \   000008   A3           INC     DPTR
   \   000009   A882         MOV     R0,DPL
   \   00000B   A983         MOV     R1,DPH
   \   00000D   12....       LCALL   ?Subroutine85 & 0xFFFF
   \                     ??CrossCallReturnLabel_221:
   \   000010   22           RET

   \                                 In  segment BANKED_CODE, align 1, keep-with-next
   \                     ?Subroutine85:
   \   000000   8A82         MOV     DPL,R2
   \   000002   8B83         MOV     DPH,R3
   \   000004   A3           INC     DPTR
   \   000005                REQUIRE ??Subroutine138_0
   \   000005                ; // Fall through to label ??Subroutine138_0

   \                                 In  segment BANKED_CODE, align 1, keep-with-next
   \                     ??Subroutine138_0:
   \   000000   12....       LCALL   ?Subroutine115 & 0xFFFF
   \                     ??CrossCallReturnLabel_226:
   \   000003   A3           INC     DPTR
   \   000004   08           INC     R0
   \   000005   A983         MOV     R1,DPH
   \   000007   22           RET
    771          
    772          /*********************************************************************
    773           * @fn      zclLL_Send_GetGrpIDsRsp
    774           *
    775           * @brief   Call to send out a Get Group Identifiers Response command
    776           *
    777           * @param   srcEP - sending application's endpoint
    778           * @param   dstAddr - where you want the message to go
    779           * @param   pRsp - response parameters
    780           * @param   disableDefaultRsp - whether to disable the Default Response command
    781           * @param   seqNum - sequence number
    782           *
    783           * @return  ZStatus_t
    784           */

   \                                 In  segment BANKED_CODE, align 1, keep-with-next
    785          ZStatus_t zclLL_Send_GetGrpIDsRsp( uint8 srcEP, afAddrType_t *dstAddr,
   \                     zclLL_Send_GetGrpIDsRsp:
    786                                              zclLLGetGrpIDsRsp_t *pRsp,
    787                                              uint8 disableDefaultRsp, uint8 seqNum )
    788          {
   \   000000   74EA         MOV     A,#-0x16
   \   000002   12....       LCALL   ?BANKED_ENTER_XDATA
   \   000005                ; Saved register size: 22
   \   000005                ; Auto size: 0
   \   000005   89..         MOV     ?V0 + 8,R1
   \   000007   8A..         MOV     ?V0 + 12,R2
   \   000009   8B..         MOV     ?V0 + 13,R3
   \   00000B   EC           MOV     A,R4
   \   00000C   FE           MOV     R6,A
   \   00000D   ED           MOV     A,R5
   \   00000E   FF           MOV     R7,A
   \   00000F   7416         MOV     A,#0x16
   \   000011   12....       LCALL   ?XSTACK_DISP0_8
   \   000014   E0           MOVX    A,@DPTR
   \   000015   F5..         MOV     ?V0 + 6,A
   \   000017   7417         MOV     A,#0x17
   \   000019   12....       LCALL   ?XSTACK_DISP0_8
   \   00001C   E0           MOVX    A,@DPTR
   \   00001D   F5..         MOV     ?V0 + 7,A
    789            uint8 *buf;
    790            uint8 bufLen = ZLL_CMDLEN_GET_GRP_IDS_RSP;
    791            ZStatus_t status;
    792          
    793            // Calculate the total length needed
    794            bufLen += ( pRsp->cnt * ZLL_CMDLENOPTIONAL_GET_GRP_IDS_RSP );
   \   00001F   EE           MOV     A,R6
   \   000020   2402         ADD     A,#0x2
   \   000022   F5..         MOV     ?V0 + 4,A
   \   000024   EF           MOV     A,R7
   \   000025   3400         ADDC    A,#0x0
   \   000027   F5..         MOV     ?V0 + 5,A
   \   000029   75F003       MOV     B,#0x3
   \   00002C   85..82       MOV     DPL,?V0 + 4
   \   00002F   F583         MOV     DPH,A
   \   000031   E0           MOVX    A,@DPTR
   \   000032   A4           MUL     AB
   \   000033   2403         ADD     A,#0x3
   \   000035   F8           MOV     R0,A
    795          
    796            buf = zcl_mem_alloc( bufLen );
   \   000036   8882         MOV     DPL,R0
   \   000038   8582..       MOV     ?V0 + 2,DPL
   \   00003B   75..00       MOV     ?V0 + 3,#0x0
   \   00003E                ; Setup parameters for call to function osal_mem_alloc
   \   00003E   FA           MOV     R2,A
   \   00003F   AB..         MOV     R3,?V0 + 3
   \   000041   12....       LCALL   ??osal_mem_alloc?relay
   \   000044   8A..         MOV     ?V0 + 0,R2
   \   000046   8B..         MOV     ?V0 + 1,R3
    797            if ( buf != NULL )
   \   000048   EA           MOV     A,R2
   \   000049   45..         ORL     A,?V0 + 1
   \   00004B   7003         JNZ     $+5
   \   00004D   02....       LJMP    ??zclLL_Send_GetGrpIDsRsp_0 & 0xFFFF
    798            {
    799              uint8 *pBuf = buf;
   \   000050   A8..         MOV     R0,?V0 + 0
   \   000052   A9..         MOV     R1,?V0 + 1
    800              uint8 i;
    801          
    802              *pBuf++ = pRsp->total;
   \   000054   12....       LCALL   ?Subroutine49 & 0xFFFF
   \                     ??CrossCallReturnLabel_218:
   \   000057   A3           INC     DPTR
   \   000058   A882         MOV     R0,DPL
   \   00005A   A983         MOV     R1,DPH
    803              *pBuf++ = pRsp->startIndex;
   \   00005C   8E82         MOV     DPL,R6
   \   00005E   8F83         MOV     DPH,R7
   \   000060   12....       LCALL   ??Subroutine135_0 & 0xFFFF
    804              *pBuf++ = pRsp->cnt;
   \                     ??CrossCallReturnLabel_214:
   \   000063   85..82       MOV     DPL,?V0 + 4
   \   000066   85..83       MOV     DPH,?V0 + 5
   \   000069   12....       LCALL   ??Subroutine136_0 & 0xFFFF
    805          
    806              // Group information record
    807              for ( i = 0; i < pRsp->cnt; i++ )
   \                     ??CrossCallReturnLabel_213:
   \   00006C   7C00         MOV     R4,#0x0
   \   00006E   8020         SJMP    ??zclLL_Send_GetGrpIDsRsp_1
    808              {
    809                grpInfoRec_t *pRec = &(pRsp->grpInfoRec[i]);
   \                     ??zclLL_Send_GetGrpIDsRsp_2:
   \   000070   EC           MOV     A,R4
   \   000071   75F003       MOV     B,#0x3
   \   000074   A4           MUL     AB
   \   000075   FA           MOV     R2,A
   \   000076   ABF0         MOV     R3,B
   \   000078   8E82         MOV     DPL,R6
   \   00007A   8F83         MOV     DPH,R7
   \   00007C   A3           INC     DPTR
   \   00007D   A3           INC     DPTR
   \   00007E   A3           INC     DPTR
   \   00007F   E0           MOVX    A,@DPTR
   \   000080   2A           ADD     A,R2
   \   000081   FA           MOV     R2,A
   \   000082   A3           INC     DPTR
   \   000083   E0           MOVX    A,@DPTR
   \   000084   3B           ADDC    A,R3
   \   000085   12....       LCALL   ?Subroutine21 & 0xFFFF
    810          
    811                *pBuf++ = LO_UINT16( pRec->grpID );
    812                *pBuf++ = HI_UINT16( pRec->grpID );
    813          
    814                *pBuf++ = pRec->grpType;
   \                     ??CrossCallReturnLabel_23:
   \   000088   8A82         MOV     DPL,R2
   \   00008A   8B83         MOV     DPH,R3
   \   00008C   12....       LCALL   ?Subroutine23 & 0xFFFF
    815              }
   \                     ??CrossCallReturnLabel_216:
   \   00008F   0C           INC     R4
   \                     ??zclLL_Send_GetGrpIDsRsp_1:
   \   000090   85..82       MOV     DPL,?V0 + 4
   \   000093   85..83       MOV     DPH,?V0 + 5
   \   000096   E0           MOVX    A,@DPTR
   \   000097   FA           MOV     R2,A
   \   000098   EC           MOV     A,R4
   \   000099   C3           CLR     C
   \   00009A   9A           SUBB    A,R2
   \   00009B   40D3         JC      ??zclLL_Send_GetGrpIDsRsp_2
    816          
    817              status = zcl_SendCommand( srcEP, dstAddr, ZCL_CLUSTER_ID_LIGHT_LINK,
    818                                        COMMAND_ZLL_GET_GRP_IDS_RSP, TRUE, ZCL_FRAME_SERVER_CLIENT_DIR,
    819                                        disableDefaultRsp, 0, seqNum, bufLen, buf );
   \   00009D                ; Setup parameters for call to function zcl_SendCommand
   \   00009D   78..         MOV     R0,#?V0 + 0
   \   00009F   12....       LCALL   ?PUSH_XSTACK_I_TWO
   \   0000A2   78..         MOV     R0,#?V0 + 2
   \   0000A4   12....       LCALL   ?PUSH_XSTACK_I_TWO
   \   0000A7   E5..         MOV     A,?V0 + 7
   \   0000A9   F5..         MOV     ?V0 + 2,A
   \   0000AB   78..         MOV     R0,#?V0 + 2
   \   0000AD   12....       LCALL   ?PUSH_XSTACK_I_ONE
   \   0000B0   E4           CLR     A
   \   0000B1   F5..         MOV     ?V0 + 2,A
   \   0000B3   78..         MOV     R0,#?V0 + 2
   \   0000B5   12....       LCALL   ?PUSH_XSTACK_I_TWO
   \   0000B8   E5..         MOV     A,?V0 + 6
   \   0000BA   F5..         MOV     ?V0 + 2,A
   \   0000BC   78..         MOV     R0,#?V0 + 2
   \   0000BE   12....       LCALL   ?PUSH_XSTACK_I_ONE
   \   0000C1   75..01       MOV     ?V0 + 2,#0x1
   \   0000C4   78..         MOV     R0,#?V0 + 2
   \   0000C6   12....       LCALL   ?PUSH_XSTACK_I_ONE
   \   0000C9   78..         MOV     R0,#?V0 + 2
   \   0000CB   12....       LCALL   ?PUSH_XSTACK_I_ONE
   \   0000CE   75..41       MOV     ?V0 + 2,#0x41
   \   0000D1   78..         MOV     R0,#?V0 + 2
   \   0000D3   12....       LCALL   ?PUSH_XSTACK_I_ONE
   \   0000D6   7C00         MOV     R4,#0x0
   \   0000D8   7D10         MOV     R5,#0x10
   \   0000DA   AA..         MOV     R2,?V0 + 12
   \   0000DC   AB..         MOV     R3,?V0 + 13
   \   0000DE   A9..         MOV     R1,?V0 + 8
   \   0000E0   12....       LCALL   ??zcl_SendCommand?relay
   \   0000E3   740B         MOV     A,#0xb
   \   0000E5   12....       LCALL   ?DEALLOC_XSTACK8
   \   0000E8   E9           MOV     A,R1
   \   0000E9   FE           MOV     R6,A
    820              zcl_mem_free( buf );
   \   0000EA                ; Setup parameters for call to function osal_mem_free
   \   0000EA   AA..         MOV     R2,?V0 + 0
   \   0000EC   AB..         MOV     R3,?V0 + 1
   \   0000EE   12....       LCALL   ??osal_mem_free?relay
   \   0000F1   8002         SJMP    ??zclLL_Send_GetGrpIDsRsp_3
    821            }
    822            else
    823            {
    824              status = ZMemError;
   \                     ??zclLL_Send_GetGrpIDsRsp_0:
   \   0000F3   7E10         MOV     R6,#0x10
    825            }
    826          
    827            return ( status );
   \                     ??zclLL_Send_GetGrpIDsRsp_3:
   \   0000F5   EE           MOV     A,R6
   \   0000F6   F9           MOV     R1,A
   \   0000F7   7F0E         MOV     R7,#0xe
   \   0000F9   02....       LJMP    ?BANKED_LEAVE_XDATA
    828          }

   \                                 In  segment BANKED_CODE, align 1, keep-with-next
   \                     ?Subroutine49:
   \   000000   8E82         MOV     DPL,R6
   \   000002   8F83         MOV     DPH,R7
   \   000004                REQUIRE ??Subroutine137_0
   \   000004                ; // Fall through to label ??Subroutine137_0
    829          
    830          /*********************************************************************
    831           * @fn      zclLL_Send_GetEPListRsp
    832           *
    833           * @brief   Call to send out a Get Endpoint List Response command
    834           *
    835           * @param   srcEP - sending application's endpoint
    836           * @param   dstAddr - where you want the message to go
    837           * @param   pRsp - response parameters
    838           * @param   disableDefaultRsp - whether to disable the Default Response command
    839           * @param   seqNum - sequence number
    840           *
    841           * @return  ZStatus_t
    842           */

   \                                 In  segment BANKED_CODE, align 1, keep-with-next
    843          ZStatus_t zclLL_Send_GetEPListRsp( uint8 srcEP, afAddrType_t *dstAddr,
   \                     zclLL_Send_GetEPListRsp:
    844                                             zclLLGetEPListRsp_t *pRsp,
    845                                             uint8 disableDefaultRsp, uint8 seqNum )
    846          {
   \   000000   74E8         MOV     A,#-0x18
   \   000002   12....       LCALL   ?BANKED_ENTER_XDATA
   \   000005                ; Saved register size: 24
   \   000005                ; Auto size: 0
   \   000005   89..         MOV     ?V0 + 8,R1
   \   000007   8A..         MOV     ?V0 + 14,R2
   \   000009   8B..         MOV     ?V0 + 15,R3
   \   00000B   EC           MOV     A,R4
   \   00000C   FE           MOV     R6,A
   \   00000D   ED           MOV     A,R5
   \   00000E   FF           MOV     R7,A
   \   00000F   7418         MOV     A,#0x18
   \   000011   12....       LCALL   ?XSTACK_DISP0_8
   \   000014   E0           MOVX    A,@DPTR
   \   000015   F5..         MOV     ?V0 + 3,A
   \   000017   7419         MOV     A,#0x19
   \   000019   12....       LCALL   ?XSTACK_DISP0_8
   \   00001C   E0           MOVX    A,@DPTR
   \   00001D   F5..         MOV     ?V0 + 2,A
    847            uint8 *buf;
    848            uint8 bufLen = ZLL_CMDLEN_GET_EP_LIST_RSP;
    849            ZStatus_t status;
    850          
    851            // Calculate the total length needed
    852            bufLen += ( pRsp->cnt * ZLL_CMDLENOPTIONAL_GET_EP_LIST_RSP );
   \   00001F   EE           MOV     A,R6
   \   000020   2402         ADD     A,#0x2
   \   000022   F5..         MOV     ?V0 + 4,A
   \   000024   EF           MOV     A,R7
   \   000025   12....       LCALL   ?Subroutine79 & 0xFFFF
   \                     ??CrossCallReturnLabel_121:
   \   000028   E0           MOVX    A,@DPTR
   \   000029   33           RLC     A
   \   00002A   33           RLC     A
   \   00002B   33           RLC     A
   \   00002C   54F8         ANL     A,#0xf8
   \   00002E   2403         ADD     A,#0x3
   \   000030   F8           MOV     R0,A
    853          
    854            buf = zcl_mem_alloc( bufLen );
   \   000031   8882         MOV     DPL,R0
   \   000033   8582..       MOV     ?V0 + 6,DPL
   \   000036   75..00       MOV     ?V0 + 7,#0x0
   \   000039                ; Setup parameters for call to function osal_mem_alloc
   \   000039   FA           MOV     R2,A
   \   00003A   AB..         MOV     R3,?V0 + 7
   \   00003C   12....       LCALL   ??osal_mem_alloc?relay
   \   00003F   8A..         MOV     ?V0 + 0,R2
   \   000041   8B..         MOV     ?V0 + 1,R3
    855            if ( buf != NULL )
   \   000043   EA           MOV     A,R2
   \   000044   45..         ORL     A,?V0 + 1
   \   000046   7003         JNZ     $+5
   \   000048   02....       LJMP    ??zclLL_Send_GetEPListRsp_0 & 0xFFFF
    856            {
    857              uint8 *pBuf = buf;
    858              uint8 i;
    859          
    860              *pBuf++ = pRsp->total;
   \   00004B   8E82         MOV     DPL,R6
   \   00004D   8F83         MOV     DPH,R7
   \   00004F   12....       LCALL   ?Subroutine29 & 0xFFFF
    861              *pBuf++ = pRsp->startIndex;
   \                     ??CrossCallReturnLabel_36:
   \   000052   12....       LCALL   ??Subroutine134_0 & 0xFFFF
    862              *pBuf++ = pRsp->cnt;
   \                     ??CrossCallReturnLabel_194:
   \   000055   85..82       MOV     DPL,?V0 + 4
   \   000058   85..83       MOV     DPH,?V0 + 5
   \   00005B   12....       LCALL   ??Subroutine134_0 & 0xFFFF
    863          
    864              // Endpoint information record
    865              for ( i = 0; i < pRsp->cnt; i++ )
   \                     ??CrossCallReturnLabel_195:
   \   00005E   7900         MOV     R1,#0x0
   \   000060   8047         SJMP    ??zclLL_Send_GetEPListRsp_1
    866              {
    867                epInfoRec_t *pRec = &(pRsp->epInfoRec[i]);
   \                     ??zclLL_Send_GetEPListRsp_2:
   \   000062   89..         MOV     ?V0 + 10,R1
   \   000064   75..00       MOV     ?V0 + 11,#0x0
   \   000067   7403         MOV     A,#0x3
   \   000069   78..         MOV     R0,#?V0 + 10
   \   00006B   12....       LCALL   ?S_SHL
   \   00006E   8E82         MOV     DPL,R6
   \   000070   8F83         MOV     DPH,R7
   \   000072   A3           INC     DPTR
   \   000073   A3           INC     DPTR
   \   000074   A3           INC     DPTR
   \   000075   E0           MOVX    A,@DPTR
   \   000076   25..         ADD     A,?V0 + 10
   \   000078   FC           MOV     R4,A
   \   000079   A3           INC     DPTR
   \   00007A   E0           MOVX    A,@DPTR
   \   00007B   35..         ADDC    A,?V0 + 11
   \   00007D   FD           MOV     R5,A
    868          
    869                *pBuf++ = LO_UINT16( pRec->nwkAddr );
   \   00007E   8C82         MOV     DPL,R4
   \   000080   8D83         MOV     DPH,R5
   \   000082   12....       LCALL   ?Subroutine35 & 0xFFFF
    870                *pBuf++ = HI_UINT16( pRec->nwkAddr );
   \                     ??CrossCallReturnLabel_49:
   \   000085   8C82         MOV     DPL,R4
   \   000087   8D83         MOV     DPH,R5
   \   000089   12....       LCALL   ??Subroutine133_0 & 0xFFFF
    871          
    872                *pBuf++ = pRec->endpoint;
   \                     ??CrossCallReturnLabel_196:
   \   00008C   8C82         MOV     DPL,R4
   \   00008E   8D83         MOV     DPH,R5
   \   000090   12....       LCALL   ??Subroutine132_0 & 0xFFFF
    873          
    874                *pBuf++ = LO_UINT16( pRec->profileID );
   \                     ??CrossCallReturnLabel_197:
   \   000093   EC           MOV     A,R4
   \   000094   2403         ADD     A,#0x3
   \   000096   12....       LCALL   ?Subroutine19 & 0xFFFF
    875                *pBuf++ = HI_UINT16( pRec->profileID );
    876          
    877                *pBuf++ = LO_UINT16( pRec->deviceID );
   \                     ??CrossCallReturnLabel_18:
   \   000099   EC           MOV     A,R4
   \   00009A   2405         ADD     A,#0x5
   \   00009C   12....       LCALL   ?Subroutine19 & 0xFFFF
    878                *pBuf++ = HI_UINT16( pRec->deviceID );
    879          
    880                *pBuf++ = pRec->version;
   \                     ??CrossCallReturnLabel_19:
   \   00009F   8C82         MOV     DPL,R4
   \   0000A1   8D83         MOV     DPH,R5
   \   0000A3   A3           INC     DPTR
   \   0000A4   A3           INC     DPTR
   \   0000A5   12....       LCALL   ?Subroutine38 & 0xFFFF
    881              }
   \                     ??CrossCallReturnLabel_200:
   \   0000A8   09           INC     R1
   \                     ??zclLL_Send_GetEPListRsp_1:
   \   0000A9   85..82       MOV     DPL,?V0 + 4
   \   0000AC   85..83       MOV     DPH,?V0 + 5
   \   0000AF   E0           MOVX    A,@DPTR
   \   0000B0   F8           MOV     R0,A
   \   0000B1   E9           MOV     A,R1
   \   0000B2   C3           CLR     C
   \   0000B3   98           SUBB    A,R0
   \   0000B4   40AC         JC      ??zclLL_Send_GetEPListRsp_2
    882          
    883              status = zcl_SendCommand( srcEP, dstAddr, ZCL_CLUSTER_ID_LIGHT_LINK,
    884                                        COMMAND_ZLL_GET_EP_LIST_RSP, TRUE, ZCL_FRAME_SERVER_CLIENT_DIR,
    885                                        disableDefaultRsp, 0, seqNum, bufLen, buf );
   \   0000B6                ; Setup parameters for call to function zcl_SendCommand
   \   0000B6   78..         MOV     R0,#?V0 + 0
   \   0000B8   12....       LCALL   ?PUSH_XSTACK_I_TWO
   \   0000BB   78..         MOV     R0,#?V0 + 6
   \   0000BD   12....       LCALL   ?PUSH_XSTACK_I_TWO
   \   0000C0   78..         MOV     R0,#?V0 + 2
   \   0000C2   12....       LCALL   ?PUSH_XSTACK_I_ONE
   \   0000C5   E4           CLR     A
   \   0000C6   F5..         MOV     ?V0 + 4,A
   \   0000C8   F5..         MOV     ?V0 + 5,A
   \   0000CA   78..         MOV     R0,#?V0 + 4
   \   0000CC   12....       LCALL   ?PUSH_XSTACK_I_TWO
   \   0000CF   E5..         MOV     A,?V0 + 3
   \   0000D1   F5..         MOV     ?V0 + 2,A
   \   0000D3   78..         MOV     R0,#?V0 + 2
   \   0000D5   12....       LCALL   ?PUSH_XSTACK_I_ONE
   \   0000D8   75..01       MOV     ?V0 + 2,#0x1
   \   0000DB   78..         MOV     R0,#?V0 + 2
   \   0000DD   12....       LCALL   ?PUSH_XSTACK_I_ONE
   \   0000E0   78..         MOV     R0,#?V0 + 2
   \   0000E2   12....       LCALL   ?PUSH_XSTACK_I_ONE
   \   0000E5   75..42       MOV     ?V0 + 2,#0x42
   \   0000E8   78..         MOV     R0,#?V0 + 2
   \   0000EA   12....       LCALL   ?PUSH_XSTACK_I_ONE
   \   0000ED   7C00         MOV     R4,#0x0
   \   0000EF   7D10         MOV     R5,#0x10
   \   0000F1   AA..         MOV     R2,?V0 + 14
   \   0000F3   AB..         MOV     R3,?V0 + 15
   \   0000F5   A9..         MOV     R1,?V0 + 8
   \   0000F7   12....       LCALL   ??zcl_SendCommand?relay
   \   0000FA   740B         MOV     A,#0xb
   \   0000FC   12....       LCALL   ?DEALLOC_XSTACK8
   \   0000FF   E9           MOV     A,R1
   \   000100   FE           MOV     R6,A
    886              zcl_mem_free( buf );
   \   000101                ; Setup parameters for call to function osal_mem_free
   \   000101   AA..         MOV     R2,?V0 + 0
   \   000103   AB..         MOV     R3,?V0 + 1
   \   000105   12....       LCALL   ??osal_mem_free?relay
   \   000108   8002         SJMP    ??zclLL_Send_GetEPListRsp_3
    887            }
    888            else
    889            {
    890              status = ZMemError;
   \                     ??zclLL_Send_GetEPListRsp_0:
   \   00010A   7E10         MOV     R6,#0x10
    891            }
    892          
    893            return ( status );
   \                     ??zclLL_Send_GetEPListRsp_3:
   \   00010C   02....       LJMP    ?Subroutine4 & 0xFFFF
    894          }

   \                                 In  segment BANKED_CODE, align 1, keep-with-next
   \                     ?Subroutine19:
   \   000000   F5..         MOV     ?V0 + 12,A
   \   000002   ED           MOV     A,R5
   \   000003   3400         ADDC    A,#0x0
   \   000005   F5..         MOV     ?V0 + 13,A
   \   000007   85..82       MOV     DPL,?V0 + 12
   \   00000A   F583         MOV     DPH,A
   \   00000C   12....       LCALL   ?Subroutine96 & 0xFFFF
   \                     ??CrossCallReturnLabel_201:
   \   00000F   85..82       MOV     DPL,?V0 + 12
   \   000012   85..83       MOV     DPH,?V0 + 13
   \   000015   A3           INC     DPTR
   \   000016   12....       LCALL   ?Subroutine96 & 0xFFFF
   \                     ??CrossCallReturnLabel_202:
   \   000019   22           RET

   \                                 In  segment BANKED_CODE, align 1, keep-with-next
   \                     ?Subroutine79:
   \   000000   12....       LCALL   ?Subroutine106 & 0xFFFF
   \                     ??CrossCallReturnLabel_168:
   \   000003   22           RET

   \                                 In  segment BANKED_CODE, align 1, keep-with-next
   \                     ?Subroutine106:
   \   000000   3400         ADDC    A,#0x0
   \   000002   F5..         MOV     ?V0 + 5,A
   \   000004   85..82       MOV     DPL,?V0 + 4
   \   000007   F583         MOV     DPH,A
   \   000009   22           RET
    895          
    896          /*********************************************************************
    897           * @fn      zclLL_SendInterPANCommand
    898           *
    899           * @brief   Used to send ZLL Profile and Cluster Specific Inter-PAN Command
    900           *          messages.
    901           *
    902           *          NOTE: The calling application is responsible for incrementing
    903           *                the Sequence Number.
    904           *
    905           * @param   srcEp - source endpoint
    906           * @param   destAddr - destination address
    907           * @param   cmd - command ID
    908           * @param   direction - direction of the command
    909           * @param   seqNumber - identification number for the transaction
    910           * @param   cmdFormatLen - length of the command to be sent
    911           * @param   cmdFormat - command to be sent
    912           *
    913           * @return  ZSuccess if OK
    914           */

   \                                 In  segment BANKED_CODE, align 1, keep-with-next
    915          ZStatus_t zclLL_SendInterPANCommand( uint8 srcEP, afAddrType_t *destAddr, uint8 cmd,
   \                     zclLL_SendInterPANCommand:
    916                                               uint8 direction, uint8 seqNum, uint16 cmdFormatLen, uint8 *cmdFormat )
    917          {
   \   000000   74F2         MOV     A,#-0xe
   \   000002   12....       LCALL   ?BANKED_ENTER_XDATA
   \   000005                ; Saved register size: 14
   \   000005                ; Auto size: 0
   \   000005   E9           MOV     A,R1
   \   000006   FE           MOV     R6,A
   \   000007   EC           MOV     A,R4
   \   000008   FF           MOV     R7,A
   \   000009   740E         MOV     A,#0xe
   \   00000B   12....       LCALL   ?XSTACK_DISP0_8
   \   00000E   E0           MOVX    A,@DPTR
   \   00000F   F9           MOV     R1,A
   \   000010   740F         MOV     A,#0xf
   \   000012   12....       LCALL   ?XSTACK_DISP0_8
   \   000015   E0           MOVX    A,@DPTR
   \   000016   F5..         MOV     ?V0 + 0,A
   \   000018   A3           INC     DPTR
   \   000019   E0           MOVX    A,@DPTR
   \   00001A   F5..         MOV     ?V0 + 1,A
   \   00001C   7411         MOV     A,#0x11
   \   00001E   12....       LCALL   ?XSTACK_DISP0_8
   \   000021   E0           MOVX    A,@DPTR
   \   000022   F5..         MOV     ?V0 + 4,A
   \   000024   A3           INC     DPTR
   \   000025   E0           MOVX    A,@DPTR
   \   000026   F5..         MOV     ?V0 + 5,A
    918            //
    919            // Note: ZLL Frame Control has a defferent format than ZCL Frame Control
    920            //
    921          
    922            // ZLL Header Format:
    923            // - Frame control (1 octect):
    924            //   * b3-b0: ZLL version (0b0000)
    925            //   * b7-b4: Reserved (0b0000)
    926            // - Transaction sequence number (1 octet)
    927            // - Command identifier (1 octect)
    928            return zcl_SendCommand( srcEP, destAddr, ZCL_CLUSTER_ID_LIGHT_LINK,
    929                                    cmd, TRUE, direction, TRUE, 0,
    930                                    seqNum, cmdFormatLen, cmdFormat );
   \   000028                ; Setup parameters for call to function zcl_SendCommand
   \   000028   78..         MOV     R0,#?V0 + 4
   \   00002A   12....       LCALL   ?PUSH_XSTACK_I_TWO
   \   00002D   78..         MOV     R0,#?V0 + 0
   \   00002F   12....       LCALL   ?PUSH_XSTACK_I_TWO
   \   000032   E9           MOV     A,R1
   \   000033   F5..         MOV     ?V0 + 0,A
   \   000035   78..         MOV     R0,#?V0 + 0
   \   000037   12....       LCALL   ?PUSH_XSTACK_I_ONE
   \   00003A   E4           CLR     A
   \   00003B   F5..         MOV     ?V0 + 0,A
   \   00003D   F5..         MOV     ?V0 + 1,A
   \   00003F   78..         MOV     R0,#?V0 + 0
   \   000041   12....       LCALL   ?PUSH_XSTACK_I_TWO
   \   000044   75..01       MOV     ?V0 + 0,#0x1
   \   000047   78..         MOV     R0,#?V0 + 0
   \   000049   12....       LCALL   ?PUSH_XSTACK_I_ONE
   \   00004C   ED           MOV     A,R5
   \   00004D   F5..         MOV     ?V0 + 0,A
   \   00004F   78..         MOV     R0,#?V0 + 0
   \   000051   12....       LCALL   ?PUSH_XSTACK_I_ONE
   \   000054   75..01       MOV     ?V0 + 0,#0x1
   \   000057   78..         MOV     R0,#?V0 + 0
   \   000059   12....       LCALL   ?PUSH_XSTACK_I_ONE
   \   00005C   EF           MOV     A,R7
   \   00005D   F5..         MOV     ?V0 + 0,A
   \   00005F   78..         MOV     R0,#?V0 + 0
   \   000061   12....       LCALL   ?PUSH_XSTACK_I_ONE
   \   000064   7C00         MOV     R4,#0x0
   \   000066   7D10         MOV     R5,#0x10
   \   000068   EE           MOV     A,R6
   \   000069   F9           MOV     R1,A
   \   00006A   12....       LCALL   ??zcl_SendCommand?relay
   \   00006D   740B         MOV     A,#0xb
   \   00006F   12....       LCALL   ?DEALLOC_XSTACK8
   \   000072   80..         SJMP    ??Subroutine139_0
    931          }

   \                                 In  segment BANKED_CODE, align 1, keep-with-next
   \                     ??Subroutine139_0:
   \   000000   7F06         MOV     R7,#0x6
   \   000002   02....       LJMP    ?BANKED_LEAVE_XDATA
    932          
    933          /*********************************************************************
    934           * @fn      zclLL_FindCallbacks
    935           *
    936           * @brief   Find the callbacks for an endpoint
    937           *
    938           * @param   endpoint
    939           *
    940           * @return  pointer to the callbacks
    941           */

   \                                 In  segment BANKED_CODE, align 1, keep-with-next
    942          static zclLL_AppCallbacks_t *zclLL_FindCallbacks( uint8 endpoint )
   \                     zclLL_FindCallbacks:
    943          {
   \   000000   C082         PUSH    DPL
   \   000002   C083         PUSH    DPH
   \   000004                ; Saved register size: 2
   \   000004                ; Auto size: 0
    944            zclLLCBRec_t *pCBs;
    945          
    946            pCBs = zclLLCBs;
   \   000004   90....       MOV     DPTR,#zclLLCBs
    947            while ( pCBs )
    948            {
    949              if ( pCBs->endpoint == endpoint )
    950                return ( pCBs->CBs );
    951              pCBs = pCBs->next;
   \                     ??zclLL_FindCallbacks_0:
   \   000007   12....       LCALL   ?Subroutine44 & 0xFFFF
   \                     ??CrossCallReturnLabel_62:
   \   00000A   6016         JZ      ??zclLL_FindCallbacks_1
   \   00000C   8A82         MOV     DPL,R2
   \   00000E   8B83         MOV     DPH,R3
   \   000010   A3           INC     DPTR
   \   000011   A3           INC     DPTR
   \   000012   E0           MOVX    A,@DPTR
   \   000013   69           XRL     A,R1
   \   000014   8A82         MOV     DPL,R2
   \   000016   8B83         MOV     DPH,R3
   \   000018   70ED         JNZ     ??zclLL_FindCallbacks_0
   \   00001A   A3           INC     DPTR
   \   00001B   A3           INC     DPTR
   \   00001C   A3           INC     DPTR
   \   00001D   12....       LCALL   ??Subroutine144_0 & 0xFFFF
    952            }
   \                     ??CrossCallReturnLabel_236:
   \   000020   8004         SJMP    ??zclLL_FindCallbacks_2
    953          
    954            return ( (zclLL_AppCallbacks_t *)NULL );
   \                     ??zclLL_FindCallbacks_1:
   \   000022   7A00         MOV     R2,#0x0
   \   000024   7B00         MOV     R3,#0x0
   \                     ??zclLL_FindCallbacks_2:
   \   000026   D083         POP     DPH
   \   000028   D082         POP     DPL
   \   00002A   02....       LJMP    ?BRET
    955          }

   \                                 In  segment BANKED_CODE, align 1, keep-with-next
   \                     ??Subroutine144_0:
   \   000000   E0           MOVX    A,@DPTR
   \   000001   FA           MOV     R2,A
   \   000002   A3           INC     DPTR
   \   000003   E0           MOVX    A,@DPTR
   \   000004   FB           MOV     R3,A
   \   000005   22           RET
    956          
    957          /*********************************************************************
    958           * @fn      zclLL_HdlIncoming
    959           *
    960           * @brief   Callback from ZCL to process incoming Commands specific
    961           *          to this cluster library or Profile commands for attributes
    962           *          that aren't in the attribute list
    963           *
    964           * @param   pInMsg - pointer to the incoming message
    965           *
    966           * @return  ZStatus_t
    967           */

   \                                 In  segment BANKED_CODE, align 1, keep-with-next
    968          static ZStatus_t zclLL_HdlIncoming(  zclIncoming_t *pInMsg )
   \                     zclLL_HdlIncoming:
    969          {
   \   000000   74F4         MOV     A,#-0xc
   \   000002   12....       LCALL   ?BANKED_ENTER_XDATA
   \   000005                ; Saved register size: 12
   \   000005                ; Auto size: 0
   \   000005   EA           MOV     A,R2
   \   000006   FE           MOV     R6,A
   \   000007   EB           MOV     A,R3
   \   000008   FF           MOV     R7,A
    970            ZStatus_t status = ZSuccess;
    971          
    972          #if defined ( INTER_PAN )
    973            if ( StubAPS_InterPan( pInMsg->msg->srcAddr.panId, pInMsg->msg->srcAddr.endPoint ) )
   \   000009   8E82         MOV     DPL,R6
   \   00000B   8F83         MOV     DPH,R7
   \   00000D   12....       LCALL   ??Subroutine144_0 & 0xFFFF
   \                     ??CrossCallReturnLabel_237:
   \   000010                ; Setup parameters for call to function StubAPS_InterPan
   \   000010   EA           MOV     A,R2
   \   000011   240F         ADD     A,#0xf
   \   000013   F582         MOV     DPL,A
   \   000015   EB           MOV     A,R3
   \   000016   12....       LCALL   ??Subroutine148_0 & 0xFFFF
   \                     ??CrossCallReturnLabel_274:
   \   000019   E0           MOVX    A,@DPTR
   \   00001A   F9           MOV     R1,A
   \   00001B   EA           MOV     A,R2
   \   00001C   2410         ADD     A,#0x10
   \   00001E   F582         MOV     DPL,A
   \   000020   EB           MOV     A,R3
   \   000021   12....       LCALL   ??Subroutine148_0 & 0xFFFF
   \                     ??CrossCallReturnLabel_275:
   \   000024   12....       LCALL   ??Subroutine144_0 & 0xFFFF
   \                     ??CrossCallReturnLabel_238:
   \   000027   12....       LCALL   ??StubAPS_InterPan?relay
   \   00002A   E9           MOV     A,R1
   \   00002B   602E         JZ      ??zclLL_HdlIncoming_0
    974            {
    975              return ( zclLL_HdlInInterPANCommands( pInMsg ) );
   \   00002D   90....       MOV     DPTR,#pInterPANCBs
   \   000030   12....       LCALL   ??Subroutine146_0 & 0xFFFF
   \                     ??CrossCallReturnLabel_248:
   \   000033   7005         JNZ     ??zclLL_HdlIncoming_1
   \   000035   75..01       MOV     ?V0 + 0,#0x1
   \   000038   801D         SJMP    ??zclLL_HdlIncoming_2
   \                     ??zclLL_HdlIncoming_1:
   \   00003A   8E82         MOV     DPL,R6
   \   00003C   8F83         MOV     DPH,R7
   \   00003E   12....       LCALL   ??Subroutine149_0 & 0xFFFF
   \                     ??CrossCallReturnLabel_303:
   \   000041   7004         JNZ     ??zclLL_HdlIncoming_3
   \   000043   A3           INC     DPTR
   \   000044   E0           MOVX    A,@DPTR
   \   000045   6410         XRL     A,#0x10
   \                     ??zclLL_HdlIncoming_3:
   \   000047   700A         JNZ     ??zclLL_HdlIncoming_4
   \   000049                ; Setup parameters for call to function zclLL_ProcessInLLInterPANCmds
   \   000049   EE           MOV     A,R6
   \   00004A   FA           MOV     R2,A
   \   00004B   EF           MOV     A,R7
   \   00004C   FB           MOV     R3,A
   \   00004D   12....       LCALL   ??zclLL_ProcessInLLInterPANCmds?relay
   \   000050   E9           MOV     A,R1
   \   000051   8002         SJMP    ??zclLL_HdlIncoming_5
   \                     ??zclLL_HdlIncoming_4:
   \   000053   7401         MOV     A,#0x1
   \                     ??zclLL_HdlIncoming_5:
   \   000055   F5..         MOV     ?V0 + 0,A
    976            }
   \                     ??zclLL_HdlIncoming_2:
   \   000057   A9..         MOV     R1,?V0 + 0
   \   000059   807E         SJMP    ??zclLL_HdlIncoming_6
    977          #endif
    978          
    979            if ( zcl_ClusterCmd( pInMsg->hdr.fc.type ) )
   \                     ??zclLL_HdlIncoming_0:
   \   00005B   8E82         MOV     DPL,R6
   \   00005D   8F83         MOV     DPH,R7
   \   00005F   A3           INC     DPTR
   \   000060   A3           INC     DPTR
   \   000061   E0           MOVX    A,@DPTR
   \   000062   FA           MOV     R2,A
   \   000063   5403         ANL     A,#0x3
   \   000065   6401         XRL     A,#0x1
   \   000067   7025         JNZ     ??zclLL_HdlIncoming_7
   \   000069   8E82         MOV     DPL,R6
   \   00006B   8F83         MOV     DPH,R7
   \   00006D   12....       LCALL   ??Subroutine161_0 & 0xFFFF
   \                     ??CrossCallReturnLabel_372:
   \   000070   2414         ADD     A,#0x14
   \   000072   F582         MOV     DPL,A
   \   000074   E8           MOV     A,R0
   \   000075   12....       LCALL   ??Subroutine148_0 & 0xFFFF
   \                     ??CrossCallReturnLabel_276:
   \   000078   E0           MOVX    A,@DPTR
   \   000079   F9           MOV     R1,A
   \   00007A   EA           MOV     A,R2
   \   00007B   5404         ANL     A,#0x4
   \   00007D   702C         JNZ     ??zclLL_HdlIncoming_8
    980            {
    981              // Is this a manufacturer specific command?
    982              if ( pInMsg->hdr.fc.manuSpecific == 0 )
    983              {
    984                status = zclLL_HdlInSpecificCommands( pInMsg );
   \   00007F                ; Setup parameters for call to function zclLL_FindCallbacks
   \   00007F   12....       LCALL   ??zclLL_FindCallbacks?relay
   \   000082   8A..         MOV     ?V0 + 2,R2
   \   000084   8B..         MOV     ?V0 + 3,R3
   \   000086   AC..         MOV     R4,?V0 + 2
   \   000088   AD..         MOV     R5,?V0 + 3
   \   00008A   EC           MOV     A,R4
   \   00008B   4D           ORL     A,R5
   \   00008C   7005         JNZ     ??zclLL_HdlIncoming_9
   \                     ??zclLL_HdlIncoming_7:
   \   00008E   75..01       MOV     ?V0 + 1,#0x1
   \   000091   8044         SJMP    ??zclLL_HdlIncoming_10
   \                     ??zclLL_HdlIncoming_9:
   \   000093   8E82         MOV     DPL,R6
   \   000095   8F83         MOV     DPH,R7
   \   000097   12....       LCALL   ??Subroutine149_0 & 0xFFFF
    985              }
   \                     ??CrossCallReturnLabel_304:
   \   00009A   7004         JNZ     ??zclLL_HdlIncoming_11
   \   00009C   A3           INC     DPTR
   \   00009D   E0           MOVX    A,@DPTR
   \   00009E   6410         XRL     A,#0x10
   \                     ??zclLL_HdlIncoming_11:
   \   0000A0   7031         JNZ     ??zclLL_HdlIncoming_12
   \   0000A2                ; Setup parameters for call to function zclLL_ProcessInLLCmds
   \   0000A2   EE           MOV     A,R6
   \   0000A3   FA           MOV     R2,A
   \   0000A4   EF           MOV     A,R7
   \   0000A5   FB           MOV     R3,A
   \   0000A6   12....       LCALL   ??zclLL_ProcessInLLCmds?relay
   \   0000A9   8025         SJMP    ??zclLL_HdlIncoming_13
    986              else
    987              {
    988                // We don't support any manufacturer specific command.
    989                status = zclLL_HdlInManuSpecificCommands( pInMsg );//add my own function
   \                     ??zclLL_HdlIncoming_8:
   \   0000AB                ; Setup parameters for call to function zclLL_FindCallbacks
   \   0000AB   12....       LCALL   ??zclLL_FindCallbacks?relay
   \   0000AE   8A..         MOV     ?V0 + 2,R2
   \   0000B0   8B..         MOV     ?V0 + 3,R3
   \   0000B2   AC..         MOV     R4,?V0 + 2
   \   0000B4   AD..         MOV     R5,?V0 + 3
   \   0000B6   EC           MOV     A,R4
   \   0000B7   4D           ORL     A,R5
   \   0000B8   60D4         JZ      ??zclLL_HdlIncoming_7
   \   0000BA   8E82         MOV     DPL,R6
   \   0000BC   8F83         MOV     DPH,R7
   \   0000BE   12....       LCALL   ??Subroutine149_0 & 0xFFFF
    990              }
    991            }
   \                     ??CrossCallReturnLabel_305:
   \   0000C1   7004         JNZ     ??zclLL_HdlIncoming_14
   \   0000C3   A3           INC     DPTR
   \   0000C4   E0           MOVX    A,@DPTR
   \   0000C5   6410         XRL     A,#0x10
   \                     ??zclLL_HdlIncoming_14:
   \   0000C7   700A         JNZ     ??zclLL_HdlIncoming_12
   \   0000C9                ; Setup parameters for call to function zclLL_ProcessInManuLLCmds
   \   0000C9   EE           MOV     A,R6
   \   0000CA   FA           MOV     R2,A
   \   0000CB   EF           MOV     A,R7
   \   0000CC   FB           MOV     R3,A
   \   0000CD   12....       LCALL   ??zclLL_ProcessInManuLLCmds?relay
   \                     ??zclLL_HdlIncoming_13:
   \   0000D0   E9           MOV     A,R1
   \   0000D1   8002         SJMP    ??zclLL_HdlIncoming_15
   \                     ??zclLL_HdlIncoming_12:
   \   0000D3   7401         MOV     A,#0x1
   \                     ??zclLL_HdlIncoming_15:
   \   0000D5   F5..         MOV     ?V0 + 1,A
    992            else
    993            {
    994              // Handle all the normal (Read, Write...) commands -- should never get here
    995              status = ZFailure;
    996            }
    997            return ( status );
   \                     ??zclLL_HdlIncoming_10:
   \   0000D7   A9..         MOV     R1,?V0 + 1
   \                     ??zclLL_HdlIncoming_6:
   \   0000D9   02....       LJMP    ??Subroutine128_0 & 0xFFFF
    998          }

   \                                 In  segment BANKED_CODE, align 1, keep-with-next
   \                     ?Subroutine117:
   \   000000   12....       LCALL   ?Subroutine124 & 0xFFFF
   \                     ??CrossCallReturnLabel_425:
   \   000003   F583         MOV     DPH,A
   \   000005   8882         MOV     DPL,R0
   \   000007   22           RET

   \                                 In  segment BANKED_CODE, align 1, keep-with-next
   \                     ?Subroutine92:
   \   000000   12....       LCALL   ?Subroutine117 & 0xFFFF
   \                     ??CrossCallReturnLabel_362:
   \   000003   A3           INC     DPTR
   \   000004   A3           INC     DPTR
   \   000005   A3           INC     DPTR
   \   000006   A3           INC     DPTR
   \   000007   22           RET

   \                                 In  segment BANKED_CODE, align 1, keep-with-next
   \                     ??Subroutine149_0:
   \   000000   12....       LCALL   ?Subroutine92 & 0xFFFF
   \                     ??CrossCallReturnLabel_311:
   \   000003   E0           MOVX    A,@DPTR
   \   000004   22           RET

   \                                 In  segment BANKED_CODE, align 1, keep-with-next
   \                     ??Subroutine161_0:
   \   000000   12....       LCALL   ?Subroutine124 & 0xFFFF
   \                     ??CrossCallReturnLabel_426:
   \   000003   C8           XCH     A,R0
   \   000004   22           RET

   \                                 In  segment BANKED_CODE, align 1, keep-with-next
   \                     ?Subroutine124:
   \   000000   E0           MOVX    A,@DPTR
   \   000001   F8           MOV     R0,A
   \   000002   A3           INC     DPTR
   \   000003   E0           MOVX    A,@DPTR
   \   000004   22           RET
    999          
   1000          /*********************************************************************
   1001           * @fn      zclLL_HdlInSpecificCommands
   1002           *
   1003           * @brief   Callback from ZCL to process incoming Commands specific
   1004           *          to this cluster library
   1005           *
   1006           * @param   pInMsg - pointer to the incoming message
   1007           *
   1008           * @return  ZStatus_t
   1009           */
   1010          static ZStatus_t zclLL_HdlInSpecificCommands( zclIncoming_t *pInMsg )
   1011          {
   1012            ZStatus_t status;
   1013            zclLL_AppCallbacks_t *pCBs;
   1014          
   1015            // make sure endpoint exists
   1016            pCBs = zclLL_FindCallbacks( pInMsg->msg->endPoint );
   1017            if ( pCBs == NULL )
   1018              return ( ZFailure );
   1019          
   1020            switch ( pInMsg->msg->clusterId )
   1021            {
   1022              case ZCL_CLUSTER_ID_LIGHT_LINK:
   1023                status = zclLL_ProcessInLLCmds( pInMsg, pCBs );
   1024                break;
   1025          
   1026              default:
   1027                status = ZFailure;
   1028                break;
   1029            }
   1030          
   1031            return ( status );
   1032          }
   1033          
   1034          /*********************************************************************
   1035           * @fn      zclLL_HdlInManuSpecificCommands
   1036           *
   1037           * @brief   Callback to process incoming manufacturer Commands specific
   1038           *          to this cluster library
   1039           *
   1040           * @param   pInMsg - pointer to the incoming message
   1041           *
   1042           * @return  ZStatus_t
   1043           */
   1044          static ZStatus_t zclLL_HdlInManuSpecificCommands( zclIncoming_t *pInMsg )
   1045          {
   1046            ZStatus_t status;
   1047            zclLL_AppCallbacks_t *pCBs;
   1048          
   1049            // make sure endpoint exists
   1050            pCBs = zclLL_FindCallbacks( pInMsg->msg->endPoint );
   1051            if ( pCBs == NULL )
   1052              return ( ZFailure );
   1053          
   1054            switch ( pInMsg->msg->clusterId )
   1055            {
   1056              case ZCL_CLUSTER_ID_LIGHT_LINK:
   1057                status = zclLL_ProcessInManuLLCmds( pInMsg, pCBs );
   1058                break;
   1059          
   1060              default:
   1061                status = ZFailure;
   1062                break;
   1063            }
   1064          
   1065            return ( status );
   1066          }
   1067          
   1068          /*********************************************************************
   1069           * @fn      zclLL_ProcessInLLCmds
   1070           *
   1071           * @brief   Callback from ZCL to process incoming Commands specific
   1072           *          to this cluster library on a command ID basis
   1073           *
   1074           * @param   pInMsg - pointer to the incoming message
   1075           * @param   pCBs - pointer to callbacks
   1076           *
   1077           * @return  ZStatus_t
   1078           */

   \                                 In  segment BANKED_CODE, align 1, keep-with-next
   1079          static ZStatus_t zclLL_ProcessInLLCmds( zclIncoming_t *pInMsg, zclLL_AppCallbacks_t *pCBs )
   \                     zclLL_ProcessInLLCmds:
   1080          {
   \   000000   74F7         MOV     A,#-0x9
   \   000002   12....       LCALL   ?BANKED_ENTER_XDATA
   \   000005                ; Saved register size: 9
   \   000005                ; Auto size: 1
   \   000005   74FF         MOV     A,#-0x1
   \   000007   12....       LCALL   ?ALLOC_XSTACK8
   \   00000A   EC           MOV     A,R4
   \   00000B   FE           MOV     R6,A
   \   00000C   ED           MOV     A,R5
   \   00000D   FF           MOV     R7,A
   1081            ZStatus_t status = SUCCESS;
   1082          
   1083            if ( zcl_ServerCmd( pInMsg->hdr.fc.direction ) )
   \   00000E   8A82         MOV     DPL,R2
   \   000010   8B83         MOV     DPH,R3
   \   000012   A3           INC     DPTR
   \   000013   A3           INC     DPTR
   \   000014   A3           INC     DPTR
   \   000015   A3           INC     DPTR
   \   000016   A3           INC     DPTR
   \   000017   A3           INC     DPTR
   \   000018   A3           INC     DPTR
   \   000019   E0           MOVX    A,@DPTR
   \   00001A   F5..         MOV     ?V0 + 0,A
   \   00001C   8A82         MOV     DPL,R2
   \   00001E   8B83         MOV     DPH,R3
   \   000020   A3           INC     DPTR
   \   000021   A3           INC     DPTR
   \   000022   E0           MOVX    A,@DPTR
   \   000023   5408         ANL     A,#0x8
   \   000025   704C         JNZ     ??zclLL_ProcessInLLCmds_0
   1084            {
   1085              switch ( pInMsg->hdr.commandID )
   \   000027   EA           MOV     A,R2
   \   000028   2406         ADD     A,#0x6
   \   00002A   F8           MOV     R0,A
   \   00002B   EB           MOV     A,R3
   \   00002C   3400         ADDC    A,#0x0
   \   00002E   F9           MOV     R1,A
   \   00002F   E8           MOV     A,R0
   \   000030   FC           MOV     R4,A
   \   000031   E9           MOV     A,R1
   \   000032   FD           MOV     R5,A
   \   000033   E5..         MOV     A,?V0 + 0
   \   000035   24BF         ADD     A,#-0x41
   \   000037   6005         JZ      ??zclLL_ProcessInLLCmds_1
   \   000039   14           DEC     A
   \   00003A   6018         JZ      ??zclLL_ProcessInLLCmds_2
   \   00003C   8031         SJMP    ??zclLL_ProcessInLLCmds_3
   1086              {
   1087                case COMMAND_ZLL_GET_GRP_IDS_REQ:
   1088                  status = zclLL_ProcessInCmd_GetGrpIDsReq( pInMsg, pCBs );
   \                     ??zclLL_ProcessInLLCmds_1:
   \   00003E   8E82         MOV     DPL,R6
   \   000040   8F83         MOV     DPH,R7
   \   000042   12....       LCALL   ??Subroutine146_0 & 0xFFFF
   \                     ??CrossCallReturnLabel_249:
   \   000045   6028         JZ      ??zclLL_ProcessInLLCmds_3
   \   000047   12....       LCALL   ?Subroutine13 & 0xFFFF
   \                     ??CrossCallReturnLabel_4:
   \   00004A   12....       LCALL   ?CALL_IND
   \   00004D   E9           MOV     A,R1
   \   00004E   701F         JNZ     ??zclLL_ProcessInLLCmds_3
   \                     ??zclLL_ProcessInLLCmds_4:
   \   000050   79FF         MOV     R1,#-0x1
   \   000052   803A         SJMP    ??zclLL_ProcessInLLCmds_5
   1089                  break;
   1090          
   1091                case COMMAND_ZLL_GET_EP_LIST_REQ:
   1092                  status = zclLL_ProcessInCmd_GetEPListReq( pInMsg, pCBs );
   \                     ??zclLL_ProcessInLLCmds_2:
   \   000054   EE           MOV     A,R6
   \   000055   2402         ADD     A,#0x2
   \   000057   EF           MOV     A,R7
   \   000058   3400         ADDC    A,#0x0
   \   00005A   0E           INC     R6
   \   00005B   0E           INC     R6
   \   00005C   FF           MOV     R7,A
   \   00005D   8E82         MOV     DPL,R6
   \   00005F   8F83         MOV     DPH,R7
   \   000061   12....       LCALL   ??Subroutine146_0 & 0xFFFF
   1093                  break;
   1094          
   1095                default:
   1096                  status = ZFailure;   // Error ignore the command
   1097                  break;
   1098               }
   1099            }
   \                     ??CrossCallReturnLabel_250:
   \   000064   6009         JZ      ??zclLL_ProcessInLLCmds_3
   \   000066   12....       LCALL   ?Subroutine13 & 0xFFFF
   \                     ??CrossCallReturnLabel_5:
   \   000069   12....       LCALL   ?CALL_IND
   \   00006C   E9           MOV     A,R1
   \   00006D   60E1         JZ      ??zclLL_ProcessInLLCmds_4
   \                     ??zclLL_ProcessInLLCmds_3:
   \   00006F   7901         MOV     R1,#0x1
   \   000071   801B         SJMP    ??zclLL_ProcessInLLCmds_5
   1100            else // Client Commands
   1101            {
   1102              switch ( pInMsg->hdr.commandID )
   \                     ??zclLL_ProcessInLLCmds_0:
   \   000073   E5..         MOV     A,?V0 + 0
   \   000075   24C0         ADD     A,#-0x40
   \   000077   6008         JZ      ??zclLL_ProcessInLLCmds_6
   \   000079   14           DEC     A
   \   00007A   600A         JZ      ??zclLL_ProcessInLLCmds_7
   \   00007C   14           DEC     A
   \   00007D   600C         JZ      ??zclLL_ProcessInLLCmds_8
   \   00007F   80EE         SJMP    ??zclLL_ProcessInLLCmds_3
   1103              {
   1104                case COMMAND_ZLL_EP_INFO:
   1105                  status = zclLL_ProcessInCmd_EndpointInfo( pInMsg, pCBs );
   \                     ??zclLL_ProcessInLLCmds_6:
   \   000081                ; Setup parameters for call to function zclLL_ProcessInCmd_EndpointInfo
   \   000081   12....       LCALL   ??zclLL_ProcessInCmd_EndpointInfo?relay
   1106                  break;
   \   000084   8008         SJMP    ??zclLL_ProcessInLLCmds_5
   1107          
   1108                case COMMAND_ZLL_GET_GRP_IDS_RSP:
   1109                  status = zclLL_ProcessInCmd_GetGrpIDsRsp( pInMsg, pCBs );
   \                     ??zclLL_ProcessInLLCmds_7:
   \   000086                ; Setup parameters for call to function zclLL_ProcessInCmd_GetGrpIDsRsp
   \   000086   12....       LCALL   ??zclLL_ProcessInCmd_GetGrpIDsRsp?relay
   1110                  break;
   \   000089   8003         SJMP    ??zclLL_ProcessInLLCmds_5
   1111          
   1112                case COMMAND_ZLL_GET_EP_LIST_RSP:
   1113                  status = zclLL_ProcessInCmd_GetEPListRsp( pInMsg, pCBs );
   \                     ??zclLL_ProcessInLLCmds_8:
   \   00008B                ; Setup parameters for call to function zclLL_ProcessInCmd_GetEPListRsp
   \   00008B   12....       LCALL   ??zclLL_ProcessInCmd_GetEPListRsp?relay
   1114                  break;
   1115          
   1116                default:
   1117                  status = ZFailure;   // Error ignore the command
   1118                  break;
   1119              }
   1120            }
   1121          
   1122            return ( status );
   \                     ??zclLL_ProcessInLLCmds_5:
   \   00008E   7401         MOV     A,#0x1
   \   000090                REQUIRE ?Subroutine6
   \   000090                ; // Fall through to label ?Subroutine6
   1123          }

   \                                 In  segment BANKED_CODE, align 1, keep-with-next
   \                     ?Subroutine6:
   \   000000   12....       LCALL   ?DEALLOC_XSTACK8
   \   000003   7F01         MOV     R7,#0x1
   \   000005   02....       LJMP    ?BANKED_LEAVE_XDATA

   \                                 In  segment BANKED_CODE, align 1, keep-with-next
   \                     ?Subroutine13:
   \   000000   8A82         MOV     DPL,R2
   \   000002   8B83         MOV     DPH,R3
   \   000004   A3           INC     DPTR
   \   000005   A3           INC     DPTR
   \   000006   A3           INC     DPTR
   \   000007   A3           INC     DPTR
   \   000008   A3           INC     DPTR
   \   000009   A3           INC     DPTR
   \   00000A   A3           INC     DPTR
   \   00000B   A3           INC     DPTR
   \   00000C   12....       LCALL   ?Subroutine93 & 0xFFFF
   \                     ??CrossCallReturnLabel_357:
   \   00000F   E0           MOVX    A,@DPTR
   \   000010   85..82       MOV     DPL,?XSP + 0
   \   000013   85..83       MOV     DPH,?XSP + 1
   \   000016   F0           MOVX    @DPTR,A
   \   000017                ; Setup parameters for indirect call
   \   000017                ; Setup parameters for indirect call
   \   000017   8C82         MOV     DPL,R4
   \   000019   8D83         MOV     DPH,R5
   \   00001B   E0           MOVX    A,@DPTR
   \   00001C   F9           MOV     R1,A
   \   00001D   85..82       MOV     DPL,?XSP + 0
   \   000020   85..83       MOV     DPH,?XSP + 1
   \   000023   AC82         MOV     R4,DPL
   \   000025   AD83         MOV     R5,DPH
   \   000027   8A82         MOV     DPL,R2
   \   000029   8B83         MOV     DPH,R3
   \   00002B   12....       LCALL   ?Subroutine88 & 0xFFFF
   \                     ??CrossCallReturnLabel_140:
   \   00002E   8E82         MOV     DPL,R6
   \   000030   8F83         MOV     DPH,R7
   \   000032   12....       LCALL   ?Subroutine93 & 0xFFFF
   \                     ??CrossCallReturnLabel_358:
   \   000035   22           RET

   \                                 In  segment BANKED_CODE, align 1, keep-with-next
   \                     ?Subroutine88:
   \   000000   12....       LCALL   ?Subroutine116 & 0xFFFF
   \                     ??CrossCallReturnLabel_420:
   \   000003   22           RET

   \                                 In  segment BANKED_CODE, align 1, keep-with-next
   \                     ?Subroutine116:
   \   000000   E0           MOVX    A,@DPTR
   \   000001   2406         ADD     A,#0x6
   \   000003   FA           MOV     R2,A
   \   000004   A3           INC     DPTR
   \   000005   E0           MOVX    A,@DPTR
   \   000006   3400         ADDC    A,#0x0
   \   000008   FB           MOV     R3,A
   \   000009   22           RET

   \                                 In  segment BANKED_CODE, align 1, keep-with-next
   \                     ?Subroutine93:
   \   000000   12....       LCALL   ?Subroutine117 & 0xFFFF
   \                     ??CrossCallReturnLabel_363:
   \   000003   22           RET

   \                                 In  segment BANKED_CODE, align 1, keep-with-next
   \                     ??Subroutine146_0:
   \   000000   12....       LCALL   ?Subroutine124 & 0xFFFF
   \                     ??CrossCallReturnLabel_424:
   \   000003   F9           MOV     R1,A
   \   000004   E8           MOV     A,R0
   \   000005   49           ORL     A,R1
   \   000006   22           RET
   1124          
   1125          /*********************************************************************
   1126           * @fn      zclLL_ProcessInManuLLCmds
   1127           *
   1128           * @brief   Callback from ZCL to process incoming Manufacturer Commands specific
   1129           *          to this cluster library on a command ID basis
   1130           *
   1131           * @param   pInMsg - pointer to the incoming message
   1132           * @param   pCBs - pointer to callbacks
   1133           *
   1134           * @return  ZStatus_t
   1135           */

   \                                 In  segment BANKED_CODE, align 1, keep-with-next
   1136          static ZStatus_t zclLL_ProcessInManuLLCmds( zclIncoming_t *pInMsg, zclLL_AppCallbacks_t *pCBs )
   \                     zclLL_ProcessInManuLLCmds:
   1137          {
   \   000000   74F7         MOV     A,#-0x9
   \   000002   12....       LCALL   ?BANKED_ENTER_XDATA
   \   000005                ; Saved register size: 9
   \   000005                ; Auto size: 8
   \   000005   74F8         MOV     A,#-0x8
   \   000007   12....       LCALL   ?ALLOC_XSTACK8
   1138            ZStatus_t status = SUCCESS;
   \   00000A   7E00         MOV     R6,#0x0
   1139          #ifdef MT_APP_FUNC
   1140            uint8 buf[8];
   1141          #endif
   1142          
   1143            if ( zcl_ServerCmd( pInMsg->hdr.fc.direction ) )
   \   00000C   8A82         MOV     DPL,R2
   \   00000E   8B83         MOV     DPH,R3
   \   000010   A3           INC     DPTR
   \   000011   A3           INC     DPTR
   \   000012   E0           MOVX    A,@DPTR
   \   000013   5408         ANL     A,#0x8
   \   000015   7020         JNZ     ??zclLL_ProcessInManuLLCmds_0
   1144            {
   1145                P0DIR = 0x02;
   \   000017   75FD02       MOV     0xfd,#0x2
   1146                flag=!flag;
   \   00001A   90....       MOV     DPTR,#flag
   \   00001D   E0           MOVX    A,@DPTR
   \   00001E   7004         JNZ     ??zclLL_ProcessInManuLLCmds_1
   \   000020   7401         MOV     A,#0x1
   \   000022   8001         SJMP    ??zclLL_ProcessInManuLLCmds_2
   \                     ??zclLL_ProcessInManuLLCmds_1:
   \   000024   E4           CLR     A
   \                     ??zclLL_ProcessInManuLLCmds_2:
   \   000025   F0           MOVX    @DPTR,A
   1147                P0_1 = flag;
   \   000026   C3           CLR     C
   \   000027   33           RLC     A
   \   000028   F8           MOV     R0,A
   \   000029   E580         MOV     A,0x80
   \   00002B   54FD         ANL     A,#0xfd
   \   00002D   48           ORL     A,R0
   \   00002E   F580         MOV     0x80,A
   1148              switch ( pInMsg->hdr.commandID )
   1149              {
   1150                case COMMAND_ZLL_GET_GRP_IDS_REQ:
   1151                  status = ZFailure;
   1152                  break;
   1153          
   1154                case COMMAND_ZLL_GET_EP_LIST_REQ:
   1155                  status = ZFailure;
   1156                  break;
   1157          
   1158                default:
   1159                  status = ZFailure;   // Error ignore the command
   1160                  break;
   1161               }
   1162            }
   1163            else // Client Commands
   1164            {
   1165              switch ( pInMsg->hdr.commandID )
   1166              {
   1167                case COMMAND_ZLL_EP_INFO:
   1168                  status = ZFailure;
   1169                  break;
   1170          
   1171                case COMMAND_ZLL_GET_GRP_IDS_RSP:
   1172                  status = ZFailure;
   1173                  break;
   1174          
   1175                case COMMAND_ZLL_GET_EP_LIST_RSP:
   1176                  status = ZFailure;
   1177                  break;
   1178          
   1179          #ifdef MT_APP_FUNC        
   1180                case COMMAND_ZLL_GET_DALI_ADDR_LIST_RSP:
   1181                  buf[0]=0xfe;
   1182                  buf[1]=0x03;
   1183                  buf[2]=0x49;
   1184                  buf[3]=0x82;
   1185                  buf[4]=pInMsg->pData[0];
   1186                  buf[5]=pInMsg->msg->srcAddr.addr.shortAddr;
   1187                  buf[6]=pInMsg->msg->srcAddr.addr.shortAddr >> 8;
   1188                  buf[7]=0;
   1189                  HalUARTWrite(MT_UART_DEFAULT_PORT,buf,8);
   1190                  status = ZSuccess;
   1191                  break;
   1192          #endif
   1193          
   1194                default:
   1195                  status = ZFailure;   // Error ignore the command
   \                     ??zclLL_ProcessInManuLLCmds_3:
   \   000030   0E           INC     R6
   1196                  break;
   1197              }
   1198            }
   1199          
   1200            return ( status );
   \                     ??zclLL_ProcessInManuLLCmds_4:
   \   000031   EE           MOV     A,R6
   \   000032   F9           MOV     R1,A
   \   000033   7408         MOV     A,#0x8
   \   000035   80..         SJMP    ?Subroutine6
   \                     ??zclLL_ProcessInManuLLCmds_0:
   \   000037   8A82         MOV     DPL,R2
   \   000039   8B83         MOV     DPH,R3
   \   00003B   A3           INC     DPTR
   \   00003C   A3           INC     DPTR
   \   00003D   A3           INC     DPTR
   \   00003E   A3           INC     DPTR
   \   00003F   A3           INC     DPTR
   \   000040   A3           INC     DPTR
   \   000041   A3           INC     DPTR
   \   000042   E0           MOVX    A,@DPTR
   \   000043   6443         XRL     A,#0x43
   \   000045   70E9         JNZ     ??zclLL_ProcessInManuLLCmds_3
   \   000047   85..82       MOV     DPL,?XSP + 0
   \   00004A   85..83       MOV     DPH,?XSP + 1
   \   00004D   74FE         MOV     A,#-0x2
   \   00004F   F0           MOVX    @DPTR,A
   \   000050   7401         MOV     A,#0x1
   \   000052   12....       LCALL   ?XSTACK_DISP0_8
   \   000055   7403         MOV     A,#0x3
   \   000057   F0           MOVX    @DPTR,A
   \   000058   14           DEC     A
   \   000059   12....       LCALL   ?XSTACK_DISP0_8
   \   00005C   7449         MOV     A,#0x49
   \   00005E   F0           MOVX    @DPTR,A
   \   00005F   7403         MOV     A,#0x3
   \   000061   12....       LCALL   ?XSTACK_DISP0_8
   \   000064   7482         MOV     A,#-0x7e
   \   000066   12....       LCALL   ?Subroutine103 & 0xFFFF
   \                     ??CrossCallReturnLabel_233:
   \   000069   A3           INC     DPTR
   \   00006A   A3           INC     DPTR
   \   00006B   A3           INC     DPTR
   \   00006C   A3           INC     DPTR
   \   00006D   A3           INC     DPTR
   \   00006E   A3           INC     DPTR
   \   00006F   A3           INC     DPTR
   \   000070   12....       LCALL   ??Subroutine157_0 & 0xFFFF
   \                     ??CrossCallReturnLabel_345:
   \   000073   E0           MOVX    A,@DPTR
   \   000074   C0E0         PUSH    A
   \   000076   7404         MOV     A,#0x4
   \   000078   12....       LCALL   ?XSTACK_DISP0_8
   \   00007B   D0E0         POP     A
   \   00007D   F0           MOVX    @DPTR,A
   \   00007E   8A82         MOV     DPL,R2
   \   000080   8B83         MOV     DPH,R3
   \   000082   12....       LCALL   ?Subroutine32 & 0xFFFF
   \                     ??CrossCallReturnLabel_43:
   \   000085   C0E0         PUSH    A
   \   000087   7405         MOV     A,#0x5
   \   000089   12....       LCALL   ?XSTACK_DISP0_8
   \   00008C   D0E0         POP     A
   \   00008E   F0           MOVX    @DPTR,A
   \   00008F   8A82         MOV     DPL,R2
   \   000091   8B83         MOV     DPH,R3
   \   000093   12....       LCALL   ??Subroutine161_0 & 0xFFFF
   \                     ??CrossCallReturnLabel_373:
   \   000096   2406         ADD     A,#0x6
   \   000098   F582         MOV     DPL,A
   \   00009A   E8           MOV     A,R0
   \   00009B   12....       LCALL   ??Subroutine148_0 & 0xFFFF
   \                     ??CrossCallReturnLabel_277:
   \   00009E   A3           INC     DPTR
   \   00009F   E0           MOVX    A,@DPTR
   \   0000A0   C0E0         PUSH    A
   \   0000A2   7406         MOV     A,#0x6
   \   0000A4   12....       LCALL   ?XSTACK_DISP0_8
   \   0000A7   D0E0         POP     A
   \   0000A9   F0           MOVX    @DPTR,A
   \   0000AA   7407         MOV     A,#0x7
   \   0000AC   12....       LCALL   ?XSTACK_DISP0_8
   \   0000AF   E4           CLR     A
   \   0000B0   F0           MOVX    @DPTR,A
   \   0000B1                ; Setup parameters for call to function HalUARTWrite
   \   0000B1   7C08         MOV     R4,#0x8
   \   0000B3   FD           MOV     R5,A
   \   0000B4   85..82       MOV     DPL,?XSP + 0
   \   0000B7   85..83       MOV     DPH,?XSP + 1
   \   0000BA   AA82         MOV     R2,DPL
   \   0000BC   AB83         MOV     R3,DPH
   \   0000BE   F9           MOV     R1,A
   \   0000BF   12....       LCALL   ??HalUARTWrite?relay
   \   0000C2   02....       LJMP    ??zclLL_ProcessInManuLLCmds_4 & 0xFFFF
   \   0000C5                REQUIRE P0DIR
   \   0000C5                REQUIRE _A_P0
   1201          }

   \                                 In  segment BANKED_CODE, align 1, keep-with-next
   \                     ?Subroutine103:
   \   000000   F0           MOVX    @DPTR,A
   \   000001   8A82         MOV     DPL,R2
   \   000003   8B83         MOV     DPH,R3
   \   000005   A3           INC     DPTR
   \   000006   22           RET

   \                                 In  segment BANKED_CODE, align 1, keep-with-next
   \                     ??Subroutine157_0:
   \   000000   12....       LCALL   ?Subroutine93 & 0xFFFF
   \                     ??CrossCallReturnLabel_361:
   \   000003   22           RET

   \                                 In  segment BANKED_CODE, align 1, keep-with-next
   \                     ?Subroutine109:
   \   000000   F582         MOV     DPL,A
   \   000002   E8           MOV     A,R0
   \   000003                REQUIRE ??Subroutine164_0
   \   000003                ; // Fall through to label ??Subroutine164_0

   \                                 In  segment BANKED_CODE, align 1, keep-with-next
   \                     ?Subroutine32:
   \   000000   12....       LCALL   ?Subroutine124 & 0xFFFF
   \                     ??CrossCallReturnLabel_422:
   \   000003   C8           XCH     A,R0
   \   000004   2406         ADD     A,#0x6
   \   000006   12....       LCALL   ?Subroutine109 & 0xFFFF
   \                     ??CrossCallReturnLabel_397:
   \   000009   E0           MOVX    A,@DPTR
   \   00000A   22           RET
   1202          
   1203          
   1204          /*********************************************************************
   1205           * @fn      zclLL_ProcessInCmd_GetGrpIDsReq
   1206           *
   1207           * @brief   Process in the received Get Group Identifiers Request command.
   1208           *
   1209           * @param   pInMsg - pointer to the incoming message
   1210           * @param   pCBs - pointer to the application callbacks
   1211           *
   1212           * @return  ZStatus_t
   1213           */
   1214          static ZStatus_t zclLL_ProcessInCmd_GetGrpIDsReq( zclIncoming_t *pInMsg,
   1215                                                            zclLL_AppCallbacks_t *pCBs )
   1216          {
   1217            if ( pCBs->pfnGetGrpIDsReq )
   1218            {
   1219              zclLLGetGrpIDsReq_t req;
   1220          
   1221              req.startIndex = pInMsg->pData[0];
   1222          
   1223              if ( pCBs->pfnGetGrpIDsReq( &(pInMsg->msg->srcAddr), &req, pInMsg->hdr.transSeqNum ) == ZSuccess )
   1224              {
   1225                return ( ZCL_STATUS_CMD_HAS_RSP );
   1226              }
   1227            }
   1228          
   1229            return ( ZFailure );
   1230          }
   1231          
   1232          /*********************************************************************
   1233           * @fn      zclLL_ProcessInCmd_GetEPListReq
   1234           *
   1235           * @brief   Process in the received Get Endpoint List Request command.
   1236           *
   1237           * @param   pInMsg - pointer to the incoming message
   1238           * @param   pCBs - pointer to the application callbacks
   1239           *
   1240           * @return  ZStatus_t
   1241           */
   1242          static ZStatus_t zclLL_ProcessInCmd_GetEPListReq( zclIncoming_t *pInMsg,
   1243                                                            zclLL_AppCallbacks_t *pCBs )
   1244          {
   1245            if ( pCBs->pfnGetEPListReq )
   1246            {
   1247              zclLLGetEPListReq_t req;
   1248          
   1249              req.startIndex = pInMsg->pData[0];
   1250          
   1251              if ( pCBs->pfnGetEPListReq( &(pInMsg->msg->srcAddr), &req, pInMsg->hdr.transSeqNum ) == ZSuccess )
   1252              {
   1253                return ( ZCL_STATUS_CMD_HAS_RSP );
   1254              }
   1255            }
   1256          
   1257            return ( ZFailure );
   1258          }
   1259          
   1260          
   1261          /*********************************************************************
   1262           * @fn      zclLL_ProcessInCmd_EndpointInfo
   1263           *
   1264           * @brief   Process in the received Endpoint Information command.
   1265           *
   1266           * @param   pInMsg - pointer to the incoming message
   1267           * @param   pCBs - pointer to the application callbacks
   1268           *
   1269           * @return  ZStatus_t
   1270           */

   \                                 In  segment BANKED_CODE, align 1, keep-with-next
   1271          static ZStatus_t zclLL_ProcessInCmd_EndpointInfo( zclIncoming_t *pInMsg,
   \                     zclLL_ProcessInCmd_EndpointInfo:
   1272                                                            zclLL_AppCallbacks_t *pCBs )
   1273          {
   \   000000   74F0         MOV     A,#-0x10
   \   000002   12....       LCALL   ?BANKED_ENTER_XDATA
   \   000005                ; Saved register size: 16
   \   000005                ; Auto size: 0
   \   000005   8A..         MOV     ?V0 + 0,R2
   \   000007   8B..         MOV     ?V0 + 1,R3
   1274            ZStatus_t status = ZFailure;
   \   000009   75..01       MOV     ?V0 + 4,#0x1
   1275          
   1276            if ( pCBs->pfnEndpointInfo )
   \   00000C   EC           MOV     A,R4
   \   00000D   2404         ADD     A,#0x4
   \   00000F   F5..         MOV     ?V0 + 2,A
   \   000011   ED           MOV     A,R5
   \   000012   3400         ADDC    A,#0x0
   \   000014   F5..         MOV     ?V0 + 3,A
   \   000016   85..82       MOV     DPL,?V0 + 2
   \   000019   12....       LCALL   ??Subroutine145_0 & 0xFFFF
   \                     ??CrossCallReturnLabel_254:
   \   00001C   7003         JNZ     $+5
   \   00001E   02....       LJMP    ??zclLL_ProcessInCmd_EndpointInfo_0 & 0xFFFF
   1277            {
   1278              zclLLEndpointInfo_t *pCmd;
   1279          
   1280              pCmd = (zclLLEndpointInfo_t *)zcl_mem_alloc( sizeof( zclLLEndpointInfo_t ) );
   \   000021                ; Setup parameters for call to function osal_mem_alloc
   \   000021   7A10         MOV     R2,#0x10
   \   000023   7B00         MOV     R3,#0x0
   \   000025   12....       LCALL   ??osal_mem_alloc?relay
   \   000028   8A..         MOV     ?V0 + 6,R2
   \   00002A   8B..         MOV     ?V0 + 7,R3
   \   00002C   AE..         MOV     R6,?V0 + 6
   \   00002E   AF..         MOV     R7,?V0 + 7
   1281              if ( pCmd )
   \   000030   EE           MOV     A,R6
   \   000031   4F           ORL     A,R7
   \   000032   7003         JNZ     $+5
   \   000034   02....       LJMP    ??zclLL_ProcessInCmd_EndpointInfo_1 & 0xFFFF
   1282              {
   1283                uint8 *pBuf = pInMsg->pData;
   \   000037   85..82       MOV     DPL,?V0 + 0
   \   00003A   85..83       MOV     DPH,?V0 + 1
   \   00003D   A3           INC     DPTR
   \   00003E   A3           INC     DPTR
   \   00003F   A3           INC     DPTR
   \   000040   A3           INC     DPTR
   \   000041   A3           INC     DPTR
   \   000042   A3           INC     DPTR
   \   000043   A3           INC     DPTR
   \   000044   A3           INC     DPTR
   \   000045   E0           MOVX    A,@DPTR
   \   000046   F5..         MOV     ?V0 + 4,A
   \   000048   A3           INC     DPTR
   \   000049   E0           MOVX    A,@DPTR
   \   00004A   F5..         MOV     ?V0 + 5,A
   1284          
   1285                zcl_cpyExtAddr( pCmd->ieeeAddr, pBuf );
   \   00004C                ; Setup parameters for call to function sAddrExtCpy
   \   00004C   AC..         MOV     R4,?V0 + 4
   \   00004E   FD           MOV     R5,A
   \   00004F   12....       LCALL   ??sAddrExtCpy?relay
   1286                pBuf += Z_EXTADDR_LEN;
   \   000052   E5..         MOV     A,?V0 + 4
   \   000054   2408         ADD     A,#0x8
   \   000056   F5..         MOV     ?V0 + 4,A
   \   000058   E5..         MOV     A,?V0 + 5
   \   00005A   12....       LCALL   ?Subroutine79 & 0xFFFF
   1287          
   1288                pCmd->nwkAddr = BUILD_UINT16( pBuf[0], pBuf[1] );
   \                     ??CrossCallReturnLabel_120:
   \   00005D   12....       LCALL   ??Subroutine165_0 & 0xFFFF
   \                     ??CrossCallReturnLabel_403:
   \   000060   8E82         MOV     DPL,R6
   \   000062   8F83         MOV     DPH,R7
   \   000064   A3           INC     DPTR
   \   000065   A3           INC     DPTR
   \   000066   A3           INC     DPTR
   \   000067   A3           INC     DPTR
   \   000068   A3           INC     DPTR
   \   000069   A3           INC     DPTR
   \   00006A   A3           INC     DPTR
   \   00006B   A3           INC     DPTR
   \   00006C   12....       LCALL   ?Subroutine58 & 0xFFFF
   1289                pBuf += 2;
   1290          
   1291                pCmd->endpoint = *pBuf++;
   \                     ??CrossCallReturnLabel_95:
   \   00006F   12....       LCALL   ?Subroutine50 & 0xFFFF
   \                     ??CrossCallReturnLabel_71:
   \   000072   A3           INC     DPTR
   \   000073   A3           INC     DPTR
   \   000074   A3           INC     DPTR
   \   000075   A3           INC     DPTR
   \   000076   A3           INC     DPTR
   \   000077   A3           INC     DPTR
   \   000078   F0           MOVX    @DPTR,A
   \   000079   85..82       MOV     DPL,?V0 + 4
   \   00007C   85..83       MOV     DPH,?V0 + 5
   \   00007F   A3           INC     DPTR
   \   000080   8582..       MOV     ?V0 + 4,DPL
   \   000083   8583..       MOV     ?V0 + 5,DPH
   1292          
   1293                pCmd->profileID = BUILD_UINT16( pBuf[0], pBuf[1] );
   \   000086   12....       LCALL   ??Subroutine158_0 & 0xFFFF
   \                     ??CrossCallReturnLabel_364:
   \   000089   240B         ADD     A,#0xb
   \   00008B   F582         MOV     DPL,A
   \   00008D   EF           MOV     A,R7
   \   00008E   12....       LCALL   ??Subroutine148_0 & 0xFFFF
   \                     ??CrossCallReturnLabel_278:
   \   000091   E8           MOV     A,R0
   \   000092   12....       LCALL   ?Subroutine58 & 0xFFFF
   1294                pBuf += 2;
   1295          
   1296                pCmd->deviceID = BUILD_UINT16( pBuf[0], pBuf[1] );
   \                     ??CrossCallReturnLabel_96:
   \   000095   12....       LCALL   ?Subroutine24 & 0xFFFF
   \                     ??CrossCallReturnLabel_367:
   \   000098   240D         ADD     A,#0xd
   \   00009A   12....       LCALL   ?Subroutine71 & 0xFFFF
   1297                pBuf += 2;
   1298          
   1299                pCmd->version = *pBuf++;
   \                     ??CrossCallReturnLabel_316:
   \   00009D   85..82       MOV     DPL,?V0 + 4
   \   0000A0   85..83       MOV     DPH,?V0 + 5
   \   0000A3   A3           INC     DPTR
   \   0000A4   A3           INC     DPTR
   \   0000A5   E0           MOVX    A,@DPTR
   \   0000A6   C0E0         PUSH    A
   \   0000A8   EE           MOV     A,R6
   \   0000A9   240F         ADD     A,#0xf
   \   0000AB   F582         MOV     DPL,A
   \   0000AD   EF           MOV     A,R7
   \   0000AE   12....       LCALL   ??Subroutine148_0 & 0xFFFF
   \                     ??CrossCallReturnLabel_279:
   \   0000B1   D0E0         POP     A
   \   0000B3   12....       LCALL   ??Subroutine156_0 & 0xFFFF
   1300          
   1301                status = pCBs->pfnEndpointInfo( &(pInMsg->msg->srcAddr), pCmd );
   \                     ??CrossCallReturnLabel_344:
   \   0000B6   12....       LCALL   ?Subroutine88 & 0xFFFF
   \                     ??CrossCallReturnLabel_139:
   \   0000B9   85..82       MOV     DPL,?V0 + 2
   \   0000BC   85..83       MOV     DPH,?V0 + 3
   \   0000BF   12....       LCALL   ??Subroutine157_0 & 0xFFFF
   \                     ??CrossCallReturnLabel_346:
   \   0000C2   12....       LCALL   ?CALL_IND
   \   0000C5   E9           MOV     A,R1
   \   0000C6   F5..         MOV     ?V0 + 4,A
   1302          
   1303                zcl_mem_free( pCmd );
   \   0000C8                ; Setup parameters for call to function osal_mem_free
   \   0000C8   EE           MOV     A,R6
   \   0000C9   FA           MOV     R2,A
   \   0000CA   EF           MOV     A,R7
   \   0000CB   FB           MOV     R3,A
   \   0000CC   12....       LCALL   ??osal_mem_free?relay
   \   0000CF   8003         SJMP    ??zclLL_ProcessInCmd_EndpointInfo_1
   1304              }
   1305            }
   1306            else
   1307            {
   1308              status = ZSuccess;
   \                     ??zclLL_ProcessInCmd_EndpointInfo_0:
   \   0000D1   75..00       MOV     ?V0 + 4,#0x0
   1309            }
   1310          
   1311            return ( status );
   \                     ??zclLL_ProcessInCmd_EndpointInfo_1:
   \   0000D4   A9..         MOV     R1,?V0 + 4
   \   0000D6   02....       LJMP    ??Subroutine130_0 & 0xFFFF
   1312          }

   \                                 In  segment BANKED_CODE, align 1, keep-with-next
   \                     ?Subroutine58:
   \   000000   F0           MOVX    @DPTR,A
   \   000001   A3           INC     DPTR
   \   000002   E9           MOV     A,R1
   \   000003   F0           MOVX    @DPTR,A
   \   000004   E5..         MOV     A,?V0 + 4
   \   000006   2402         ADD     A,#0x2
   \   000008   F5..         MOV     ?V0 + 4,A
   \   00000A   E5..         MOV     A,?V0 + 5
   \   00000C   3400         ADDC    A,#0x0
   \   00000E   F5..         MOV     ?V0 + 5,A
   \   000010   85..82       MOV     DPL,?V0 + 4
   \   000013   22           RET

   \                                 In  segment BANKED_CODE, align 1, keep-with-next
   \                     ??Subroutine145_0:
   \   000000   F583         MOV     DPH,A
   \   000002                REQUIRE ??Subroutine146_0
   \   000002                ; // Fall through to label ??Subroutine146_0

   \                                 In  segment BANKED_CODE, align 1, keep-with-next
   \                     ?Subroutine71:
   \   000000   F582         MOV     DPL,A
   \   000002   EF           MOV     A,R7
   \   000003                REQUIRE ??Subroutine150_0
   \   000003                ; // Fall through to label ??Subroutine150_0

   \                                 In  segment BANKED_CODE, align 1, keep-with-next
   \                     ??Subroutine150_0:
   \   000000   12....       LCALL   ??Subroutine164_0 & 0xFFFF
   \                     ??CrossCallReturnLabel_400:
   \   000003                REQUIRE ??Subroutine151_0
   \   000003                ; // Fall through to label ??Subroutine151_0

   \                                 In  segment BANKED_CODE, align 1, keep-with-next
   \                     ??Subroutine156_0:
   \   000000   F0           MOVX    @DPTR,A
   \   000001                ; Setup parameters for indirect call
   \   000001                ; Setup parameters for indirect call
   \   000001                ; Setup parameters for indirect call
   \   000001   EE           MOV     A,R6
   \   000002   FC           MOV     R4,A
   \   000003   EF           MOV     A,R7
   \   000004   FD           MOV     R5,A
   \   000005   85..82       MOV     DPL,?V0 + 0
   \   000008   85..83       MOV     DPH,?V0 + 1
   \   00000B   22           RET

   \                                 In  segment BANKED_CODE, align 1, keep-with-next
   \                     ?Subroutine24:
   \   000000   F583         MOV     DPH,A
   \   000002                REQUIRE ??Subroutine158_0
   \   000002                ; // Fall through to label ??Subroutine158_0

   \                                 In  segment BANKED_CODE, align 1, keep-with-next
   \                     ??Subroutine158_0:
   \   000000   12....       LCALL   ?Subroutine114 & 0xFFFF
   \                     ??CrossCallReturnLabel_406:
   \   000003   F8           MOV     R0,A
   \   000004   EE           MOV     A,R6
   \   000005   22           RET

   \                                 In  segment BANKED_CODE, align 1, keep-with-next
   \                     ??Subroutine165_0:
   \   000000   12....       LCALL   ?Subroutine114 & 0xFFFF
   \                     ??CrossCallReturnLabel_407:
   \   000003   22           RET

   \                                 In  segment BANKED_CODE, align 1, keep-with-next
   \                     ?Subroutine114:
   \   000000   E0           MOVX    A,@DPTR
   \   000001   FA           MOV     R2,A
   \   000002   A3           INC     DPTR
   \   000003   E0           MOVX    A,@DPTR
   \   000004   F9           MOV     R1,A
   \   000005   EA           MOV     A,R2
   \   000006   22           RET

   \                                 In  segment BANKED_CODE, align 1, keep-with-next
   \                     ?Subroutine50:
   \   000000   F583         MOV     DPH,A
   \   000002   E0           MOVX    A,@DPTR
   \   000003   8E82         MOV     DPL,R6
   \   000005   8F83         MOV     DPH,R7
   \   000007   A3           INC     DPTR
   \   000008   A3           INC     DPTR
   \   000009   A3           INC     DPTR
   \   00000A   A3           INC     DPTR
   \   00000B   22           RET
   1313          
   1314          /*********************************************************************
   1315           * @fn      zclLL_ProcessInCmd_GetGrpIDsRsp
   1316           *
   1317           * @brief   Process in the received Get Group Identifiers Response command.
   1318           *
   1319           * @param   pInMsg - pointer to the incoming message
   1320           * @param   pCBs - pointer to the application callbacks
   1321           *
   1322           * @return  ZStatus_t
   1323           */

   \                                 In  segment BANKED_CODE, align 1, keep-with-next
   1324          static ZStatus_t zclLL_ProcessInCmd_GetGrpIDsRsp( zclIncoming_t *pInMsg,
   \                     zclLL_ProcessInCmd_GetGrpIDsRsp:
   1325                                                            zclLL_AppCallbacks_t *pCBs )
   1326          {
   \   000000   74EE         MOV     A,#-0x12
   \   000002   12....       LCALL   ?BANKED_ENTER_XDATA
   \   000005                ; Saved register size: 18
   \   000005                ; Auto size: 0
   \   000005   EA           MOV     A,R2
   \   000006   FE           MOV     R6,A
   \   000007   EB           MOV     A,R3
   \   000008   FF           MOV     R7,A
   1327            ZStatus_t status = ZFailure;
   \   000009   75..01       MOV     ?V0 + 7,#0x1
   1328          
   1329            if ( pCBs->pfnGetGrpIDsRsp )
   \   00000C   EC           MOV     A,R4
   \   00000D   2406         ADD     A,#0x6
   \   00000F   12....       LCALL   ?Subroutine77 & 0xFFFF
   \                     ??CrossCallReturnLabel_228:
   \   000012   12....       LCALL   ??Subroutine145_0 & 0xFFFF
   \                     ??CrossCallReturnLabel_255:
   \   000015   7003         JNZ     $+5
   \   000017   02....       LJMP    ??zclLL_ProcessInCmd_GetGrpIDsRsp_0 & 0xFFFF
   1330            {
   1331              zclLLGetGrpIDsRsp_t *pRsp;
   1332              uint8 cnt = pInMsg->pData[ZLL_CMDLEN_GET_GRP_IDS_RSP-1];
   \   00001A   12....       LCALL   ?Subroutine39 & 0xFFFF
   1333              uint8 rspLen = sizeof( zclLLGetGrpIDsRsp_t ) + ( cnt * sizeof( grpInfoRec_t ) );
   1334          
   1335              pRsp = (zclLLGetGrpIDsRsp_t *)zcl_mem_alloc( rspLen );
   \                     ??CrossCallReturnLabel_56:
   \   00001D                ; Setup parameters for call to function osal_mem_alloc
   \   00001D   75F003       MOV     B,#0x3
   \   000020   A4           MUL     AB
   \   000021   2405         ADD     A,#0x5
   \   000023   FA           MOV     R2,A
   \   000024   7B00         MOV     R3,#0x0
   \   000026   12....       LCALL   ??osal_mem_alloc?relay
   \   000029   8A..         MOV     ?V0 + 2,R2
   \   00002B   8B..         MOV     ?V0 + 3,R3
   1336              if ( pRsp )
   \   00002D   EA           MOV     A,R2
   \   00002E   45..         ORL     A,?V0 + 3
   \   000030   7003         JNZ     $+5
   \   000032   02....       LJMP    ??zclLL_ProcessInCmd_GetGrpIDsRsp_0 & 0xFFFF
   1337              {
   1338                uint8 *pBuf = pInMsg->pData;
   \   000035   85..82       MOV     DPL,?V0 + 4
   \   000038   85..83       MOV     DPH,?V0 + 5
   \   00003B   12....       LCALL   ?Subroutine48 & 0xFFFF
   1339                uint8 i;
   1340          
   1341                pRsp->total = *pBuf++;
   \                     ??CrossCallReturnLabel_69:
   \   00003E   12....       LCALL   ?Subroutine53 & 0xFFFF
   \                     ??CrossCallReturnLabel_79:
   \   000041   8882         MOV     DPL,R0
   \   000043   8983         MOV     DPH,R1
   \   000045   A3           INC     DPTR
   \   000046   A882         MOV     R0,DPL
   \   000048   A983         MOV     R1,DPH
   1342                pRsp->startIndex = *pBuf++;
   \   00004A   12....       LCALL   ?Subroutine125 & 0xFFFF
   \                     ??CrossCallReturnLabel_209:
   \   00004D   12....       LCALL   ?Subroutine67 & 0xFFFF
   1343                pRsp->cnt = *pBuf++;
   \                     ??CrossCallReturnLabel_107:
   \   000050   12....       LCALL   ?Subroutine125 & 0xFFFF
   \                     ??CrossCallReturnLabel_210:
   \   000053   A3           INC     DPTR
   \   000054   12....       LCALL   ?Subroutine67 & 0xFFFF
   1344                pRsp->grpInfoRec = (grpInfoRec_t *)(pRsp+1);
   \                     ??CrossCallReturnLabel_108:
   \   000057   EA           MOV     A,R2
   \   000058   2403         ADD     A,#0x3
   \   00005A   FA           MOV     R2,A
   \   00005B   EB           MOV     A,R3
   \   00005C   3400         ADDC    A,#0x0
   \   00005E   FB           MOV     R3,A
   \   00005F   E5..         MOV     A,?V0 + 2
   \   000061   2405         ADD     A,#0x5
   \   000063   FC           MOV     R4,A
   \   000064   E5..         MOV     A,?V0 + 3
   \   000066   3400         ADDC    A,#0x0
   \   000068   FD           MOV     R5,A
   \   000069   8A82         MOV     DPL,R2
   \   00006B   8B83         MOV     DPH,R3
   \   00006D   EC           MOV     A,R4
   \   00006E   F0           MOVX    @DPTR,A
   \   00006F   A3           INC     DPTR
   \   000070   ED           MOV     A,R5
   \   000071   F0           MOVX    @DPTR,A
   1345          
   1346                for ( i = 0; i < cnt; i++ )
   \   000072   75..00       MOV     ?V0 + 7,#0x0
   \   000075   8043         SJMP    ??zclLL_ProcessInCmd_GetGrpIDsRsp_1
   1347                {
   1348                  grpInfoRec_t *pRec = &(pRsp->grpInfoRec[i]);
   \                     ??zclLL_ProcessInCmd_GetGrpIDsRsp_2:
   \   000077   E5..         MOV     A,?V0 + 7
   \   000079   75F003       MOV     B,#0x3
   \   00007C   A4           MUL     AB
   \   00007D   FC           MOV     R4,A
   \   00007E   85F0..       MOV     ?V0 + 4,B
   \   000081   AD..         MOV     R5,?V0 + 4
   \   000083   8A82         MOV     DPL,R2
   \   000085   8B83         MOV     DPH,R3
   \   000087   E0           MOVX    A,@DPTR
   \   000088   2C           ADD     A,R4
   \   000089   FC           MOV     R4,A
   \   00008A   A3           INC     DPTR
   \   00008B   E0           MOVX    A,@DPTR
   \   00008C   3D           ADDC    A,R5
   \   00008D   FD           MOV     R5,A
   1349          
   1350                  pRec->grpID = BUILD_UINT16( pBuf[0], pBuf[1] );
   \   00008E   8882         MOV     DPL,R0
   \   000090   8983         MOV     DPH,R1
   \   000092   E0           MOVX    A,@DPTR
   \   000093   F5..         MOV     ?V0 + 8,A
   \   000095   A3           INC     DPTR
   \   000096   E0           MOVX    A,@DPTR
   \   000097   F5..         MOV     ?V0 + 5,A
   \   000099   E5..         MOV     A,?V0 + 8
   \   00009B   8C82         MOV     DPL,R4
   \   00009D   8D83         MOV     DPH,R5
   \   00009F   F0           MOVX    @DPTR,A
   \   0000A0   A3           INC     DPTR
   \   0000A1   E5..         MOV     A,?V0 + 5
   \   0000A3   F0           MOVX    @DPTR,A
   1351                  pBuf += 2;
   \   0000A4   E8           MOV     A,R0
   \   0000A5   2402         ADD     A,#0x2
   \   0000A7   F8           MOV     R0,A
   \   0000A8   E9           MOV     A,R1
   \   0000A9   12....       LCALL   ?Subroutine81 & 0xFFFF
   1352          
   1353                  pRec->grpType = *pBuf++;
   1354                }
   \                     ??CrossCallReturnLabel_124:
   \   0000AC   8C82         MOV     DPL,R4
   \   0000AE   8D83         MOV     DPH,R5
   \   0000B0   A3           INC     DPTR
   \   0000B1   12....       LCALL   ?Subroutine68 & 0xFFFF
   \                     ??CrossCallReturnLabel_186:
   \   0000B4   A882         MOV     R0,DPL
   \   0000B6   A983         MOV     R1,DPH
   \   0000B8   05..         INC     ?V0 + 7
   \                     ??zclLL_ProcessInCmd_GetGrpIDsRsp_1:
   \   0000BA   E5..         MOV     A,?V0 + 7
   \   0000BC   C3           CLR     C
   \   0000BD   95..         SUBB    A,?V0 + 6
   \   0000BF   40B6         JC      ??zclLL_ProcessInCmd_GetGrpIDsRsp_2
   1355          
   1356                status = pCBs->pfnGetGrpIDsRsp( &(pInMsg->msg->srcAddr), pRsp );
   \   0000C1                ; Setup parameters for indirect call
   \   0000C1   AC..         MOV     R4,?V0 + 2
   \   0000C3   12....       LCALL   ?Subroutine26 & 0xFFFF
   \                     ??CrossCallReturnLabel_28:
   \   0000C6   12....       LCALL   ?CALL_IND
   \   0000C9   E9           MOV     A,R1
   \   0000CA   F5..         MOV     ?V0 + 7,A
   1357          
   1358                zcl_mem_free( pRsp );
   \   0000CC                ; Setup parameters for call to function osal_mem_free
   \   0000CC   AA..         MOV     R2,?V0 + 2
   \   0000CE   AB..         MOV     R3,?V0 + 3
   \   0000D0   12....       LCALL   ??osal_mem_free?relay
   1359              }
   1360            }
   1361          
   1362            return ( status );
   \                     ??zclLL_ProcessInCmd_GetGrpIDsRsp_0:
   \   0000D3   A9..         MOV     R1,?V0 + 7
   \   0000D5   80..         SJMP    ??Subroutine141_0
   1363          }

   \                                 In  segment BANKED_CODE, align 1, keep-with-next
   \                     ?Subroutine77:
   \   000000   F5..         MOV     ?V0 + 0,A
   \   000002   ED           MOV     A,R5
   \   000003                REQUIRE ??Subroutine140_0
   \   000003                ; // Fall through to label ??Subroutine140_0

   \                                 In  segment BANKED_CODE, align 1, keep-with-next
   \                     ?Subroutine67:
   \   000000   A3           INC     DPTR
   \   000001   F0           MOVX    @DPTR,A
   \   000002   8882         MOV     DPL,R0
   \   000004   8983         MOV     DPH,R1
   \   000006   A3           INC     DPTR
   \   000007   08           INC     R0
   \   000008   A983         MOV     R1,DPH
   \   00000A   22           RET

   \                                 In  segment BANKED_CODE, align 1, keep-with-next
   \                     ?Subroutine39:
   \   000000   EE           MOV     A,R6
   \   000001   2408         ADD     A,#0x8
   \   000003   F5..         MOV     ?V0 + 4,A
   \   000005   EF           MOV     A,R7
   \   000006   12....       LCALL   ?Subroutine106 & 0xFFFF
   \                     ??CrossCallReturnLabel_169:
   \   000009   12....       LCALL   ?Subroutine93 & 0xFFFF
   \                     ??CrossCallReturnLabel_360:
   \   00000C   A3           INC     DPTR
   \   00000D   A3           INC     DPTR
   \   00000E   E0           MOVX    A,@DPTR
   \   00000F   F5..         MOV     ?V0 + 6,A
   \   000011   22           RET

   \                                 In  segment BANKED_CODE, align 1, keep-with-next
   \                     ?Subroutine26:
   \   000000   AD..         MOV     R5,?V0 + 3
   \   000002   8E82         MOV     DPL,R6
   \   000004   8F83         MOV     DPH,R7
   \   000006   12....       LCALL   ?Subroutine88 & 0xFFFF
   \                     ??CrossCallReturnLabel_141:
   \   000009   85..82       MOV     DPL,?V0 + 0
   \   00000C   85..83       MOV     DPH,?V0 + 1
   \   00000F   12....       LCALL   ?Subroutine93 & 0xFFFF
   \                     ??CrossCallReturnLabel_359:
   \   000012   22           RET

   \                                 In  segment BANKED_CODE, align 1, keep-with-next
   \                     ?Subroutine48:
   \   000000   12....       LCALL   ?Subroutine124 & 0xFFFF
   \                     ??CrossCallReturnLabel_423:
   \   000003   F9           MOV     R1,A
   \   000004   8882         MOV     DPL,R0
   \   000006   8983         MOV     DPH,R1
   \   000008   22           RET
   1364          
   1365          /*********************************************************************
   1366           * @fn      zclLL_ProcessInCmd_GetEPListRsp
   1367           *
   1368           * @brief   Process in the received Get Endpoint List Response command.
   1369           *
   1370           * @param   pInMsg - pointer to the incoming message
   1371           * @param   pCBs - pointer to the application callbacks
   1372           *
   1373           * @return  ZStatus_t
   1374           */

   \                                 In  segment BANKED_CODE, align 1, keep-with-next
   1375          static ZStatus_t zclLL_ProcessInCmd_GetEPListRsp( zclIncoming_t *pInMsg,
   \                     zclLL_ProcessInCmd_GetEPListRsp:
   1376                                                            zclLL_AppCallbacks_t *pCBs )
   1377          {
   \   000000   74EC         MOV     A,#-0x14
   \   000002   12....       LCALL   ?BANKED_ENTER_XDATA
   \   000005                ; Saved register size: 20
   \   000005                ; Auto size: 0
   \   000005   EA           MOV     A,R2
   \   000006   FE           MOV     R6,A
   \   000007   EB           MOV     A,R3
   \   000008   FF           MOV     R7,A
   1378            ZStatus_t status = ZFailure;
   \   000009   75..01       MOV     ?V0 + 7,#0x1
   1379          
   1380            if ( pCBs->pfnGetEPListRsp )
   \   00000C   EC           MOV     A,R4
   \   00000D   2408         ADD     A,#0x8
   \   00000F   12....       LCALL   ?Subroutine77 & 0xFFFF
   \                     ??CrossCallReturnLabel_229:
   \   000012   12....       LCALL   ??Subroutine145_0 & 0xFFFF
   \                     ??CrossCallReturnLabel_256:
   \   000015   7003         JNZ     $+5
   \   000017   02....       LJMP    ??zclLL_ProcessInCmd_GetEPListRsp_0 & 0xFFFF
   1381            {
   1382              zclLLGetEPListRsp_t *pRsp;
   1383              uint8 cnt = pInMsg->pData[ZLL_CMDLEN_GET_EP_LIST_RSP-1];
   \   00001A   12....       LCALL   ?Subroutine39 & 0xFFFF
   1384              uint8 rspLen = sizeof( zclLLGetEPListRsp_t ) + ( cnt * sizeof( epInfoRec_t ) );
   1385          
   1386              pRsp = (zclLLGetEPListRsp_t *)zcl_mem_alloc( rspLen );
   \                     ??CrossCallReturnLabel_57:
   \   00001D                ; Setup parameters for call to function osal_mem_alloc
   \   00001D   33           RLC     A
   \   00001E   33           RLC     A
   \   00001F   33           RLC     A
   \   000020   54F8         ANL     A,#0xf8
   \   000022   2405         ADD     A,#0x5
   \   000024   FA           MOV     R2,A
   \   000025   7B00         MOV     R3,#0x0
   \   000027   12....       LCALL   ??osal_mem_alloc?relay
   \   00002A   8A..         MOV     ?V0 + 2,R2
   \   00002C   8B..         MOV     ?V0 + 3,R3
   1387              if ( pRsp )
   \   00002E   EA           MOV     A,R2
   \   00002F   45..         ORL     A,?V0 + 3
   \   000031   7003         JNZ     $+5
   \   000033   02....       LJMP    ??zclLL_ProcessInCmd_GetEPListRsp_0 & 0xFFFF
   1388              {
   1389                uint8 *pBuf = pInMsg->pData;
   \   000036   85..82       MOV     DPL,?V0 + 4
   \   000039   85..83       MOV     DPH,?V0 + 5
   \   00003C   12....       LCALL   ??Subroutine144_0 & 0xFFFF
   1390                uint8 i;
   1391          
   1392                pRsp->total = *pBuf++;
   \                     ??CrossCallReturnLabel_239:
   \   00003F   8A82         MOV     DPL,R2
   \   000041   8B83         MOV     DPH,R3
   \   000043   12....       LCALL   ?Subroutine97 & 0xFFFF
   \                     ??CrossCallReturnLabel_153:
   \   000046   12....       LCALL   ?Subroutine66 & 0xFFFF
   1393                pRsp->startIndex = *pBuf++;
   \                     ??CrossCallReturnLabel_105:
   \   000049   12....       LCALL   ?Subroutine97 & 0xFFFF
   \                     ??CrossCallReturnLabel_154:
   \   00004C   12....       LCALL   ?Subroutine63 & 0xFFFF
   1394                pRsp->cnt = *pBuf++;
   \                     ??CrossCallReturnLabel_231:
   \   00004F   12....       LCALL   ?Subroutine51 & 0xFFFF
   \                     ??CrossCallReturnLabel_73:
   \   000052   12....       LCALL   ??Subroutine142_0 & 0xFFFF
   1395                pRsp->epInfoRec = (epInfoRec_t *)(pRsp+1);
   \                     ??CrossCallReturnLabel_230:
   \   000055   E5..         MOV     A,?V0 + 2
   \   000057   2403         ADD     A,#0x3
   \   000059   F8           MOV     R0,A
   \   00005A   E5..         MOV     A,?V0 + 3
   \   00005C   3400         ADDC    A,#0x0
   \   00005E   F9           MOV     R1,A
   \   00005F   E8           MOV     A,R0
   \   000060   FC           MOV     R4,A
   \   000061   E9           MOV     A,R1
   \   000062   FD           MOV     R5,A
   \   000063   E5..         MOV     A,?V0 + 2
   \   000065   2405         ADD     A,#0x5
   \   000067   F8           MOV     R0,A
   \   000068   E5..         MOV     A,?V0 + 3
   \   00006A   3400         ADDC    A,#0x0
   \   00006C   F9           MOV     R1,A
   \   00006D   8C82         MOV     DPL,R4
   \   00006F   8D83         MOV     DPH,R5
   \   000071   12....       LCALL   ??Subroutine151_0 & 0xFFFF
   1396          
   1397                for ( i = 0; i < cnt; i++ )
   \                     ??CrossCallReturnLabel_313:
   \   000074   75..00       MOV     ?V0 + 4,#0x0
   \   000077   803E         SJMP    ??zclLL_ProcessInCmd_GetEPListRsp_1
   1398                {
   1399                  epInfoRec_t *pRec = &(pRsp->epInfoRec[i]);
   \                     ??zclLL_ProcessInCmd_GetEPListRsp_2:
   \   000079   85....       MOV     ?V0 + 8,?V0 + 4
   \   00007C   75..00       MOV     ?V0 + 9,#0x0
   \   00007F   7403         MOV     A,#0x3
   \   000081   78..         MOV     R0,#?V0 + 8
   \   000083   12....       LCALL   ?S_SHL
   \   000086   8C82         MOV     DPL,R4
   \   000088   8D83         MOV     DPH,R5
   \   00008A   E0           MOVX    A,@DPTR
   \   00008B   25..         ADD     A,?V0 + 8
   \   00008D   F8           MOV     R0,A
   \   00008E   A3           INC     DPTR
   \   00008F   E0           MOVX    A,@DPTR
   \   000090   35..         ADDC    A,?V0 + 9
   \   000092   F9           MOV     R1,A
   1400          
   1401                  pRec->nwkAddr = BUILD_UINT16( pBuf[0], pBuf[1] );
   \   000093   8A82         MOV     DPL,R2
   \   000095   8B83         MOV     DPH,R3
   \   000097   12....       LCALL   ?Subroutine89 & 0xFFFF
   \                     ??CrossCallReturnLabel_142:
   \   00009A   12....       LCALL   ?Subroutine55 & 0xFFFF
   1402                  pBuf += 2;
   1403          
   1404                  pRec->endpoint = *pBuf++;
   \                     ??CrossCallReturnLabel_84:
   \   00009D   12....       LCALL   ?Subroutine66 & 0xFFFF
   1405          
   1406                  pRec->profileID = BUILD_UINT16( pBuf[0], pBuf[1] );
   \                     ??CrossCallReturnLabel_106:
   \   0000A0   12....       LCALL   ?Subroutine30 & 0xFFFF
   1407                  pBuf += 2;
   1408          
   1409                  pRec->deviceID = BUILD_UINT16( pBuf[0], pBuf[1] );
   1410                  pBuf += 2;
   1411          
   1412                  pRec->version = *pBuf++;
   1413                }
   \                     ??CrossCallReturnLabel_37:
   \   0000A3   12....       LCALL   ?Subroutine99 & 0xFFFF
   \                     ??CrossCallReturnLabel_159:
   \   0000A6   12....       LCALL   ?Subroutine30 & 0xFFFF
   \                     ??CrossCallReturnLabel_38:
   \   0000A9   A3           INC     DPTR
   \   0000AA   A3           INC     DPTR
   \   0000AB   12....       LCALL   ?Subroutine55 & 0xFFFF
   \                     ??CrossCallReturnLabel_85:
   \   0000AE   A3           INC     DPTR
   \   0000AF   A3           INC     DPTR
   \   0000B0   A3           INC     DPTR
   \   0000B1   A3           INC     DPTR
   \   0000B2   12....       LCALL   ?Subroutine63 & 0xFFFF
   \                     ??CrossCallReturnLabel_232:
   \   0000B5   05..         INC     ?V0 + 4
   \                     ??zclLL_ProcessInCmd_GetEPListRsp_1:
   \   0000B7   E5..         MOV     A,?V0 + 4
   \   0000B9   C3           CLR     C
   \   0000BA   95..         SUBB    A,?V0 + 6
   \   0000BC   40BB         JC      ??zclLL_ProcessInCmd_GetEPListRsp_2
   1414          
   1415                status = pCBs->pfnGetEPListRsp( &(pInMsg->msg->srcAddr), pRsp );
   \   0000BE                ; Setup parameters for indirect call
   \   0000BE   1C           DEC     R4
   \   0000BF   1C           DEC     R4
   \   0000C0   1C           DEC     R4
   \   0000C1   12....       LCALL   ?Subroutine26 & 0xFFFF
   \                     ??CrossCallReturnLabel_29:
   \   0000C4   12....       LCALL   ?CALL_IND
   \   0000C7   E9           MOV     A,R1
   \   0000C8   F5..         MOV     ?V0 + 7,A
   1416          
   1417                zcl_mem_free( pRsp );
   \   0000CA                ; Setup parameters for call to function osal_mem_free
   \   0000CA   AA..         MOV     R2,?V0 + 2
   \   0000CC   AB..         MOV     R3,?V0 + 3
   \   0000CE   12....       LCALL   ??osal_mem_free?relay
   1418              }
   1419            }
   1420          
   1421            return ( status );
   \                     ??zclLL_ProcessInCmd_GetEPListRsp_0:
   \   0000D1   A9..         MOV     R1,?V0 + 7
   \   0000D3   02....       LJMP    ?Subroutine3 & 0xFFFF
   1422          }

   \                                 In  segment BANKED_CODE, align 1, keep-with-next
   \                     ?Subroutine66:
   \   000000   12....       LCALL   ?Subroutine103 & 0xFFFF
   \                     ??CrossCallReturnLabel_234:
   \   000003   AA82         MOV     R2,DPL
   \   000005   AB83         MOV     R3,DPH
   \   000007   22           RET

   \                                 In  segment BANKED_CODE, align 1, keep-with-next
   \                     ?Subroutine63:
   \   000000   A3           INC     DPTR
   \   000001                REQUIRE ??Subroutine142_0
   \   000001                ; // Fall through to label ??Subroutine142_0

   \                                 In  segment BANKED_CODE, align 1, keep-with-next
   \                     ??Subroutine142_0:
   \   000000   12....       LCALL   ?Subroutine103 & 0xFFFF
   \                     ??CrossCallReturnLabel_235:
   \   000003   0A           INC     R2
   \   000004   AB83         MOV     R3,DPH
   \   000006   22           RET

   \                                 In  segment BANKED_CODE, align 1, keep-with-next
   \                     ?Subroutine55:
   \   000000   12....       LCALL   ?Subroutine99 & 0xFFFF
   \                     ??CrossCallReturnLabel_160:
   \   000003   E0           MOVX    A,@DPTR
   \   000004   8882         MOV     DPL,R0
   \   000006   8983         MOV     DPH,R1
   \   000008   A3           INC     DPTR
   \   000009   A3           INC     DPTR
   \   00000A   22           RET

   \                                 In  segment BANKED_CODE, align 1, keep-with-next
   \                     ?Subroutine99:
   \   000000   F0           MOVX    @DPTR,A
   \   000001   A3           INC     DPTR
   \   000002   E5..         MOV     A,?V0 + 9
   \   000004   F0           MOVX    @DPTR,A
   \   000005   EA           MOV     A,R2
   \   000006   2402         ADD     A,#0x2
   \   000008   FA           MOV     R2,A
   \   000009   EB           MOV     A,R3
   \   00000A   3400         ADDC    A,#0x0
   \   00000C   FB           MOV     R3,A
   \   00000D   8A82         MOV     DPL,R2
   \   00000F   8B83         MOV     DPH,R3
   \   000011   22           RET

   \                                 In  segment BANKED_CODE, align 1, keep-with-next
   \                     ?Subroutine30:
   \   000000   12....       LCALL   ?Subroutine89 & 0xFFFF
   \                     ??CrossCallReturnLabel_143:
   \   000003   A3           INC     DPTR
   \   000004   A3           INC     DPTR
   \   000005   A3           INC     DPTR
   \   000006   22           RET

   \                                 In  segment BANKED_CODE, align 1, keep-with-next
   \                     ?Subroutine89:
   \   000000   E0           MOVX    A,@DPTR
   \   000001   F5..         MOV     ?V0 + 10,A
   \   000003   A3           INC     DPTR
   \   000004   E0           MOVX    A,@DPTR
   \   000005   F5..         MOV     ?V0 + 9,A
   \   000007   E5..         MOV     A,?V0 + 10
   \   000009   8882         MOV     DPL,R0
   \   00000B   8983         MOV     DPH,R1
   \   00000D   22           RET

   \                                 In  segment BANKED_CODE, align 1, keep-with-next
   \                     ?Subroutine51:
   \   000000   12....       LCALL   ?Subroutine97 & 0xFFFF
   \                     ??CrossCallReturnLabel_155:
   \   000003   A3           INC     DPTR
   \   000004   A3           INC     DPTR
   \   000005   22           RET

   \                                 In  segment BANKED_CODE, align 1, keep-with-next
   \                     ?Subroutine97:
   \   000000   E0           MOVX    A,@DPTR
   \   000001   85..82       MOV     DPL,?V0 + 2
   \   000004   85..83       MOV     DPH,?V0 + 3
   \   000007   22           RET
   1423          
   1424          /*********************************************************************
   1425          * Inter-PAN functions
   1426          **********************************************************************/
   1427          
   1428          /*********************************************************************
   1429           * @fn      zclLL_HdlInInterPANCommands
   1430           *
   1431           * @brief   Callback from ZCL to process incoming Inter-PAN Commands
   1432           *          specific to this cluster library
   1433          
   1434           * @param   pInMsg - pointer to the incoming message
   1435           *
   1436           * @return  ZStatus_t
   1437           */
   1438          static ZStatus_t zclLL_HdlInInterPANCommands( zclIncoming_t *pInMsg )
   1439          {
   1440            ZStatus_t status;
   1441          
   1442            // make sure Inter-PAN callbacks exist
   1443            if ( pInterPANCBs == NULL )
   1444              return ( ZFailure );
   1445          
   1446            switch ( pInMsg->msg->clusterId )
   1447            {
   1448              case ZCL_CLUSTER_ID_LIGHT_LINK:
   1449                status = zclLL_ProcessInLLInterPANCmds( pInMsg );
   1450                break;
   1451          
   1452              default:
   1453                status = ZFailure;
   1454                break;
   1455            }
   1456          
   1457            return ( status );
   1458          }
   1459          
   1460          /*********************************************************************
   1461           * @fn      zclLL_ProcessInLLInterPANCmds
   1462           *
   1463           * @brief   Callback from ZCL to process incoming Inter-PAN Commands
   1464           *          specific to this cluster library on a command ID basis
   1465           *
   1466           * @param   pInMsg - pointer to the incoming message
   1467           *
   1468           * @return  ZStatus_t
   1469           */

   \                                 In  segment BANKED_CODE, align 1, keep-with-next
   \                     ?Subroutine45:
   \   000000   7904         MOV     R1,#0x4
   \   000002                REQUIRE ??Subroutine143_0
   \   000002                ; // Fall through to label ??Subroutine143_0

   \                                 In  segment BANKED_CODE, align 1, keep-with-next
   \                     ??Subroutine143_0:
   \   000000   85..82       MOV     DPL,?V0 + 0
   \   000003   85..83       MOV     DPH,?V0 + 1
   \   000006                REQUIRE ??Subroutine144_0
   \   000006                ; // Fall through to label ??Subroutine144_0

   \                                 In  segment BANKED_CODE, align 1, keep-with-next
   \                     ?Subroutine11:
   \   000000   F582         MOV     DPL,A
   \   000002   E8           MOV     A,R0
   \   000003   3400         ADDC    A,#0x0
   \   000005                REQUIRE ??Subroutine145_0
   \   000005                ; // Fall through to label ??Subroutine145_0

   \                                 In  segment BANKED_CODE, align 1, keep-with-next
   1470          static ZStatus_t zclLL_ProcessInLLInterPANCmds( zclIncoming_t *pInMsg )
   \                     zclLL_ProcessInLLInterPANCmds:
   1471          {
   \   000000   74EE         MOV     A,#-0x12
   \   000002   12....       LCALL   ?BANKED_ENTER_XDATA
   \   000005                ; Saved register size: 18
   \   000005                ; Auto size: 23
   \   000005   74E9         MOV     A,#-0x17
   \   000007   12....       LCALL   ?ALLOC_XSTACK8
   \   00000A   EA           MOV     A,R2
   \   00000B   FE           MOV     R6,A
   \   00000C   EB           MOV     A,R3
   \   00000D   FF           MOV     R7,A
   1472            ZStatus_t status = SUCCESS;
   \   00000E   75..00       MOV     ?V0 + 2,#0x0
   1473          
   1474            switch ( pInMsg->hdr.commandID )
   \   000011   EE           MOV     A,R6
   \   000012   2406         ADD     A,#0x6
   \   000014   F5..         MOV     ?V0 + 4,A
   \   000016   EF           MOV     A,R7
   \   000017   3400         ADDC    A,#0x0
   \   000019   F5..         MOV     ?V0 + 5,A
   \   00001B   EE           MOV     A,R6
   \   00001C   2408         ADD     A,#0x8
   \   00001E   F5..         MOV     ?V0 + 0,A
   \   000020   EF           MOV     A,R7
   \   000021   3400         ADDC    A,#0x0
   \   000023   F5..         MOV     ?V0 + 1,A
   \   000025   8E82         MOV     DPL,R6
   \   000027   8F83         MOV     DPH,R7
   \   000029   A3           INC     DPTR
   \   00002A   A3           INC     DPTR
   \   00002B   A3           INC     DPTR
   \   00002C   A3           INC     DPTR
   \   00002D   A3           INC     DPTR
   \   00002E   A3           INC     DPTR
   \   00002F   A3           INC     DPTR
   \   000030   E0           MOVX    A,@DPTR
   \   000031   604D         JZ      ??zclLL_ProcessInLLInterPANCmds_0
   \   000033   14           DEC     A
   \   000034   7003         JNZ     $+5
   \   000036   02....       LJMP    ??zclLL_ProcessInLLInterPANCmds_1 & 0xFFFF
   \   000039   14           DEC     A
   \   00003A   7003         JNZ     $+5
   \   00003C   02....       LJMP    ??zclLL_ProcessInLLInterPANCmds_2 & 0xFFFF
   \   00003F   14           DEC     A
   \   000040   7003         JNZ     $+5
   \   000042   02....       LJMP    ??zclLL_ProcessInLLInterPANCmds_3 & 0xFFFF
   \   000045   24FD         ADD     A,#-0x3
   \   000047   7003         JNZ     $+5
   \   000049   02....       LJMP    ??zclLL_ProcessInLLInterPANCmds_4 & 0xFFFF
   \   00004C   14           DEC     A
   \   00004D   7003         JNZ     $+5
   \   00004F   02....       LJMP    ??zclLL_ProcessInLLInterPANCmds_5 & 0xFFFF
   \   000052   24F7         ADD     A,#-0x9
   \   000054   7003         JNZ     $+5
   \   000056   02....       LJMP    ??zclLL_ProcessInLLInterPANCmds_6 & 0xFFFF
   \   000059   14           DEC     A
   \   00005A   7003         JNZ     $+5
   \   00005C   02....       LJMP    ??zclLL_ProcessInLLInterPANCmds_7 & 0xFFFF
   \   00005F   14           DEC     A
   \   000060   7003         JNZ     $+5
   \   000062   02....       LJMP    ??zclLL_ProcessInLLInterPANCmds_8 & 0xFFFF
   \   000065   14           DEC     A
   \   000066   7003         JNZ     $+5
   \   000068   02....       LJMP    ??zclLL_ProcessInLLInterPANCmds_9 & 0xFFFF
   \   00006B   14           DEC     A
   \   00006C   7003         JNZ     $+5
   \   00006E   02....       LJMP    ??zclLL_ProcessInLLInterPANCmds_10 & 0xFFFF
   \   000071   14           DEC     A
   \   000072   7003         JNZ     $+5
   \   000074   02....       LJMP    ??zclLL_ProcessInLLInterPANCmds_11 & 0xFFFF
   \   000077   14           DEC     A
   \   000078   7003         JNZ     $+5
   \   00007A   02....       LJMP    ??zclLL_ProcessInLLInterPANCmds_12 & 0xFFFF
   \   00007D   02....       LJMP    ??zclLL_ProcessInLLInterPANCmds_13 & 0xFFFF
   1475            {
   1476              case COMMAND_ZLL_SCAN_REQ:
   1477                status = zclLL_ProcessInCmd_ScanReq( pInMsg );
   \                     ??zclLL_ProcessInLLInterPANCmds_0:
   \   000080   90....       MOV     DPTR,#pInterPANCBs
   \   000083   12....       LCALL   ??Subroutine157_0 & 0xFFFF
   \                     ??CrossCallReturnLabel_347:
   \   000086   12....       LCALL   ??Subroutine146_0 & 0xFFFF
   \                     ??CrossCallReturnLabel_251:
   \   000089   7003         JNZ     $+5
   \   00008B   02....       LJMP    ??zclLL_ProcessInLLInterPANCmds_14 & 0xFFFF
   \   00008E                ; Setup parameters for call to function osal_build_uint32
   \   00008E   12....       LCALL   ?Subroutine45 & 0xFFFF
   \                     ??CrossCallReturnLabel_242:
   \   000091   12....       LCALL   ??osal_build_uint32?relay
   \   000094   740F         MOV     A,#0xf
   \   000096   12....       LCALL   ?XSTACK_DISP0_8
   \   000099   12....       LCALL   ?XSTORE_R2345
   \   00009C   12....       LCALL   ?Subroutine12 & 0xFFFF
   \                     ??CrossCallReturnLabel_306:
   \   00009F   C0E0         PUSH    A
   \   0000A1   7413         MOV     A,#0x13
   \   0000A3   12....       LCALL   ?XSTACK_DISP0_8
   \   0000A6   D0E0         POP     A
   \   0000A8   F0           MOVX    @DPTR,A
   \   0000A9   85..82       MOV     DPL,?V0 + 0
   \   0000AC   85..83       MOV     DPH,?V0 + 1
   \   0000AF   12....       LCALL   ?Subroutine42 & 0xFFFF
   \                     ??CrossCallReturnLabel_60:
   \   0000B2   A3           INC     DPTR
   \   0000B3   E0           MOVX    A,@DPTR
   \   0000B4   C0E0         PUSH    A
   \   0000B6   7415         MOV     A,#0x15
   \   0000B8   12....       LCALL   ?XSTACK_DISP0_8
   \   0000BB   D0E0         POP     A
   \   0000BD   12....       LCALL   ?Subroutine69 & 0xFFFF
   \                     ??CrossCallReturnLabel_109:
   \   0000C0   740F         MOV     A,#0xf
   \   0000C2   12....       LCALL   ?XSTACK_DISP0_8
   \   0000C5   12....       LCALL   ?Subroutine15 & 0xFFFF
   \                     ??CrossCallReturnLabel_8:
   \   0000C8   02....       LJMP    ??CrossCallReturnLabel_280 & 0xFFFF
   1478                break;
   1479          
   1480              case COMMAND_ZLL_DEVICE_INFO_REQ:
   1481                status = zclLL_ProcessInCmd_DeviceInfoReq( pInMsg );
   \                     ??zclLL_ProcessInLLInterPANCmds_2:
   \   0000CB   90....       MOV     DPTR,#pInterPANCBs
   \   0000CE   12....       LCALL   ??Subroutine157_0 & 0xFFFF
   \                     ??CrossCallReturnLabel_348:
   \   0000D1   A3           INC     DPTR
   \   0000D2   A3           INC     DPTR
   \   0000D3   12....       LCALL   ??Subroutine146_0 & 0xFFFF
   \                     ??CrossCallReturnLabel_252:
   \   0000D6   7003         JNZ     $+5
   \   0000D8   02....       LJMP    ??zclLL_ProcessInLLInterPANCmds_14 & 0xFFFF
   \   0000DB                ; Setup parameters for call to function osal_build_uint32
   \   0000DB   12....       LCALL   ?Subroutine45 & 0xFFFF
   \                     ??CrossCallReturnLabel_243:
   \   0000DE   12....       LCALL   ??osal_build_uint32?relay
   \   0000E1   85..82       MOV     DPL,?XSP + 0
   \   0000E4   85..83       MOV     DPH,?XSP + 1
   \   0000E7   12....       LCALL   ?XSTORE_R2345
   \   0000EA   12....       LCALL   ?Subroutine12 & 0xFFFF
   \                     ??CrossCallReturnLabel_307:
   \   0000ED   C0E0         PUSH    A
   \   0000EF   7404         MOV     A,#0x4
   \   0000F1   12....       LCALL   ?XSTACK_DISP0_8
   \   0000F4   D0E0         POP     A
   \   0000F6   12....       LCALL   ?Subroutine69 & 0xFFFF
   \                     ??CrossCallReturnLabel_110:
   \   0000F9   85..82       MOV     DPL,?XSP + 0
   \   0000FC   85..83       MOV     DPH,?XSP + 1
   \   0000FF   12....       LCALL   ?Subroutine15 & 0xFFFF
   \                     ??CrossCallReturnLabel_9:
   \   000102   804A         SJMP    ??zclLL_ProcessInLLInterPANCmds_15
   1482                break;
   1483          
   1484              case COMMAND_ZLL_IDENTIFY_REQ:
   1485                status = zclLL_ProcessInCmd_IdentifyReq( pInMsg );
   \                     ??zclLL_ProcessInLLInterPANCmds_4:
   \   000104   90....       MOV     DPTR,#pInterPANCBs
   \   000107   12....       LCALL   ?Subroutine42 & 0xFFFF
   \                     ??CrossCallReturnLabel_61:
   \   00010A   12....       LCALL   ??Subroutine146_0 & 0xFFFF
   \                     ??CrossCallReturnLabel_253:
   \   00010D   7003         JNZ     $+5
   \   00010F   02....       LJMP    ??zclLL_ProcessInLLInterPANCmds_14 & 0xFFFF
   \   000112                ; Setup parameters for call to function osal_build_uint32
   \   000112   12....       LCALL   ?Subroutine45 & 0xFFFF
   \                     ??CrossCallReturnLabel_244:
   \   000115   12....       LCALL   ??osal_build_uint32?relay
   \   000118   7409         MOV     A,#0x9
   \   00011A   12....       LCALL   ?XSTACK_DISP0_8
   \   00011D   12....       LCALL   ?XSTORE_R2345
   \   000120   85..82       MOV     DPL,?V0 + 0
   \   000123   85..83       MOV     DPH,?V0 + 1
   \   000126   12....       LCALL   ?Subroutine48 & 0xFFFF
   \                     ??CrossCallReturnLabel_70:
   \   000129   A3           INC     DPTR
   \   00012A   A3           INC     DPTR
   \   00012B   A3           INC     DPTR
   \   00012C   A3           INC     DPTR
   \   00012D   E0           MOVX    A,@DPTR
   \   00012E   FA           MOV     R2,A
   \   00012F   8882         MOV     DPL,R0
   \   000131   8983         MOV     DPH,R1
   \   000133   A3           INC     DPTR
   \   000134   A3           INC     DPTR
   \   000135   A3           INC     DPTR
   \   000136   A3           INC     DPTR
   \   000137   A3           INC     DPTR
   \   000138   E0           MOVX    A,@DPTR
   \   000139   F9           MOV     R1,A
   \   00013A   EA           MOV     A,R2
   \   00013B   F8           MOV     R0,A
   \   00013C   740D         MOV     A,#0xd
   \   00013E   12....       LCALL   ?XSTACK_DISP0_8
   \   000141   12....       LCALL   ??Subroutine151_0 & 0xFFFF
   \                     ??CrossCallReturnLabel_314:
   \   000144                ; Setup parameters for indirect call
   \   000144   7409         MOV     A,#0x9
   \   000146   12....       LCALL   ?XSTACK_DISP0_8
   \   000149   12....       LCALL   ?Subroutine15 & 0xFFFF
   \                     ??CrossCallReturnLabel_10:
   \   00014C   A3           INC     DPTR
   \   00014D   A3           INC     DPTR
   \                     ??zclLL_ProcessInLLInterPANCmds_15:
   \   00014E   A3           INC     DPTR
   \   00014F   A3           INC     DPTR
   \   000150   02....       LJMP    ??CrossCallReturnLabel_280 & 0xFFFF
   1486                break;
   1487          
   1488              case COMMAND_ZLL_RESET_TO_FN_REQ:
   1489                status = zclLL_ProcessInCmd_ResetToFNReq( pInMsg );
   \                     ??zclLL_ProcessInLLInterPANCmds_5:
   \   000153   12....       LCALL   ??Subroutine160_0 & 0xFFFF
   \                     ??CrossCallReturnLabel_374:
   \   000156   2406         ADD     A,#0x6
   \   000158   12....       LCALL   ?Subroutine11 & 0xFFFF
   \                     ??CrossCallReturnLabel_257:
   \   00015B   7003         JNZ     $+5
   \   00015D   02....       LJMP    ??zclLL_ProcessInLLInterPANCmds_14 & 0xFFFF
   \   000160                ; Setup parameters for call to function osal_build_uint32
   \   000160   12....       LCALL   ?Subroutine45 & 0xFFFF
   \                     ??CrossCallReturnLabel_245:
   \   000163   12....       LCALL   ??osal_build_uint32?relay
   \   000166   7405         MOV     A,#0x5
   \   000168   12....       LCALL   ?XSTACK_DISP0_8
   \   00016B   12....       LCALL   ?XSTORE_R2345
   \   00016E                ; Setup parameters for indirect call
   \   00016E   7405         MOV     A,#0x5
   \   000170   12....       LCALL   ?XSTACK_DISP0_8
   \   000173   12....       LCALL   ??Subroutine166_0 & 0xFFFF
   \                     ??CrossCallReturnLabel_415:
   \   000176   2406         ADD     A,#0x6
   \   000178   02....       LJMP    ??zclLL_ProcessInLLInterPANCmds_16 & 0xFFFF
   1490                break;
   1491          
   1492              case COMMAND_ZLL_NWK_START_REQ:
   1493                status = zclLL_ProcessInCmd_NwkStartReq( pInMsg );
   \                     ??zclLL_ProcessInLLInterPANCmds_6:
   \   00017B                ; Setup parameters for call to function zclLL_ProcessInCmd_NwkStartReq
   \   00017B   12....       LCALL   ??zclLL_ProcessInCmd_NwkStartReq?relay
   \   00017E   02....       LJMP    ??zclLL_ProcessInLLInterPANCmds_17 & 0xFFFF
   1494                break;
   1495          
   1496              case COMMAND_ZLL_NWK_JOIN_RTR_REQ:
   1497                status = zclLL_ProcessInCmd_NwkJoinRtrReq( pInMsg );
   \                     ??zclLL_ProcessInLLInterPANCmds_8:
   \   000181   75..00       MOV     ?V0 + 6,#0x0
   \   000184   12....       LCALL   ??Subroutine160_0 & 0xFFFF
   \                     ??CrossCallReturnLabel_375:
   \   000187   240A         ADD     A,#0xa
   \   000189   12....       LCALL   ?Subroutine11 & 0xFFFF
   \                     ??CrossCallReturnLabel_258:
   \   00018C   603B         JZ      ??zclLL_ProcessInLLInterPANCmds_18
   \   00018E                ; Setup parameters for call to function osal_mem_alloc
   \   00018E   7A2F         MOV     R2,#0x2f
   \   000190   7B00         MOV     R3,#0x0
   \   000192   12....       LCALL   ??osal_mem_alloc?relay
   \   000195   8A..         MOV     ?V0 + 2,R2
   \   000197   8B..         MOV     ?V0 + 3,R3
   \   000199   EA           MOV     A,R2
   \   00019A   45..         ORL     A,?V0 + 3
   \   00019C   602B         JZ      ??zclLL_ProcessInLLInterPANCmds_18
   \   00019E                ; Setup parameters for call to function zclLL_ParseInCmd_NwkJoinReq
   \   00019E   AC..         MOV     R4,?V0 + 2
   \   0001A0   AD..         MOV     R5,?V0 + 3
   \   0001A2   12....       LCALL   ??Subroutine143_0 & 0xFFFF
   \                     ??CrossCallReturnLabel_240:
   \   0001A5   12....       LCALL   ??zclLL_ParseInCmd_NwkJoinReq?relay
   \   0001A8                ; Setup parameters for indirect call
   \   0001A8   85..82       MOV     DPL,?V0 + 4
   \   0001AB   85..83       MOV     DPH,?V0 + 5
   \   0001AE   E0           MOVX    A,@DPTR
   \   0001AF   F9           MOV     R1,A
   \   0001B0   AC..         MOV     R4,?V0 + 2
   \   0001B2   AD..         MOV     R5,?V0 + 3
   \   0001B4   12....       LCALL   ??Subroutine167_0 & 0xFFFF
   \                     ??CrossCallReturnLabel_413:
   \   0001B7   240A         ADD     A,#0xa
   \   0001B9   12....       LCALL   ?Subroutine43 & 0xFFFF
   \                     ??CrossCallReturnLabel_350:
   \   0001BC   12....       LCALL   ?CALL_IND
   \   0001BF   E9           MOV     A,R1
   \   0001C0   F5..         MOV     ?V0 + 6,A
   \   0001C2                ; Setup parameters for call to function osal_mem_free
   \   0001C2   AA..         MOV     R2,?V0 + 2
   \   0001C4   AB..         MOV     R3,?V0 + 3
   \   0001C6   12....       LCALL   ??osal_mem_free?relay
   \                     ??zclLL_ProcessInLLInterPANCmds_18:
   \   0001C9   85....       MOV     ?V0 + 2,?V0 + 6
   1498                break;
   \   0001CC   02....       LJMP    ??zclLL_ProcessInLLInterPANCmds_14 & 0xFFFF
   1499          
   1500              case COMMAND_ZLL_NWK_JOIN_ED_REQ:
   1501                status = zclLL_ProcessInCmd_NwkJoinEDReq( pInMsg );
   \                     ??zclLL_ProcessInLLInterPANCmds_10:
   \   0001CF   75..00       MOV     ?V0 + 3,#0x0
   \   0001D2   12....       LCALL   ??Subroutine160_0 & 0xFFFF
   \                     ??CrossCallReturnLabel_376:
   \   0001D5   240C         ADD     A,#0xc
   \   0001D7   12....       LCALL   ?Subroutine11 & 0xFFFF
   \                     ??CrossCallReturnLabel_259:
   \   0001DA   603B         JZ      ??zclLL_ProcessInLLInterPANCmds_19
   \   0001DC                ; Setup parameters for call to function osal_mem_alloc
   \   0001DC   7A2F         MOV     R2,#0x2f
   \   0001DE   7B00         MOV     R3,#0x0
   \   0001E0   12....       LCALL   ??osal_mem_alloc?relay
   \   0001E3   8A..         MOV     ?V0 + 6,R2
   \   0001E5   8B..         MOV     ?V0 + 7,R3
   \   0001E7   EA           MOV     A,R2
   \   0001E8   45..         ORL     A,?V0 + 7
   \   0001EA   602B         JZ      ??zclLL_ProcessInLLInterPANCmds_19
   \   0001EC                ; Setup parameters for call to function zclLL_ParseInCmd_NwkJoinReq
   \   0001EC   AC..         MOV     R4,?V0 + 6
   \   0001EE   AD..         MOV     R5,?V0 + 7
   \   0001F0   12....       LCALL   ??Subroutine143_0 & 0xFFFF
   \                     ??CrossCallReturnLabel_241:
   \   0001F3   12....       LCALL   ??zclLL_ParseInCmd_NwkJoinReq?relay
   \   0001F6                ; Setup parameters for indirect call
   \   0001F6   85..82       MOV     DPL,?V0 + 4
   \   0001F9   85..83       MOV     DPH,?V0 + 5
   \   0001FC   E0           MOVX    A,@DPTR
   \   0001FD   F9           MOV     R1,A
   \   0001FE   AC..         MOV     R4,?V0 + 6
   \   000200   AD..         MOV     R5,?V0 + 7
   \   000202   12....       LCALL   ??Subroutine167_0 & 0xFFFF
   \                     ??CrossCallReturnLabel_414:
   \   000205   240C         ADD     A,#0xc
   \   000207   12....       LCALL   ?Subroutine43 & 0xFFFF
   \                     ??CrossCallReturnLabel_351:
   \   00020A   12....       LCALL   ?CALL_IND
   \   00020D   E9           MOV     A,R1
   \   00020E   F5..         MOV     ?V0 + 3,A
   \   000210                ; Setup parameters for call to function osal_mem_free
   \   000210   AA..         MOV     R2,?V0 + 6
   \   000212   AB..         MOV     R3,?V0 + 7
   \   000214   12....       LCALL   ??osal_mem_free?relay
   \                     ??zclLL_ProcessInLLInterPANCmds_19:
   \   000217   85....       MOV     ?V0 + 2,?V0 + 3
   1502                break;
   \   00021A   807E         SJMP    ??zclLL_ProcessInLLInterPANCmds_14
   1503          
   1504              case COMMAND_ZLL_NWK_UPDATE_REQ:
   1505                status = zclLL_ProcessInCmd_NwkUpdateReq( pInMsg );
   \                     ??zclLL_ProcessInLLInterPANCmds_12:
   \   00021C                ; Setup parameters for call to function zclLL_ProcessInCmd_NwkUpdateReq
   \   00021C   12....       LCALL   ??zclLL_ProcessInCmd_NwkUpdateReq?relay
   \   00021F   8071         SJMP    ??zclLL_ProcessInLLInterPANCmds_17
   1506                break;
   1507          
   1508              case COMMAND_ZLL_SCAN_RSP:
   1509                status = zclLL_ProcessInCmd_ScanRsp( pInMsg );
   \                     ??zclLL_ProcessInLLInterPANCmds_1:
   \   000221                ; Setup parameters for call to function zclLL_ProcessInCmd_ScanRsp
   \   000221   12....       LCALL   ??zclLL_ProcessInCmd_ScanRsp?relay
   \   000224   806C         SJMP    ??zclLL_ProcessInLLInterPANCmds_17
   1510                break;
   1511          
   1512              case COMMAND_ZLL_DEVICE_INFO_RSP:
   1513                status = zclLL_ProcessInCmd_DeviceInfoRsp( pInMsg );
   \                     ??zclLL_ProcessInLLInterPANCmds_3:
   \   000226                ; Setup parameters for call to function zclLL_ProcessInCmd_DeviceInfoRsp
   \   000226   12....       LCALL   ??zclLL_ProcessInCmd_DeviceInfoRsp?relay
   \   000229   8067         SJMP    ??zclLL_ProcessInLLInterPANCmds_17
   1514                break;
   1515          
   1516              case COMMAND_ZLL_NWK_START_RSP:
   1517                status = zclLL_ProcessInCmd_NwkStartRsp( pInMsg );
   \                     ??zclLL_ProcessInLLInterPANCmds_7:
   \   00022B                ; Setup parameters for call to function zclLL_ProcessInCmd_NwkStartRsp
   \   00022B   12....       LCALL   ??zclLL_ProcessInCmd_NwkStartRsp?relay
   \   00022E   8062         SJMP    ??zclLL_ProcessInLLInterPANCmds_17
   1518                break;
   1519          
   1520              case COMMAND_ZLL_NWK_JOIN_RTR_RSP:
   1521                status = zclLL_ProcessInCmd_NwkJoinRtrRsp( pInMsg );
   \                     ??zclLL_ProcessInLLInterPANCmds_9:
   \   000230   12....       LCALL   ??Subroutine160_0 & 0xFFFF
   \                     ??CrossCallReturnLabel_377:
   \   000233   2416         ADD     A,#0x16
   \   000235   12....       LCALL   ?Subroutine11 & 0xFFFF
   \                     ??CrossCallReturnLabel_260:
   \   000238   6060         JZ      ??zclLL_ProcessInLLInterPANCmds_14
   \   00023A                ; Setup parameters for call to function osal_build_uint32
   \   00023A   12....       LCALL   ?Subroutine45 & 0xFFFF
   \                     ??CrossCallReturnLabel_246:
   \   00023D   12....       LCALL   ??osal_build_uint32?relay
   \   000240   85..82       MOV     DPL,?XSP + 0
   \   000243   85..83       MOV     DPH,?XSP + 1
   \   000246   12....       LCALL   ?XSTORE_R2345
   \   000249   12....       LCALL   ?Subroutine12 & 0xFFFF
   \                     ??CrossCallReturnLabel_308:
   \   00024C   C0E0         PUSH    A
   \   00024E   7404         MOV     A,#0x4
   \   000250   12....       LCALL   ?XSTACK_DISP0_8
   \   000253   D0E0         POP     A
   \   000255   12....       LCALL   ?Subroutine10 & 0xFFFF
   \                     ??CrossCallReturnLabel_416:
   \   000258   2416         ADD     A,#0x16
   \   00025A   802A         SJMP    ??zclLL_ProcessInLLInterPANCmds_16
   1522                break;
   1523          
   1524              case COMMAND_ZLL_NWK_JOIN_ED_RSP:
   1525                status = zclLL_ProcessInCmd_NwkJoinEDRsp( pInMsg );
   \                     ??zclLL_ProcessInLLInterPANCmds_11:
   \   00025C   12....       LCALL   ??Subroutine160_0 & 0xFFFF
   \                     ??CrossCallReturnLabel_378:
   \   00025F   2418         ADD     A,#0x18
   \   000261   12....       LCALL   ?Subroutine11 & 0xFFFF
   \                     ??CrossCallReturnLabel_261:
   \   000264   6034         JZ      ??zclLL_ProcessInLLInterPANCmds_14
   \   000266                ; Setup parameters for call to function osal_build_uint32
   \   000266   12....       LCALL   ?Subroutine45 & 0xFFFF
   \                     ??CrossCallReturnLabel_247:
   \   000269   12....       LCALL   ??osal_build_uint32?relay
   \   00026C   85..82       MOV     DPL,?XSP + 0
   \   00026F   85..83       MOV     DPH,?XSP + 1
   \   000272   12....       LCALL   ?XSTORE_R2345
   \   000275   12....       LCALL   ?Subroutine12 & 0xFFFF
   \                     ??CrossCallReturnLabel_309:
   \   000278   C0E0         PUSH    A
   \   00027A   7404         MOV     A,#0x4
   \   00027C   12....       LCALL   ?XSTACK_DISP0_8
   \   00027F   D0E0         POP     A
   \   000281   12....       LCALL   ?Subroutine10 & 0xFFFF
   \                     ??CrossCallReturnLabel_417:
   \   000284   2418         ADD     A,#0x18
   \                     ??zclLL_ProcessInLLInterPANCmds_16:
   \   000286   F582         MOV     DPL,A
   \   000288   E8           MOV     A,R0
   \   000289   12....       LCALL   ??Subroutine148_0 & 0xFFFF
   \                     ??CrossCallReturnLabel_280:
   \   00028C   12....       LCALL   ??Subroutine157_0 & 0xFFFF
   \                     ??CrossCallReturnLabel_349:
   \   00028F   12....       LCALL   ?CALL_IND
   \                     ??zclLL_ProcessInLLInterPANCmds_17:
   \   000292   E9           MOV     A,R1
   \   000293   F5..         MOV     ?V0 + 2,A
   \   000295   8003         SJMP    ??zclLL_ProcessInLLInterPANCmds_14
   1526                break;
   1527          
   1528              default:
   1529                status = ZFailure;   // Error ignore the command
   \                     ??zclLL_ProcessInLLInterPANCmds_13:
   \   000297   75..01       MOV     ?V0 + 2,#0x1
   1530                break;
   1531            }
   1532          
   1533            return ( status );
   \                     ??zclLL_ProcessInLLInterPANCmds_14:
   \   00029A   A9..         MOV     R1,?V0 + 2
   \   00029C   7417         MOV     A,#0x17
   \   00029E   12....       LCALL   ?DEALLOC_XSTACK8
   \   0002A1   02....       LJMP    ??Subroutine141_0 & 0xFFFF
   1534          }

   \                                 In  segment BANKED_CODE, align 1, keep-with-next
   \                     ?Subroutine69:
   \   000000   F0           MOVX    @DPTR,A
   \   000001                ; Setup parameters for indirect call
   \   000001                ; Setup parameters for indirect call
   \   000001   85..82       MOV     DPL,?V0 + 4
   \   000004   85..83       MOV     DPH,?V0 + 5
   \   000007   E0           MOVX    A,@DPTR
   \   000008   F9           MOV     R1,A
   \   000009   22           RET

   \                                 In  segment BANKED_CODE, align 1, keep-with-next
   \                     ?Subroutine42:
   \   000000   12....       LCALL   ?Subroutine92 & 0xFFFF
   \                     ??CrossCallReturnLabel_310:
   \   000003   22           RET

   \                                 In  segment BANKED_CODE, align 1, keep-with-next
   \                     ?Subroutine15:
   \   000000   AC82         MOV     R4,DPL
   \   000002   AD83         MOV     R5,DPH
   \   000004   8E82         MOV     DPL,R6
   \   000006   8F83         MOV     DPH,R7
   \   000008   12....       LCALL   ?Subroutine87 & 0xFFFF
   \                     ??CrossCallReturnLabel_418:
   \   00000B   F583         MOV     DPH,A
   \   00000D   8882         MOV     DPL,R0
   \   00000F   22           RET

   \                                 In  segment BANKED_CODE, align 1, keep-with-next
   \                     ?Subroutine12:
   \   000000   85..82       MOV     DPL,?V0 + 0
   \   000003   85..83       MOV     DPH,?V0 + 1
   \   000006                REQUIRE ??Subroutine149_0
   \   000006                ; // Fall through to label ??Subroutine149_0

   \                                 In  segment BANKED_CODE, align 1, keep-with-next
   \                     ??Subroutine160_0:
   \   000000   90....       MOV     DPTR,#pInterPANCBs
   \   000003                REQUIRE ??Subroutine161_0
   \   000003                ; // Fall through to label ??Subroutine161_0

   \                                 In  segment BANKED_CODE, align 1, keep-with-next
   \                     ?Subroutine10:
   \   000000   F0           MOVX    @DPTR,A
   \   000001                ; Setup parameters for indirect call
   \   000001                ; Setup parameters for indirect call
   \   000001   85..82       MOV     DPL,?XSP + 0
   \   000004   85..83       MOV     DPH,?XSP + 1
   \   000007                REQUIRE ??Subroutine166_0
   \   000007                ; // Fall through to label ??Subroutine166_0

   \                                 In  segment BANKED_CODE, align 1, keep-with-next
   \                     ??Subroutine166_0:
   \   000000   AC82         MOV     R4,DPL
   \   000002   AD83         MOV     R5,DPH
   \   000004                REQUIRE ??Subroutine167_0
   \   000004                ; // Fall through to label ??Subroutine167_0

   \                                 In  segment BANKED_CODE, align 1, keep-with-next
   \                     ??Subroutine167_0:
   \   000000   8E82         MOV     DPL,R6
   \   000002   8F83         MOV     DPH,R7
   \   000004                REQUIRE ??Subroutine168_0
   \   000004                ; // Fall through to label ??Subroutine168_0

   \                                 In  segment BANKED_CODE, align 1, keep-with-next
   \                     ??Subroutine168_0:
   \   000000   12....       LCALL   ?Subroutine87 & 0xFFFF
   \                     ??CrossCallReturnLabel_419:
   \   000003   C8           XCH     A,R0
   \   000004   22           RET

   \                                 In  segment BANKED_CODE, align 1, keep-with-next
   \                     ?Subroutine87:
   \   000000   12....       LCALL   ?Subroutine116 & 0xFFFF
   \                     ??CrossCallReturnLabel_421:
   \   000003   90....       MOV     DPTR,#pInterPANCBs
   \   000006   12....       LCALL   ?Subroutine124 & 0xFFFF
   \                     ??CrossCallReturnLabel_427:
   \   000009   22           RET
   1535          
   1536          /*********************************************************************
   1537           * @fn      zclLL_ProcessInCmd_ScanReq
   1538           *
   1539           * @brief   Process in the received Scan Request command.
   1540           *
   1541           * @param   pInMsg - pointer to the incoming message
   1542           *
   1543           * @return  ZStatus_t
   1544           */
   1545          static ZStatus_t zclLL_ProcessInCmd_ScanReq( zclIncoming_t *pInMsg )
   1546          {
   1547            if ( pInterPANCBs->pfnScanReq )
   1548            {
   1549              zclLLScanReq_t req;
   1550          
   1551              req.transID = zcl_build_uint32( pInMsg->pData, 4 );
   1552          
   1553              req.zInfo.zInfoByte = pInMsg->pData[4];
   1554              req.zllInfo.zllInfoByte = pInMsg->pData[5];
   1555          
   1556              return ( pInterPANCBs->pfnScanReq( &(pInMsg->msg->srcAddr), &req,
   1557                                                 pInMsg->hdr.transSeqNum ) );
   1558            }
   1559          
   1560            return ( ZSuccess );
   1561          }
   1562          
   1563          /*********************************************************************
   1564           * @fn      zclLL_ProcessInCmd_DeviceInfoReq
   1565           *
   1566           * @brief   Process in the received Device Information Request command.
   1567           *
   1568           * @param   pInMsg - pointer to the incoming message
   1569           *
   1570           * @return  ZStatus_t
   1571           */
   1572          static ZStatus_t zclLL_ProcessInCmd_DeviceInfoReq( zclIncoming_t *pInMsg )
   1573          {
   1574            if ( pInterPANCBs->pfnDeviceInfoReq )
   1575            {
   1576              zclLLDeviceInfoReq_t req;
   1577          
   1578              req.transID = zcl_build_uint32( pInMsg->pData, 4 );
   1579          
   1580              req.startIndex = pInMsg->pData[4];
   1581          
   1582              return ( pInterPANCBs->pfnDeviceInfoReq( &(pInMsg->msg->srcAddr), &req,
   1583                                                       pInMsg->hdr.transSeqNum ) );
   1584            }
   1585          
   1586            return ( ZSuccess );
   1587          }
   1588          
   1589          
   1590          /*********************************************************************
   1591           * @fn      zclLL_ProcessInCmd_IdentifyReq
   1592           *
   1593           * @brief   Process in the received Identify Request command.
   1594           *
   1595           * @param   pInMsg - pointer to the incoming message
   1596           *
   1597           * @return  ZStatus_t
   1598           */
   1599          static ZStatus_t zclLL_ProcessInCmd_IdentifyReq( zclIncoming_t *pInMsg )
   1600          {
   1601            if ( pInterPANCBs->pfnIdentifyReq )
   1602            {
   1603              zclLLIdentifyReq_t req;
   1604          
   1605              req.transID = zcl_build_uint32( pInMsg->pData, 4 );
   1606          
   1607              req.IdDuration = BUILD_UINT16( pInMsg->pData[4], pInMsg->pData[5] );
   1608          
   1609              return ( pInterPANCBs->pfnIdentifyReq( &(pInMsg->msg->srcAddr), &req ) );
   1610            }
   1611          
   1612            return ( ZSuccess );
   1613          }
   1614          
   1615          /*********************************************************************
   1616           * @fn      zclLL_ProcessInCmd_ResetToFNReq
   1617           *
   1618           * @brief   Process in the received Reset to Factory New Request command.
   1619           *
   1620           * @param   pInMsg - pointer to the incoming message
   1621           *
   1622           * @return  ZStatus_t
   1623           */
   1624          static ZStatus_t zclLL_ProcessInCmd_ResetToFNReq( zclIncoming_t *pInMsg )
   1625          {
   1626            if ( pInterPANCBs->pfnResetToFNReq )
   1627            {
   1628              zclLLResetToFNReq_t req;
   1629          
   1630              req.transID = zcl_build_uint32( pInMsg->pData, 4 );
   1631          
   1632              return ( pInterPANCBs->pfnResetToFNReq( &(pInMsg->msg->srcAddr), &req ) );
   1633            }
   1634          
   1635            return ( ZSuccess );
   1636          }
   1637          
   1638          /*********************************************************************
   1639           * @fn      zclLL_ProcessInCmd_NwkStartReq
   1640           *
   1641           * @brief   Process in the received Network Start Request command.
   1642           *
   1643           * @param   pInMsg - pointer to the incoming message
   1644           *
   1645           * @return  ZStatus_t
   1646           */

   \                                 In  segment BANKED_CODE, align 1, keep-with-next
   \                     ?Subroutine75:
   \   000000   E5..         MOV     A,?V0 + 0
   \   000002   240C         ADD     A,#0xc
   \   000004                REQUIRE ??Subroutine147_0
   \   000004                ; // Fall through to label ??Subroutine147_0

   \                                 In  segment BANKED_CODE, align 1, keep-with-next
   1647          static ZStatus_t zclLL_ProcessInCmd_NwkStartReq( zclIncoming_t *pInMsg )
   \                     zclLL_ProcessInCmd_NwkStartReq:
   1648          {
   \   000000   74F1         MOV     A,#-0xf
   \   000002   12....       LCALL   ?BANKED_ENTER_XDATA
   \   000005                ; Saved register size: 15
   \   000005                ; Auto size: 0
   \   000005   8A..         MOV     ?V0 + 2,R2
   \   000007   8B..         MOV     ?V0 + 3,R3
   1649            uint8 status = ZSuccess;
   \   000009   7E00         MOV     R6,#0x0
   1650          
   1651            if ( pInterPANCBs->pfnNwkStartReq )
   \   00000B   12....       LCALL   ??Subroutine160_0 & 0xFFFF
   \                     ??CrossCallReturnLabel_379:
   \   00000E   2408         ADD     A,#0x8
   \   000010   12....       LCALL   ?Subroutine11 & 0xFFFF
   \                     ??CrossCallReturnLabel_262:
   \   000013   7003         JNZ     $+5
   \   000015   02....       LJMP    ??zclLL_ProcessInCmd_NwkStartReq_0 & 0xFFFF
   1652            {
   1653              zclLLNwkStartReq_t *pReq;
   1654          
   1655              pReq = (zclLLNwkStartReq_t *)zcl_mem_alloc( sizeof( zclLLNwkStartReq_t ) );
   \   000018                ; Setup parameters for call to function osal_mem_alloc
   \   000018   7A38         MOV     R2,#0x38
   \   00001A   7B00         MOV     R3,#0x0
   \   00001C   12....       LCALL   ??osal_mem_alloc?relay
   \   00001F   8A..         MOV     ?V0 + 0,R2
   \   000021   8B..         MOV     ?V0 + 1,R3
   1656              if ( pReq )
   \   000023   EA           MOV     A,R2
   \   000024   45..         ORL     A,?V0 + 1
   \   000026   7003         JNZ     $+5
   \   000028   02....       LJMP    ??zclLL_ProcessInCmd_NwkStartReq_0 & 0xFFFF
   1657              {
   1658                uint8 *pBuf = pInMsg->pData;
   \   00002B   85..82       MOV     DPL,?V0 + 2
   \   00002E   85..83       MOV     DPH,?V0 + 3
   \   000031   A3           INC     DPTR
   \   000032   A3           INC     DPTR
   \   000033   A3           INC     DPTR
   \   000034   A3           INC     DPTR
   \   000035   A3           INC     DPTR
   \   000036   A3           INC     DPTR
   \   000037   A3           INC     DPTR
   \   000038   A3           INC     DPTR
   \   000039   12....       LCALL   ?Subroutine46 & 0xFFFF
   1659          
   1660                pReq->transID = zcl_build_uint32( pBuf, 4 );
   \                     ??CrossCallReturnLabel_65:
   \   00003C   12....       LCALL   ??osal_build_uint32?relay
   \   00003F   85..82       MOV     DPL,?V0 + 0
   \   000042   85..83       MOV     DPH,?V0 + 1
   \   000045   12....       LCALL   ?XSTORE_R2345
   1661                pBuf += 4;
   \   000048   12....       LCALL   ?Subroutine72 & 0xFFFF
   1662          
   1663                zcl_cpyExtAddr( pReq->nwkParams.extendedPANID, pBuf );
   \                     ??CrossCallReturnLabel_111:
   \   00004B   12....       LCALL   ??sAddrExtCpy?relay
   1664                pBuf += Z_EXTADDR_LEN;
   \   00004E   12....       LCALL   ?Subroutine76 & 0xFFFF
   1665          
   1666                pReq->nwkParams.keyIndex = *pBuf++;
   \                     ??CrossCallReturnLabel_323:
   \   000051   C0E0         PUSH    A
   \   000053   12....       LCALL   ?Subroutine75 & 0xFFFF
   \                     ??CrossCallReturnLabel_301:
   \   000056   D0E0         POP     A
   \   000058   12....       LCALL   ?Subroutine60 & 0xFFFF
   1667          
   1668                zcl_memcpy( pReq->nwkParams.nwkKey, pBuf, SEC_KEY_LEN );
   \                     ??CrossCallReturnLabel_97:
   \   00005B   12....       LCALL   ?PUSH_XSTACK_I_THREE
   \   00005E   12....       LCALL   ?Subroutine82 & 0xFFFF
   \                     ??CrossCallReturnLabel_126:
   \   000061   12....       LCALL   ??osal_memcpy?relay
   \   000064   7403         MOV     A,#0x3
   \   000066   12....       LCALL   ?DEALLOC_XSTACK8
   1669                pBuf += SEC_KEY_LEN;
   \   000069   EE           MOV     A,R6
   \   00006A   2410         ADD     A,#0x10
   \   00006C   12....       LCALL   ??Subroutine154_0 & 0xFFFF
   1670          
   1671                pReq->nwkParams.logicalChannel = *pBuf++;
   \                     ??CrossCallReturnLabel_326:
   \   00006F   C0E0         PUSH    A
   \   000071   E5..         MOV     A,?V0 + 0
   \   000073   241D         ADD     A,#0x1d
   \   000075   12....       LCALL   ??Subroutine147_0 & 0xFFFF
   \                     ??CrossCallReturnLabel_290:
   \   000078   D0E0         POP     A
   \   00007A   12....       LCALL   ?Subroutine9 & 0xFFFF
   1672          
   1673                pReq->nwkParams.panId = BUILD_UINT16( pBuf[0], pBuf[1] );
   1674                pBuf += 2;
   1675          
   1676                pReq->nwkParams.nwkAddr = BUILD_UINT16( pBuf[0], pBuf[1] );
   1677                pBuf += 2;
   1678          
   1679                pReq->nwkParams.grpIDsBegin = BUILD_UINT16( pBuf[0], pBuf[1] );
   1680                pBuf += 2;
   1681          
   1682                pReq->nwkParams.grpIDsEnd = BUILD_UINT16( pBuf[0], pBuf[1] );
   1683                pBuf += 2;
   1684          
   1685                pReq->nwkParams.freeNwkAddrBegin = BUILD_UINT16( pBuf[0], pBuf[1] );
   1686                pBuf += 2;
   1687          
   1688                pReq->nwkParams.freeNwkAddrEnd = BUILD_UINT16( pBuf[0], pBuf[1] );
   1689                pBuf += 2;
   1690          
   1691                pReq->nwkParams.freeGrpIDBegin = BUILD_UINT16( pBuf[0], pBuf[1] );
   1692                pBuf += 2;
   1693          
   1694                pReq->nwkParams.freeGrpIDEnd = BUILD_UINT16( pBuf[0], pBuf[1] );
   1695                pBuf += 2;
   \                     ??CrossCallReturnLabel_2:
   \   00007D   EE           MOV     A,R6
   \   00007E   2402         ADD     A,#0x2
   \   000080   12....       LCALL   ?Subroutine80 & 0xFFFF
   1696          
   1697                zcl_cpyExtAddr( pReq->initiatorIeeeAddr, pBuf );
   \                     ??CrossCallReturnLabel_122:
   \   000083   242E         ADD     A,#0x2e
   \   000085   FA           MOV     R2,A
   \   000086   E5..         MOV     A,?V0 + 1
   \   000088   3400         ADDC    A,#0x0
   \   00008A   FB           MOV     R3,A
   \   00008B   12....       LCALL   ??sAddrExtCpy?relay
   1698                pBuf += Z_EXTADDR_LEN;
   \   00008E   EE           MOV     A,R6
   \   00008F   2408         ADD     A,#0x8
   \   000091   12....       LCALL   ??Subroutine152_0 & 0xFFFF
   1699          
   1700                pReq->initiatorNwkAddr = BUILD_UINT16( pBuf[0], pBuf[1] );
   \                     ??CrossCallReturnLabel_320:
   \   000094   2436         ADD     A,#0x36
   \   000096   F582         MOV     DPL,A
   \   000098   E5..         MOV     A,?V0 + 1
   \   00009A   12....       LCALL   ??Subroutine150_0 & 0xFFFF
   1701          
   1702                status = pInterPANCBs->pfnNwkStartReq( &(pInMsg->msg->srcAddr), pReq,
   1703                                                       pInMsg->hdr.transSeqNum );
   \                     ??CrossCallReturnLabel_315:
   \   00009D                ; Setup parameters for indirect call
   \   00009D   85..82       MOV     DPL,?V0 + 2
   \   0000A0   85..83       MOV     DPH,?V0 + 3
   \   0000A3   A3           INC     DPTR
   \   0000A4   A3           INC     DPTR
   \   0000A5   A3           INC     DPTR
   \   0000A6   A3           INC     DPTR
   \   0000A7   A3           INC     DPTR
   \   0000A8   A3           INC     DPTR
   \   0000A9   E0           MOVX    A,@DPTR
   \   0000AA   F9           MOV     R1,A
   \   0000AB   AC..         MOV     R4,?V0 + 0
   \   0000AD   AD..         MOV     R5,?V0 + 1
   \   0000AF   85..82       MOV     DPL,?V0 + 2
   \   0000B2   85..83       MOV     DPH,?V0 + 3
   \   0000B5   12....       LCALL   ??Subroutine168_0 & 0xFFFF
   \                     ??CrossCallReturnLabel_408:
   \   0000B8   2408         ADD     A,#0x8
   \   0000BA   12....       LCALL   ?Subroutine43 & 0xFFFF
   \                     ??CrossCallReturnLabel_352:
   \   0000BD   12....       LCALL   ?CALL_IND
   \   0000C0   E9           MOV     A,R1
   \   0000C1   FE           MOV     R6,A
   1704          
   1705                zcl_mem_free( pReq );
   \   0000C2                ; Setup parameters for call to function osal_mem_free
   \   0000C2   AA..         MOV     R2,?V0 + 0
   \   0000C4   AB..         MOV     R3,?V0 + 1
   \   0000C6   12....       LCALL   ??osal_mem_free?relay
   1706              }
   1707            }
   1708          
   1709            return ( status );
   \                     ??zclLL_ProcessInCmd_NwkStartReq_0:
   \   0000C9   EE           MOV     A,R6
   \   0000CA   F9           MOV     R1,A
   \   0000CB                REQUIRE ?Subroutine7
   \   0000CB                ; // Fall through to label ?Subroutine7
   1710          }

   \                                 In  segment BANKED_CODE, align 1, keep-with-next
   \                     ?Subroutine7:
   \   000000   7F07         MOV     R7,#0x7
   \   000002   02....       LJMP    ?BANKED_LEAVE_XDATA

   \                                 In  segment BANKED_CODE, align 1, keep-with-next
   \                     ??Subroutine152_0:
   \   000000   12....       LCALL   ?Subroutine121 & 0xFFFF
   \                     ??CrossCallReturnLabel_330:
   \   000003                REQUIRE ??Subroutine153_0
   \   000003                ; // Fall through to label ??Subroutine153_0

   \                                 In  segment BANKED_CODE, align 1, keep-with-next
   \                     ??Subroutine153_0:
   \   000000   12....       LCALL   ??Subroutine155_0 & 0xFFFF
   \                     ??CrossCallReturnLabel_341:
   \   000003   22           RET

   \                                 In  segment BANKED_CODE, align 1, keep-with-next
   \                     ?Subroutine82:
   \   000000   7C10         MOV     R4,#0x10
   \   000002   7D00         MOV     R5,#0x0
   \   000004   E5..         MOV     A,?V0 + 0
   \   000006   240D         ADD     A,#0xd
   \   000008   FA           MOV     R2,A
   \   000009   E5..         MOV     A,?V0 + 1
   \   00000B   3400         ADDC    A,#0x0
   \   00000D   FB           MOV     R3,A
   \   00000E   22           RET

   \                                 In  segment BANKED_CODE, align 1, keep-with-next
   \                     ?Subroutine76:
   \   000000   EE           MOV     A,R6
   \   000001   2408         ADD     A,#0x8
   \   000003                REQUIRE ??Subroutine154_0
   \   000003                ; // Fall through to label ??Subroutine154_0

   \                                 In  segment BANKED_CODE, align 1, keep-with-next
   \                     ??Subroutine154_0:
   \   000000   12....       LCALL   ?Subroutine110 & 0xFFFF
   \                     ??CrossCallReturnLabel_328:
   \   000003   22           RET

   \                                 In  segment BANKED_CODE, align 1, keep-with-next
   \                     ?Subroutine110:
   \   000000   12....       LCALL   ?Subroutine121 & 0xFFFF
   \                     ??CrossCallReturnLabel_331:
   \   000003   E0           MOVX    A,@DPTR
   \   000004   22           RET

   \                                 In  segment BANKED_CODE, align 1, keep-with-next
   \                     ?Subroutine121:
   \   000000   FE           MOV     R6,A
   \   000001   EF           MOV     A,R7
   \   000002   3400         ADDC    A,#0x0
   \   000004   FF           MOV     R7,A
   \   000005   8E82         MOV     DPL,R6
   \   000007   8F83         MOV     DPH,R7
   \   000009   22           RET

   \                                 In  segment BANKED_CODE, align 1, keep-with-next
   \                     ?Subroutine72:
   \   000000   EE           MOV     A,R6
   \   000001   2404         ADD     A,#0x4
   \   000003   12....       LCALL   ?Subroutine108 & 0xFFFF
   \                     ??CrossCallReturnLabel_172:
   \   000006   2404         ADD     A,#0x4
   \   000008   FA           MOV     R2,A
   \   000009   E5..         MOV     A,?V0 + 1
   \   00000B   3400         ADDC    A,#0x0
   \   00000D   FB           MOV     R3,A
   \   00000E   22           RET

   \                                 In  segment BANKED_CODE, align 1, keep-with-next
   \                     ?Subroutine60:
   \   000000   12....       LCALL   ?Subroutine104 & 0xFFFF
   \                     ??CrossCallReturnLabel_167:
   \   000003   AF83         MOV     R7,DPH
   \   000005                ; Setup parameters for call to function osal_memcpy
   \   000005                ; Setup parameters for call to function osal_memcpy
   \   000005   8E..         MOV     ?V0 + 4,R6
   \   000007   8F..         MOV     ?V0 + 5,R7
   \   000009   75..00       MOV     ?V0 + 6,#0x0
   \   00000C   78..         MOV     R0,#?V0 + 4
   \   00000E   22           RET

   \                                 In  segment BANKED_CODE, align 1, keep-with-next
   \                     ?Subroutine9:
   \   000000   12....       LCALL   ?Subroutine100 & 0xFFFF
   \                     ??CrossCallReturnLabel_161:
   \   000003   12....       LCALL   ??Subroutine155_0 & 0xFFFF
   \                     ??CrossCallReturnLabel_340:
   \   000006   241E         ADD     A,#0x1e
   \   000008   12....       LCALL   ?Subroutine84 & 0xFFFF
   \                     ??CrossCallReturnLabel_333:
   \   00000B   2420         ADD     A,#0x20
   \   00000D   12....       LCALL   ?Subroutine84 & 0xFFFF
   \                     ??CrossCallReturnLabel_334:
   \   000010   2422         ADD     A,#0x22
   \   000012   12....       LCALL   ?Subroutine84 & 0xFFFF
   \                     ??CrossCallReturnLabel_335:
   \   000015   2424         ADD     A,#0x24
   \   000017   12....       LCALL   ?Subroutine84 & 0xFFFF
   \                     ??CrossCallReturnLabel_336:
   \   00001A   2426         ADD     A,#0x26
   \   00001C   12....       LCALL   ?Subroutine84 & 0xFFFF
   \                     ??CrossCallReturnLabel_337:
   \   00001F   2428         ADD     A,#0x28
   \   000021   12....       LCALL   ?Subroutine84 & 0xFFFF
   \                     ??CrossCallReturnLabel_338:
   \   000024   242A         ADD     A,#0x2a
   \   000026   12....       LCALL   ?Subroutine84 & 0xFFFF
   \                     ??CrossCallReturnLabel_339:
   \   000029   242C         ADD     A,#0x2c
   \   00002B   12....       LCALL   ?Subroutine107 & 0xFFFF
   \                     ??CrossCallReturnLabel_170:
   \   00002E   22           RET

   \                                 In  segment BANKED_CODE, align 1, keep-with-next
   \                     ?Subroutine107:
   \   000000   F582         MOV     DPL,A
   \   000002   E5..         MOV     A,?V0 + 1
   \   000004   3400         ADDC    A,#0x0
   \   000006   F583         MOV     DPH,A
   \   000008   E8           MOV     A,R0
   \   000009   F0           MOVX    @DPTR,A
   \   00000A   A3           INC     DPTR
   \   00000B   E9           MOV     A,R1
   \   00000C   F0           MOVX    @DPTR,A
   \   00000D   22           RET

   \                                 In  segment BANKED_CODE, align 1, keep-with-next
   \                     ?Subroutine84:
   \   000000   F582         MOV     DPL,A
   \   000002   E5..         MOV     A,?V0 + 1
   \   000004   3400         ADDC    A,#0x0
   \   000006   F583         MOV     DPH,A
   \   000008   E8           MOV     A,R0
   \   000009   12....       LCALL   ?Subroutine118 & 0xFFFF
   \                     ??CrossCallReturnLabel_393:
   \   00000C   8E82         MOV     DPL,R6
   \   00000E   8F83         MOV     DPH,R7
   \   000010                REQUIRE ??Subroutine155_0
   \   000010                ; // Fall through to label ??Subroutine155_0

   \                                 In  segment BANKED_CODE, align 1, keep-with-next
   \                     ??Subroutine155_0:
   \   000000   12....       LCALL   ?Subroutine114 & 0xFFFF
   \                     ??CrossCallReturnLabel_405:
   \   000003   F8           MOV     R0,A
   \   000004   E5..         MOV     A,?V0 + 0
   \   000006   22           RET

   \                                 In  segment BANKED_CODE, align 1, keep-with-next
   \                     ?Subroutine43:
   \   000000   12....       LCALL   ?Subroutine109 & 0xFFFF
   \                     ??CrossCallReturnLabel_398:
   \   000003                REQUIRE ??Subroutine157_0
   \   000003                ; // Fall through to label ??Subroutine157_0

   \                                 In  segment BANKED_CODE, align 1, keep-with-next
   \                     ?Subroutine80:
   \   000000   12....       LCALL   ?Subroutine108 & 0xFFFF
   \                     ??CrossCallReturnLabel_173:
   \   000003   22           RET

   \                                 In  segment BANKED_CODE, align 1, keep-with-next
   \                     ?Subroutine108:
   \   000000   FE           MOV     R6,A
   \   000001   EF           MOV     A,R7
   \   000002   3400         ADDC    A,#0x0
   \   000004   FF           MOV     R7,A
   \   000005                ; Setup parameters for call to function sAddrExtCpy
   \   000005                ; Setup parameters for call to function sAddrExtCpy
   \   000005                ; Setup parameters for call to function sAddrExtCpy
   \   000005                ; Setup parameters for call to function sAddrExtCpy
   \   000005   EE           MOV     A,R6
   \   000006   FC           MOV     R4,A
   \   000007   EF           MOV     A,R7
   \   000008   FD           MOV     R5,A
   \   000009   E5..         MOV     A,?V0 + 0
   \   00000B   22           RET

   \                                 In  segment BANKED_CODE, align 1, keep-with-next
   \                     ?Subroutine119:
   \   000000   F0           MOVX    @DPTR,A
   \   000001   8E82         MOV     DPL,R6
   \   000003   8F83         MOV     DPH,R7
   \   000005   A3           INC     DPTR
   \   000006   22           RET

   \                                 In  segment BANKED_CODE, align 1, keep-with-next
   \                     ?Subroutine118:
   \   000000   F0           MOVX    @DPTR,A
   \   000001   A3           INC     DPTR
   \   000002   E9           MOV     A,R1
   \   000003   F0           MOVX    @DPTR,A
   \   000004   EE           MOV     A,R6
   \   000005   2402         ADD     A,#0x2
   \   000007   FE           MOV     R6,A
   \   000008   EF           MOV     A,R7
   \   000009   3400         ADDC    A,#0x0
   \   00000B   FF           MOV     R7,A
   \   00000C   22           RET

   \                                 In  segment BANKED_CODE, align 1, keep-with-next
   \                     ?Subroutine100:
   \   000000   12....       LCALL   ?Subroutine119 & 0xFFFF
   \                     ??CrossCallReturnLabel_385:
   \   000003   0E           INC     R6
   \   000004   AF83         MOV     R7,DPH
   \   000006   22           RET

   \                                 In  segment BANKED_CODE, align 1, keep-with-next
   \                     ?Subroutine46:
   \   000000   E0           MOVX    A,@DPTR
   \   000001   FE           MOV     R6,A
   \   000002   A3           INC     DPTR
   \   000003   E0           MOVX    A,@DPTR
   \   000004   FF           MOV     R7,A
   \   000005                ; Setup parameters for call to function osal_build_uint32
   \   000005                ; Setup parameters for call to function osal_build_uint32
   \   000005   7904         MOV     R1,#0x4
   \   000007   EE           MOV     A,R6
   \   000008   FA           MOV     R2,A
   \   000009   EF           MOV     A,R7
   \   00000A   FB           MOV     R3,A
   \   00000B   22           RET

   \                                 In  segment BANKED_CODE, align 1, keep-with-next
   \                     ?Subroutine104:
   \   000000   12....       LCALL   ?Subroutine119 & 0xFFFF
   \                     ??CrossCallReturnLabel_386:
   \   000003   AE82         MOV     R6,DPL
   \   000005   22           RET
   1711          
   1712          /*********************************************************************
   1713           * @fn      zclLL_ParseInCmd_NwkJoinReq
   1714           *
   1715           * @brief   Parse in the received Network Router/End Device Join Request command.
   1716           *
   1717           * @param   pBuf - pointer to the incoming message
   1718           *
   1719           * @return  void
   1720           */

   \                                 In  segment BANKED_CODE, align 1, keep-with-next
   1721          static void zclLL_ParseInCmd_NwkJoinReq( uint8 *pBuf, zclLLNwkJoinReq_t *pReq )
   \                     zclLL_ParseInCmd_NwkJoinReq:
   1722          {
   \   000000   74F1         MOV     A,#-0xf
   \   000002   12....       LCALL   ?BANKED_ENTER_XDATA
   \   000005                ; Saved register size: 15
   \   000005                ; Auto size: 0
   \   000005   EA           MOV     A,R2
   \   000006   FE           MOV     R6,A
   \   000007   EB           MOV     A,R3
   \   000008   FF           MOV     R7,A
   \   000009   8C..         MOV     ?V0 + 0,R4
   \   00000B   8D..         MOV     ?V0 + 1,R5
   1723            pReq->transID = zcl_build_uint32( pBuf, 4 );
   \   00000D                ; Setup parameters for call to function osal_build_uint32
   \   00000D   7904         MOV     R1,#0x4
   \   00000F   12....       LCALL   ??osal_build_uint32?relay
   \   000012   85..82       MOV     DPL,?V0 + 0
   \   000015   85..83       MOV     DPH,?V0 + 1
   \   000018   12....       LCALL   ?XSTORE_R2345
   1724            pBuf += 4;
   \   00001B   12....       LCALL   ?Subroutine72 & 0xFFFF
   1725          
   1726            zcl_cpyExtAddr( pReq->nwkParams.extendedPANID, pBuf );
   \                     ??CrossCallReturnLabel_112:
   \   00001E   12....       LCALL   ??sAddrExtCpy?relay
   1727            pBuf += Z_EXTADDR_LEN;
   \   000021   12....       LCALL   ?Subroutine76 & 0xFFFF
   1728          
   1729            pReq->nwkParams.keyIndex = *pBuf++;
   \                     ??CrossCallReturnLabel_324:
   \   000024   C0E0         PUSH    A
   \   000026   12....       LCALL   ?Subroutine75 & 0xFFFF
   \                     ??CrossCallReturnLabel_302:
   \   000029   D0E0         POP     A
   \   00002B   12....       LCALL   ?Subroutine60 & 0xFFFF
   1730          
   1731            zcl_memcpy( pReq->nwkParams.nwkKey, pBuf, SEC_KEY_LEN );
   \                     ??CrossCallReturnLabel_98:
   \   00002E   12....       LCALL   ?PUSH_XSTACK_I_THREE
   \   000031   12....       LCALL   ?Subroutine82 & 0xFFFF
   \                     ??CrossCallReturnLabel_127:
   \   000034   12....       LCALL   ??osal_memcpy?relay
   \   000037   7403         MOV     A,#0x3
   \   000039   12....       LCALL   ?DEALLOC_XSTACK8
   1732            pBuf += SEC_KEY_LEN;
   \   00003C   EE           MOV     A,R6
   \   00003D   2410         ADD     A,#0x10
   \   00003F   12....       LCALL   ??Subroutine154_0 & 0xFFFF
   1733          
   1734            pReq->nwkUpdateId = *pBuf++;
   \                     ??CrossCallReturnLabel_327:
   \   000042   C0E0         PUSH    A
   \   000044   E5..         MOV     A,?V0 + 0
   \   000046   242E         ADD     A,#0x2e
   \   000048   12....       LCALL   ??Subroutine147_0 & 0xFFFF
   \                     ??CrossCallReturnLabel_291:
   \   00004B   D0E0         POP     A
   \   00004D   12....       LCALL   ?Subroutine56 & 0xFFFF
   1735            pReq->nwkParams.logicalChannel = *pBuf++;
   \                     ??CrossCallReturnLabel_86:
   \   000050   C0E0         PUSH    A
   \   000052   E5..         MOV     A,?V0 + 0
   \   000054   241D         ADD     A,#0x1d
   \   000056   12....       LCALL   ??Subroutine147_0 & 0xFFFF
   \                     ??CrossCallReturnLabel_292:
   \   000059   D0E0         POP     A
   \   00005B   12....       LCALL   ?Subroutine9 & 0xFFFF
   1736          
   1737            pReq->nwkParams.panId = BUILD_UINT16( pBuf[0], pBuf[1] );
   1738            pBuf += 2;
   1739          
   1740            pReq->nwkParams.nwkAddr = BUILD_UINT16( pBuf[0], pBuf[1] );
   1741            pBuf += 2;
   1742          
   1743            pReq->nwkParams.grpIDsBegin = BUILD_UINT16( pBuf[0], pBuf[1] );
   1744            pBuf += 2;
   1745          
   1746            pReq->nwkParams.grpIDsEnd = BUILD_UINT16( pBuf[0], pBuf[1] );
   1747            pBuf += 2;
   1748          
   1749            pReq->nwkParams.freeNwkAddrBegin = BUILD_UINT16( pBuf[0], pBuf[1] );
   1750            pBuf += 2;
   1751          
   1752            pReq->nwkParams.freeNwkAddrEnd = BUILD_UINT16( pBuf[0], pBuf[1] );
   1753            pBuf += 2;
   1754          
   1755            pReq->nwkParams.freeGrpIDBegin = BUILD_UINT16( pBuf[0], pBuf[1] );
   1756            pBuf += 2;
   1757          
   1758            pReq->nwkParams.freeGrpIDEnd = BUILD_UINT16( pBuf[0], pBuf[1] );
   1759          }
   \                     ??CrossCallReturnLabel_3:
   \   00005E   02....       LJMP    ?Subroutine7 & 0xFFFF

   \                                 In  segment BANKED_CODE, align 1, keep-with-next
   \                     ?Subroutine56:
   \   000000   12....       LCALL   ?Subroutine100 & 0xFFFF
   \                     ??CrossCallReturnLabel_162:
   \   000003   E0           MOVX    A,@DPTR
   \   000004   22           RET
   1760          
   1761          /*********************************************************************
   1762           * @fn      zclLL_ProcessInCmd_NwkJoinRtrReq
   1763           *
   1764           * @brief   Process in the received Network Join Router Request command.
   1765           *
   1766           * @param   pInMsg - pointer to the incoming message
   1767           *
   1768           * @return  ZStatus_t
   1769           */
   1770          static ZStatus_t zclLL_ProcessInCmd_NwkJoinRtrReq( zclIncoming_t *pInMsg )
   1771          {
   1772            ZStatus_t status = ZSuccess;
   1773          
   1774            if ( pInterPANCBs->pfnNwkJoinRtrReq )
   1775            {
   1776              zclLLNwkJoinReq_t *pReq;
   1777          
   1778              pReq = (zclLLNwkJoinReq_t *)zcl_mem_alloc( sizeof( zclLLNwkJoinReq_t ) );
   1779              if ( pReq )
   1780              {
   1781                zclLL_ParseInCmd_NwkJoinReq( pInMsg->pData, pReq );
   1782          
   1783                status = pInterPANCBs->pfnNwkJoinRtrReq( &(pInMsg->msg->srcAddr), pReq,
   1784                                                         pInMsg->hdr.transSeqNum  );
   1785                zcl_mem_free( pReq );
   1786              }
   1787            }
   1788          
   1789            return ( status );
   1790          }
   1791          
   1792          /*********************************************************************
   1793           * @fn      zclLL_ProcessInCmd_NwkJoinEDReq
   1794           *
   1795           * @brief   Process in the received Network Join End Device  Request command.
   1796           *
   1797           * @param   pInMsg - pointer to the incoming message
   1798           *
   1799           * @return  ZStatus_t
   1800           */
   1801          static ZStatus_t zclLL_ProcessInCmd_NwkJoinEDReq( zclIncoming_t *pInMsg )
   1802          {
   1803            ZStatus_t status = ZSuccess;
   1804          
   1805            if ( pInterPANCBs->pfnNwkJoinEDReq )
   1806            {
   1807              zclLLNwkJoinReq_t *pReq;
   1808          
   1809              pReq = (zclLLNwkJoinReq_t *)zcl_mem_alloc( sizeof( zclLLNwkJoinReq_t ) );
   1810              if ( pReq )
   1811              {
   1812                zclLL_ParseInCmd_NwkJoinReq( pInMsg->pData, pReq );
   1813          
   1814                status = pInterPANCBs->pfnNwkJoinEDReq( &(pInMsg->msg->srcAddr), pReq,
   1815                                                        pInMsg->hdr.transSeqNum );
   1816                zcl_mem_free( pReq );
   1817              }
   1818            }
   1819          
   1820            return ( status );
   1821          }
   1822          
   1823          /*********************************************************************
   1824           * @fn      zclLL_ProcessInCmd_NwkUpdateReq
   1825           *
   1826           * @brief   Process in the received Network Update Request command.
   1827           *
   1828           * @param   pInMsg - pointer to the incoming message
   1829           *
   1830           * @return  ZStatus_t
   1831           */

   \                                 In  segment BANKED_CODE, align 1, keep-with-next
   \                     ?Subroutine5:
   \   000000   A9..         MOV     R1,?V0 + 2
   \   000002                REQUIRE ??Subroutine139_0
   \   000002                ; // Fall through to label ??Subroutine139_0

   \                                 In  segment BANKED_CODE, align 1, keep-with-next
   1832          static ZStatus_t zclLL_ProcessInCmd_NwkUpdateReq( zclIncoming_t *pInMsg )
   \                     zclLL_ProcessInCmd_NwkUpdateReq:
   1833          {
   \   000000   74F2         MOV     A,#-0xe
   \   000002   12....       LCALL   ?BANKED_ENTER_XDATA
   \   000005                ; Saved register size: 14
   \   000005                ; Auto size: 0
   \   000005   12....       LCALL   ?Subroutine33 & 0xFFFF
   1834            ZStatus_t status = ZSuccess;
   1835          
   1836            if ( pInterPANCBs->pfnNwkUpdateReq )
   \                     ??CrossCallReturnLabel_369:
   \   000008   240E         ADD     A,#0xe
   \   00000A   12....       LCALL   ?Subroutine11 & 0xFFFF
   \                     ??CrossCallReturnLabel_263:
   \   00000D   7003         JNZ     $+5
   \   00000F   02....       LJMP    ??zclLL_ProcessInCmd_NwkUpdateReq_0 & 0xFFFF
   1837            {
   1838              zclLLNwkUpdateReq_t *pReq;
   1839          
   1840              pReq = (zclLLNwkUpdateReq_t *)zcl_mem_alloc( sizeof( zclLLNwkUpdateReq_t ) );
   \   000012                ; Setup parameters for call to function osal_mem_alloc
   \   000012   7A12         MOV     R2,#0x12
   \   000014   7B00         MOV     R3,#0x0
   \   000016   12....       LCALL   ??osal_mem_alloc?relay
   \   000019   8A..         MOV     ?V0 + 4,R2
   \   00001B   8B..         MOV     ?V0 + 5,R3
   \   00001D   AE..         MOV     R6,?V0 + 4
   \   00001F   AF..         MOV     R7,?V0 + 5
   1841              if ( pReq )
   \   000021   EE           MOV     A,R6
   \   000022   4F           ORL     A,R7
   \   000023   6073         JZ      ??zclLL_ProcessInCmd_NwkUpdateReq_0
   1842              {
   1843                uint8 *pBuf = pInMsg->pData;
   \   000025   12....       LCALL   ?Subroutine41 & 0xFFFF
   1844          
   1845                pReq->transID = zcl_build_uint32( pBuf, 4 );
   \                     ??CrossCallReturnLabel_58:
   \   000028   12....       LCALL   ??osal_build_uint32?relay
   \   00002B   8E82         MOV     DPL,R6
   \   00002D   8F83         MOV     DPH,R7
   \   00002F   12....       LCALL   ?XSTORE_R2345
   1846                pBuf += 4;
   \   000032   12....       LCALL   ?Subroutine74 & 0xFFFF
   1847          
   1848                zcl_cpyExtAddr( pReq->extendedPANID, pBuf );
   \                     ??CrossCallReturnLabel_116:
   \   000035                ; Setup parameters for call to function sAddrExtCpy
   \   000035   AC..         MOV     R4,?V0 + 2
   \   000037   FD           MOV     R5,A
   \   000038   EE           MOV     A,R6
   \   000039   2404         ADD     A,#0x4
   \   00003B   FA           MOV     R2,A
   \   00003C   EF           MOV     A,R7
   \   00003D   3400         ADDC    A,#0x0
   \   00003F   FB           MOV     R3,A
   \   000040   12....       LCALL   ??sAddrExtCpy?relay
   1849                pBuf += Z_EXTADDR_LEN;
   \   000043   12....       LCALL   ?Subroutine78 & 0xFFFF
   1850          
   1851                pReq->nwkUpdateId = *pBuf++;
   \                     ??CrossCallReturnLabel_118:
   \   000046   C0E0         PUSH    A
   \   000048   EE           MOV     A,R6
   \   000049   240C         ADD     A,#0xc
   \   00004B   F582         MOV     DPL,A
   \   00004D   EF           MOV     A,R7
   \   00004E   12....       LCALL   ??Subroutine148_0 & 0xFFFF
   \                     ??CrossCallReturnLabel_281:
   \   000051   D0E0         POP     A
   \   000053   12....       LCALL   ?Subroutine64 & 0xFFFF
   1852                pReq->logicalChannel = *pBuf++;
   \                     ??CrossCallReturnLabel_101:
   \   000056   C0E0         PUSH    A
   \   000058   EE           MOV     A,R6
   \   000059   240D         ADD     A,#0xd
   \   00005B   F582         MOV     DPL,A
   \   00005D   EF           MOV     A,R7
   \   00005E   12....       LCALL   ??Subroutine148_0 & 0xFFFF
   \                     ??CrossCallReturnLabel_282:
   \   000061   D0E0         POP     A
   \   000063   12....       LCALL   ?Subroutine65 & 0xFFFF
   1853          
   1854                pReq->PANID = BUILD_UINT16( pBuf[0], pBuf[1] );
   \                     ??CrossCallReturnLabel_103:
   \   000066   12....       LCALL   ??Subroutine158_0 & 0xFFFF
   \                     ??CrossCallReturnLabel_365:
   \   000069   240E         ADD     A,#0xe
   \   00006B   12....       LCALL   ?Subroutine71 & 0xFFFF
   1855                pBuf += 2;
   \                     ??CrossCallReturnLabel_317:
   \   00006E   E5..         MOV     A,?V0 + 2
   \   000070   2402         ADD     A,#0x2
   \   000072   F5..         MOV     ?V0 + 2,A
   \   000074   E5..         MOV     A,?V0 + 3
   \   000076   3400         ADDC    A,#0x0
   1856          
   1857                pReq->nwkAddr = BUILD_UINT16( pBuf[0], pBuf[1] );
   \   000078   85..82       MOV     DPL,?V0 + 2
   \   00007B   12....       LCALL   ?Subroutine24 & 0xFFFF
   \                     ??CrossCallReturnLabel_368:
   \   00007E   2410         ADD     A,#0x10
   \   000080   12....       LCALL   ?Subroutine59 & 0xFFFF
   1858                pBuf += 2;
   1859          
   1860                status = pInterPANCBs->pfnNwkUpdateReq( &(pInMsg->msg->srcAddr), pReq );
   \                     ??CrossCallReturnLabel_342:
   \   000083   12....       LCALL   ??Subroutine168_0 & 0xFFFF
   \                     ??CrossCallReturnLabel_409:
   \   000086   240E         ADD     A,#0xe
   \   000088   12....       LCALL   ?Subroutine43 & 0xFFFF
   \                     ??CrossCallReturnLabel_353:
   \   00008B   12....       LCALL   ?CALL_IND
   \   00008E   E9           MOV     A,R1
   \   00008F   F5..         MOV     ?V0 + 2,A
   1861          
   1862                zcl_mem_free( pReq );
   \   000091                ; Setup parameters for call to function osal_mem_free
   \   000091   EE           MOV     A,R6
   \   000092   FA           MOV     R2,A
   \   000093   EF           MOV     A,R7
   \   000094   FB           MOV     R3,A
   \   000095   12....       LCALL   ??osal_mem_free?relay
   1863              }
   1864            }
   1865          
   1866            return ( status );
   \                     ??zclLL_ProcessInCmd_NwkUpdateReq_0:
   \   000098   02....       LJMP    ?Subroutine5 & 0xFFFF
   1867          }

   \                                 In  segment BANKED_CODE, align 1, keep-with-next
   \                     ?Subroutine59:
   \   000000   F582         MOV     DPL,A
   \   000002   EF           MOV     A,R7
   \   000003   12....       LCALL   ??Subroutine164_0 & 0xFFFF
   \                     ??CrossCallReturnLabel_395:
   \   000006   E8           MOV     A,R0
   \   000007   F0           MOVX    @DPTR,A
   \   000008   A3           INC     DPTR
   \   000009   E9           MOV     A,R1
   \   00000A                REQUIRE ??Subroutine156_0
   \   00000A                ; // Fall through to label ??Subroutine156_0

   \                                 In  segment BANKED_CODE, align 1, keep-with-next
   \                     ?Subroutine33:
   \   000000   8A..         MOV     ?V0 + 0,R2
   \   000002   8B..         MOV     ?V0 + 1,R3
   \   000004                REQUIRE ??Subroutine159_0
   \   000004                ; // Fall through to label ??Subroutine159_0

   \                                 In  segment BANKED_CODE, align 1, keep-with-next
   \                     ??Subroutine159_0:
   \   000000   75..00       MOV     ?V0 + 2,#0x0
   \   000003                REQUIRE ??Subroutine160_0
   \   000003                ; // Fall through to label ??Subroutine160_0

   \                                 In  segment BANKED_CODE, align 1, keep-with-next
   \                     ?Subroutine78:
   \   000000   E5..         MOV     A,?V0 + 2
   \   000002   2408         ADD     A,#0x8
   \   000004   F5..         MOV     ?V0 + 2,A
   \   000006   E5..         MOV     A,?V0 + 3
   \   000008   3400         ADDC    A,#0x0
   \   00000A   F5..         MOV     ?V0 + 3,A
   \   00000C   85..82       MOV     DPL,?V0 + 2
   \   00000F   F583         MOV     DPH,A
   \   000011   E0           MOVX    A,@DPTR
   \   000012   22           RET

   \                                 In  segment BANKED_CODE, align 1, keep-with-next
   \                     ?Subroutine74:
   \   000000   E5..         MOV     A,?V0 + 2
   \   000002   2404         ADD     A,#0x4
   \   000004   F5..         MOV     ?V0 + 2,A
   \   000006   E5..         MOV     A,?V0 + 3
   \   000008   3400         ADDC    A,#0x0
   \   00000A   F5..         MOV     ?V0 + 3,A
   \   00000C   22           RET

   \                                 In  segment BANKED_CODE, align 1, keep-with-next
   \                     ?Subroutine65:
   \   000000   12....       LCALL   ?Subroutine101 & 0xFFFF
   \                     ??CrossCallReturnLabel_165:
   \   000003   22           RET

   \                                 In  segment BANKED_CODE, align 1, keep-with-next
   \                     ?Subroutine101:
   \   000000   12....       LCALL   ?Subroutine120 & 0xFFFF
   \                     ??CrossCallReturnLabel_179:
   \   000003   8582..       MOV     ?V0 + 2,DPL
   \   000006   8583..       MOV     ?V0 + 3,DPH
   \   000009   22           RET

   \                                 In  segment BANKED_CODE, align 1, keep-with-next
   \                     ?Subroutine120:
   \   000000   F0           MOVX    @DPTR,A
   \   000001   85..82       MOV     DPL,?V0 + 2
   \   000004   85..83       MOV     DPH,?V0 + 3
   \   000007   A3           INC     DPTR
   \   000008   22           RET

   \                                 In  segment BANKED_CODE, align 1, keep-with-next
   \                     ?Subroutine64:
   \   000000   12....       LCALL   ?Subroutine101 & 0xFFFF
   \                     ??CrossCallReturnLabel_164:
   \   000003   E0           MOVX    A,@DPTR
   \   000004   22           RET

   \                                 In  segment BANKED_CODE, align 1, keep-with-next
   \                     ?Subroutine41:
   \   000000   85..82       MOV     DPL,?V0 + 0
   \   000003   85..83       MOV     DPH,?V0 + 1
   \   000006   A3           INC     DPTR
   \   000007   A3           INC     DPTR
   \   000008   A3           INC     DPTR
   \   000009   A3           INC     DPTR
   \   00000A   A3           INC     DPTR
   \   00000B   A3           INC     DPTR
   \   00000C   A3           INC     DPTR
   \   00000D   A3           INC     DPTR
   \   00000E   E0           MOVX    A,@DPTR
   \   00000F   F5..         MOV     ?V0 + 2,A
   \   000011   A3           INC     DPTR
   \   000012   E0           MOVX    A,@DPTR
   \   000013   F5..         MOV     ?V0 + 3,A
   \   000015                ; Setup parameters for call to function osal_build_uint32
   \   000015                ; Setup parameters for call to function osal_build_uint32
   \   000015   7904         MOV     R1,#0x4
   \   000017   AA..         MOV     R2,?V0 + 2
   \   000019   FB           MOV     R3,A
   \   00001A   22           RET
   1868          
   1869          /*********************************************************************
   1870           * @fn      zclLL_ProcessInCmd_ScanRsp
   1871           *
   1872           * @brief   Process in the received Scan Response command.
   1873           *
   1874           * @param   pInMsg - pointer to the incoming message
   1875           *
   1876           * @return  ZStatus_t
   1877           */

   \                                 In  segment BANKED_CODE, align 1, keep-with-next
   \                     ?Subroutine18:
   \   000000   12....       LCALL   ?Subroutine107 & 0xFFFF
   \                     ??CrossCallReturnLabel_171:
   \   000003   EE           MOV     A,R6
   \   000004   2402         ADD     A,#0x2
   \   000006                REQUIRE ??Subroutine152_0
   \   000006                ; // Fall through to label ??Subroutine152_0

   \                                 In  segment BANKED_CODE, align 1, keep-with-next
   1878          static ZStatus_t zclLL_ProcessInCmd_ScanRsp( zclIncoming_t *pInMsg )
   \                     zclLL_ProcessInCmd_ScanRsp:
   1879          {
   \   000000   74F2         MOV     A,#-0xe
   \   000002   12....       LCALL   ?BANKED_ENTER_XDATA
   \   000005                ; Saved register size: 14
   \   000005                ; Auto size: 0
   \   000005   8A..         MOV     ?V0 + 2,R2
   \   000007   8B..         MOV     ?V0 + 3,R3
   1880            ZStatus_t status = ZSuccess;
   \   000009   7E00         MOV     R6,#0x0
   1881          
   1882            if ( pInterPANCBs->pfnScanRsp )
   \   00000B   12....       LCALL   ??Subroutine160_0 & 0xFFFF
   \                     ??CrossCallReturnLabel_380:
   \   00000E   2410         ADD     A,#0x10
   \   000010   12....       LCALL   ?Subroutine11 & 0xFFFF
   \                     ??CrossCallReturnLabel_264:
   \   000013   7003         JNZ     $+5
   \   000015   02....       LJMP    ??zclLL_ProcessInCmd_ScanRsp_0 & 0xFFFF
   1883            {
   1884              zclLLScanRsp_t *pRsp;
   1885          
   1886              pRsp = (zclLLScanRsp_t *)zcl_mem_alloc( sizeof( zclLLScanRsp_t ) );
   \   000018                ; Setup parameters for call to function osal_mem_alloc
   \   000018   7A26         MOV     R2,#0x26
   \   00001A   7B00         MOV     R3,#0x0
   \   00001C   12....       LCALL   ??osal_mem_alloc?relay
   \   00001F   8A..         MOV     ?V0 + 0,R2
   \   000021   8B..         MOV     ?V0 + 1,R3
   1887              if ( pRsp )
   \   000023   EA           MOV     A,R2
   \   000024   45..         ORL     A,?V0 + 1
   \   000026   7003         JNZ     $+5
   \   000028   02....       LJMP    ??zclLL_ProcessInCmd_ScanRsp_0 & 0xFFFF
   1888              {
   1889                uint8 *pBuf = pInMsg->pData;
   \   00002B   85..82       MOV     DPL,?V0 + 2
   \   00002E   85..83       MOV     DPH,?V0 + 3
   \   000031   A3           INC     DPTR
   \   000032   A3           INC     DPTR
   \   000033   A3           INC     DPTR
   \   000034   A3           INC     DPTR
   \   000035   A3           INC     DPTR
   \   000036   A3           INC     DPTR
   \   000037   A3           INC     DPTR
   \   000038   A3           INC     DPTR
   \   000039   E0           MOVX    A,@DPTR
   \   00003A   FE           MOV     R6,A
   \   00003B   A3           INC     DPTR
   \   00003C   E0           MOVX    A,@DPTR
   \   00003D   FF           MOV     R7,A
   1890          
   1891                zcl_memset( pRsp, 0, sizeof( zclLLScanRsp_t ) );
   \   00003E                ; Setup parameters for call to function osal_memset
   \   00003E   7C26         MOV     R4,#0x26
   \   000040   7D00         MOV     R5,#0x0
   \   000042   7900         MOV     R1,#0x0
   \   000044   12....       LCALL   ??osal_memset?relay
   1892          
   1893                pRsp->transID = zcl_build_uint32( pBuf, 4 );
   \   000047                ; Setup parameters for call to function osal_build_uint32
   \   000047   7904         MOV     R1,#0x4
   \   000049   EE           MOV     A,R6
   \   00004A   FA           MOV     R2,A
   \   00004B   EF           MOV     A,R7
   \   00004C   FB           MOV     R3,A
   \   00004D   12....       LCALL   ??osal_build_uint32?relay
   \   000050   85..82       MOV     DPL,?V0 + 0
   \   000053   85..83       MOV     DPH,?V0 + 1
   \   000056   12....       LCALL   ?XSTORE_R2345
   1894                pBuf += 4;
   \   000059   12....       LCALL   ?Subroutine14 & 0xFFFF
   1895          
   1896                pRsp->rssiCorrection = *pBuf++;
   1897                pRsp->zInfo.zInfoByte = *pBuf++;
   1898                pRsp->zllInfo.zllInfoByte = *pBuf++;
   \                     ??CrossCallReturnLabel_6:
   \   00005C   12....       LCALL   ?Subroutine70 & 0xFFFF
   \                     ??CrossCallReturnLabel_382:
   \   00005F   0E           INC     R6
   \   000060   12....       LCALL   ?Subroutine40 & 0xFFFF
   1899          
   1900                pRsp->keyBitmask = BUILD_UINT16( pBuf[0], pBuf[1] );
   \                     ??CrossCallReturnLabel_401:
   \   000063   85..82       MOV     DPL,?V0 + 0
   \   000066   85..83       MOV     DPH,?V0 + 1
   \   000069   12....       LCALL   ?Subroutine62 & 0xFFFF
   1901                pBuf += 2;
   1902          
   1903                pRsp->responseID = zcl_build_uint32( pBuf, 4 );
   \                     ??CrossCallReturnLabel_388:
   \   00006C                ; Setup parameters for call to function osal_build_uint32
   \   00006C   7904         MOV     R1,#0x4
   \   00006E   EE           MOV     A,R6
   \   00006F   FA           MOV     R2,A
   \   000070   EF           MOV     A,R7
   \   000071   FB           MOV     R3,A
   \   000072   12....       LCALL   ??osal_build_uint32?relay
   \   000075   E5..         MOV     A,?V0 + 0
   \   000077   240B         ADD     A,#0xb
   \   000079   12....       LCALL   ??Subroutine147_0 & 0xFFFF
   \                     ??CrossCallReturnLabel_293:
   \   00007C   12....       LCALL   ?XSTORE_R2345
   1904                pBuf += 4;
   \   00007F   EE           MOV     A,R6
   \   000080   2404         ADD     A,#0x4
   \   000082   12....       LCALL   ?Subroutine80 & 0xFFFF
   1905          
   1906                zcl_cpyExtAddr( pRsp->extendedPANID, pBuf );
   \                     ??CrossCallReturnLabel_123:
   \   000085   240F         ADD     A,#0xf
   \   000087   FA           MOV     R2,A
   \   000088   E5..         MOV     A,?V0 + 1
   \   00008A   3400         ADDC    A,#0x0
   \   00008C   FB           MOV     R3,A
   \   00008D   12....       LCALL   ??sAddrExtCpy?relay
   1907                pBuf += Z_EXTADDR_LEN;
   \   000090   12....       LCALL   ?Subroutine76 & 0xFFFF
   1908          
   1909                pRsp->nwkUpdateId = *pBuf++;
   \                     ??CrossCallReturnLabel_325:
   \   000093   C0E0         PUSH    A
   \   000095   E5..         MOV     A,?V0 + 0
   \   000097   2417         ADD     A,#0x17
   \   000099   12....       LCALL   ??Subroutine147_0 & 0xFFFF
   \                     ??CrossCallReturnLabel_294:
   \   00009C   D0E0         POP     A
   \   00009E   12....       LCALL   ?Subroutine56 & 0xFFFF
   1910                pRsp->logicalChannel = *pBuf++;
   \                     ??CrossCallReturnLabel_87:
   \   0000A1   C0E0         PUSH    A
   \   0000A3   E5..         MOV     A,?V0 + 0
   \   0000A5   2418         ADD     A,#0x18
   \   0000A7   12....       LCALL   ??Subroutine147_0 & 0xFFFF
   \                     ??CrossCallReturnLabel_295:
   \   0000AA   D0E0         POP     A
   \   0000AC   12....       LCALL   ?Subroutine57 & 0xFFFF
   1911          
   1912                pRsp->PANID = BUILD_UINT16( pBuf[0], pBuf[1] );
   \                     ??CrossCallReturnLabel_90:
   \   0000AF   12....       LCALL   ??Subroutine153_0 & 0xFFFF
   \                     ??CrossCallReturnLabel_321:
   \   0000B2   2419         ADD     A,#0x19
   \   0000B4   12....       LCALL   ?Subroutine18 & 0xFFFF
   1913                pBuf += 2;
   1914          
   1915                pRsp->nwkAddr = BUILD_UINT16( pBuf[0], pBuf[1] );
   \                     ??CrossCallReturnLabel_318:
   \   0000B7   241B         ADD     A,#0x1b
   \   0000B9   12....       LCALL   ??Subroutine147_0 & 0xFFFF
   \                     ??CrossCallReturnLabel_296:
   \   0000BC   E8           MOV     A,R0
   \   0000BD   12....       LCALL   ??Subroutine163_0 & 0xFFFF
   1916                pBuf += 2;
   1917          
   1918                pRsp->numSubDevices = *pBuf++;
   \                     ??CrossCallReturnLabel_390:
   \   0000C0   E5..         MOV     A,?V0 + 0
   \   0000C2   241D         ADD     A,#0x1d
   \   0000C4   F8           MOV     R0,A
   \   0000C5   E5..         MOV     A,?V0 + 1
   \   0000C7   3400         ADDC    A,#0x0
   \   0000C9   F9           MOV     R1,A
   \   0000CA   12....       LCALL   ?Subroutine49 & 0xFFFF
   \                     ??CrossCallReturnLabel_219:
   \   0000CD   8E82         MOV     DPL,R6
   \   0000CF   8F83         MOV     DPH,R7
   \   0000D1   A3           INC     DPTR
   \   0000D2   0E           INC     R6
   \   0000D3   AF83         MOV     R7,DPH
   1919                pRsp->totalGrpIDs = *pBuf++;
   \   0000D5   E0           MOVX    A,@DPTR
   \   0000D6   C0E0         PUSH    A
   \   0000D8   E5..         MOV     A,?V0 + 0
   \   0000DA   241E         ADD     A,#0x1e
   \   0000DC   12....       LCALL   ??Subroutine147_0 & 0xFFFF
   \                     ??CrossCallReturnLabel_297:
   \   0000DF   D0E0         POP     A
   \   0000E1   12....       LCALL   ?Subroutine57 & 0xFFFF
   1920          
   1921                if ( pRsp->numSubDevices == 1 )
   \                     ??CrossCallReturnLabel_91:
   \   0000E4   8882         MOV     DPL,R0
   \   0000E6   8983         MOV     DPH,R1
   \   0000E8   E0           MOVX    A,@DPTR
   \   0000E9   6401         XRL     A,#0x1
   \   0000EB   703F         JNZ     ??zclLL_ProcessInCmd_ScanRsp_1
   1922                {
   1923                  pRsp->deviceInfo.endpoint = *pBuf++;
   \   0000ED   8E82         MOV     DPL,R6
   \   0000EF   8F83         MOV     DPH,R7
   \   0000F1   E0           MOVX    A,@DPTR
   \   0000F2   C0E0         PUSH    A
   \   0000F4   E5..         MOV     A,?V0 + 0
   \   0000F6   241F         ADD     A,#0x1f
   \   0000F8   12....       LCALL   ??Subroutine147_0 & 0xFFFF
   \                     ??CrossCallReturnLabel_298:
   \   0000FB   D0E0         POP     A
   \   0000FD   12....       LCALL   ?Subroutine57 & 0xFFFF
   1924          
   1925                  pRsp->deviceInfo.profileID = BUILD_UINT16( pBuf[0], pBuf[1] );
   \                     ??CrossCallReturnLabel_92:
   \   000100   12....       LCALL   ??Subroutine153_0 & 0xFFFF
   \                     ??CrossCallReturnLabel_322:
   \   000103   2420         ADD     A,#0x20
   \   000105   12....       LCALL   ?Subroutine18 & 0xFFFF
   1926                  pBuf += 2;
   1927          
   1928                  pRsp->deviceInfo.deviceID = BUILD_UINT16( pBuf[0], pBuf[1] );
   \                     ??CrossCallReturnLabel_319:
   \   000108   2422         ADD     A,#0x22
   \   00010A   F582         MOV     DPL,A
   \   00010C   E5..         MOV     A,?V0 + 1
   \   00010E   12....       LCALL   ?Subroutine61 & 0xFFFF
   1929                  pBuf += 2;
   1930          
   1931                  pRsp->deviceInfo.version = *pBuf++;
   \                     ??CrossCallReturnLabel_99:
   \   000111   C0E0         PUSH    A
   \   000113   E5..         MOV     A,?V0 + 0
   \   000115   2424         ADD     A,#0x24
   \   000117   12....       LCALL   ??Subroutine147_0 & 0xFFFF
   \                     ??CrossCallReturnLabel_299:
   \   00011A   D0E0         POP     A
   \   00011C   12....       LCALL   ??Subroutine162_0 & 0xFFFF
   1932                  pRsp->deviceInfo.grpIdCnt = *pBuf;
   \                     ??CrossCallReturnLabel_381:
   \   00011F   E0           MOVX    A,@DPTR
   \   000120   C0E0         PUSH    A
   \   000122   E5..         MOV     A,?V0 + 0
   \   000124   2425         ADD     A,#0x25
   \   000126   12....       LCALL   ??Subroutine147_0 & 0xFFFF
   1933                }
   \                     ??CrossCallReturnLabel_300:
   \   000129   D0E0         POP     A
   \   00012B   F0           MOVX    @DPTR,A
   1934          
   1935                status = pInterPANCBs->pfnScanRsp( &(pInMsg->msg->srcAddr), pRsp );
   \                     ??zclLL_ProcessInCmd_ScanRsp_1:
   \   00012C                ; Setup parameters for indirect call
   \   00012C   AC..         MOV     R4,?V0 + 0
   \   00012E   AD..         MOV     R5,?V0 + 1
   \   000130   85..82       MOV     DPL,?V0 + 2
   \   000133   85..83       MOV     DPH,?V0 + 3
   \   000136   12....       LCALL   ??Subroutine168_0 & 0xFFFF
   \                     ??CrossCallReturnLabel_410:
   \   000139   2410         ADD     A,#0x10
   \   00013B   12....       LCALL   ?Subroutine43 & 0xFFFF
   \                     ??CrossCallReturnLabel_354:
   \   00013E   12....       LCALL   ?CALL_IND
   \   000141   E9           MOV     A,R1
   \   000142   FE           MOV     R6,A
   1936                zcl_mem_free( pRsp );
   \   000143                ; Setup parameters for call to function osal_mem_free
   \   000143   AA..         MOV     R2,?V0 + 0
   \   000145   AB..         MOV     R3,?V0 + 1
   \   000147   12....       LCALL   ??osal_mem_free?relay
   1937              }
   1938            }
   1939          
   1940            return ( status );
   \                     ??zclLL_ProcessInCmd_ScanRsp_0:
   \   00014A   EE           MOV     A,R6
   \   00014B   F9           MOV     R1,A
   \   00014C   02....       LJMP    ??Subroutine139_0 & 0xFFFF
   1941          }

   \                                 In  segment BANKED_CODE, align 1, keep-with-next
   \                     ?Subroutine70:
   \   000000   A3           INC     DPTR
   \   000001                REQUIRE ??Subroutine162_0
   \   000001                ; // Fall through to label ??Subroutine162_0

   \                                 In  segment BANKED_CODE, align 1, keep-with-next
   \                     ??Subroutine162_0:
   \   000000   12....       LCALL   ?Subroutine119 & 0xFFFF
   \                     ??CrossCallReturnLabel_387:
   \   000003   22           RET

   \                                 In  segment BANKED_CODE, align 1, keep-with-next
   \                     ?Subroutine62:
   \   000000   A3           INC     DPTR
   \   000001   A3           INC     DPTR
   \   000002   A3           INC     DPTR
   \   000003   A3           INC     DPTR
   \   000004   A3           INC     DPTR
   \   000005   A3           INC     DPTR
   \   000006   A3           INC     DPTR
   \   000007   A3           INC     DPTR
   \   000008   A3           INC     DPTR
   \   000009                REQUIRE ??Subroutine163_0
   \   000009                ; // Fall through to label ??Subroutine163_0

   \                                 In  segment BANKED_CODE, align 1, keep-with-next
   \                     ??Subroutine163_0:
   \   000000   12....       LCALL   ?Subroutine102 & 0xFFFF
   \                     ??CrossCallReturnLabel_391:
   \   000003   22           RET

   \                                 In  segment BANKED_CODE, align 1, keep-with-next
   \                     ?Subroutine102:
   \   000000   12....       LCALL   ?Subroutine118 & 0xFFFF
   \                     ??CrossCallReturnLabel_394:
   \   000003   22           RET

   \                                 In  segment BANKED_CODE, align 1, keep-with-next
   \                     ?Subroutine61:
   \   000000   12....       LCALL   ??Subroutine164_0 & 0xFFFF
   \                     ??CrossCallReturnLabel_396:
   \   000003   E8           MOV     A,R0
   \   000004   12....       LCALL   ?Subroutine102 & 0xFFFF
   \                     ??CrossCallReturnLabel_392:
   \   000007   8E82         MOV     DPL,R6
   \   000009   8F83         MOV     DPH,R7
   \   00000B   E0           MOVX    A,@DPTR
   \   00000C   22           RET

   \                                 In  segment BANKED_CODE, align 1, keep-with-next
   \                     ?Subroutine57:
   \   000000   12....       LCALL   ?Subroutine100 & 0xFFFF
   \                     ??CrossCallReturnLabel_163:
   \   000003   22           RET

   \                                 In  segment BANKED_CODE, align 1, keep-with-next
   \                     ?Subroutine40:
   \   000000   AF83         MOV     R7,DPH
   \   000002                REQUIRE ??Subroutine165_0
   \   000002                ; // Fall through to label ??Subroutine165_0

   \                                 In  segment BANKED_CODE, align 1, keep-with-next
   \                     ?Subroutine14:
   \   000000   EE           MOV     A,R6
   \   000001   2404         ADD     A,#0x4
   \   000003   12....       LCALL   ?Subroutine110 & 0xFFFF
   \                     ??CrossCallReturnLabel_329:
   \   000006   85..82       MOV     DPL,?V0 + 0
   \   000009   85..83       MOV     DPH,?V0 + 1
   \   00000C   A3           INC     DPTR
   \   00000D   A3           INC     DPTR
   \   00000E   A3           INC     DPTR
   \   00000F   A3           INC     DPTR
   \   000010   12....       LCALL   ?Subroutine104 & 0xFFFF
   \                     ??CrossCallReturnLabel_166:
   \   000013   12....       LCALL   ?Subroutine94 & 0xFFFF
   \                     ??CrossCallReturnLabel_149:
   \   000016   12....       LCALL   ?Subroutine119 & 0xFFFF
   \                     ??CrossCallReturnLabel_384:
   \   000019   0E           INC     R6
   \   00001A   12....       LCALL   ?Subroutine94 & 0xFFFF
   \                     ??CrossCallReturnLabel_150:
   \   00001D   A3           INC     DPTR
   \   00001E   22           RET

   \                                 In  segment BANKED_CODE, align 1, keep-with-next
   \                     ?Subroutine94:
   \   000000   AF83         MOV     R7,DPH
   \   000002   E0           MOVX    A,@DPTR
   \   000003   85..82       MOV     DPL,?V0 + 0
   \   000006   85..83       MOV     DPH,?V0 + 1
   \   000009   A3           INC     DPTR
   \   00000A   A3           INC     DPTR
   \   00000B   A3           INC     DPTR
   \   00000C   A3           INC     DPTR
   \   00000D   A3           INC     DPTR
   \   00000E   22           RET
   1942          
   1943          /*********************************************************************
   1944           * @fn      zclLL_ProcessInCmd_DeviceInfoRsp
   1945           *
   1946           * @brief   Process in the received Device Information Response command.
   1947           *
   1948           * @param   pInMsg - pointer to the incoming message
   1949           *
   1950           * @return  ZStatus_t
   1951           */

   \                                 In  segment BANKED_CODE, align 1, keep-with-next
   1952          static ZStatus_t zclLL_ProcessInCmd_DeviceInfoRsp( zclIncoming_t *pInMsg )
   \                     zclLL_ProcessInCmd_DeviceInfoRsp:
   1953          {
   \   000000   74EE         MOV     A,#-0x12
   \   000002   12....       LCALL   ?BANKED_ENTER_XDATA
   \   000005                ; Saved register size: 18
   \   000005                ; Auto size: 0
   \   000005   8A..         MOV     ?V0 + 6,R2
   \   000007   8B..         MOV     ?V0 + 7,R3
   1954            ZStatus_t status = ZSuccess;
   \   000009   12....       LCALL   ??Subroutine159_0 & 0xFFFF
   1955          
   1956            if ( pInterPANCBs->pfnDeviceInfoRsp )
   \                     ??CrossCallReturnLabel_371:
   \   00000C   2412         ADD     A,#0x12
   \   00000E   12....       LCALL   ?Subroutine11 & 0xFFFF
   \                     ??CrossCallReturnLabel_265:
   \   000011   7003         JNZ     $+5
   \   000013   02....       LJMP    ??zclLL_ProcessInCmd_DeviceInfoRsp_0 & 0xFFFF
   1957            {
   1958              zclLLDeviceInfoRsp_t *pRsp;
   1959              uint8 cnt = pInMsg->pData[ZLL_CMDLEN_DEVICE_INFO_RSP-1];
   \   000016   EA           MOV     A,R2
   \   000017   2408         ADD     A,#0x8
   \   000019   F8           MOV     R0,A
   \   00001A   EB           MOV     A,R3
   \   00001B   3400         ADDC    A,#0x0
   \   00001D   F9           MOV     R1,A
   \   00001E   E8           MOV     A,R0
   \   00001F   FE           MOV     R6,A
   \   000020   E9           MOV     A,R1
   \   000021   FF           MOV     R7,A
   \   000022   8E82         MOV     DPL,R6
   \   000024   8F83         MOV     DPH,R7
   \   000026   12....       LCALL   ?Subroutine32 & 0xFFFF
   \                     ??CrossCallReturnLabel_44:
   \   000029   F5..         MOV     ?V0 + 5,A
   1960              uint8 rspLen = sizeof( zclLLDeviceInfoRsp_t ) + ( cnt * sizeof( devInfoRec_t ) );
   1961          
   1962              pRsp = (zclLLDeviceInfoRsp_t *)zcl_mem_alloc( rspLen );
   \   00002B                ; Setup parameters for call to function osal_mem_alloc
   \   00002B   C4           SWAP    A
   \   00002C   54F0         ANL     A,#0xf0
   \   00002E   2409         ADD     A,#0x9
   \   000030   FA           MOV     R2,A
   \   000031   7B00         MOV     R3,#0x0
   \   000033   12....       LCALL   ??osal_mem_alloc?relay
   \   000036   8A..         MOV     ?V0 + 0,R2
   \   000038   8B..         MOV     ?V0 + 1,R3
   1963              if ( pRsp )
   \   00003A   EA           MOV     A,R2
   \   00003B   45..         ORL     A,?V0 + 1
   \   00003D   7003         JNZ     $+5
   \   00003F   02....       LJMP    ??zclLL_ProcessInCmd_DeviceInfoRsp_0 & 0xFFFF
   1964              {
   1965                uint8 *pBuf = pInMsg->pData;
   \   000042   8E82         MOV     DPL,R6
   \   000044   8F83         MOV     DPH,R7
   \   000046   12....       LCALL   ?Subroutine46 & 0xFFFF
   1966                uint8 i;
   1967          
   1968                pRsp->transID = zcl_build_uint32( pBuf, 4 );
   \                     ??CrossCallReturnLabel_66:
   \   000049   12....       LCALL   ??osal_build_uint32?relay
   \   00004C   85..82       MOV     DPL,?V0 + 0
   \   00004F   85..83       MOV     DPH,?V0 + 1
   \   000052   12....       LCALL   ?XSTORE_R2345
   1969                pBuf += 4;
   \   000055   12....       LCALL   ?Subroutine14 & 0xFFFF
   1970          
   1971                pRsp->numSubDevices = *pBuf++;
   1972                pRsp->startIndex = *pBuf++;
   1973                pRsp->cnt = *pBuf++;
   \                     ??CrossCallReturnLabel_7:
   \   000058   12....       LCALL   ?Subroutine57 & 0xFFFF
   1974          
   1975                for ( i = 0; i < cnt; i++ )
   \                     ??CrossCallReturnLabel_93:
   \   00005B   75..00       MOV     ?V0 + 4,#0x0
   \   00005E   02....       LJMP    ??zclLL_ProcessInCmd_DeviceInfoRsp_1 & 0xFFFF
   1976                {
   1977                  devInfoRec_t *pRec = &(pRsp->devInfoRec[i]);
   \                     ??zclLL_ProcessInCmd_DeviceInfoRsp_2:
   \   000061   85....       MOV     ?V0 + 2,?V0 + 4
   \   000064   75..00       MOV     ?V0 + 3,#0x0
   \   000067   7404         MOV     A,#0x4
   \   000069   78..         MOV     R0,#?V0 + 2
   \   00006B   12....       LCALL   ?S_SHL
   \   00006E   85..82       MOV     DPL,?V0 + 0
   \   000071   85..83       MOV     DPH,?V0 + 1
   \   000074   A3           INC     DPTR
   \   000075   A3           INC     DPTR
   \   000076   A3           INC     DPTR
   \   000077   A3           INC     DPTR
   \   000078   A3           INC     DPTR
   \   000079   A3           INC     DPTR
   \   00007A   A3           INC     DPTR
   \   00007B   E0           MOVX    A,@DPTR
   \   00007C   25..         ADD     A,?V0 + 2
   \   00007E   F5..         MOV     ?V0 + 2,A
   \   000080   A3           INC     DPTR
   \   000081   E0           MOVX    A,@DPTR
   \   000082   35..         ADDC    A,?V0 + 3
   \   000084   F5..         MOV     ?V0 + 3,A
   1978          
   1979                  zcl_cpyExtAddr( pRec->ieeeAddr, pBuf );
   \   000086                ; Setup parameters for call to function sAddrExtCpy
   \   000086   EE           MOV     A,R6
   \   000087   FC           MOV     R4,A
   \   000088   EF           MOV     A,R7
   \   000089   FD           MOV     R5,A
   \   00008A   AA..         MOV     R2,?V0 + 2
   \   00008C   AB..         MOV     R3,?V0 + 3
   \   00008E   12....       LCALL   ??sAddrExtCpy?relay
   1980                  pBuf += Z_EXTADDR_LEN;
   \   000091   EE           MOV     A,R6
   \   000092   2408         ADD     A,#0x8
   \   000094   12....       LCALL   ?Subroutine121 & 0xFFFF
   1981          
   1982                  pRec->deviceInfo.endpoint = *pBuf++;
   \                     ??CrossCallReturnLabel_332:
   \   000097   12....       LCALL   ?Subroutine51 & 0xFFFF
   \                     ??CrossCallReturnLabel_74:
   \   00009A   A3           INC     DPTR
   \   00009B   A3           INC     DPTR
   \   00009C   A3           INC     DPTR
   \   00009D   A3           INC     DPTR
   \   00009E   A3           INC     DPTR
   \   00009F   12....       LCALL   ?Subroutine70 & 0xFFFF
   \                     ??CrossCallReturnLabel_383:
   \   0000A2   AE82         MOV     R6,DPL
   \   0000A4   12....       LCALL   ?Subroutine40 & 0xFFFF
   1983          
   1984                  pRec->deviceInfo.profileID = BUILD_UINT16( pBuf[0], pBuf[1] );
   \                     ??CrossCallReturnLabel_402:
   \   0000A7   85..82       MOV     DPL,?V0 + 2
   \   0000AA   85..83       MOV     DPH,?V0 + 3
   \   0000AD   12....       LCALL   ?Subroutine62 & 0xFFFF
   1985                  pBuf += 2;
   1986          
   1987                  pRec->deviceInfo.deviceID = BUILD_UINT16( pBuf[0], pBuf[1] );
   \                     ??CrossCallReturnLabel_389:
   \   0000B0   8E82         MOV     DPL,R6
   \   0000B2   8F83         MOV     DPH,R7
   \   0000B4   12....       LCALL   ??Subroutine165_0 & 0xFFFF
   1988                  pBuf += 2;
   1989          
   1990                  pRec->deviceInfo.version = *pBuf++;
   1991                  pRec->deviceInfo.grpIdCnt = *pBuf++;
   1992          
   1993                  pRec->sort = *pBuf++;
   1994                }
   \                     ??CrossCallReturnLabel_404:
   \   0000B7   F8           MOV     R0,A
   \   0000B8   E5..         MOV     A,?V0 + 2
   \   0000BA   240B         ADD     A,#0xb
   \   0000BC   F582         MOV     DPL,A
   \   0000BE   E5..         MOV     A,?V0 + 3
   \   0000C0   12....       LCALL   ?Subroutine61 & 0xFFFF
   \                     ??CrossCallReturnLabel_100:
   \   0000C3   C0E0         PUSH    A
   \   0000C5   E5..         MOV     A,?V0 + 2
   \   0000C7   240D         ADD     A,#0xd
   \   0000C9   F582         MOV     DPL,A
   \   0000CB   E5..         MOV     A,?V0 + 3
   \   0000CD   12....       LCALL   ??Subroutine148_0 & 0xFFFF
   \                     ??CrossCallReturnLabel_283:
   \   0000D0   D0E0         POP     A
   \   0000D2   12....       LCALL   ?Subroutine56 & 0xFFFF
   \                     ??CrossCallReturnLabel_88:
   \   0000D5   C0E0         PUSH    A
   \   0000D7   E5..         MOV     A,?V0 + 2
   \   0000D9   240E         ADD     A,#0xe
   \   0000DB   F582         MOV     DPL,A
   \   0000DD   E5..         MOV     A,?V0 + 3
   \   0000DF   12....       LCALL   ??Subroutine148_0 & 0xFFFF
   \                     ??CrossCallReturnLabel_284:
   \   0000E2   D0E0         POP     A
   \   0000E4   12....       LCALL   ?Subroutine56 & 0xFFFF
   \                     ??CrossCallReturnLabel_89:
   \   0000E7   C0E0         PUSH    A
   \   0000E9   E5..         MOV     A,?V0 + 2
   \   0000EB   240F         ADD     A,#0xf
   \   0000ED   F582         MOV     DPL,A
   \   0000EF   E5..         MOV     A,?V0 + 3
   \   0000F1   12....       LCALL   ??Subroutine148_0 & 0xFFFF
   \                     ??CrossCallReturnLabel_285:
   \   0000F4   D0E0         POP     A
   \   0000F6   12....       LCALL   ?Subroutine57 & 0xFFFF
   \                     ??CrossCallReturnLabel_94:
   \   0000F9   05..         INC     ?V0 + 4
   \                     ??zclLL_ProcessInCmd_DeviceInfoRsp_1:
   \   0000FB   E5..         MOV     A,?V0 + 4
   \   0000FD   C3           CLR     C
   \   0000FE   95..         SUBB    A,?V0 + 5
   \   000100   5003         JNC     $+5
   \   000102   02....       LJMP    ??zclLL_ProcessInCmd_DeviceInfoRsp_2 & 0xFFFF
   1995          
   1996                status = pInterPANCBs->pfnDeviceInfoRsp( &(pInMsg->msg->srcAddr), pRsp );
   \   000105                ; Setup parameters for indirect call
   \   000105   AC..         MOV     R4,?V0 + 0
   \   000107   AD..         MOV     R5,?V0 + 1
   \   000109   85..82       MOV     DPL,?V0 + 6
   \   00010C   85..83       MOV     DPH,?V0 + 7
   \   00010F   12....       LCALL   ??Subroutine168_0 & 0xFFFF
   \                     ??CrossCallReturnLabel_411:
   \   000112   2412         ADD     A,#0x12
   \   000114   12....       LCALL   ?Subroutine43 & 0xFFFF
   \                     ??CrossCallReturnLabel_355:
   \   000117   12....       LCALL   ?CALL_IND
   \   00011A   E9           MOV     A,R1
   \   00011B   F5..         MOV     ?V0 + 2,A
   1997          
   1998                zcl_mem_free( pRsp );
   \   00011D                ; Setup parameters for call to function osal_mem_free
   \   00011D   AA..         MOV     R2,?V0 + 0
   \   00011F   AB..         MOV     R3,?V0 + 1
   \   000121   12....       LCALL   ??osal_mem_free?relay
   1999              }
   2000            }
   2001          
   2002            return ( status );
   \                     ??zclLL_ProcessInCmd_DeviceInfoRsp_0:
   \   000124   A9..         MOV     R1,?V0 + 2
   \   000126   02....       LJMP    ??Subroutine141_0 & 0xFFFF
   2003          }
   2004          
   2005          /*********************************************************************
   2006           * @fn      zclLL_ProcessInCmd_NwkStartRsp
   2007           *
   2008           * @brief   Process in the received Network Start Response command.
   2009           *
   2010           * @param   pInMsg - pointer to the incoming message
   2011           *
   2012           * @return  ZStatus_t
   2013           */

   \                                 In  segment BANKED_CODE, align 1, keep-with-next
   2014          static ZStatus_t zclLL_ProcessInCmd_NwkStartRsp( zclIncoming_t *pInMsg )
   \                     zclLL_ProcessInCmd_NwkStartRsp:
   2015          {
   \   000000   74F2         MOV     A,#-0xe
   \   000002   12....       LCALL   ?BANKED_ENTER_XDATA
   \   000005                ; Saved register size: 14
   \   000005                ; Auto size: 0
   \   000005   12....       LCALL   ?Subroutine33 & 0xFFFF
   2016            ZStatus_t status = ZSuccess;
   2017          
   2018            if ( pInterPANCBs->pfnNwkStartRsp )
   \                     ??CrossCallReturnLabel_370:
   \   000008   2414         ADD     A,#0x14
   \   00000A   12....       LCALL   ?Subroutine11 & 0xFFFF
   \                     ??CrossCallReturnLabel_266:
   \   00000D   607B         JZ      ??zclLL_ProcessInCmd_NwkStartRsp_0
   2019            {
   2020              zclLLNwkStartRsp_t *pRsp;
   2021          
   2022              pRsp = (zclLLNwkStartRsp_t *)zcl_mem_alloc( sizeof( zclLLNwkStartRsp_t ) );
   \   00000F                ; Setup parameters for call to function osal_mem_alloc
   \   00000F   7A11         MOV     R2,#0x11
   \   000011   7B00         MOV     R3,#0x0
   \   000013   12....       LCALL   ??osal_mem_alloc?relay
   \   000016   8A..         MOV     ?V0 + 4,R2
   \   000018   8B..         MOV     ?V0 + 5,R3
   \   00001A   AE..         MOV     R6,?V0 + 4
   \   00001C   AF..         MOV     R7,?V0 + 5
   2023              if ( pRsp )
   \   00001E   EE           MOV     A,R6
   \   00001F   4F           ORL     A,R7
   \   000020   6068         JZ      ??zclLL_ProcessInCmd_NwkStartRsp_0
   2024              {
   2025                uint8 *pBuf = pInMsg->pData;
   \   000022   12....       LCALL   ?Subroutine41 & 0xFFFF
   2026          
   2027                pRsp->transID = zcl_build_uint32( pBuf, 4 );
   \                     ??CrossCallReturnLabel_59:
   \   000025   12....       LCALL   ??osal_build_uint32?relay
   \   000028   8E82         MOV     DPL,R6
   \   00002A   8F83         MOV     DPH,R7
   \   00002C   12....       LCALL   ?XSTORE_R2345
   2028                pBuf += 4;
   \   00002F   12....       LCALL   ?Subroutine74 & 0xFFFF
   2029          
   2030                pRsp->status = *pBuf++;
   \                     ??CrossCallReturnLabel_117:
   \   000032   85..82       MOV     DPL,?V0 + 2
   \   000035   12....       LCALL   ?Subroutine50 & 0xFFFF
   \                     ??CrossCallReturnLabel_72:
   \   000038   12....       LCALL   ?Subroutine65 & 0xFFFF
   2031          
   2032                zcl_cpyExtAddr( pRsp->extendedPANID, pBuf );
   \                     ??CrossCallReturnLabel_104:
   \   00003B                ; Setup parameters for call to function sAddrExtCpy
   \   00003B   AC..         MOV     R4,?V0 + 2
   \   00003D   AD..         MOV     R5,?V0 + 3
   \   00003F   EE           MOV     A,R6
   \   000040   2405         ADD     A,#0x5
   \   000042   FA           MOV     R2,A
   \   000043   EF           MOV     A,R7
   \   000044   3400         ADDC    A,#0x0
   \   000046   FB           MOV     R3,A
   \   000047   12....       LCALL   ??sAddrExtCpy?relay
   2033                pBuf += Z_EXTADDR_LEN;
   \   00004A   12....       LCALL   ?Subroutine78 & 0xFFFF
   2034          
   2035                pRsp->nwkUpdateId = *pBuf++;
   \                     ??CrossCallReturnLabel_119:
   \   00004D   C0E0         PUSH    A
   \   00004F   EE           MOV     A,R6
   \   000050   240D         ADD     A,#0xd
   \   000052   F582         MOV     DPL,A
   \   000054   EF           MOV     A,R7
   \   000055   12....       LCALL   ??Subroutine148_0 & 0xFFFF
   \                     ??CrossCallReturnLabel_286:
   \   000058   D0E0         POP     A
   \   00005A   12....       LCALL   ?Subroutine64 & 0xFFFF
   2036                pRsp->logicalChannel = *pBuf++;
   \                     ??CrossCallReturnLabel_102:
   \   00005D   C0E0         PUSH    A
   \   00005F   EE           MOV     A,R6
   \   000060   240E         ADD     A,#0xe
   \   000062   F582         MOV     DPL,A
   \   000064   EF           MOV     A,R7
   \   000065   12....       LCALL   ??Subroutine148_0 & 0xFFFF
   \                     ??CrossCallReturnLabel_287:
   \   000068   D0E0         POP     A
   \   00006A   12....       LCALL   ?Subroutine120 & 0xFFFF
   2037          
   2038                pRsp->panId = BUILD_UINT16( pBuf[0], pBuf[1] );
   \                     ??CrossCallReturnLabel_178:
   \   00006D   12....       LCALL   ??Subroutine158_0 & 0xFFFF
   \                     ??CrossCallReturnLabel_366:
   \   000070   240F         ADD     A,#0xf
   \   000072   12....       LCALL   ?Subroutine59 & 0xFFFF
   2039          
   2040                status = pInterPANCBs->pfnNwkStartRsp( &(pInMsg->msg->srcAddr), pRsp );
   \                     ??CrossCallReturnLabel_343:
   \   000075   12....       LCALL   ??Subroutine168_0 & 0xFFFF
   \                     ??CrossCallReturnLabel_412:
   \   000078   2414         ADD     A,#0x14
   \   00007A   12....       LCALL   ?Subroutine43 & 0xFFFF
   \                     ??CrossCallReturnLabel_356:
   \   00007D   12....       LCALL   ?CALL_IND
   \   000080   E9           MOV     A,R1
   \   000081   F5..         MOV     ?V0 + 2,A
   2041          
   2042                zcl_mem_free( pRsp );
   \   000083                ; Setup parameters for call to function osal_mem_free
   \   000083   EE           MOV     A,R6
   \   000084   FA           MOV     R2,A
   \   000085   EF           MOV     A,R7
   \   000086   FB           MOV     R3,A
   \   000087   12....       LCALL   ??osal_mem_free?relay
   2043              }
   2044            }
   2045          
   2046            return ( status );
   \                     ??zclLL_ProcessInCmd_NwkStartRsp_0:
   \   00008A   02....       LJMP    ?Subroutine5 & 0xFFFF
   2047          }

   \                                 In  segment BANK_RELAYS, align 1
   \                     ??zclLL_RegisterCmdCallbacks?relay:
   \   000000   12....       LCALL   ?BDISPATCH
   \   000003   ......       DC24    zclLL_RegisterCmdCallbacks

   \                                 In  segment BANK_RELAYS, align 1
   \                     ??zclLL_RegisterInterPANCmdCallbacks?relay:
   \   000000   12....       LCALL   ?BDISPATCH
   \   000003   ......       DC24    zclLL_RegisterInterPANCmdCallbacks

   \                                 In  segment BANK_RELAYS, align 1
   \                     ??zclLL_Send_ScanReq?relay:
   \   000000   12....       LCALL   ?BDISPATCH
   \   000003   ......       DC24    zclLL_Send_ScanReq

   \                                 In  segment BANK_RELAYS, align 1
   \                     ??zclLL_Send_DeviceInfoReq?relay:
   \   000000   12....       LCALL   ?BDISPATCH
   \   000003   ......       DC24    zclLL_Send_DeviceInfoReq

   \                                 In  segment BANK_RELAYS, align 1
   \                     ??zclLL_Send_IndentifyReq?relay:
   \   000000   12....       LCALL   ?BDISPATCH
   \   000003   ......       DC24    zclLL_Send_IndentifyReq

   \                                 In  segment BANK_RELAYS, align 1
   \                     ??zclLL_Send_ResetToFNReq?relay:
   \   000000   12....       LCALL   ?BDISPATCH
   \   000003   ......       DC24    zclLL_Send_ResetToFNReq

   \                                 In  segment BANK_RELAYS, align 1
   \                     ??zclLL_Send_NwkStartReq?relay:
   \   000000   12....       LCALL   ?BDISPATCH
   \   000003   ......       DC24    zclLL_Send_NwkStartReq

   \                                 In  segment BANK_RELAYS, align 1
   \                     ??zclLL_Send_NwkJoinReq?relay:
   \   000000   12....       LCALL   ?BDISPATCH
   \   000003   ......       DC24    zclLL_Send_NwkJoinReq

   \                                 In  segment BANK_RELAYS, align 1
   \                     ??zclLL_Send_NwkUpdateReq?relay:
   \   000000   12....       LCALL   ?BDISPATCH
   \   000003   ......       DC24    zclLL_Send_NwkUpdateReq

   \                                 In  segment BANK_RELAYS, align 1
   \                     ??zclLL_Send_ScanRsp?relay:
   \   000000   12....       LCALL   ?BDISPATCH
   \   000003   ......       DC24    zclLL_Send_ScanRsp

   \                                 In  segment BANK_RELAYS, align 1
   \                     ??zclLL_Send_DeviceInfoRsp?relay:
   \   000000   12....       LCALL   ?BDISPATCH
   \   000003   ......       DC24    zclLL_Send_DeviceInfoRsp

   \                                 In  segment BANK_RELAYS, align 1
   \                     ??zclLL_Send_NwkStartRsp?relay:
   \   000000   12....       LCALL   ?BDISPATCH
   \   000003   ......       DC24    zclLL_Send_NwkStartRsp

   \                                 In  segment BANK_RELAYS, align 1
   \                     ??zclLL_Send_NwkJoinRsp?relay:
   \   000000   12....       LCALL   ?BDISPATCH
   \   000003   ......       DC24    zclLL_Send_NwkJoinRsp

   \                                 In  segment BANK_RELAYS, align 1
   \                     ??zclLL_Send_EndpointInfo?relay:
   \   000000   12....       LCALL   ?BDISPATCH
   \   000003   ......       DC24    zclLL_Send_EndpointInfo

   \                                 In  segment BANK_RELAYS, align 1
   \                     ??zclLL_Send_GetGrpIDsRsp?relay:
   \   000000   12....       LCALL   ?BDISPATCH
   \   000003   ......       DC24    zclLL_Send_GetGrpIDsRsp

   \                                 In  segment BANK_RELAYS, align 1
   \                     ??zclLL_Send_GetEPListRsp?relay:
   \   000000   12....       LCALL   ?BDISPATCH
   \   000003   ......       DC24    zclLL_Send_GetEPListRsp

   \                                 In  segment BANK_RELAYS, align 1
   \                     ??zclLL_SendInterPANCommand?relay:
   \   000000   12....       LCALL   ?BDISPATCH
   \   000003   ......       DC24    zclLL_SendInterPANCommand

   \                                 In  segment BANK_RELAYS, align 1
   \                     ??zclLL_FindCallbacks?relay:
   \   000000   12....       LCALL   ?BDISPATCH
   \   000003   ......       DC24    zclLL_FindCallbacks

   \                                 In  segment BANK_RELAYS, align 1
   \                     ??zclLL_HdlIncoming?relay:
   \   000000   12....       LCALL   ?BDISPATCH
   \   000003   ......       DC24    zclLL_HdlIncoming

   \                                 In  segment BANK_RELAYS, align 1
   \                     ??zclLL_ProcessInLLCmds?relay:
   \   000000   12....       LCALL   ?BDISPATCH
   \   000003   ......       DC24    zclLL_ProcessInLLCmds

   \                                 In  segment BANK_RELAYS, align 1
   \                     ??zclLL_ProcessInManuLLCmds?relay:
   \   000000   12....       LCALL   ?BDISPATCH
   \   000003   ......       DC24    zclLL_ProcessInManuLLCmds

   \                                 In  segment BANK_RELAYS, align 1
   \                     ??zclLL_ProcessInCmd_EndpointInfo?relay:
   \   000000   12....       LCALL   ?BDISPATCH
   \   000003   ......       DC24    zclLL_ProcessInCmd_EndpointInfo

   \                                 In  segment BANK_RELAYS, align 1
   \                     ??zclLL_ProcessInCmd_GetGrpIDsRsp?relay:
   \   000000   12....       LCALL   ?BDISPATCH
   \   000003   ......       DC24    zclLL_ProcessInCmd_GetGrpIDsRsp

   \                                 In  segment BANK_RELAYS, align 1
   \                     ??zclLL_ProcessInCmd_GetEPListRsp?relay:
   \   000000   12....       LCALL   ?BDISPATCH
   \   000003   ......       DC24    zclLL_ProcessInCmd_GetEPListRsp

   \                                 In  segment BANK_RELAYS, align 1
   \                     ??zclLL_ProcessInLLInterPANCmds?relay:
   \   000000   12....       LCALL   ?BDISPATCH
   \   000003   ......       DC24    zclLL_ProcessInLLInterPANCmds

   \                                 In  segment BANK_RELAYS, align 1
   \                     ??zclLL_ProcessInCmd_NwkStartReq?relay:
   \   000000   12....       LCALL   ?BDISPATCH
   \   000003   ......       DC24    zclLL_ProcessInCmd_NwkStartReq

   \                                 In  segment BANK_RELAYS, align 1
   \                     ??zclLL_ParseInCmd_NwkJoinReq?relay:
   \   000000   12....       LCALL   ?BDISPATCH
   \   000003   ......       DC24    zclLL_ParseInCmd_NwkJoinReq

   \                                 In  segment BANK_RELAYS, align 1
   \                     ??zclLL_ProcessInCmd_NwkUpdateReq?relay:
   \   000000   12....       LCALL   ?BDISPATCH
   \   000003   ......       DC24    zclLL_ProcessInCmd_NwkUpdateReq

   \                                 In  segment BANK_RELAYS, align 1
   \                     ??zclLL_ProcessInCmd_ScanRsp?relay:
   \   000000   12....       LCALL   ?BDISPATCH
   \   000003   ......       DC24    zclLL_ProcessInCmd_ScanRsp

   \                                 In  segment BANK_RELAYS, align 1
   \                     ??zclLL_ProcessInCmd_DeviceInfoRsp?relay:
   \   000000   12....       LCALL   ?BDISPATCH
   \   000003   ......       DC24    zclLL_ProcessInCmd_DeviceInfoRsp

   \                                 In  segment BANK_RELAYS, align 1
   \                     ??zclLL_ProcessInCmd_NwkStartRsp?relay:
   \   000000   12....       LCALL   ?BDISPATCH
   \   000003   ......       DC24    zclLL_ProcessInCmd_NwkStartRsp
   2048          
   2049          /*********************************************************************
   2050           * @fn      zclLL_ProcessInCmd_NwkJoinRtrRsp
   2051           *
   2052           * @brief   Process in the received Network Join Router Response command.
   2053           *
   2054           * @param   pInMsg - pointer to the incoming message
   2055           *
   2056           * @return  ZStatus_t
   2057           */
   2058          static ZStatus_t zclLL_ProcessInCmd_NwkJoinRtrRsp( zclIncoming_t *pInMsg )
   2059          {
   2060            if ( pInterPANCBs->pfnNwkJoinRtrRsp )
   2061            {
   2062              zclLLNwkJoinRsp_t rsp;
   2063          
   2064              rsp.transID = zcl_build_uint32( pInMsg->pData, 4 );
   2065          
   2066              rsp.status = pInMsg->pData[4];
   2067          
   2068              return ( pInterPANCBs->pfnNwkJoinRtrRsp( &(pInMsg->msg->srcAddr), &rsp ) );
   2069            }
   2070          
   2071            return ( ZSuccess );
   2072          }
   2073          
   2074          
   2075          /*********************************************************************
   2076           * @fn      zclLL_ProcessInCmd_NwkJoinEDRsp
   2077           *
   2078           * @brief   Process in the received Network Join End Device Response command.
   2079           *
   2080           * @param   pInMsg - pointer to the incoming message
   2081           *
   2082           * @return  ZStatus_t
   2083           */
   2084          static ZStatus_t zclLL_ProcessInCmd_NwkJoinEDRsp( zclIncoming_t *pInMsg )
   2085          {
   2086            if ( pInterPANCBs->pfnNwkJoinEDRsp )
   2087            {
   2088              zclLLNwkJoinRsp_t rsp;
   2089          
   2090              rsp.transID = zcl_build_uint32( pInMsg->pData, 4 );
   2091          
   2092              rsp.status = pInMsg->pData[4];
   2093          
   2094              return ( pInterPANCBs->pfnNwkJoinEDRsp( &(pInMsg->msg->srcAddr), &rsp ) );
   2095            }
   2096          
   2097            return ( ZSuccess );
   2098          }
   2099          
   2100          
   2101          /********************************************************************************************
   2102          *********************************************************************************************/

   Maximum stack usage in bytes:

   ISTACK PSTACK XSTACK Function
   ------ ------ ------ --------
       2      0     12  zclLL_FindCallbacks
       0      0     12  zclLL_HdlIncoming
                          0 0 12 -> StubAPS_InterPan
                          0 0 12 -> zclLL_FindCallbacks
                          0 0 12 -> zclLL_ProcessInLLCmds
                          0 0 12 -> zclLL_ProcessInLLInterPANCmds
                          0 0 12 -> zclLL_ProcessInManuLLCmds
       1      0     59  zclLL_ParseInCmd_NwkJoinReq
                          0 0 15 -> osal_build_uint32
                          0 0 18 -> osal_memcpy
                          0 0 15 -> sAddrExtCpy
       1      0     59  zclLL_ProcessInCmd_DeviceInfoRsp
                          0 0 18 -> osal_build_uint32
                          0 0 18 -> osal_mem_alloc
                          0 0 18 -> osal_mem_free
                          0 0 18 -> sAddrExtCpy
       1      0     26  zclLL_ProcessInCmd_EndpointInfo
                          0 0 16 -> osal_mem_alloc
                          0 0 16 -> osal_mem_free
                          0 0 16 -> sAddrExtCpy
       1      0     30  zclLL_ProcessInCmd_GetEPListRsp
                          0 0 20 -> osal_mem_alloc
                          0 0 20 -> osal_mem_free
       1      0     28  zclLL_ProcessInCmd_GetGrpIDsRsp
                          0 0 18 -> osal_mem_alloc
                          0 0 18 -> osal_mem_free
       1      0     59  zclLL_ProcessInCmd_NwkStartReq
                          0 0 15 -> osal_build_uint32
                          0 0 15 -> osal_mem_alloc
                          0 0 15 -> osal_mem_free
                          0 0 18 -> osal_memcpy
                          0 0 15 -> sAddrExtCpy
       1      0     55  zclLL_ProcessInCmd_NwkStartRsp
                          0 0 14 -> osal_build_uint32
                          0 0 14 -> osal_mem_alloc
                          0 0 14 -> osal_mem_free
                          0 0 14 -> sAddrExtCpy
       1      0     55  zclLL_ProcessInCmd_NwkUpdateReq
                          0 0 14 -> osal_build_uint32
                          0 0 14 -> osal_mem_alloc
                          0 0 14 -> osal_mem_free
                          0 0 14 -> sAddrExtCpy
       1      0     55  zclLL_ProcessInCmd_ScanRsp
                          0 0 14 -> osal_build_uint32
                          0 0 14 -> osal_mem_alloc
                          0 0 14 -> osal_mem_free
                          0 0 14 -> osal_memset
                          0 0 14 -> sAddrExtCpy
       1      0     22  zclLL_ProcessInLLCmds
                          0 0 10 -> zclLL_ProcessInCmd_EndpointInfo
                          0 0 10 -> zclLL_ProcessInCmd_GetEPListRsp
                          0 0 10 -> zclLL_ProcessInCmd_GetGrpIDsRsp
       1      0     53  zclLL_ProcessInLLInterPANCmds
                          0 0 41 -> osal_build_uint32
                          0 0 41 -> osal_mem_alloc
                          0 0 41 -> osal_mem_free
                          0 0 41 -> zclLL_ParseInCmd_NwkJoinReq
                          0 0 41 -> zclLL_ProcessInCmd_DeviceInfoRsp
                          0 0 41 -> zclLL_ProcessInCmd_NwkStartReq
                          0 0 41 -> zclLL_ProcessInCmd_NwkStartRsp
                          0 0 41 -> zclLL_ProcessInCmd_NwkUpdateReq
                          0 0 41 -> zclLL_ProcessInCmd_ScanRsp
       1      0     29  zclLL_ProcessInManuLLCmds
                          0 0 17 -> HalUARTWrite
       1      0     14  zclLL_RegisterCmdCallbacks
                          0 0 12 -> osal_mem_alloc
                          0 0 14 -> zcl_registerPlugin
       0      0     12  zclLL_RegisterInterPANCmdCallbacks
                          0 0 12 -> zcl_registerPlugin
       0      0     54  zclLL_SendInterPANCommand
                          0 0 25 -> zcl_SendCommand
       1      0     23  zclLL_Send_DeviceInfoReq
                          0 0 21 -> osal_buffer_uint32
                          0 0 22 -> zclLL_SendInterPANCommand
       1      0     30  zclLL_Send_DeviceInfoRsp
                          0 0 28 -> osal_buffer_uint32
                          0 0 24 -> osal_mem_alloc
                          0 0 24 -> osal_mem_free
                          0 0 24 -> sAddrExtCpy
                          0 0 29 -> zclLL_SendInterPANCommand
       1      0     31  zclLL_Send_EndpointInfo
                          0 0 18 -> osal_mem_alloc
                          0 0 18 -> osal_mem_free
                          0 0 18 -> sAddrExtCpy
                          0 0 29 -> zcl_SendCommand
       1      0     37  zclLL_Send_GetEPListRsp
                          0 0 24 -> osal_mem_alloc
                          0 0 24 -> osal_mem_free
                          0 0 35 -> zcl_SendCommand
       1      0     35  zclLL_Send_GetGrpIDsRsp
                          0 0 22 -> osal_mem_alloc
                          0 0 22 -> osal_mem_free
                          0 0 33 -> zcl_SendCommand
       1      0     24  zclLL_Send_IndentifyReq
                          0 0 22 -> osal_buffer_uint32
                          0 0 23 -> zclLL_SendInterPANCommand
       1      0     25  zclLL_Send_NwkJoinReq
                          0 0 22 -> osal_buffer_uint32
                          0 0 18 -> osal_mem_alloc
                          0 0 18 -> osal_mem_free
                          0 0 21 -> osal_memcpy
                          0 0 18 -> sAddrExtCpy
                          0 0 23 -> zclLL_SendInterPANCommand
       1      0     25  zclLL_Send_NwkJoinRsp
                          0 0 22 -> osal_buffer_uint32
                          0 0 23 -> zclLL_SendInterPANCommand
       1      0     24  zclLL_Send_NwkStartReq
                          0 0 22 -> osal_buffer_uint32
                          0 0 18 -> osal_mem_alloc
                          0 0 18 -> osal_mem_free
                          0 0 21 -> osal_memcpy
                          0 0 18 -> sAddrExtCpy
                          0 0 23 -> zclLL_SendInterPANCommand
       1      0     22  zclLL_Send_NwkStartRsp
                          0 0 20 -> osal_buffer_uint32
                          0 0 16 -> osal_mem_alloc
                          0 0 16 -> osal_mem_free
                          0 0 16 -> sAddrExtCpy
                          0 0 21 -> zclLL_SendInterPANCommand
       1      0     22  zclLL_Send_NwkUpdateReq
                          0 0 20 -> osal_buffer_uint32
                          0 0 16 -> osal_mem_alloc
                          0 0 16 -> osal_mem_free
                          0 0 16 -> sAddrExtCpy
                          0 0 21 -> zclLL_SendInterPANCommand
       0      0     22  zclLL_Send_ResetToFNReq
                          0 0 20 -> osal_buffer_uint32
                          0 0 21 -> zclLL_SendInterPANCommand
       1      0     24  zclLL_Send_ScanReq
                          0 0 22 -> osal_buffer_uint32
                          0 0 23 -> zclLL_SendInterPANCommand
       1      0     26  zclLL_Send_ScanRsp
                          0 0 24 -> osal_buffer_uint32
                          0 0 20 -> osal_mem_alloc
                          0 0 20 -> osal_mem_free
                          0 0 20 -> sAddrExtCpy
                          0 0 25 -> zclLL_SendInterPANCommand


   Segment part sizes:

   Bytes  Function/Label
   -----  --------------
       7  ??Subroutine126_0
       3  ??Subroutine127_0
       5  ??Subroutine128_0
       8  ??Subroutine129_0
       5  ??Subroutine130_0
       2  ??Subroutine131_0
       1  ??Subroutine132_0
       1  ??Subroutine133_0
       4  ??Subroutine134_0
       1  ??Subroutine135_0
       4  ??Subroutine136_0
       4  ??Subroutine137_0
       8  ??Subroutine138_0
       5  ??Subroutine139_0
       8  ??Subroutine140_0
       5  ??Subroutine141_0
       7  ??Subroutine142_0
       6  ??Subroutine143_0
       6  ??Subroutine144_0
       2  ??Subroutine145_0
       7  ??Subroutine146_0
       4  ??Subroutine147_0
       4  ??Subroutine148_0
       5  ??Subroutine149_0
       3  ??Subroutine150_0
       6  ??Subroutine151_0
       3  ??Subroutine152_0
       4  ??Subroutine153_0
       4  ??Subroutine154_0
       7  ??Subroutine155_0
      12  ??Subroutine156_0
       4  ??Subroutine157_0
       6  ??Subroutine158_0
       3  ??Subroutine159_0
       3  ??Subroutine160_0
       5  ??Subroutine161_0
       4  ??Subroutine162_0
       4  ??Subroutine163_0
       5  ??Subroutine164_0
       4  ??Subroutine165_0
       4  ??Subroutine166_0
       4  ??Subroutine167_0
       5  ??Subroutine168_0
       6  ??zclLL_FindCallbacks?relay
       6  ??zclLL_HdlIncoming?relay
       6  ??zclLL_ParseInCmd_NwkJoinReq?relay
       6  ??zclLL_ProcessInCmd_DeviceInfoRsp?relay
       6  ??zclLL_ProcessInCmd_EndpointInfo?relay
       6  ??zclLL_ProcessInCmd_GetEPListRsp?relay
       6  ??zclLL_ProcessInCmd_GetGrpIDsRsp?relay
       6  ??zclLL_ProcessInCmd_NwkStartReq?relay
       6  ??zclLL_ProcessInCmd_NwkStartRsp?relay
       6  ??zclLL_ProcessInCmd_NwkUpdateReq?relay
       6  ??zclLL_ProcessInCmd_ScanRsp?relay
       6  ??zclLL_ProcessInLLCmds?relay
       6  ??zclLL_ProcessInLLInterPANCmds?relay
       6  ??zclLL_ProcessInManuLLCmds?relay
       6  ??zclLL_RegisterCmdCallbacks?relay
       6  ??zclLL_RegisterInterPANCmdCallbacks?relay
       6  ??zclLL_SendInterPANCommand?relay
       6  ??zclLL_Send_DeviceInfoReq?relay
       6  ??zclLL_Send_DeviceInfoRsp?relay
       6  ??zclLL_Send_EndpointInfo?relay
       6  ??zclLL_Send_GetEPListRsp?relay
       6  ??zclLL_Send_GetGrpIDsRsp?relay
       6  ??zclLL_Send_IndentifyReq?relay
       6  ??zclLL_Send_NwkJoinReq?relay
       6  ??zclLL_Send_NwkJoinRsp?relay
       6  ??zclLL_Send_NwkStartReq?relay
       6  ??zclLL_Send_NwkStartRsp?relay
       6  ??zclLL_Send_NwkUpdateReq?relay
       6  ??zclLL_Send_ResetToFNReq?relay
       6  ??zclLL_Send_ScanReq?relay
       6  ??zclLL_Send_ScanRsp?relay
      16  ?Subroutine0
       2  ?Subroutine1
       7  ?Subroutine10
       7  ?Subroutine100
      10  ?Subroutine101
       4  ?Subroutine102
       7  ?Subroutine103
       6  ?Subroutine104
       2  ?Subroutine105
      10  ?Subroutine106
      14  ?Subroutine107
      12  ?Subroutine108
       3  ?Subroutine109
       5  ?Subroutine11
       5  ?Subroutine110
      19  ?Subroutine111
       9  ?Subroutine112
       4  ?Subroutine113
       7  ?Subroutine114
       7  ?Subroutine115
      10  ?Subroutine116
       8  ?Subroutine117
      13  ?Subroutine118
       7  ?Subroutine119
       6  ?Subroutine12
       9  ?Subroutine120
      10  ?Subroutine121
       9  ?Subroutine122
       5  ?Subroutine123
       5  ?Subroutine124
       6  ?Subroutine125
      54  ?Subroutine13
      31  ?Subroutine14
      16  ?Subroutine15
      11  ?Subroutine16
       4  ?Subroutine17
       6  ?Subroutine18
      26  ?Subroutine19
       2  ?Subroutine2
      21  ?Subroutine20
      17  ?Subroutine21
      17  ?Subroutine22
       1  ?Subroutine23
       2  ?Subroutine24
       6  ?Subroutine25
      19  ?Subroutine26
       4  ?Subroutine27
      11  ?Subroutine28
       9  ?Subroutine29
       5  ?Subroutine3
       7  ?Subroutine30
       8  ?Subroutine31
      11  ?Subroutine32
       4  ?Subroutine33
       6  ?Subroutine34
       4  ?Subroutine35
       8  ?Subroutine36
       4  ?Subroutine37
       1  ?Subroutine38
      18  ?Subroutine39
       7  ?Subroutine4
       2  ?Subroutine40
      27  ?Subroutine41
       4  ?Subroutine42
       3  ?Subroutine43
       8  ?Subroutine44
       2  ?Subroutine45
      12  ?Subroutine46
       7  ?Subroutine47
       9  ?Subroutine48
       4  ?Subroutine49
       2  ?Subroutine5
      12  ?Subroutine50
       6  ?Subroutine51
       6  ?Subroutine52
       4  ?Subroutine53
      16  ?Subroutine54
      11  ?Subroutine55
       5  ?Subroutine56
       4  ?Subroutine57
      20  ?Subroutine58
      10  ?Subroutine59
       8  ?Subroutine6
      15  ?Subroutine60
      13  ?Subroutine61
       9  ?Subroutine62
       1  ?Subroutine63
       5  ?Subroutine64
       4  ?Subroutine65
       8  ?Subroutine66
      11  ?Subroutine67
       1  ?Subroutine68
      10  ?Subroutine69
       5  ?Subroutine7
       1  ?Subroutine70
       3  ?Subroutine71
      15  ?Subroutine72
       9  ?Subroutine73
      13  ?Subroutine74
       4  ?Subroutine75
       3  ?Subroutine76
       3  ?Subroutine77
      19  ?Subroutine78
       4  ?Subroutine79
      46  ?Subroutine8
       4  ?Subroutine80
       5  ?Subroutine81
      15  ?Subroutine82
      11  ?Subroutine83
      16  ?Subroutine84
       5  ?Subroutine85
       4  ?Subroutine86
      10  ?Subroutine87
       4  ?Subroutine88
      14  ?Subroutine89
      47  ?Subroutine9
      12  ?Subroutine90
       4  ?Subroutine91
       8  ?Subroutine92
       4  ?Subroutine93
      15  ?Subroutine94
      12  ?Subroutine95
       4  ?Subroutine96
       8  ?Subroutine97
       4  ?Subroutine98
      18  ?Subroutine99
       1  P0DIR
       1  _A_P0
       1  flag
       2  pInterPANCBs
       2  zclLLCBs
       1  zclLLPluginRegisted
      45  zclLL_FindCallbacks
     220  zclLL_HdlIncoming
      97  zclLL_ParseInCmd_NwkJoinReq
     297  zclLL_ProcessInCmd_DeviceInfoRsp
     217  zclLL_ProcessInCmd_EndpointInfo
     214  zclLL_ProcessInCmd_GetEPListRsp
     215  zclLL_ProcessInCmd_GetGrpIDsRsp
     203  zclLL_ProcessInCmd_NwkStartReq
     141  zclLL_ProcessInCmd_NwkStartRsp
     155  zclLL_ProcessInCmd_NwkUpdateReq
     335  zclLL_ProcessInCmd_ScanRsp
     144  zclLL_ProcessInLLCmds
     676  zclLL_ProcessInLLInterPANCmds
     197  zclLL_ProcessInManuLLCmds
     137  zclLL_RegisterCmdCallbacks
      63  zclLL_RegisterInterPANCmdCallbacks
     116  zclLL_SendInterPANCommand
     117  zclLL_Send_DeviceInfoReq
     270  zclLL_Send_DeviceInfoRsp
     205  zclLL_Send_EndpointInfo
     271  zclLL_Send_GetEPListRsp
     252  zclLL_Send_GetGrpIDsRsp
     113  zclLL_Send_IndentifyReq
     165  zclLL_Send_NwkJoinReq
     134  zclLL_Send_NwkJoinRsp
     183  zclLL_Send_NwkStartReq
     165  zclLL_Send_NwkStartRsp
     129  zclLL_Send_NwkUpdateReq
     103  zclLL_Send_ResetToFNReq
     124  zclLL_Send_ScanReq
     285  zclLL_Send_ScanRsp

 
 7 382 bytes in segment BANKED_CODE
   186 bytes in segment BANK_RELAYS
     2 bytes in segment SFR_AN
     6 bytes in segment XDATA_Z
 
 7 568 bytes of CODE  memory
     0 bytes of DATA  memory (+ 2 bytes shared)
     6 bytes of XDATA memory

Errors: none
Warnings: none
