///////////////////////////////////////////////////////////////////////////////
//                                                                            /
// IAR C/C++ Compiler V8.20.2.41139 for 8051            12/Apr/2014  12:18:08 /
// Copyright 2004-2013 IAR Systems AB.                                        /
//                                                                            /
//    Core               =  plain                                             /
//    Code model         =  banked                                            /
//    Data model         =  large                                             /
//    Calling convention =  xdata reentrant                                   /
//    Constant location  =  data_rom                                          /
//    Dptr setup         =  1,16                                              /
//                                                                            /
//    Source file        =  D:\Texas Instruments\Z-Stack Lighting             /
//                          1.0.2\Components\stack\zdo\ZDApp.c                /
//    Command line       =  -f "D:\Texas Instruments\Z-Stack Lighting         /
//                          1.0.2\Projects\zstack\ZLL\SampleApp\CC253x\..\..\ /
//                          ..\Tools\CC2530DB\f8wRouter.cfg" (-DCPU32MHZ      /
//                          -DROOT=__near_func -DMAC_CFG_APP_PENDING_QUEUE=TR /
//                          UE -DMAC_CFG_TX_DATA_MAX=5 -DMAC_CFG_TX_MAX=8     /
//                          -DMAC_CFG_RX_MAX=5 -DRTR_NWK) -f "D:\Texas        /
//                          Instruments\Z-Stack Lighting                      /
//                          1.0.2\Projects\zstack\ZLL\SampleApp\CC253x\..\..\ /
//                          ..\Tools\CC2530DB\f8wConfig.cfg" (-DZIGBEEPRO     /
//                          -DSECURE=1 -DZG_SECURE_DYNAMIC=0 -DREFLECTOR      /
//                          -DDEFAULT_CHANLIST=0x00000800                     /
//                          -DZDAPP_CONFIG_PAN_ID=0xFFFF                      /
//                          -DNWK_START_DELAY=100 -DEXTENDED_JOINING_RANDOM_M /
//                          ASK=0x007F -DBEACON_REQUEST_DELAY=100             /
//                          -DBEACON_REQ_DELAY_MASK=0x00FF                    /
//                          -DLINK_STATUS_JITTER_MASK=0x007F                  /
//                          -DROUTE_EXPIRY_TIME=30 -DAPSC_ACK_WAIT_DURATION_P /
//                          OLLED=3000 -DNWK_INDIRECT_MSG_TIMEOUT=7           /
//                          -DMAX_RREQ_ENTRIES=8 -DAPSC_MAX_FRAME_RETRIES=3   /
//                          -DNWK_MAX_DATA_RETRIES=2                          /
//                          -DMAX_POLL_FAILURE_RETRIES=2 -DMAX_BCAST=9        /
//                          -DAPS_MAX_GROUPS=16 -DMAX_RTG_ENTRIES=40          /
//                          -DNWK_MAX_BINDING_ENTRIES=4                       /
//                          -DMAX_BINDING_CLUSTER_IDS=4                       /
//                          "-DDEFAULT_KEY={0x01, 0x03, 0x05, 0x07, 0x09,     /
//                          0x0B, 0x0D, 0x0F, 0x00, 0x02, 0x04, 0x06, 0x08,   /
//                          0x0A, 0x0C, 0x0D}" -DMAC_MAX_FRAME_SIZE=116       /
//                          -DZDNWKMGR_MIN_TRANSMISSIONS=20 "-DCONST=const    /
//                          __code" -DGENERIC=__generic                       /
//                          -DRFD_RCVC_ALWAYS_ON=FALSE -DPOLL_RATE=1000       /
//                          -DQUEUED_POLL_RATE=100 -DRESPONSE_POLL_RATE=100   /
//                          -DREJOIN_POLL_RATE=440) -f "D:\Texas              /
//                          Instruments\Z-Stack Lighting                      /
//                          1.0.2\Projects\zstack\ZLL\SampleApp\CC253x\..\..\ /
//                          ..\Tools\CC2530DB\f8wZCL.cfg" "D:\Texas           /
//                          Instruments\Z-Stack Lighting                      /
//                          1.0.2\Components\stack\zdo\ZDApp.c" -D            /
//                          FEATURE_GREEN_POWER -D SECURE=1 -D                /
//                          TC_LINKKEY_JOIN -D ZDSECMGR_TC_DEVICE_MAX=2 -D    /
//                          NV_RESTORE -D HOLD_AUTO_START -D INTER_PAN -D     /
//                          ZTOOL_P1 -D MT_TASK -D MT_APP_FUNC -D             /
//                          MT_SYS_FUNC -D MT_ZDO_FUNC -D MT_ZDO_CB_FUNC -D   /
//                          MT_UTIL_FUNC -D MT_ZDO_MGMT -D LCD_SUPPORTED -D   /
//                          HAL_LCD=FALSE -D HAL_KEY=FALSE -D ZCL_BASIC -D    /
//                          ZCL_READ -D ZCL_WRITE -D ZCL_IDENTIFY -D          /
//                          ZCL_ON_OFF -D ZCL_SCENES -D ZCL_GROUPS -D         /
//                          ZCL_LIGHT_LINK_ENHANCE -D ZCL_LEVEL_CTRL -D       /
//                          ZCL_COLOR_CTRL -D xMAX_CHANNELS_24GHZ=0x02108800  /
//                          -lC "D:\Texas Instruments\Z-Stack Lighting        /
//                          1.0.2\Projects\zstack\ZLL\SampleApp\CC253x\Bridge /
//                          EB-Pro\List\" -lA "D:\Texas Instruments\Z-Stack   /
//                          Lighting 1.0.2\Projects\zstack\ZLL\SampleApp\CC25 /
//                          3x\BridgeEB-Pro\List\" --diag_suppress            /
//                          Pe001,Pa010 -o "D:\Texas Instruments\Z-Stack      /
//                          Lighting 1.0.2\Projects\zstack\ZLL\SampleApp\CC25 /
//                          3x\BridgeEB-Pro\Obj\" -e --debug --core=plain     /
//                          --dptr=16,1 --data_model=large                    /
//                          --code_model=banked --calling_convention=xdata_re /
//                          entrant --place_constants=data_rom                /
//                          --nr_virtual_regs 16 -I "D:\Texas                 /
//                          Instruments\Z-Stack Lighting                      /
//                          1.0.2\Projects\zstack\ZLL\SampleApp\CC253x\" -I   /
//                          "D:\Texas Instruments\Z-Stack Lighting            /
//                          1.0.2\Projects\zstack\ZLL\SampleApp\CC253x\..\Sou /
//                          rce\" -I "D:\Texas Instruments\Z-Stack Lighting   /
//                          1.0.2\Projects\zstack\ZLL\SampleApp\CC253x\..\..\ /
//                          Source\" -I "D:\Texas Instruments\Z-Stack         /
//                          Lighting 1.0.2\Projects\zstack\ZLL\SampleApp\CC25 /
//                          3x\..\..\..\HomeAutomation\Source\" -I "D:\Texas  /
//                          Instruments\Z-Stack Lighting                      /
//                          1.0.2\Projects\zstack\ZLL\SampleApp\CC253x\..\..\ /
//                          ..\HomeAutomation\SampleLight\Source\" -I         /
//                          "D:\Texas Instruments\Z-Stack Lighting            /
//                          1.0.2\Projects\zstack\ZLL\SampleApp\CC253x\..\..\ /
//                          ..\ZMain\TI2530DB\" -I "D:\Texas                  /
//                          Instruments\Z-Stack Lighting                      /
//                          1.0.2\Projects\zstack\ZLL\SampleApp\CC253x\..\..\ /
//                          ..\..\..\Components\hal\include\" -I "D:\Texas    /
//                          Instruments\Z-Stack Lighting                      /
//                          1.0.2\Projects\zstack\ZLL\SampleApp\CC253x\..\..\ /
//                          ..\..\..\Components\hal\target\CC2530EB\" -I      /
//                          "D:\Texas Instruments\Z-Stack Lighting            /
//                          1.0.2\Projects\zstack\ZLL\SampleApp\CC253x\..\..\ /
//                          ..\..\..\Components\mac\include\" -I "D:\Texas    /
//                          Instruments\Z-Stack Lighting                      /
//                          1.0.2\Projects\zstack\ZLL\SampleApp\CC253x\..\..\ /
//                          ..\..\..\Components\mac\high_level\" -I           /
//                          "D:\Texas Instruments\Z-Stack Lighting            /
//                          1.0.2\Projects\zstack\ZLL\SampleApp\CC253x\..\..\ /
//                          ..\..\..\Components\mac\low_level\srf04\" -I      /
//                          "D:\Texas Instruments\Z-Stack Lighting            /
//                          1.0.2\Projects\zstack\ZLL\SampleApp\CC253x\..\..\ /
//                          ..\..\..\Components\mac\low_level\srf04\single_ch /
//                          ip\" -I "D:\Texas Instruments\Z-Stack Lighting    /
//                          1.0.2\Projects\zstack\ZLL\SampleApp\CC253x\..\..\ /
//                          ..\..\..\Components\mt\" -I "D:\Texas             /
//                          Instruments\Z-Stack Lighting                      /
//                          1.0.2\Projects\zstack\ZLL\SampleApp\CC253x\..\..\ /
//                          ..\..\..\Components\osal\include\" -I "D:\Texas   /
//                          Instruments\Z-Stack Lighting                      /
//                          1.0.2\Projects\zstack\ZLL\SampleApp\CC253x\..\..\ /
//                          ..\..\..\Components\services\saddr\" -I           /
//                          "D:\Texas Instruments\Z-Stack Lighting            /
//                          1.0.2\Projects\zstack\ZLL\SampleApp\CC253x\..\..\ /
//                          ..\..\..\Components\services\sdata\" -I           /
//                          "D:\Texas Instruments\Z-Stack Lighting            /
//                          1.0.2\Projects\zstack\ZLL\SampleApp\CC253x\..\..\ /
//                          ..\..\..\Components\stack\af\" -I "D:\Texas       /
//                          Instruments\Z-Stack Lighting                      /
//                          1.0.2\Projects\zstack\ZLL\SampleApp\CC253x\..\..\ /
//                          ..\..\..\Components\stack\nwk\" -I "D:\Texas      /
//                          Instruments\Z-Stack Lighting                      /
//                          1.0.2\Projects\zstack\ZLL\SampleApp\CC253x\..\..\ /
//                          ..\..\..\Components\stack\sapi\" -I "D:\Texas     /
//                          Instruments\Z-Stack Lighting                      /
//                          1.0.2\Projects\zstack\ZLL\SampleApp\CC253x\..\..\ /
//                          ..\..\..\Components\stack\sec\" -I "D:\Texas      /
//                          Instruments\Z-Stack Lighting                      /
//                          1.0.2\Projects\zstack\ZLL\SampleApp\CC253x\..\..\ /
//                          ..\..\..\Components\stack\sys\" -I "D:\Texas      /
//                          Instruments\Z-Stack Lighting                      /
//                          1.0.2\Projects\zstack\ZLL\SampleApp\CC253x\..\..\ /
//                          ..\..\..\Components\stack\zcl\" -I "D:\Texas      /
//                          Instruments\Z-Stack Lighting                      /
//                          1.0.2\Projects\zstack\ZLL\SampleApp\CC253x\..\..\ /
//                          ..\..\..\Components\stack\zdo\" -I "D:\Texas      /
//                          Instruments\Z-Stack Lighting                      /
//                          1.0.2\Projects\zstack\ZLL\SampleApp\CC253x\..\..\ /
//                          ..\..\..\Components\zmac\" -I "D:\Texas           /
//                          Instruments\Z-Stack Lighting                      /
//                          1.0.2\Projects\zstack\ZLL\SampleApp\CC253x\..\..\ /
//                          ..\..\..\Components\zmac\f8w\" -Ohz               /
//                          --require_prototypes                              /
//    List file          =  D:\Texas Instruments\Z-Stack Lighting             /
//                          1.0.2\Projects\zstack\ZLL\SampleApp\CC253x\Bridge /
//                          EB-Pro\List\ZDApp.s51                             /
//                                                                            /
//                                                                            /
///////////////////////////////////////////////////////////////////////////////

        NAME ZDApp

        RTMODEL "__SystemLibrary", "CLib"
        RTMODEL "__calling_convention", "xdata_reentrant"
        RTMODEL "__code_model", "banked"
        RTMODEL "__core", "plain"
        RTMODEL "__data_model", "large"
        RTMODEL "__dptr_size", "16"
        RTMODEL "__extended_stack", "disabled"
        RTMODEL "__location_for_constants", "data"
        RTMODEL "__number_of_dptrs", "1"
        RTMODEL "__rt_version", "1"

        RSEG DOVERLAY:DATA:NOROOT(0)
        RSEG IOVERLAY:IDATA:NOROOT(0)
        RSEG ISTACK:IDATA:NOROOT(0)
        RSEG PSTACK:XDATA:NOROOT(0)
        RSEG XSTACK:XDATA:NOROOT(0)

        EXTERN ?ALLOC_XSTACK8
        EXTERN ?BANKED_ENTER_XDATA
        EXTERN ?BANKED_LEAVE_XDATA
        EXTERN ?BDISPATCH
        EXTERN ?BRET
        EXTERN ?CALL_IND
        EXTERN ?DEALLOC_XSTACK8
        EXTERN ?L_ADD_TO_X
        EXTERN ?L_MOV_X
        EXTERN ?PUSH_XSTACK8_X_FOUR
        EXTERN ?PUSH_XSTACK8_X_TWO
        EXTERN ?PUSH_XSTACK_I_FOUR
        EXTERN ?PUSH_XSTACK_I_ONE
        EXTERN ?PUSH_XSTACK_I_THREE
        EXTERN ?PUSH_XSTACK_I_TWO
        EXTERN ?US_SWITCH_SPARSE
        EXTERN ?V0
        EXTERN ?XLOAD_R2345
        EXTERN ?XSP
        EXTERN ?XSTACK_DISP0_8
        EXTERN ?XSTORE_R2345
        EXTERN __INIT_XDATA_I
        EXTERN __INIT_XDATA_Z

        PUBLIC ??AddrMgrWriteNVRequest?relay
        FUNCTION ??AddrMgrWriteNVRequest?relay,0203H
        PUBLIC ??ZDAppCheckForHoldKey?relay
        FUNCTION ??ZDAppCheckForHoldKey?relay,0203H
        PUBLIC ??ZDAppDetermineDeviceType?relay
        FUNCTION ??ZDAppDetermineDeviceType?relay,0203H
        PUBLIC ??ZDApp_AgeOutPendingBindEntry?relay
        FUNCTION ??ZDApp_AgeOutPendingBindEntry?relay,0203H
        PUBLIC ??ZDApp_AnnounceNewAddress?relay
        FUNCTION ??ZDApp_AnnounceNewAddress?relay,0203H
        PUBLIC ??ZDApp_ChangeMatchDescRespPermission?relay
        FUNCTION ??ZDApp_ChangeMatchDescRespPermission?relay,0203H
        PUBLIC ??ZDApp_CoordStartPANIDConflictCB?relay
        FUNCTION ??ZDApp_CoordStartPANIDConflictCB?relay,0203H
        PUBLIC ??ZDApp_DeviceAuthEvt?relay
        FUNCTION ??ZDApp_DeviceAuthEvt?relay,0203H
        PUBLIC ??ZDApp_DeviceConfigured?relay
        FUNCTION ??ZDApp_DeviceConfigured?relay,0203H
        PUBLIC ??ZDApp_GetEmptyPendingBindReq?relay
        FUNCTION ??ZDApp_GetEmptyPendingBindReq?relay,0203H
        PUBLIC ??ZDApp_InMsgCB?relay
        FUNCTION ??ZDApp_InMsgCB?relay,0203H
        PUBLIC ??ZDApp_Init?relay
        FUNCTION ??ZDApp_Init?relay,0203H
        PUBLIC ??ZDApp_InitPendingBind?relay
        FUNCTION ??ZDApp_InitPendingBind?relay,0203H
        PUBLIC ??ZDApp_InitUserDesc?relay
        FUNCTION ??ZDApp_InitUserDesc?relay,0203H
        PUBLIC ??ZDApp_InitZdoCBFunc?relay
        FUNCTION ??ZDApp_InitZdoCBFunc?relay,0203H
        PUBLIC ??ZDApp_JoinReq?relay
        FUNCTION ??ZDApp_JoinReq?relay,0203H
        PUBLIC ??ZDApp_LeaveCtrlBypass?relay
        FUNCTION ??ZDApp_LeaveCtrlBypass?relay,0203H
        PUBLIC ??ZDApp_LeaveCtrlInit?relay
        FUNCTION ??ZDApp_LeaveCtrlInit?relay,0203H
        PUBLIC ??ZDApp_LeaveCtrlReset?relay
        FUNCTION ??ZDApp_LeaveCtrlReset?relay,0203H
        PUBLIC ??ZDApp_LeaveCtrlSet?relay
        FUNCTION ??ZDApp_LeaveCtrlSet?relay,0203H
        PUBLIC ??ZDApp_LeaveCtrlStartup?relay
        FUNCTION ??ZDApp_LeaveCtrlStartup?relay,0203H
        PUBLIC ??ZDApp_LeaveReset?relay
        FUNCTION ??ZDApp_LeaveReset?relay,0203H
        PUBLIC ??ZDApp_LeaveUpdate?relay
        FUNCTION ??ZDApp_LeaveUpdate?relay,0203H
        PUBLIC ??ZDApp_NVUpdate?relay
        FUNCTION ??ZDApp_NVUpdate?relay,0203H
        PUBLIC ??ZDApp_NetworkDiscoveryReq?relay
        FUNCTION ??ZDApp_NetworkDiscoveryReq?relay,0203H
        PUBLIC ??ZDApp_NetworkInit?relay
        FUNCTION ??ZDApp_NetworkInit?relay,0203H
        PUBLIC ??ZDApp_NetworkStartEvt?relay
        FUNCTION ??ZDApp_NetworkStartEvt?relay,0203H
        PUBLIC ??ZDApp_NodeProfileSync?relay
        FUNCTION ??ZDApp_NodeProfileSync?relay,0203H
        PUBLIC ??ZDApp_NwkDescListProcessing?relay
        FUNCTION ??ZDApp_NwkDescListProcessing?relay,0203H
        PUBLIC ??ZDApp_NwkStateUpdateCB?relay
        FUNCTION ??ZDApp_NwkStateUpdateCB?relay,0203H
        PUBLIC ??ZDApp_ProcessMsgCBs?relay
        FUNCTION ??ZDApp_ProcessMsgCBs?relay,0203H
        PUBLIC ??ZDApp_ProcessNetworkJoin?relay
        FUNCTION ??ZDApp_ProcessNetworkJoin?relay,0203H
        PUBLIC ??ZDApp_ProcessOSALMsg?relay
        FUNCTION ??ZDApp_ProcessOSALMsg?relay,0203H
        PUBLIC ??ZDApp_ProcessPendingBindReq?relay
        FUNCTION ??ZDApp_ProcessPendingBindReq?relay,0203H
        PUBLIC ??ZDApp_ProcessSecEvent?relay
        FUNCTION ??ZDApp_ProcessSecEvent?relay,0203H
        PUBLIC ??ZDApp_ProcessSecMsg?relay
        FUNCTION ??ZDApp_ProcessSecMsg?relay,0203H
        PUBLIC ??ZDApp_ReadNetworkRestoreState?relay
        FUNCTION ??ZDApp_ReadNetworkRestoreState?relay,0203H
        PUBLIC ??ZDApp_RegisterCBs?relay
        FUNCTION ??ZDApp_RegisterCBs?relay,0203H
        PUBLIC ??ZDApp_ResetNwkKey?relay
        FUNCTION ??ZDApp_ResetNwkKey?relay,0203H
        PUBLIC ??ZDApp_ResetTimerCancel?relay
        FUNCTION ??ZDApp_ResetTimerCancel?relay,0203H
        PUBLIC ??ZDApp_ResetTimerStart?relay
        FUNCTION ??ZDApp_ResetTimerStart?relay,0203H
        PUBLIC ??ZDApp_RestoreNetworkState?relay
        FUNCTION ??ZDApp_RestoreNetworkState?relay,0203H
        PUBLIC ??ZDApp_RestoreNwkKey?relay
        FUNCTION ??ZDApp_RestoreNwkKey?relay,0203H
        PUBLIC ??ZDApp_SaveNetworkStateEvt?relay
        FUNCTION ??ZDApp_SaveNetworkStateEvt?relay,0203H
        PUBLIC ??ZDApp_SaveNwkKey?relay
        FUNCTION ??ZDApp_SaveNwkKey?relay,0203H
        PUBLIC ??ZDApp_SecInit?relay
        FUNCTION ??ZDApp_SecInit?relay,0203H
        PUBLIC ??ZDApp_SendEventMsg?relay
        FUNCTION ??ZDApp_SendEventMsg?relay,0203H
        PUBLIC ??ZDApp_SendMsg?relay
        FUNCTION ??ZDApp_SendMsg?relay,0203H
        PUBLIC ??ZDApp_SetPendingBindDefault?relay
        FUNCTION ??ZDApp_SetPendingBindDefault?relay,0203H
        PUBLIC ??ZDApp_StartJoiningCycle?relay
        FUNCTION ??ZDApp_StartJoiningCycle?relay,0203H
        PUBLIC ??ZDApp_StopJoiningCycle?relay
        FUNCTION ??ZDApp_StopJoiningCycle?relay,0203H
        PUBLIC ??ZDApp_event_loop?relay
        FUNCTION ??ZDApp_event_loop?relay,0203H
        PUBLIC ??ZDOInitDevice?relay
        FUNCTION ??ZDOInitDevice?relay,0203H
        PUBLIC ??ZDO_AddrChangeIndicationCB?relay
        FUNCTION ??ZDO_AddrChangeIndicationCB?relay,0203H
        PUBLIC ??ZDO_ConcentratorIndicationCB?relay
        FUNCTION ??ZDO_ConcentratorIndicationCB?relay,0203H
        PUBLIC ??ZDO_DeregisterForZdoCB?relay
        FUNCTION ??ZDO_DeregisterForZdoCB?relay,0203H
        PUBLIC ??ZDO_JoinConfirmCB?relay
        FUNCTION ??ZDO_JoinConfirmCB?relay,0203H
        PUBLIC ??ZDO_JoinIndicationCB?relay
        FUNCTION ??ZDO_JoinIndicationCB?relay,0203H
        PUBLIC ??ZDO_LeaveCnf?relay
        FUNCTION ??ZDO_LeaveCnf?relay,0203H
        PUBLIC ??ZDO_LeaveInd?relay
        FUNCTION ??ZDO_LeaveInd?relay,0203H
        PUBLIC ??ZDO_ManytoOneFailureIndicationCB?relay
        FUNCTION ??ZDO_ManytoOneFailureIndicationCB?relay,0203H
        PUBLIC ??ZDO_NetworkDiscoveryConfirmCB?relay
        FUNCTION ??ZDO_NetworkDiscoveryConfirmCB?relay,0203H
        PUBLIC ??ZDO_NetworkFormationConfirmCB?relay
        FUNCTION ??ZDO_NetworkFormationConfirmCB?relay,0203H
        PUBLIC ??ZDO_NetworkStatusCB?relay
        FUNCTION ??ZDO_NetworkStatusCB?relay,0203H
        PUBLIC ??ZDO_PollConfirmCB?relay
        FUNCTION ??ZDO_PollConfirmCB?relay,0203H
        PUBLIC ??ZDO_RegisterForZdoCB?relay
        FUNCTION ??ZDO_RegisterForZdoCB?relay,0203H
        PUBLIC ??ZDO_SrcRtgIndCB?relay
        FUNCTION ??ZDO_SrcRtgIndCB?relay,0203H
        PUBLIC ??ZDO_StartRouterConfirmCB?relay
        FUNCTION ??ZDO_StartRouterConfirmCB?relay,0203H
        PUBLIC ??ZDO_SyncIndicationCB?relay
        FUNCTION ??ZDO_SyncIndicationCB?relay,0203H
        PUBLIC ??ZDO_UpdateDeviceIndication?relay
        FUNCTION ??ZDO_UpdateDeviceIndication?relay,0203H
        PUBLIC ??ZDO_beaconNotifyIndCB?relay
        FUNCTION ??ZDO_beaconNotifyIndCB?relay,0203H
        PUBLIC AddrMgrWriteNVRequest
        FUNCTION AddrMgrWriteNVRequest,021203H
        ARGFRAME XSTACK, 32, STACK
        ARGFRAME IOVERLAY, 0, STATIC
        ARGFRAME DOVERLAY, 0, STATIC
        LOCFRAME ISTACK, 2, STACK
        PUBLIC MatchRsps
        PUBLIC ZDAppCheckForHoldKey
        FUNCTION ZDAppCheckForHoldKey,0203H
        ARGFRAME XSTACK, 0, STACK
        PUBLIC ZDAppDetermineDeviceType
        FUNCTION ZDAppDetermineDeviceType,021203H
        ARGFRAME XSTACK, 14, STACK
        ARGFRAME IOVERLAY, 0, STATIC
        ARGFRAME DOVERLAY, 0, STATIC
        LOCFRAME ISTACK, 2, STACK
        PUBLIC ZDAppNwkAddr
        PUBLIC ZDAppPendingBindReq
        PUBLIC ZDAppTaskID
        PUBLIC ZDApp_AgeOutPendingBindEntry
        FUNCTION ZDApp_AgeOutPendingBindEntry,021203H
        ARGFRAME XSTACK, 14, STACK
        ARGFRAME IOVERLAY, 0, STATIC
        ARGFRAME DOVERLAY, 0, STATIC
        LOCFRAME XSTACK, 31, STACK
        PUBLIC ZDApp_AnnounceNewAddress
        FUNCTION ZDApp_AnnounceNewAddress,021203H
        ARGFRAME XSTACK, 14, STACK
        ARGFRAME IOVERLAY, 0, STATIC
        ARGFRAME DOVERLAY, 0, STATIC
        LOCFRAME XSTACK, 11, STACK
        PUBLIC ZDApp_AutoFindMode_epDesc
        PUBLIC ZDApp_ChangeMatchDescRespPermission
        FUNCTION ZDApp_ChangeMatchDescRespPermission,021203H
        ARGFRAME XSTACK, 0, STACK
        LOCFRAME XSTACK, 9, STACK
        PUBLIC ZDApp_CoordStartPANIDConflictCB
        FUNCTION ZDApp_CoordStartPANIDConflictCB,0203H
        ARGFRAME XSTACK, 0, STACK
        PUBLIC ZDApp_DeviceAuthEvt
        FUNCTION ZDApp_DeviceAuthEvt,021203H
        ARGFRAME XSTACK, 16, STACK
        ARGFRAME IOVERLAY, 0, STATIC
        ARGFRAME DOVERLAY, 0, STATIC
        LOCFRAME ISTACK, 2, STACK
        PUBLIC ZDApp_DeviceConfigured
        FUNCTION ZDApp_DeviceConfigured,021203H
        ARGFRAME XSTACK, 0, STACK
        LOCFRAME XSTACK, 16, STACK
        PUBLIC ZDApp_GetEmptyPendingBindReq
        FUNCTION ZDApp_GetEmptyPendingBindReq,0203H
        ARGFRAME XSTACK, 0, STACK
        LOCFRAME ISTACK, 2, STACK
        PUBLIC ZDApp_InMsgCB
        FUNCTION ZDApp_InMsgCB,021203H
        ARGFRAME XSTACK, 0, STACK
        LOCFRAME XSTACK, 14, STACK
        PUBLIC ZDApp_Init
        FUNCTION ZDApp_Init,021203H
        ARGFRAME XSTACK, 0, STACK
        LOCFRAME XSTACK, 9, STACK
        PUBLIC ZDApp_InitPendingBind
        FUNCTION ZDApp_InitPendingBind,021203H
        ARGFRAME XSTACK, 9, STACK
        ARGFRAME IOVERLAY, 0, STATIC
        ARGFRAME DOVERLAY, 0, STATIC
        LOCFRAME XSTACK, 9, STACK
        PUBLIC ZDApp_InitUserDesc
        FUNCTION ZDApp_InitUserDesc,021203H
        ARGFRAME XSTACK, 9, STACK
        ARGFRAME IOVERLAY, 0, STATIC
        ARGFRAME DOVERLAY, 0, STATIC
        LOCFRAME XSTACK, 31, STACK
        PUBLIC ZDApp_InitZdoCBFunc
        FUNCTION ZDApp_InitZdoCBFunc,0203H
        ARGFRAME XSTACK, 9, STACK
        ARGFRAME IOVERLAY, 0, STATIC
        ARGFRAME DOVERLAY, 0, STATIC
        LOCFRAME ISTACK, 2, STACK
        PUBLIC ZDApp_JoinReq
        FUNCTION ZDApp_JoinReq,021203H
        ARGFRAME XSTACK, 4, STACK
        LOCFRAME XSTACK, 18, STACK
        PUBLIC ZDApp_LeaveCtrl
        PUBLIC ZDApp_LeaveCtrlBypass
        FUNCTION ZDApp_LeaveCtrlBypass,0203H
        ARGFRAME XSTACK, 0, STACK
        LOCFRAME ISTACK, 2, STACK
        PUBLIC ZDApp_LeaveCtrlInit
        FUNCTION ZDApp_LeaveCtrlInit,021203H
        ARGFRAME XSTACK, 14, STACK
        ARGFRAME IOVERLAY, 0, STATIC
        ARGFRAME DOVERLAY, 0, STATIC
        LOCFRAME XSTACK, 14, STACK
        PUBLIC ZDApp_LeaveCtrlReset
        FUNCTION ZDApp_LeaveCtrlReset,021203H
        ARGFRAME XSTACK, 0, STACK
        ARGFRAME IOVERLAY, 0, STATIC
        ARGFRAME DOVERLAY, 0, STATIC
        LOCFRAME XSTACK, 14, STACK
        PUBLIC ZDApp_LeaveCtrlSet
        FUNCTION ZDApp_LeaveCtrlSet,021203H
        ARGFRAME XSTACK, 9, STACK
        ARGFRAME IOVERLAY, 0, STATIC
        ARGFRAME DOVERLAY, 0, STATIC
        LOCFRAME XSTACK, 14, STACK
        PUBLIC ZDApp_LeaveCtrlStartup
        FUNCTION ZDApp_LeaveCtrlStartup,021203H
        ARGFRAME XSTACK, 14, STACK
        ARGFRAME IOVERLAY, 0, STATIC
        ARGFRAME DOVERLAY, 0, STATIC
        LOCFRAME ISTACK, 2, STACK
        PUBLIC ZDApp_LeaveReset
        FUNCTION ZDApp_LeaveReset,021203H
        ARGFRAME XSTACK, 16, STACK
        ARGFRAME IOVERLAY, 0, STATIC
        ARGFRAME DOVERLAY, 0, STATIC
        LOCFRAME XSTACK, 9, STACK
        PUBLIC ZDApp_LeaveUpdate
        FUNCTION ZDApp_LeaveUpdate,021203H
        ARGFRAME XSTACK, 16, STACK
        ARGFRAME IOVERLAY, 0, STATIC
        ARGFRAME DOVERLAY, 0, STATIC
        LOCFRAME XSTACK, 35, STACK
        PUBLIC ZDApp_NVUpdate
        FUNCTION ZDApp_NVUpdate,021203H
        ARGFRAME XSTACK, 16, STACK
        ARGFRAME IOVERLAY, 0, STATIC
        ARGFRAME DOVERLAY, 0, STATIC
        LOCFRAME ISTACK, 2, STACK
        LOCFRAME XSTACK, 4, STACK
        PUBLIC ZDApp_NetworkDiscoveryReq
        FUNCTION ZDApp_NetworkDiscoveryReq,021203H
        ARGFRAME XSTACK, 0, STACK
        LOCFRAME XSTACK, 12, STACK
        PUBLIC ZDApp_NetworkInit
        FUNCTION ZDApp_NetworkInit,021203H
        ARGFRAME XSTACK, 15, STACK
        ARGFRAME IOVERLAY, 0, STATIC
        ARGFRAME DOVERLAY, 0, STATIC
        LOCFRAME XSTACK, 16, STACK
        PUBLIC ZDApp_NetworkStartEvt
        FUNCTION ZDApp_NetworkStartEvt,021203H
        ARGFRAME XSTACK, 14, STACK
        ARGFRAME IOVERLAY, 0, STATIC
        ARGFRAME DOVERLAY, 0, STATIC
        LOCFRAME ISTACK, 2, STACK
        PUBLIC ZDApp_NewDeviceList
        PUBLIC ZDApp_NodeProfileSync
        FUNCTION ZDApp_NodeProfileSync,021203H
        ARGFRAME XSTACK, 15, STACK
        ARGFRAME IOVERLAY, 0, STATIC
        ARGFRAME DOVERLAY, 0, STATIC
        LOCFRAME XSTACK, 9, STACK
        PUBLIC ZDApp_NwkDescListProcessing
        FUNCTION ZDApp_NwkDescListProcessing,021203H
        ARGFRAME XSTACK, 15, STACK
        ARGFRAME IOVERLAY, 0, STATIC
        ARGFRAME DOVERLAY, 0, STATIC
        LOCFRAME XSTACK, 14, STACK
        PUBLIC ZDApp_NwkStateUpdateCB
        FUNCTION ZDApp_NwkStateUpdateCB,021203H
        ARGFRAME XSTACK, 0, STACK
        LOCFRAME ISTACK, 2, STACK
        PUBLIC ZDApp_ProcessMsgCBs
        FUNCTION ZDApp_ProcessMsgCBs,0a1203H
        ARGFRAME XSTACK, 15, STACK
        ARGFRAME IOVERLAY, 0, STATIC
        ARGFRAME DOVERLAY, 0, STATIC
        LOCFRAME XSTACK, 35, STACK
        PUBLIC ZDApp_ProcessNetworkJoin
        FUNCTION ZDApp_ProcessNetworkJoin,021203H
        ARGFRAME XSTACK, 15, STACK
        ARGFRAME IOVERLAY, 0, STATIC
        ARGFRAME DOVERLAY, 0, STATIC
        LOCFRAME XSTACK, 12, STACK
        PUBLIC ZDApp_ProcessOSALMsg
        FUNCTION ZDApp_ProcessOSALMsg,021203H
        ARGFRAME XSTACK, 14, STACK
        ARGFRAME IOVERLAY, 0, STATIC
        ARGFRAME DOVERLAY, 0, STATIC
        LOCFRAME XSTACK, 19, STACK
        PUBLIC ZDApp_ProcessPendingBindReq
        FUNCTION ZDApp_ProcessPendingBindReq,021203H
        ARGFRAME XSTACK, 35, STACK
        ARGFRAME IOVERLAY, 0, STATIC
        ARGFRAME DOVERLAY, 0, STATIC
        LOCFRAME XSTACK, 21, STACK
        PUBLIC ZDApp_ProcessSecEvent
        FUNCTION ZDApp_ProcessSecEvent,021203H
        ARGFRAME XSTACK, 14, STACK
        ARGFRAME IOVERLAY, 0, STATIC
        ARGFRAME DOVERLAY, 0, STATIC
        LOCFRAME XSTACK, 20, STACK
        PUBLIC ZDApp_ProcessSecMsg
        FUNCTION ZDApp_ProcessSecMsg,021203H
        ARGFRAME XSTACK, 15, STACK
        ARGFRAME IOVERLAY, 0, STATIC
        ARGFRAME DOVERLAY, 0, STATIC
        LOCFRAME ISTACK, 2, STACK
        PUBLIC ZDApp_ReadNetworkRestoreState
        FUNCTION ZDApp_ReadNetworkRestoreState,021203H
        ARGFRAME XSTACK, 14, STACK
        ARGFRAME IOVERLAY, 0, STATIC
        ARGFRAME DOVERLAY, 0, STATIC
        LOCFRAME XSTACK, 9, STACK
        PUBLIC ZDApp_RegisterCBs
        FUNCTION ZDApp_RegisterCBs,021203H
        ARGFRAME XSTACK, 9, STACK
        ARGFRAME IOVERLAY, 0, STATIC
        ARGFRAME DOVERLAY, 0, STATIC
        LOCFRAME ISTACK, 2, STACK
        PUBLIC ZDApp_ResetNwkKey
        FUNCTION ZDApp_ResetNwkKey,021203H
        ARGFRAME XSTACK, 0, STACK
        LOCFRAME XSTACK, 35, STACK
        PUBLIC ZDApp_ResetTimerCancel
        FUNCTION ZDApp_ResetTimerCancel,021203H
        ARGFRAME XSTACK, 0, STACK
        ARGFRAME IOVERLAY, 0, STATIC
        ARGFRAME DOVERLAY, 0, STATIC
        LOCFRAME ISTACK, 2, STACK
        PUBLIC ZDApp_ResetTimerStart
        FUNCTION ZDApp_ResetTimerStart,021203H
        ARGFRAME XSTACK, 12, STACK
        ARGFRAME IOVERLAY, 0, STATIC
        ARGFRAME DOVERLAY, 0, STATIC
        LOCFRAME XSTACK, 16, STACK
        PUBLIC ZDApp_RestoreNetworkState
        FUNCTION ZDApp_RestoreNetworkState,021203H
        ARGFRAME XSTACK, 14, STACK
        ARGFRAME IOVERLAY, 0, STATIC
        ARGFRAME DOVERLAY, 0, STATIC
        LOCFRAME XSTACK, 9, STACK
        PUBLIC ZDApp_RestoreNwkKey
        FUNCTION ZDApp_RestoreNwkKey,021203H
        ARGFRAME XSTACK, 15, STACK
        ARGFRAME IOVERLAY, 0, STATIC
        ARGFRAME DOVERLAY, 0, STATIC
        LOCFRAME XSTACK, 53, STACK
        PUBLIC ZDApp_SaveNetworkStateEvt
        FUNCTION ZDApp_SaveNetworkStateEvt,021203H
        ARGFRAME XSTACK, 14, STACK
        ARGFRAME IOVERLAY, 0, STATIC
        ARGFRAME DOVERLAY, 0, STATIC
        LOCFRAME ISTACK, 2, STACK
        PUBLIC ZDApp_SaveNwkKey
        FUNCTION ZDApp_SaveNwkKey,021203H
        ARGFRAME XSTACK, 16, STACK
        ARGFRAME IOVERLAY, 0, STATIC
        ARGFRAME DOVERLAY, 0, STATIC
        LOCFRAME XSTACK, 35, STACK
        PUBLIC ZDApp_SavedPollRate
        PUBLIC ZDApp_SecInit
        FUNCTION ZDApp_SecInit,021203H
        ARGFRAME XSTACK, 14, STACK
        ARGFRAME IOVERLAY, 0, STATIC
        ARGFRAME DOVERLAY, 0, STATIC
        LOCFRAME XSTACK, 25, STACK
        PUBLIC ZDApp_SendEventMsg
        FUNCTION ZDApp_SendEventMsg,021203H
        ARGFRAME XSTACK, 0, STACK
        LOCFRAME XSTACK, 9, STACK
        PUBLIC ZDApp_SendMsg
        FUNCTION ZDApp_SendMsg,021203H
        ARGFRAME XSTACK, 14, STACK
        ARGFRAME IOVERLAY, 0, STATIC
        ARGFRAME DOVERLAY, 0, STATIC
        LOCFRAME ISTACK, 1, STACK
        LOCFRAME XSTACK, 22, STACK
        PUBLIC ZDApp_SetPendingBindDefault
        FUNCTION ZDApp_SetPendingBindDefault,021203H
        ARGFRAME XSTACK, 26, STACK
        ARGFRAME IOVERLAY, 0, STATIC
        ARGFRAME DOVERLAY, 0, STATIC
        LOCFRAME XSTACK, 9, STACK
        PUBLIC ZDApp_StartJoiningCycle
        FUNCTION ZDApp_StartJoiningCycle,021203H
        ARGFRAME XSTACK, 0, STACK
        LOCFRAME ISTACK, 2, STACK
        PUBLIC ZDApp_StopJoiningCycle
        FUNCTION ZDApp_StopJoiningCycle,0203H
        ARGFRAME XSTACK, 0, STACK
        LOCFRAME ISTACK, 2, STACK
        PUBLIC ZDApp_epDesc
        PUBLIC ZDApp_event_loop
        FUNCTION ZDApp_event_loop,021203H
        ARGFRAME XSTACK, 0, STACK
        LOCFRAME XSTACK, 18, STACK
        PUBLIC ZDOInitDevice
        FUNCTION ZDOInitDevice,021203H
        ARGFRAME XSTACK, 9, STACK
        ARGFRAME IOVERLAY, 0, STATIC
        ARGFRAME DOVERLAY, 0, STATIC
        LOCFRAME XSTACK, 14, STACK
        PUBLIC ZDO_AddrChangeIndicationCB
        FUNCTION ZDO_AddrChangeIndicationCB,021203H
        ARGFRAME XSTACK, 0, STACK
        LOCFRAME XSTACK, 14, STACK
        PUBLIC ZDO_ConcentratorIndicationCB
        FUNCTION ZDO_ConcentratorIndicationCB,0203H
        ARGFRAME XSTACK, 0, STACK
        LOCFRAME ISTACK, 1, STACK
        LOCFRAME XSTACK, 14, STACK
        PUBLIC ZDO_DeregisterForZdoCB
        FUNCTION ZDO_DeregisterForZdoCB,0203H
        ARGFRAME XSTACK, 0, STACK
        LOCFRAME ISTACK, 2, STACK
        PUBLIC ZDO_JoinConfirmCB
        FUNCTION ZDO_JoinConfirmCB,021203H
        ARGFRAME XSTACK, 0, STACK
        LOCFRAME ISTACK, 1, STACK
        LOCFRAME XSTACK, 14, STACK
        PUBLIC ZDO_JoinIndicationCB
        FUNCTION ZDO_JoinIndicationCB,021203H
        ARGFRAME XSTACK, 1, STACK
        LOCFRAME XSTACK, 20, STACK
        PUBLIC ZDO_LeaveCnf
        FUNCTION ZDO_LeaveCnf,021203H
        ARGFRAME XSTACK, 0, STACK
        LOCFRAME XSTACK, 10, STACK
        PUBLIC ZDO_LeaveInd
        FUNCTION ZDO_LeaveInd,021203H
        ARGFRAME XSTACK, 0, STACK
        LOCFRAME ISTACK, 1, STACK
        LOCFRAME XSTACK, 16, STACK
        PUBLIC ZDO_ManytoOneFailureIndicationCB
        FUNCTION ZDO_ManytoOneFailureIndicationCB,021203H
        ARGFRAME XSTACK, 0, STACK
        LOCFRAME ISTACK, 2, STACK
        PUBLIC ZDO_NetworkDiscoveryConfirmCB
        FUNCTION ZDO_NetworkDiscoveryConfirmCB,021203H
        ARGFRAME XSTACK, 0, STACK
        LOCFRAME ISTACK, 3, STACK
        LOCFRAME XSTACK, 3, STACK
        PUBLIC ZDO_NetworkFormationConfirmCB
        FUNCTION ZDO_NetworkFormationConfirmCB,021203H
        ARGFRAME XSTACK, 0, STACK
        LOCFRAME XSTACK, 9, STACK
        PUBLIC ZDO_NetworkStatusCB
        FUNCTION ZDO_NetworkStatusCB,021203H
        ARGFRAME XSTACK, 0, STACK
        LOCFRAME ISTACK, 2, STACK
        PUBLIC ZDO_PollConfirmCB
        FUNCTION ZDO_PollConfirmCB,0203H
        ARGFRAME XSTACK, 0, STACK
        PUBLIC ZDO_RegisterForZdoCB
        FUNCTION ZDO_RegisterForZdoCB,0203H
        ARGFRAME XSTACK, 0, STACK
        LOCFRAME ISTACK, 2, STACK
        PUBLIC ZDO_SrcRtgIndCB
        FUNCTION ZDO_SrcRtgIndCB,0203H
        ARGFRAME XSTACK, 0, STACK
        LOCFRAME ISTACK, 1, STACK
        LOCFRAME XSTACK, 14, STACK
        PUBLIC ZDO_StartRouterConfirmCB
        FUNCTION ZDO_StartRouterConfirmCB,021203H
        ARGFRAME XSTACK, 0, STACK
        LOCFRAME XSTACK, 9, STACK
        PUBLIC ZDO_SyncIndicationCB
        FUNCTION ZDO_SyncIndicationCB,021203H
        ARGFRAME XSTACK, 0, STACK
        LOCFRAME XSTACK, 9, STACK
        PUBLIC ZDO_UpdateDeviceIndication
        FUNCTION ZDO_UpdateDeviceIndication,0203H
        ARGFRAME XSTACK, 0, STACK
        PUBLIC ZDO_UseExtendedPANID
        PUBLIC ZDO_beaconNotifyIndCB
        FUNCTION ZDO_beaconNotifyIndCB,021203H
        ARGFRAME XSTACK, 0, STACK
        LOCFRAME ISTACK, 1, STACK
        LOCFRAME XSTACK, 18, STACK
        PUBWEAK __Constant_258
        PUBWEAK __Constant_2bc
        PUBWEAK __Constant_3e8
        PUBWEAK __Constant_4e2
        PUBWEAK __Constant_64
        PUBLIC _tmpRejoinState
        PUBLIC continueJoining
        PUBLIC devStartMode
        PUBLIC devState
        PUBLIC nwkStatus
        PUBLIC retryCnt
        PUBLIC zdappMgmtNwkDiscReqInProgress
        PUBLIC zdappMgmtNwkDiscRspAddr
        PUBLIC zdappMgmtNwkDiscRspTransSeq
        PUBLIC zdappMgmtNwkDiscStartIndex
        PUBLIC zdappMgmtSavedNwkState
        PUBLIC zdoCBFunc
        PUBLIC zdoDiscCounter
        
          CFI Names cfiNames0
          CFI StackFrame CFA_SP SP IDATA
          CFI StackFrame CFA_PSP16 PSP16 XDATA
          CFI StackFrame CFA_XSP16 XSP16 XDATA
          CFI StaticOverlayFrame CFA_IOVERLAY IOVERLAY
          CFI StaticOverlayFrame CFA_DOVERLAY DOVERLAY
          CFI Resource `PSW.CY`:1, `B.BR0`:1, `B.BR1`:1, `B.BR2`:1, `B.BR3`:1
          CFI Resource `B.BR4`:1, `B.BR5`:1, `B.BR6`:1, `B.BR7`:1, `VB.BR8`:1
          CFI Resource `VB.BR9`:1, `VB.BR10`:1, `VB.BR11`:1, `VB.BR12`:1
          CFI Resource `VB.BR13`:1, `VB.BR14`:1, `VB.BR15`:1, VB:8, B:8, A:8
          CFI Resource PSW:8, DPL0:8, DPH0:8, R0:8, R1:8, R2:8, R3:8, R4:8, R5:8
          CFI Resource R6:8, R7:8, V0:8, V1:8, V2:8, V3:8, V4:8, V5:8, V6:8, V7:8
          CFI Resource V8:8, V9:8, V10:8, V11:8, V12:8, V13:8, V14:8, V15:8, SP:8
          CFI Resource PSPH:8, PSPL:8, PSP16:16, XSPH:8, XSPL:8, XSP16:16
          CFI VirtualResource ?RET:24
          CFI Resource ?BRET_EXT:8
          CFI VirtualResource ?RET_HIGH:8, ?RET_LOW:8
          CFI ResourceParts PSP16 PSPH, PSPL
          CFI ResourceParts XSP16 XSPH, XSPL
          CFI ResourceParts ?RET ?BRET_EXT, ?RET_HIGH, ?RET_LOW
          CFI EndNames cfiNames0
        
          CFI Common cfiCommon0 Using cfiNames0
          CFI CodeAlign 1
          CFI DataAlign -1
          CFI ReturnAddress ?RET CODE
          CFI CFA_DOVERLAY Used
          CFI CFA_IOVERLAY Used
          CFI CFA_SP SP+-3
          CFI CFA_PSP16 PSP16+0
          CFI CFA_XSP16 XSP16+0
          CFI `PSW.CY` SameValue
          CFI `B.BR0` SameValue
          CFI `B.BR1` SameValue
          CFI `B.BR2` SameValue
          CFI `B.BR3` SameValue
          CFI `B.BR4` SameValue
          CFI `B.BR5` SameValue
          CFI `B.BR6` SameValue
          CFI `B.BR7` SameValue
          CFI `VB.BR8` SameValue
          CFI `VB.BR9` SameValue
          CFI `VB.BR10` SameValue
          CFI `VB.BR11` SameValue
          CFI `VB.BR12` SameValue
          CFI `VB.BR13` SameValue
          CFI `VB.BR14` SameValue
          CFI `VB.BR15` SameValue
          CFI VB SameValue
          CFI B Undefined
          CFI A Undefined
          CFI PSW SameValue
          CFI DPL0 SameValue
          CFI DPH0 SameValue
          CFI R0 Undefined
          CFI R1 Undefined
          CFI R2 Undefined
          CFI R3 Undefined
          CFI R4 Undefined
          CFI R5 Undefined
          CFI R6 SameValue
          CFI R7 SameValue
          CFI V0 SameValue
          CFI V1 SameValue
          CFI V2 SameValue
          CFI V3 SameValue
          CFI V4 SameValue
          CFI V5 SameValue
          CFI V6 SameValue
          CFI V7 SameValue
          CFI V8 SameValue
          CFI V9 SameValue
          CFI V10 SameValue
          CFI V11 SameValue
          CFI V12 SameValue
          CFI V13 SameValue
          CFI V14 SameValue
          CFI V15 SameValue
          CFI PSPH Undefined
          CFI PSPL Undefined
          CFI XSPH Undefined
          CFI XSPL Undefined
          CFI ?RET Concat
          CFI ?BRET_EXT Frame(CFA_SP, 3)
          CFI ?RET_HIGH Frame(CFA_SP, 2)
          CFI ?RET_LOW Frame(CFA_SP, 1)
          CFI EndCommon cfiCommon0
        
        
          CFI Common cfiCommon1 Using cfiNames0
          CFI CodeAlign 1
          CFI DataAlign -1
          CFI ReturnAddress ?RET CODE
          CFI CFA_DOVERLAY Used
          CFI CFA_IOVERLAY Used
          CFI CFA_SP SP+-2
          CFI CFA_PSP16 PSP16+0
          CFI CFA_XSP16 XSP16+0
          CFI `PSW.CY` SameValue
          CFI `B.BR0` SameValue
          CFI `B.BR1` SameValue
          CFI `B.BR2` SameValue
          CFI `B.BR3` SameValue
          CFI `B.BR4` SameValue
          CFI `B.BR5` SameValue
          CFI `B.BR6` SameValue
          CFI `B.BR7` SameValue
          CFI `VB.BR8` SameValue
          CFI `VB.BR9` SameValue
          CFI `VB.BR10` SameValue
          CFI `VB.BR11` SameValue
          CFI `VB.BR12` SameValue
          CFI `VB.BR13` SameValue
          CFI `VB.BR14` SameValue
          CFI `VB.BR15` SameValue
          CFI VB SameValue
          CFI B SameValue
          CFI A SameValue
          CFI PSW SameValue
          CFI DPL0 SameValue
          CFI DPH0 SameValue
          CFI R0 SameValue
          CFI R1 SameValue
          CFI R2 SameValue
          CFI R3 SameValue
          CFI R4 SameValue
          CFI R5 SameValue
          CFI R6 SameValue
          CFI R7 SameValue
          CFI V0 SameValue
          CFI V1 SameValue
          CFI V2 SameValue
          CFI V3 SameValue
          CFI V4 SameValue
          CFI V5 SameValue
          CFI V6 SameValue
          CFI V7 SameValue
          CFI V8 SameValue
          CFI V9 SameValue
          CFI V10 SameValue
          CFI V11 SameValue
          CFI V12 SameValue
          CFI V13 SameValue
          CFI V14 SameValue
          CFI V15 SameValue
          CFI PSPH Undefined
          CFI PSPL Undefined
          CFI XSPH Undefined
          CFI XSPL Undefined
          CFI ?RET Concat
          CFI ?BRET_EXT SameValue
          CFI ?RET_HIGH Frame(CFA_SP, 2)
          CFI ?RET_LOW Frame(CFA_SP, 1)
          CFI EndCommon cfiCommon1
        
APSME_BindRequest   SYMBOL "APSME_BindRequest"
??APSME_BindRequest?relay SYMBOL "?relay", APSME_BindRequest
APSME_HoldDataRequests SYMBOL "APSME_HoldDataRequests"
??APSME_HoldDataRequests?relay SYMBOL "?relay", APSME_HoldDataRequests
APSME_UpdateDeviceReq SYMBOL "APSME_UpdateDeviceReq"
??APSME_UpdateDeviceReq?relay SYMBOL "?relay", APSME_UpdateDeviceReq
AddrMgrEntryLookupExt SYMBOL "AddrMgrEntryLookupExt"
??AddrMgrEntryLookupExt?relay SYMBOL "?relay", AddrMgrEntryLookupExt
AddrMgrEntryRelease SYMBOL "AddrMgrEntryRelease"
??AddrMgrEntryRelease?relay SYMBOL "?relay", AddrMgrEntryRelease
AddrMgrExtAddrSet   SYMBOL "AddrMgrExtAddrSet"
??AddrMgrExtAddrSet?relay SYMBOL "?relay", AddrMgrExtAddrSet
AssocIsChild        SYMBOL "AssocIsChild"
??AssocIsChild?relay SYMBOL "?relay", AssocIsChild
HalLedBlink         SYMBOL "HalLedBlink"
??HalLedBlink?relay SYMBOL "?relay", HalLedBlink
HalLedSet           SYMBOL "HalLedSet"
??HalLedSet?relay   SYMBOL "?relay", HalLedSet
NLME_GetCoordShortAddr SYMBOL "NLME_GetCoordShortAddr"
??NLME_GetCoordShortAddr?relay SYMBOL "?relay", NLME_GetCoordShortAddr
NLME_GetEnergyThreshold SYMBOL "NLME_GetEnergyThreshold"
??NLME_GetEnergyThreshold?relay SYMBOL "?relay", NLME_GetEnergyThreshold
NLME_GetExtAddr     SYMBOL "NLME_GetExtAddr"
??NLME_GetExtAddr?relay SYMBOL "?relay", NLME_GetExtAddr
NLME_GetShortAddr   SYMBOL "NLME_GetShortAddr"
??NLME_GetShortAddr?relay SYMBOL "?relay", NLME_GetShortAddr
NLME_InitNV         SYMBOL "NLME_InitNV"
??NLME_InitNV?relay SYMBOL "?relay", NLME_InitNV
NLME_JoinRequest    SYMBOL "NLME_JoinRequest"
??NLME_JoinRequest?relay SYMBOL "?relay", NLME_JoinRequest
NLME_LeaveRsp       SYMBOL "NLME_LeaveRsp"
??NLME_LeaveRsp?relay SYMBOL "?relay", NLME_LeaveRsp
NLME_NetworkDiscoveryRequest SYMBOL "NLME_NetworkDiscoveryRequest"
??NLME_NetworkDiscoveryRequest?relay SYMBOL "?relay", NLME_NetworkDiscoveryRequest
NLME_NwkDiscTerm    SYMBOL "NLME_NwkDiscTerm"
??NLME_NwkDiscTerm?relay SYMBOL "?relay", NLME_NwkDiscTerm
NLME_ReJoinRequest  SYMBOL "NLME_ReJoinRequest"
??NLME_ReJoinRequest?relay SYMBOL "?relay", NLME_ReJoinRequest
NLME_ReJoinRequestUnsecure SYMBOL "NLME_ReJoinRequestUnsecure"
??NLME_ReJoinRequestUnsecure?relay SYMBOL "?relay", NLME_ReJoinRequestUnsecure
NLME_RemoveChild    SYMBOL "NLME_RemoveChild"
??NLME_RemoveChild?relay SYMBOL "?relay", NLME_RemoveChild
NLME_RestoreFromNV  SYMBOL "NLME_RestoreFromNV"
??NLME_RestoreFromNV?relay SYMBOL "?relay", NLME_RestoreFromNV
NLME_SetBroadcastFilter SYMBOL "NLME_SetBroadcastFilter"
??NLME_SetBroadcastFilter?relay SYMBOL "?relay", NLME_SetBroadcastFilter
NLME_SetDefaultNV   SYMBOL "NLME_SetDefaultNV"
??NLME_SetDefaultNV?relay SYMBOL "?relay", NLME_SetDefaultNV
NLME_SetEnergyThreshold SYMBOL "NLME_SetEnergyThreshold"
??NLME_SetEnergyThreshold?relay SYMBOL "?relay", NLME_SetEnergyThreshold
NLME_SetPollRate    SYMBOL "NLME_SetPollRate"
??NLME_SetPollRate?relay SYMBOL "?relay", NLME_SetPollRate
NLME_SetQueuedPollRate SYMBOL "NLME_SetQueuedPollRate"
??NLME_SetQueuedPollRate?relay SYMBOL "?relay", NLME_SetQueuedPollRate
NLME_SetResponseRate SYMBOL "NLME_SetResponseRate"
??NLME_SetResponseRate?relay SYMBOL "?relay", NLME_SetResponseRate
NLME_StartRouterRequest SYMBOL "NLME_StartRouterRequest"
??NLME_StartRouterRequest?relay SYMBOL "?relay", NLME_StartRouterRequest
NLME_UpdateNV       SYMBOL "NLME_UpdateNV"
??NLME_UpdateNV?relay SYMBOL "?relay", NLME_UpdateNV
RTG_MTORouteReq     SYMBOL "RTG_MTORouteReq"
??RTG_MTORouteReq?relay SYMBOL "?relay", RTG_MTORouteReq
RTG_RemoveRtgEntry  SYMBOL "RTG_RemoveRtgEntry"
??RTG_RemoveRtgEntry?relay SYMBOL "?relay", RTG_RemoveRtgEntry
SSP_ReadNwkActiveKey SYMBOL "SSP_ReadNwkActiveKey"
??SSP_ReadNwkActiveKey?relay SYMBOL "?relay", SSP_ReadNwkActiveKey
SSP_SwitchNwkKey    SYMBOL "SSP_SwitchNwkKey"
??SSP_SwitchNwkKey?relay SYMBOL "?relay", SSP_SwitchNwkKey
SSP_UpdateNwkKey    SYMBOL "SSP_UpdateNwkKey"
??SSP_UpdateNwkKey?relay SYMBOL "?relay", SSP_UpdateNwkKey
ZDConfig_InitDescriptors SYMBOL "ZDConfig_InitDescriptors"
??ZDConfig_InitDescriptors?relay SYMBOL "?relay", ZDConfig_InitDescriptors
ZDO_FinishProcessingMgmtNwkDiscReq SYMBOL "ZDO_FinishProcessingMgmtNwkDiscReq"
??ZDO_FinishProcessingMgmtNwkDiscReq?relay SYMBOL "?relay", ZDO_FinishProcessingMgmtNwkDiscReq
ZDO_Init            SYMBOL "ZDO_Init"
??ZDO_Init?relay    SYMBOL "?relay", ZDO_Init
ZDO_ParseAddrRsp    SYMBOL "ZDO_ParseAddrRsp"
??ZDO_ParseAddrRsp?relay SYMBOL "?relay", ZDO_ParseAddrRsp
ZDO_ParseBindUnbindReq SYMBOL "ZDO_ParseBindUnbindReq"
??ZDO_ParseBindUnbindReq?relay SYMBOL "?relay", ZDO_ParseBindUnbindReq
ZDO_ProcessBindUnbindReq SYMBOL "ZDO_ProcessBindUnbindReq"
??ZDO_ProcessBindUnbindReq?relay SYMBOL "?relay", ZDO_ProcessBindUnbindReq
ZDO_RegisterForZDOMsg SYMBOL "ZDO_RegisterForZDOMsg"
??ZDO_RegisterForZDOMsg?relay SYMBOL "?relay", ZDO_RegisterForZDOMsg
ZDO_StartDevice     SYMBOL "ZDO_StartDevice"
??ZDO_StartDevice?relay SYMBOL "?relay", ZDO_StartDevice
ZDO_UpdateAddrManager SYMBOL "ZDO_UpdateAddrManager"
??ZDO_UpdateAddrManager?relay SYMBOL "?relay", ZDO_UpdateAddrManager
ZDO_UpdateNwkStatus SYMBOL "ZDO_UpdateNwkStatus"
??ZDO_UpdateNwkStatus?relay SYMBOL "?relay", ZDO_UpdateNwkStatus
ZDP_DeviceAnnce     SYMBOL "ZDP_DeviceAnnce"
??ZDP_DeviceAnnce?relay SYMBOL "?relay", ZDP_DeviceAnnce
ZDP_GenericRsp      SYMBOL "ZDP_GenericRsp"
??ZDP_GenericRsp?relay SYMBOL "?relay", ZDP_GenericRsp
ZDP_IncomingData    SYMBOL "ZDP_IncomingData"
??ZDP_IncomingData?relay SYMBOL "?relay", ZDP_IncomingData
ZDP_SendData        SYMBOL "ZDP_SendData"
??ZDP_SendData?relay SYMBOL "?relay", ZDP_SendData
ZDSecMgrAddrClear   SYMBOL "ZDSecMgrAddrClear"
??ZDSecMgrAddrClear?relay SYMBOL "?relay", ZDSecMgrAddrClear
ZDSecMgrClearNVKeyValues SYMBOL "ZDSecMgrClearNVKeyValues"
??ZDSecMgrClearNVKeyValues?relay SYMBOL "?relay", ZDSecMgrClearNVKeyValues
ZDSecMgrDeviceRemoveByExtAddr SYMBOL "ZDSecMgrDeviceRemoveByExtAddr"
??ZDSecMgrDeviceRemoveByExtAddr?relay SYMBOL "?relay", ZDSecMgrDeviceRemoveByExtAddr
ZDSecMgrInit        SYMBOL "ZDSecMgrInit"
??ZDSecMgrInit?relay SYMBOL "?relay", ZDSecMgrInit
ZDSecMgrNewDeviceEvent SYMBOL "ZDSecMgrNewDeviceEvent"
??ZDSecMgrNewDeviceEvent?relay SYMBOL "?relay", ZDSecMgrNewDeviceEvent
ZDSecMgrReadKeyFromNv SYMBOL "ZDSecMgrReadKeyFromNv"
??ZDSecMgrReadKeyFromNv?relay SYMBOL "?relay", ZDSecMgrReadKeyFromNv
ZDSecMgrRemoveDeviceInd SYMBOL "ZDSecMgrRemoveDeviceInd"
??ZDSecMgrRemoveDeviceInd?relay SYMBOL "?relay", ZDSecMgrRemoveDeviceInd
ZDSecMgrSaveApsLinkKey SYMBOL "ZDSecMgrSaveApsLinkKey"
??ZDSecMgrSaveApsLinkKey?relay SYMBOL "?relay", ZDSecMgrSaveApsLinkKey
ZDSecMgrSaveTCLinkKey SYMBOL "ZDSecMgrSaveTCLinkKey"
??ZDSecMgrSaveTCLinkKey?relay SYMBOL "?relay", ZDSecMgrSaveTCLinkKey
ZDSecMgrSwitchKeyInd SYMBOL "ZDSecMgrSwitchKeyInd"
??ZDSecMgrSwitchKeyInd?relay SYMBOL "?relay", ZDSecMgrSwitchKeyInd
ZDSecMgrTransportKeyInd SYMBOL "ZDSecMgrTransportKeyInd"
??ZDSecMgrTransportKeyInd?relay SYMBOL "?relay", ZDSecMgrTransportKeyInd
ZMacSetReq          SYMBOL "ZMacSetReq"
??ZMacSetReq?relay  SYMBOL "?relay", ZMacSetReq
afRegister          SYMBOL "afRegister"
??afRegister?relay  SYMBOL "?relay", afRegister
afSetMatch          SYMBOL "afSetMatch"
??afSetMatch?relay  SYMBOL "?relay", afSetMatch
nwkNeighborInitTable SYMBOL "nwkNeighborInitTable"
??nwkNeighborInitTable?relay SYMBOL "?relay", nwkNeighborInitTable
nwkNeighborRemove   SYMBOL "nwkNeighborRemove"
??nwkNeighborRemove?relay SYMBOL "?relay", nwkNeighborRemove
nwk_ExtPANIDValid   SYMBOL "nwk_ExtPANIDValid"
??nwk_ExtPANIDValid?relay SYMBOL "?relay", nwk_ExtPANIDValid
nwk_getNwkDescList  SYMBOL "nwk_getNwkDescList"
??nwk_getNwkDescList?relay SYMBOL "?relay", nwk_getNwkDescList
osal_clear_event    SYMBOL "osal_clear_event"
??osal_clear_event?relay SYMBOL "?relay", osal_clear_event
osal_get_timeoutEx  SYMBOL "osal_get_timeoutEx"
??osal_get_timeoutEx?relay SYMBOL "?relay", osal_get_timeoutEx
osal_mem_alloc      SYMBOL "osal_mem_alloc"
??osal_mem_alloc?relay SYMBOL "?relay", osal_mem_alloc
osal_mem_free       SYMBOL "osal_mem_free"
??osal_mem_free?relay SYMBOL "?relay", osal_mem_free
osal_memcmp         SYMBOL "osal_memcmp"
??osal_memcmp?relay SYMBOL "?relay", osal_memcmp
osal_memcpy         SYMBOL "osal_memcpy"
??osal_memcpy?relay SYMBOL "?relay", osal_memcpy
osal_memset         SYMBOL "osal_memset"
??osal_memset?relay SYMBOL "?relay", osal_memset
osal_msg_allocate   SYMBOL "osal_msg_allocate"
??osal_msg_allocate?relay SYMBOL "?relay", osal_msg_allocate
osal_msg_deallocate SYMBOL "osal_msg_deallocate"
??osal_msg_deallocate?relay SYMBOL "?relay", osal_msg_deallocate
osal_msg_receive    SYMBOL "osal_msg_receive"
??osal_msg_receive?relay SYMBOL "?relay", osal_msg_receive
osal_msg_send       SYMBOL "osal_msg_send"
??osal_msg_send?relay SYMBOL "?relay", osal_msg_send
osal_nv_item_init   SYMBOL "osal_nv_item_init"
??osal_nv_item_init?relay SYMBOL "?relay", osal_nv_item_init
osal_nv_read        SYMBOL "osal_nv_read"
??osal_nv_read?relay SYMBOL "?relay", osal_nv_read
osal_nv_write       SYMBOL "osal_nv_write"
??osal_nv_write?relay SYMBOL "?relay", osal_nv_write
osal_pwrmgr_device  SYMBOL "osal_pwrmgr_device"
??osal_pwrmgr_device?relay SYMBOL "?relay", osal_pwrmgr_device
osal_rand           SYMBOL "osal_rand"
??osal_rand?relay   SYMBOL "?relay", osal_rand
osal_set_event      SYMBOL "osal_set_event"
??osal_set_event?relay SYMBOL "?relay", osal_set_event
osal_start_timerEx  SYMBOL "osal_start_timerEx"
??osal_start_timerEx?relay SYMBOL "?relay", osal_start_timerEx
osal_stop_timerEx   SYMBOL "osal_stop_timerEx"
??osal_stop_timerEx?relay SYMBOL "?relay", osal_stop_timerEx
sAddrExtCmp         SYMBOL "sAddrExtCmp"
??sAddrExtCmp?relay SYMBOL "?relay", sAddrExtCmp
sAddrExtCpy         SYMBOL "sAddrExtCpy"
??sAddrExtCpy?relay SYMBOL "?relay", sAddrExtCpy
zgInitItems         SYMBOL "zgInitItems"
??zgInitItems?relay SYMBOL "?relay", zgInitItems
zgReadStartupOptions SYMBOL "zgReadStartupOptions"
??zgReadStartupOptions?relay SYMBOL "?relay", zgReadStartupOptions
zgWriteStartupOptions SYMBOL "zgWriteStartupOptions"
??zgWriteStartupOptions?relay SYMBOL "?relay", zgWriteStartupOptions
AddrMgrWriteNVRequest SYMBOL "AddrMgrWriteNVRequest"
??AddrMgrWriteNVRequest?relay SYMBOL "?relay", AddrMgrWriteNVRequest
ZDAppCheckForHoldKey SYMBOL "ZDAppCheckForHoldKey"
??ZDAppCheckForHoldKey?relay SYMBOL "?relay", ZDAppCheckForHoldKey
ZDAppDetermineDeviceType SYMBOL "ZDAppDetermineDeviceType"
??ZDAppDetermineDeviceType?relay SYMBOL "?relay", ZDAppDetermineDeviceType
ZDApp_AgeOutPendingBindEntry SYMBOL "ZDApp_AgeOutPendingBindEntry"
??ZDApp_AgeOutPendingBindEntry?relay SYMBOL "?relay", ZDApp_AgeOutPendingBindEntry
ZDApp_AnnounceNewAddress SYMBOL "ZDApp_AnnounceNewAddress"
??ZDApp_AnnounceNewAddress?relay SYMBOL "?relay", ZDApp_AnnounceNewAddress
ZDApp_ChangeMatchDescRespPermission SYMBOL "ZDApp_ChangeMatchDescRespPermission"
??ZDApp_ChangeMatchDescRespPermission?relay SYMBOL "?relay", ZDApp_ChangeMatchDescRespPermission
ZDApp_CoordStartPANIDConflictCB SYMBOL "ZDApp_CoordStartPANIDConflictCB"
??ZDApp_CoordStartPANIDConflictCB?relay SYMBOL "?relay", ZDApp_CoordStartPANIDConflictCB
ZDApp_DeviceAuthEvt SYMBOL "ZDApp_DeviceAuthEvt"
??ZDApp_DeviceAuthEvt?relay SYMBOL "?relay", ZDApp_DeviceAuthEvt
ZDApp_DeviceConfigured SYMBOL "ZDApp_DeviceConfigured"
??ZDApp_DeviceConfigured?relay SYMBOL "?relay", ZDApp_DeviceConfigured
ZDApp_GetEmptyPendingBindReq SYMBOL "ZDApp_GetEmptyPendingBindReq"
??ZDApp_GetEmptyPendingBindReq?relay SYMBOL "?relay", ZDApp_GetEmptyPendingBindReq
ZDApp_InMsgCB       SYMBOL "ZDApp_InMsgCB"
??ZDApp_InMsgCB?relay SYMBOL "?relay", ZDApp_InMsgCB
ZDApp_Init          SYMBOL "ZDApp_Init"
??ZDApp_Init?relay  SYMBOL "?relay", ZDApp_Init
ZDApp_InitPendingBind SYMBOL "ZDApp_InitPendingBind"
??ZDApp_InitPendingBind?relay SYMBOL "?relay", ZDApp_InitPendingBind
ZDApp_InitUserDesc  SYMBOL "ZDApp_InitUserDesc"
??ZDApp_InitUserDesc?relay SYMBOL "?relay", ZDApp_InitUserDesc
ZDApp_InitZdoCBFunc SYMBOL "ZDApp_InitZdoCBFunc"
??ZDApp_InitZdoCBFunc?relay SYMBOL "?relay", ZDApp_InitZdoCBFunc
ZDApp_JoinReq       SYMBOL "ZDApp_JoinReq"
??ZDApp_JoinReq?relay SYMBOL "?relay", ZDApp_JoinReq
ZDApp_LeaveCtrlBypass SYMBOL "ZDApp_LeaveCtrlBypass"
??ZDApp_LeaveCtrlBypass?relay SYMBOL "?relay", ZDApp_LeaveCtrlBypass
ZDApp_LeaveCtrlInit SYMBOL "ZDApp_LeaveCtrlInit"
??ZDApp_LeaveCtrlInit?relay SYMBOL "?relay", ZDApp_LeaveCtrlInit
ZDApp_LeaveCtrlReset SYMBOL "ZDApp_LeaveCtrlReset"
??ZDApp_LeaveCtrlReset?relay SYMBOL "?relay", ZDApp_LeaveCtrlReset
ZDApp_LeaveCtrlSet  SYMBOL "ZDApp_LeaveCtrlSet"
??ZDApp_LeaveCtrlSet?relay SYMBOL "?relay", ZDApp_LeaveCtrlSet
ZDApp_LeaveCtrlStartup SYMBOL "ZDApp_LeaveCtrlStartup"
??ZDApp_LeaveCtrlStartup?relay SYMBOL "?relay", ZDApp_LeaveCtrlStartup
ZDApp_LeaveReset    SYMBOL "ZDApp_LeaveReset"
??ZDApp_LeaveReset?relay SYMBOL "?relay", ZDApp_LeaveReset
ZDApp_LeaveUpdate   SYMBOL "ZDApp_LeaveUpdate"
??ZDApp_LeaveUpdate?relay SYMBOL "?relay", ZDApp_LeaveUpdate
ZDApp_NVUpdate      SYMBOL "ZDApp_NVUpdate"
??ZDApp_NVUpdate?relay SYMBOL "?relay", ZDApp_NVUpdate
ZDApp_NetworkDiscoveryReq SYMBOL "ZDApp_NetworkDiscoveryReq"
??ZDApp_NetworkDiscoveryReq?relay SYMBOL "?relay", ZDApp_NetworkDiscoveryReq
ZDApp_NetworkInit   SYMBOL "ZDApp_NetworkInit"
??ZDApp_NetworkInit?relay SYMBOL "?relay", ZDApp_NetworkInit
ZDApp_NetworkStartEvt SYMBOL "ZDApp_NetworkStartEvt"
??ZDApp_NetworkStartEvt?relay SYMBOL "?relay", ZDApp_NetworkStartEvt
ZDApp_NodeProfileSync SYMBOL "ZDApp_NodeProfileSync"
??ZDApp_NodeProfileSync?relay SYMBOL "?relay", ZDApp_NodeProfileSync
ZDApp_NwkDescListProcessing SYMBOL "ZDApp_NwkDescListProcessing"
??ZDApp_NwkDescListProcessing?relay SYMBOL "?relay", ZDApp_NwkDescListProcessing
ZDApp_NwkStateUpdateCB SYMBOL "ZDApp_NwkStateUpdateCB"
??ZDApp_NwkStateUpdateCB?relay SYMBOL "?relay", ZDApp_NwkStateUpdateCB
ZDApp_ProcessMsgCBs SYMBOL "ZDApp_ProcessMsgCBs"
??ZDApp_ProcessMsgCBs?relay SYMBOL "?relay", ZDApp_ProcessMsgCBs
ZDApp_ProcessNetworkJoin SYMBOL "ZDApp_ProcessNetworkJoin"
??ZDApp_ProcessNetworkJoin?relay SYMBOL "?relay", ZDApp_ProcessNetworkJoin
ZDApp_ProcessOSALMsg SYMBOL "ZDApp_ProcessOSALMsg"
??ZDApp_ProcessOSALMsg?relay SYMBOL "?relay", ZDApp_ProcessOSALMsg
ZDApp_ProcessPendingBindReq SYMBOL "ZDApp_ProcessPendingBindReq"
??ZDApp_ProcessPendingBindReq?relay SYMBOL "?relay", ZDApp_ProcessPendingBindReq
ZDApp_ProcessSecEvent SYMBOL "ZDApp_ProcessSecEvent"
??ZDApp_ProcessSecEvent?relay SYMBOL "?relay", ZDApp_ProcessSecEvent
ZDApp_ProcessSecMsg SYMBOL "ZDApp_ProcessSecMsg"
??ZDApp_ProcessSecMsg?relay SYMBOL "?relay", ZDApp_ProcessSecMsg
ZDApp_ReadNetworkRestoreState SYMBOL "ZDApp_ReadNetworkRestoreState"
??ZDApp_ReadNetworkRestoreState?relay SYMBOL "?relay", ZDApp_ReadNetworkRestoreState
ZDApp_RegisterCBs   SYMBOL "ZDApp_RegisterCBs"
??ZDApp_RegisterCBs?relay SYMBOL "?relay", ZDApp_RegisterCBs
ZDApp_ResetNwkKey   SYMBOL "ZDApp_ResetNwkKey"
??ZDApp_ResetNwkKey?relay SYMBOL "?relay", ZDApp_ResetNwkKey
ZDApp_ResetTimerCancel SYMBOL "ZDApp_ResetTimerCancel"
??ZDApp_ResetTimerCancel?relay SYMBOL "?relay", ZDApp_ResetTimerCancel
ZDApp_ResetTimerStart SYMBOL "ZDApp_ResetTimerStart"
??ZDApp_ResetTimerStart?relay SYMBOL "?relay", ZDApp_ResetTimerStart
ZDApp_RestoreNetworkState SYMBOL "ZDApp_RestoreNetworkState"
??ZDApp_RestoreNetworkState?relay SYMBOL "?relay", ZDApp_RestoreNetworkState
ZDApp_RestoreNwkKey SYMBOL "ZDApp_RestoreNwkKey"
??ZDApp_RestoreNwkKey?relay SYMBOL "?relay", ZDApp_RestoreNwkKey
ZDApp_SaveNetworkStateEvt SYMBOL "ZDApp_SaveNetworkStateEvt"
??ZDApp_SaveNetworkStateEvt?relay SYMBOL "?relay", ZDApp_SaveNetworkStateEvt
ZDApp_SaveNwkKey    SYMBOL "ZDApp_SaveNwkKey"
??ZDApp_SaveNwkKey?relay SYMBOL "?relay", ZDApp_SaveNwkKey
ZDApp_SecInit       SYMBOL "ZDApp_SecInit"
??ZDApp_SecInit?relay SYMBOL "?relay", ZDApp_SecInit
ZDApp_SendEventMsg  SYMBOL "ZDApp_SendEventMsg"
??ZDApp_SendEventMsg?relay SYMBOL "?relay", ZDApp_SendEventMsg
ZDApp_SendMsg       SYMBOL "ZDApp_SendMsg"
??ZDApp_SendMsg?relay SYMBOL "?relay", ZDApp_SendMsg
ZDApp_SetPendingBindDefault SYMBOL "ZDApp_SetPendingBindDefault"
??ZDApp_SetPendingBindDefault?relay SYMBOL "?relay", ZDApp_SetPendingBindDefault
ZDApp_StartJoiningCycle SYMBOL "ZDApp_StartJoiningCycle"
??ZDApp_StartJoiningCycle?relay SYMBOL "?relay", ZDApp_StartJoiningCycle
ZDApp_StopJoiningCycle SYMBOL "ZDApp_StopJoiningCycle"
??ZDApp_StopJoiningCycle?relay SYMBOL "?relay", ZDApp_StopJoiningCycle
ZDApp_event_loop    SYMBOL "ZDApp_event_loop"
??ZDApp_event_loop?relay SYMBOL "?relay", ZDApp_event_loop
ZDOInitDevice       SYMBOL "ZDOInitDevice"
??ZDOInitDevice?relay SYMBOL "?relay", ZDOInitDevice
ZDO_AddrChangeIndicationCB SYMBOL "ZDO_AddrChangeIndicationCB"
??ZDO_AddrChangeIndicationCB?relay SYMBOL "?relay", ZDO_AddrChangeIndicationCB
ZDO_ConcentratorIndicationCB SYMBOL "ZDO_ConcentratorIndicationCB"
??ZDO_ConcentratorIndicationCB?relay SYMBOL "?relay", ZDO_ConcentratorIndicationCB
ZDO_DeregisterForZdoCB SYMBOL "ZDO_DeregisterForZdoCB"
??ZDO_DeregisterForZdoCB?relay SYMBOL "?relay", ZDO_DeregisterForZdoCB
ZDO_JoinConfirmCB   SYMBOL "ZDO_JoinConfirmCB"
??ZDO_JoinConfirmCB?relay SYMBOL "?relay", ZDO_JoinConfirmCB
ZDO_JoinIndicationCB SYMBOL "ZDO_JoinIndicationCB"
??ZDO_JoinIndicationCB?relay SYMBOL "?relay", ZDO_JoinIndicationCB
ZDO_LeaveCnf        SYMBOL "ZDO_LeaveCnf"
??ZDO_LeaveCnf?relay SYMBOL "?relay", ZDO_LeaveCnf
ZDO_LeaveInd        SYMBOL "ZDO_LeaveInd"
??ZDO_LeaveInd?relay SYMBOL "?relay", ZDO_LeaveInd
ZDO_ManytoOneFailureIndicationCB SYMBOL "ZDO_ManytoOneFailureIndicationCB"
??ZDO_ManytoOneFailureIndicationCB?relay SYMBOL "?relay", ZDO_ManytoOneFailureIndicationCB
ZDO_NetworkDiscoveryConfirmCB SYMBOL "ZDO_NetworkDiscoveryConfirmCB"
??ZDO_NetworkDiscoveryConfirmCB?relay SYMBOL "?relay", ZDO_NetworkDiscoveryConfirmCB
ZDO_NetworkFormationConfirmCB SYMBOL "ZDO_NetworkFormationConfirmCB"
??ZDO_NetworkFormationConfirmCB?relay SYMBOL "?relay", ZDO_NetworkFormationConfirmCB
ZDO_NetworkStatusCB SYMBOL "ZDO_NetworkStatusCB"
??ZDO_NetworkStatusCB?relay SYMBOL "?relay", ZDO_NetworkStatusCB
ZDO_PollConfirmCB   SYMBOL "ZDO_PollConfirmCB"
??ZDO_PollConfirmCB?relay SYMBOL "?relay", ZDO_PollConfirmCB
ZDO_RegisterForZdoCB SYMBOL "ZDO_RegisterForZdoCB"
??ZDO_RegisterForZdoCB?relay SYMBOL "?relay", ZDO_RegisterForZdoCB
ZDO_SrcRtgIndCB     SYMBOL "ZDO_SrcRtgIndCB"
??ZDO_SrcRtgIndCB?relay SYMBOL "?relay", ZDO_SrcRtgIndCB
ZDO_StartRouterConfirmCB SYMBOL "ZDO_StartRouterConfirmCB"
??ZDO_StartRouterConfirmCB?relay SYMBOL "?relay", ZDO_StartRouterConfirmCB
ZDO_SyncIndicationCB SYMBOL "ZDO_SyncIndicationCB"
??ZDO_SyncIndicationCB?relay SYMBOL "?relay", ZDO_SyncIndicationCB
ZDO_UpdateDeviceIndication SYMBOL "ZDO_UpdateDeviceIndication"
??ZDO_UpdateDeviceIndication?relay SYMBOL "?relay", ZDO_UpdateDeviceIndication
ZDO_beaconNotifyIndCB SYMBOL "ZDO_beaconNotifyIndCB"
??ZDO_beaconNotifyIndCB?relay SYMBOL "?relay", ZDO_beaconNotifyIndCB

        EXTERN ??APSME_BindRequest?relay
        FUNCTION ??APSME_BindRequest?relay,00H
        EXTERN ??APSME_HoldDataRequests?relay
        FUNCTION ??APSME_HoldDataRequests?relay,00H
        EXTERN ??APSME_UpdateDeviceReq?relay
        FUNCTION ??APSME_UpdateDeviceReq?relay,00H
        EXTERN ??AddrMgrEntryLookupExt?relay
        FUNCTION ??AddrMgrEntryLookupExt?relay,00H
        EXTERN ??AddrMgrEntryRelease?relay
        FUNCTION ??AddrMgrEntryRelease?relay,00H
        EXTERN ??AddrMgrExtAddrSet?relay
        FUNCTION ??AddrMgrExtAddrSet?relay,00H
        EXTERN ??AssocIsChild?relay
        FUNCTION ??AssocIsChild?relay,00H
        EXTERN ??HalLedBlink?relay
        FUNCTION ??HalLedBlink?relay,00H
        EXTERN ??HalLedSet?relay
        FUNCTION ??HalLedSet?relay,00H
        EXTERN ??NLME_GetCoordShortAddr?relay
        FUNCTION ??NLME_GetCoordShortAddr?relay,00H
        EXTERN ??NLME_GetEnergyThreshold?relay
        FUNCTION ??NLME_GetEnergyThreshold?relay,00H
        EXTERN ??NLME_GetExtAddr?relay
        FUNCTION ??NLME_GetExtAddr?relay,00H
        EXTERN ??NLME_GetShortAddr?relay
        FUNCTION ??NLME_GetShortAddr?relay,00H
        EXTERN ??NLME_InitNV?relay
        FUNCTION ??NLME_InitNV?relay,00H
        EXTERN ??NLME_JoinRequest?relay
        FUNCTION ??NLME_JoinRequest?relay,00H
        EXTERN ??NLME_LeaveRsp?relay
        FUNCTION ??NLME_LeaveRsp?relay,00H
        EXTERN ??NLME_NetworkDiscoveryRequest?relay
        FUNCTION ??NLME_NetworkDiscoveryRequest?relay,00H
        EXTERN ??NLME_NwkDiscTerm?relay
        FUNCTION ??NLME_NwkDiscTerm?relay,00H
        EXTERN ??NLME_ReJoinRequest?relay
        FUNCTION ??NLME_ReJoinRequest?relay,00H
        EXTERN ??NLME_ReJoinRequestUnsecure?relay
        FUNCTION ??NLME_ReJoinRequestUnsecure?relay,00H
        EXTERN ??NLME_RemoveChild?relay
        FUNCTION ??NLME_RemoveChild?relay,00H
        EXTERN ??NLME_RestoreFromNV?relay
        FUNCTION ??NLME_RestoreFromNV?relay,00H
        EXTERN ??NLME_SetBroadcastFilter?relay
        FUNCTION ??NLME_SetBroadcastFilter?relay,00H
        EXTERN ??NLME_SetDefaultNV?relay
        FUNCTION ??NLME_SetDefaultNV?relay,00H
        EXTERN ??NLME_SetEnergyThreshold?relay
        FUNCTION ??NLME_SetEnergyThreshold?relay,00H
        EXTERN ??NLME_SetPollRate?relay
        FUNCTION ??NLME_SetPollRate?relay,00H
        EXTERN ??NLME_SetQueuedPollRate?relay
        FUNCTION ??NLME_SetQueuedPollRate?relay,00H
        EXTERN ??NLME_SetResponseRate?relay
        FUNCTION ??NLME_SetResponseRate?relay,00H
        EXTERN ??NLME_StartRouterRequest?relay
        FUNCTION ??NLME_StartRouterRequest?relay,00H
        EXTERN ??NLME_UpdateNV?relay
        FUNCTION ??NLME_UpdateNV?relay,00H
        EXTERN ??RTG_MTORouteReq?relay
        FUNCTION ??RTG_MTORouteReq?relay,00H
        EXTERN ??RTG_RemoveRtgEntry?relay
        FUNCTION ??RTG_RemoveRtgEntry?relay,00H
        EXTERN ??SSP_ReadNwkActiveKey?relay
        FUNCTION ??SSP_ReadNwkActiveKey?relay,00H
        EXTERN ??SSP_SwitchNwkKey?relay
        FUNCTION ??SSP_SwitchNwkKey?relay,00H
        EXTERN ??SSP_UpdateNwkKey?relay
        FUNCTION ??SSP_UpdateNwkKey?relay,00H
        EXTERN ??ZDConfig_InitDescriptors?relay
        FUNCTION ??ZDConfig_InitDescriptors?relay,00H
        EXTERN ??ZDO_FinishProcessingMgmtNwkDiscReq?relay
        FUNCTION ??ZDO_FinishProcessingMgmtNwkDiscReq?relay,00H
        EXTERN ??ZDO_Init?relay
        FUNCTION ??ZDO_Init?relay,00H
        EXTERN ??ZDO_ParseAddrRsp?relay
        FUNCTION ??ZDO_ParseAddrRsp?relay,00H
        EXTERN ??ZDO_ParseBindUnbindReq?relay
        FUNCTION ??ZDO_ParseBindUnbindReq?relay,00H
        EXTERN ??ZDO_ProcessBindUnbindReq?relay
        FUNCTION ??ZDO_ProcessBindUnbindReq?relay,00H
        EXTERN ??ZDO_RegisterForZDOMsg?relay
        FUNCTION ??ZDO_RegisterForZDOMsg?relay,00H
        EXTERN ??ZDO_StartDevice?relay
        FUNCTION ??ZDO_StartDevice?relay,00H
        EXTERN ??ZDO_UpdateAddrManager?relay
        FUNCTION ??ZDO_UpdateAddrManager?relay,00H
        EXTERN ??ZDO_UpdateNwkStatus?relay
        FUNCTION ??ZDO_UpdateNwkStatus?relay,00H
        EXTERN ??ZDP_DeviceAnnce?relay
        FUNCTION ??ZDP_DeviceAnnce?relay,00H
        EXTERN ??ZDP_GenericRsp?relay
        FUNCTION ??ZDP_GenericRsp?relay,00H
        EXTERN ??ZDP_IncomingData?relay
        FUNCTION ??ZDP_IncomingData?relay,00H
        EXTERN ??ZDP_SendData?relay
        FUNCTION ??ZDP_SendData?relay,00H
        EXTERN ??ZDSecMgrAddrClear?relay
        FUNCTION ??ZDSecMgrAddrClear?relay,00H
        EXTERN ??ZDSecMgrClearNVKeyValues?relay
        FUNCTION ??ZDSecMgrClearNVKeyValues?relay,00H
        EXTERN ??ZDSecMgrDeviceRemoveByExtAddr?relay
        FUNCTION ??ZDSecMgrDeviceRemoveByExtAddr?relay,00H
        EXTERN ??ZDSecMgrInit?relay
        FUNCTION ??ZDSecMgrInit?relay,00H
        EXTERN ??ZDSecMgrNewDeviceEvent?relay
        FUNCTION ??ZDSecMgrNewDeviceEvent?relay,00H
        EXTERN ??ZDSecMgrReadKeyFromNv?relay
        FUNCTION ??ZDSecMgrReadKeyFromNv?relay,00H
        EXTERN ??ZDSecMgrRemoveDeviceInd?relay
        FUNCTION ??ZDSecMgrRemoveDeviceInd?relay,00H
        EXTERN ??ZDSecMgrSaveApsLinkKey?relay
        FUNCTION ??ZDSecMgrSaveApsLinkKey?relay,00H
        EXTERN ??ZDSecMgrSaveTCLinkKey?relay
        FUNCTION ??ZDSecMgrSaveTCLinkKey?relay,00H
        EXTERN ??ZDSecMgrSwitchKeyInd?relay
        FUNCTION ??ZDSecMgrSwitchKeyInd?relay,00H
        EXTERN ??ZDSecMgrTransportKeyInd?relay
        FUNCTION ??ZDSecMgrTransportKeyInd?relay,00H
        EXTERN ??ZMacSetReq?relay
        FUNCTION ??ZMacSetReq?relay,00H
        EXTERN ??afRegister?relay
        FUNCTION ??afRegister?relay,00H
        EXTERN ??afSetMatch?relay
        FUNCTION ??afSetMatch?relay,00H
        EXTERN ??nwkNeighborInitTable?relay
        FUNCTION ??nwkNeighborInitTable?relay,00H
        EXTERN ??nwkNeighborRemove?relay
        FUNCTION ??nwkNeighborRemove?relay,00H
        EXTERN ??nwk_ExtPANIDValid?relay
        FUNCTION ??nwk_ExtPANIDValid?relay,00H
        EXTERN ??nwk_getNwkDescList?relay
        FUNCTION ??nwk_getNwkDescList?relay,00H
        EXTERN ??osal_clear_event?relay
        FUNCTION ??osal_clear_event?relay,00H
        EXTERN ??osal_get_timeoutEx?relay
        FUNCTION ??osal_get_timeoutEx?relay,00H
        EXTERN ??osal_mem_alloc?relay
        FUNCTION ??osal_mem_alloc?relay,00H
        EXTERN ??osal_mem_free?relay
        FUNCTION ??osal_mem_free?relay,00H
        EXTERN ??osal_memcmp?relay
        FUNCTION ??osal_memcmp?relay,00H
        EXTERN ??osal_memcpy?relay
        FUNCTION ??osal_memcpy?relay,00H
        EXTERN ??osal_memset?relay
        FUNCTION ??osal_memset?relay,00H
        EXTERN ??osal_msg_allocate?relay
        FUNCTION ??osal_msg_allocate?relay,00H
        EXTERN ??osal_msg_deallocate?relay
        FUNCTION ??osal_msg_deallocate?relay,00H
        EXTERN ??osal_msg_receive?relay
        FUNCTION ??osal_msg_receive?relay,00H
        EXTERN ??osal_msg_send?relay
        FUNCTION ??osal_msg_send?relay,00H
        EXTERN ??osal_nv_item_init?relay
        FUNCTION ??osal_nv_item_init?relay,00H
        EXTERN ??osal_nv_read?relay
        FUNCTION ??osal_nv_read?relay,00H
        EXTERN ??osal_nv_write?relay
        FUNCTION ??osal_nv_write?relay,00H
        EXTERN ??osal_pwrmgr_device?relay
        FUNCTION ??osal_pwrmgr_device?relay,00H
        EXTERN ??osal_rand?relay
        FUNCTION ??osal_rand?relay,00H
        EXTERN ??osal_set_event?relay
        FUNCTION ??osal_set_event?relay,00H
        EXTERN ??osal_start_timerEx?relay
        FUNCTION ??osal_start_timerEx?relay,00H
        EXTERN ??osal_stop_timerEx?relay
        FUNCTION ??osal_stop_timerEx?relay,00H
        EXTERN ??sAddrExtCmp?relay
        FUNCTION ??sAddrExtCmp?relay,00H
        EXTERN ??sAddrExtCpy?relay
        FUNCTION ??sAddrExtCpy?relay,00H
        EXTERN ??zgInitItems?relay
        FUNCTION ??zgInitItems?relay,00H
        EXTERN ??zgReadStartupOptions?relay
        FUNCTION ??zgReadStartupOptions?relay,00H
        EXTERN ??zgWriteStartupOptions?relay
        FUNCTION ??zgWriteStartupOptions?relay,00H
        EXTERN AIB_apsUseExtendedPANID
        EXTERN AIB_apsUseInsecureJoin
        EXTERN APSME_BindRequest
        FUNCTION APSME_BindRequest,0202H
        ARGFRAME ISTACK, 0, STACK
        ARGFRAME PSTACK, 0, STACK
        ARGFRAME XSTACK, 17, STACK
        ARGFRAME IOVERLAY, 0, STATIC
        ARGFRAME DOVERLAY, 0, STATIC
        EXTERN APSME_HoldDataRequests
        FUNCTION APSME_HoldDataRequests,0202H
        ARGFRAME ISTACK, 0, STACK
        ARGFRAME PSTACK, 0, STACK
        ARGFRAME XSTACK, 10, STACK
        ARGFRAME IOVERLAY, 0, STATIC
        ARGFRAME DOVERLAY, 0, STATIC
        EXTERN APSME_UpdateDeviceReq
        FUNCTION APSME_UpdateDeviceReq,0202H
        ARGFRAME ISTACK, 0, STACK
        ARGFRAME PSTACK, 0, STACK
        ARGFRAME XSTACK, 32, STACK
        ARGFRAME IOVERLAY, 0, STATIC
        ARGFRAME DOVERLAY, 0, STATIC
        EXTERN AddrMgrEntryLookupExt
        FUNCTION AddrMgrEntryLookupExt,0202H
        ARGFRAME ISTACK, 0, STACK
        ARGFRAME PSTACK, 0, STACK
        ARGFRAME XSTACK, 26, STACK
        ARGFRAME IOVERLAY, 0, STATIC
        ARGFRAME DOVERLAY, 0, STATIC
        EXTERN AddrMgrEntryRelease
        FUNCTION AddrMgrEntryRelease,0202H
        ARGFRAME ISTACK, 0, STACK
        ARGFRAME PSTACK, 0, STACK
        ARGFRAME XSTACK, 26, STACK
        ARGFRAME IOVERLAY, 0, STATIC
        ARGFRAME DOVERLAY, 0, STATIC
        EXTERN AddrMgrExtAddrSet
        FUNCTION AddrMgrExtAddrSet,0202H
        ARGFRAME ISTACK, 0, STACK
        ARGFRAME PSTACK, 0, STACK
        ARGFRAME XSTACK, 26, STACK
        ARGFRAME IOVERLAY, 0, STATIC
        ARGFRAME DOVERLAY, 0, STATIC
        EXTERN AssocIsChild
        FUNCTION AssocIsChild,0202H
        ARGFRAME ISTACK, 0, STACK
        ARGFRAME PSTACK, 0, STACK
        ARGFRAME XSTACK, 32, STACK
        ARGFRAME IOVERLAY, 0, STATIC
        ARGFRAME DOVERLAY, 0, STATIC
        EXTERN HalLedBlink
        FUNCTION HalLedBlink,0202H
        ARGFRAME ISTACK, 0, STACK
        ARGFRAME PSTACK, 0, STACK
        ARGFRAME XSTACK, 9, STACK
        ARGFRAME IOVERLAY, 0, STATIC
        ARGFRAME DOVERLAY, 0, STATIC
        EXTERN HalLedSet
        FUNCTION HalLedSet,0202H
        ARGFRAME ISTACK, 0, STACK
        ARGFRAME PSTACK, 0, STACK
        ARGFRAME XSTACK, 14, STACK
        ARGFRAME IOVERLAY, 0, STATIC
        ARGFRAME DOVERLAY, 0, STATIC
        EXTERN NLME_GetCoordShortAddr
        FUNCTION NLME_GetCoordShortAddr,0202H
        ARGFRAME ISTACK, 0, STACK
        ARGFRAME PSTACK, 0, STACK
        ARGFRAME XSTACK, 16, STACK
        ARGFRAME IOVERLAY, 0, STATIC
        ARGFRAME DOVERLAY, 0, STATIC
        EXTERN NLME_GetEnergyThreshold
        FUNCTION NLME_GetEnergyThreshold,0202H
        ARGFRAME ISTACK, 2, STACK
        ARGFRAME PSTACK, 0, STACK
        ARGFRAME XSTACK, 0, STACK
        ARGFRAME IOVERLAY, 0, STATIC
        ARGFRAME DOVERLAY, 0, STATIC
        EXTERN NLME_GetExtAddr
        FUNCTION NLME_GetExtAddr,0202H
        ARGFRAME ISTACK, 0, STACK
        ARGFRAME PSTACK, 0, STACK
        ARGFRAME XSTACK, 10, STACK
        ARGFRAME IOVERLAY, 0, STATIC
        ARGFRAME DOVERLAY, 0, STATIC
        EXTERN NLME_GetShortAddr
        FUNCTION NLME_GetShortAddr,0202H
        ARGFRAME ISTACK, 2, STACK
        ARGFRAME PSTACK, 0, STACK
        ARGFRAME XSTACK, 12, STACK
        ARGFRAME IOVERLAY, 0, STATIC
        ARGFRAME DOVERLAY, 0, STATIC
        EXTERN NLME_InitNV
        FUNCTION NLME_InitNV,0202H
        ARGFRAME ISTACK, 0, STACK
        ARGFRAME PSTACK, 0, STACK
        ARGFRAME XSTACK, 14, STACK
        ARGFRAME IOVERLAY, 0, STATIC
        ARGFRAME DOVERLAY, 0, STATIC
        EXTERN NLME_JoinRequest
        FUNCTION NLME_JoinRequest,0202H
        ARGFRAME ISTACK, 0, STACK
        ARGFRAME PSTACK, 0, STACK
        ARGFRAME XSTACK, 19, STACK
        ARGFRAME IOVERLAY, 0, STATIC
        ARGFRAME DOVERLAY, 0, STATIC
        EXTERN NLME_LeaveRsp
        FUNCTION NLME_LeaveRsp,0202H
        ARGFRAME ISTACK, 0, STACK
        ARGFRAME PSTACK, 0, STACK
        ARGFRAME XSTACK, 16, STACK
        ARGFRAME IOVERLAY, 0, STATIC
        ARGFRAME DOVERLAY, 0, STATIC
        EXTERN NLME_NetworkDiscoveryRequest
        FUNCTION NLME_NetworkDiscoveryRequest,0202H
        ARGFRAME ISTACK, 0, STACK
        ARGFRAME PSTACK, 0, STACK
        ARGFRAME XSTACK, 12, STACK
        ARGFRAME IOVERLAY, 0, STATIC
        ARGFRAME DOVERLAY, 0, STATIC
        EXTERN NLME_NwkDiscTerm
        FUNCTION NLME_NwkDiscTerm,0202H
        ARGFRAME ISTACK, 0, STACK
        ARGFRAME PSTACK, 0, STACK
        ARGFRAME XSTACK, 12, STACK
        ARGFRAME IOVERLAY, 0, STATIC
        ARGFRAME DOVERLAY, 0, STATIC
        EXTERN NLME_ReJoinRequest
        FUNCTION NLME_ReJoinRequest,0202H
        ARGFRAME ISTACK, 0, STACK
        ARGFRAME PSTACK, 0, STACK
        ARGFRAME XSTACK, 15, STACK
        ARGFRAME IOVERLAY, 0, STATIC
        ARGFRAME DOVERLAY, 0, STATIC
        EXTERN NLME_ReJoinRequestUnsecure
        FUNCTION NLME_ReJoinRequestUnsecure,0202H
        ARGFRAME ISTACK, 0, STACK
        ARGFRAME PSTACK, 0, STACK
        ARGFRAME XSTACK, 15, STACK
        ARGFRAME IOVERLAY, 0, STATIC
        ARGFRAME DOVERLAY, 0, STATIC
        EXTERN NLME_RemoveChild
        FUNCTION NLME_RemoveChild,0202H
        ARGFRAME ISTACK, 0, STACK
        ARGFRAME PSTACK, 0, STACK
        ARGFRAME XSTACK, 32, STACK
        ARGFRAME IOVERLAY, 0, STATIC
        ARGFRAME DOVERLAY, 0, STATIC
        EXTERN NLME_RestoreFromNV
        FUNCTION NLME_RestoreFromNV,0202H
        ARGFRAME ISTACK, 0, STACK
        ARGFRAME PSTACK, 0, STACK
        ARGFRAME XSTACK, 9, STACK
        ARGFRAME IOVERLAY, 0, STATIC
        ARGFRAME DOVERLAY, 0, STATIC
        EXTERN NLME_SetBroadcastFilter
        FUNCTION NLME_SetBroadcastFilter,0202H
        ARGFRAME ISTACK, 0, STACK
        ARGFRAME PSTACK, 0, STACK
        ARGFRAME XSTACK, 14, STACK
        ARGFRAME IOVERLAY, 0, STATIC
        ARGFRAME DOVERLAY, 0, STATIC
        EXTERN NLME_SetDefaultNV
        FUNCTION NLME_SetDefaultNV,0202H
        ARGFRAME ISTACK, 0, STACK
        ARGFRAME PSTACK, 0, STACK
        ARGFRAME XSTACK, 14, STACK
        ARGFRAME IOVERLAY, 0, STATIC
        ARGFRAME DOVERLAY, 0, STATIC
        EXTERN NLME_SetEnergyThreshold
        FUNCTION NLME_SetEnergyThreshold,0202H
        ARGFRAME ISTACK, 2, STACK
        ARGFRAME PSTACK, 0, STACK
        ARGFRAME XSTACK, 0, STACK
        ARGFRAME IOVERLAY, 0, STATIC
        ARGFRAME DOVERLAY, 0, STATIC
        EXTERN NLME_SetPollRate
        FUNCTION NLME_SetPollRate,0202H
        ARGFRAME ISTACK, 2, STACK
        ARGFRAME PSTACK, 0, STACK
        ARGFRAME XSTACK, 15, STACK
        ARGFRAME IOVERLAY, 0, STATIC
        ARGFRAME DOVERLAY, 0, STATIC
        EXTERN NLME_SetQueuedPollRate
        FUNCTION NLME_SetQueuedPollRate,0202H
        ARGFRAME ISTACK, 0, STACK
        ARGFRAME PSTACK, 0, STACK
        ARGFRAME XSTACK, 15, STACK
        ARGFRAME IOVERLAY, 0, STATIC
        ARGFRAME DOVERLAY, 0, STATIC
        EXTERN NLME_SetResponseRate
        FUNCTION NLME_SetResponseRate,0202H
        ARGFRAME ISTACK, 0, STACK
        ARGFRAME PSTACK, 0, STACK
        ARGFRAME XSTACK, 15, STACK
        ARGFRAME IOVERLAY, 0, STATIC
        ARGFRAME DOVERLAY, 0, STATIC
        EXTERN NLME_StartRouterRequest
        FUNCTION NLME_StartRouterRequest,0202H
        ARGFRAME ISTACK, 2, STACK
        ARGFRAME PSTACK, 0, STACK
        ARGFRAME XSTACK, 12, STACK
        ARGFRAME IOVERLAY, 0, STATIC
        ARGFRAME DOVERLAY, 0, STATIC
        EXTERN NLME_UpdateNV
        FUNCTION NLME_UpdateNV,0202H
        ARGFRAME ISTACK, 2, STACK
        ARGFRAME PSTACK, 0, STACK
        ARGFRAME XSTACK, 0, STACK
        ARGFRAME IOVERLAY, 0, STATIC
        ARGFRAME DOVERLAY, 0, STATIC
        EXTERN NWK_TaskID
        EXTERN NwkDescList
        EXTERN Onboard_soft_reset
        FUNCTION Onboard_soft_reset,0202H
        ARGFRAME ISTACK, 0, STACK
        ARGFRAME PSTACK, 0, STACK
        ARGFRAME XSTACK, 14, STACK
        ARGFRAME IOVERLAY, 0, STATIC
        ARGFRAME DOVERLAY, 0, STATIC
        EXTERN RTG_MTORouteReq
        FUNCTION RTG_MTORouteReq,0202H
        ARGFRAME ISTACK, 2, STACK
        ARGFRAME PSTACK, 0, STACK
        ARGFRAME XSTACK, 0, STACK
        ARGFRAME IOVERLAY, 0, STATIC
        ARGFRAME DOVERLAY, 0, STATIC
        EXTERN RTG_RemoveRtgEntry
        FUNCTION RTG_RemoveRtgEntry,0202H
        ARGFRAME ISTACK, 0, STACK
        ARGFRAME PSTACK, 0, STACK
        ARGFRAME XSTACK, 32, STACK
        ARGFRAME IOVERLAY, 0, STATIC
        ARGFRAME DOVERLAY, 0, STATIC
        EXTERN SSP_ReadNwkActiveKey
        FUNCTION SSP_ReadNwkActiveKey,0202H
        ARGFRAME ISTACK, 0, STACK
        ARGFRAME PSTACK, 0, STACK
        ARGFRAME XSTACK, 31, STACK
        ARGFRAME IOVERLAY, 0, STATIC
        ARGFRAME DOVERLAY, 0, STATIC
        EXTERN SSP_SwitchNwkKey
        FUNCTION SSP_SwitchNwkKey,0202H
        ARGFRAME ISTACK, 0, STACK
        ARGFRAME PSTACK, 0, STACK
        ARGFRAME XSTACK, 25, STACK
        ARGFRAME IOVERLAY, 0, STATIC
        ARGFRAME DOVERLAY, 0, STATIC
        EXTERN SSP_UpdateNwkKey
        FUNCTION SSP_UpdateNwkKey,0202H
        ARGFRAME ISTACK, 0, STACK
        ARGFRAME PSTACK, 0, STACK
        ARGFRAME XSTACK, 25, STACK
        ARGFRAME IOVERLAY, 0, STATIC
        ARGFRAME DOVERLAY, 0, STATIC
        EXTERN ZDConfig_InitDescriptors
        FUNCTION ZDConfig_InitDescriptors,0202H
        ARGFRAME ISTACK, 0, STACK
        ARGFRAME PSTACK, 0, STACK
        ARGFRAME XSTACK, 14, STACK
        ARGFRAME IOVERLAY, 0, STATIC
        ARGFRAME DOVERLAY, 0, STATIC
        EXTERN ZDO_Config_Node_Descriptor
        EXTERN ZDO_FinishProcessingMgmtNwkDiscReq
        FUNCTION ZDO_FinishProcessingMgmtNwkDiscReq,0202H
        ARGFRAME ISTACK, 2, STACK
        ARGFRAME PSTACK, 0, STACK
        ARGFRAME XSTACK, 3, STACK
        ARGFRAME IOVERLAY, 0, STATIC
        ARGFRAME DOVERLAY, 0, STATIC
        EXTERN ZDO_Init
        FUNCTION ZDO_Init,0202H
        ARGFRAME ISTACK, 0, STACK
        ARGFRAME PSTACK, 0, STACK
        ARGFRAME XSTACK, 9, STACK
        ARGFRAME IOVERLAY, 0, STATIC
        ARGFRAME DOVERLAY, 0, STATIC
        EXTERN ZDO_ParseAddrRsp
        FUNCTION ZDO_ParseAddrRsp,0202H
        ARGFRAME ISTACK, 0, STACK
        ARGFRAME PSTACK, 0, STACK
        ARGFRAME XSTACK, 35, STACK
        ARGFRAME IOVERLAY, 0, STATIC
        ARGFRAME DOVERLAY, 0, STATIC
        EXTERN ZDO_ParseBindUnbindReq
        FUNCTION ZDO_ParseBindUnbindReq,0202H
        ARGFRAME ISTACK, 0, STACK
        ARGFRAME PSTACK, 0, STACK
        ARGFRAME XSTACK, 35, STACK
        ARGFRAME IOVERLAY, 0, STATIC
        ARGFRAME DOVERLAY, 0, STATIC
        EXTERN ZDO_ProcessBindUnbindReq
        FUNCTION ZDO_ProcessBindUnbindReq,0202H
        ARGFRAME ISTACK, 0, STACK
        ARGFRAME PSTACK, 0, STACK
        ARGFRAME XSTACK, 35, STACK
        ARGFRAME IOVERLAY, 0, STATIC
        ARGFRAME DOVERLAY, 0, STATIC
        EXTERN ZDO_RegisterForZDOMsg
        FUNCTION ZDO_RegisterForZDOMsg,0202H
        ARGFRAME ISTACK, 2, STACK
        ARGFRAME PSTACK, 0, STACK
        ARGFRAME XSTACK, 0, STACK
        ARGFRAME IOVERLAY, 0, STATIC
        ARGFRAME DOVERLAY, 0, STATIC
        EXTERN ZDO_StartDevice
        FUNCTION ZDO_StartDevice,0202H
        ARGFRAME ISTACK, 0, STACK
        ARGFRAME PSTACK, 0, STACK
        ARGFRAME XSTACK, 14, STACK
        ARGFRAME IOVERLAY, 0, STATIC
        ARGFRAME DOVERLAY, 0, STATIC
        EXTERN ZDO_UpdateAddrManager
        FUNCTION ZDO_UpdateAddrManager,0202H
        ARGFRAME ISTACK, 0, STACK
        ARGFRAME PSTACK, 0, STACK
        ARGFRAME XSTACK, 35, STACK
        ARGFRAME IOVERLAY, 0, STATIC
        ARGFRAME DOVERLAY, 0, STATIC
        EXTERN ZDO_UpdateNwkStatus
        FUNCTION ZDO_UpdateNwkStatus,0202H
        ARGFRAME ISTACK, 0, STACK
        ARGFRAME PSTACK, 0, STACK
        ARGFRAME XSTACK, 14, STACK
        ARGFRAME IOVERLAY, 0, STATIC
        ARGFRAME DOVERLAY, 0, STATIC
        EXTERN ZDP_DeviceAnnce
        FUNCTION ZDP_DeviceAnnce,0202H
        ARGFRAME ISTACK, 0, STACK
        ARGFRAME PSTACK, 0, STACK
        ARGFRAME XSTACK, 11, STACK
        ARGFRAME IOVERLAY, 0, STATIC
        ARGFRAME DOVERLAY, 0, STATIC
        EXTERN ZDP_GenericRsp
        FUNCTION ZDP_GenericRsp,0202H
        ARGFRAME ISTACK, 0, STACK
        ARGFRAME PSTACK, 0, STACK
        ARGFRAME XSTACK, 14, STACK
        ARGFRAME IOVERLAY, 0, STATIC
        ARGFRAME DOVERLAY, 0, STATIC
        EXTERN ZDP_IncomingData
        FUNCTION ZDP_IncomingData,0202H
        ARGFRAME ISTACK, 0, STACK
        ARGFRAME PSTACK, 0, STACK
        ARGFRAME XSTACK, 15, STACK
        ARGFRAME IOVERLAY, 0, STATIC
        ARGFRAME DOVERLAY, 0, STATIC
        EXTERN ZDP_SendData
        FUNCTION ZDP_SendData,0202H
        ARGFRAME ISTACK, 0, STACK
        ARGFRAME PSTACK, 0, STACK
        ARGFRAME XSTACK, 31, STACK
        ARGFRAME IOVERLAY, 0, STATIC
        ARGFRAME DOVERLAY, 0, STATIC
        EXTERN ZDSecMgrAddrClear
        FUNCTION ZDSecMgrAddrClear,0202H
        ARGFRAME ISTACK, 0, STACK
        ARGFRAME PSTACK, 0, STACK
        ARGFRAME XSTACK, 32, STACK
        ARGFRAME IOVERLAY, 0, STATIC
        ARGFRAME DOVERLAY, 0, STATIC
        EXTERN ZDSecMgrClearNVKeyValues
        FUNCTION ZDSecMgrClearNVKeyValues,0202H
        ARGFRAME ISTACK, 0, STACK
        ARGFRAME PSTACK, 0, STACK
        ARGFRAME XSTACK, 14, STACK
        ARGFRAME IOVERLAY, 0, STATIC
        ARGFRAME DOVERLAY, 0, STATIC
        EXTERN ZDSecMgrDeviceRemoveByExtAddr
        FUNCTION ZDSecMgrDeviceRemoveByExtAddr,0202H
        ARGFRAME ISTACK, 0, STACK
        ARGFRAME PSTACK, 0, STACK
        ARGFRAME XSTACK, 32, STACK
        ARGFRAME IOVERLAY, 0, STATIC
        ARGFRAME DOVERLAY, 0, STATIC
        EXTERN ZDSecMgrInit
        FUNCTION ZDSecMgrInit,0202H
        ARGFRAME ISTACK, 0, STACK
        ARGFRAME PSTACK, 0, STACK
        ARGFRAME XSTACK, 25, STACK
        ARGFRAME IOVERLAY, 0, STATIC
        ARGFRAME DOVERLAY, 0, STATIC
        EXTERN ZDSecMgrNewDeviceEvent
        FUNCTION ZDSecMgrNewDeviceEvent,0202H
        ARGFRAME ISTACK, 0, STACK
        ARGFRAME PSTACK, 0, STACK
        ARGFRAME XSTACK, 16, STACK
        ARGFRAME IOVERLAY, 0, STATIC
        ARGFRAME DOVERLAY, 0, STATIC
        EXTERN ZDSecMgrReadKeyFromNv
        FUNCTION ZDSecMgrReadKeyFromNv,0202H
        ARGFRAME ISTACK, 0, STACK
        ARGFRAME PSTACK, 0, STACK
        ARGFRAME XSTACK, 25, STACK
        ARGFRAME IOVERLAY, 0, STATIC
        ARGFRAME DOVERLAY, 0, STATIC
        EXTERN ZDSecMgrRemoveDeviceInd
        FUNCTION ZDSecMgrRemoveDeviceInd,0202H
        ARGFRAME ISTACK, 2, STACK
        ARGFRAME PSTACK, 0, STACK
        ARGFRAME XSTACK, 0, STACK
        ARGFRAME IOVERLAY, 0, STATIC
        ARGFRAME DOVERLAY, 0, STATIC
        EXTERN ZDSecMgrSaveApsLinkKey
        FUNCTION ZDSecMgrSaveApsLinkKey,0202H
        ARGFRAME ISTACK, 0, STACK
        ARGFRAME PSTACK, 0, STACK
        ARGFRAME XSTACK, 16, STACK
        ARGFRAME IOVERLAY, 0, STATIC
        ARGFRAME DOVERLAY, 0, STATIC
        EXTERN ZDSecMgrSaveTCLinkKey
        FUNCTION ZDSecMgrSaveTCLinkKey,0202H
        ARGFRAME ISTACK, 0, STACK
        ARGFRAME PSTACK, 0, STACK
        ARGFRAME XSTACK, 16, STACK
        ARGFRAME IOVERLAY, 0, STATIC
        ARGFRAME DOVERLAY, 0, STATIC
        EXTERN ZDSecMgrSwitchKeyInd
        FUNCTION ZDSecMgrSwitchKeyInd,0202H
        ARGFRAME ISTACK, 2, STACK
        ARGFRAME PSTACK, 0, STACK
        ARGFRAME XSTACK, 0, STACK
        ARGFRAME IOVERLAY, 0, STATIC
        ARGFRAME DOVERLAY, 0, STATIC
        EXTERN ZDSecMgrTransportKeyInd
        FUNCTION ZDSecMgrTransportKeyInd,0202H
        ARGFRAME ISTACK, 2, STACK
        ARGFRAME PSTACK, 0, STACK
        ARGFRAME XSTACK, 0, STACK
        ARGFRAME IOVERLAY, 0, STATIC
        ARGFRAME DOVERLAY, 0, STATIC
        EXTERN ZMacSetReq
        FUNCTION ZMacSetReq,0202H
        ARGFRAME ISTACK, 0, STACK
        ARGFRAME PSTACK, 0, STACK
        ARGFRAME XSTACK, 15, STACK
        ARGFRAME IOVERLAY, 0, STATIC
        ARGFRAME DOVERLAY, 0, STATIC
        EXTERN _NIB
        EXTERN afRegister
        FUNCTION afRegister,0202H
        ARGFRAME ISTACK, 0, STACK
        ARGFRAME PSTACK, 0, STACK
        ARGFRAME XSTACK, 9, STACK
        ARGFRAME IOVERLAY, 0, STATIC
        ARGFRAME DOVERLAY, 0, STATIC
        EXTERN afSetMatch
        FUNCTION afSetMatch,0202H
        ARGFRAME ISTACK, 0, STACK
        ARGFRAME PSTACK, 0, STACK
        ARGFRAME XSTACK, 9, STACK
        ARGFRAME IOVERLAY, 0, STATIC
        ARGFRAME DOVERLAY, 0, STATIC
        EXTERN epList
        EXTERN gMIN_TREE_LINK_COST
        EXTERN nwkFrameCounter
        EXTERN nwkFrameCounterChanges
        EXTERN nwkNeighborInitTable
        FUNCTION nwkNeighborInitTable,0202H
        ARGFRAME ISTACK, 0, STACK
        ARGFRAME PSTACK, 0, STACK
        ARGFRAME XSTACK, 12, STACK
        ARGFRAME IOVERLAY, 0, STATIC
        ARGFRAME DOVERLAY, 0, STATIC
        EXTERN nwkNeighborRemove
        FUNCTION nwkNeighborRemove,0202H
        ARGFRAME ISTACK, 0, STACK
        ARGFRAME PSTACK, 0, STACK
        ARGFRAME XSTACK, 32, STACK
        ARGFRAME IOVERLAY, 0, STATIC
        ARGFRAME DOVERLAY, 0, STATIC
        EXTERN nwk_ExtPANIDValid
        FUNCTION nwk_ExtPANIDValid,0202H
        ARGFRAME ISTACK, 2, STACK
        ARGFRAME PSTACK, 0, STACK
        ARGFRAME XSTACK, 14, STACK
        ARGFRAME IOVERLAY, 0, STATIC
        ARGFRAME DOVERLAY, 0, STATIC
        EXTERN nwk_getNwkDescList
        FUNCTION nwk_getNwkDescList,0202H
        ARGFRAME ISTACK, 0, STACK
        ARGFRAME PSTACK, 0, STACK
        ARGFRAME XSTACK, 14, STACK
        ARGFRAME IOVERLAY, 0, STATIC
        ARGFRAME DOVERLAY, 0, STATIC
        EXTERN osal_clear_event
        FUNCTION osal_clear_event,0202H
        ARGFRAME ISTACK, 2, STACK
        ARGFRAME PSTACK, 0, STACK
        ARGFRAME XSTACK, 0, STACK
        ARGFRAME IOVERLAY, 0, STATIC
        ARGFRAME DOVERLAY, 0, STATIC
        EXTERN osal_get_timeoutEx
        FUNCTION osal_get_timeoutEx,0202H
        ARGFRAME ISTACK, 2, STACK
        ARGFRAME PSTACK, 0, STACK
        ARGFRAME XSTACK, 16, STACK
        ARGFRAME IOVERLAY, 0, STATIC
        ARGFRAME DOVERLAY, 0, STATIC
        EXTERN osal_mem_alloc
        FUNCTION osal_mem_alloc,0202H
        ARGFRAME ISTACK, 0, STACK
        ARGFRAME PSTACK, 0, STACK
        ARGFRAME XSTACK, 18, STACK
        ARGFRAME IOVERLAY, 0, STATIC
        ARGFRAME DOVERLAY, 0, STATIC
        EXTERN osal_mem_free
        FUNCTION osal_mem_free,0202H
        ARGFRAME ISTACK, 0, STACK
        ARGFRAME PSTACK, 0, STACK
        ARGFRAME XSTACK, 35, STACK
        ARGFRAME IOVERLAY, 0, STATIC
        ARGFRAME DOVERLAY, 0, STATIC
        EXTERN osal_memcmp
        FUNCTION osal_memcmp,0202H
        ARGFRAME ISTACK, 0, STACK
        ARGFRAME PSTACK, 0, STACK
        ARGFRAME XSTACK, 52, STACK
        ARGFRAME IOVERLAY, 0, STATIC
        ARGFRAME DOVERLAY, 0, STATIC
        EXTERN osal_memcpy
        FUNCTION osal_memcpy,0202H
        ARGFRAME ISTACK, 0, STACK
        ARGFRAME PSTACK, 0, STACK
        ARGFRAME XSTACK, 35, STACK
        ARGFRAME IOVERLAY, 0, STATIC
        ARGFRAME DOVERLAY, 0, STATIC
        EXTERN osal_memset
        FUNCTION osal_memset,0202H
        ARGFRAME ISTACK, 0, STACK
        ARGFRAME PSTACK, 0, STACK
        ARGFRAME XSTACK, 49, STACK
        ARGFRAME IOVERLAY, 0, STATIC
        ARGFRAME DOVERLAY, 0, STATIC
        EXTERN osal_msg_allocate
        FUNCTION osal_msg_allocate,0202H
        ARGFRAME ISTACK, 0, STACK
        ARGFRAME PSTACK, 0, STACK
        ARGFRAME XSTACK, 19, STACK
        ARGFRAME IOVERLAY, 0, STATIC
        ARGFRAME DOVERLAY, 0, STATIC
        EXTERN osal_msg_deallocate
        FUNCTION osal_msg_deallocate,0202H
        ARGFRAME ISTACK, 0, STACK
        ARGFRAME PSTACK, 0, STACK
        ARGFRAME XSTACK, 14, STACK
        ARGFRAME IOVERLAY, 0, STATIC
        ARGFRAME DOVERLAY, 0, STATIC
        EXTERN osal_msg_receive
        FUNCTION osal_msg_receive,0202H
        ARGFRAME ISTACK, 0, STACK
        ARGFRAME PSTACK, 0, STACK
        ARGFRAME XSTACK, 14, STACK
        ARGFRAME IOVERLAY, 0, STATIC
        ARGFRAME DOVERLAY, 0, STATIC
        EXTERN osal_msg_send
        FUNCTION osal_msg_send,0202H
        ARGFRAME ISTACK, 0, STACK
        ARGFRAME PSTACK, 0, STACK
        ARGFRAME XSTACK, 19, STACK
        ARGFRAME IOVERLAY, 0, STATIC
        ARGFRAME DOVERLAY, 0, STATIC
        EXTERN osal_nv_item_init
        FUNCTION osal_nv_item_init,0202H
        ARGFRAME ISTACK, 0, STACK
        ARGFRAME PSTACK, 0, STACK
        ARGFRAME XSTACK, 29, STACK
        ARGFRAME IOVERLAY, 0, STATIC
        ARGFRAME DOVERLAY, 0, STATIC
        EXTERN osal_nv_read
        FUNCTION osal_nv_read,0202H
        ARGFRAME ISTACK, 0, STACK
        ARGFRAME PSTACK, 0, STACK
        ARGFRAME XSTACK, 53, STACK
        ARGFRAME IOVERLAY, 0, STATIC
        ARGFRAME DOVERLAY, 0, STATIC
        EXTERN osal_nv_write
        FUNCTION osal_nv_write,0202H
        ARGFRAME ISTACK, 0, STACK
        ARGFRAME PSTACK, 0, STACK
        ARGFRAME XSTACK, 53, STACK
        ARGFRAME IOVERLAY, 0, STATIC
        ARGFRAME DOVERLAY, 0, STATIC
        EXTERN osal_pwrmgr_device
        FUNCTION osal_pwrmgr_device,0202H
        ARGFRAME ISTACK, 2, STACK
        ARGFRAME PSTACK, 0, STACK
        ARGFRAME XSTACK, 14, STACK
        ARGFRAME IOVERLAY, 0, STATIC
        ARGFRAME DOVERLAY, 0, STATIC
        EXTERN osal_rand
        FUNCTION osal_rand,0202H
        ARGFRAME ISTACK, 0, STACK
        ARGFRAME PSTACK, 0, STACK
        ARGFRAME XSTACK, 15, STACK
        ARGFRAME IOVERLAY, 0, STATIC
        ARGFRAME DOVERLAY, 0, STATIC
        EXTERN osal_set_event
        FUNCTION osal_set_event,0202H
        ARGFRAME ISTACK, 2, STACK
        ARGFRAME PSTACK, 0, STACK
        ARGFRAME XSTACK, 14, STACK
        ARGFRAME IOVERLAY, 0, STATIC
        ARGFRAME DOVERLAY, 0, STATIC
        EXTERN osal_start_timerEx
        FUNCTION osal_start_timerEx,0202H
        ARGFRAME ISTACK, 2, STACK
        ARGFRAME PSTACK, 0, STACK
        ARGFRAME XSTACK, 30, STACK
        ARGFRAME IOVERLAY, 0, STATIC
        ARGFRAME DOVERLAY, 0, STATIC
        EXTERN osal_stop_timerEx
        FUNCTION osal_stop_timerEx,0202H
        ARGFRAME ISTACK, 2, STACK
        ARGFRAME PSTACK, 0, STACK
        ARGFRAME XSTACK, 26, STACK
        ARGFRAME IOVERLAY, 0, STATIC
        ARGFRAME DOVERLAY, 0, STATIC
        EXTERN pZDNwkMgr_ProcessDataConfirm
        EXTERN pbindRemoveDev
        EXTERN sAddrExtCmp
        FUNCTION sAddrExtCmp,0202H
        ARGFRAME ISTACK, 0, STACK
        ARGFRAME PSTACK, 0, STACK
        ARGFRAME XSTACK, 14, STACK
        ARGFRAME IOVERLAY, 0, STATIC
        ARGFRAME DOVERLAY, 0, STATIC
        EXTERN sAddrExtCpy
        FUNCTION sAddrExtCpy,0202H
        ARGFRAME ISTACK, 0, STACK
        ARGFRAME PSTACK, 0, STACK
        ARGFRAME XSTACK, 18, STACK
        ARGFRAME IOVERLAY, 0, STATIC
        ARGFRAME DOVERLAY, 0, STATIC
        EXTERN zgApsLinkKeyType
        EXTERN zgChildAgingEnable
        EXTERN zgConcentratorEnable
        EXTERN zgConfigPANID
        EXTERN zgDefaultStartingScanDuration
        EXTERN zgDeviceLogicalType
        EXTERN zgInitItems
        FUNCTION zgInitItems,0202H
        ARGFRAME ISTACK, 0, STACK
        ARGFRAME PSTACK, 0, STACK
        ARGFRAME XSTACK, 14, STACK
        ARGFRAME IOVERLAY, 0, STATIC
        ARGFRAME DOVERLAY, 0, STATIC
        EXTERN zgPollRate
        EXTERN zgPreConfigKeys
        EXTERN zgReadStartupOptions
        FUNCTION zgReadStartupOptions,0202H
        ARGFRAME ISTACK, 0, STACK
        ARGFRAME PSTACK, 0, STACK
        ARGFRAME XSTACK, 9, STACK
        ARGFRAME IOVERLAY, 0, STATIC
        ARGFRAME DOVERLAY, 0, STATIC
        EXTERN zgRejoinPollRate
        EXTERN zgSecurityMode
        EXTERN zgStackProfile
        EXTERN zgWriteStartupOptions
        FUNCTION zgWriteStartupOptions,0202H
        ARGFRAME ISTACK, 2, STACK
        ARGFRAME PSTACK, 0, STACK
        ARGFRAME XSTACK, 14, STACK
        ARGFRAME IOVERLAY, 0, STATIC
        ARGFRAME DOVERLAY, 0, STATIC

// D:\Texas Instruments\Z-Stack Lighting 1.0.2\Components\stack\zdo\ZDApp.c
//    1 /**************************************************************************************************
//    2   Filename:       ZDApp.c
//    3   Revised:        $Date: 2013-11-23 16:25:51 -0800 (Sat, 23 Nov 2013) $
//    4   Revision:       $Revision: 36244 $
//    5 
//    6   Description:    This file contains the interface to the Zigbee Device Application. This is the
//    7                   Application part that the user can change. This also contains the Task functions.
//    8 
//    9 
//   10   Copyright 2004-2013 Texas Instruments Incorporated. All rights reserved.
//   11 
//   12   IMPORTANT: Your use of this Software is limited to those specific rights
//   13   granted under the terms of a software license agreement between the user
//   14   who downloaded the software, his/her employer (which must be your employer)
//   15   and Texas Instruments Incorporated (the "License"). You may not use this
//   16   Software unless you agree to abide by the terms of the License. The License
//   17   limits your use, and you acknowledge, that the Software may not be modified,
//   18   copied or distributed unless embedded on a Texas Instruments microcontroller
//   19   or used solely and exclusively in conjunction with a Texas Instruments radio
//   20   frequency transceiver, which is integrated into your product. Other than for
//   21   the foregoing purpose, you may not use, reproduce, copy, prepare derivative
//   22   works of, modify, distribute, perform, display or sell this Software and/or
//   23   its documentation for any purpose.
//   24 
//   25   YOU FURTHER ACKNOWLEDGE AND AGREE THAT THE SOFTWARE AND DOCUMENTATION ARE
//   26   PROVIDED "AS IS" WITHOUT WARRANTY OF ANY KIND, EITHER EXPRESS OR IMPLIED,
//   27   INCLUDING WITHOUT LIMITATION, ANY WARRANTY OF MERCHANTABILITY, TITLE,
//   28   NON-INFRINGEMENT AND FITNESS FOR A PARTICULAR PURPOSE. IN NO EVENT SHALL
//   29   TEXAS INSTRUMENTS OR ITS LICENSORS BE LIABLE OR OBLIGATED UNDER CONTRACT,
//   30   NEGLIGENCE, STRICT LIABILITY, CONTRIBUTION, BREACH OF WARRANTY, OR OTHER
//   31   LEGAL EQUITABLE THEORY ANY DIRECT OR INDIRECT DAMAGES OR EXPENSES
//   32   INCLUDING BUT NOT LIMITED TO ANY INCIDENTAL, SPECIAL, INDIRECT, PUNITIVE
//   33   OR CONSEQUENTIAL DAMAGES, LOST PROFITS OR LOST DATA, COST OF PROCUREMENT
//   34   OF SUBSTITUTE GOODS, TECHNOLOGY, SERVICES, OR ANY CLAIMS BY THIRD PARTIES
//   35   (INCLUDING BUT NOT LIMITED TO ANY DEFENSE THEREOF), OR OTHER SIMILAR COSTS.
//   36 
//   37   Should you have any questions regarding your right to use this Software,
//   38   contact Texas Instruments Incorporated at www.TI.com.
//   39 **************************************************************************************************/
//   40 
//   41 /*********************************************************************
//   42  * INCLUDES
//   43  */
//   44 
//   45 #include "ZComDef.h"
//   46 #include "ZMAC.h"
//   47 #include "OSAL.h"
//   48 #include "OSAL_Tasks.h"
//   49 #include "OSAL_PwrMgr.h"
//   50 #include "OSAL_Nv.h"
//   51 #include "AF.h"
//   52 #include "APSMEDE.h"
//   53 #include "NLMEDE.h"
//   54 #include "AddrMgr.h"
//   55 #include "ZDProfile.h"
//   56 #include "ZDObject.h"
//   57 #include "ZDConfig.h"
//   58 #include "ZDSecMgr.h"
//   59 #include "ZDApp.h"
//   60 #include "DebugTrace.h"
//   61 #include "nwk_util.h"
//   62 #include "OnBoard.h"
//   63 #include "ZGlobals.h"
//   64 #include "ZDNwkMgr.h"
//   65 #include "rtg.h"
//   66 
//   67 #include "ssp.h"
//   68 
//   69 /* HAL */
//   70 #include "hal_led.h"
//   71 //#include "hal_lcd.h"
//   72 #include "hal_oled.h"
//   73 #include "hal_key.h"
//   74 
//   75 #if defined( MT_MAC_FUNC ) || defined( MT_MAC_CB_FUNC )
//   76   #error "ERROR! MT_MAC functionalities should be disabled on ZDO devices"
//   77 #endif
//   78 
//   79 /*********************************************************************
//   80  * CONSTANTS
//   81  */
//   82 
//   83 #if !defined( NWK_START_DELAY )
//   84   #define NWK_START_DELAY             100   // in milliseconds
//   85 #endif
//   86 
//   87 #if !defined( LEAVE_RESET_DELAY )
//   88   #define LEAVE_RESET_DELAY           5000  // in milliseconds
//   89 #endif
//   90 
//   91 // Init ZDO, but hold and wait for application to start the joining or
//   92 // forming network
//   93 #define ZDO_INIT_HOLD_NWK_START       0xFFFF
//   94 
//   95 #if !defined( EXTENDED_JOINING_RANDOM_MASK )
//   96   #define EXTENDED_JOINING_RANDOM_MASK 0x007F
//   97 #endif
//   98 
//   99 #if !defined( BEACON_REQUEST_DELAY )
//  100   #define BEACON_REQUEST_DELAY        100   // in milliseconds
//  101 #endif
//  102 
//  103 #if !defined( BEACON_REQ_DELAY_MASK )
//  104   #define BEACON_REQ_DELAY_MASK       0x007F
//  105 #endif
//  106 
//  107 #define MAX_RESUME_RETRY            3
//  108 
//  109 #define MAX_DEVICE_UNAUTH_TIMEOUT   10000  // 10 seconds
//  110 
//  111 // Beacon Order Settings (see NLMEDE.h)
//  112 #define DEFAULT_BEACON_ORDER        BEACON_ORDER_NO_BEACONS
//  113 #define DEFAULT_SUPERFRAME_ORDER    DEFAULT_BEACON_ORDER
//  114 
//  115 #if !defined( NWK_FRAMECOUNTER_CHANGES_RESTORE_DELTA )
//  116 // Additional counts to add to the frame counter when restoring from NV
//  117 // This amount is in addition to MAX_NWK_FRAMECOUNTER_CHANGES
//  118 #define NWK_FRAMECOUNTER_CHANGES_RESTORE_DELTA    250
//  119 #endif
//  120 
//  121 // Leave control bits
//  122 #define ZDAPP_LEAVE_CTRL_INIT 0
//  123 #define ZDAPP_LEAVE_CTRL_SET  1
//  124 #define ZDAPP_LEAVE_CTRL_RA   2
//  125 
//  126 // Address Manager Stub Implementation
//  127 #define ZDApp_NwkWriteNVRequest AddrMgrWriteNVRequest
//  128 
//  129 
//  130 #if !defined ZDO_NV_SAVE_RFDs
//  131 #define ZDO_NV_SAVE_RFDs  TRUE
//  132 #endif
//  133 
//  134 // Delay time before updating NWK NV data to force fewer writes during high activity.
//  135 #if ZDO_NV_SAVE_RFDs
//  136 #define ZDAPP_UPDATE_NWK_NV_TIME 700
//  137 #else
//  138 #define ZDAPP_UPDATE_NWK_NV_TIME 65000
//  139 #endif
//  140 
//  141 // Timeout value to process New Devices
//  142 #define ZDAPP_NEW_DEVICE_TIME     600   // in ms
//  143 
//  144 #if !defined ( ZDP_BIND_SKIP_VALIDATION )
//  145 #if !defined MAX_PENDING_BIND_REQ
//  146 #define MAX_PENDING_BIND_REQ 3
//  147 #endif
//  148 #endif
//  149 
//  150 /******************************************************************************
//  151  * TYPEDEFS
//  152  */
//  153 typedef struct
//  154 {
//  155   void   *next;
//  156   uint16 shortAddr;
//  157   uint16 timeDelta;
//  158 } ZDAppNewDevice_t;
//  159 
//  160 /*********************************************************************
//  161  * GLOBAL VARIABLES
//  162  */
//  163 
//  164 #if defined( LCD_SUPPORTED )

        RSEG XDATA_Z:XDATA:NOROOT(0)
        DATA8
//  165   uint8 MatchRsps = 0;
MatchRsps:
        DS 1
        REQUIRE __INIT_XDATA_Z
//  166 #endif
//  167 

        RSEG XDATA_I:XDATA:NOROOT(0)
//  168 uint8 zdoDiscCounter = 1;
zdoDiscCounter:
        DATA8
        DS 1
        REQUIRE `?<Initializer for zdoDiscCounter>`
        REQUIRE __INIT_XDATA_I
//  169 

        RSEG XDATA_Z:XDATA:NOROOT(0)
        DATA8
//  170 zAddrType_t ZDAppNwkAddr;
ZDAppNwkAddr:
        DS 9
        REQUIRE __INIT_XDATA_Z
//  171 

        RSEG XDATA_Z:XDATA:NOROOT(0)
        DATA8
//  172 uint8 zdappMgmtNwkDiscRspTransSeq;
zdappMgmtNwkDiscRspTransSeq:
        DS 1
        REQUIRE __INIT_XDATA_Z

        RSEG XDATA_Z:XDATA:NOROOT(0)
        DATA8
//  173 uint8 zdappMgmtNwkDiscReqInProgress = FALSE;
zdappMgmtNwkDiscReqInProgress:
        DS 1
        REQUIRE __INIT_XDATA_Z

        RSEG XDATA_Z:XDATA:NOROOT(0)
        DATA8
//  174 zAddrType_t zdappMgmtNwkDiscRspAddr;
zdappMgmtNwkDiscRspAddr:
        DS 9
        REQUIRE __INIT_XDATA_Z

        RSEG XDATA_Z:XDATA:NOROOT(0)
        DATA8
//  175 uint8 zdappMgmtNwkDiscStartIndex;
zdappMgmtNwkDiscStartIndex:
        DS 1
        REQUIRE __INIT_XDATA_Z

        RSEG XDATA_Z:XDATA:NOROOT(0)
        DATA8
//  176 uint8 zdappMgmtSavedNwkState;
zdappMgmtSavedNwkState:
        DS 1
        REQUIRE __INIT_XDATA_Z
//  177 

        RSEG XDATA_I:XDATA:NOROOT(0)
//  178 uint8 continueJoining = TRUE;
continueJoining:
        DATA8
        DS 1
        REQUIRE `?<Initializer for continueJoining>`
        REQUIRE __INIT_XDATA_I
//  179 

        RSEG XDATA_Z:XDATA:NOROOT(0)
        DATA8
//  180 uint8  _tmpRejoinState;
_tmpRejoinState:
        DS 1
        REQUIRE __INIT_XDATA_Z
//  181 
//  182 // The extended PanID used in ZDO layer for rejoin.

        RSEG XDATA_Z:XDATA:NOROOT(0)
        DATA8
//  183 uint8 ZDO_UseExtendedPANID[Z_EXTADDR_LEN];
ZDO_UseExtendedPANID:
        DS 8
        REQUIRE __INIT_XDATA_Z
//  184 

        RSEG XDATA_Z:XDATA:NOROOT(0)
        DATA8
//  185 pfnZdoCb zdoCBFunc[MAX_ZDO_CB_FUNC];
zdoCBFunc:
        DS 14
        REQUIRE __INIT_XDATA_Z
//  186 
//  187 #if !defined ( ZDP_BIND_SKIP_VALIDATION )

        RSEG XDATA_Z:XDATA:NOROOT(0)
        DATA16
//  188 ZDO_PendingBindReq_t *ZDAppPendingBindReq = NULL;
ZDAppPendingBindReq:
        DS 2
        REQUIRE __INIT_XDATA_Z
//  189 #endif
//  190 
//  191 /*********************************************************************
//  192  * EXTERNAL VARIABLES
//  193  */
//  194 
//  195 /*********************************************************************
//  196  * EXTERNAL FUNCTIONS
//  197  */
//  198 
//  199 /*********************************************************************
//  200  * LOCAL FUNCTIONS
//  201  */
//  202 
//  203 void ZDApp_NetworkStartEvt( void );
//  204 void ZDApp_DeviceAuthEvt( void );
//  205 void ZDApp_SaveNetworkStateEvt( void );
//  206 
//  207 uint8 ZDApp_ReadNetworkRestoreState( void );
//  208 uint8 ZDApp_RestoreNetworkState( void );
//  209 void ZDAppDetermineDeviceType( void );
//  210 void ZDApp_InitUserDesc( void );
//  211 void ZDAppCheckForHoldKey( void );
//  212 void ZDApp_ProcessOSALMsg( osal_event_hdr_t *msgPtr );
//  213 void ZDApp_ProcessNetworkJoin( void );
//  214 void ZDApp_SetCoordAddress( uint8 endPoint, uint8 dstEP );
//  215 uint8 ZDApp_RestoreNwkKey( void );
//  216 networkDesc_t* ZDApp_NwkDescListProcessing(void);
//  217 
//  218 void ZDApp_SecInit( uint8 state );
//  219 UINT16 ZDApp_ProcessSecEvent( uint8 task_id, UINT16 events );
//  220 void ZDApp_ProcessSecMsg( osal_event_hdr_t *msgPtr );
//  221 
//  222 void ZDApp_SendMsg( uint8 taskID, uint8 cmd, uint8 len, uint8 *buf );
//  223 
//  224 void ZDApp_ResetTimerStart( uint16 delay );
//  225 void ZDApp_ResetTimerCancel( void );
//  226 void ZDApp_LeaveCtrlInit( void );
//  227 void ZDApp_LeaveCtrlSet( uint8 ra );
//  228 uint8 ZDApp_LeaveCtrlBypass( void );
//  229 void ZDApp_LeaveCtrlStartup( devStates_t* state, uint16* startDelay );
//  230 void ZDApp_LeaveUpdate( uint16 nwkAddr, uint8* extAddr,
//  231                         uint8 removeChildren );
//  232 void ZDApp_NodeProfileSync( uint8 stackProfile );
//  233 void ZDApp_ProcessMsgCBs( zdoIncomingMsg_t *inMsg );
//  234 void ZDApp_RegisterCBs( void );
//  235 void ZDApp_InitZdoCBFunc(void);
//  236 #if !defined ( ZDP_BIND_SKIP_VALIDATION )
//  237 void ZDApp_SetPendingBindDefault( ZDO_PendingBindReq_t *pendBindReq );
//  238 void ZDApp_InitPendingBind( void );
//  239 void ZDApp_ProcessPendingBindReq( uint8 *extAddr );
//  240 void ZDApp_AgeOutPendingBindEntry( void );
//  241 #endif
//  242 
//  243 /*********************************************************************
//  244  * LOCAL VARIABLES
//  245  */
//  246 

        RSEG XDATA_Z:XDATA:NOROOT(0)
        DATA8
//  247 uint8 ZDAppTaskID;
ZDAppTaskID:
        DS 1
        REQUIRE __INIT_XDATA_Z

        RSEG XDATA_Z:XDATA:NOROOT(0)
        DATA8
//  248 uint8 nwkStatus;
nwkStatus:
        DS 1
        REQUIRE __INIT_XDATA_Z

        RSEG XDATA_Z:XDATA:NOROOT(0)
        DATA16
//  249 endPointDesc_t *ZDApp_AutoFindMode_epDesc = (endPointDesc_t *)NULL;
ZDApp_AutoFindMode_epDesc:
        DS 2
        REQUIRE __INIT_XDATA_Z

        RSEG XDATA_Z:XDATA:NOROOT(0)
        DATA8
//  250 uint8 ZDApp_LeaveCtrl;
ZDApp_LeaveCtrl:
        DS 1
        REQUIRE __INIT_XDATA_Z
//  251 
//  252 #if defined( HOLD_AUTO_START )

        RSEG XDATA_Z:XDATA:NOROOT(0)
        DATA8
//  253   devStates_t devState = DEV_HOLD;
devState:
        DS 1
        REQUIRE __INIT_XDATA_Z
//  254 #else
//  255   devStates_t devState = DEV_INIT;
//  256 #endif
//  257 
//  258 #if ( ZG_BUILD_RTRONLY_TYPE ) || ( ZG_BUILD_ENDDEVICE_TYPE )

        RSEG XDATA_Z:XDATA:NOROOT(0)
        DATA8
//  259   devStartModes_t devStartMode = MODE_JOIN;     // Assume joining
devStartMode:
        DS 1
        REQUIRE __INIT_XDATA_Z
//  260   //devStartModes_t devStartMode = MODE_RESUME; // if already "directly joined"
//  261                         // to parent. Set to make the device do an Orphan scan.
//  262 #else
//  263   // Set the default to coodinator
//  264   devStartModes_t devStartMode = MODE_HARD;
//  265 #endif
//  266 

        RSEG XDATA_Z:XDATA:NOROOT(0)
        DATA8
//  267 uint8 retryCnt;
retryCnt:
        DS 1
        REQUIRE __INIT_XDATA_Z
//  268 

        RSEG XDATA_I:XDATA:NOROOT(0)
//  269 endPointDesc_t ZDApp_epDesc =
ZDApp_epDesc:
        DATA8
        DS 6
        REQUIRE `?<Initializer for ZDApp_epDesc>`
        REQUIRE __INIT_XDATA_I
//  270 {
//  271   ZDO_EP,
//  272   &ZDAppTaskID,
//  273   (SimpleDescriptionFormat_t *)NULL,  // No Simple description for ZDO
//  274   (afNetworkLatencyReq_t)0            // No Network Latency req
//  275 };
//  276 

        RSEG XDATA_I:XDATA:NOROOT(0)
//  277 uint16 ZDApp_SavedPollRate = POLL_RATE;
ZDApp_SavedPollRate:
        DATA16
        DS 2
        REQUIRE `?<Initializer for ZDApp_SavedPollRate>`
        REQUIRE __INIT_XDATA_I
//  278 

        RSEG XDATA_Z:XDATA:NOROOT(0)
        DATA16
//  279 ZDAppNewDevice_t *ZDApp_NewDeviceList = NULL;
ZDApp_NewDeviceList:
        DS 2
        REQUIRE __INIT_XDATA_Z
//  280 
//  281 /* "Hold Key" status saved during ZDAppCheckForHoldKey() */

        RSEG XDATA_Z:XDATA:NOROOT(0)
        DATA8
//  282 static uint8 zdappHoldKeys;
zdappHoldKeys:
        DS 1
        REQUIRE __INIT_XDATA_Z
//  283 
//  284 /*********************************************************************
//  285  * @fn      ZDApp_Init
//  286  *
//  287  * @brief   ZDApp Initialization function.
//  288  *
//  289  * @param   task_id - ZDApp Task ID
//  290  *
//  291  * @return  None
//  292  */

        RSEG BANKED_CODE:CODE:NOROOT(0)
//  293 void ZDApp_Init( uint8 task_id )
ZDApp_Init:
          CFI Block cfiBlock0 Using cfiCommon0
          CFI Function ZDApp_Init
        CODE
//  294 {
        FUNCALL ZDApp_Init, NLME_GetExtAddr
        LOCFRAME ISTACK, 0, STACK
        LOCFRAME PSTACK, 0, STACK
        LOCFRAME XSTACK, 9, STACK
        LOCFRAME IOVERLAY, 0, STATIC
        LOCFRAME DOVERLAY, 0, STATIC
        ARGFRAME ISTACK, 0, STACK
        ARGFRAME PSTACK, 0, STACK
        ARGFRAME XSTACK, 9, STACK
        ARGFRAME IOVERLAY, 0, STATIC
        ARGFRAME DOVERLAY, 0, STATIC
        FUNCALL ZDApp_Init, ZDO_Init
        LOCFRAME ISTACK, 0, STACK
        LOCFRAME PSTACK, 0, STACK
        LOCFRAME XSTACK, 9, STACK
        LOCFRAME IOVERLAY, 0, STATIC
        LOCFRAME DOVERLAY, 0, STATIC
        ARGFRAME ISTACK, 0, STACK
        ARGFRAME PSTACK, 0, STACK
        ARGFRAME XSTACK, 9, STACK
        ARGFRAME IOVERLAY, 0, STATIC
        ARGFRAME DOVERLAY, 0, STATIC
        FUNCALL ZDApp_Init, afRegister
        LOCFRAME ISTACK, 0, STACK
        LOCFRAME PSTACK, 0, STACK
        LOCFRAME XSTACK, 9, STACK
        LOCFRAME IOVERLAY, 0, STATIC
        LOCFRAME DOVERLAY, 0, STATIC
        ARGFRAME ISTACK, 0, STACK
        ARGFRAME PSTACK, 0, STACK
        ARGFRAME XSTACK, 9, STACK
        ARGFRAME IOVERLAY, 0, STATIC
        ARGFRAME DOVERLAY, 0, STATIC
        FUNCALL ZDApp_Init, ZDApp_InitUserDesc
        LOCFRAME ISTACK, 0, STACK
        LOCFRAME PSTACK, 0, STACK
        LOCFRAME XSTACK, 9, STACK
        LOCFRAME IOVERLAY, 0, STATIC
        LOCFRAME DOVERLAY, 0, STATIC
        ARGFRAME ISTACK, 0, STACK
        ARGFRAME PSTACK, 0, STACK
        ARGFRAME XSTACK, 9, STACK
        ARGFRAME IOVERLAY, 0, STATIC
        ARGFRAME DOVERLAY, 0, STATIC
        FUNCALL ZDApp_Init, ZDOInitDevice
        LOCFRAME ISTACK, 0, STACK
        LOCFRAME PSTACK, 0, STACK
        LOCFRAME XSTACK, 9, STACK
        LOCFRAME IOVERLAY, 0, STATIC
        LOCFRAME DOVERLAY, 0, STATIC
        ARGFRAME ISTACK, 0, STACK
        ARGFRAME PSTACK, 0, STACK
        ARGFRAME XSTACK, 9, STACK
        ARGFRAME IOVERLAY, 0, STATIC
        ARGFRAME DOVERLAY, 0, STATIC
        FUNCALL ZDApp_Init, ZDOInitDevice
        LOCFRAME ISTACK, 0, STACK
        LOCFRAME PSTACK, 0, STACK
        LOCFRAME XSTACK, 9, STACK
        LOCFRAME IOVERLAY, 0, STATIC
        LOCFRAME DOVERLAY, 0, STATIC
        ARGFRAME ISTACK, 0, STACK
        ARGFRAME PSTACK, 0, STACK
        ARGFRAME XSTACK, 9, STACK
        ARGFRAME IOVERLAY, 0, STATIC
        ARGFRAME DOVERLAY, 0, STATIC
        FUNCALL ZDApp_Init, HalLedBlink
        LOCFRAME ISTACK, 0, STACK
        LOCFRAME PSTACK, 0, STACK
        LOCFRAME XSTACK, 9, STACK
        LOCFRAME IOVERLAY, 0, STATIC
        LOCFRAME DOVERLAY, 0, STATIC
        ARGFRAME ISTACK, 0, STACK
        ARGFRAME PSTACK, 0, STACK
        ARGFRAME XSTACK, 9, STACK
        ARGFRAME IOVERLAY, 0, STATIC
        ARGFRAME DOVERLAY, 0, STATIC
        FUNCALL ZDApp_Init, ZDApp_InitZdoCBFunc
        LOCFRAME ISTACK, 0, STACK
        LOCFRAME PSTACK, 0, STACK
        LOCFRAME XSTACK, 9, STACK
        LOCFRAME IOVERLAY, 0, STATIC
        LOCFRAME DOVERLAY, 0, STATIC
        ARGFRAME ISTACK, 0, STACK
        ARGFRAME PSTACK, 0, STACK
        ARGFRAME XSTACK, 9, STACK
        ARGFRAME IOVERLAY, 0, STATIC
        ARGFRAME DOVERLAY, 0, STATIC
        FUNCALL ZDApp_Init, ZDApp_RegisterCBs
        LOCFRAME ISTACK, 0, STACK
        LOCFRAME PSTACK, 0, STACK
        LOCFRAME XSTACK, 9, STACK
        LOCFRAME IOVERLAY, 0, STATIC
        LOCFRAME DOVERLAY, 0, STATIC
        ARGFRAME ISTACK, 0, STACK
        ARGFRAME PSTACK, 0, STACK
        ARGFRAME XSTACK, 9, STACK
        ARGFRAME IOVERLAY, 0, STATIC
        ARGFRAME DOVERLAY, 0, STATIC
        FUNCALL ZDApp_Init, ZDApp_InitPendingBind
        LOCFRAME ISTACK, 0, STACK
        LOCFRAME PSTACK, 0, STACK
        LOCFRAME XSTACK, 9, STACK
        LOCFRAME IOVERLAY, 0, STATIC
        LOCFRAME DOVERLAY, 0, STATIC
        ARGFRAME ISTACK, 0, STACK
        ARGFRAME PSTACK, 0, STACK
        ARGFRAME XSTACK, 9, STACK
        ARGFRAME IOVERLAY, 0, STATIC
        ARGFRAME DOVERLAY, 0, STATIC
        MOV     A,#-0x9
        LCALL   ?BANKED_ENTER_XDATA
          CFI DPH0 load(1, XDATA, add(CFA_XSP16, literal(-1)))
          CFI DPL0 load(1, XDATA, add(CFA_XSP16, literal(-2)))
          CFI ?BRET_EXT load(1, XDATA, add(CFA_XSP16, literal(-3)))
          CFI ?RET_HIGH load(1, XDATA, add(CFA_XSP16, literal(-4)))
          CFI ?RET_LOW load(1, XDATA, add(CFA_XSP16, literal(-5)))
          CFI R7 load(1, XDATA, add(CFA_XSP16, literal(-6)))
          CFI V0 load(1, XDATA, add(CFA_XSP16, literal(-7)))
          CFI VB load(1, XDATA, add(CFA_XSP16, literal(-8)))
          CFI R6 load(1, XDATA, add(CFA_XSP16, literal(-9)))
          CFI CFA_SP SP+0
          CFI CFA_XSP16 add(XSP16, 9)
        ; Saved register size: 9
        ; Auto size: 0
        MOV     A,R1
//  295   // Save the task ID
//  296   ZDAppTaskID = task_id;
        MOV     DPTR,#ZDAppTaskID
        MOVX    @DPTR,A
//  297 
//  298   // Initialize the ZDO global device short address storage
//  299   ZDAppNwkAddr.addrMode = Addr16Bit;
        MOV     DPTR,#ZDAppNwkAddr + 8
        MOV     A,#0x2
        MOVX    @DPTR,A
//  300   ZDAppNwkAddr.addr.shortAddr = INVALID_NODE_ADDR;
        MOV     DPTR,#ZDAppNwkAddr
        MOV     A,#-0x2
        MOVX    @DPTR,A
        INC     DPTR
        INC     A
        MOVX    @DPTR,A
//  301   (void)NLME_GetExtAddr();  // Load the saveExtAddr pointer.
        ; Setup parameters for call to function NLME_GetExtAddr
        LCALL   ??NLME_GetExtAddr?relay
//  302 
//  303   // Check for manual "Hold Auto Start"
//  304   ZDAppCheckForHoldKey();
//  305 
//  306   // Initialize ZDO items and setup the device - type of device to create.
//  307   ZDO_Init();
        ; Setup parameters for call to function ZDO_Init
        LCALL   ??ZDO_Init?relay
//  308 
//  309   // Register the endpoint description with the AF
//  310   // This task doesn't have a Simple description, but we still need
//  311   // to register the endpoint.
//  312   afRegister( (endPointDesc_t *)&ZDApp_epDesc );
        ; Setup parameters for call to function afRegister
        MOV     R2,#ZDApp_epDesc & 0xff
        MOV     R3,#(ZDApp_epDesc >> 8) & 0xff
        LCALL   ??afRegister?relay
//  313 
//  314 #if defined( ZDO_USERDESC_RESPONSE )
//  315   ZDApp_InitUserDesc();
        ; Setup parameters for call to function ZDApp_InitUserDesc
        LCALL   ??ZDApp_InitUserDesc?relay
//  316 #endif // ZDO_USERDESC_RESPONSE
//  317 
//  318   // Start the device?
//  319   if ( devState != DEV_HOLD )
        MOV     DPTR,#devState
        MOVX    A,@DPTR
        JZ      ??ZDApp_Init_0
//  320   {
//  321     ZDOInitDevice( 0 );
        ; Setup parameters for call to function ZDOInitDevice
        MOV     R2,#0x0
        MOV     R3,#0x0
        LCALL   ??ZDOInitDevice?relay
        SJMP    ??ZDApp_Init_1
//  322   }
//  323   else
//  324   {
//  325     ZDOInitDevice( ZDO_INIT_HOLD_NWK_START );
??ZDApp_Init_0:
        ; Setup parameters for call to function ZDOInitDevice
        MOV     R2,#-0x1
        MOV     R3,#-0x1
        LCALL   ??ZDOInitDevice?relay
//  326     // Blink LED to indicate HOLD_START
//  327     HalLedBlink ( HAL_LED_4, 0, 50, 500 );
        ; Setup parameters for call to function HalLedBlink
        MOV     R4,#-0xc
        MOV     R5,#0x1
        MOV     R3,#0x32
        MOV     R2,#0x0
        MOV     R1,#0x8
        LCALL   ??HalLedBlink?relay
//  328   }
//  329 
//  330   // Initialize the ZDO callback function pointers zdoCBFunc[]
//  331   ZDApp_InitZdoCBFunc();
??ZDApp_Init_1:
        ; Setup parameters for call to function ZDApp_InitZdoCBFunc
        LCALL   ??ZDApp_InitZdoCBFunc?relay
//  332 
//  333   ZDApp_RegisterCBs();
        ; Setup parameters for call to function ZDApp_RegisterCBs
        LCALL   ??ZDApp_RegisterCBs?relay
//  334 
//  335 #if !defined ( ZDP_BIND_SKIP_VALIDATION )
//  336 #if defined ( REFLECTOR )
//  337   ZDApp_InitPendingBind();
        ; Setup parameters for call to function ZDApp_InitPendingBind
        LCALL   ??ZDApp_InitPendingBind?relay
//  338 #endif
//  339 #endif
//  340 } /* ZDApp_Init() */
        LJMP    ??Subroutine44_0 & 0xFFFF
          CFI EndBlock cfiBlock0
//  341 
//  342 /*********************************************************************
//  343  * @fn          ZDApp_SecInit
//  344  *
//  345  * @brief       ZDApp initialize security.
//  346  *
//  347  * @param       state - device initialization state
//  348  *
//  349  * @return      none
//  350  */

        RSEG BANKED_CODE:CODE:NOROOT(0)
//  351 void ZDApp_SecInit( uint8 state )
ZDApp_SecInit:
          CFI Block cfiBlock1 Using cfiCommon0
          CFI Function ZDApp_SecInit
        CODE
//  352 {
        FUNCALL ZDApp_SecInit, ZDSecMgrInit
        LOCFRAME ISTACK, 0, STACK
        LOCFRAME PSTACK, 0, STACK
        LOCFRAME XSTACK, 25, STACK
        LOCFRAME IOVERLAY, 0, STATIC
        LOCFRAME DOVERLAY, 0, STATIC
        ARGFRAME ISTACK, 0, STACK
        ARGFRAME PSTACK, 0, STACK
        ARGFRAME XSTACK, 25, STACK
        ARGFRAME IOVERLAY, 0, STATIC
        ARGFRAME DOVERLAY, 0, STATIC
        FUNCALL ZDApp_SecInit, ZDSecMgrReadKeyFromNv
        LOCFRAME ISTACK, 0, STACK
        LOCFRAME PSTACK, 0, STACK
        LOCFRAME XSTACK, 25, STACK
        LOCFRAME IOVERLAY, 0, STATIC
        LOCFRAME DOVERLAY, 0, STATIC
        ARGFRAME ISTACK, 0, STACK
        ARGFRAME PSTACK, 0, STACK
        ARGFRAME XSTACK, 25, STACK
        ARGFRAME IOVERLAY, 0, STATIC
        ARGFRAME DOVERLAY, 0, STATIC
        FUNCALL ZDApp_SecInit, SSP_UpdateNwkKey
        LOCFRAME ISTACK, 0, STACK
        LOCFRAME PSTACK, 0, STACK
        LOCFRAME XSTACK, 25, STACK
        LOCFRAME IOVERLAY, 0, STATIC
        LOCFRAME DOVERLAY, 0, STATIC
        ARGFRAME ISTACK, 0, STACK
        ARGFRAME PSTACK, 0, STACK
        ARGFRAME XSTACK, 25, STACK
        ARGFRAME IOVERLAY, 0, STATIC
        ARGFRAME DOVERLAY, 0, STATIC
        FUNCALL ZDApp_SecInit, SSP_SwitchNwkKey
        LOCFRAME ISTACK, 0, STACK
        LOCFRAME PSTACK, 0, STACK
        LOCFRAME XSTACK, 25, STACK
        LOCFRAME IOVERLAY, 0, STATIC
        LOCFRAME DOVERLAY, 0, STATIC
        ARGFRAME ISTACK, 0, STACK
        ARGFRAME PSTACK, 0, STACK
        ARGFRAME XSTACK, 25, STACK
        ARGFRAME IOVERLAY, 0, STATIC
        ARGFRAME DOVERLAY, 0, STATIC
        FUNCALL ZDApp_SecInit, osal_memset
        LOCFRAME ISTACK, 0, STACK
        LOCFRAME PSTACK, 0, STACK
        LOCFRAME XSTACK, 25, STACK
        LOCFRAME IOVERLAY, 0, STATIC
        LOCFRAME DOVERLAY, 0, STATIC
        ARGFRAME ISTACK, 0, STACK
        ARGFRAME PSTACK, 0, STACK
        ARGFRAME XSTACK, 25, STACK
        ARGFRAME IOVERLAY, 0, STATIC
        ARGFRAME DOVERLAY, 0, STATIC
        FUNCALL ZDApp_SecInit, osal_mem_free
        LOCFRAME ISTACK, 0, STACK
        LOCFRAME PSTACK, 0, STACK
        LOCFRAME XSTACK, 25, STACK
        LOCFRAME IOVERLAY, 0, STATIC
        LOCFRAME DOVERLAY, 0, STATIC
        ARGFRAME ISTACK, 0, STACK
        ARGFRAME PSTACK, 0, STACK
        ARGFRAME XSTACK, 25, STACK
        ARGFRAME IOVERLAY, 0, STATIC
        ARGFRAME DOVERLAY, 0, STATIC
        MOV     A,#-0x9
        LCALL   ?BANKED_ENTER_XDATA
          CFI DPH0 load(1, XDATA, add(CFA_XSP16, literal(-1)))
          CFI DPL0 load(1, XDATA, add(CFA_XSP16, literal(-2)))
          CFI ?BRET_EXT load(1, XDATA, add(CFA_XSP16, literal(-3)))
          CFI ?RET_HIGH load(1, XDATA, add(CFA_XSP16, literal(-4)))
          CFI ?RET_LOW load(1, XDATA, add(CFA_XSP16, literal(-5)))
          CFI R7 load(1, XDATA, add(CFA_XSP16, literal(-6)))
          CFI V0 load(1, XDATA, add(CFA_XSP16, literal(-7)))
          CFI VB load(1, XDATA, add(CFA_XSP16, literal(-8)))
          CFI R6 load(1, XDATA, add(CFA_XSP16, literal(-9)))
          CFI CFA_SP SP+0
          CFI CFA_XSP16 add(XSP16, 9)
        ; Saved register size: 9
        ; Auto size: 16
        MOV     A,#-0x10
        LCALL   ?ALLOC_XSTACK8
          CFI CFA_XSP16 add(XSP16, 25)
        MOV     ?V0 + 0,R1
//  353   uint8 zgPreConfigKey[SEC_KEY_LEN];
//  354 
//  355   if ( ZG_SECURE_ENABLED && ZG_BUILD_COORDINATOR_TYPE && ZG_DEVICE_COORDINATOR_TYPE )
//  356   {
//  357     // Set the Trust Center bit
//  358     ZDO_Config_Node_Descriptor.ServerMask |= PRIM_TRUST_CENTER;
//  359   }
//  360 
//  361   // Initialize ZigBee Device Security Manager
//  362   ZDSecMgrInit(state);
        ; Setup parameters for call to function ZDSecMgrInit
        LCALL   ??ZDSecMgrInit?relay
//  363 
//  364   if ( ZG_SECURE_ENABLED )
//  365   {
//  366     if ( state != ZDO_INITDEV_RESTORED_NETWORK_STATE )
        MOV     A,?V0 + 0
        JZ      ??ZDApp_SecInit_0
//  367     {
//  368       nwkFrameCounter = 0;
        MOV     DPTR,#nwkFrameCounter
        CLR     A
        MOVX    @DPTR,A
        INC     DPTR
        MOVX    @DPTR,A
        INC     DPTR
        MOVX    @DPTR,A
        INC     DPTR
        MOVX    @DPTR,A
//  369 
//  370       if( _NIB.nwkKeyLoaded == FALSE )
        MOV     DPTR,#_NIB + 61
        MOVX    A,@DPTR
        JNZ     ??ZDApp_SecInit_0
//  371       {
//  372         if ( ( ZG_BUILD_COORDINATOR_TYPE && ZG_DEVICE_COORDINATOR_TYPE          ) ||
//  373              ( ( zgSecurityMode == ZG_SECURITY_RESIDENTIAL ) && zgPreConfigKeys )    )
        MOV     DPTR,#zgSecurityMode
        MOVX    A,@DPTR
        XRL     A,#0x1
        JNZ     ??ZDApp_SecInit_0
        MOV     DPTR,#zgPreConfigKeys
        MOVX    A,@DPTR
        JZ      ??ZDApp_SecInit_0
//  374         {
//  375             ZDSecMgrReadKeyFromNv(ZCD_NV_PRECFGKEY, zgPreConfigKey);
        ; Setup parameters for call to function ZDSecMgrReadKeyFromNv
        MOV     DPL,?XSP + 0
        MOV     DPH,?XSP + 1
        MOV     R4,DPL
        MOV     R5,DPH
        MOV     R2,#0x62
        MOV     R3,#0x0
        LCALL   ??ZDSecMgrReadKeyFromNv?relay
//  376             SSP_UpdateNwkKey( zgPreConfigKey, 0);
        ; Setup parameters for call to function SSP_UpdateNwkKey
        MOV     R1,#0x0
        MOV     DPL,?XSP + 0
        MOV     DPH,?XSP + 1
        MOV     R2,DPL
        MOV     R3,DPH
        LCALL   ??SSP_UpdateNwkKey?relay
//  377             SSP_SwitchNwkKey( 0 );
        ; Setup parameters for call to function SSP_SwitchNwkKey
        MOV     R1,#0x0
        LCALL   ??SSP_SwitchNwkKey?relay
//  378 
//  379             // clear local copy of key
//  380             osal_memset(zgPreConfigKey, 0x00, SEC_KEY_LEN);
        ; Setup parameters for call to function osal_memset
        MOV     R4,#0x10
        MOV     R5,#0x0
        MOV     R1,#0x0
        MOV     DPL,?XSP + 0
        MOV     DPH,?XSP + 1
        MOV     R2,DPL
        MOV     R3,DPH
        LCALL   ??osal_memset?relay
//  381         }
//  382       }
//  383     }
//  384 
//  385     // clean the new devices list when Security module is initialized
//  386     if ( ZDApp_NewDeviceList != NULL )
??ZDApp_SecInit_0:
        MOV     DPTR,#ZDApp_NewDeviceList
        LCALL   ??Subroutine43_0 & 0xFFFF
??CrossCallReturnLabel_59:
        JZ      ??ZDApp_SecInit_1
//  387     {
//  388       ZDAppNewDevice_t *pNewDeviceNext;
//  389 
//  390       while ( ZDApp_NewDeviceList )
//  391       {
//  392         pNewDeviceNext = (ZDAppNewDevice_t *) ZDApp_NewDeviceList->next;
??ZDApp_SecInit_2:
        LCALL   ?Subroutine18 & 0xFFFF
??CrossCallReturnLabel_36:
        MOV     R6,A
        INC     DPTR
        MOVX    A,@DPTR
        MOV     R7,A
//  393         osal_mem_free( ZDApp_NewDeviceList );
        ; Setup parameters for call to function osal_mem_free
        MOV     DPTR,#ZDApp_NewDeviceList
        LCALL   ??Subroutine42_0 & 0xFFFF
??CrossCallReturnLabel_47:
        LCALL   ??osal_mem_free?relay
//  394         ZDApp_NewDeviceList = pNewDeviceNext;
        MOV     A,R6
        MOV     R0,A
        MOV     A,R7
        MOV     R1,A
        MOV     DPTR,#ZDApp_NewDeviceList
        MOV     A,R0
        MOVX    @DPTR,A
        INC     DPTR
        MOV     A,R1
        MOVX    @DPTR,A
//  395       }
        MOV     A,R0
        ORL     A,R1
        JNZ     ??ZDApp_SecInit_2
//  396     }
//  397   }
//  398 }
??ZDApp_SecInit_1:
        MOV     A,#0x10
        LJMP    ??Subroutine48_0 & 0xFFFF
          CFI EndBlock cfiBlock1

        RSEG BANKED_CODE:CODE:NOROOT(0)
?Subroutine18:
          CFI Block cfiCond2 Using cfiCommon0
          CFI Function ZDApp_SecInit
          CFI Conditional ??CrossCallReturnLabel_36
          CFI R6 load(1, XDATA, add(CFA_XSP16, literal(-9)))
          CFI VB load(1, XDATA, add(CFA_XSP16, literal(-8)))
          CFI V0 load(1, XDATA, add(CFA_XSP16, literal(-7)))
          CFI R7 load(1, XDATA, add(CFA_XSP16, literal(-6)))
          CFI ?RET_LOW load(1, XDATA, add(CFA_XSP16, literal(-5)))
          CFI ?RET_HIGH load(1, XDATA, add(CFA_XSP16, literal(-4)))
          CFI ?BRET_EXT load(1, XDATA, add(CFA_XSP16, literal(-3)))
          CFI DPL0 load(1, XDATA, add(CFA_XSP16, literal(-2)))
          CFI DPH0 load(1, XDATA, add(CFA_XSP16, literal(-1)))
          CFI CFA_SP SP+0
          CFI CFA_XSP16 add(XSP16, 25)
          CFI Block cfiCond3 Using cfiCommon0
          CFI (cfiCond3) Function ZDApp_ProcessSecEvent
          CFI (cfiCond3) Conditional ??CrossCallReturnLabel_37
          CFI (cfiCond3) R6 load(1, XDATA, add(CFA_XSP16, literal(-16)))
          CFI (cfiCond3) VB load(1, XDATA, add(CFA_XSP16, literal(-15)))
          CFI (cfiCond3) V0 load(1, XDATA, add(CFA_XSP16, literal(-14)))
          CFI (cfiCond3) V1 load(1, XDATA, add(CFA_XSP16, literal(-13)))
          CFI (cfiCond3) V2 load(1, XDATA, add(CFA_XSP16, literal(-12)))
          CFI (cfiCond3) V3 load(1, XDATA, add(CFA_XSP16, literal(-11)))
          CFI (cfiCond3) V4 load(1, XDATA, add(CFA_XSP16, literal(-10)))
          CFI (cfiCond3) V5 load(1, XDATA, add(CFA_XSP16, literal(-9)))
          CFI (cfiCond3) V6 load(1, XDATA, add(CFA_XSP16, literal(-8)))
          CFI (cfiCond3) V7 load(1, XDATA, add(CFA_XSP16, literal(-7)))
          CFI (cfiCond3) R7 load(1, XDATA, add(CFA_XSP16, literal(-6)))
          CFI (cfiCond3) ?RET_LOW load(1, XDATA, add(CFA_XSP16, literal(-5)))
          CFI (cfiCond3) ?RET_HIGH load(1, XDATA, add(CFA_XSP16, literal(-4)))
          CFI (cfiCond3) ?BRET_EXT load(1, XDATA, add(CFA_XSP16, literal(-3)))
          CFI (cfiCond3) DPL0 load(1, XDATA, add(CFA_XSP16, literal(-2)))
          CFI (cfiCond3) DPH0 load(1, XDATA, add(CFA_XSP16, literal(-1)))
          CFI (cfiCond3) CFA_SP SP+0
          CFI (cfiCond3) CFA_XSP16 add(XSP16, 16)
          CFI Block cfiPicker4 Using cfiCommon1
          CFI (cfiPicker4) NoFunction
          CFI (cfiPicker4) Picker
        MOV     DPTR,#ZDApp_NewDeviceList
          CFI EndBlock cfiCond2
          CFI EndBlock cfiCond3
          CFI EndBlock cfiPicker4
        REQUIRE ??Subroutine35_0
        ; // Fall through to label ??Subroutine35_0

        RSEG BANKED_CODE:CODE:NOROOT(0)
??Subroutine35_0:
          CFI Block cfiCond5 Using cfiCommon0
          CFI Function ZDO_AddrChangeIndicationCB
          CFI Conditional ??CrossCallReturnLabel_34
          CFI R6 load(1, XDATA, add(CFA_XSP16, literal(-14)))
          CFI VB load(1, XDATA, add(CFA_XSP16, literal(-13)))
          CFI V0 load(1, XDATA, add(CFA_XSP16, literal(-12)))
          CFI V1 load(1, XDATA, add(CFA_XSP16, literal(-11)))
          CFI V2 load(1, XDATA, add(CFA_XSP16, literal(-10)))
          CFI V3 load(1, XDATA, add(CFA_XSP16, literal(-9)))
          CFI V4 load(1, XDATA, add(CFA_XSP16, literal(-8)))
          CFI V5 load(1, XDATA, add(CFA_XSP16, literal(-7)))
          CFI R7 load(1, XDATA, add(CFA_XSP16, literal(-6)))
          CFI ?RET_LOW load(1, XDATA, add(CFA_XSP16, literal(-5)))
          CFI ?RET_HIGH load(1, XDATA, add(CFA_XSP16, literal(-4)))
          CFI ?BRET_EXT load(1, XDATA, add(CFA_XSP16, literal(-3)))
          CFI DPL0 load(1, XDATA, add(CFA_XSP16, literal(-2)))
          CFI DPH0 load(1, XDATA, add(CFA_XSP16, literal(-1)))
          CFI CFA_SP SP+0
          CFI CFA_XSP16 add(XSP16, 14)
          CFI Block cfiCond6 Using cfiCommon0
          CFI (cfiCond6) Function ZDO_AddrChangeIndicationCB
          CFI (cfiCond6) Conditional ??CrossCallReturnLabel_35
          CFI (cfiCond6) R6 load(1, XDATA, add(CFA_XSP16, literal(-14)))
          CFI (cfiCond6) VB load(1, XDATA, add(CFA_XSP16, literal(-13)))
          CFI (cfiCond6) V0 load(1, XDATA, add(CFA_XSP16, literal(-12)))
          CFI (cfiCond6) V1 load(1, XDATA, add(CFA_XSP16, literal(-11)))
          CFI (cfiCond6) V2 load(1, XDATA, add(CFA_XSP16, literal(-10)))
          CFI (cfiCond6) V3 load(1, XDATA, add(CFA_XSP16, literal(-9)))
          CFI (cfiCond6) V4 load(1, XDATA, add(CFA_XSP16, literal(-8)))
          CFI (cfiCond6) V5 load(1, XDATA, add(CFA_XSP16, literal(-7)))
          CFI (cfiCond6) R7 load(1, XDATA, add(CFA_XSP16, literal(-6)))
          CFI (cfiCond6) ?RET_LOW load(1, XDATA, add(CFA_XSP16, literal(-5)))
          CFI (cfiCond6) ?RET_HIGH load(1, XDATA, add(CFA_XSP16, literal(-4)))
          CFI (cfiCond6) ?BRET_EXT load(1, XDATA, add(CFA_XSP16, literal(-3)))
          CFI (cfiCond6) DPL0 load(1, XDATA, add(CFA_XSP16, literal(-2)))
          CFI (cfiCond6) DPH0 load(1, XDATA, add(CFA_XSP16, literal(-1)))
          CFI (cfiCond6) CFA_SP SP+0
          CFI (cfiCond6) CFA_XSP16 add(XSP16, 14)
          CFI Block cfiCond7 Using cfiCommon0
          CFI (cfiCond7) Function ZDApp_SecInit
          CFI (cfiCond7) Conditional ??CrossCallReturnLabel_36
          CFI (cfiCond7) R6 load(1, XDATA, add(CFA_XSP16, literal(-9)))
          CFI (cfiCond7) VB load(1, XDATA, add(CFA_XSP16, literal(-8)))
          CFI (cfiCond7) V0 load(1, XDATA, add(CFA_XSP16, literal(-7)))
          CFI (cfiCond7) R7 load(1, XDATA, add(CFA_XSP16, literal(-6)))
          CFI (cfiCond7) ?RET_LOW load(1, XDATA, add(CFA_XSP16, literal(-5)))
          CFI (cfiCond7) ?RET_HIGH load(1, XDATA, add(CFA_XSP16, literal(-4)))
          CFI (cfiCond7) ?BRET_EXT load(1, XDATA, add(CFA_XSP16, literal(-3)))
          CFI (cfiCond7) DPL0 load(1, XDATA, add(CFA_XSP16, literal(-2)))
          CFI (cfiCond7) DPH0 load(1, XDATA, add(CFA_XSP16, literal(-1)))
          CFI (cfiCond7) CFA_SP SP+0
          CFI (cfiCond7) CFA_XSP16 add(XSP16, 25)
          CFI Block cfiCond8 Using cfiCommon0
          CFI (cfiCond8) Function ZDApp_ProcessSecEvent
          CFI (cfiCond8) Conditional ??CrossCallReturnLabel_37
          CFI (cfiCond8) R6 load(1, XDATA, add(CFA_XSP16, literal(-16)))
          CFI (cfiCond8) VB load(1, XDATA, add(CFA_XSP16, literal(-15)))
          CFI (cfiCond8) V0 load(1, XDATA, add(CFA_XSP16, literal(-14)))
          CFI (cfiCond8) V1 load(1, XDATA, add(CFA_XSP16, literal(-13)))
          CFI (cfiCond8) V2 load(1, XDATA, add(CFA_XSP16, literal(-12)))
          CFI (cfiCond8) V3 load(1, XDATA, add(CFA_XSP16, literal(-11)))
          CFI (cfiCond8) V4 load(1, XDATA, add(CFA_XSP16, literal(-10)))
          CFI (cfiCond8) V5 load(1, XDATA, add(CFA_XSP16, literal(-9)))
          CFI (cfiCond8) V6 load(1, XDATA, add(CFA_XSP16, literal(-8)))
          CFI (cfiCond8) V7 load(1, XDATA, add(CFA_XSP16, literal(-7)))
          CFI (cfiCond8) R7 load(1, XDATA, add(CFA_XSP16, literal(-6)))
          CFI (cfiCond8) ?RET_LOW load(1, XDATA, add(CFA_XSP16, literal(-5)))
          CFI (cfiCond8) ?RET_HIGH load(1, XDATA, add(CFA_XSP16, literal(-4)))
          CFI (cfiCond8) ?BRET_EXT load(1, XDATA, add(CFA_XSP16, literal(-3)))
          CFI (cfiCond8) DPL0 load(1, XDATA, add(CFA_XSP16, literal(-2)))
          CFI (cfiCond8) DPH0 load(1, XDATA, add(CFA_XSP16, literal(-1)))
          CFI (cfiCond8) CFA_SP SP+0
          CFI (cfiCond8) CFA_XSP16 add(XSP16, 16)
          CFI Block cfiPicker9 Using cfiCommon1
          CFI (cfiPicker9) NoFunction
          CFI (cfiPicker9) Picker
        MOVX    A,@DPTR
        MOV     R0,A
        INC     DPTR
        MOVX    A,@DPTR
        MOV     DPH,A
        MOV     DPL,R0
        MOVX    A,@DPTR
        RET
          CFI EndBlock cfiCond5
          CFI EndBlock cfiCond6
          CFI EndBlock cfiCond7
          CFI EndBlock cfiCond8
          CFI EndBlock cfiPicker9
//  399 
//  400 /*********************************************************************
//  401  * @fn      ZDApp_event_loop()
//  402  *
//  403  * @brief   Main event loop for Zigbee device objects task. This function
//  404  *          should be called at periodic intervals.
//  405  *
//  406  * @param   task_id - Task ID
//  407  * @param   events  - Bitmap of events
//  408  *
//  409  * @return  none
//  410  */

        RSEG BANKED_CODE:CODE:NOROOT(0)
//  411 UINT16 ZDApp_event_loop( uint8 task_id, UINT16 events )
ZDApp_event_loop:
          CFI Block cfiBlock10 Using cfiCommon0
          CFI Function ZDApp_event_loop
        CODE
//  412 {
        FUNCALL ZDApp_event_loop, osal_set_event
        LOCFRAME ISTACK, 0, STACK
        LOCFRAME PSTACK, 0, STACK
        LOCFRAME XSTACK, 14, STACK
        LOCFRAME IOVERLAY, 0, STATIC
        LOCFRAME DOVERLAY, 0, STATIC
        ARGFRAME ISTACK, 0, STACK
        ARGFRAME PSTACK, 0, STACK
        ARGFRAME XSTACK, 14, STACK
        ARGFRAME IOVERLAY, 0, STATIC
        ARGFRAME DOVERLAY, 0, STATIC
        FUNCALL ZDApp_event_loop, ZDO_StartDevice
        LOCFRAME ISTACK, 0, STACK
        LOCFRAME PSTACK, 0, STACK
        LOCFRAME XSTACK, 14, STACK
        LOCFRAME IOVERLAY, 0, STATIC
        LOCFRAME DOVERLAY, 0, STATIC
        ARGFRAME ISTACK, 0, STACK
        ARGFRAME PSTACK, 0, STACK
        ARGFRAME XSTACK, 14, STACK
        ARGFRAME IOVERLAY, 0, STATIC
        ARGFRAME DOVERLAY, 0, STATIC
        FUNCALL ZDApp_event_loop, ZDApp_ProcessOSALMsg
        LOCFRAME ISTACK, 0, STACK
        LOCFRAME PSTACK, 0, STACK
        LOCFRAME XSTACK, 14, STACK
        LOCFRAME IOVERLAY, 0, STATIC
        LOCFRAME DOVERLAY, 0, STATIC
        ARGFRAME ISTACK, 0, STACK
        ARGFRAME PSTACK, 0, STACK
        ARGFRAME XSTACK, 14, STACK
        ARGFRAME IOVERLAY, 0, STATIC
        ARGFRAME DOVERLAY, 0, STATIC
        FUNCALL ZDApp_event_loop, osal_msg_deallocate
        LOCFRAME ISTACK, 0, STACK
        LOCFRAME PSTACK, 0, STACK
        LOCFRAME XSTACK, 14, STACK
        LOCFRAME IOVERLAY, 0, STATIC
        LOCFRAME DOVERLAY, 0, STATIC
        ARGFRAME ISTACK, 0, STACK
        ARGFRAME PSTACK, 0, STACK
        ARGFRAME XSTACK, 14, STACK
        ARGFRAME IOVERLAY, 0, STATIC
        ARGFRAME DOVERLAY, 0, STATIC
        FUNCALL ZDApp_event_loop, osal_msg_receive
        LOCFRAME ISTACK, 0, STACK
        LOCFRAME PSTACK, 0, STACK
        LOCFRAME XSTACK, 14, STACK
        LOCFRAME IOVERLAY, 0, STATIC
        LOCFRAME DOVERLAY, 0, STATIC
        ARGFRAME ISTACK, 0, STACK
        ARGFRAME PSTACK, 0, STACK
        ARGFRAME XSTACK, 14, STACK
        ARGFRAME IOVERLAY, 0, STATIC
        ARGFRAME DOVERLAY, 0, STATIC
        FUNCALL ZDApp_event_loop, ZDApp_NetworkStartEvt
        LOCFRAME ISTACK, 0, STACK
        LOCFRAME PSTACK, 0, STACK
        LOCFRAME XSTACK, 14, STACK
        LOCFRAME IOVERLAY, 0, STATIC
        LOCFRAME DOVERLAY, 0, STATIC
        ARGFRAME ISTACK, 0, STACK
        ARGFRAME PSTACK, 0, STACK
        ARGFRAME XSTACK, 14, STACK
        ARGFRAME IOVERLAY, 0, STATIC
        ARGFRAME DOVERLAY, 0, STATIC
        FUNCALL ZDApp_event_loop, osal_pwrmgr_device
        LOCFRAME ISTACK, 0, STACK
        LOCFRAME PSTACK, 0, STACK
        LOCFRAME XSTACK, 14, STACK
        LOCFRAME IOVERLAY, 0, STATIC
        LOCFRAME DOVERLAY, 0, STATIC
        ARGFRAME ISTACK, 0, STACK
        ARGFRAME PSTACK, 0, STACK
        ARGFRAME XSTACK, 14, STACK
        ARGFRAME IOVERLAY, 0, STATIC
        ARGFRAME DOVERLAY, 0, STATIC
        FUNCALL ZDApp_event_loop, osal_set_event
        LOCFRAME ISTACK, 0, STACK
        LOCFRAME PSTACK, 0, STACK
        LOCFRAME XSTACK, 14, STACK
        LOCFRAME IOVERLAY, 0, STATIC
        LOCFRAME DOVERLAY, 0, STATIC
        ARGFRAME ISTACK, 0, STACK
        ARGFRAME PSTACK, 0, STACK
        ARGFRAME XSTACK, 14, STACK
        ARGFRAME IOVERLAY, 0, STATIC
        ARGFRAME DOVERLAY, 0, STATIC
        FUNCALL ZDApp_event_loop, ZDO_UpdateNwkStatus
        LOCFRAME ISTACK, 0, STACK
        LOCFRAME PSTACK, 0, STACK
        LOCFRAME XSTACK, 14, STACK
        LOCFRAME IOVERLAY, 0, STATIC
        LOCFRAME DOVERLAY, 0, STATIC
        ARGFRAME ISTACK, 0, STACK
        ARGFRAME PSTACK, 0, STACK
        ARGFRAME XSTACK, 14, STACK
        ARGFRAME IOVERLAY, 0, STATIC
        ARGFRAME DOVERLAY, 0, STATIC
        FUNCALL ZDApp_event_loop, osal_start_timerEx
        LOCFRAME ISTACK, 0, STACK
        LOCFRAME PSTACK, 0, STACK
        LOCFRAME XSTACK, 18, STACK
        LOCFRAME IOVERLAY, 0, STATIC
        LOCFRAME DOVERLAY, 0, STATIC
        ARGFRAME ISTACK, 0, STACK
        ARGFRAME PSTACK, 0, STACK
        ARGFRAME XSTACK, 18, STACK
        ARGFRAME IOVERLAY, 0, STATIC
        ARGFRAME DOVERLAY, 0, STATIC
        FUNCALL ZDApp_event_loop, ZDApp_SaveNetworkStateEvt
        LOCFRAME ISTACK, 0, STACK
        LOCFRAME PSTACK, 0, STACK
        LOCFRAME XSTACK, 14, STACK
        LOCFRAME IOVERLAY, 0, STATIC
        LOCFRAME DOVERLAY, 0, STATIC
        ARGFRAME ISTACK, 0, STACK
        ARGFRAME PSTACK, 0, STACK
        ARGFRAME XSTACK, 14, STACK
        ARGFRAME IOVERLAY, 0, STATIC
        ARGFRAME DOVERLAY, 0, STATIC
        FUNCALL ZDApp_event_loop, zgWriteStartupOptions
        LOCFRAME ISTACK, 0, STACK
        LOCFRAME PSTACK, 0, STACK
        LOCFRAME XSTACK, 14, STACK
        LOCFRAME IOVERLAY, 0, STATIC
        LOCFRAME DOVERLAY, 0, STATIC
        ARGFRAME ISTACK, 0, STACK
        ARGFRAME PSTACK, 0, STACK
        ARGFRAME XSTACK, 14, STACK
        ARGFRAME IOVERLAY, 0, STATIC
        ARGFRAME DOVERLAY, 0, STATIC
        FUNCALL ZDApp_event_loop, Onboard_soft_reset
        LOCFRAME ISTACK, 0, STACK
        LOCFRAME PSTACK, 0, STACK
        LOCFRAME XSTACK, 14, STACK
        LOCFRAME IOVERLAY, 0, STATIC
        LOCFRAME DOVERLAY, 0, STATIC
        ARGFRAME ISTACK, 0, STACK
        ARGFRAME PSTACK, 0, STACK
        ARGFRAME XSTACK, 14, STACK
        ARGFRAME IOVERLAY, 0, STATIC
        ARGFRAME DOVERLAY, 0, STATIC
        FUNCALL ZDApp_event_loop, ZDApp_AgeOutPendingBindEntry
        LOCFRAME ISTACK, 0, STACK
        LOCFRAME PSTACK, 0, STACK
        LOCFRAME XSTACK, 14, STACK
        LOCFRAME IOVERLAY, 0, STATIC
        LOCFRAME DOVERLAY, 0, STATIC
        ARGFRAME ISTACK, 0, STACK
        ARGFRAME PSTACK, 0, STACK
        ARGFRAME XSTACK, 14, STACK
        ARGFRAME IOVERLAY, 0, STATIC
        ARGFRAME DOVERLAY, 0, STATIC
        FUNCALL ZDApp_event_loop, ZDApp_ProcessSecEvent
        LOCFRAME ISTACK, 0, STACK
        LOCFRAME PSTACK, 0, STACK
        LOCFRAME XSTACK, 14, STACK
        LOCFRAME IOVERLAY, 0, STATIC
        LOCFRAME DOVERLAY, 0, STATIC
        ARGFRAME ISTACK, 0, STACK
        ARGFRAME PSTACK, 0, STACK
        ARGFRAME XSTACK, 14, STACK
        ARGFRAME IOVERLAY, 0, STATIC
        ARGFRAME DOVERLAY, 0, STATIC
        MOV     A,#-0xe
        LCALL   ?BANKED_ENTER_XDATA
          CFI DPH0 load(1, XDATA, add(CFA_XSP16, literal(-1)))
          CFI DPL0 load(1, XDATA, add(CFA_XSP16, literal(-2)))
          CFI ?BRET_EXT load(1, XDATA, add(CFA_XSP16, literal(-3)))
          CFI ?RET_HIGH load(1, XDATA, add(CFA_XSP16, literal(-4)))
          CFI ?RET_LOW load(1, XDATA, add(CFA_XSP16, literal(-5)))
          CFI R7 load(1, XDATA, add(CFA_XSP16, literal(-6)))
          CFI V5 load(1, XDATA, add(CFA_XSP16, literal(-7)))
          CFI V4 load(1, XDATA, add(CFA_XSP16, literal(-8)))
          CFI V3 load(1, XDATA, add(CFA_XSP16, literal(-9)))
          CFI V2 load(1, XDATA, add(CFA_XSP16, literal(-10)))
          CFI V1 load(1, XDATA, add(CFA_XSP16, literal(-11)))
          CFI V0 load(1, XDATA, add(CFA_XSP16, literal(-12)))
          CFI VB load(1, XDATA, add(CFA_XSP16, literal(-13)))
          CFI R6 load(1, XDATA, add(CFA_XSP16, literal(-14)))
          CFI CFA_SP SP+0
          CFI CFA_XSP16 add(XSP16, 14)
        ; Saved register size: 14
        ; Auto size: 0
        MOV     ?V0 + 2,R1
        MOV     A,R2
        MOV     R6,A
        MOV     A,R3
        MOV     R7,A
//  413   uint8 *msg_ptr;
//  414 
//  415   if ( events & SYS_EVENT_MSG )
        ANL     A,#0x80
        JNZ     ??ZDApp_event_loop_0
//  416   {
//  417     while ( (msg_ptr = osal_msg_receive( ZDAppTaskID )) )
//  418     {
//  419       ZDApp_ProcessOSALMsg( (osal_event_hdr_t *)msg_ptr );
//  420 
//  421       // Release the memory
//  422       osal_msg_deallocate( msg_ptr );
//  423     }
//  424 
//  425     // Return unprocessed events
//  426     return (events ^ SYS_EVENT_MSG);
//  427   }
//  428 
//  429   if ( events & ZDO_NETWORK_INIT )
        MOV     A,R6
        MOV     C,0xE0 /* A   */.0
        JNC     ??ZDApp_event_loop_1
//  430   {
//  431     // Initialize apps and start the network
//  432     devState = DEV_INIT;
        MOV     DPTR,#devState
        MOV     A,#0x1
        LCALL   ??Subroutine37_0 & 0xFFFF
//  433     osal_set_event( ZDAppTaskID, ZDO_STATE_CHANGE_EVT );
??CrossCallReturnLabel_40:
        LCALL   ??osal_set_event?relay
//  434 
//  435     ZDO_StartDevice( (uint8)ZDO_Config_Node_Descriptor.LogicalType, devStartMode,
//  436                      DEFAULT_BEACON_ORDER, DEFAULT_SUPERFRAME_ORDER );
        ; Setup parameters for call to function ZDO_StartDevice
        MOV     R4,#0xf
        MOV     R3,#0xf
        MOV     DPTR,#devStartMode
        MOVX    A,@DPTR
        MOV     R2,A
        MOV     DPTR,#ZDO_Config_Node_Descriptor
        MOVX    A,@DPTR
        ANL     A,#0x7
        MOV     R1,A
        LCALL   ??ZDO_StartDevice?relay
//  437 
//  438     // Return unprocessed events
//  439     return (events ^ ZDO_NETWORK_INIT);
        MOV     A,R6
        XRL     A,#0x1
        LJMP    ??ZDApp_event_loop_2 & 0xFFFF
//  440   }
??ZDApp_event_loop_3:
        ; Setup parameters for call to function ZDApp_ProcessOSALMsg
        LCALL   ??ZDApp_ProcessOSALMsg?relay
        ; Setup parameters for call to function osal_msg_deallocate
        MOV     R2,?V0 + 0
        MOV     R3,?V0 + 1
        LCALL   ??osal_msg_deallocate?relay
??ZDApp_event_loop_0:
        ; Setup parameters for call to function osal_msg_receive
        MOV     DPTR,#ZDAppTaskID
        MOVX    A,@DPTR
        MOV     R1,A
        LCALL   ??osal_msg_receive?relay
        MOV     ?V0 + 0,R2
        MOV     ?V0 + 1,R3
        MOV     A,R2
        ORL     A,?V0 + 1
        JNZ     ??ZDApp_event_loop_3
        MOV     A,R6
        MOV     R2,A
        MOV     A,R7
        XRL     A,#0x80
        LJMP    ??ZDApp_event_loop_4 & 0xFFFF
//  441 
//  442   if ( ZSTACK_ROUTER_BUILD )
//  443   {
//  444     if ( events & ZDO_NETWORK_START )
??ZDApp_event_loop_1:
        ANL     A,#0x2
        JZ      ??ZDApp_event_loop_5
//  445     {
//  446       ZDApp_NetworkStartEvt();
        ; Setup parameters for call to function ZDApp_NetworkStartEvt
        LCALL   ??ZDApp_NetworkStartEvt?relay
//  447 
//  448       // Return unprocessed events
//  449       return (events ^ ZDO_NETWORK_START);
        MOV     A,R6
        XRL     A,#0x2
        SJMP    ??ZDApp_event_loop_2
//  450     }
//  451 
//  452     if ( events & ZDO_ROUTER_START )
??ZDApp_event_loop_5:
        MOV     A,R6
        ANL     A,#0x20
        JZ      ??ZDApp_event_loop_6
//  453     {
//  454       if ( nwkStatus == ZSuccess )
        MOV     DPTR,#nwkStatus
        MOVX    A,@DPTR
        JNZ     ??ZDApp_event_loop_7
//  455       {
//  456         if ( devState == DEV_END_DEVICE )
        MOV     DPTR,#devState
        MOVX    A,@DPTR
        XRL     A,#0x6
        JNZ     ??ZDApp_event_loop_8
//  457           devState = DEV_ROUTER;
        MOV     A,#0x7
        MOVX    @DPTR,A
//  458 
//  459         osal_pwrmgr_device( PWRMGR_ALWAYS_ON );
??ZDApp_event_loop_8:
        ; Setup parameters for call to function osal_pwrmgr_device
        MOV     R1,#0x0
        LCALL   ??osal_pwrmgr_device?relay
//  460       }
//  461       else
//  462       {
//  463         // remain as end device
//  464       }
//  465       osal_set_event( ZDAppTaskID, ZDO_STATE_CHANGE_EVT );
??ZDApp_event_loop_7:
        ; Setup parameters for call to function osal_set_event
        MOV     R2,#0x10
        MOV     R3,#0x0
        MOV     DPTR,#ZDAppTaskID
        MOVX    A,@DPTR
        MOV     R1,A
        LCALL   ??osal_set_event?relay
//  466 
//  467       // Return unprocessed events
//  468       return (events ^ ZDO_ROUTER_START);
        MOV     A,R6
        XRL     A,#0x20
        SJMP    ??ZDApp_event_loop_2
//  469     }
//  470   }
//  471 
//  472   if ( events & ZDO_STATE_CHANGE_EVT )
??ZDApp_event_loop_6:
        MOV     A,R6
        ANL     A,#0x10
        JZ      ??ZDApp_event_loop_9
//  473   {
//  474     ZDO_UpdateNwkStatus( devState );
        ; Setup parameters for call to function ZDO_UpdateNwkStatus
        MOV     DPTR,#devState
        MOVX    A,@DPTR
        MOV     R1,A
        LCALL   ??ZDO_UpdateNwkStatus?relay
//  475 
//  476     // At start up, do one MTO route discovery if the device is a concentrator
//  477     if ( zgConcentratorEnable == TRUE )
        MOV     DPTR,#zgConcentratorEnable
        MOVX    A,@DPTR
        XRL     A,#0x1
        JNZ     ??ZDApp_event_loop_10
//  478     {
//  479       // Start next event
//  480       osal_start_timerEx( NWK_TaskID, NWK_MTO_RTG_REQ_EVT, 100 );
        ; Setup parameters for call to function osal_start_timerEx
        MOV     DPTR,#__Constant_64
        LCALL   ?PUSH_XSTACK8_X_FOUR
          CFI CFA_XSP16 add(XSP16, 18)
        MOV     R2,#0x0
        MOV     R3,#0x8
        MOV     DPTR,#NWK_TaskID
        MOVX    A,@DPTR
        MOV     R1,A
        LCALL   ??osal_start_timerEx?relay
        MOV     A,#0x4
        LCALL   ?DEALLOC_XSTACK8
          CFI CFA_XSP16 add(XSP16, 14)
//  481     }
//  482 
//  483     // Return unprocessed events
//  484     return (events ^ ZDO_STATE_CHANGE_EVT);
??ZDApp_event_loop_10:
        MOV     A,R6
        XRL     A,#0x10
??ZDApp_event_loop_2:
        MOV     R2,A
        MOV     A,R7
        SJMP    ??ZDApp_event_loop_4
//  485   }
//  486 
//  487   if ( events & ZDO_COMMAND_CNF )
??ZDApp_event_loop_9:
        MOV     A,R6
        ANL     A,#0x8
        JZ      ??ZDApp_event_loop_11
//  488   {
//  489     // User defined logic
//  490 
//  491     // Return unprocessed events
//  492     return (events ^ ZDO_COMMAND_CNF);
        MOV     A,R6
        XRL     A,#0x8
        MOV     R2,A
        SJMP    ??ZDApp_event_loop_12
//  493   }
//  494 
//  495   if ( events & ZDO_NWK_UPDATE_NV )
??ZDApp_event_loop_11:
        MOV     A,R7
        ANL     A,#0x1
        JZ      ??ZDApp_event_loop_13
//  496   {
//  497     ZDApp_SaveNetworkStateEvt();
        ; Setup parameters for call to function ZDApp_SaveNetworkStateEvt
        LCALL   ??ZDApp_SaveNetworkStateEvt?relay
//  498 
//  499     // Return unprocessed events
//  500     return (events ^ ZDO_NWK_UPDATE_NV);
        MOV     A,R6
        MOV     R2,A
        MOV     A,R7
        XRL     A,#0x1
        SJMP    ??ZDApp_event_loop_4
//  501   }
//  502 
//  503   if ( events & ZDO_DEVICE_RESET )
??ZDApp_event_loop_13:
        MOV     A,R6
        ANL     A,#0x4
        JZ      ??ZDApp_event_loop_14
//  504   {
//  505 #ifdef ZBA_FALLBACK_NWKKEY
//  506     if ( devState == DEV_END_DEVICE_UNAUTH )
//  507     {
//  508       ZDSecMgrFallbackNwkKey();
//  509     }
//  510     else
//  511 #endif
//  512     {
//  513       // Set the NV startup option to force a "new" join.
//  514       zgWriteStartupOptions( ZG_STARTUP_SET, ZCD_STARTOPT_DEFAULT_NETWORK_STATE );
        ; Setup parameters for call to function zgWriteStartupOptions
        MOV     R2,#0x2
        MOV     R1,#-0x1
        LCALL   ??zgWriteStartupOptions?relay
//  515 
//  516       // The device has been in the UNAUTH state, so reset
//  517       // Note: there will be no return from this call
//  518       SystemResetSoft();
        ; Setup parameters for call to function Onboard_soft_reset
        LCALL   Onboard_soft_reset & 0xFFFF
//  519     }
//  520   }
//  521 
//  522 #if !defined ( ZDP_BIND_SKIP_VALIDATION )
//  523   if ( events & ZDO_PENDING_BIND_REQ_EVT )
??ZDApp_event_loop_14:
        MOV     A,R7
        ANL     A,#0x10
        JZ      ??ZDApp_event_loop_15
//  524   {
//  525 #if defined ( REFLECTOR )
//  526     ZDApp_AgeOutPendingBindEntry();
        ; Setup parameters for call to function ZDApp_AgeOutPendingBindEntry
        LCALL   ??ZDApp_AgeOutPendingBindEntry?relay
//  527 #endif
//  528     // Return unprocessed events
//  529     return (events ^ ZDO_PENDING_BIND_REQ_EVT);
        MOV     A,R6
        MOV     R2,A
        MOV     A,R7
        XRL     A,#0x10
??ZDApp_event_loop_4:
        MOV     R3,A
        SJMP    ??ZDApp_event_loop_12
//  530   }
//  531 #endif
//  532 
//  533   if ( ZG_SECURE_ENABLED )
//  534   {
//  535     return ( ZDApp_ProcessSecEvent( task_id, events ) );
??ZDApp_event_loop_15:
        ; Setup parameters for call to function ZDApp_ProcessSecEvent
        MOV     A,R6
        MOV     R2,A
        MOV     A,R7
        MOV     R3,A
        MOV     R1,?V0 + 2
        LCALL   ??ZDApp_ProcessSecEvent?relay
//  536   }
??ZDApp_event_loop_12:
        SJMP    ??Subroutine36_0
          CFI EndBlock cfiBlock10
//  537   else
//  538   {
//  539     // Discard or make more handlers
//  540     return 0;
//  541   }
//  542 }

        RSEG BANKED_CODE:CODE:NOROOT(0)
?Subroutine1:
          CFI Block cfiBlock11 Using cfiCommon0
          CFI NoFunction
          CFI CFA_SP SP+0
          CFI CFA_XSP16 add(XSP16, 35)
          CFI VB load(1, XDATA, add(CFA_XSP16, literal(-13)))
          CFI DPL0 load(1, XDATA, add(CFA_XSP16, literal(-2)))
          CFI DPH0 load(1, XDATA, add(CFA_XSP16, literal(-1)))
          CFI R6 load(1, XDATA, add(CFA_XSP16, literal(-14)))
          CFI R7 load(1, XDATA, add(CFA_XSP16, literal(-6)))
          CFI V0 load(1, XDATA, add(CFA_XSP16, literal(-12)))
          CFI V1 load(1, XDATA, add(CFA_XSP16, literal(-11)))
          CFI V2 load(1, XDATA, add(CFA_XSP16, literal(-10)))
          CFI V3 load(1, XDATA, add(CFA_XSP16, literal(-9)))
          CFI V4 load(1, XDATA, add(CFA_XSP16, literal(-8)))
          CFI V5 load(1, XDATA, add(CFA_XSP16, literal(-7)))
          CFI ?BRET_EXT load(1, XDATA, add(CFA_XSP16, literal(-3)))
          CFI ?RET_HIGH load(1, XDATA, add(CFA_XSP16, literal(-4)))
          CFI ?RET_LOW load(1, XDATA, add(CFA_XSP16, literal(-5)))
          CFI Invalid
        LCALL   ?DEALLOC_XSTACK8
          CFI EndBlock cfiBlock11
        REQUIRE ??Subroutine36_0
        ; // Fall through to label ??Subroutine36_0

        RSEG BANKED_CODE:CODE:NOROOT(0)
??Subroutine36_0:
          CFI Block cfiBlock12 Using cfiCommon0
          CFI NoFunction
          CFI CFA_SP SP+0
          CFI CFA_XSP16 add(XSP16, 14)
          CFI VB load(1, XDATA, add(CFA_XSP16, literal(-13)))
          CFI DPL0 load(1, XDATA, add(CFA_XSP16, literal(-2)))
          CFI DPH0 load(1, XDATA, add(CFA_XSP16, literal(-1)))
          CFI R6 load(1, XDATA, add(CFA_XSP16, literal(-14)))
          CFI R7 load(1, XDATA, add(CFA_XSP16, literal(-6)))
          CFI V0 load(1, XDATA, add(CFA_XSP16, literal(-12)))
          CFI V1 load(1, XDATA, add(CFA_XSP16, literal(-11)))
          CFI V2 load(1, XDATA, add(CFA_XSP16, literal(-10)))
          CFI V3 load(1, XDATA, add(CFA_XSP16, literal(-9)))
          CFI V4 load(1, XDATA, add(CFA_XSP16, literal(-8)))
          CFI V5 load(1, XDATA, add(CFA_XSP16, literal(-7)))
          CFI ?BRET_EXT load(1, XDATA, add(CFA_XSP16, literal(-3)))
          CFI ?RET_HIGH load(1, XDATA, add(CFA_XSP16, literal(-4)))
          CFI ?RET_LOW load(1, XDATA, add(CFA_XSP16, literal(-5)))
        MOV     R7,#0x6
        LJMP    ?BANKED_LEAVE_XDATA
          CFI EndBlock cfiBlock12
//  543 
//  544 /*********************************************************************
//  545  * @fn      ZDApp_ProcessSecEvent()
//  546  *
//  547  * @brief   Process incoming security events.
//  548  *
//  549  * @param   task_id - Task ID
//  550  * @param   events  - Bitmap of events
//  551  *
//  552  * @return  none
//  553  */

        RSEG BANKED_CODE:CODE:NOROOT(0)
//  554 UINT16 ZDApp_ProcessSecEvent( uint8 task_id, UINT16 events )
ZDApp_ProcessSecEvent:
          CFI Block cfiBlock13 Using cfiCommon0
          CFI Function ZDApp_ProcessSecEvent
        CODE
//  555 {
        FUNCALL ZDApp_ProcessSecEvent, ZDSecMgrNewDeviceEvent
        LOCFRAME ISTACK, 0, STACK
        LOCFRAME PSTACK, 0, STACK
        LOCFRAME XSTACK, 16, STACK
        LOCFRAME IOVERLAY, 0, STATIC
        LOCFRAME DOVERLAY, 0, STATIC
        ARGFRAME ISTACK, 0, STACK
        ARGFRAME PSTACK, 0, STACK
        ARGFRAME XSTACK, 16, STACK
        ARGFRAME IOVERLAY, 0, STATIC
        ARGFRAME DOVERLAY, 0, STATIC
        FUNCALL ZDApp_ProcessSecEvent, osal_mem_free
        LOCFRAME ISTACK, 0, STACK
        LOCFRAME PSTACK, 0, STACK
        LOCFRAME XSTACK, 16, STACK
        LOCFRAME IOVERLAY, 0, STATIC
        LOCFRAME DOVERLAY, 0, STATIC
        ARGFRAME ISTACK, 0, STACK
        ARGFRAME PSTACK, 0, STACK
        ARGFRAME XSTACK, 16, STACK
        ARGFRAME IOVERLAY, 0, STATIC
        ARGFRAME DOVERLAY, 0, STATIC
        FUNCALL ZDApp_ProcessSecEvent, osal_start_timerEx
        LOCFRAME ISTACK, 0, STACK
        LOCFRAME PSTACK, 0, STACK
        LOCFRAME XSTACK, 20, STACK
        LOCFRAME IOVERLAY, 0, STATIC
        LOCFRAME DOVERLAY, 0, STATIC
        ARGFRAME ISTACK, 0, STACK
        ARGFRAME PSTACK, 0, STACK
        ARGFRAME XSTACK, 20, STACK
        ARGFRAME IOVERLAY, 0, STATIC
        ARGFRAME DOVERLAY, 0, STATIC
        FUNCALL ZDApp_ProcessSecEvent, ZDApp_DeviceAuthEvt
        LOCFRAME ISTACK, 0, STACK
        LOCFRAME PSTACK, 0, STACK
        LOCFRAME XSTACK, 16, STACK
        LOCFRAME IOVERLAY, 0, STATIC
        LOCFRAME DOVERLAY, 0, STATIC
        ARGFRAME ISTACK, 0, STACK
        ARGFRAME PSTACK, 0, STACK
        ARGFRAME XSTACK, 16, STACK
        ARGFRAME IOVERLAY, 0, STATIC
        ARGFRAME DOVERLAY, 0, STATIC
        FUNCALL ZDApp_ProcessSecEvent, ZDApp_SaveNwkKey
        LOCFRAME ISTACK, 0, STACK
        LOCFRAME PSTACK, 0, STACK
        LOCFRAME XSTACK, 16, STACK
        LOCFRAME IOVERLAY, 0, STATIC
        LOCFRAME DOVERLAY, 0, STATIC
        ARGFRAME ISTACK, 0, STACK
        ARGFRAME PSTACK, 0, STACK
        ARGFRAME XSTACK, 16, STACK
        ARGFRAME IOVERLAY, 0, STATIC
        ARGFRAME DOVERLAY, 0, STATIC
        FUNCALL ZDApp_ProcessSecEvent, ZDSecMgrSaveApsLinkKey
        LOCFRAME ISTACK, 0, STACK
        LOCFRAME PSTACK, 0, STACK
        LOCFRAME XSTACK, 16, STACK
        LOCFRAME IOVERLAY, 0, STATIC
        LOCFRAME DOVERLAY, 0, STATIC
        ARGFRAME ISTACK, 0, STACK
        ARGFRAME PSTACK, 0, STACK
        ARGFRAME XSTACK, 16, STACK
        ARGFRAME IOVERLAY, 0, STATIC
        ARGFRAME DOVERLAY, 0, STATIC
        FUNCALL ZDApp_ProcessSecEvent, ZDSecMgrSaveTCLinkKey
        LOCFRAME ISTACK, 0, STACK
        LOCFRAME PSTACK, 0, STACK
        LOCFRAME XSTACK, 16, STACK
        LOCFRAME IOVERLAY, 0, STATIC
        LOCFRAME DOVERLAY, 0, STATIC
        ARGFRAME ISTACK, 0, STACK
        ARGFRAME PSTACK, 0, STACK
        ARGFRAME XSTACK, 16, STACK
        ARGFRAME IOVERLAY, 0, STATIC
        ARGFRAME DOVERLAY, 0, STATIC
        MOV     A,#-0x10
        LCALL   ?BANKED_ENTER_XDATA
          CFI DPH0 load(1, XDATA, add(CFA_XSP16, literal(-1)))
          CFI DPL0 load(1, XDATA, add(CFA_XSP16, literal(-2)))
          CFI ?BRET_EXT load(1, XDATA, add(CFA_XSP16, literal(-3)))
          CFI ?RET_HIGH load(1, XDATA, add(CFA_XSP16, literal(-4)))
          CFI ?RET_LOW load(1, XDATA, add(CFA_XSP16, literal(-5)))
          CFI R7 load(1, XDATA, add(CFA_XSP16, literal(-6)))
          CFI V7 load(1, XDATA, add(CFA_XSP16, literal(-7)))
          CFI V6 load(1, XDATA, add(CFA_XSP16, literal(-8)))
          CFI V5 load(1, XDATA, add(CFA_XSP16, literal(-9)))
          CFI V4 load(1, XDATA, add(CFA_XSP16, literal(-10)))
          CFI V3 load(1, XDATA, add(CFA_XSP16, literal(-11)))
          CFI V2 load(1, XDATA, add(CFA_XSP16, literal(-12)))
          CFI V1 load(1, XDATA, add(CFA_XSP16, literal(-13)))
          CFI V0 load(1, XDATA, add(CFA_XSP16, literal(-14)))
          CFI VB load(1, XDATA, add(CFA_XSP16, literal(-15)))
          CFI R6 load(1, XDATA, add(CFA_XSP16, literal(-16)))
          CFI CFA_SP SP+0
          CFI CFA_XSP16 add(XSP16, 16)
        ; Saved register size: 16
        ; Auto size: 0
        MOV     A,R2
        MOV     R6,A
        MOV     A,R3
        MOV     R7,A
//  556   (void)task_id;  // Intentionally unreferenced parameter
//  557 
//  558   if ( ZSTACK_ROUTER_BUILD )
//  559   {
//  560     if ( events & ZDO_NEW_DEVICE )
        MOV     A,R6
        ANL     A,#0x40
        JNZ     $+5
        LJMP    ??ZDApp_ProcessSecEvent_0 & 0xFFFF
//  561     {
//  562       // process the new device event
//  563       if ( ZDApp_NewDeviceList )
        MOV     DPTR,#ZDApp_NewDeviceList
        LCALL   ??Subroutine43_0 & 0xFFFF
??CrossCallReturnLabel_60:
        JZ      ??ZDApp_ProcessSecEvent_1
//  564       {
//  565         ZDAppNewDevice_t *pNewDevice;
//  566         uint16 timeDelta;
//  567 
//  568         (void) ZDSecMgrNewDeviceEvent( ZDApp_NewDeviceList->shortAddr );
        ; Setup parameters for call to function ZDSecMgrNewDeviceEvent
        LCALL   ??Subroutine49_0 & 0xFFFF
??CrossCallReturnLabel_90:
        INC     DPTR
        INC     DPTR
        LCALL   ??Subroutine42_0 & 0xFFFF
??CrossCallReturnLabel_48:
        LCALL   ??ZDSecMgrNewDeviceEvent?relay
//  569 
//  570         pNewDevice = (ZDAppNewDevice_t *) ZDApp_NewDeviceList->next;
        LCALL   ?Subroutine18 & 0xFFFF
??CrossCallReturnLabel_37:
        MOV     ?V0 + 0,A
        INC     DPTR
        MOVX    A,@DPTR
        MOV     ?V0 + 1,A
//  571         osal_mem_free( ZDApp_NewDeviceList );
        ; Setup parameters for call to function osal_mem_free
        MOV     DPTR,#ZDApp_NewDeviceList
        LCALL   ??Subroutine42_0 & 0xFFFF
??CrossCallReturnLabel_49:
        LCALL   ??osal_mem_free?relay
//  572         ZDApp_NewDeviceList = pNewDevice;
        MOV     DPTR,#ZDApp_NewDeviceList
        LCALL   ??Subroutine47_0 & 0xFFFF
//  573 
//  574         if ( pNewDevice )
??CrossCallReturnLabel_86:
        MOV     A,?V0 + 0
        ORL     A,?V0 + 1
        JZ      ??ZDApp_ProcessSecEvent_1
//  575         {
//  576           timeDelta = pNewDevice->timeDelta;
        MOV     DPL,?V0 + 0
        MOV     DPH,?V0 + 1
        INC     DPTR
        INC     DPTR
        INC     DPTR
        INC     DPTR
        MOVX    A,@DPTR
        MOV     ?V0 + 4,A
        INC     DPTR
        MOVX    A,@DPTR
        MOV     ?V0 + 5,A
//  577           pNewDevice = pNewDevice->next;
        SJMP    ??ZDApp_ProcessSecEvent_2
//  578 
//  579           while ( pNewDevice )
//  580           {
//  581             pNewDevice->timeDelta -= timeDelta;
??ZDApp_ProcessSecEvent_3:
        MOV     DPL,?V0 + 0
        MOV     DPH,?V0 + 1
        INC     DPTR
        INC     DPTR
        INC     DPTR
        INC     DPTR
        CLR     C
        MOVX    A,@DPTR
        SUBB    A,?V0 + 4
        MOVX    @DPTR,A
        INC     DPTR
        MOVX    A,@DPTR
        SUBB    A,?V0 + 5
        MOVX    @DPTR,A
//  582             pNewDevice = pNewDevice->next;
??ZDApp_ProcessSecEvent_2:
        MOV     DPL,?V0 + 0
        MOV     DPH,?V0 + 1
        MOVX    A,@DPTR
        MOV     ?V0 + 0,A
        INC     DPTR
        MOVX    A,@DPTR
        MOV     ?V0 + 1,A
//  583           }
        MOV     A,?V0 + 0
        ORL     A,?V0 + 1
        JNZ     ??ZDApp_ProcessSecEvent_3
//  584 
//  585           osal_start_timerEx( ZDAppTaskID, ZDO_NEW_DEVICE, timeDelta );
        ; Setup parameters for call to function osal_start_timerEx
        CLR     A
        MOV     ?V0 + 6,A
        MOV     ?V0 + 7,A
        MOV     R0,#?V0 + 4
        LCALL   ?PUSH_XSTACK_I_FOUR
          CFI CFA_XSP16 add(XSP16, 20)
        MOV     R2,#0x40
        MOV     R3,#0x0
        MOV     DPTR,#ZDAppTaskID
        MOVX    A,@DPTR
        MOV     R1,A
        LCALL   ??osal_start_timerEx?relay
        MOV     A,#0x4
        LCALL   ?DEALLOC_XSTACK8
          CFI CFA_XSP16 add(XSP16, 16)
//  586         }
//  587       }
//  588 
//  589       // Return unprocessed events
//  590       return (events ^ ZDO_NEW_DEVICE);
??ZDApp_ProcessSecEvent_1:
        MOV     A,R6
        XRL     A,#0x40
        SJMP    ??ZDApp_ProcessSecEvent_4
//  591     }
//  592   }
//  593 
//  594   if ( events & ZDO_DEVICE_AUTH )
??ZDApp_ProcessSecEvent_0:
        MOV     A,R6
        ANL     A,#0x80
        JZ      ??ZDApp_ProcessSecEvent_5
//  595   {
//  596     ZDApp_DeviceAuthEvt();
        ; Setup parameters for call to function ZDApp_DeviceAuthEvt
        LCALL   ??ZDApp_DeviceAuthEvt?relay
//  597 
//  598     // Return unprocessed events
//  599     return (events ^ ZDO_DEVICE_AUTH);
        MOV     A,R6
        XRL     A,#0x80
??ZDApp_ProcessSecEvent_4:
        MOV     R2,A
        MOV     A,R7
        SJMP    ??ZDApp_ProcessSecEvent_6
//  600   }
//  601 
//  602   if ( events & ZDO_FRAMECOUNTER_CHANGE )
??ZDApp_ProcessSecEvent_5:
        MOV     A,R7
        ANL     A,#0x2
        JZ      ??ZDApp_ProcessSecEvent_7
//  603   {
//  604     ZDApp_SaveNwkKey();
        ; Setup parameters for call to function ZDApp_SaveNwkKey
        LCALL   ??ZDApp_SaveNwkKey?relay
//  605 
//  606     // Return unprocessed events
//  607     return (events ^ ZDO_FRAMECOUNTER_CHANGE);
        MOV     A,R6
        MOV     R2,A
        MOV     A,R7
        XRL     A,#0x2
        SJMP    ??ZDApp_ProcessSecEvent_6
//  608   }
//  609 
//  610   if ( events & ZDO_APS_FRAMECOUNTER_CHANGE )
??ZDApp_ProcessSecEvent_7:
        MOV     A,R7
        ANL     A,#0x8
        JZ      ??ZDApp_ProcessSecEvent_8
//  611   {
//  612 #if defined (NV_RESTORE)
//  613     ZDSecMgrSaveApsLinkKey();
        ; Setup parameters for call to function ZDSecMgrSaveApsLinkKey
        LCALL   ??ZDSecMgrSaveApsLinkKey?relay
//  614 #endif // (NV_RESTORE)
//  615 
//  616     // Return unprocessed events
//  617     return (events ^ ZDO_APS_FRAMECOUNTER_CHANGE);
        MOV     A,R6
        MOV     R2,A
        MOV     A,R7
        XRL     A,#0x8
        SJMP    ??ZDApp_ProcessSecEvent_6
//  618   }
//  619 
//  620   if ( events & ZDO_TCLK_FRAMECOUNTER_CHANGE )
??ZDApp_ProcessSecEvent_8:
        MOV     A,R7
        ANL     A,#0x4
        JZ      ??ZDApp_ProcessSecEvent_9
//  621   {
//  622     ZDSecMgrSaveTCLinkKey();
        ; Setup parameters for call to function ZDSecMgrSaveTCLinkKey
        LCALL   ??ZDSecMgrSaveTCLinkKey?relay
//  623 
//  624     // Return unprocessed events
//  625     return (events ^ ZDO_TCLK_FRAMECOUNTER_CHANGE);
        MOV     A,R6
        MOV     R2,A
        MOV     A,R7
        XRL     A,#0x4
??ZDApp_ProcessSecEvent_6:
        MOV     R3,A
        SJMP    ??ZDApp_ProcessSecEvent_10
//  626   }
//  627 
//  628   // Discard or make more handlers
//  629   return 0;
??ZDApp_ProcessSecEvent_9:
        MOV     R2,#0x0
        MOV     R3,#0x0
          CFI EndBlock cfiBlock13
??ZDApp_ProcessSecEvent_10:
        REQUIRE ?Subroutine2
        ; // Fall through to label ?Subroutine2
//  630 }

        RSEG BANKED_CODE:CODE:NOROOT(0)
?Subroutine2:
          CFI Block cfiBlock14 Using cfiCommon0
          CFI NoFunction
          CFI CFA_SP SP+0
          CFI CFA_XSP16 add(XSP16, 16)
          CFI VB load(1, XDATA, add(CFA_XSP16, literal(-15)))
          CFI DPL0 load(1, XDATA, add(CFA_XSP16, literal(-2)))
          CFI DPH0 load(1, XDATA, add(CFA_XSP16, literal(-1)))
          CFI R6 load(1, XDATA, add(CFA_XSP16, literal(-16)))
          CFI R7 load(1, XDATA, add(CFA_XSP16, literal(-6)))
          CFI V0 load(1, XDATA, add(CFA_XSP16, literal(-14)))
          CFI V1 load(1, XDATA, add(CFA_XSP16, literal(-13)))
          CFI V2 load(1, XDATA, add(CFA_XSP16, literal(-12)))
          CFI V3 load(1, XDATA, add(CFA_XSP16, literal(-11)))
          CFI V4 load(1, XDATA, add(CFA_XSP16, literal(-10)))
          CFI V5 load(1, XDATA, add(CFA_XSP16, literal(-9)))
          CFI V6 load(1, XDATA, add(CFA_XSP16, literal(-8)))
          CFI V7 load(1, XDATA, add(CFA_XSP16, literal(-7)))
          CFI ?BRET_EXT load(1, XDATA, add(CFA_XSP16, literal(-3)))
          CFI ?RET_HIGH load(1, XDATA, add(CFA_XSP16, literal(-4)))
          CFI ?RET_LOW load(1, XDATA, add(CFA_XSP16, literal(-5)))
        MOV     R7,#0x8
        LJMP    ?BANKED_LEAVE_XDATA
          CFI EndBlock cfiBlock14
//  631 
//  632 /*********************************************************************
//  633  * Application Functions
//  634  */
//  635 
//  636 /*********************************************************************
//  637  * @fn      ZDOInitDevice
//  638  *
//  639  * @brief   Start the device in the network.  This function will read
//  640  *   ZCD_NV_STARTUP_OPTION (NV item) to determine whether or not to
//  641  *   restore the network state of the device.
//  642  *
//  643  * @param   startDelay - timeDelay to start device (in milliseconds).
//  644  *                       There is a jitter added to this delay:
//  645  *                       ((NWK_START_DELAY + startDelay)
//  646  *                       + (osal_rand() & EXTENDED_JOINING_RANDOM_MASK))
//  647  *                       When startDelay is set to ZDO_INIT_HOLD_NWK_START
//  648  *                       this function will hold the network init. Application
//  649  *                       can start the device.
//  650  *
//  651  * NOTE:    If the application would like to force a "new" join, the
//  652  *          application should set the ZCD_STARTOPT_DEFAULT_NETWORK_STATE
//  653  *          bit in the ZCD_NV_STARTUP_OPTION NV item before calling
//  654  *          this function. "new" join means to not restore the network
//  655  *          state of the device. Use zgWriteStartupOptions() to set these
//  656  *          options.
//  657  *
//  658  * @return
//  659  *    ZDO_INITDEV_RESTORED_NETWORK_STATE  - The device's network state was
//  660  *          restored.
//  661  *    ZDO_INITDEV_NEW_NETWORK_STATE - The network state was initialized.
//  662  *          This could mean that ZCD_NV_STARTUP_OPTION said to not restore, or
//  663  *          it could mean that there was no network state to restore.
//  664  *    ZDO_INITDEV_LEAVE_NOT_STARTED - Before the reset, a network leave was issued
//  665  *          with the rejoin option set to TRUE.  So, the device was not
//  666  *          started in the network (one time only).  The next time this
//  667  *          function is called it will start.
//  668  */

        RSEG BANKED_CODE:CODE:NOROOT(0)
//  669 uint8 ZDOInitDevice( uint16 startDelay )
ZDOInitDevice:
          CFI Block cfiBlock15 Using cfiCommon0
          CFI Function ZDOInitDevice
        CODE
//  670 {
        FUNCALL ZDOInitDevice, zgInitItems
        LOCFRAME ISTACK, 0, STACK
        LOCFRAME PSTACK, 0, STACK
        LOCFRAME XSTACK, 14, STACK
        LOCFRAME IOVERLAY, 0, STATIC
        LOCFRAME DOVERLAY, 0, STATIC
        ARGFRAME ISTACK, 0, STACK
        ARGFRAME PSTACK, 0, STACK
        ARGFRAME XSTACK, 14, STACK
        ARGFRAME IOVERLAY, 0, STATIC
        ARGFRAME DOVERLAY, 0, STATIC
        FUNCALL ZDOInitDevice, ZDConfig_InitDescriptors
        LOCFRAME ISTACK, 0, STACK
        LOCFRAME PSTACK, 0, STACK
        LOCFRAME XSTACK, 14, STACK
        LOCFRAME IOVERLAY, 0, STATIC
        LOCFRAME DOVERLAY, 0, STATIC
        ARGFRAME ISTACK, 0, STACK
        ARGFRAME PSTACK, 0, STACK
        ARGFRAME XSTACK, 14, STACK
        ARGFRAME IOVERLAY, 0, STATIC
        ARGFRAME DOVERLAY, 0, STATIC
        FUNCALL ZDOInitDevice, NLME_InitNV
        LOCFRAME ISTACK, 0, STACK
        LOCFRAME PSTACK, 0, STACK
        LOCFRAME XSTACK, 14, STACK
        LOCFRAME IOVERLAY, 0, STATIC
        LOCFRAME DOVERLAY, 0, STATIC
        ARGFRAME ISTACK, 0, STACK
        ARGFRAME PSTACK, 0, STACK
        ARGFRAME XSTACK, 14, STACK
        ARGFRAME IOVERLAY, 0, STATIC
        ARGFRAME DOVERLAY, 0, STATIC
        FUNCALL ZDOInitDevice, NLME_SetDefaultNV
        LOCFRAME ISTACK, 0, STACK
        LOCFRAME PSTACK, 0, STACK
        LOCFRAME XSTACK, 14, STACK
        LOCFRAME IOVERLAY, 0, STATIC
        LOCFRAME DOVERLAY, 0, STATIC
        ARGFRAME ISTACK, 0, STACK
        ARGFRAME PSTACK, 0, STACK
        ARGFRAME XSTACK, 14, STACK
        ARGFRAME IOVERLAY, 0, STATIC
        ARGFRAME DOVERLAY, 0, STATIC
        FUNCALL ZDOInitDevice, ZDSecMgrClearNVKeyValues
        LOCFRAME ISTACK, 0, STACK
        LOCFRAME PSTACK, 0, STACK
        LOCFRAME XSTACK, 14, STACK
        LOCFRAME IOVERLAY, 0, STATIC
        LOCFRAME DOVERLAY, 0, STATIC
        ARGFRAME ISTACK, 0, STACK
        ARGFRAME PSTACK, 0, STACK
        ARGFRAME XSTACK, 14, STACK
        ARGFRAME IOVERLAY, 0, STATIC
        ARGFRAME DOVERLAY, 0, STATIC
        FUNCALL ZDOInitDevice, ZDAppDetermineDeviceType
        LOCFRAME ISTACK, 0, STACK
        LOCFRAME PSTACK, 0, STACK
        LOCFRAME XSTACK, 14, STACK
        LOCFRAME IOVERLAY, 0, STATIC
        LOCFRAME DOVERLAY, 0, STATIC
        ARGFRAME ISTACK, 0, STACK
        ARGFRAME PSTACK, 0, STACK
        ARGFRAME XSTACK, 14, STACK
        ARGFRAME IOVERLAY, 0, STATIC
        ARGFRAME DOVERLAY, 0, STATIC
        FUNCALL ZDOInitDevice, osal_rand
        LOCFRAME ISTACK, 0, STACK
        LOCFRAME PSTACK, 0, STACK
        LOCFRAME XSTACK, 14, STACK
        LOCFRAME IOVERLAY, 0, STATIC
        LOCFRAME DOVERLAY, 0, STATIC
        ARGFRAME ISTACK, 0, STACK
        ARGFRAME PSTACK, 0, STACK
        ARGFRAME XSTACK, 14, STACK
        ARGFRAME IOVERLAY, 0, STATIC
        ARGFRAME DOVERLAY, 0, STATIC
        FUNCALL ZDOInitDevice, ZDApp_SecInit
        LOCFRAME ISTACK, 0, STACK
        LOCFRAME PSTACK, 0, STACK
        LOCFRAME XSTACK, 14, STACK
        LOCFRAME IOVERLAY, 0, STATIC
        LOCFRAME DOVERLAY, 0, STATIC
        ARGFRAME ISTACK, 0, STACK
        ARGFRAME PSTACK, 0, STACK
        ARGFRAME XSTACK, 14, STACK
        ARGFRAME IOVERLAY, 0, STATIC
        ARGFRAME DOVERLAY, 0, STATIC
        FUNCALL ZDOInitDevice, ZDApp_LeaveCtrlInit
        LOCFRAME ISTACK, 0, STACK
        LOCFRAME PSTACK, 0, STACK
        LOCFRAME XSTACK, 14, STACK
        LOCFRAME IOVERLAY, 0, STATIC
        LOCFRAME DOVERLAY, 0, STATIC
        ARGFRAME ISTACK, 0, STACK
        ARGFRAME PSTACK, 0, STACK
        ARGFRAME XSTACK, 14, STACK
        ARGFRAME IOVERLAY, 0, STATIC
        ARGFRAME DOVERLAY, 0, STATIC
        FUNCALL ZDOInitDevice, ZDApp_LeaveCtrlStartup
        LOCFRAME ISTACK, 0, STACK
        LOCFRAME PSTACK, 0, STACK
        LOCFRAME XSTACK, 14, STACK
        LOCFRAME IOVERLAY, 0, STATIC
        LOCFRAME DOVERLAY, 0, STATIC
        ARGFRAME ISTACK, 0, STACK
        ARGFRAME PSTACK, 0, STACK
        ARGFRAME XSTACK, 14, STACK
        ARGFRAME IOVERLAY, 0, STATIC
        ARGFRAME DOVERLAY, 0, STATIC
        FUNCALL ZDOInitDevice, zgWriteStartupOptions
        LOCFRAME ISTACK, 0, STACK
        LOCFRAME PSTACK, 0, STACK
        LOCFRAME XSTACK, 14, STACK
        LOCFRAME IOVERLAY, 0, STATIC
        LOCFRAME DOVERLAY, 0, STATIC
        ARGFRAME ISTACK, 0, STACK
        ARGFRAME PSTACK, 0, STACK
        ARGFRAME XSTACK, 14, STACK
        ARGFRAME IOVERLAY, 0, STATIC
        ARGFRAME DOVERLAY, 0, STATIC
        FUNCALL ZDOInitDevice, osal_set_event
        LOCFRAME ISTACK, 0, STACK
        LOCFRAME PSTACK, 0, STACK
        LOCFRAME XSTACK, 14, STACK
        LOCFRAME IOVERLAY, 0, STATIC
        LOCFRAME DOVERLAY, 0, STATIC
        ARGFRAME ISTACK, 0, STACK
        ARGFRAME PSTACK, 0, STACK
        ARGFRAME XSTACK, 14, STACK
        ARGFRAME IOVERLAY, 0, STATIC
        ARGFRAME DOVERLAY, 0, STATIC
        FUNCALL ZDOInitDevice, ZDApp_ReadNetworkRestoreState
        LOCFRAME ISTACK, 0, STACK
        LOCFRAME PSTACK, 0, STACK
        LOCFRAME XSTACK, 14, STACK
        LOCFRAME IOVERLAY, 0, STATIC
        LOCFRAME DOVERLAY, 0, STATIC
        ARGFRAME ISTACK, 0, STACK
        ARGFRAME PSTACK, 0, STACK
        ARGFRAME XSTACK, 14, STACK
        ARGFRAME IOVERLAY, 0, STATIC
        ARGFRAME DOVERLAY, 0, STATIC
        FUNCALL ZDOInitDevice, ZDApp_RestoreNetworkState
        LOCFRAME ISTACK, 0, STACK
        LOCFRAME PSTACK, 0, STACK
        LOCFRAME XSTACK, 14, STACK
        LOCFRAME IOVERLAY, 0, STATIC
        LOCFRAME DOVERLAY, 0, STATIC
        ARGFRAME ISTACK, 0, STACK
        ARGFRAME PSTACK, 0, STACK
        ARGFRAME XSTACK, 14, STACK
        ARGFRAME IOVERLAY, 0, STATIC
        ARGFRAME DOVERLAY, 0, STATIC
        FUNCALL ZDOInitDevice, ZDApp_NetworkInit
        LOCFRAME ISTACK, 0, STACK
        LOCFRAME PSTACK, 0, STACK
        LOCFRAME XSTACK, 14, STACK
        LOCFRAME IOVERLAY, 0, STATIC
        LOCFRAME DOVERLAY, 0, STATIC
        ARGFRAME ISTACK, 0, STACK
        ARGFRAME PSTACK, 0, STACK
        ARGFRAME XSTACK, 14, STACK
        ARGFRAME IOVERLAY, 0, STATIC
        ARGFRAME DOVERLAY, 0, STATIC
        FUNCALL ZDOInitDevice, NLME_SetBroadcastFilter
        LOCFRAME ISTACK, 0, STACK
        LOCFRAME PSTACK, 0, STACK
        LOCFRAME XSTACK, 14, STACK
        LOCFRAME IOVERLAY, 0, STATIC
        LOCFRAME DOVERLAY, 0, STATIC
        ARGFRAME ISTACK, 0, STACK
        ARGFRAME PSTACK, 0, STACK
        ARGFRAME XSTACK, 14, STACK
        ARGFRAME IOVERLAY, 0, STATIC
        ARGFRAME DOVERLAY, 0, STATIC
        MOV     A,#-0xc
        LCALL   ?BANKED_ENTER_XDATA
          CFI DPH0 load(1, XDATA, add(CFA_XSP16, literal(-1)))
          CFI DPL0 load(1, XDATA, add(CFA_XSP16, literal(-2)))
          CFI ?BRET_EXT load(1, XDATA, add(CFA_XSP16, literal(-3)))
          CFI ?RET_HIGH load(1, XDATA, add(CFA_XSP16, literal(-4)))
          CFI ?RET_LOW load(1, XDATA, add(CFA_XSP16, literal(-5)))
          CFI R7 load(1, XDATA, add(CFA_XSP16, literal(-6)))
          CFI V3 load(1, XDATA, add(CFA_XSP16, literal(-7)))
          CFI V2 load(1, XDATA, add(CFA_XSP16, literal(-8)))
          CFI V1 load(1, XDATA, add(CFA_XSP16, literal(-9)))
          CFI V0 load(1, XDATA, add(CFA_XSP16, literal(-10)))
          CFI VB load(1, XDATA, add(CFA_XSP16, literal(-11)))
          CFI R6 load(1, XDATA, add(CFA_XSP16, literal(-12)))
          CFI CFA_SP SP+0
          CFI CFA_XSP16 add(XSP16, 12)
        ; Saved register size: 12
        ; Auto size: 2
        MOV     A,#-0x2
        LCALL   ?ALLOC_XSTACK8
          CFI CFA_XSP16 add(XSP16, 14)
        LCALL   ?Subroutine12 & 0xFFFF
//  671   uint8 networkStateNV = ZDO_INITDEV_NEW_NETWORK_STATE;
??CrossCallReturnLabel_100:
        MOV     ?V0 + 0,#0x1
//  672   uint16 extendedDelay = 0;
        MOV     R6,#0x0
        MOV     R7,#0x0
//  673 
//  674   if ( devState == DEV_HOLD )
        MOV     DPTR,#devState
        MOVX    A,@DPTR
        JNZ     ??ZDOInitDevice_0
//  675   {
//  676     // Initialize the RAM items table, in case an NV item has been updated.
//  677     zgInitItems( FALSE );
        ; Setup parameters for call to function zgInitItems
        MOV     R1,#0x0
        LCALL   ??zgInitItems?relay
//  678   }
//  679 
//  680   ZDConfig_InitDescriptors();
??ZDOInitDevice_0:
        ; Setup parameters for call to function ZDConfig_InitDescriptors
        LCALL   ??ZDConfig_InitDescriptors?relay
//  681   //devtag.071807.todo - fix this temporary solution
//  682   _NIB.CapabilityFlags = ZDO_Config_Node_Descriptor.CapabilityFlags;
        MOV     DPTR,#ZDO_Config_Node_Descriptor + 2
        MOVX    A,@DPTR
        MOV     DPTR,#_NIB + 14
        MOVX    @DPTR,A
//  683 
//  684 #if defined ( NV_RESTORE )
//  685   // Hold down the SW_BYPASS_NV key (defined in OnBoard.h)
//  686   // while booting to skip past NV Restore.
//  687   if ( zdappHoldKeys == SW_BYPASS_NV )
        MOV     DPTR,#zdappHoldKeys
        MOVX    A,@DPTR
        XRL     A,#0x4
        JNZ     ??ZDOInitDevice_1
//  688   {
//  689     zdappHoldKeys = 0;   // Only once
        CLR     A
        MOVX    @DPTR,A
//  690     networkStateNV = ZDO_INITDEV_NEW_NETWORK_STATE;
//  691   }
//  692   else
//  693   {
//  694     // Determine if NV should be restored
//  695     networkStateNV = ZDApp_ReadNetworkRestoreState();
//  696   }
//  697 
//  698   if ( networkStateNV == ZDO_INITDEV_RESTORED_NETWORK_STATE )
//  699   {
//  700     networkStateNV = ZDApp_RestoreNetworkState();
//  701   }
//  702   else
//  703   {
//  704     // Wipe out the network state in NV
//  705     NLME_InitNV();
??ZDOInitDevice_2:
        ; Setup parameters for call to function NLME_InitNV
        LCALL   ??NLME_InitNV?relay
//  706     NLME_SetDefaultNV();
        ; Setup parameters for call to function NLME_SetDefaultNV
        LCALL   ??NLME_SetDefaultNV?relay
//  707     // clear NWK key values
//  708     ZDSecMgrClearNVKeyValues();
        ; Setup parameters for call to function ZDSecMgrClearNVKeyValues
        LCALL   ??ZDSecMgrClearNVKeyValues?relay
//  709   }
//  710 #endif
//  711 
//  712   if ( networkStateNV == ZDO_INITDEV_NEW_NETWORK_STATE )
??ZDOInitDevice_3:
        MOV     A,#0x1
        XRL     A,?V0 + 0
        JNZ     ??ZDOInitDevice_4
//  713   {
//  714     ZDAppDetermineDeviceType();
        ; Setup parameters for call to function ZDAppDetermineDeviceType
        LCALL   ??ZDAppDetermineDeviceType?relay
//  715 
//  716     // Only delay if joining network - not restoring network state
//  717     extendedDelay = (uint16)((NWK_START_DELAY + startDelay)
//  718               + (osal_rand() & EXTENDED_JOINING_RANDOM_MASK));
        ; Setup parameters for call to function osal_rand
        LCALL   ??osal_rand?relay
        MOV     DPL,?XSP + 0
        MOV     DPH,?XSP + 1
        MOV     A,R2
        ANL     A,#0x7f
        MOV     R0,A
        MOVX    A,@DPTR
        ADD     A,R0
        MOV     R0,A
        INC     DPTR
        MOVX    A,@DPTR
        ADDC    A,#0x0
        MOV     R1,A
        MOV     A,R0
        ADD     A,#0x64
        MOV     R6,A
        MOV     A,R1
        ADDC    A,#0x0
        MOV     R7,A
//  719   }
//  720 
//  721   // Initialize the security for type of device
//  722   ZDApp_SecInit( networkStateNV );
??ZDOInitDevice_4:
        ; Setup parameters for call to function ZDApp_SecInit
        MOV     R1,?V0 + 0
        LCALL   ??ZDApp_SecInit?relay
//  723 
//  724   if( ZDO_INIT_HOLD_NWK_START != startDelay )
        MOV     DPL,?XSP + 0
        MOV     DPH,?XSP + 1
        MOVX    A,@DPTR
        CPL     A
        JNZ     ??ZDOInitDevice_5
        INC     DPTR
        MOVX    A,@DPTR
        CPL     A
??ZDOInitDevice_5:
        JZ      ??ZDOInitDevice_6
//  725   {
//  726     devState = DEV_INIT;    // Remove the Hold state
        MOV     DPTR,#devState
        MOV     A,#0x1
        MOVX    @DPTR,A
//  727 
//  728     // Initialize leave control logic
//  729     ZDApp_LeaveCtrlInit();
        ; Setup parameters for call to function ZDApp_LeaveCtrlInit
        LCALL   ??ZDApp_LeaveCtrlInit?relay
//  730 
//  731     // Check leave control reset settings
//  732     ZDApp_LeaveCtrlStartup( &devState, &startDelay );
        ; Setup parameters for call to function ZDApp_LeaveCtrlStartup
        MOV     DPL,?XSP + 0
        MOV     DPH,?XSP + 1
        MOV     R4,DPL
        MOV     R5,DPH
        MOV     R2,#devState & 0xff
        MOV     R3,#(devState >> 8) & 0xff
        LCALL   ??ZDApp_LeaveCtrlStartup?relay
//  733 
//  734     // Leave may make the hold state come back
//  735     if ( devState == DEV_HOLD )
        MOV     DPTR,#devState
        MOVX    A,@DPTR
        JNZ     ??ZDOInitDevice_7
//  736     {
//  737       // Set the NV startup option to force a "new" join.
//  738       zgWriteStartupOptions( ZG_STARTUP_SET, ZCD_STARTOPT_DEFAULT_NETWORK_STATE );
        ; Setup parameters for call to function zgWriteStartupOptions
        MOV     R2,#0x2
        MOV     R1,#-0x1
        LCALL   ??zgWriteStartupOptions?relay
//  739 
//  740       // Notify the applications
//  741       osal_set_event( ZDAppTaskID, ZDO_STATE_CHANGE_EVT );
        ; Setup parameters for call to function osal_set_event
        MOV     R2,#0x10
        MOV     R3,#0x0
        MOV     DPTR,#ZDAppTaskID
        MOVX    A,@DPTR
        MOV     R1,A
        LCALL   ??osal_set_event?relay
//  742 
//  743       return ( ZDO_INITDEV_LEAVE_NOT_STARTED );   // Don't join - (one time).
        MOV     R1,#0x2
        SJMP    ??ZDOInitDevice_8
//  744     }
??ZDOInitDevice_1:
        ; Setup parameters for call to function ZDApp_ReadNetworkRestoreState
        LCALL   ??ZDApp_ReadNetworkRestoreState?relay
        MOV     A,R1
        MOV     ?V0 + 0,A
        JZ      $+5
        LJMP    ??ZDOInitDevice_2 & 0xFFFF
        ; Setup parameters for call to function ZDApp_RestoreNetworkState
        LCALL   ??ZDApp_RestoreNetworkState?relay
        MOV     A,R1
        MOV     ?V0 + 0,A
        LJMP    ??ZDOInitDevice_3 & 0xFFFF
//  745 
//  746     // Trigger the network start
//  747     ZDApp_NetworkInit( extendedDelay );
??ZDOInitDevice_7:
        ; Setup parameters for call to function ZDApp_NetworkInit
        MOV     A,R6
        MOV     R2,A
        MOV     A,R7
        MOV     R3,A
        LCALL   ??ZDApp_NetworkInit?relay
//  748   }
//  749 
//  750   // set broadcast address mask to support broadcast filtering
//  751   NLME_SetBroadcastFilter( ZDO_Config_Node_Descriptor.CapabilityFlags );
??ZDOInitDevice_6:
        ; Setup parameters for call to function NLME_SetBroadcastFilter
        MOV     DPTR,#ZDO_Config_Node_Descriptor + 2
        MOVX    A,@DPTR
        MOV     R1,A
        LCALL   ??NLME_SetBroadcastFilter?relay
//  752 
//  753   return ( networkStateNV );
        MOV     R1,?V0 + 0
??ZDOInitDevice_8:
        MOV     A,#0x2
        LJMP    ?Subroutine3 & 0xFFFF
          CFI EndBlock cfiBlock15
//  754 }
//  755 
//  756 /*********************************************************************
//  757  * @fn      ZDApp_ReadNetworkRestoreState
//  758  *
//  759  * @brief   Read the ZCD_NV_STARTUP_OPTION NV Item to state whether
//  760  *          or not to restore the network state.
//  761  *          If the read value has the ZCD_STARTOPT_DEFAULT_NETWORK_STATE
//  762  *          bit set return the ZDO_INITDEV_NEW_NETWORK_STATE.
//  763  *
//  764  * @param   none
//  765  *
//  766  * @return  ZDO_INITDEV_NEW_NETWORK_STATE
//  767  *          or ZDO_INITDEV_RESTORED_NETWORK_STATE based on whether or
//  768  *          not ZCD_STARTOPT_DEFAULT_NETWORK_STATE bit is set in
//  769  *          ZCD_NV_STARTUP_OPTION
//  770  */

        RSEG BANKED_CODE:CODE:NOROOT(0)
//  771 uint8 ZDApp_ReadNetworkRestoreState( void )
ZDApp_ReadNetworkRestoreState:
          CFI Block cfiBlock16 Using cfiCommon0
          CFI Function ZDApp_ReadNetworkRestoreState
        CODE
//  772 {
        FUNCALL ZDApp_ReadNetworkRestoreState, zgReadStartupOptions
        LOCFRAME ISTACK, 0, STACK
        LOCFRAME PSTACK, 0, STACK
        LOCFRAME XSTACK, 9, STACK
        LOCFRAME IOVERLAY, 0, STATIC
        LOCFRAME DOVERLAY, 0, STATIC
        ARGFRAME ISTACK, 0, STACK
        ARGFRAME PSTACK, 0, STACK
        ARGFRAME XSTACK, 9, STACK
        ARGFRAME IOVERLAY, 0, STATIC
        ARGFRAME DOVERLAY, 0, STATIC
        MOV     A,#-0x9
        LCALL   ?BANKED_ENTER_XDATA
          CFI DPH0 load(1, XDATA, add(CFA_XSP16, literal(-1)))
          CFI DPL0 load(1, XDATA, add(CFA_XSP16, literal(-2)))
          CFI ?BRET_EXT load(1, XDATA, add(CFA_XSP16, literal(-3)))
          CFI ?RET_HIGH load(1, XDATA, add(CFA_XSP16, literal(-4)))
          CFI ?RET_LOW load(1, XDATA, add(CFA_XSP16, literal(-5)))
          CFI R7 load(1, XDATA, add(CFA_XSP16, literal(-6)))
          CFI V0 load(1, XDATA, add(CFA_XSP16, literal(-7)))
          CFI VB load(1, XDATA, add(CFA_XSP16, literal(-8)))
          CFI R6 load(1, XDATA, add(CFA_XSP16, literal(-9)))
          CFI CFA_SP SP+0
          CFI CFA_XSP16 add(XSP16, 9)
        ; Saved register size: 9
        ; Auto size: 0
//  773   uint8 networkStateNV = ZDO_INITDEV_RESTORED_NETWORK_STATE;
        MOV     R6,#0x0
//  774 
//  775   // Look for the New Network State option.
//  776   if ( zgReadStartupOptions() & ZCD_STARTOPT_DEFAULT_NETWORK_STATE )
        ; Setup parameters for call to function zgReadStartupOptions
        LCALL   ??zgReadStartupOptions?relay
        MOV     A,R1
        MOV     C,0xE0 /* A   */.1
        JNC     ??ZDApp_ReadNetworkRestoreState_0
//  777   {
//  778     networkStateNV = ZDO_INITDEV_NEW_NETWORK_STATE;
        INC     R6
//  779   }
//  780 
//  781   return ( networkStateNV );
??ZDApp_ReadNetworkRestoreState_0:
        MOV     A,R6
        MOV     R1,A
        LJMP    ??Subroutine44_0 & 0xFFFF
          CFI EndBlock cfiBlock16
//  782 }
//  783 
//  784 /*********************************************************************
//  785  * @fn      ZDAppDetermineDeviceType()
//  786  *
//  787  * @brief   Determines the type of device to start.
//  788  *
//  789  *          Looks at zgDeviceLogicalType and determines what type of
//  790  *          device to start.  The types are:
//  791  *            ZG_DEVICETYPE_COORDINATOR
//  792  *            ZG_DEVICETYPE_ROUTER
//  793  *            ZG_DEVICETYPE_ENDDEVICE
//  794  *
//  795  * @param   none
//  796  *
//  797  * @return  none
//  798  */

        RSEG BANKED_CODE:CODE:NOROOT(0)
//  799 void ZDAppDetermineDeviceType( void )
ZDAppDetermineDeviceType:
          CFI Block cfiBlock17 Using cfiCommon0
          CFI Function ZDAppDetermineDeviceType
        CODE
//  800 {
        FUNCALL ZDAppDetermineDeviceType, nwk_ExtPANIDValid
        LOCFRAME ISTACK, 2, STACK
        LOCFRAME PSTACK, 0, STACK
        LOCFRAME XSTACK, 0, STACK
        LOCFRAME IOVERLAY, 0, STATIC
        LOCFRAME DOVERLAY, 0, STATIC
        ARGFRAME ISTACK, 2, STACK
        ARGFRAME PSTACK, 0, STACK
        ARGFRAME XSTACK, 0, STACK
        ARGFRAME IOVERLAY, 0, STATIC
        ARGFRAME DOVERLAY, 0, STATIC
        PUSH    DPL
          CFI DPL0 Frame(CFA_SP, 4)
          CFI CFA_SP SP+-4
        PUSH    DPH
          CFI DPH0 Frame(CFA_SP, 5)
          CFI CFA_SP SP+-5
        ; Saved register size: 2
        ; Auto size: 0
//  801   if ( zgDeviceLogicalType == ZG_DEVICETYPE_COORDINATOR )
        MOV     DPTR,#zgDeviceLogicalType
        MOVX    A,@DPTR
        JNZ     ??ZDAppDetermineDeviceType_0
//  802   {
//  803     devStartMode = MODE_HARD;     // Start as a coordinator
        MOV     DPTR,#devStartMode
        MOV     A,#0x2
        MOVX    @DPTR,A
//  804     ZDO_Config_Node_Descriptor.LogicalType = NODETYPE_COORDINATOR;
        MOV     DPTR,#ZDO_Config_Node_Descriptor
        MOVX    A,@DPTR
        ANL     A,#0xf8
        SJMP    ??ZDAppDetermineDeviceType_1
//  805   }
//  806   else
//  807   {
//  808     if ( zgDeviceLogicalType == ZG_DEVICETYPE_ROUTER  )
??ZDAppDetermineDeviceType_0:
        MOV     DPTR,#ZDO_Config_Node_Descriptor
        MOVX    A,@DPTR
        ANL     A,#0xf8
        MOV     R0,A
        MOV     DPTR,#zgDeviceLogicalType
        MOVX    A,@DPTR
        XRL     A,#0x1
        JNZ     ??ZDAppDetermineDeviceType_2
//  809       ZDO_Config_Node_Descriptor.LogicalType = NODETYPE_ROUTER;
        MOV     A,#0x1
        SJMP    ??ZDAppDetermineDeviceType_3
//  810     else if ( zgDeviceLogicalType == ZG_DEVICETYPE_ENDDEVICE )
??ZDAppDetermineDeviceType_2:
        MOVX    A,@DPTR
        XRL     A,#0x2
        JNZ     ??ZDAppDetermineDeviceType_4
//  811       ZDO_Config_Node_Descriptor.LogicalType = NODETYPE_DEVICE;
        MOV     A,#0x2
??ZDAppDetermineDeviceType_3:
        ORL     A,R0
        MOV     DPTR,#ZDO_Config_Node_Descriptor
        MOVX    @DPTR,A
//  812 
//  813     // If AIB_apsUseExtendedPANID is set to a non-zero value by commissioning
//  814     // The device shall do rejoin the network. Otherwise, do normal join
//  815     if ( nwk_ExtPANIDValid( AIB_apsUseExtendedPANID ) == false )
??ZDAppDetermineDeviceType_4:
        ; Setup parameters for call to function nwk_ExtPANIDValid
        MOV     R2,#AIB_apsUseExtendedPANID & 0xff
        MOV     R3,#(AIB_apsUseExtendedPANID >> 8) & 0xff
        LCALL   ??nwk_ExtPANIDValid?relay
        MOV     A,R1
        MOV     DPTR,#devStartMode
        JNZ     ??ZDAppDetermineDeviceType_5
//  816     {
//  817       devStartMode = MODE_JOIN;     // Assume joining
        CLR     A
        SJMP    ??ZDAppDetermineDeviceType_1
//  818     }
//  819     else
//  820     {
//  821       devStartMode = MODE_REJOIN;
??ZDAppDetermineDeviceType_5:
        MOV     A,#0x3
??ZDAppDetermineDeviceType_1:
        MOVX    @DPTR,A
//  822     }
//  823   }
//  824 }
        LJMP    ??Subroutine40_0 & 0xFFFF
          CFI EndBlock cfiBlock17
//  825 
//  826 /*********************************************************************
//  827  * @fn      ZDApp_NetworkStartEvt()
//  828  *
//  829  * @brief   Process the Network Start Event
//  830  *
//  831  * @param   none
//  832  *
//  833  * @return  none
//  834  */

        RSEG BANKED_CODE:CODE:NOROOT(0)
//  835 void ZDApp_NetworkStartEvt( void )
ZDApp_NetworkStartEvt:
          CFI Block cfiBlock18 Using cfiCommon0
          CFI Function ZDApp_NetworkStartEvt
        CODE
//  836 {
        FUNCALL ZDApp_NetworkStartEvt, osal_pwrmgr_device
        LOCFRAME ISTACK, 2, STACK
        LOCFRAME PSTACK, 0, STACK
        LOCFRAME XSTACK, 0, STACK
        LOCFRAME IOVERLAY, 0, STATIC
        LOCFRAME DOVERLAY, 0, STATIC
        ARGFRAME ISTACK, 2, STACK
        ARGFRAME PSTACK, 0, STACK
        ARGFRAME XSTACK, 0, STACK
        ARGFRAME IOVERLAY, 0, STATIC
        ARGFRAME DOVERLAY, 0, STATIC
        FUNCALL ZDApp_NetworkStartEvt, osal_set_event
        LOCFRAME ISTACK, 2, STACK
        LOCFRAME PSTACK, 0, STACK
        LOCFRAME XSTACK, 0, STACK
        LOCFRAME IOVERLAY, 0, STATIC
        LOCFRAME DOVERLAY, 0, STATIC
        ARGFRAME ISTACK, 2, STACK
        ARGFRAME PSTACK, 0, STACK
        ARGFRAME XSTACK, 0, STACK
        ARGFRAME IOVERLAY, 0, STATIC
        ARGFRAME DOVERLAY, 0, STATIC
        FUNCALL ZDApp_NetworkStartEvt, NLME_GetEnergyThreshold
        LOCFRAME ISTACK, 2, STACK
        LOCFRAME PSTACK, 0, STACK
        LOCFRAME XSTACK, 0, STACK
        LOCFRAME IOVERLAY, 0, STATIC
        LOCFRAME DOVERLAY, 0, STATIC
        ARGFRAME ISTACK, 2, STACK
        ARGFRAME PSTACK, 0, STACK
        ARGFRAME XSTACK, 0, STACK
        ARGFRAME IOVERLAY, 0, STATIC
        ARGFRAME DOVERLAY, 0, STATIC
        FUNCALL ZDApp_NetworkStartEvt, NLME_GetEnergyThreshold
        LOCFRAME ISTACK, 2, STACK
        LOCFRAME PSTACK, 0, STACK
        LOCFRAME XSTACK, 0, STACK
        LOCFRAME IOVERLAY, 0, STATIC
        LOCFRAME DOVERLAY, 0, STATIC
        ARGFRAME ISTACK, 2, STACK
        ARGFRAME PSTACK, 0, STACK
        ARGFRAME XSTACK, 0, STACK
        ARGFRAME IOVERLAY, 0, STATIC
        ARGFRAME DOVERLAY, 0, STATIC
        FUNCALL ZDApp_NetworkStartEvt, NLME_SetEnergyThreshold
        LOCFRAME ISTACK, 2, STACK
        LOCFRAME PSTACK, 0, STACK
        LOCFRAME XSTACK, 0, STACK
        LOCFRAME IOVERLAY, 0, STATIC
        LOCFRAME DOVERLAY, 0, STATIC
        ARGFRAME ISTACK, 2, STACK
        ARGFRAME PSTACK, 0, STACK
        ARGFRAME XSTACK, 0, STACK
        ARGFRAME IOVERLAY, 0, STATIC
        ARGFRAME DOVERLAY, 0, STATIC
        FUNCALL ZDApp_NetworkStartEvt, osal_set_event
        LOCFRAME ISTACK, 2, STACK
        LOCFRAME PSTACK, 0, STACK
        LOCFRAME XSTACK, 0, STACK
        LOCFRAME IOVERLAY, 0, STATIC
        LOCFRAME DOVERLAY, 0, STATIC
        ARGFRAME ISTACK, 2, STACK
        ARGFRAME PSTACK, 0, STACK
        ARGFRAME XSTACK, 0, STACK
        ARGFRAME IOVERLAY, 0, STATIC
        ARGFRAME DOVERLAY, 0, STATIC
        FUNCALL ZDApp_NetworkStartEvt, osal_set_event
        LOCFRAME ISTACK, 2, STACK
        LOCFRAME PSTACK, 0, STACK
        LOCFRAME XSTACK, 0, STACK
        LOCFRAME IOVERLAY, 0, STATIC
        LOCFRAME DOVERLAY, 0, STATIC
        ARGFRAME ISTACK, 2, STACK
        ARGFRAME PSTACK, 0, STACK
        ARGFRAME XSTACK, 0, STACK
        ARGFRAME IOVERLAY, 0, STATIC
        ARGFRAME DOVERLAY, 0, STATIC
        PUSH    DPL
          CFI DPL0 Frame(CFA_SP, 4)
          CFI CFA_SP SP+-4
        PUSH    DPH
          CFI DPH0 Frame(CFA_SP, 5)
          CFI CFA_SP SP+-5
        ; Saved register size: 2
        ; Auto size: 0
//  837   if ( nwkStatus == ZSuccess )
        MOV     DPTR,#nwkStatus
        MOVX    A,@DPTR
        JNZ     ??ZDApp_NetworkStartEvt_0
//  838   {
//  839     // Successfully started a ZigBee network
//  840     if ( devState == DEV_COORD_STARTING )
        MOV     DPTR,#devState
        MOVX    A,@DPTR
        XRL     A,#0x8
        JNZ     ??ZDApp_NetworkStartEvt_1
//  841     {
//  842       devState = DEV_ZB_COORD;
        MOV     A,#0x9
        MOVX    @DPTR,A
//  843     }
//  844 
//  845     osal_pwrmgr_device( PWRMGR_ALWAYS_ON );
??ZDApp_NetworkStartEvt_1:
        ; Setup parameters for call to function osal_pwrmgr_device
        MOV     R1,#0x0
        LCALL   ??osal_pwrmgr_device?relay
//  846     osal_set_event( ZDAppTaskID, ZDO_STATE_CHANGE_EVT );
        ; Setup parameters for call to function osal_set_event
        SJMP    ??ZDApp_NetworkStartEvt_2
//  847   }
//  848   else
//  849   {
//  850     // Try again with a higher energy threshold
//  851     if ( ( NLME_GetEnergyThreshold() + ENERGY_SCAN_INCREMENT ) < 0xff )
??ZDApp_NetworkStartEvt_0:
        ; Setup parameters for call to function NLME_GetEnergyThreshold
        LCALL   ??NLME_GetEnergyThreshold?relay
        MOV     A,R1
        ADD     A,#0x10
        MOV     R0,A
        CLR     A
        ADDC    A,#0x0
        MOV     R1,A
        MOV     A,R0
        SUBB    A,#-0x1
        MOV     A,R1
        SUBB    A,#0x0
        CLR     C
        XRL     A,PSW
        RLC     A
        JNC     ??ZDApp_NetworkStartEvt_3
//  852     {
//  853       NLME_SetEnergyThreshold( (uint8)(NLME_GetEnergyThreshold() + ENERGY_SCAN_INCREMENT) );
        ; Setup parameters for call to function NLME_SetEnergyThreshold
        ; Setup parameters for call to function NLME_GetEnergyThreshold
        LCALL   ??NLME_GetEnergyThreshold?relay
        MOV     A,R1
        ADD     A,#0x10
        MOV     R1,A
        LCALL   ??NLME_SetEnergyThreshold?relay
//  854       osal_set_event( ZDAppTaskID, ZDO_NETWORK_INIT );
        ; Setup parameters for call to function osal_set_event
        MOV     R2,#0x1
        SJMP    ??ZDApp_NetworkStartEvt_4
//  855     }
//  856     else
//  857     {
//  858       // Failed to start network. Enter a dormant state (until user intervenes)
//  859       devState = DEV_INIT;
??ZDApp_NetworkStartEvt_3:
        MOV     DPTR,#devState
        MOV     A,#0x1
        MOVX    @DPTR,A
//  860       osal_set_event( ZDAppTaskID, ZDO_STATE_CHANGE_EVT );
        ; Setup parameters for call to function osal_set_event
??ZDApp_NetworkStartEvt_2:
        MOV     R2,#0x10
??ZDApp_NetworkStartEvt_4:
        MOV     R3,#0x0
        MOV     DPTR,#ZDAppTaskID
        MOVX    A,@DPTR
        MOV     R1,A
        LCALL   ??osal_set_event?relay
//  861     }
//  862   }
//  863 }
        LJMP    ??Subroutine40_0 & 0xFFFF
          CFI EndBlock cfiBlock18
//  864 
//  865 /*********************************************************************
//  866  * @fn      ZDApp_DeviceAuthEvt()
//  867  *
//  868  * @brief   Process the Device Authentic Event
//  869  *
//  870  * @param   none
//  871  *
//  872  * @return  none
//  873  */

        RSEG BANKED_CODE:CODE:NOROOT(0)
//  874 void ZDApp_DeviceAuthEvt( void )
ZDApp_DeviceAuthEvt:
          CFI Block cfiBlock19 Using cfiCommon0
          CFI Function ZDApp_DeviceAuthEvt
        CODE
//  875 {
        FUNCALL ZDApp_DeviceAuthEvt, ZDApp_ResetTimerCancel
        LOCFRAME ISTACK, 2, STACK
        LOCFRAME PSTACK, 0, STACK
        LOCFRAME XSTACK, 0, STACK
        LOCFRAME IOVERLAY, 0, STATIC
        LOCFRAME DOVERLAY, 0, STATIC
        ARGFRAME ISTACK, 2, STACK
        ARGFRAME PSTACK, 0, STACK
        ARGFRAME XSTACK, 0, STACK
        ARGFRAME IOVERLAY, 0, STATIC
        ARGFRAME DOVERLAY, 0, STATIC
        FUNCALL ZDApp_DeviceAuthEvt, osal_set_event
        LOCFRAME ISTACK, 2, STACK
        LOCFRAME PSTACK, 0, STACK
        LOCFRAME XSTACK, 0, STACK
        LOCFRAME IOVERLAY, 0, STATIC
        LOCFRAME DOVERLAY, 0, STATIC
        ARGFRAME ISTACK, 2, STACK
        ARGFRAME PSTACK, 0, STACK
        ARGFRAME XSTACK, 0, STACK
        ARGFRAME IOVERLAY, 0, STATIC
        ARGFRAME DOVERLAY, 0, STATIC
        FUNCALL ZDApp_DeviceAuthEvt, NLME_StartRouterRequest
        LOCFRAME ISTACK, 2, STACK
        LOCFRAME PSTACK, 0, STACK
        LOCFRAME XSTACK, 0, STACK
        LOCFRAME IOVERLAY, 0, STATIC
        LOCFRAME DOVERLAY, 0, STATIC
        ARGFRAME ISTACK, 2, STACK
        ARGFRAME PSTACK, 0, STACK
        ARGFRAME XSTACK, 0, STACK
        ARGFRAME IOVERLAY, 0, STATIC
        ARGFRAME DOVERLAY, 0, STATIC
        FUNCALL ZDApp_DeviceAuthEvt, ZDApp_NVUpdate
        LOCFRAME ISTACK, 2, STACK
        LOCFRAME PSTACK, 0, STACK
        LOCFRAME XSTACK, 0, STACK
        LOCFRAME IOVERLAY, 0, STATIC
        LOCFRAME DOVERLAY, 0, STATIC
        ARGFRAME ISTACK, 2, STACK
        ARGFRAME PSTACK, 0, STACK
        ARGFRAME XSTACK, 0, STACK
        ARGFRAME IOVERLAY, 0, STATIC
        ARGFRAME DOVERLAY, 0, STATIC
        FUNCALL ZDApp_DeviceAuthEvt, ZDApp_SaveNwkKey
        LOCFRAME ISTACK, 2, STACK
        LOCFRAME PSTACK, 0, STACK
        LOCFRAME XSTACK, 0, STACK
        LOCFRAME IOVERLAY, 0, STATIC
        LOCFRAME DOVERLAY, 0, STATIC
        ARGFRAME ISTACK, 2, STACK
        ARGFRAME PSTACK, 0, STACK
        ARGFRAME XSTACK, 0, STACK
        ARGFRAME IOVERLAY, 0, STATIC
        ARGFRAME DOVERLAY, 0, STATIC
        FUNCALL ZDApp_DeviceAuthEvt, ZDApp_AnnounceNewAddress
        LOCFRAME ISTACK, 2, STACK
        LOCFRAME PSTACK, 0, STACK
        LOCFRAME XSTACK, 0, STACK
        LOCFRAME IOVERLAY, 0, STATIC
        LOCFRAME DOVERLAY, 0, STATIC
        ARGFRAME ISTACK, 2, STACK
        ARGFRAME PSTACK, 0, STACK
        ARGFRAME XSTACK, 0, STACK
        ARGFRAME IOVERLAY, 0, STATIC
        ARGFRAME DOVERLAY, 0, STATIC
        FUNCALL ZDApp_DeviceAuthEvt, NLME_SetPollRate
        LOCFRAME ISTACK, 2, STACK
        LOCFRAME PSTACK, 0, STACK
        LOCFRAME XSTACK, 0, STACK
        LOCFRAME IOVERLAY, 0, STATIC
        LOCFRAME DOVERLAY, 0, STATIC
        ARGFRAME ISTACK, 2, STACK
        ARGFRAME PSTACK, 0, STACK
        ARGFRAME XSTACK, 0, STACK
        ARGFRAME IOVERLAY, 0, STATIC
        ARGFRAME DOVERLAY, 0, STATIC
        FUNCALL ZDApp_DeviceAuthEvt, ZDApp_NVUpdate
        LOCFRAME ISTACK, 2, STACK
        LOCFRAME PSTACK, 0, STACK
        LOCFRAME XSTACK, 0, STACK
        LOCFRAME IOVERLAY, 0, STATIC
        LOCFRAME DOVERLAY, 0, STATIC
        ARGFRAME ISTACK, 2, STACK
        ARGFRAME PSTACK, 0, STACK
        ARGFRAME XSTACK, 0, STACK
        ARGFRAME IOVERLAY, 0, STATIC
        ARGFRAME DOVERLAY, 0, STATIC
        PUSH    DPL
          CFI DPL0 Frame(CFA_SP, 4)
          CFI CFA_SP SP+-4
        PUSH    DPH
          CFI DPH0 Frame(CFA_SP, 5)
          CFI CFA_SP SP+-5
        ; Saved register size: 2
        ; Auto size: 0
//  876   // received authentication from trust center
//  877   if ( devState == DEV_END_DEVICE_UNAUTH )
        MOV     DPTR,#devState
        MOVX    A,@DPTR
        XRL     A,#0x5
        JNZ     ??ZDApp_DeviceAuthEvt_0
//  878   {
//  879     // Stop the reset timer so it doesn't reset
//  880     ZDApp_ResetTimerCancel();
        ; Setup parameters for call to function ZDApp_ResetTimerCancel
        LCALL   ??ZDApp_ResetTimerCancel?relay
//  881 
//  882     devState = DEV_END_DEVICE;
        LCALL   ?Subroutine11 & 0xFFFF
//  883     osal_set_event( ZDAppTaskID, ZDO_STATE_CHANGE_EVT );
??CrossCallReturnLabel_38:
        LCALL   ??osal_set_event?relay
//  884 
//  885     // Set the Power Manager Device
//  886 #if defined ( POWER_SAVING )
//  887     osal_pwrmgr_device( PWRMGR_BATTERY );
//  888 #endif
//  889 
//  890     if ( ZSTACK_ROUTER_BUILD )
//  891     {
//  892       if ( ZDO_Config_Node_Descriptor.LogicalType != NODETYPE_DEVICE )
        LCALL   ?Subroutine21 & 0xFFFF
??CrossCallReturnLabel_11:
        JZ      ??ZDApp_DeviceAuthEvt_1
//  893       {
//  894         // NOTE: first two parameters are not used, see NLMEDE.h for details
//  895         NLME_StartRouterRequest( 0, 0, false );
        ; Setup parameters for call to function NLME_StartRouterRequest
        MOV     R3,#0x0
        MOV     R2,#0x0
        MOV     R1,#0x0
        LCALL   ??NLME_StartRouterRequest?relay
//  896       }
//  897     }
//  898 
//  899     // Notify to save info into NV
//  900     ZDApp_NVUpdate();
??ZDApp_DeviceAuthEvt_1:
        ; Setup parameters for call to function ZDApp_NVUpdate
        LCALL   ??ZDApp_NVUpdate?relay
//  901 
//  902     // Save off the security
//  903     ZDApp_SaveNwkKey();
        ; Setup parameters for call to function ZDApp_SaveNwkKey
        LCALL   ??ZDApp_SaveNwkKey?relay
//  904 
//  905     ZDApp_AnnounceNewAddress();
        ; Setup parameters for call to function ZDApp_AnnounceNewAddress
        LCALL   ??ZDApp_AnnounceNewAddress?relay
//  906 
//  907     if ( ( (ZDO_Config_Node_Descriptor.CapabilityFlags & CAPINFO_RCVR_ON_IDLE) == 0 )
//  908         || ( (ZDO_Config_Node_Descriptor.CapabilityFlags & CAPINFO_RCVR_ON_IDLE)
//  909 #if defined ( ZIGBEE_CHILD_AGING )
//  910           && (zgChildAgingEnable == TRUE)
//  911 #endif // ZIGBEE_CHILD_AGING
//  912              ) )
        MOV     DPTR,#ZDO_Config_Node_Descriptor + 2
        MOVX    A,@DPTR
        MOV     C,0xE0 /* A   */.3
        JNC     ??ZDApp_DeviceAuthEvt_2
        MOV     DPTR,#zgChildAgingEnable
        MOVX    A,@DPTR
        XRL     A,#0x1
        JNZ     ??ZDApp_DeviceAuthEvt_3
//  913     {
//  914       NLME_SetPollRate( ZDApp_SavedPollRate );
??ZDApp_DeviceAuthEvt_2:
        ; Setup parameters for call to function NLME_SetPollRate
        MOV     DPTR,#ZDApp_SavedPollRate
        LCALL   ??Subroutine42_0 & 0xFFFF
//  915     }
//  916   }
??CrossCallReturnLabel_50:
        LCALL   ??NLME_SetPollRate?relay
        SJMP    ??ZDApp_DeviceAuthEvt_3
//  917   else
//  918   {
//  919     ZDApp_NVUpdate();
??ZDApp_DeviceAuthEvt_0:
        ; Setup parameters for call to function ZDApp_NVUpdate
        LCALL   ??ZDApp_NVUpdate?relay
//  920   }
//  921 }
??ZDApp_DeviceAuthEvt_3:
        LJMP    ??Subroutine40_0 & 0xFFFF
          CFI EndBlock cfiBlock19

        RSEG BANKED_CODE:CODE:NOROOT(0)
?Subroutine11:
          CFI Block cfiCond20 Using cfiCommon0
          CFI Function ZDApp_DeviceAuthEvt
          CFI Conditional ??CrossCallReturnLabel_38
          CFI DPL0 Frame(CFA_SP, 4)
          CFI DPH0 Frame(CFA_SP, 5)
          CFI CFA_SP SP+-5
          CFI Block cfiCond21 Using cfiCommon0
          CFI (cfiCond21) Function ZDApp_ProcessNetworkJoin
          CFI (cfiCond21) Conditional ??CrossCallReturnLabel_39
          CFI (cfiCond21) R6 load(1, XDATA, add(CFA_XSP16, literal(-10)))
          CFI (cfiCond21) VB load(1, XDATA, add(CFA_XSP16, literal(-9)))
          CFI (cfiCond21) V0 load(1, XDATA, add(CFA_XSP16, literal(-8)))
          CFI (cfiCond21) V1 load(1, XDATA, add(CFA_XSP16, literal(-7)))
          CFI (cfiCond21) R7 load(1, XDATA, add(CFA_XSP16, literal(-6)))
          CFI (cfiCond21) ?RET_LOW load(1, XDATA, add(CFA_XSP16, literal(-5)))
          CFI (cfiCond21) ?RET_HIGH load(1, XDATA, add(CFA_XSP16, literal(-4)))
          CFI (cfiCond21) ?BRET_EXT load(1, XDATA, add(CFA_XSP16, literal(-3)))
          CFI (cfiCond21) DPL0 load(1, XDATA, add(CFA_XSP16, literal(-2)))
          CFI (cfiCond21) DPH0 load(1, XDATA, add(CFA_XSP16, literal(-1)))
          CFI (cfiCond21) CFA_SP SP+0
          CFI (cfiCond21) CFA_XSP16 add(XSP16, 12)
          CFI Block cfiPicker22 Using cfiCommon1
          CFI (cfiPicker22) NoFunction
          CFI (cfiPicker22) Picker
        MOV     DPTR,#devState
        MOV     A,#0x6
          CFI EndBlock cfiCond20
          CFI EndBlock cfiCond21
          CFI EndBlock cfiPicker22
        REQUIRE ??Subroutine37_0
        ; // Fall through to label ??Subroutine37_0

        RSEG BANKED_CODE:CODE:NOROOT(0)
??Subroutine37_0:
          CFI Block cfiCond23 Using cfiCommon0
          CFI Function ZDApp_event_loop
          CFI Conditional ??CrossCallReturnLabel_40
          CFI R6 load(1, XDATA, add(CFA_XSP16, literal(-14)))
          CFI VB load(1, XDATA, add(CFA_XSP16, literal(-13)))
          CFI V0 load(1, XDATA, add(CFA_XSP16, literal(-12)))
          CFI V1 load(1, XDATA, add(CFA_XSP16, literal(-11)))
          CFI V2 load(1, XDATA, add(CFA_XSP16, literal(-10)))
          CFI V3 load(1, XDATA, add(CFA_XSP16, literal(-9)))
          CFI V4 load(1, XDATA, add(CFA_XSP16, literal(-8)))
          CFI V5 load(1, XDATA, add(CFA_XSP16, literal(-7)))
          CFI R7 load(1, XDATA, add(CFA_XSP16, literal(-6)))
          CFI ?RET_LOW load(1, XDATA, add(CFA_XSP16, literal(-5)))
          CFI ?RET_HIGH load(1, XDATA, add(CFA_XSP16, literal(-4)))
          CFI ?BRET_EXT load(1, XDATA, add(CFA_XSP16, literal(-3)))
          CFI DPL0 load(1, XDATA, add(CFA_XSP16, literal(-2)))
          CFI DPH0 load(1, XDATA, add(CFA_XSP16, literal(-1)))
          CFI CFA_SP SP+0
          CFI CFA_XSP16 add(XSP16, 14)
          CFI Block cfiCond24 Using cfiCommon0
          CFI (cfiCond24) Function ZDApp_DeviceAuthEvt
          CFI (cfiCond24) Conditional ??CrossCallReturnLabel_38
          CFI (cfiCond24) DPL0 Frame(CFA_SP, 4)
          CFI (cfiCond24) DPH0 Frame(CFA_SP, 5)
          CFI (cfiCond24) CFA_SP SP+-5
          CFI Block cfiCond25 Using cfiCommon0
          CFI (cfiCond25) Function ZDApp_ProcessNetworkJoin
          CFI (cfiCond25) Conditional ??CrossCallReturnLabel_39
          CFI (cfiCond25) R6 load(1, XDATA, add(CFA_XSP16, literal(-10)))
          CFI (cfiCond25) VB load(1, XDATA, add(CFA_XSP16, literal(-9)))
          CFI (cfiCond25) V0 load(1, XDATA, add(CFA_XSP16, literal(-8)))
          CFI (cfiCond25) V1 load(1, XDATA, add(CFA_XSP16, literal(-7)))
          CFI (cfiCond25) R7 load(1, XDATA, add(CFA_XSP16, literal(-6)))
          CFI (cfiCond25) ?RET_LOW load(1, XDATA, add(CFA_XSP16, literal(-5)))
          CFI (cfiCond25) ?RET_HIGH load(1, XDATA, add(CFA_XSP16, literal(-4)))
          CFI (cfiCond25) ?BRET_EXT load(1, XDATA, add(CFA_XSP16, literal(-3)))
          CFI (cfiCond25) DPL0 load(1, XDATA, add(CFA_XSP16, literal(-2)))
          CFI (cfiCond25) DPH0 load(1, XDATA, add(CFA_XSP16, literal(-1)))
          CFI (cfiCond25) CFA_SP SP+0
          CFI (cfiCond25) CFA_XSP16 add(XSP16, 12)
          CFI Block cfiPicker26 Using cfiCommon1
          CFI (cfiPicker26) NoFunction
          CFI (cfiPicker26) Picker
        MOVX    @DPTR,A
        ; Setup parameters for call to function osal_set_event
        ; Setup parameters for call to function osal_set_event
        ; Setup parameters for call to function osal_set_event
        MOV     R2,#0x10
        MOV     R3,#0x0
        MOV     DPTR,#ZDAppTaskID
        MOVX    A,@DPTR
        MOV     R1,A
        RET
          CFI EndBlock cfiCond23
          CFI EndBlock cfiCond24
          CFI EndBlock cfiCond25
          CFI EndBlock cfiPicker26
//  922 
//  923 /*********************************************************************
//  924  * @fn      ZDApp_SaveNetworkStateEvt()
//  925  *
//  926  * @brief   Process the Save the Network State Event
//  927  *
//  928  * @param   none
//  929  *
//  930  * @return  none
//  931  */

        RSEG BANKED_CODE:CODE:NOROOT(0)
//  932 void ZDApp_SaveNetworkStateEvt( void )
ZDApp_SaveNetworkStateEvt:
          CFI Block cfiBlock27 Using cfiCommon0
          CFI Function ZDApp_SaveNetworkStateEvt
        CODE
//  933 {
        FUNCALL ZDApp_SaveNetworkStateEvt, NLME_UpdateNV
        LOCFRAME ISTACK, 2, STACK
        LOCFRAME PSTACK, 0, STACK
        LOCFRAME XSTACK, 0, STACK
        LOCFRAME IOVERLAY, 0, STATIC
        LOCFRAME DOVERLAY, 0, STATIC
        ARGFRAME ISTACK, 2, STACK
        ARGFRAME PSTACK, 0, STACK
        ARGFRAME XSTACK, 0, STACK
        ARGFRAME IOVERLAY, 0, STATIC
        ARGFRAME DOVERLAY, 0, STATIC
        FUNCALL ZDApp_SaveNetworkStateEvt, zgWriteStartupOptions
        LOCFRAME ISTACK, 2, STACK
        LOCFRAME PSTACK, 0, STACK
        LOCFRAME XSTACK, 0, STACK
        LOCFRAME IOVERLAY, 0, STATIC
        LOCFRAME DOVERLAY, 0, STATIC
        ARGFRAME ISTACK, 2, STACK
        ARGFRAME PSTACK, 0, STACK
        ARGFRAME XSTACK, 0, STACK
        ARGFRAME IOVERLAY, 0, STATIC
        ARGFRAME DOVERLAY, 0, STATIC
        PUSH    DPL
          CFI DPL0 Frame(CFA_SP, 4)
          CFI CFA_SP SP+-4
        PUSH    DPH
          CFI DPH0 Frame(CFA_SP, 5)
          CFI CFA_SP SP+-5
        ; Saved register size: 2
        ; Auto size: 0
//  934 #if defined ( NV_RESTORE )
//  935  #if defined ( NV_TURN_OFF_RADIO )
//  936   // Turn off the radio's receiver during an NV update
//  937   uint8 RxOnIdle;
//  938   uint8 x = false;
//  939   ZMacGetReq( ZMacRxOnIdle, &RxOnIdle );
//  940   ZMacSetReq( ZMacRxOnIdle, &x );
//  941  #endif
//  942 
//  943   // Update the Network State in NV
//  944   NLME_UpdateNV( NWK_NV_NIB_ENABLE        |
//  945                  NWK_NV_DEVICELIST_ENABLE |
//  946                  NWK_NV_BINDING_ENABLE    |
//  947                  NWK_NV_ADDRMGR_ENABLE );
        ; Setup parameters for call to function NLME_UpdateNV
        MOV     R1,#0xf
        LCALL   ??NLME_UpdateNV?relay
//  948 
//  949   // Reset the NV startup option to resume from NV by
//  950   // clearing the "New" join option.
//  951   zgWriteStartupOptions( FALSE, ZCD_STARTOPT_DEFAULT_NETWORK_STATE );
        ; Setup parameters for call to function zgWriteStartupOptions
        MOV     R2,#0x2
        MOV     R1,#0x0
        LCALL   ??zgWriteStartupOptions?relay
//  952 
//  953  #if defined ( NV_TURN_OFF_RADIO )
//  954   ZMacSetReq( ZMacRxOnIdle, &RxOnIdle );
//  955  #endif
//  956 #endif // NV_RESTORE
//  957 }
        LJMP    ??Subroutine40_0 & 0xFFFF
          CFI EndBlock cfiBlock27
//  958 
//  959 #if defined ( NV_RESTORE )
//  960 /*********************************************************************
//  961  * @fn      ZDApp_RestoreNetworkState()
//  962  *
//  963  * @brief   This function will restore the network state of the
//  964  *          device if the network state is stored in NV.
//  965  *
//  966  * @param   none
//  967  *
//  968  * @return
//  969  *    ZDO_INITDEV_RESTORED_NETWORK_STATE  - The device's network state was
//  970  *          restored.
//  971  *    ZDO_INITDEV_NEW_NETWORK_STATE - The network state was not used.
//  972  *          This could mean that zgStartupOption said to not restore, or
//  973  *          it could mean that there was no network state to restore.
//  974  *
//  975  */

        RSEG BANKED_CODE:CODE:NOROOT(0)
//  976 uint8 ZDApp_RestoreNetworkState( void )
ZDApp_RestoreNetworkState:
          CFI Block cfiBlock28 Using cfiCommon0
          CFI Function ZDApp_RestoreNetworkState
        CODE
//  977 {
        FUNCALL ZDApp_RestoreNetworkState, NLME_InitNV
        LOCFRAME ISTACK, 0, STACK
        LOCFRAME PSTACK, 0, STACK
        LOCFRAME XSTACK, 9, STACK
        LOCFRAME IOVERLAY, 0, STATIC
        LOCFRAME DOVERLAY, 0, STATIC
        ARGFRAME ISTACK, 0, STACK
        ARGFRAME PSTACK, 0, STACK
        ARGFRAME XSTACK, 9, STACK
        ARGFRAME IOVERLAY, 0, STATIC
        ARGFRAME DOVERLAY, 0, STATIC
        FUNCALL ZDApp_RestoreNetworkState, NLME_RestoreFromNV
        LOCFRAME ISTACK, 0, STACK
        LOCFRAME PSTACK, 0, STACK
        LOCFRAME XSTACK, 9, STACK
        LOCFRAME IOVERLAY, 0, STATIC
        LOCFRAME DOVERLAY, 0, STATIC
        ARGFRAME ISTACK, 0, STACK
        ARGFRAME PSTACK, 0, STACK
        ARGFRAME XSTACK, 9, STACK
        ARGFRAME IOVERLAY, 0, STATIC
        ARGFRAME DOVERLAY, 0, STATIC
        FUNCALL ZDApp_RestoreNetworkState, NLME_GetShortAddr
        LOCFRAME ISTACK, 0, STACK
        LOCFRAME PSTACK, 0, STACK
        LOCFRAME XSTACK, 9, STACK
        LOCFRAME IOVERLAY, 0, STATIC
        LOCFRAME DOVERLAY, 0, STATIC
        ARGFRAME ISTACK, 0, STACK
        ARGFRAME PSTACK, 0, STACK
        ARGFRAME XSTACK, 9, STACK
        ARGFRAME IOVERLAY, 0, STATIC
        ARGFRAME DOVERLAY, 0, STATIC
        FUNCALL ZDApp_RestoreNetworkState, sAddrExtCpy
        LOCFRAME ISTACK, 0, STACK
        LOCFRAME PSTACK, 0, STACK
        LOCFRAME XSTACK, 9, STACK
        LOCFRAME IOVERLAY, 0, STATIC
        LOCFRAME DOVERLAY, 0, STATIC
        ARGFRAME ISTACK, 0, STACK
        ARGFRAME PSTACK, 0, STACK
        ARGFRAME XSTACK, 9, STACK
        ARGFRAME IOVERLAY, 0, STATIC
        ARGFRAME DOVERLAY, 0, STATIC
        MOV     A,#-0x9
        LCALL   ?BANKED_ENTER_XDATA
          CFI DPH0 load(1, XDATA, add(CFA_XSP16, literal(-1)))
          CFI DPL0 load(1, XDATA, add(CFA_XSP16, literal(-2)))
          CFI ?BRET_EXT load(1, XDATA, add(CFA_XSP16, literal(-3)))
          CFI ?RET_HIGH load(1, XDATA, add(CFA_XSP16, literal(-4)))
          CFI ?RET_LOW load(1, XDATA, add(CFA_XSP16, literal(-5)))
          CFI R7 load(1, XDATA, add(CFA_XSP16, literal(-6)))
          CFI V0 load(1, XDATA, add(CFA_XSP16, literal(-7)))
          CFI VB load(1, XDATA, add(CFA_XSP16, literal(-8)))
          CFI R6 load(1, XDATA, add(CFA_XSP16, literal(-9)))
          CFI CFA_SP SP+0
          CFI CFA_XSP16 add(XSP16, 9)
        ; Saved register size: 9
        ; Auto size: 0
//  978   uint8 nvStat;
//  979 
//  980   // Initialize NWK NV items
//  981   nvStat = NLME_InitNV();
        ; Setup parameters for call to function NLME_InitNV
        LCALL   ??NLME_InitNV?relay
        MOV     A,R1
        MOV     R6,A
//  982 
//  983   if ( nvStat != NV_OPER_FAILED )
        MOV     A,#0xa
        XRL     A,R6
        JZ      ??ZDApp_RestoreNetworkState_0
//  984   {
//  985     if ( NLME_RestoreFromNV() )
        ; Setup parameters for call to function NLME_RestoreFromNV
        LCALL   ??NLME_RestoreFromNV?relay
        MOV     A,R1
        JZ      ??ZDApp_RestoreNetworkState_1
//  986     {
//  987       // Are we a coordinator
//  988       ZDAppNwkAddr.addr.shortAddr = NLME_GetShortAddr();
        ; Setup parameters for call to function NLME_GetShortAddr
        LCALL   ??NLME_GetShortAddr?relay
        MOV     DPTR,#ZDAppNwkAddr
        LCALL   ??Subroutine50_0 & 0xFFFF
//  989       if ( ZDAppNwkAddr.addr.shortAddr == 0 )
??CrossCallReturnLabel_95:
        MOV     DPTR,#ZDAppNwkAddr
        LCALL   ??Subroutine43_0 & 0xFFFF
??CrossCallReturnLabel_61:
        JNZ     ??ZDApp_RestoreNetworkState_2
//  990         ZDO_Config_Node_Descriptor.LogicalType = NODETYPE_COORDINATOR;
        MOV     DPTR,#ZDO_Config_Node_Descriptor
        MOVX    A,@DPTR
        ANL     A,#0xf8
        MOVX    @DPTR,A
//  991       devStartMode = MODE_RESUME;
??ZDApp_RestoreNetworkState_2:
        MOV     DPTR,#devStartMode
        MOV     A,#0x1
        LCALL   ?Subroutine14 & 0xFFFF
//  992       osal_cpyExtAddr( ZDO_UseExtendedPANID, _NIB.extendedPANID );
//  993     }
??CrossCallReturnLabel_4:
        LCALL   ??sAddrExtCpy?relay
        SJMP    ??ZDApp_RestoreNetworkState_3
//  994     else
//  995       nvStat = NV_ITEM_UNINIT;
??ZDApp_RestoreNetworkState_1:
        MOV     R6,#0x9
//  996 
//  997     if ( ZG_SECURE_ENABLED )
//  998     {
//  999       nwkFrameCounterChanges = 0;
??ZDApp_RestoreNetworkState_3:
        MOV     DPTR,#nwkFrameCounterChanges
        CLR     A
        MOVX    @DPTR,A
        INC     DPTR
        MOVX    @DPTR,A
// 1000 
// 1001       if ( ZG_BUILD_COORDINATOR_TYPE && ZG_DEVICE_COORDINATOR_TYPE )
// 1002       {
// 1003         ZDApp_RestoreNwkKey();
// 1004       }
// 1005     }
// 1006 
// 1007     // The default for RxOnWhenIdle is true for Routers and false for end devices
// 1008     // [setup in the NLME_RestoreFromNV()].  Change it here if you want something
// 1009     // other than default.
// 1010   }
// 1011 
// 1012   if ( nvStat == ZSUCCESS )
        MOV     A,R6
        JNZ     ??ZDApp_RestoreNetworkState_0
// 1013     return ( ZDO_INITDEV_RESTORED_NETWORK_STATE );
        MOV     R1,#0x0
        SJMP    ??ZDApp_RestoreNetworkState_4
// 1014   else
// 1015     return ( ZDO_INITDEV_NEW_NETWORK_STATE );
??ZDApp_RestoreNetworkState_0:
        MOV     R1,#0x1
??ZDApp_RestoreNetworkState_4:
        LJMP    ??Subroutine44_0 & 0xFFFF
          CFI EndBlock cfiBlock28
// 1016 }
// 1017 #endif // NV_RESTORE
// 1018 
// 1019 /*********************************************************************
// 1020  * @fn      ZDApp_InitUserDesc()
// 1021  *
// 1022  * @brief   Initialize the User Descriptor, the descriptor is read from NV
// 1023  *          when needed.  If you want to initialize the User descriptor to
// 1024  *          something other than all zero, do it here.
// 1025  *
// 1026  * @param   none
// 1027  *
// 1028  * @return  none
// 1029  */

        RSEG BANKED_CODE:CODE:NOROOT(0)
// 1030 void ZDApp_InitUserDesc( void )
ZDApp_InitUserDesc:
          CFI Block cfiBlock29 Using cfiCommon0
          CFI Function ZDApp_InitUserDesc
        CODE
// 1031 {
        FUNCALL ZDApp_InitUserDesc, osal_memset
        LOCFRAME ISTACK, 0, STACK
        LOCFRAME PSTACK, 0, STACK
        LOCFRAME XSTACK, 27, STACK
        LOCFRAME IOVERLAY, 0, STATIC
        LOCFRAME DOVERLAY, 0, STATIC
        ARGFRAME ISTACK, 0, STACK
        ARGFRAME PSTACK, 0, STACK
        ARGFRAME XSTACK, 27, STACK
        ARGFRAME IOVERLAY, 0, STATIC
        ARGFRAME DOVERLAY, 0, STATIC
        FUNCALL ZDApp_InitUserDesc, osal_nv_item_init
        LOCFRAME ISTACK, 0, STACK
        LOCFRAME PSTACK, 0, STACK
        LOCFRAME XSTACK, 29, STACK
        LOCFRAME IOVERLAY, 0, STATIC
        LOCFRAME DOVERLAY, 0, STATIC
        ARGFRAME ISTACK, 0, STACK
        ARGFRAME PSTACK, 0, STACK
        ARGFRAME XSTACK, 29, STACK
        ARGFRAME IOVERLAY, 0, STATIC
        ARGFRAME DOVERLAY, 0, STATIC
        FUNCALL ZDApp_InitUserDesc, osal_nv_read
        LOCFRAME ISTACK, 0, STACK
        LOCFRAME PSTACK, 0, STACK
        LOCFRAME XSTACK, 31, STACK
        LOCFRAME IOVERLAY, 0, STATIC
        LOCFRAME DOVERLAY, 0, STATIC
        ARGFRAME ISTACK, 0, STACK
        ARGFRAME PSTACK, 0, STACK
        ARGFRAME XSTACK, 31, STACK
        ARGFRAME IOVERLAY, 0, STATIC
        ARGFRAME DOVERLAY, 0, STATIC
        MOV     A,#-0xa
        LCALL   ?BANKED_ENTER_XDATA
          CFI DPH0 load(1, XDATA, add(CFA_XSP16, literal(-1)))
          CFI DPL0 load(1, XDATA, add(CFA_XSP16, literal(-2)))
          CFI ?BRET_EXT load(1, XDATA, add(CFA_XSP16, literal(-3)))
          CFI ?RET_HIGH load(1, XDATA, add(CFA_XSP16, literal(-4)))
          CFI ?RET_LOW load(1, XDATA, add(CFA_XSP16, literal(-5)))
          CFI R7 load(1, XDATA, add(CFA_XSP16, literal(-6)))
          CFI V1 load(1, XDATA, add(CFA_XSP16, literal(-7)))
          CFI V0 load(1, XDATA, add(CFA_XSP16, literal(-8)))
          CFI VB load(1, XDATA, add(CFA_XSP16, literal(-9)))
          CFI R6 load(1, XDATA, add(CFA_XSP16, literal(-10)))
          CFI CFA_SP SP+0
          CFI CFA_XSP16 add(XSP16, 10)
        ; Saved register size: 10
        ; Auto size: 17
        MOV     A,#-0x11
        LCALL   ?ALLOC_XSTACK8
          CFI CFA_XSP16 add(XSP16, 27)
// 1032   UserDescriptorFormat_t ZDO_DefaultUserDescriptor;
// 1033 
// 1034   // Initialize the User Descriptor, the descriptor is read from NV
// 1035   // when needed.  If you want to initialize the User descriptor to something
// 1036   // other than all zero, do it here.
// 1037   osal_memset( &ZDO_DefaultUserDescriptor, 0, sizeof( UserDescriptorFormat_t ) );
        ; Setup parameters for call to function osal_memset
        MOV     R4,#0x11
        MOV     R5,#0x0
        MOV     R1,#0x0
        MOV     DPL,?XSP + 0
        MOV     DPH,?XSP + 1
        MOV     R2,DPL
        MOV     R3,DPH
        LCALL   ??osal_memset?relay
// 1038   if ( ZSUCCESS == osal_nv_item_init( ZCD_NV_USERDESC,
// 1039          sizeof(UserDescriptorFormat_t), (void*)&ZDO_DefaultUserDescriptor ) )
        ; Setup parameters for call to function osal_nv_item_init
        MOV     DPL,?XSP + 0
        MOV     DPH,?XSP + 1
        MOV     ?V0 + 0,DPL
        MOV     ?V0 + 1,DPH
        MOV     R0,#?V0 + 0
        LCALL   ?PUSH_XSTACK_I_TWO
          CFI CFA_XSP16 add(XSP16, 29)
        MOV     R4,#0x11
        MOV     R5,#0x0
        MOV     R2,#-0x7f
        MOV     R3,#0x0
        LCALL   ??osal_nv_item_init?relay
        MOV     A,#0x2
        LCALL   ?DEALLOC_XSTACK8
          CFI CFA_XSP16 add(XSP16, 27)
        MOV     A,R1
        JNZ     ??ZDApp_InitUserDesc_0
// 1040   {
// 1041     if ( ZSUCCESS == osal_nv_read( ZCD_NV_USERDESC, 0,
// 1042          sizeof(UserDescriptorFormat_t), (void*)&ZDO_DefaultUserDescriptor ) )
        ; Setup parameters for call to function osal_nv_read
        MOV     R0,#?V0 + 0
        LCALL   ?PUSH_XSTACK_I_TWO
          CFI CFA_XSP16 add(XSP16, 29)
        MOV     ?V0 + 0,#0x11
        MOV     ?V0 + 1,#0x0
        MOV     R0,#?V0 + 0
        LCALL   ?PUSH_XSTACK_I_TWO
          CFI CFA_XSP16 add(XSP16, 31)
        MOV     R4,#0x0
        MOV     R5,#0x0
        MOV     R2,#-0x7f
        MOV     R3,#0x0
        LCALL   ??osal_nv_read?relay
        MOV     A,#0x4
        LCALL   ?DEALLOC_XSTACK8
          CFI CFA_XSP16 add(XSP16, 27)
        MOV     A,R1
        JNZ     ??ZDApp_InitUserDesc_0
// 1043     {
// 1044       if ( ZDO_DefaultUserDescriptor.len != 0 )
        MOV     DPL,?XSP + 0
        MOV     DPH,?XSP + 1
        MOVX    A,@DPTR
        JZ      ??ZDApp_InitUserDesc_0
// 1045       {
// 1046         ZDO_Config_Node_Descriptor.UserDescAvail = TRUE;
        MOV     DPTR,#ZDO_Config_Node_Descriptor
        MOVX    A,@DPTR
        SETB    0xE0 /* A   */.4
        MOVX    @DPTR,A
// 1047       }
// 1048     }
// 1049   }
// 1050 }
??ZDApp_InitUserDesc_0:
        MOV     A,#0x11
        LJMP    ??Subroutine38_0 & 0xFFFF
          CFI EndBlock cfiBlock29
// 1051 
// 1052 /*********************************************************************
// 1053  * @fn      ZDAppCheckForHoldKey()
// 1054  *
// 1055  * @brief   Check for key to set the device into Hold Auto Start
// 1056  *
// 1057  * @param   none
// 1058  *
// 1059  * @return  none
// 1060  */

        RSEG BANKED_CODE:CODE:NOROOT(0)
// 1061 void ZDAppCheckForHoldKey( void )
ZDAppCheckForHoldKey:
          CFI Block cfiBlock30 Using cfiCommon0
          CFI Function ZDAppCheckForHoldKey
        CODE
// 1062 {
        ; Saved register size: 0
        ; Auto size: 0
// 1063 #if (defined HAL_KEY) && (HAL_KEY == TRUE)
// 1064   
// 1065   // Get Keypad directly to see if a HOLD is needed
// 1066   zdappHoldKeys = HalKeyRead();
// 1067   
// 1068   // Hold down the SW_BYPASS_START key (see OnBoard.h)
// 1069   // while booting to avoid starting up the device.
// 1070   if ( zdappHoldKeys == SW_BYPASS_START )
// 1071   {
// 1072     // Change the device state to HOLD on start up
// 1073     devState = DEV_HOLD;
// 1074   }
// 1075 #endif // HAL_KEY
// 1076 }
        LJMP    ?BRET
          CFI EndBlock cfiBlock30
// 1077 
// 1078 /*********************************************************************
// 1079  * @fn      ZDApp_ProcessOSALMsg()
// 1080  *
// 1081  * @brief   Process the incoming task message.
// 1082  *
// 1083  * @param   msgPtr - message to process
// 1084  *
// 1085  * @return  none
// 1086  */

        RSEG BANKED_CODE:CODE:NOROOT(0)
// 1087 void ZDApp_ProcessOSALMsg( osal_event_hdr_t *msgPtr )
ZDApp_ProcessOSALMsg:
          CFI Block cfiBlock31 Using cfiCommon0
          CFI Function ZDApp_ProcessOSALMsg
        CODE
// 1088 {
        FUNCALL ZDApp_ProcessOSALMsg, ZDP_IncomingData
        LOCFRAME ISTACK, 0, STACK
        LOCFRAME PSTACK, 0, STACK
        LOCFRAME XSTACK, 15, STACK
        LOCFRAME IOVERLAY, 0, STATIC
        LOCFRAME DOVERLAY, 0, STATIC
        ARGFRAME ISTACK, 0, STACK
        ARGFRAME PSTACK, 0, STACK
        ARGFRAME XSTACK, 15, STACK
        ARGFRAME IOVERLAY, 0, STATIC
        ARGFRAME DOVERLAY, 0, STATIC
        FUNCALL ZDApp_ProcessOSALMsg, ZDApp_ProcessMsgCBs
        LOCFRAME ISTACK, 0, STACK
        LOCFRAME PSTACK, 0, STACK
        LOCFRAME XSTACK, 15, STACK
        LOCFRAME IOVERLAY, 0, STATIC
        LOCFRAME DOVERLAY, 0, STATIC
        ARGFRAME ISTACK, 0, STACK
        ARGFRAME PSTACK, 0, STACK
        ARGFRAME XSTACK, 15, STACK
        ARGFRAME IOVERLAY, 0, STATIC
        ARGFRAME DOVERLAY, 0, STATIC
        FUNCALL ZDApp_ProcessOSALMsg, ZDApp_NwkDescListProcessing
        LOCFRAME ISTACK, 0, STACK
        LOCFRAME PSTACK, 0, STACK
        LOCFRAME XSTACK, 15, STACK
        LOCFRAME IOVERLAY, 0, STATIC
        LOCFRAME DOVERLAY, 0, STATIC
        ARGFRAME ISTACK, 0, STACK
        ARGFRAME PSTACK, 0, STACK
        ARGFRAME XSTACK, 15, STACK
        ARGFRAME IOVERLAY, 0, STATIC
        ARGFRAME DOVERLAY, 0, STATIC
        FUNCALL ZDApp_ProcessOSALMsg, ZDApp_NodeProfileSync
        LOCFRAME ISTACK, 0, STACK
        LOCFRAME PSTACK, 0, STACK
        LOCFRAME XSTACK, 15, STACK
        LOCFRAME IOVERLAY, 0, STATIC
        LOCFRAME DOVERLAY, 0, STATIC
        ARGFRAME ISTACK, 0, STACK
        ARGFRAME PSTACK, 0, STACK
        ARGFRAME XSTACK, 15, STACK
        ARGFRAME IOVERLAY, 0, STATIC
        ARGFRAME DOVERLAY, 0, STATIC
        FUNCALL ZDApp_ProcessOSALMsg, NLME_JoinRequest
        LOCFRAME ISTACK, 0, STACK
        LOCFRAME PSTACK, 0, STACK
        LOCFRAME XSTACK, 19, STACK
        LOCFRAME IOVERLAY, 0, STATIC
        LOCFRAME DOVERLAY, 0, STATIC
        ARGFRAME ISTACK, 0, STACK
        ARGFRAME PSTACK, 0, STACK
        ARGFRAME XSTACK, 19, STACK
        ARGFRAME IOVERLAY, 0, STATIC
        ARGFRAME DOVERLAY, 0, STATIC
        FUNCALL ZDApp_ProcessOSALMsg, osal_rand
        LOCFRAME ISTACK, 0, STACK
        LOCFRAME PSTACK, 0, STACK
        LOCFRAME XSTACK, 15, STACK
        LOCFRAME IOVERLAY, 0, STATIC
        LOCFRAME DOVERLAY, 0, STATIC
        ARGFRAME ISTACK, 0, STACK
        ARGFRAME PSTACK, 0, STACK
        ARGFRAME XSTACK, 15, STACK
        ARGFRAME IOVERLAY, 0, STATIC
        ARGFRAME DOVERLAY, 0, STATIC
        FUNCALL ZDApp_ProcessOSALMsg, ZDApp_NetworkInit
        LOCFRAME ISTACK, 0, STACK
        LOCFRAME PSTACK, 0, STACK
        LOCFRAME XSTACK, 15, STACK
        LOCFRAME IOVERLAY, 0, STATIC
        LOCFRAME DOVERLAY, 0, STATIC
        ARGFRAME ISTACK, 0, STACK
        ARGFRAME PSTACK, 0, STACK
        ARGFRAME XSTACK, 15, STACK
        ARGFRAME IOVERLAY, 0, STATIC
        ARGFRAME DOVERLAY, 0, STATIC
        FUNCALL ZDApp_ProcessOSALMsg, osal_nv_read
        LOCFRAME ISTACK, 0, STACK
        LOCFRAME PSTACK, 0, STACK
        LOCFRAME XSTACK, 19, STACK
        LOCFRAME IOVERLAY, 0, STATIC
        LOCFRAME DOVERLAY, 0, STATIC
        ARGFRAME ISTACK, 0, STACK
        ARGFRAME PSTACK, 0, STACK
        ARGFRAME XSTACK, 19, STACK
        ARGFRAME IOVERLAY, 0, STATIC
        ARGFRAME DOVERLAY, 0, STATIC
        FUNCALL ZDApp_ProcessOSALMsg, osal_rand
        LOCFRAME ISTACK, 0, STACK
        LOCFRAME PSTACK, 0, STACK
        LOCFRAME XSTACK, 15, STACK
        LOCFRAME IOVERLAY, 0, STATIC
        LOCFRAME DOVERLAY, 0, STATIC
        ARGFRAME ISTACK, 0, STACK
        ARGFRAME PSTACK, 0, STACK
        ARGFRAME XSTACK, 15, STACK
        ARGFRAME IOVERLAY, 0, STATIC
        ARGFRAME DOVERLAY, 0, STATIC
        FUNCALL ZDApp_ProcessOSALMsg, ZMacSetReq
        LOCFRAME ISTACK, 0, STACK
        LOCFRAME PSTACK, 0, STACK
        LOCFRAME XSTACK, 15, STACK
        LOCFRAME IOVERLAY, 0, STATIC
        LOCFRAME DOVERLAY, 0, STATIC
        ARGFRAME ISTACK, 0, STACK
        ARGFRAME PSTACK, 0, STACK
        ARGFRAME XSTACK, 15, STACK
        ARGFRAME IOVERLAY, 0, STATIC
        ARGFRAME DOVERLAY, 0, STATIC
        FUNCALL ZDApp_ProcessOSALMsg, ZMacSetReq
        LOCFRAME ISTACK, 0, STACK
        LOCFRAME PSTACK, 0, STACK
        LOCFRAME XSTACK, 15, STACK
        LOCFRAME IOVERLAY, 0, STATIC
        LOCFRAME DOVERLAY, 0, STATIC
        ARGFRAME ISTACK, 0, STACK
        ARGFRAME PSTACK, 0, STACK
        ARGFRAME XSTACK, 15, STACK
        ARGFRAME IOVERLAY, 0, STATIC
        ARGFRAME DOVERLAY, 0, STATIC
        FUNCALL ZDApp_ProcessOSALMsg, ZMacSetReq
        LOCFRAME ISTACK, 0, STACK
        LOCFRAME PSTACK, 0, STACK
        LOCFRAME XSTACK, 15, STACK
        LOCFRAME IOVERLAY, 0, STATIC
        LOCFRAME DOVERLAY, 0, STATIC
        ARGFRAME ISTACK, 0, STACK
        ARGFRAME PSTACK, 0, STACK
        ARGFRAME XSTACK, 15, STACK
        ARGFRAME IOVERLAY, 0, STATIC
        ARGFRAME DOVERLAY, 0, STATIC
        FUNCALL ZDApp_ProcessOSALMsg, ZDApp_RestoreNwkKey
        LOCFRAME ISTACK, 0, STACK
        LOCFRAME PSTACK, 0, STACK
        LOCFRAME XSTACK, 15, STACK
        LOCFRAME IOVERLAY, 0, STATIC
        LOCFRAME DOVERLAY, 0, STATIC
        ARGFRAME ISTACK, 0, STACK
        ARGFRAME PSTACK, 0, STACK
        ARGFRAME XSTACK, 15, STACK
        ARGFRAME IOVERLAY, 0, STATIC
        ARGFRAME DOVERLAY, 0, STATIC
        FUNCALL ZDApp_ProcessOSALMsg, NLME_ReJoinRequest
        LOCFRAME ISTACK, 0, STACK
        LOCFRAME PSTACK, 0, STACK
        LOCFRAME XSTACK, 15, STACK
        LOCFRAME IOVERLAY, 0, STATIC
        LOCFRAME DOVERLAY, 0, STATIC
        ARGFRAME ISTACK, 0, STACK
        ARGFRAME PSTACK, 0, STACK
        ARGFRAME XSTACK, 15, STACK
        ARGFRAME IOVERLAY, 0, STATIC
        ARGFRAME DOVERLAY, 0, STATIC
        FUNCALL ZDApp_ProcessOSALMsg, NLME_ReJoinRequestUnsecure
        LOCFRAME ISTACK, 0, STACK
        LOCFRAME PSTACK, 0, STACK
        LOCFRAME XSTACK, 15, STACK
        LOCFRAME IOVERLAY, 0, STATIC
        LOCFRAME DOVERLAY, 0, STATIC
        ARGFRAME ISTACK, 0, STACK
        ARGFRAME PSTACK, 0, STACK
        ARGFRAME XSTACK, 15, STACK
        ARGFRAME IOVERLAY, 0, STATIC
        ARGFRAME DOVERLAY, 0, STATIC
        FUNCALL ZDApp_ProcessOSALMsg, osal_rand
        LOCFRAME ISTACK, 0, STACK
        LOCFRAME PSTACK, 0, STACK
        LOCFRAME XSTACK, 15, STACK
        LOCFRAME IOVERLAY, 0, STATIC
        LOCFRAME DOVERLAY, 0, STATIC
        ARGFRAME ISTACK, 0, STACK
        ARGFRAME PSTACK, 0, STACK
        ARGFRAME XSTACK, 15, STACK
        ARGFRAME IOVERLAY, 0, STATIC
        ARGFRAME DOVERLAY, 0, STATIC
        FUNCALL ZDApp_ProcessOSALMsg, ZDApp_NetworkInit
        LOCFRAME ISTACK, 0, STACK
        LOCFRAME PSTACK, 0, STACK
        LOCFRAME XSTACK, 15, STACK
        LOCFRAME IOVERLAY, 0, STATIC
        LOCFRAME DOVERLAY, 0, STATIC
        ARGFRAME ISTACK, 0, STACK
        ARGFRAME PSTACK, 0, STACK
        ARGFRAME XSTACK, 15, STACK
        ARGFRAME IOVERLAY, 0, STATIC
        ARGFRAME DOVERLAY, 0, STATIC
        FUNCALL ZDApp_ProcessOSALMsg, NLME_SetPollRate
        LOCFRAME ISTACK, 0, STACK
        LOCFRAME PSTACK, 0, STACK
        LOCFRAME XSTACK, 15, STACK
        LOCFRAME IOVERLAY, 0, STATIC
        LOCFRAME DOVERLAY, 0, STATIC
        ARGFRAME ISTACK, 0, STACK
        ARGFRAME PSTACK, 0, STACK
        ARGFRAME XSTACK, 15, STACK
        ARGFRAME IOVERLAY, 0, STATIC
        ARGFRAME DOVERLAY, 0, STATIC
        FUNCALL ZDApp_ProcessOSALMsg, NLME_SetQueuedPollRate
        LOCFRAME ISTACK, 0, STACK
        LOCFRAME PSTACK, 0, STACK
        LOCFRAME XSTACK, 15, STACK
        LOCFRAME IOVERLAY, 0, STATIC
        LOCFRAME DOVERLAY, 0, STATIC
        ARGFRAME ISTACK, 0, STACK
        ARGFRAME PSTACK, 0, STACK
        ARGFRAME XSTACK, 15, STACK
        ARGFRAME IOVERLAY, 0, STATIC
        ARGFRAME DOVERLAY, 0, STATIC
        FUNCALL ZDApp_ProcessOSALMsg, NLME_SetResponseRate
        LOCFRAME ISTACK, 0, STACK
        LOCFRAME PSTACK, 0, STACK
        LOCFRAME XSTACK, 15, STACK
        LOCFRAME IOVERLAY, 0, STATIC
        LOCFRAME DOVERLAY, 0, STATIC
        ARGFRAME ISTACK, 0, STACK
        ARGFRAME PSTACK, 0, STACK
        ARGFRAME XSTACK, 15, STACK
        ARGFRAME IOVERLAY, 0, STATIC
        ARGFRAME DOVERLAY, 0, STATIC
        FUNCALL ZDApp_ProcessOSALMsg, NLME_SetPollRate
        LOCFRAME ISTACK, 0, STACK
        LOCFRAME PSTACK, 0, STACK
        LOCFRAME XSTACK, 15, STACK
        LOCFRAME IOVERLAY, 0, STATIC
        LOCFRAME DOVERLAY, 0, STATIC
        ARGFRAME ISTACK, 0, STACK
        ARGFRAME PSTACK, 0, STACK
        ARGFRAME XSTACK, 15, STACK
        ARGFRAME IOVERLAY, 0, STATIC
        ARGFRAME DOVERLAY, 0, STATIC
        FUNCALL ZDApp_ProcessOSALMsg, osal_rand
        LOCFRAME ISTACK, 0, STACK
        LOCFRAME PSTACK, 0, STACK
        LOCFRAME XSTACK, 15, STACK
        LOCFRAME IOVERLAY, 0, STATIC
        LOCFRAME DOVERLAY, 0, STATIC
        ARGFRAME ISTACK, 0, STACK
        ARGFRAME PSTACK, 0, STACK
        ARGFRAME XSTACK, 15, STACK
        ARGFRAME IOVERLAY, 0, STATIC
        ARGFRAME DOVERLAY, 0, STATIC
        FUNCALL ZDApp_ProcessOSALMsg, ZDApp_NetworkInit
        LOCFRAME ISTACK, 0, STACK
        LOCFRAME PSTACK, 0, STACK
        LOCFRAME XSTACK, 15, STACK
        LOCFRAME IOVERLAY, 0, STATIC
        LOCFRAME DOVERLAY, 0, STATIC
        ARGFRAME ISTACK, 0, STACK
        ARGFRAME PSTACK, 0, STACK
        ARGFRAME XSTACK, 15, STACK
        ARGFRAME IOVERLAY, 0, STATIC
        ARGFRAME DOVERLAY, 0, STATIC
        FUNCALL ZDApp_ProcessOSALMsg, ZDApp_ProcessNetworkJoin
        LOCFRAME ISTACK, 0, STACK
        LOCFRAME PSTACK, 0, STACK
        LOCFRAME XSTACK, 15, STACK
        LOCFRAME IOVERLAY, 0, STATIC
        LOCFRAME DOVERLAY, 0, STATIC
        ARGFRAME ISTACK, 0, STACK
        ARGFRAME PSTACK, 0, STACK
        ARGFRAME XSTACK, 15, STACK
        ARGFRAME IOVERLAY, 0, STATIC
        ARGFRAME DOVERLAY, 0, STATIC
        FUNCALL ZDApp_ProcessOSALMsg, sAddrExtCpy
        LOCFRAME ISTACK, 0, STACK
        LOCFRAME PSTACK, 0, STACK
        LOCFRAME XSTACK, 15, STACK
        LOCFRAME IOVERLAY, 0, STATIC
        LOCFRAME DOVERLAY, 0, STATIC
        ARGFRAME ISTACK, 0, STACK
        ARGFRAME PSTACK, 0, STACK
        ARGFRAME XSTACK, 15, STACK
        ARGFRAME IOVERLAY, 0, STATIC
        ARGFRAME DOVERLAY, 0, STATIC
        FUNCALL ZDApp_ProcessOSALMsg, ZDApp_NetworkInit
        LOCFRAME ISTACK, 0, STACK
        LOCFRAME PSTACK, 0, STACK
        LOCFRAME XSTACK, 15, STACK
        LOCFRAME IOVERLAY, 0, STATIC
        LOCFRAME DOVERLAY, 0, STATIC
        ARGFRAME ISTACK, 0, STACK
        ARGFRAME PSTACK, 0, STACK
        ARGFRAME XSTACK, 15, STACK
        ARGFRAME IOVERLAY, 0, STATIC
        ARGFRAME DOVERLAY, 0, STATIC
        FUNCALL ZDApp_ProcessOSALMsg, ZDApp_ProcessSecMsg
        LOCFRAME ISTACK, 0, STACK
        LOCFRAME PSTACK, 0, STACK
        LOCFRAME XSTACK, 15, STACK
        LOCFRAME IOVERLAY, 0, STATIC
        LOCFRAME DOVERLAY, 0, STATIC
        ARGFRAME ISTACK, 0, STACK
        ARGFRAME PSTACK, 0, STACK
        ARGFRAME XSTACK, 15, STACK
        ARGFRAME IOVERLAY, 0, STATIC
        ARGFRAME DOVERLAY, 0, STATIC
        MOV     A,#-0xc
        LCALL   ?BANKED_ENTER_XDATA
          CFI DPH0 load(1, XDATA, add(CFA_XSP16, literal(-1)))
          CFI DPL0 load(1, XDATA, add(CFA_XSP16, literal(-2)))
          CFI ?BRET_EXT load(1, XDATA, add(CFA_XSP16, literal(-3)))
          CFI ?RET_HIGH load(1, XDATA, add(CFA_XSP16, literal(-4)))
          CFI ?RET_LOW load(1, XDATA, add(CFA_XSP16, literal(-5)))
          CFI R7 load(1, XDATA, add(CFA_XSP16, literal(-6)))
          CFI V3 load(1, XDATA, add(CFA_XSP16, literal(-7)))
          CFI V2 load(1, XDATA, add(CFA_XSP16, literal(-8)))
          CFI V1 load(1, XDATA, add(CFA_XSP16, literal(-9)))
          CFI V0 load(1, XDATA, add(CFA_XSP16, literal(-10)))
          CFI VB load(1, XDATA, add(CFA_XSP16, literal(-11)))
          CFI R6 load(1, XDATA, add(CFA_XSP16, literal(-12)))
          CFI CFA_SP SP+0
          CFI CFA_XSP16 add(XSP16, 12)
        ; Saved register size: 12
        ; Auto size: 3
        MOV     A,#-0x3
        LCALL   ?ALLOC_XSTACK8
          CFI CFA_XSP16 add(XSP16, 15)
// 1089   // Data Confirmation message fields
// 1090   uint8 sentEP;       // This should always be 0
// 1091   uint8 sentStatus;
// 1092   afDataConfirm_t *afDataConfirm;
// 1093   uint8 tmp;
// 1094 
// 1095   switch ( msgPtr->event )
        MOV     DPL,R2
        MOV     DPH,R3
        MOVX    A,@DPTR
        DEC     A
        JZ      ??ZDApp_ProcessOSALMsg_0
        DEC     A
        JNZ     $+5
        LJMP    ??ZDApp_ProcessOSALMsg_1 & 0xFFFF
        DEC     A
        JNZ     $+5
        LJMP    ??ZDApp_ProcessOSALMsg_2 & 0xFFFF
        ADD     A,#-0x17
        JZ      ??ZDApp_ProcessOSALMsg_3
        ADD     A,#0x47
        JZ      ??ZDApp_ProcessOSALMsg_4
        ADD     A,#-0x2a
        JZ      ??ZDApp_ProcessOSALMsg_5
        LJMP    ??ZDApp_ProcessOSALMsg_6 & 0xFFFF
// 1096   {
// 1097     // Incoming ZDO Message
// 1098     case AF_INCOMING_MSG_CMD:
// 1099       ZDP_IncomingData( (afIncomingMSGPacket_t *)msgPtr );
??ZDApp_ProcessOSALMsg_3:
        ; Setup parameters for call to function ZDP_IncomingData
        LCALL   ??ZDP_IncomingData?relay
// 1100       break;
        LJMP    ??ZDApp_ProcessOSALMsg_7 & 0xFFFF
// 1101 
// 1102     case ZDO_CB_MSG:
// 1103       ZDApp_ProcessMsgCBs( (zdoIncomingMsg_t *)msgPtr );
??ZDApp_ProcessOSALMsg_4:
        ; Setup parameters for call to function ZDApp_ProcessMsgCBs
        LCALL   ??ZDApp_ProcessMsgCBs?relay
// 1104       break;
        LJMP    ??ZDApp_ProcessOSALMsg_7 & 0xFFFF
// 1105 
// 1106     case AF_DATA_CONFIRM_CMD:
// 1107       // This message is received as a confirmation of a data packet sent.
// 1108       // The status is of ZStatus_t type [defined in NLMEDE.h]
// 1109       // The message fields are defined in AF.h
// 1110       afDataConfirm = (afDataConfirm_t *)msgPtr;
// 1111       sentEP = afDataConfirm->endpoint;
// 1112       sentStatus = afDataConfirm->hdr.status;
// 1113 
// 1114       // Action taken when confirmation is received.
// 1115 #if defined ( ZIGBEE_FREQ_AGILITY )
// 1116       if ( pZDNwkMgr_ProcessDataConfirm )
??ZDApp_ProcessOSALMsg_5:
        MOV     DPTR,#pZDNwkMgr_ProcessDataConfirm
        LCALL   ??Subroutine43_0 & 0xFFFF
??CrossCallReturnLabel_62:
        JNZ     $+5
        LJMP    ??ZDApp_ProcessOSALMsg_7 & 0xFFFF
// 1117         pZDNwkMgr_ProcessDataConfirm( afDataConfirm );
        ; Setup parameters for indirect call
        LCALL   ??Subroutine49_0 & 0xFFFF
??CrossCallReturnLabel_91:
        LCALL   ?CALL_IND
        LJMP    ??ZDApp_ProcessOSALMsg_7 & 0xFFFF
// 1118 #endif
// 1119       (void)sentEP;
// 1120       (void)sentStatus;
// 1121       break;
// 1122 
// 1123     case ZDO_NWK_DISC_CNF:
// 1124       if (devState != DEV_NWK_DISC)
??ZDApp_ProcessOSALMsg_0:
        MOV     DPTR,#devState
        MOVX    A,@DPTR
        XRL     A,#0x2
        JZ      $+5
        LJMP    ??ZDApp_ProcessOSALMsg_7 & 0xFFFF
// 1125         break;
// 1126 
// 1127       if ( ZG_BUILD_JOINING_TYPE && ZG_DEVICE_JOINING_TYPE )
        MOV     DPTR,#zgDeviceLogicalType
        MOVX    A,@DPTR
        XRL     A,#0x1
        JZ      ??ZDApp_ProcessOSALMsg_8
        MOVX    A,@DPTR
        XRL     A,#0x2
        JZ      $+5
        LJMP    ??ZDApp_ProcessOSALMsg_7 & 0xFFFF
// 1128       {
// 1129         // Process the network discovery scan results and choose a parent
// 1130         // device to join/rejoin itself
// 1131         networkDesc_t *pChosenNwk;
// 1132         if ( ( (pChosenNwk = ZDApp_NwkDescListProcessing()) != NULL ) && (zdoDiscCounter > NUM_DISC_ATTEMPTS) )
??ZDApp_ProcessOSALMsg_8:
        ; Setup parameters for call to function ZDApp_NwkDescListProcessing
        LCALL   ??ZDApp_NwkDescListProcessing?relay
        MOV     ?V0 + 0,R2
        MOV     ?V0 + 1,R3
        MOV     A,R2
        ORL     A,?V0 + 1
        JNZ     $+5
        LJMP    ??ZDApp_ProcessOSALMsg_9 & 0xFFFF
        MOV     DPTR,#zdoDiscCounter
        MOVX    A,@DPTR
        CLR     C
        SUBB    A,#0x3
        JNC     $+5
        LJMP    ??ZDApp_ProcessOSALMsg_9 & 0xFFFF
// 1133         {
// 1134           if ( devStartMode == MODE_JOIN )
        MOV     A,R2
        ADD     A,#0x2
        MOV     R0,A
        MOV     A,R3
        ADDC    A,#0x0
        MOV     R1,A
        MOV     A,R0
        MOV     R6,A
        MOV     A,R1
        MOV     R7,A
        MOV     DPTR,#devStartMode
        MOVX    A,@DPTR
        JNZ     ??ZDApp_ProcessOSALMsg_10
// 1135           {
// 1136             devState = DEV_NWK_JOINING;
        MOV     DPTR,#devState
        MOV     A,#0x3
        MOVX    @DPTR,A
// 1137 
// 1138             ZDApp_NodeProfileSync( pChosenNwk->stackProfile);
        ; Setup parameters for call to function ZDApp_NodeProfileSync
        MOV     DPL,R2
        MOV     DPH,R3
        INC     DPTR
        INC     DPTR
        INC     DPTR
        INC     DPTR
        INC     DPTR
        INC     DPTR
        MOVX    A,@DPTR
        MOV     R1,A
        LCALL   ??ZDApp_NodeProfileSync?relay
// 1139 
// 1140             if ( NLME_JoinRequest( pChosenNwk->extendedPANID, pChosenNwk->panId,
// 1141                                   pChosenNwk->logicalChannel,
// 1142                                   ZDO_Config_Node_Descriptor.CapabilityFlags,
// 1143                                   pChosenNwk->chosenRouter, pChosenNwk->chosenRouterDepth ) != ZSuccess )
        ; Setup parameters for call to function NLME_JoinRequest
        MOV     DPL,?V0 + 0
        MOV     DPH,?V0 + 1
        INC     DPTR
        INC     DPTR
        INC     DPTR
        INC     DPTR
        INC     DPTR
        INC     DPTR
        INC     DPTR
        INC     DPTR
        INC     DPTR
        INC     DPTR
        MOVX    A,@DPTR
        MOV     ?V0 + 2,A
        MOV     R0,#?V0 + 2
        LCALL   ?PUSH_XSTACK_I_ONE
          CFI CFA_XSP16 add(XSP16, 16)
        MOV     DPL,?V0 + 0
        MOV     DPH,?V0 + 1
        INC     DPTR
        INC     DPTR
        INC     DPTR
        INC     DPTR
        INC     DPTR
        INC     DPTR
        INC     DPTR
        LCALL   ?PUSH_XSTACK8_X_TWO
          CFI CFA_XSP16 add(XSP16, 18)
        MOV     DPTR,#ZDO_Config_Node_Descriptor + 2
        MOVX    A,@DPTR
        MOV     ?V0 + 2,A
        MOV     R0,#?V0 + 2
        LCALL   ?PUSH_XSTACK_I_ONE
          CFI CFA_XSP16 add(XSP16, 19)
        MOV     DPL,R6
        MOV     DPH,R7
        MOVX    A,@DPTR
        MOV     R1,A
        MOV     DPL,?V0 + 0
        MOV     DPH,?V0 + 1
        MOVX    A,@DPTR
        MOV     R4,A
        INC     DPTR
        MOVX    A,@DPTR
        MOV     R5,A
        MOV     A,?V0 + 0
        ADD     A,#0xb
        MOV     R2,A
        MOV     A,?V0 + 1
        ADDC    A,#0x0
        MOV     R3,A
        LCALL   ??NLME_JoinRequest?relay
        MOV     A,#0x4
        LCALL   ?DEALLOC_XSTACK8
          CFI CFA_XSP16 add(XSP16, 15)
        LJMP    ??ZDApp_ProcessOSALMsg_11 & 0xFFFF
// 1144             {
// 1145               ZDApp_NetworkInit( (uint16)(NWK_START_DELAY
// 1146                                           + ((uint16)(osal_rand()& EXTENDED_JOINING_RANDOM_MASK))) );
// 1147             }
// 1148           } // if ( devStartMode == MODE_JOIN )
// 1149           else if ( devStartMode == MODE_REJOIN )
??ZDApp_ProcessOSALMsg_10:
        XRL     A,#0x3
        JZ      $+5
        LJMP    ??ZDApp_ProcessOSALMsg_12 & 0xFFFF
// 1150           {
// 1151             ZStatus_t rejoinStatus;
// 1152 
// 1153             devState = DEV_NWK_REJOIN;
        MOV     DPTR,#devState
        MOV     A,#0x4
        MOVX    @DPTR,A
// 1154 
// 1155             // Before trying to do rejoin, check if the device has a valid short address
// 1156             // If not, generate a random short address for itself
// 1157             if ( _NIB.nwkDevAddress == INVALID_NODE_ADDR )
        MOV     DPTR,#_NIB + 20
        MOVX    A,@DPTR
        XRL     A,#0xfe
        JNZ     ??ZDApp_ProcessOSALMsg_13
        INC     DPTR
        MOVX    A,@DPTR
        CPL     A
??ZDApp_ProcessOSALMsg_13:
        JNZ     ??ZDApp_ProcessOSALMsg_14
// 1158             {
// 1159               uint16 commNwkAddr;
// 1160 
// 1161               // Verify if the Network address has been commissioned by external tool
// 1162               if ( ( osal_nv_read( ZCD_NV_COMMISSIONED_NWK_ADDR, 0,
// 1163                                  sizeof(commNwkAddr),
// 1164                                  (void*)&commNwkAddr ) == ZSUCCESS )   &&
// 1165                    ( commNwkAddr != INVALID_NODE_ADDR ) )
        ; Setup parameters for call to function osal_nv_read
        MOV     A,#0x1
        LCALL   ?XSTACK_DISP0_8
        MOV     ?V0 + 2,DPL
        MOV     ?V0 + 3,DPH
        MOV     R0,#?V0 + 2
        LCALL   ?PUSH_XSTACK_I_TWO
          CFI CFA_XSP16 add(XSP16, 17)
        MOV     ?V0 + 2,#0x2
        MOV     ?V0 + 3,#0x0
        MOV     R0,#?V0 + 2
        LCALL   ?PUSH_XSTACK_I_TWO
          CFI CFA_XSP16 add(XSP16, 19)
        MOV     R4,#0x0
        MOV     R5,#0x0
        MOV     R2,#0x49
        MOV     R3,#0x0
        LCALL   ??osal_nv_read?relay
        MOV     A,#0x4
        LCALL   ?DEALLOC_XSTACK8
          CFI CFA_XSP16 add(XSP16, 15)
        MOV     A,R1
        JNZ     ??ZDApp_ProcessOSALMsg_15
        MOV     A,#0x1
        LCALL   ?XSTACK_DISP0_8
        MOVX    A,@DPTR
        XRL     A,#0xfe
        JNZ     ??ZDApp_ProcessOSALMsg_16
        INC     DPTR
        MOVX    A,@DPTR
        CPL     A
??ZDApp_ProcessOSALMsg_16:
        JZ      ??ZDApp_ProcessOSALMsg_15
// 1166               {
// 1167                 _NIB.nwkDevAddress = commNwkAddr;
        MOV     A,#0x1
        LCALL   ?XSTACK_DISP0_8
        LCALL   ??Subroutine41_0 & 0xFFFF
??CrossCallReturnLabel_41:
        MOV     DPTR,#_NIB + 20
        MOV     A,R0
        MOVX    @DPTR,A
        INC     DPTR
        MOV     A,R1
        MOVX    @DPTR,A
// 1168 
// 1169                 // clear Allocate address bit because device has a commissioned address
// 1170                 _NIB.CapabilityFlags &= ~CAPINFO_ALLOC_ADDR;
        MOV     DPTR,#_NIB + 14
        MOVX    A,@DPTR
        CLR     0xE0 /* A   */.7
        SJMP    ??ZDApp_ProcessOSALMsg_17
// 1171               }
// 1172               else
// 1173               {
// 1174                 _NIB.nwkDevAddress = osal_rand();
??ZDApp_ProcessOSALMsg_15:
        ; Setup parameters for call to function osal_rand
        LCALL   ??osal_rand?relay
        MOV     DPTR,#_NIB + 20
        MOV     A,R2
        MOVX    @DPTR,A
        INC     DPTR
        MOV     A,R3
??ZDApp_ProcessOSALMsg_17:
        MOVX    @DPTR,A
// 1175               }
// 1176 
// 1177               ZMacSetReq( ZMacShortAddress, (byte*)&_NIB.nwkDevAddress );
        ; Setup parameters for call to function ZMacSetReq
        MOV     R2,#(_NIB + 20) & 0xff
        MOV     R3,#((_NIB + 20) >> 8) & 0xff
        MOV     R1,#0x53
        LCALL   ??ZMacSetReq?relay
// 1178             }
// 1179 
// 1180             // Check if the device has a valid PanID, if not, set it to the discovered Pan
// 1181             if ( _NIB.nwkPanId == INVALID_PAN_ID )
??ZDApp_ProcessOSALMsg_14:
        MOV     DPTR,#_NIB + 33
        MOVX    A,@DPTR
        XRL     A,#0xfe
        JNZ     ??ZDApp_ProcessOSALMsg_18
        INC     DPTR
        MOVX    A,@DPTR
        CPL     A
??ZDApp_ProcessOSALMsg_18:
        JNZ     ??ZDApp_ProcessOSALMsg_19
// 1182             {
// 1183               _NIB.nwkPanId = pChosenNwk->panId;
        MOV     DPL,?V0 + 0
        MOV     DPH,?V0 + 1
        LCALL   ??Subroutine41_0 & 0xFFFF
??CrossCallReturnLabel_42:
        MOV     DPTR,#_NIB + 33
        MOV     A,R0
        MOVX    @DPTR,A
        INC     DPTR
        MOV     A,R1
        MOVX    @DPTR,A
// 1184               ZMacSetReq( ZMacPanId, (byte*)&(_NIB.nwkPanId) );
        ; Setup parameters for call to function ZMacSetReq
        MOV     R2,#(_NIB + 33) & 0xff
        MOV     R3,#((_NIB + 33) >> 8) & 0xff
        MOV     R1,#0x50
        LCALL   ??ZMacSetReq?relay
// 1185             }
// 1186 
// 1187             tmp = true;
??ZDApp_ProcessOSALMsg_19:
        MOV     DPL,?XSP + 0
        MOV     DPH,?XSP + 1
        MOV     A,#0x1
        MOVX    @DPTR,A
// 1188             ZMacSetReq( ZMacRxOnIdle, &tmp ); // Set receiver always on during rejoin
        ; Setup parameters for call to function ZMacSetReq
        MOV     R2,DPL
        MOV     R3,DPH
        MOV     R1,#0x52
        LCALL   ??ZMacSetReq?relay
// 1189 
// 1190             // Perform Secure or Unsecure Rejoin depending on available configuration
// 1191             if ( ZG_SECURE_ENABLED && ( ZDApp_RestoreNwkKey() == TRUE ) )
        ; Setup parameters for call to function ZDApp_RestoreNwkKey
        LCALL   ??ZDApp_RestoreNwkKey?relay
        MOV     A,R1
        XRL     A,#0x1
        MOV     DPL,R6
        MOV     DPH,R7
        JNZ     ??ZDApp_ProcessOSALMsg_20
// 1192             {
// 1193               rejoinStatus = NLME_ReJoinRequest( ZDO_UseExtendedPANID, pChosenNwk->logicalChannel);
        ; Setup parameters for call to function NLME_ReJoinRequest
        MOVX    A,@DPTR
        MOV     R1,A
        MOV     R2,#ZDO_UseExtendedPANID & 0xff
        MOV     R3,#(ZDO_UseExtendedPANID >> 8) & 0xff
        LCALL   ??NLME_ReJoinRequest?relay
        SJMP    ??ZDApp_ProcessOSALMsg_11
// 1194             }
// 1195             else
// 1196             {
// 1197               rejoinStatus = NLME_ReJoinRequestUnsecure( ZDO_UseExtendedPANID, pChosenNwk->logicalChannel);
??ZDApp_ProcessOSALMsg_20:
        ; Setup parameters for call to function NLME_ReJoinRequestUnsecure
        MOVX    A,@DPTR
        MOV     R1,A
        MOV     R2,#ZDO_UseExtendedPANID & 0xff
        MOV     R3,#(ZDO_UseExtendedPANID >> 8) & 0xff
        LCALL   ??NLME_ReJoinRequestUnsecure?relay
??ZDApp_ProcessOSALMsg_11:
        MOV     A,R1
// 1198             }
// 1199 
// 1200             if ( rejoinStatus != ZSuccess )
        JZ      ??ZDApp_ProcessOSALMsg_12
// 1201             {
// 1202               ZDApp_NetworkInit( (uint16)(NWK_START_DELAY
// 1203                                           + ((uint16)(osal_rand()& EXTENDED_JOINING_RANDOM_MASK))) );
        ; Setup parameters for call to function ZDApp_NetworkInit
        ; Setup parameters for call to function osal_rand
        LCALL   ??osal_rand?relay
        MOV     A,R2
        ANL     A,#0x7f
        ADD     A,#0x64
        MOV     R2,A
        MOV     R3,#0x0
        LCALL   ??ZDApp_NetworkInit?relay
// 1204             }
// 1205           } // else if ( devStartMode == MODE_REJOIN )
// 1206 
// 1207           // The receiver is on, turn network layer polling off.
// 1208           if ( ZDO_Config_Node_Descriptor.CapabilityFlags & CAPINFO_RCVR_ON_IDLE )
??ZDApp_ProcessOSALMsg_12:
        MOV     DPTR,#ZDO_Config_Node_Descriptor + 2
        MOVX    A,@DPTR
        MOV     C,0xE0 /* A   */.3
        JNC     ??ZDApp_ProcessOSALMsg_21
// 1209           {
// 1210             // for an End Device with NO Child Table Management process or for a Router
// 1211             if ( ( ZG_DEVICE_RTR_TYPE )  ||
// 1212 #if defined ( ZIGBEE_CHILD_AGING )
// 1213                  ( (ZG_DEVICE_ENDDEVICE_TYPE) && ( zgChildAgingEnable == FALSE ) ) )
        MOV     DPTR,#zgDeviceLogicalType
        MOVX    A,@DPTR
        JZ      ??ZDApp_ProcessOSALMsg_22
        XRL     A,#0x1
        JZ      ??ZDApp_ProcessOSALMsg_22
        MOVX    A,@DPTR
        XRL     A,#0x2
        JZ      $+5
        LJMP    ??ZDApp_ProcessOSALMsg_7 & 0xFFFF
        MOV     DPTR,#zgChildAgingEnable
        MOVX    A,@DPTR
        JZ      $+5
        LJMP    ??ZDApp_ProcessOSALMsg_7 & 0xFFFF
// 1214 #else
// 1215                  (ZG_DEVICE_ENDDEVICE_TYPE) )
// 1216 #endif // ZIGBEE_CHILD_AGING
// 1217             {
// 1218               NLME_SetPollRate( 0 );
??ZDApp_ProcessOSALMsg_22:
        ; Setup parameters for call to function NLME_SetPollRate
        MOV     R2,#0x0
        MOV     R3,#0x0
        LCALL   ??NLME_SetPollRate?relay
// 1219               NLME_SetQueuedPollRate( 0 );
        ; Setup parameters for call to function NLME_SetQueuedPollRate
        MOV     R2,#0x0
        MOV     R3,#0x0
        LCALL   ??NLME_SetQueuedPollRate?relay
// 1220               NLME_SetResponseRate( 0 );
        ; Setup parameters for call to function NLME_SetResponseRate
        MOV     R2,#0x0
        MOV     R3,#0x0
        LCALL   ??NLME_SetResponseRate?relay
        SJMP    ??ZDApp_ProcessOSALMsg_7
// 1221             }
// 1222           }
// 1223           else
// 1224           {
// 1225             if ( (ZG_SECURE_ENABLED) && (devStartMode == MODE_JOIN) )
??ZDApp_ProcessOSALMsg_21:
        MOV     DPTR,#devStartMode
        MOVX    A,@DPTR
        JNZ     ??ZDApp_ProcessOSALMsg_7
// 1226             {
// 1227               ZDApp_SavedPollRate = zgPollRate;
        MOV     DPTR,#zgPollRate
        LCALL   ??Subroutine41_0 & 0xFFFF
??CrossCallReturnLabel_43:
        MOV     DPTR,#ZDApp_SavedPollRate
        MOV     A,R0
        MOVX    @DPTR,A
        INC     DPTR
        MOV     A,R1
        MOVX    @DPTR,A
// 1228               NLME_SetPollRate( zgRejoinPollRate );
        ; Setup parameters for call to function NLME_SetPollRate
        MOV     DPTR,#zgRejoinPollRate
        LCALL   ??Subroutine42_0 & 0xFFFF
// 1229             }
// 1230           }
// 1231         }
??CrossCallReturnLabel_51:
        LCALL   ??NLME_SetPollRate?relay
        SJMP    ??ZDApp_ProcessOSALMsg_7
// 1232         else
// 1233         {
// 1234           if ( continueJoining )
??ZDApp_ProcessOSALMsg_9:
        MOV     DPTR,#continueJoining
        MOVX    A,@DPTR
        JZ      ??ZDApp_ProcessOSALMsg_7
// 1235           {
// 1236     #if defined ( MANAGED_SCAN )
// 1237             ZDApp_NetworkInit( MANAGEDSCAN_DELAY_BETWEEN_SCANS );
// 1238     #else
// 1239             zdoDiscCounter++;
        MOV     DPTR,#zdoDiscCounter
        MOVX    A,@DPTR
        INC     A
        MOVX    @DPTR,A
// 1240             ZDApp_NetworkInit( (uint16)(BEACON_REQUEST_DELAY
// 1241                   + ((uint16)(osal_rand()& BEACON_REQ_DELAY_MASK))) );
        ; Setup parameters for call to function ZDApp_NetworkInit
        ; Setup parameters for call to function osal_rand
        LCALL   ??osal_rand?relay
        MOV     A,R2
        ADD     A,#0x64
        MOV     R2,A
        CLR     A
        ADDC    A,#0x0
        MOV     R3,A
        SJMP    ??ZDApp_ProcessOSALMsg_23
// 1242     #endif
// 1243           }
// 1244         }
// 1245       }
// 1246       break;
// 1247 
// 1248     case ZDO_NWK_JOIN_IND:
// 1249       if ( ZG_BUILD_JOINING_TYPE && ZG_DEVICE_JOINING_TYPE )
??ZDApp_ProcessOSALMsg_1:
        MOV     DPTR,#zgDeviceLogicalType
        MOVX    A,@DPTR
        XRL     A,#0x1
        JZ      ??ZDApp_ProcessOSALMsg_24
        MOVX    A,@DPTR
        XRL     A,#0x2
        JNZ     ??ZDApp_ProcessOSALMsg_7
// 1250       {
// 1251         ZDApp_ProcessNetworkJoin();
??ZDApp_ProcessOSALMsg_24:
        ; Setup parameters for call to function ZDApp_ProcessNetworkJoin
        LCALL   ??ZDApp_ProcessNetworkJoin?relay
        SJMP    ??ZDApp_ProcessOSALMsg_7
// 1252       }
// 1253       break;
// 1254 
// 1255     case ZDO_NWK_JOIN_REQ:
// 1256       if ( ZG_BUILD_JOINING_TYPE && ZG_DEVICE_JOINING_TYPE )
??ZDApp_ProcessOSALMsg_2:
        MOV     DPTR,#zgDeviceLogicalType
        MOVX    A,@DPTR
        XRL     A,#0x1
        JZ      ??ZDApp_ProcessOSALMsg_25
        MOVX    A,@DPTR
        XRL     A,#0x2
        JNZ     ??ZDApp_ProcessOSALMsg_7
// 1257       {
// 1258         retryCnt = 0;
??ZDApp_ProcessOSALMsg_25:
        MOV     DPTR,#retryCnt
        CLR     A
        MOVX    @DPTR,A
// 1259         devStartMode = MODE_RESUME;
        MOV     DPTR,#devStartMode
        INC     A
        MOVX    @DPTR,A
// 1260         _tmpRejoinState = true;
        MOV     DPTR,#_tmpRejoinState
        LCALL   ?Subroutine14 & 0xFFFF
// 1261         osal_cpyExtAddr( ZDO_UseExtendedPANID, _NIB.extendedPANID );
??CrossCallReturnLabel_5:
        LCALL   ??sAddrExtCpy?relay
// 1262         zgDefaultStartingScanDuration = BEACON_ORDER_60_MSEC;
        MOV     DPTR,#zgDefaultStartingScanDuration
        MOV     A,#0x2
        MOVX    @DPTR,A
// 1263         ZDApp_NetworkInit( 0 );
        ; Setup parameters for call to function ZDApp_NetworkInit
        MOV     R2,#0x0
        MOV     R3,#0x0
??ZDApp_ProcessOSALMsg_23:
        LCALL   ??ZDApp_NetworkInit?relay
        SJMP    ??ZDApp_ProcessOSALMsg_7
// 1264       }
// 1265       break;
// 1266 
// 1267     default:
// 1268       if ( ZG_SECURE_ENABLED )
// 1269         ZDApp_ProcessSecMsg( msgPtr );
??ZDApp_ProcessOSALMsg_6:
        ; Setup parameters for call to function ZDApp_ProcessSecMsg
        LCALL   ??ZDApp_ProcessSecMsg?relay
// 1270       break;
// 1271   }
// 1272 
// 1273 }
??ZDApp_ProcessOSALMsg_7:
        MOV     A,#0x3
        LJMP    ?Subroutine3 & 0xFFFF
          CFI EndBlock cfiBlock31

        RSEG BANKED_CODE:CODE:NOROOT(0)
?Subroutine14:
          CFI Block cfiCond32 Using cfiCommon0
          CFI Function ZDApp_RestoreNetworkState
          CFI Conditional ??CrossCallReturnLabel_4
          CFI R6 load(1, XDATA, add(CFA_XSP16, literal(-9)))
          CFI VB load(1, XDATA, add(CFA_XSP16, literal(-8)))
          CFI V0 load(1, XDATA, add(CFA_XSP16, literal(-7)))
          CFI R7 load(1, XDATA, add(CFA_XSP16, literal(-6)))
          CFI ?RET_LOW load(1, XDATA, add(CFA_XSP16, literal(-5)))
          CFI ?RET_HIGH load(1, XDATA, add(CFA_XSP16, literal(-4)))
          CFI ?BRET_EXT load(1, XDATA, add(CFA_XSP16, literal(-3)))
          CFI DPL0 load(1, XDATA, add(CFA_XSP16, literal(-2)))
          CFI DPH0 load(1, XDATA, add(CFA_XSP16, literal(-1)))
          CFI CFA_SP SP+0
          CFI CFA_XSP16 add(XSP16, 9)
          CFI Block cfiCond33 Using cfiCommon0
          CFI (cfiCond33) Function ZDApp_ProcessOSALMsg
          CFI (cfiCond33) Conditional ??CrossCallReturnLabel_5
          CFI (cfiCond33) R6 load(1, XDATA, add(CFA_XSP16, literal(-12)))
          CFI (cfiCond33) VB load(1, XDATA, add(CFA_XSP16, literal(-11)))
          CFI (cfiCond33) V0 load(1, XDATA, add(CFA_XSP16, literal(-10)))
          CFI (cfiCond33) V1 load(1, XDATA, add(CFA_XSP16, literal(-9)))
          CFI (cfiCond33) V2 load(1, XDATA, add(CFA_XSP16, literal(-8)))
          CFI (cfiCond33) V3 load(1, XDATA, add(CFA_XSP16, literal(-7)))
          CFI (cfiCond33) R7 load(1, XDATA, add(CFA_XSP16, literal(-6)))
          CFI (cfiCond33) ?RET_LOW load(1, XDATA, add(CFA_XSP16, literal(-5)))
          CFI (cfiCond33) ?RET_HIGH load(1, XDATA, add(CFA_XSP16, literal(-4)))
          CFI (cfiCond33) ?BRET_EXT load(1, XDATA, add(CFA_XSP16, literal(-3)))
          CFI (cfiCond33) DPL0 load(1, XDATA, add(CFA_XSP16, literal(-2)))
          CFI (cfiCond33) DPH0 load(1, XDATA, add(CFA_XSP16, literal(-1)))
          CFI (cfiCond33) CFA_SP SP+0
          CFI (cfiCond33) CFA_XSP16 add(XSP16, 15)
          CFI Block cfiPicker34 Using cfiCommon1
          CFI (cfiPicker34) NoFunction
          CFI (cfiPicker34) Picker
        MOVX    @DPTR,A
        ; Setup parameters for call to function sAddrExtCpy
        ; Setup parameters for call to function sAddrExtCpy
        MOV     R4,#(_NIB + 53) & 0xff
        MOV     R5,#((_NIB + 53) >> 8) & 0xff
        MOV     R2,#ZDO_UseExtendedPANID & 0xff
        MOV     R3,#(ZDO_UseExtendedPANID >> 8) & 0xff
        RET
          CFI EndBlock cfiCond32
          CFI EndBlock cfiCond33
          CFI EndBlock cfiPicker34
// 1274 
// 1275 /*********************************************************************
// 1276  * @fn      ZDApp_ProcessMsgCBs()
// 1277  *
// 1278  * @brief   Process response messages
// 1279  *
// 1280  * @param   none
// 1281  *
// 1282  * @return  none
// 1283  */

        RSEG BANKED_CODE:CODE:NOROOT(0)
// 1284 void ZDApp_ProcessMsgCBs( zdoIncomingMsg_t *inMsg )
ZDApp_ProcessMsgCBs:
          CFI Block cfiBlock35 Using cfiCommon0
          CFI Function ZDApp_ProcessMsgCBs
        CODE
// 1285 {
        FUNCALL ZDApp_ProcessMsgCBs, ZDO_ParseAddrRsp
        LOCFRAME ISTACK, 0, STACK
        LOCFRAME PSTACK, 0, STACK
        LOCFRAME XSTACK, 35, STACK
        LOCFRAME IOVERLAY, 0, STATIC
        LOCFRAME DOVERLAY, 0, STATIC
        ARGFRAME ISTACK, 0, STACK
        ARGFRAME PSTACK, 0, STACK
        ARGFRAME XSTACK, 35, STACK
        ARGFRAME IOVERLAY, 0, STATIC
        ARGFRAME DOVERLAY, 0, STATIC
        FUNCALL ZDApp_ProcessMsgCBs, ZDO_UpdateAddrManager
        LOCFRAME ISTACK, 0, STACK
        LOCFRAME PSTACK, 0, STACK
        LOCFRAME XSTACK, 35, STACK
        LOCFRAME IOVERLAY, 0, STATIC
        LOCFRAME DOVERLAY, 0, STATIC
        ARGFRAME ISTACK, 0, STACK
        ARGFRAME PSTACK, 0, STACK
        ARGFRAME XSTACK, 35, STACK
        ARGFRAME IOVERLAY, 0, STATIC
        ARGFRAME DOVERLAY, 0, STATIC
        FUNCALL ZDApp_ProcessMsgCBs, ZDApp_ProcessPendingBindReq
        LOCFRAME ISTACK, 0, STACK
        LOCFRAME PSTACK, 0, STACK
        LOCFRAME XSTACK, 35, STACK
        LOCFRAME IOVERLAY, 0, STATIC
        LOCFRAME DOVERLAY, 0, STATIC
        ARGFRAME ISTACK, 0, STACK
        ARGFRAME PSTACK, 0, STACK
        ARGFRAME XSTACK, 35, STACK
        ARGFRAME IOVERLAY, 0, STATIC
        ARGFRAME DOVERLAY, 0, STATIC
        FUNCALL ZDApp_ProcessMsgCBs, osal_mem_free
        LOCFRAME ISTACK, 0, STACK
        LOCFRAME PSTACK, 0, STACK
        LOCFRAME XSTACK, 35, STACK
        LOCFRAME IOVERLAY, 0, STATIC
        LOCFRAME DOVERLAY, 0, STATIC
        ARGFRAME ISTACK, 0, STACK
        ARGFRAME PSTACK, 0, STACK
        ARGFRAME XSTACK, 35, STACK
        ARGFRAME IOVERLAY, 0, STATIC
        ARGFRAME DOVERLAY, 0, STATIC
        FUNCALL ZDApp_ProcessMsgCBs, ZDO_ParseBindUnbindReq
        LOCFRAME ISTACK, 0, STACK
        LOCFRAME PSTACK, 0, STACK
        LOCFRAME XSTACK, 35, STACK
        LOCFRAME IOVERLAY, 0, STATIC
        LOCFRAME DOVERLAY, 0, STATIC
        ARGFRAME ISTACK, 0, STACK
        ARGFRAME PSTACK, 0, STACK
        ARGFRAME XSTACK, 35, STACK
        ARGFRAME IOVERLAY, 0, STATIC
        ARGFRAME DOVERLAY, 0, STATIC
        FUNCALL ZDApp_ProcessMsgCBs, ZDO_ProcessBindUnbindReq
        LOCFRAME ISTACK, 0, STACK
        LOCFRAME PSTACK, 0, STACK
        LOCFRAME XSTACK, 35, STACK
        LOCFRAME IOVERLAY, 0, STATIC
        LOCFRAME DOVERLAY, 0, STATIC
        ARGFRAME ISTACK, 0, STACK
        ARGFRAME PSTACK, 0, STACK
        ARGFRAME XSTACK, 35, STACK
        ARGFRAME IOVERLAY, 0, STATIC
        ARGFRAME DOVERLAY, 0, STATIC
        MOV     A,#-0xe
        LCALL   ?BANKED_ENTER_XDATA
          CFI DPH0 load(1, XDATA, add(CFA_XSP16, literal(-1)))
          CFI DPL0 load(1, XDATA, add(CFA_XSP16, literal(-2)))
          CFI ?BRET_EXT load(1, XDATA, add(CFA_XSP16, literal(-3)))
          CFI ?RET_HIGH load(1, XDATA, add(CFA_XSP16, literal(-4)))
          CFI ?RET_LOW load(1, XDATA, add(CFA_XSP16, literal(-5)))
          CFI R7 load(1, XDATA, add(CFA_XSP16, literal(-6)))
          CFI V5 load(1, XDATA, add(CFA_XSP16, literal(-7)))
          CFI V4 load(1, XDATA, add(CFA_XSP16, literal(-8)))
          CFI V3 load(1, XDATA, add(CFA_XSP16, literal(-9)))
          CFI V2 load(1, XDATA, add(CFA_XSP16, literal(-10)))
          CFI V1 load(1, XDATA, add(CFA_XSP16, literal(-11)))
          CFI V0 load(1, XDATA, add(CFA_XSP16, literal(-12)))
          CFI VB load(1, XDATA, add(CFA_XSP16, literal(-13)))
          CFI R6 load(1, XDATA, add(CFA_XSP16, literal(-14)))
          CFI CFA_SP SP+0
          CFI CFA_XSP16 add(XSP16, 14)
        ; Saved register size: 14
        ; Auto size: 21
        MOV     A,#-0x15
        LCALL   ?ALLOC_XSTACK8
          CFI CFA_XSP16 add(XSP16, 35)
        MOV     A,R2
        MOV     R6,A
        MOV     A,R3
        MOV     R7,A
// 1286   switch ( inMsg->clusterID )
        MOV     A,R6
        ADD     A,#0xc
        MOV     ?V0 + 0,A
        MOV     A,R7
        ADDC    A,#0x0
        MOV     ?V0 + 1,A
        MOV     DPL,?V0 + 0
        MOV     DPH,A
        LCALL   ?Subroutine23 & 0xFFFF
??CrossCallReturnLabel_16:
        MOV     R0,#?V0 + 2
        LCALL   ?US_SWITCH_SPARSE
`?<Jumptable for ZDApp_ProcessMsgCBs>_0`:
        DATA
        DATA16
        DATA
        DATA16
        DATA
        DATA16
        DW        2
        DATA
        DATA16
        DATA
        DATA16
        DATA
        DATA16
        DW        33
        DATA
        DATA16
        DATA
        DATA16
        DW        34
        DATA
        DATA16
        DATA
        DATA16
        DATA
        DATA16
        DW        ??ZDApp_ProcessMsgCBs_0
        DATA
        DATA16
        DATA
        DATA16
        DATA
        DATA16
        DW        32768
        DATA
        DATA16
        DATA
        DATA16
        DW        32769
        DATA
        DATA16
        DATA
        DATA16
        DATA
        DATA16
        DW        ??ZDApp_ProcessMsgCBs_1
        DATA
        DATA16
        DATA
        DATA16
        DATA
        DATA16
        DW        0
        DATA
        DATA16
        DATA
        DATA16
        DW        ??ZDApp_ProcessMsgCBs_2
        CODE
// 1287   {
// 1288 #if defined ( ZDO_NWKADDR_REQUEST ) || defined ( ZDO_IEEEADDR_REQUEST ) || defined ( REFLECTOR )
// 1289     case NWK_addr_rsp:
// 1290     case IEEE_addr_rsp:
// 1291       {
// 1292         ZDO_NwkIEEEAddrResp_t *pAddrRsp;
// 1293 
// 1294         pAddrRsp = ZDO_ParseAddrRsp( inMsg );
??ZDApp_ProcessMsgCBs_1:
        ; Setup parameters for call to function ZDO_ParseAddrRsp
        LCALL   ??ZDO_ParseAddrRsp?relay
        MOV     ?V0 + 2,R2
        MOV     ?V0 + 3,R3
// 1295         if ( pAddrRsp )
        MOV     A,R2
        ORL     A,?V0 + 3
        JZ      ??ZDApp_ProcessMsgCBs_2
// 1296         {
// 1297           if ( pAddrRsp->status == ZSuccess )
        MOV     A,R2
        ADD     A,#0x3
        MOV     R6,A
        MOV     A,R3
        ADDC    A,#0x0
        MOV     R7,A
        MOV     DPL,R2
        MOV     DPH,R3
        MOVX    A,@DPTR
        JNZ     ??ZDApp_ProcessMsgCBs_3
// 1298           {
// 1299             ZDO_UpdateAddrManager( pAddrRsp->nwkAddr, pAddrRsp->extAddr );
        ; Setup parameters for call to function ZDO_UpdateAddrManager
        MOV     A,R6
        MOV     R4,A
        MOV     A,R7
        MOV     R5,A
        INC     DPTR
        LCALL   ??Subroutine42_0 & 0xFFFF
// 1300           }
??CrossCallReturnLabel_52:
        LCALL   ??ZDO_UpdateAddrManager?relay
// 1301 
// 1302 #if !defined ( ZDP_BIND_SKIP_VALIDATION )
// 1303           // look for pending bind entry for NWK_addr_rsp Only
// 1304           if ( inMsg->clusterID == NWK_addr_rsp )
??ZDApp_ProcessMsgCBs_3:
        MOV     DPL,?V0 + 0
        MOV     DPH,?V0 + 1
        MOVX    A,@DPTR
        JNZ     ??ZDApp_ProcessMsgCBs_4
        INC     DPTR
        MOVX    A,@DPTR
        XRL     A,#0x80
??ZDApp_ProcessMsgCBs_4:
        JNZ     ??ZDApp_ProcessMsgCBs_5
// 1305           {
// 1306 #if defined ( REFLECTOR )
// 1307             ZDApp_ProcessPendingBindReq( pAddrRsp->extAddr );
        ; Setup parameters for call to function ZDApp_ProcessPendingBindReq
        MOV     A,R6
        MOV     R2,A
        MOV     A,R7
        MOV     R3,A
        LCALL   ??ZDApp_ProcessPendingBindReq?relay
// 1308 #endif
// 1309           }
// 1310 #endif
// 1311 
// 1312           osal_mem_free( pAddrRsp );
??ZDApp_ProcessMsgCBs_5:
        ; Setup parameters for call to function osal_mem_free
        MOV     R2,?V0 + 2
        MOV     R3,?V0 + 3
        LCALL   ??osal_mem_free?relay
        SJMP    ??ZDApp_ProcessMsgCBs_2
// 1313         }
// 1314       }
// 1315       break;
// 1316 #endif
// 1317 
// 1318 #if defined ( REFLECTOR )
// 1319     case Bind_req:
// 1320     case Unbind_req:
// 1321       {
// 1322         ZDO_BindUnbindReq_t bindReq;
// 1323         ZDO_ParseBindUnbindReq( inMsg, &bindReq );
??ZDApp_ProcessMsgCBs_0:
        ; Setup parameters for call to function ZDO_ParseBindUnbindReq
        MOV     DPL,?XSP + 0
        MOV     DPH,?XSP + 1
        MOV     R4,DPL
        MOV     R5,DPH
        LCALL   ??ZDO_ParseBindUnbindReq?relay
// 1324         ZDO_ProcessBindUnbindReq( inMsg, &bindReq );
        ; Setup parameters for call to function ZDO_ProcessBindUnbindReq
        MOV     DPL,?XSP + 0
        MOV     DPH,?XSP + 1
        MOV     R4,DPL
        MOV     R5,DPH
        MOV     A,R6
        MOV     R2,A
        MOV     A,R7
        MOV     R3,A
        LCALL   ??ZDO_ProcessBindUnbindReq?relay
// 1325       }
// 1326       break;
// 1327 #endif
// 1328 
// 1329 #if ( ZG_BUILD_COORDINATOR_TYPE )
// 1330     case Bind_rsp:
// 1331     case Unbind_rsp:
// 1332       if (ZG_DEVICE_COORDINATOR_TYPE && matchED)
// 1333       {
// 1334         ZDMatchSendState(
// 1335              (uint8)((inMsg->clusterID == Bind_rsp) ? ZDMATCH_REASON_BIND_RSP : ZDMATCH_REASON_UNBIND_RSP),
// 1336              ZDO_ParseBindRsp(inMsg), inMsg->TransSeq );
// 1337       }
// 1338       break;
// 1339 
// 1340     case End_Device_Bind_req:
// 1341       if (ZG_DEVICE_COORDINATOR_TYPE)
// 1342       {
// 1343         ZDEndDeviceBind_t bindReq;
// 1344         ZDO_ParseEndDeviceBindReq( inMsg, &bindReq );
// 1345         ZDO_MatchEndDeviceBind( &bindReq );
// 1346 
// 1347         // Freeing the cluster lists - if allocated.
// 1348         if ( bindReq.numInClusters )
// 1349           osal_mem_free( bindReq.inClusters );
// 1350         if ( bindReq.numOutClusters )
// 1351           osal_mem_free( bindReq.outClusters );
// 1352       }
// 1353       break;
// 1354 #endif
// 1355   }
// 1356 }
??ZDApp_ProcessMsgCBs_2:
        MOV     A,#0x15
        LJMP    ?Subroutine1 & 0xFFFF
          CFI EndBlock cfiBlock35
// 1357 
// 1358 /*********************************************************************
// 1359  * @fn      ZDApp_RegisterCBs()
// 1360  *
// 1361  * @brief   Process response messages
// 1362  *
// 1363  * @param   none
// 1364  *
// 1365  * @return  none
// 1366  */

        RSEG BANKED_CODE:CODE:NOROOT(0)
// 1367 void ZDApp_RegisterCBs( void )
ZDApp_RegisterCBs:
          CFI Block cfiBlock36 Using cfiCommon0
          CFI Function ZDApp_RegisterCBs
        CODE
// 1368 {
        FUNCALL ZDApp_RegisterCBs, ZDO_RegisterForZDOMsg
        LOCFRAME ISTACK, 2, STACK
        LOCFRAME PSTACK, 0, STACK
        LOCFRAME XSTACK, 0, STACK
        LOCFRAME IOVERLAY, 0, STATIC
        LOCFRAME DOVERLAY, 0, STATIC
        ARGFRAME ISTACK, 2, STACK
        ARGFRAME PSTACK, 0, STACK
        ARGFRAME XSTACK, 0, STACK
        ARGFRAME IOVERLAY, 0, STATIC
        ARGFRAME DOVERLAY, 0, STATIC
        FUNCALL ZDApp_RegisterCBs, ZDO_RegisterForZDOMsg
        LOCFRAME ISTACK, 2, STACK
        LOCFRAME PSTACK, 0, STACK
        LOCFRAME XSTACK, 0, STACK
        LOCFRAME IOVERLAY, 0, STATIC
        LOCFRAME DOVERLAY, 0, STATIC
        ARGFRAME ISTACK, 2, STACK
        ARGFRAME PSTACK, 0, STACK
        ARGFRAME XSTACK, 0, STACK
        ARGFRAME IOVERLAY, 0, STATIC
        ARGFRAME DOVERLAY, 0, STATIC
        FUNCALL ZDApp_RegisterCBs, ZDO_RegisterForZDOMsg
        LOCFRAME ISTACK, 2, STACK
        LOCFRAME PSTACK, 0, STACK
        LOCFRAME XSTACK, 0, STACK
        LOCFRAME IOVERLAY, 0, STATIC
        LOCFRAME DOVERLAY, 0, STATIC
        ARGFRAME ISTACK, 2, STACK
        ARGFRAME PSTACK, 0, STACK
        ARGFRAME XSTACK, 0, STACK
        ARGFRAME IOVERLAY, 0, STATIC
        ARGFRAME DOVERLAY, 0, STATIC
        FUNCALL ZDApp_RegisterCBs, ZDO_RegisterForZDOMsg
        LOCFRAME ISTACK, 2, STACK
        LOCFRAME PSTACK, 0, STACK
        LOCFRAME XSTACK, 0, STACK
        LOCFRAME IOVERLAY, 0, STATIC
        LOCFRAME DOVERLAY, 0, STATIC
        ARGFRAME ISTACK, 2, STACK
        ARGFRAME PSTACK, 0, STACK
        ARGFRAME XSTACK, 0, STACK
        ARGFRAME IOVERLAY, 0, STATIC
        ARGFRAME DOVERLAY, 0, STATIC
        PUSH    DPL
          CFI DPL0 Frame(CFA_SP, 4)
          CFI CFA_SP SP+-4
        PUSH    DPH
          CFI DPH0 Frame(CFA_SP, 5)
          CFI CFA_SP SP+-5
        ; Saved register size: 2
        ; Auto size: 0
// 1369 #if defined ( ZDO_IEEEADDR_REQUEST ) || defined ( REFLECTOR )
// 1370   ZDO_RegisterForZDOMsg( ZDAppTaskID, IEEE_addr_rsp );
        ; Setup parameters for call to function ZDO_RegisterForZDOMsg
        MOV     R2,#0x1
        MOV     R3,#-0x80
        MOV     DPTR,#ZDAppTaskID
        MOVX    A,@DPTR
        MOV     R1,A
        LCALL   ??ZDO_RegisterForZDOMsg?relay
// 1371 #endif
// 1372 #if defined ( ZDO_NWKADDR_REQUEST ) || defined ( REFLECTOR )
// 1373   ZDO_RegisterForZDOMsg( ZDAppTaskID, NWK_addr_rsp );
        ; Setup parameters for call to function ZDO_RegisterForZDOMsg
        MOV     R2,#0x0
        MOV     R3,#-0x80
        MOV     DPTR,#ZDAppTaskID
        MOVX    A,@DPTR
        MOV     R1,A
        LCALL   ??ZDO_RegisterForZDOMsg?relay
// 1374 #endif
// 1375 #if ZG_BUILD_COORDINATOR_TYPE
// 1376   ZDO_RegisterForZDOMsg( ZDAppTaskID, Bind_rsp );
// 1377   ZDO_RegisterForZDOMsg( ZDAppTaskID, Unbind_rsp );
// 1378   ZDO_RegisterForZDOMsg( ZDAppTaskID, End_Device_Bind_req );
// 1379 #endif
// 1380 #if defined ( REFLECTOR )
// 1381   ZDO_RegisterForZDOMsg( ZDAppTaskID, Bind_req );
        ; Setup parameters for call to function ZDO_RegisterForZDOMsg
        MOV     R2,#0x21
        MOV     R3,#0x0
        MOV     DPTR,#ZDAppTaskID
        MOVX    A,@DPTR
        MOV     R1,A
        LCALL   ??ZDO_RegisterForZDOMsg?relay
// 1382   ZDO_RegisterForZDOMsg( ZDAppTaskID, Unbind_req );
        ; Setup parameters for call to function ZDO_RegisterForZDOMsg
        MOV     R2,#0x22
        MOV     R3,#0x0
        MOV     DPTR,#ZDAppTaskID
        MOVX    A,@DPTR
        MOV     R1,A
        LCALL   ??ZDO_RegisterForZDOMsg?relay
// 1383 #endif
// 1384 }
        LJMP    ??Subroutine40_0 & 0xFFFF
          CFI EndBlock cfiBlock36
// 1385 
// 1386 /*********************************************************************
// 1387  * @fn      ZDApp_ProcessSecMsg()
// 1388  *
// 1389  * @brief   Process the incoming security message.
// 1390  *
// 1391  * @param   msgPtr - message to process
// 1392  *
// 1393  * @return  none
// 1394  */

        RSEG BANKED_CODE:CODE:NOROOT(0)
// 1395 void ZDApp_ProcessSecMsg( osal_event_hdr_t *msgPtr )
ZDApp_ProcessSecMsg:
          CFI Block cfiBlock37 Using cfiCommon0
          CFI Function ZDApp_ProcessSecMsg
        CODE
// 1396 {
        FUNCALL ZDApp_ProcessSecMsg, ZDSecMgrTransportKeyInd
        LOCFRAME ISTACK, 2, STACK
        LOCFRAME PSTACK, 0, STACK
        LOCFRAME XSTACK, 0, STACK
        LOCFRAME IOVERLAY, 0, STATIC
        LOCFRAME DOVERLAY, 0, STATIC
        ARGFRAME ISTACK, 2, STACK
        ARGFRAME PSTACK, 0, STACK
        ARGFRAME XSTACK, 0, STACK
        ARGFRAME IOVERLAY, 0, STATIC
        ARGFRAME DOVERLAY, 0, STATIC
        FUNCALL ZDApp_ProcessSecMsg, ZDSecMgrRemoveDeviceInd
        LOCFRAME ISTACK, 2, STACK
        LOCFRAME PSTACK, 0, STACK
        LOCFRAME XSTACK, 0, STACK
        LOCFRAME IOVERLAY, 0, STATIC
        LOCFRAME DOVERLAY, 0, STATIC
        ARGFRAME ISTACK, 2, STACK
        ARGFRAME PSTACK, 0, STACK
        ARGFRAME XSTACK, 0, STACK
        ARGFRAME IOVERLAY, 0, STATIC
        ARGFRAME DOVERLAY, 0, STATIC
        FUNCALL ZDApp_ProcessSecMsg, ZDSecMgrSwitchKeyInd
        LOCFRAME ISTACK, 2, STACK
        LOCFRAME PSTACK, 0, STACK
        LOCFRAME XSTACK, 0, STACK
        LOCFRAME IOVERLAY, 0, STATIC
        LOCFRAME DOVERLAY, 0, STATIC
        ARGFRAME ISTACK, 2, STACK
        ARGFRAME PSTACK, 0, STACK
        ARGFRAME XSTACK, 0, STACK
        ARGFRAME IOVERLAY, 0, STATIC
        ARGFRAME DOVERLAY, 0, STATIC
        PUSH    DPL
          CFI DPL0 Frame(CFA_SP, 4)
          CFI CFA_SP SP+-4
        PUSH    DPH
          CFI DPH0 Frame(CFA_SP, 5)
          CFI CFA_SP SP+-5
        ; Saved register size: 2
        ; Auto size: 0
// 1397   switch ( msgPtr->event )
        MOV     DPL,R2
        MOV     DPH,R3
        MOVX    A,@DPTR
        ADD     A,#-0x4
        JZ      ??ZDApp_ProcessSecMsg_0
        ADD     A,#-0x2
        JZ      ??ZDApp_ProcessSecMsg_1
        ADD     A,#-0x2
        JZ      ??ZDApp_ProcessSecMsg_2
        SJMP    ??ZDApp_ProcessSecMsg_3
// 1398   {
// 1399     case ZDO_TRANSPORT_KEY_IND:
// 1400       if ( ZG_BUILD_JOINING_TYPE && ZG_DEVICE_JOINING_TYPE )
??ZDApp_ProcessSecMsg_0:
        MOV     DPTR,#zgDeviceLogicalType
        MOVX    A,@DPTR
        XRL     A,#0x1
        JZ      ??ZDApp_ProcessSecMsg_4
        MOVX    A,@DPTR
        XRL     A,#0x2
        JNZ     ??ZDApp_ProcessSecMsg_3
// 1401       {
// 1402         ZDSecMgrTransportKeyInd( (ZDO_TransportKeyInd_t*)msgPtr );
??ZDApp_ProcessSecMsg_4:
        ; Setup parameters for call to function ZDSecMgrTransportKeyInd
        LCALL   ??ZDSecMgrTransportKeyInd?relay
        SJMP    ??ZDApp_ProcessSecMsg_3
// 1403       }
// 1404       break;
// 1405 
// 1406     case ZDO_UPDATE_DEVICE_IND:
// 1407       if ( ZG_BUILD_COORDINATOR_TYPE && ZG_DEVICE_COORDINATOR_TYPE )
// 1408       {
// 1409         ZDSecMgrUpdateDeviceInd( (ZDO_UpdateDeviceInd_t*)msgPtr );
// 1410       }
// 1411       break;
// 1412 
// 1413     case ZDO_REMOVE_DEVICE_IND:
// 1414       if ( ZG_BUILD_RTRONLY_TYPE && ( zgDeviceLogicalType == ZG_DEVICETYPE_ROUTER ) )
??ZDApp_ProcessSecMsg_1:
        MOV     DPTR,#zgDeviceLogicalType
        MOVX    A,@DPTR
        XRL     A,#0x1
        JNZ     ??ZDApp_ProcessSecMsg_3
// 1415       {
// 1416         ZDSecMgrRemoveDeviceInd( (ZDO_RemoveDeviceInd_t*)msgPtr );
        ; Setup parameters for call to function ZDSecMgrRemoveDeviceInd
        LCALL   ??ZDSecMgrRemoveDeviceInd?relay
        SJMP    ??ZDApp_ProcessSecMsg_3
// 1417       }
// 1418       break;
// 1419 
// 1420     case ZDO_REQUEST_KEY_IND:
// 1421       if ( ( ZG_CHECK_SECURITY_MODE == ZG_SECURITY_SE_STANDARD ) )
// 1422       {
// 1423         if ( ZG_BUILD_COORDINATOR_TYPE && ZG_DEVICE_COORDINATOR_TYPE )
// 1424         {
// 1425           ZDSecMgrRequestKeyInd( (ZDO_RequestKeyInd_t*)msgPtr );
// 1426         }
// 1427       }
// 1428       break;
// 1429 
// 1430     case ZDO_SWITCH_KEY_IND:
// 1431       if ( ZG_BUILD_JOINING_TYPE && ZG_DEVICE_JOINING_TYPE )
??ZDApp_ProcessSecMsg_2:
        MOV     DPTR,#zgDeviceLogicalType
        MOVX    A,@DPTR
        XRL     A,#0x1
        JZ      ??ZDApp_ProcessSecMsg_5
        MOVX    A,@DPTR
        XRL     A,#0x2
        JNZ     ??ZDApp_ProcessSecMsg_3
// 1432       {
// 1433         ZDSecMgrSwitchKeyInd( (ZDO_SwitchKeyInd_t*)msgPtr );
??ZDApp_ProcessSecMsg_5:
        ; Setup parameters for call to function ZDSecMgrSwitchKeyInd
        LCALL   ??ZDSecMgrSwitchKeyInd?relay
// 1434       }
// 1435       break;
// 1436 
// 1437     default:
// 1438       // Unsupported messages
// 1439       break;
// 1440   }
// 1441 }
??ZDApp_ProcessSecMsg_3:
        LJMP    ??Subroutine40_0 & 0xFFFF
          CFI EndBlock cfiBlock37
// 1442 
// 1443 /*********************************************************************
// 1444  * @fn      ZDApp_ProcessNetworkJoin()
// 1445  *
// 1446  * @brief
// 1447  *
// 1448  *   Save off the Network key information.
// 1449  *
// 1450  * @param   none
// 1451  *
// 1452  * @return  none
// 1453  */

        RSEG BANKED_CODE:CODE:NOROOT(0)
// 1454 void ZDApp_ProcessNetworkJoin( void )
ZDApp_ProcessNetworkJoin:
          CFI Block cfiBlock38 Using cfiCommon0
          CFI Function ZDApp_ProcessNetworkJoin
        CODE
// 1455 {
        FUNCALL ZDApp_ProcessNetworkJoin, osal_set_event
        LOCFRAME ISTACK, 0, STACK
        LOCFRAME PSTACK, 0, STACK
        LOCFRAME XSTACK, 12, STACK
        LOCFRAME IOVERLAY, 0, STATIC
        LOCFRAME DOVERLAY, 0, STATIC
        ARGFRAME ISTACK, 0, STACK
        ARGFRAME PSTACK, 0, STACK
        ARGFRAME XSTACK, 12, STACK
        ARGFRAME IOVERLAY, 0, STATIC
        ARGFRAME DOVERLAY, 0, STATIC
        FUNCALL ZDApp_ProcessNetworkJoin, ZDApp_RestoreNwkKey
        LOCFRAME ISTACK, 0, STACK
        LOCFRAME PSTACK, 0, STACK
        LOCFRAME XSTACK, 12, STACK
        LOCFRAME IOVERLAY, 0, STATIC
        LOCFRAME DOVERLAY, 0, STATIC
        ARGFRAME ISTACK, 0, STACK
        ARGFRAME PSTACK, 0, STACK
        ARGFRAME XSTACK, 12, STACK
        ARGFRAME IOVERLAY, 0, STATIC
        ARGFRAME DOVERLAY, 0, STATIC
        FUNCALL ZDApp_ProcessNetworkJoin, ZDApp_ResetTimerStart
        LOCFRAME ISTACK, 0, STACK
        LOCFRAME PSTACK, 0, STACK
        LOCFRAME XSTACK, 12, STACK
        LOCFRAME IOVERLAY, 0, STATIC
        LOCFRAME DOVERLAY, 0, STATIC
        ARGFRAME ISTACK, 0, STACK
        ARGFRAME PSTACK, 0, STACK
        ARGFRAME XSTACK, 12, STACK
        ARGFRAME IOVERLAY, 0, STATIC
        ARGFRAME DOVERLAY, 0, STATIC
        FUNCALL ZDApp_ProcessNetworkJoin, ZDApp_AnnounceNewAddress
        LOCFRAME ISTACK, 0, STACK
        LOCFRAME PSTACK, 0, STACK
        LOCFRAME XSTACK, 12, STACK
        LOCFRAME IOVERLAY, 0, STATIC
        LOCFRAME DOVERLAY, 0, STATIC
        ARGFRAME ISTACK, 0, STACK
        ARGFRAME PSTACK, 0, STACK
        ARGFRAME XSTACK, 12, STACK
        ARGFRAME IOVERLAY, 0, STATIC
        ARGFRAME DOVERLAY, 0, STATIC
        FUNCALL ZDApp_ProcessNetworkJoin, NLME_StartRouterRequest
        LOCFRAME ISTACK, 0, STACK
        LOCFRAME PSTACK, 0, STACK
        LOCFRAME XSTACK, 12, STACK
        LOCFRAME IOVERLAY, 0, STATIC
        LOCFRAME DOVERLAY, 0, STATIC
        ARGFRAME ISTACK, 0, STACK
        ARGFRAME PSTACK, 0, STACK
        ARGFRAME XSTACK, 12, STACK
        ARGFRAME IOVERLAY, 0, STATIC
        ARGFRAME DOVERLAY, 0, STATIC
        FUNCALL ZDApp_ProcessNetworkJoin, NLME_GetShortAddr
        LOCFRAME ISTACK, 0, STACK
        LOCFRAME PSTACK, 0, STACK
        LOCFRAME XSTACK, 12, STACK
        LOCFRAME IOVERLAY, 0, STATIC
        LOCFRAME DOVERLAY, 0, STATIC
        ARGFRAME ISTACK, 0, STACK
        ARGFRAME PSTACK, 0, STACK
        ARGFRAME XSTACK, 12, STACK
        ARGFRAME IOVERLAY, 0, STATIC
        ARGFRAME DOVERLAY, 0, STATIC
        FUNCALL ZDApp_ProcessNetworkJoin, ZMacSetReq
        LOCFRAME ISTACK, 0, STACK
        LOCFRAME PSTACK, 0, STACK
        LOCFRAME XSTACK, 12, STACK
        LOCFRAME IOVERLAY, 0, STATIC
        LOCFRAME DOVERLAY, 0, STATIC
        ARGFRAME ISTACK, 0, STACK
        ARGFRAME PSTACK, 0, STACK
        ARGFRAME XSTACK, 12, STACK
        ARGFRAME IOVERLAY, 0, STATIC
        ARGFRAME DOVERLAY, 0, STATIC
        FUNCALL ZDApp_ProcessNetworkJoin, nwkNeighborInitTable
        LOCFRAME ISTACK, 0, STACK
        LOCFRAME PSTACK, 0, STACK
        LOCFRAME XSTACK, 12, STACK
        LOCFRAME IOVERLAY, 0, STATIC
        LOCFRAME DOVERLAY, 0, STATIC
        ARGFRAME ISTACK, 0, STACK
        ARGFRAME PSTACK, 0, STACK
        ARGFRAME XSTACK, 12, STACK
        ARGFRAME IOVERLAY, 0, STATIC
        ARGFRAME DOVERLAY, 0, STATIC
        FUNCALL ZDApp_ProcessNetworkJoin, NLME_NwkDiscTerm
        LOCFRAME ISTACK, 0, STACK
        LOCFRAME PSTACK, 0, STACK
        LOCFRAME XSTACK, 12, STACK
        LOCFRAME IOVERLAY, 0, STATIC
        LOCFRAME DOVERLAY, 0, STATIC
        ARGFRAME ISTACK, 0, STACK
        ARGFRAME PSTACK, 0, STACK
        ARGFRAME XSTACK, 12, STACK
        ARGFRAME IOVERLAY, 0, STATIC
        ARGFRAME DOVERLAY, 0, STATIC
        FUNCALL ZDApp_ProcessNetworkJoin, osal_rand
        LOCFRAME ISTACK, 0, STACK
        LOCFRAME PSTACK, 0, STACK
        LOCFRAME XSTACK, 12, STACK
        LOCFRAME IOVERLAY, 0, STATIC
        LOCFRAME DOVERLAY, 0, STATIC
        ARGFRAME ISTACK, 0, STACK
        ARGFRAME PSTACK, 0, STACK
        ARGFRAME XSTACK, 12, STACK
        ARGFRAME IOVERLAY, 0, STATIC
        ARGFRAME DOVERLAY, 0, STATIC
        FUNCALL ZDApp_ProcessNetworkJoin, ZDApp_NetworkInit
        LOCFRAME ISTACK, 0, STACK
        LOCFRAME PSTACK, 0, STACK
        LOCFRAME XSTACK, 12, STACK
        LOCFRAME IOVERLAY, 0, STATIC
        LOCFRAME DOVERLAY, 0, STATIC
        ARGFRAME ISTACK, 0, STACK
        ARGFRAME PSTACK, 0, STACK
        ARGFRAME XSTACK, 12, STACK
        ARGFRAME IOVERLAY, 0, STATIC
        ARGFRAME DOVERLAY, 0, STATIC
        FUNCALL ZDApp_ProcessNetworkJoin, ZDApp_RestoreNwkKey
        LOCFRAME ISTACK, 0, STACK
        LOCFRAME PSTACK, 0, STACK
        LOCFRAME XSTACK, 12, STACK
        LOCFRAME IOVERLAY, 0, STATIC
        LOCFRAME DOVERLAY, 0, STATIC
        ARGFRAME ISTACK, 0, STACK
        ARGFRAME PSTACK, 0, STACK
        ARGFRAME XSTACK, 12, STACK
        ARGFRAME IOVERLAY, 0, STATIC
        ARGFRAME DOVERLAY, 0, STATIC
        FUNCALL ZDApp_ProcessNetworkJoin, osal_set_event
        LOCFRAME ISTACK, 0, STACK
        LOCFRAME PSTACK, 0, STACK
        LOCFRAME XSTACK, 12, STACK
        LOCFRAME IOVERLAY, 0, STATIC
        LOCFRAME DOVERLAY, 0, STATIC
        ARGFRAME ISTACK, 0, STACK
        ARGFRAME PSTACK, 0, STACK
        ARGFRAME XSTACK, 12, STACK
        ARGFRAME IOVERLAY, 0, STATIC
        ARGFRAME DOVERLAY, 0, STATIC
        FUNCALL ZDApp_ProcessNetworkJoin, ZDApp_ResetTimerStart
        LOCFRAME ISTACK, 0, STACK
        LOCFRAME PSTACK, 0, STACK
        LOCFRAME XSTACK, 12, STACK
        LOCFRAME IOVERLAY, 0, STATIC
        LOCFRAME DOVERLAY, 0, STATIC
        ARGFRAME ISTACK, 0, STACK
        ARGFRAME PSTACK, 0, STACK
        ARGFRAME XSTACK, 12, STACK
        ARGFRAME IOVERLAY, 0, STATIC
        ARGFRAME DOVERLAY, 0, STATIC
        FUNCALL ZDApp_ProcessNetworkJoin, osal_set_event
        LOCFRAME ISTACK, 0, STACK
        LOCFRAME PSTACK, 0, STACK
        LOCFRAME XSTACK, 12, STACK
        LOCFRAME IOVERLAY, 0, STATIC
        LOCFRAME DOVERLAY, 0, STATIC
        ARGFRAME ISTACK, 0, STACK
        ARGFRAME PSTACK, 0, STACK
        ARGFRAME XSTACK, 12, STACK
        ARGFRAME IOVERLAY, 0, STATIC
        ARGFRAME DOVERLAY, 0, STATIC
        FUNCALL ZDApp_ProcessNetworkJoin, NLME_SetPollRate
        LOCFRAME ISTACK, 0, STACK
        LOCFRAME PSTACK, 0, STACK
        LOCFRAME XSTACK, 12, STACK
        LOCFRAME IOVERLAY, 0, STATIC
        LOCFRAME DOVERLAY, 0, STATIC
        ARGFRAME ISTACK, 0, STACK
        ARGFRAME PSTACK, 0, STACK
        ARGFRAME XSTACK, 12, STACK
        ARGFRAME IOVERLAY, 0, STATIC
        ARGFRAME DOVERLAY, 0, STATIC
        FUNCALL ZDApp_ProcessNetworkJoin, NLME_SetQueuedPollRate
        LOCFRAME ISTACK, 0, STACK
        LOCFRAME PSTACK, 0, STACK
        LOCFRAME XSTACK, 12, STACK
        LOCFRAME IOVERLAY, 0, STATIC
        LOCFRAME DOVERLAY, 0, STATIC
        ARGFRAME ISTACK, 0, STACK
        ARGFRAME PSTACK, 0, STACK
        ARGFRAME XSTACK, 12, STACK
        ARGFRAME IOVERLAY, 0, STATIC
        ARGFRAME DOVERLAY, 0, STATIC
        FUNCALL ZDApp_ProcessNetworkJoin, NLME_SetResponseRate
        LOCFRAME ISTACK, 0, STACK
        LOCFRAME PSTACK, 0, STACK
        LOCFRAME XSTACK, 12, STACK
        LOCFRAME IOVERLAY, 0, STATIC
        LOCFRAME DOVERLAY, 0, STATIC
        ARGFRAME ISTACK, 0, STACK
        ARGFRAME PSTACK, 0, STACK
        ARGFRAME XSTACK, 12, STACK
        ARGFRAME IOVERLAY, 0, STATIC
        ARGFRAME DOVERLAY, 0, STATIC
        FUNCALL ZDApp_ProcessNetworkJoin, NLME_StartRouterRequest
        LOCFRAME ISTACK, 0, STACK
        LOCFRAME PSTACK, 0, STACK
        LOCFRAME XSTACK, 12, STACK
        LOCFRAME IOVERLAY, 0, STATIC
        LOCFRAME DOVERLAY, 0, STATIC
        ARGFRAME ISTACK, 0, STACK
        ARGFRAME PSTACK, 0, STACK
        ARGFRAME XSTACK, 12, STACK
        ARGFRAME IOVERLAY, 0, STATIC
        ARGFRAME DOVERLAY, 0, STATIC
        FUNCALL ZDApp_ProcessNetworkJoin, ZDApp_AnnounceNewAddress
        LOCFRAME ISTACK, 0, STACK
        LOCFRAME PSTACK, 0, STACK
        LOCFRAME XSTACK, 12, STACK
        LOCFRAME IOVERLAY, 0, STATIC
        LOCFRAME DOVERLAY, 0, STATIC
        ARGFRAME ISTACK, 0, STACK
        ARGFRAME PSTACK, 0, STACK
        ARGFRAME XSTACK, 12, STACK
        ARGFRAME IOVERLAY, 0, STATIC
        ARGFRAME DOVERLAY, 0, STATIC
        FUNCALL ZDApp_ProcessNetworkJoin, nwkNeighborInitTable
        LOCFRAME ISTACK, 0, STACK
        LOCFRAME PSTACK, 0, STACK
        LOCFRAME XSTACK, 12, STACK
        LOCFRAME IOVERLAY, 0, STATIC
        LOCFRAME DOVERLAY, 0, STATIC
        ARGFRAME ISTACK, 0, STACK
        ARGFRAME PSTACK, 0, STACK
        ARGFRAME XSTACK, 12, STACK
        ARGFRAME IOVERLAY, 0, STATIC
        ARGFRAME DOVERLAY, 0, STATIC
        FUNCALL ZDApp_ProcessNetworkJoin, NLME_NwkDiscTerm
        LOCFRAME ISTACK, 0, STACK
        LOCFRAME PSTACK, 0, STACK
        LOCFRAME XSTACK, 12, STACK
        LOCFRAME IOVERLAY, 0, STATIC
        LOCFRAME DOVERLAY, 0, STATIC
        ARGFRAME ISTACK, 0, STACK
        ARGFRAME PSTACK, 0, STACK
        ARGFRAME XSTACK, 12, STACK
        ARGFRAME IOVERLAY, 0, STATIC
        ARGFRAME DOVERLAY, 0, STATIC
        FUNCALL ZDApp_ProcessNetworkJoin, osal_rand
        LOCFRAME ISTACK, 0, STACK
        LOCFRAME PSTACK, 0, STACK
        LOCFRAME XSTACK, 12, STACK
        LOCFRAME IOVERLAY, 0, STATIC
        LOCFRAME DOVERLAY, 0, STATIC
        ARGFRAME ISTACK, 0, STACK
        ARGFRAME PSTACK, 0, STACK
        ARGFRAME XSTACK, 12, STACK
        ARGFRAME IOVERLAY, 0, STATIC
        ARGFRAME DOVERLAY, 0, STATIC
        FUNCALL ZDApp_ProcessNetworkJoin, ZDApp_NetworkInit
        LOCFRAME ISTACK, 0, STACK
        LOCFRAME PSTACK, 0, STACK
        LOCFRAME XSTACK, 12, STACK
        LOCFRAME IOVERLAY, 0, STATIC
        LOCFRAME DOVERLAY, 0, STATIC
        ARGFRAME ISTACK, 0, STACK
        ARGFRAME PSTACK, 0, STACK
        ARGFRAME XSTACK, 12, STACK
        ARGFRAME IOVERLAY, 0, STATIC
        ARGFRAME DOVERLAY, 0, STATIC
        FUNCALL ZDApp_ProcessNetworkJoin, ZDApp_AnnounceNewAddress
        LOCFRAME ISTACK, 0, STACK
        LOCFRAME PSTACK, 0, STACK
        LOCFRAME XSTACK, 12, STACK
        LOCFRAME IOVERLAY, 0, STATIC
        LOCFRAME DOVERLAY, 0, STATIC
        ARGFRAME ISTACK, 0, STACK
        ARGFRAME PSTACK, 0, STACK
        ARGFRAME XSTACK, 12, STACK
        ARGFRAME IOVERLAY, 0, STATIC
        ARGFRAME DOVERLAY, 0, STATIC
        FUNCALL ZDApp_ProcessNetworkJoin, osal_set_event
        LOCFRAME ISTACK, 0, STACK
        LOCFRAME PSTACK, 0, STACK
        LOCFRAME XSTACK, 12, STACK
        LOCFRAME IOVERLAY, 0, STATIC
        LOCFRAME DOVERLAY, 0, STATIC
        ARGFRAME ISTACK, 0, STACK
        ARGFRAME PSTACK, 0, STACK
        ARGFRAME XSTACK, 12, STACK
        ARGFRAME IOVERLAY, 0, STATIC
        ARGFRAME DOVERLAY, 0, STATIC
        MOV     A,#-0xa
        LCALL   ?BANKED_ENTER_XDATA
          CFI DPH0 load(1, XDATA, add(CFA_XSP16, literal(-1)))
          CFI DPL0 load(1, XDATA, add(CFA_XSP16, literal(-2)))
          CFI ?BRET_EXT load(1, XDATA, add(CFA_XSP16, literal(-3)))
          CFI ?RET_HIGH load(1, XDATA, add(CFA_XSP16, literal(-4)))
          CFI ?RET_LOW load(1, XDATA, add(CFA_XSP16, literal(-5)))
          CFI R7 load(1, XDATA, add(CFA_XSP16, literal(-6)))
          CFI V1 load(1, XDATA, add(CFA_XSP16, literal(-7)))
          CFI V0 load(1, XDATA, add(CFA_XSP16, literal(-8)))
          CFI VB load(1, XDATA, add(CFA_XSP16, literal(-9)))
          CFI R6 load(1, XDATA, add(CFA_XSP16, literal(-10)))
          CFI CFA_SP SP+0
          CFI CFA_XSP16 add(XSP16, 10)
        ; Saved register size: 10
        ; Auto size: 2
        MOV     A,#-0x2
        LCALL   ?ALLOC_XSTACK8
          CFI CFA_XSP16 add(XSP16, 12)
// 1456   if ( (devState == DEV_NWK_JOINING) ||
// 1457       ((devState == DEV_NWK_ORPHAN)  &&
// 1458        (ZDO_Config_Node_Descriptor.LogicalType == NODETYPE_ROUTER)) )
        MOV     DPTR,#devState
        MOVX    A,@DPTR
        XRL     A,#0x3
        JZ      ??ZDApp_ProcessNetworkJoin_0
        MOVX    A,@DPTR
        XRL     A,#0xa
        JZ      $+5
        LJMP    ??ZDApp_ProcessNetworkJoin_1 & 0xFFFF
        MOV     DPTR,#ZDO_Config_Node_Descriptor
        MOVX    A,@DPTR
        ANL     A,#0x7
        XRL     A,#0x1
        JZ      $+5
        LJMP    ??ZDApp_ProcessNetworkJoin_2 & 0xFFFF
// 1459   {
// 1460     // Result of a Join attempt by this device.
// 1461     if ( nwkStatus == ZSuccess )
??ZDApp_ProcessNetworkJoin_0:
        MOV     DPTR,#nwkStatus
        MOVX    A,@DPTR
        JNZ     ??ZDApp_ProcessNetworkJoin_3
// 1462     {
// 1463       osal_set_event( ZDAppTaskID, ZDO_STATE_CHANGE_EVT );
        ; Setup parameters for call to function osal_set_event
        MOV     R2,#0x10
        MOV     R3,#0x0
        MOV     DPTR,#ZDAppTaskID
        MOVX    A,@DPTR
        MOV     R1,A
        LCALL   ??osal_set_event?relay
// 1464 
// 1465 #if defined ( POWER_SAVING )
// 1466       osal_pwrmgr_device( PWRMGR_BATTERY );
// 1467 #endif
// 1468 
// 1469       if ( ZG_SECURE_ENABLED && ( ZDApp_RestoreNwkKey() == false ) )
        ; Setup parameters for call to function ZDApp_RestoreNwkKey
        LCALL   ??ZDApp_RestoreNwkKey?relay
        MOV     A,R1
        JNZ     $+5
        LJMP    ??ZDApp_ProcessNetworkJoin_4 & 0xFFFF
// 1470       {
// 1471         // wait for auth from trust center
// 1472         devState = DEV_END_DEVICE_UNAUTH;
// 1473 
// 1474         // Start the reset timer for MAX UNAUTH time
// 1475         ZDApp_ResetTimerStart( MAX_DEVICE_UNAUTH_TIMEOUT );
// 1476       }
// 1477       else
// 1478       {
// 1479         if ( ZSTACK_ROUTER_BUILD )
// 1480         {
// 1481           if ( devState == DEV_NWK_ORPHAN
// 1482             && ZDO_Config_Node_Descriptor.LogicalType != NODETYPE_DEVICE )
        MOV     DPTR,#devState
        MOVX    A,@DPTR
        XRL     A,#0xa
        JNZ     ??ZDApp_ProcessNetworkJoin_5
        LCALL   ?Subroutine21 & 0xFFFF
??CrossCallReturnLabel_12:
        JZ      ??ZDApp_ProcessNetworkJoin_6
// 1483           {
// 1484             // Change NIB state to router for restore
// 1485             _NIB.nwkState = NWK_ROUTER;
        MOV     DPTR,#_NIB + 35
        MOV     A,#0x8
        MOVX    @DPTR,A
        SJMP    ??ZDApp_ProcessNetworkJoin_6
// 1486           }
// 1487         }
// 1488 
// 1489         if ( devState == DEV_NWK_JOINING )
??ZDApp_ProcessNetworkJoin_5:
        MOVX    A,@DPTR
        XRL     A,#0x3
        JNZ     ??ZDApp_ProcessNetworkJoin_6
// 1490         {
// 1491           ZDApp_AnnounceNewAddress();
        ; Setup parameters for call to function ZDApp_AnnounceNewAddress
        LCALL   ??ZDApp_AnnounceNewAddress?relay
// 1492         }
// 1493 
// 1494         devState = DEV_END_DEVICE;
??ZDApp_ProcessNetworkJoin_6:
        MOV     DPTR,#devState
        MOV     A,#0x6
        MOVX    @DPTR,A
// 1495         if ( ZSTACK_ROUTER_BUILD )
// 1496         {
// 1497           // NOTE: first two parameters are not used, see NLMEDE.h for details
// 1498           if ( ZDO_Config_Node_Descriptor.LogicalType != NODETYPE_DEVICE )
        LCALL   ?Subroutine21 & 0xFFFF
??CrossCallReturnLabel_13:
        JNZ     $+5
        LJMP    ??ZDApp_ProcessNetworkJoin_7 & 0xFFFF
// 1499           {
// 1500             NLME_StartRouterRequest( 0, 0, false );
        ; Setup parameters for call to function NLME_StartRouterRequest
        MOV     R3,#0x0
        MOV     R2,#0x0
        MOV     R1,#0x0
        LCALL   ??NLME_StartRouterRequest?relay
        LJMP    ??ZDApp_ProcessNetworkJoin_7 & 0xFFFF
// 1501           }
// 1502         }
// 1503       }
// 1504     }
// 1505     else
// 1506     {
// 1507       if ( (devStartMode == MODE_RESUME) && (++retryCnt >= MAX_RESUME_RETRY) )
??ZDApp_ProcessNetworkJoin_3:
        MOV     DPTR,#devStartMode
        MOVX    A,@DPTR
        XRL     A,#0x1
        JNZ     ??ZDApp_ProcessNetworkJoin_8
        MOV     DPTR,#retryCnt
        MOVX    A,@DPTR
        INC     A
        MOVX    @DPTR,A
        CLR     C
        SUBB    A,#0x3
        JC      ??ZDApp_ProcessNetworkJoin_8
// 1508       {
// 1509         if ( _NIB.nwkPanId == 0xFFFF || _NIB.nwkPanId == INVALID_PAN_ID )
        LCALL   ?Subroutine25 & 0xFFFF
??CrossCallReturnLabel_21:
        JNZ     ??ZDApp_ProcessNetworkJoin_9
        MOV     A,#-0x1
        XRL     A,R1
??ZDApp_ProcessNetworkJoin_9:
        JZ      ??ZDApp_ProcessNetworkJoin_10
        MOV     A,#-0x2
        XRL     A,R0
        JNZ     ??ZDApp_ProcessNetworkJoin_11
        MOV     A,#-0x1
        XRL     A,R1
??ZDApp_ProcessNetworkJoin_11:
        JNZ     ??ZDApp_ProcessNetworkJoin_12
// 1510           devStartMode = MODE_JOIN;
??ZDApp_ProcessNetworkJoin_10:
        MOV     DPTR,#devStartMode
        CLR     A
        SJMP    ??ZDApp_ProcessNetworkJoin_13
// 1511         else
// 1512         {
// 1513           devStartMode = MODE_REJOIN;
??ZDApp_ProcessNetworkJoin_12:
        MOV     DPTR,#devStartMode
        MOV     A,#0x3
        MOVX    @DPTR,A
// 1514           _tmpRejoinState = true;
        MOV     DPTR,#_tmpRejoinState
        MOV     A,#0x1
??ZDApp_ProcessNetworkJoin_13:
        MOVX    @DPTR,A
// 1515         }
// 1516       }
// 1517 
// 1518       if ( (NLME_GetShortAddr() != INVALID_NODE_ADDR) ||
// 1519            (_NIB.nwkDevAddress != INVALID_NODE_ADDR) )
??ZDApp_ProcessNetworkJoin_8:
        ; Setup parameters for call to function NLME_GetShortAddr
        LCALL   ??NLME_GetShortAddr?relay
        MOV     ?V0 + 0,R2
        MOV     ?V0 + 1,R3
        MOV     A,#-0x2
        XRL     A,?V0 + 0
        JNZ     ??ZDApp_ProcessNetworkJoin_14
        MOV     A,#-0x1
        XRL     A,?V0 + 1
??ZDApp_ProcessNetworkJoin_14:
        JNZ     ??ZDApp_ProcessNetworkJoin_15
        MOV     DPTR,#_NIB + 20
        MOVX    A,@DPTR
        XRL     A,#0xfe
        JNZ     ??ZDApp_ProcessNetworkJoin_16
        INC     DPTR
        MOVX    A,@DPTR
        CPL     A
??ZDApp_ProcessNetworkJoin_16:
        JZ      ??ZDApp_ProcessNetworkJoin_17
// 1520       {
// 1521         uint16 addr = INVALID_NODE_ADDR;
??ZDApp_ProcessNetworkJoin_15:
        MOV     DPL,?XSP + 0
        MOV     DPH,?XSP + 1
        MOV     A,#-0x2
        MOVX    @DPTR,A
        INC     DPTR
        INC     A
        MOVX    @DPTR,A
// 1522         // Invalidate nwk addr so end device does not use in its data reqs.
// 1523         _NIB.nwkDevAddress = INVALID_NODE_ADDR;
        MOV     DPTR,#_NIB + 20
        DEC     A
        MOVX    @DPTR,A
        INC     DPTR
        INC     A
        LCALL   ?Subroutine10 & 0xFFFF
// 1524         ZMacSetReq( ZMacShortAddress, (uint8 *)&addr );
// 1525       }
??CrossCallReturnLabel_0:
        MOV     R1,#0x53
        LCALL   ??ZMacSetReq?relay
// 1526 
// 1527       // Clear the neighbor Table and network discovery tables.
// 1528       nwkNeighborInitTable();
??ZDApp_ProcessNetworkJoin_17:
        ; Setup parameters for call to function nwkNeighborInitTable
        LCALL   ??nwkNeighborInitTable?relay
// 1529       NLME_NwkDiscTerm();
        ; Setup parameters for call to function NLME_NwkDiscTerm
        LCALL   ??NLME_NwkDiscTerm?relay
// 1530 
// 1531       zdoDiscCounter = 1;
        MOV     DPTR,#zdoDiscCounter
        MOV     A,#0x1
        MOVX    @DPTR,A
// 1532 
// 1533 //      ZDApp_NetworkInit( (uint16)
// 1534 //                         ((NWK_START_DELAY * (osal_rand() & 0x0F)) +
// 1535 //                          (NWK_START_DELAY * 5)) );
// 1536       ZDApp_NetworkInit( (uint16)(NWK_START_DELAY
// 1537            + ((uint16)(osal_rand()& EXTENDED_JOINING_RANDOM_MASK))) );
        ; Setup parameters for call to function ZDApp_NetworkInit
        ; Setup parameters for call to function osal_rand
        LJMP    ??ZDApp_ProcessNetworkJoin_18 & 0xFFFF
// 1538     }
// 1539   }
// 1540   else if ( devState == DEV_NWK_ORPHAN || devState == DEV_NWK_REJOIN )
??ZDApp_ProcessNetworkJoin_1:
        MOVX    A,@DPTR
        XRL     A,#0x4
        JZ      $+5
        LJMP    ??ZDApp_ProcessNetworkJoin_19 & 0xFFFF
// 1541   {
// 1542     // results of an orphaning attempt by this device
// 1543     if (nwkStatus == ZSuccess)
??ZDApp_ProcessNetworkJoin_2:
        MOV     DPTR,#nwkStatus
        MOVX    A,@DPTR
        JNZ     ??ZDApp_ProcessNetworkJoin_20
// 1544     {
// 1545       // Verify NWK key is available before sending Device_annce
// 1546       if ( ZG_SECURE_ENABLED && ( ZDApp_RestoreNwkKey() == false ) )
        ; Setup parameters for call to function ZDApp_RestoreNwkKey
        LCALL   ??ZDApp_RestoreNwkKey?relay
        MOV     A,R1
        JNZ     ??ZDApp_ProcessNetworkJoin_21
// 1547       {
// 1548         osal_set_event( ZDAppTaskID, ZDO_STATE_CHANGE_EVT );
        ; Setup parameters for call to function osal_set_event
        MOV     R2,#0x10
        MOV     R3,#0x0
        MOV     DPTR,#ZDAppTaskID
        MOVX    A,@DPTR
        MOV     R1,A
        LCALL   ??osal_set_event?relay
// 1549 
// 1550         // wait for auth from trust center
// 1551         devState = DEV_END_DEVICE_UNAUTH;
??ZDApp_ProcessNetworkJoin_4:
        MOV     DPTR,#devState
        MOV     A,#0x5
        MOVX    @DPTR,A
// 1552 
// 1553         // Start the reset timer for MAX UNAUTH time
// 1554         ZDApp_ResetTimerStart( MAX_DEVICE_UNAUTH_TIMEOUT );
        ; Setup parameters for call to function ZDApp_ResetTimerStart
        MOV     R2,#0x10
        MOV     R3,#0x27
        LCALL   ??ZDApp_ResetTimerStart?relay
        LJMP    ??ZDApp_ProcessNetworkJoin_7 & 0xFFFF
// 1555       }
// 1556       else
// 1557       {
// 1558 
// 1559         devState = DEV_END_DEVICE;
??ZDApp_ProcessNetworkJoin_21:
        LCALL   ?Subroutine11 & 0xFFFF
// 1560         osal_set_event( ZDAppTaskID, ZDO_STATE_CHANGE_EVT );
??CrossCallReturnLabel_39:
        LCALL   ??osal_set_event?relay
// 1561         // setup Power Manager Device
// 1562 #if defined ( POWER_SAVING )
// 1563         osal_pwrmgr_device( PWRMGR_BATTERY );
// 1564 #endif
// 1565 
// 1566         // The receiver is on, turn network layer polling off.
// 1567         if ( ZDO_Config_Node_Descriptor.CapabilityFlags & CAPINFO_RCVR_ON_IDLE )
        MOV     DPTR,#ZDO_Config_Node_Descriptor + 2
        MOVX    A,@DPTR
        MOV     C,0xE0 /* A   */.3
        JNC     ??ZDApp_ProcessNetworkJoin_22
// 1568         {
// 1569 #if defined ( ZIGBEE_CHILD_AGING )
// 1570           // if Child Table Management process is not enabled
// 1571           if ( zgChildAgingEnable == FALSE )
        MOV     DPTR,#zgChildAgingEnable
        MOVX    A,@DPTR
        JNZ     ??ZDApp_ProcessNetworkJoin_22
// 1572 #endif // ZIGBEE_CHILD_AGING
// 1573           {
// 1574             NLME_SetPollRate( 0 );
        ; Setup parameters for call to function NLME_SetPollRate
        MOV     R2,#0x0
        MOV     R3,#0x0
        LCALL   ??NLME_SetPollRate?relay
// 1575             NLME_SetQueuedPollRate( 0 );
        ; Setup parameters for call to function NLME_SetQueuedPollRate
        MOV     R2,#0x0
        MOV     R3,#0x0
        LCALL   ??NLME_SetQueuedPollRate?relay
// 1576             NLME_SetResponseRate( 0 );
        ; Setup parameters for call to function NLME_SetResponseRate
        MOV     R2,#0x0
        MOV     R3,#0x0
        LCALL   ??NLME_SetResponseRate?relay
// 1577           }
// 1578         }
// 1579 
// 1580         if ( ZSTACK_ROUTER_BUILD )
// 1581         {
// 1582           // NOTE: first two parameters are not used, see NLMEDE.h for details
// 1583           if ( ZDO_Config_Node_Descriptor.LogicalType != NODETYPE_DEVICE )
??ZDApp_ProcessNetworkJoin_22:
        LCALL   ?Subroutine21 & 0xFFFF
??CrossCallReturnLabel_14:
        JZ      ??ZDApp_ProcessNetworkJoin_23
// 1584           {
// 1585             NLME_StartRouterRequest( 0, 0, false );
        ; Setup parameters for call to function NLME_StartRouterRequest
        MOV     R3,#0x0
        MOV     R2,#0x0
        MOV     R1,#0x0
        LCALL   ??NLME_StartRouterRequest?relay
// 1586           }
// 1587         }
// 1588 
// 1589         ZDApp_AnnounceNewAddress();
??ZDApp_ProcessNetworkJoin_23:
        ; Setup parameters for call to function ZDApp_AnnounceNewAddress
        LCALL   ??ZDApp_AnnounceNewAddress?relay
        SJMP    ??ZDApp_ProcessNetworkJoin_7
// 1590       }
// 1591     }
// 1592     else
// 1593     {
// 1594       if ( devStartMode == MODE_RESUME )
??ZDApp_ProcessNetworkJoin_20:
        MOV     DPTR,#devStartMode
        MOVX    A,@DPTR
        XRL     A,#0x1
        JNZ     ??ZDApp_ProcessNetworkJoin_24
// 1595       {
// 1596         if ( ++retryCnt <= MAX_RESUME_RETRY )
        MOV     DPTR,#retryCnt
        MOVX    A,@DPTR
        INC     A
        MOVX    @DPTR,A
        CLR     C
        SUBB    A,#0x4
        JNC     ??ZDApp_ProcessNetworkJoin_25
// 1597         {
// 1598           if ( _NIB.nwkPanId == 0xFFFF || _NIB.nwkPanId == INVALID_PAN_ID )
        LCALL   ?Subroutine25 & 0xFFFF
??CrossCallReturnLabel_22:
        JNZ     ??ZDApp_ProcessNetworkJoin_26
        MOV     A,#-0x1
        XRL     A,R1
??ZDApp_ProcessNetworkJoin_26:
        JZ      ??ZDApp_ProcessNetworkJoin_27
        MOV     A,#-0x2
        XRL     A,R0
        JNZ     ??ZDApp_ProcessNetworkJoin_28
        MOV     A,#-0x1
        XRL     A,R1
??ZDApp_ProcessNetworkJoin_28:
        JZ      ??ZDApp_ProcessNetworkJoin_27
// 1599             devStartMode = MODE_JOIN;
// 1600           else
// 1601           {
// 1602             devStartMode = MODE_REJOIN;
        MOV     DPTR,#devStartMode
        MOV     A,#0x3
        MOVX    @DPTR,A
// 1603             _tmpRejoinState = true;
        MOV     DPTR,#_tmpRejoinState
        MOV     A,#0x1
        SJMP    ??ZDApp_ProcessNetworkJoin_29
// 1604           }
// 1605         }
// 1606         // Do a normal join to the network after certain times of rejoin retries
// 1607         else if( AIB_apsUseInsecureJoin == true )
??ZDApp_ProcessNetworkJoin_25:
        MOV     DPTR,#AIB_apsUseInsecureJoin
        MOVX    A,@DPTR
        XRL     A,#0x1
        JNZ     ??ZDApp_ProcessNetworkJoin_24
// 1608         {
// 1609           devStartMode = MODE_JOIN;
??ZDApp_ProcessNetworkJoin_27:
        MOV     DPTR,#devStartMode
        CLR     A
??ZDApp_ProcessNetworkJoin_29:
        MOVX    @DPTR,A
// 1610         }
// 1611       }
// 1612 
// 1613       // Clear the neighbor Table and network discovery tables.
// 1614       nwkNeighborInitTable();
??ZDApp_ProcessNetworkJoin_24:
        ; Setup parameters for call to function nwkNeighborInitTable
        LCALL   ??nwkNeighborInitTable?relay
// 1615       NLME_NwkDiscTerm();
        ; Setup parameters for call to function NLME_NwkDiscTerm
        LCALL   ??NLME_NwkDiscTerm?relay
// 1616 
// 1617       // setup a retry for later...
// 1618       ZDApp_NetworkInit( (uint16)(NWK_START_DELAY
// 1619            + (osal_rand()& EXTENDED_JOINING_RANDOM_MASK)) );
        ; Setup parameters for call to function ZDApp_NetworkInit
        ; Setup parameters for call to function osal_rand
??ZDApp_ProcessNetworkJoin_18:
        LCALL   ??osal_rand?relay
        MOV     A,R2
        ANL     A,#0x7f
        ADD     A,#0x64
        MOV     R2,A
        MOV     R3,#0x0
        LCALL   ??ZDApp_NetworkInit?relay
        SJMP    ??ZDApp_ProcessNetworkJoin_7
// 1620     }
// 1621   }
// 1622 #if defined ( ZIGBEE_STOCHASTIC_ADDRESSING )
// 1623   else
// 1624   {
// 1625     // Assume from address conflict
// 1626     if ( _NIB.nwkAddrAlloc == NWK_ADDRESSING_STOCHASTIC )
??ZDApp_ProcessNetworkJoin_19:
        MOV     DPTR,#_NIB + 96
        MOVX    A,@DPTR
        XRL     A,#0x2
        JNZ     ??ZDApp_ProcessNetworkJoin_7
// 1627     {
// 1628       // Notify the network
// 1629       ZDApp_AnnounceNewAddress();
        ; Setup parameters for call to function ZDApp_AnnounceNewAddress
        LCALL   ??ZDApp_AnnounceNewAddress?relay
// 1630 
// 1631       // Notify apps
// 1632       osal_set_event( ZDAppTaskID, ZDO_STATE_CHANGE_EVT );
        ; Setup parameters for call to function osal_set_event
        MOV     R2,#0x10
        MOV     R3,#0x0
        MOV     DPTR,#ZDAppTaskID
        MOVX    A,@DPTR
        MOV     R1,A
        LCALL   ??osal_set_event?relay
          CFI EndBlock cfiBlock38
// 1633     }
// 1634   }
// 1635 #endif
// 1636 }
??ZDApp_ProcessNetworkJoin_7:
        REQUIRE ?Subroutine8
        ; // Fall through to label ?Subroutine8

        RSEG BANKED_CODE:CODE:NOROOT(0)
?Subroutine8:
          CFI Block cfiBlock39 Using cfiCommon0
          CFI NoFunction
          CFI CFA_SP SP+0
          CFI CFA_XSP16 add(XSP16, 12)
          CFI VB load(1, XDATA, add(CFA_XSP16, literal(-9)))
          CFI DPL0 load(1, XDATA, add(CFA_XSP16, literal(-2)))
          CFI DPH0 load(1, XDATA, add(CFA_XSP16, literal(-1)))
          CFI R6 load(1, XDATA, add(CFA_XSP16, literal(-10)))
          CFI R7 load(1, XDATA, add(CFA_XSP16, literal(-6)))
          CFI V0 load(1, XDATA, add(CFA_XSP16, literal(-8)))
          CFI V1 load(1, XDATA, add(CFA_XSP16, literal(-7)))
          CFI ?BRET_EXT load(1, XDATA, add(CFA_XSP16, literal(-3)))
          CFI ?RET_HIGH load(1, XDATA, add(CFA_XSP16, literal(-4)))
          CFI ?RET_LOW load(1, XDATA, add(CFA_XSP16, literal(-5)))
        MOV     A,#0x2
        LJMP    ??Subroutine38_0 & 0xFFFF
          CFI EndBlock cfiBlock39

        RSEG BANKED_CODE:CODE:NOROOT(0)
?Subroutine25:
          CFI Block cfiCond40 Using cfiCommon0
          CFI Function ZDApp_ProcessNetworkJoin
          CFI Conditional ??CrossCallReturnLabel_21
          CFI R6 load(1, XDATA, add(CFA_XSP16, literal(-10)))
          CFI VB load(1, XDATA, add(CFA_XSP16, literal(-9)))
          CFI V0 load(1, XDATA, add(CFA_XSP16, literal(-8)))
          CFI V1 load(1, XDATA, add(CFA_XSP16, literal(-7)))
          CFI R7 load(1, XDATA, add(CFA_XSP16, literal(-6)))
          CFI ?RET_LOW load(1, XDATA, add(CFA_XSP16, literal(-5)))
          CFI ?RET_HIGH load(1, XDATA, add(CFA_XSP16, literal(-4)))
          CFI ?BRET_EXT load(1, XDATA, add(CFA_XSP16, literal(-3)))
          CFI DPL0 load(1, XDATA, add(CFA_XSP16, literal(-2)))
          CFI DPH0 load(1, XDATA, add(CFA_XSP16, literal(-1)))
          CFI CFA_SP SP+0
          CFI CFA_XSP16 add(XSP16, 12)
          CFI Block cfiCond41 Using cfiCommon0
          CFI (cfiCond41) Function ZDApp_ProcessNetworkJoin
          CFI (cfiCond41) Conditional ??CrossCallReturnLabel_22
          CFI (cfiCond41) R6 load(1, XDATA, add(CFA_XSP16, literal(-10)))
          CFI (cfiCond41) VB load(1, XDATA, add(CFA_XSP16, literal(-9)))
          CFI (cfiCond41) V0 load(1, XDATA, add(CFA_XSP16, literal(-8)))
          CFI (cfiCond41) V1 load(1, XDATA, add(CFA_XSP16, literal(-7)))
          CFI (cfiCond41) R7 load(1, XDATA, add(CFA_XSP16, literal(-6)))
          CFI (cfiCond41) ?RET_LOW load(1, XDATA, add(CFA_XSP16, literal(-5)))
          CFI (cfiCond41) ?RET_HIGH load(1, XDATA, add(CFA_XSP16, literal(-4)))
          CFI (cfiCond41) ?BRET_EXT load(1, XDATA, add(CFA_XSP16, literal(-3)))
          CFI (cfiCond41) DPL0 load(1, XDATA, add(CFA_XSP16, literal(-2)))
          CFI (cfiCond41) DPH0 load(1, XDATA, add(CFA_XSP16, literal(-1)))
          CFI (cfiCond41) CFA_SP SP+0
          CFI (cfiCond41) CFA_XSP16 add(XSP16, 12)
          CFI Block cfiPicker42 Using cfiCommon1
          CFI (cfiPicker42) NoFunction
          CFI (cfiPicker42) Picker
        MOV     DPTR,#_NIB + 33
        LCALL   ?Subroutine32 & 0xFFFF
??CrossCallReturnLabel_77:
        MOV     A,#-0x1
        XRL     A,R0
        RET
          CFI EndBlock cfiCond40
          CFI EndBlock cfiCond41
          CFI EndBlock cfiPicker42

        RSEG BANKED_CODE:CODE:NOROOT(0)
?Subroutine21:
          CFI Block cfiCond43 Using cfiCommon0
          CFI Function ZDApp_DeviceAuthEvt
          CFI Conditional ??CrossCallReturnLabel_11
          CFI DPL0 Frame(CFA_SP, 4)
          CFI DPH0 Frame(CFA_SP, 5)
          CFI CFA_SP SP+-5
          CFI Block cfiCond44 Using cfiCommon0
          CFI (cfiCond44) Function ZDApp_ProcessNetworkJoin
          CFI (cfiCond44) Conditional ??CrossCallReturnLabel_12
          CFI (cfiCond44) R6 load(1, XDATA, add(CFA_XSP16, literal(-10)))
          CFI (cfiCond44) VB load(1, XDATA, add(CFA_XSP16, literal(-9)))
          CFI (cfiCond44) V0 load(1, XDATA, add(CFA_XSP16, literal(-8)))
          CFI (cfiCond44) V1 load(1, XDATA, add(CFA_XSP16, literal(-7)))
          CFI (cfiCond44) R7 load(1, XDATA, add(CFA_XSP16, literal(-6)))
          CFI (cfiCond44) ?RET_LOW load(1, XDATA, add(CFA_XSP16, literal(-5)))
          CFI (cfiCond44) ?RET_HIGH load(1, XDATA, add(CFA_XSP16, literal(-4)))
          CFI (cfiCond44) ?BRET_EXT load(1, XDATA, add(CFA_XSP16, literal(-3)))
          CFI (cfiCond44) DPL0 load(1, XDATA, add(CFA_XSP16, literal(-2)))
          CFI (cfiCond44) DPH0 load(1, XDATA, add(CFA_XSP16, literal(-1)))
          CFI (cfiCond44) CFA_SP SP+0
          CFI (cfiCond44) CFA_XSP16 add(XSP16, 12)
          CFI Block cfiCond45 Using cfiCommon0
          CFI (cfiCond45) Function ZDApp_ProcessNetworkJoin
          CFI (cfiCond45) Conditional ??CrossCallReturnLabel_13
          CFI (cfiCond45) R6 load(1, XDATA, add(CFA_XSP16, literal(-10)))
          CFI (cfiCond45) VB load(1, XDATA, add(CFA_XSP16, literal(-9)))
          CFI (cfiCond45) V0 load(1, XDATA, add(CFA_XSP16, literal(-8)))
          CFI (cfiCond45) V1 load(1, XDATA, add(CFA_XSP16, literal(-7)))
          CFI (cfiCond45) R7 load(1, XDATA, add(CFA_XSP16, literal(-6)))
          CFI (cfiCond45) ?RET_LOW load(1, XDATA, add(CFA_XSP16, literal(-5)))
          CFI (cfiCond45) ?RET_HIGH load(1, XDATA, add(CFA_XSP16, literal(-4)))
          CFI (cfiCond45) ?BRET_EXT load(1, XDATA, add(CFA_XSP16, literal(-3)))
          CFI (cfiCond45) DPL0 load(1, XDATA, add(CFA_XSP16, literal(-2)))
          CFI (cfiCond45) DPH0 load(1, XDATA, add(CFA_XSP16, literal(-1)))
          CFI (cfiCond45) CFA_SP SP+0
          CFI (cfiCond45) CFA_XSP16 add(XSP16, 12)
          CFI Block cfiCond46 Using cfiCommon0
          CFI (cfiCond46) Function ZDApp_ProcessNetworkJoin
          CFI (cfiCond46) Conditional ??CrossCallReturnLabel_14
          CFI (cfiCond46) R6 load(1, XDATA, add(CFA_XSP16, literal(-10)))
          CFI (cfiCond46) VB load(1, XDATA, add(CFA_XSP16, literal(-9)))
          CFI (cfiCond46) V0 load(1, XDATA, add(CFA_XSP16, literal(-8)))
          CFI (cfiCond46) V1 load(1, XDATA, add(CFA_XSP16, literal(-7)))
          CFI (cfiCond46) R7 load(1, XDATA, add(CFA_XSP16, literal(-6)))
          CFI (cfiCond46) ?RET_LOW load(1, XDATA, add(CFA_XSP16, literal(-5)))
          CFI (cfiCond46) ?RET_HIGH load(1, XDATA, add(CFA_XSP16, literal(-4)))
          CFI (cfiCond46) ?BRET_EXT load(1, XDATA, add(CFA_XSP16, literal(-3)))
          CFI (cfiCond46) DPL0 load(1, XDATA, add(CFA_XSP16, literal(-2)))
          CFI (cfiCond46) DPH0 load(1, XDATA, add(CFA_XSP16, literal(-1)))
          CFI (cfiCond46) CFA_SP SP+0
          CFI (cfiCond46) CFA_XSP16 add(XSP16, 12)
          CFI Block cfiCond47 Using cfiCommon0
          CFI (cfiCond47) Function ZDO_LeaveInd
          CFI (cfiCond47) Conditional ??CrossCallReturnLabel_15
          CFI (cfiCond47) R6 load(1, XDATA, add(CFA_XSP16, literal(-14)))
          CFI (cfiCond47) VB load(1, XDATA, add(CFA_XSP16, literal(-13)))
          CFI (cfiCond47) V0 load(1, XDATA, add(CFA_XSP16, literal(-12)))
          CFI (cfiCond47) V1 load(1, XDATA, add(CFA_XSP16, literal(-11)))
          CFI (cfiCond47) V2 load(1, XDATA, add(CFA_XSP16, literal(-10)))
          CFI (cfiCond47) V3 load(1, XDATA, add(CFA_XSP16, literal(-9)))
          CFI (cfiCond47) V4 load(1, XDATA, add(CFA_XSP16, literal(-8)))
          CFI (cfiCond47) V5 load(1, XDATA, add(CFA_XSP16, literal(-7)))
          CFI (cfiCond47) R7 load(1, XDATA, add(CFA_XSP16, literal(-6)))
          CFI (cfiCond47) ?RET_LOW load(1, XDATA, add(CFA_XSP16, literal(-5)))
          CFI (cfiCond47) ?RET_HIGH load(1, XDATA, add(CFA_XSP16, literal(-4)))
          CFI (cfiCond47) ?BRET_EXT load(1, XDATA, add(CFA_XSP16, literal(-3)))
          CFI (cfiCond47) DPL0 load(1, XDATA, add(CFA_XSP16, literal(-2)))
          CFI (cfiCond47) DPH0 load(1, XDATA, add(CFA_XSP16, literal(-1)))
          CFI (cfiCond47) CFA_SP SP+0
          CFI (cfiCond47) CFA_XSP16 add(XSP16, 16)
          CFI Block cfiPicker48 Using cfiCommon1
          CFI (cfiPicker48) NoFunction
          CFI (cfiPicker48) Picker
        MOV     DPTR,#ZDO_Config_Node_Descriptor
        MOVX    A,@DPTR
        ANL     A,#0x7
        XRL     A,#0x2
        RET
          CFI EndBlock cfiCond43
          CFI EndBlock cfiCond44
          CFI EndBlock cfiCond45
          CFI EndBlock cfiCond46
          CFI EndBlock cfiCond47
          CFI EndBlock cfiPicker48
// 1637 
// 1638 /*********************************************************************
// 1639  * @fn      ZDApp_SaveNwkKey()
// 1640  *
// 1641  * @brief   Save off the Network key information.
// 1642  *
// 1643  * @param   none
// 1644  *
// 1645  * @return  none
// 1646  */

        RSEG BANKED_CODE:CODE:NOROOT(0)
// 1647 void ZDApp_SaveNwkKey( void )
ZDApp_SaveNwkKey:
          CFI Block cfiBlock49 Using cfiCommon0
          CFI Function ZDApp_SaveNwkKey
        CODE
// 1648 {
        FUNCALL ZDApp_SaveNwkKey, SSP_ReadNwkActiveKey
        LOCFRAME ISTACK, 0, STACK
        LOCFRAME PSTACK, 0, STACK
        LOCFRAME XSTACK, 31, STACK
        LOCFRAME IOVERLAY, 0, STATIC
        LOCFRAME DOVERLAY, 0, STATIC
        ARGFRAME ISTACK, 0, STACK
        ARGFRAME PSTACK, 0, STACK
        ARGFRAME XSTACK, 31, STACK
        ARGFRAME IOVERLAY, 0, STATIC
        ARGFRAME DOVERLAY, 0, STATIC
        FUNCALL ZDApp_SaveNwkKey, osal_nv_write
        LOCFRAME ISTACK, 0, STACK
        LOCFRAME PSTACK, 0, STACK
        LOCFRAME XSTACK, 35, STACK
        LOCFRAME IOVERLAY, 0, STATIC
        LOCFRAME DOVERLAY, 0, STATIC
        ARGFRAME ISTACK, 0, STACK
        ARGFRAME PSTACK, 0, STACK
        ARGFRAME XSTACK, 35, STACK
        ARGFRAME IOVERLAY, 0, STATIC
        ARGFRAME DOVERLAY, 0, STATIC
        FUNCALL ZDApp_SaveNwkKey, osal_memset
        LOCFRAME ISTACK, 0, STACK
        LOCFRAME PSTACK, 0, STACK
        LOCFRAME XSTACK, 31, STACK
        LOCFRAME IOVERLAY, 0, STATIC
        LOCFRAME DOVERLAY, 0, STATIC
        ARGFRAME ISTACK, 0, STACK
        ARGFRAME PSTACK, 0, STACK
        ARGFRAME XSTACK, 31, STACK
        ARGFRAME IOVERLAY, 0, STATIC
        ARGFRAME DOVERLAY, 0, STATIC
        MOV     A,#-0xa
        LCALL   ?BANKED_ENTER_XDATA
          CFI DPH0 load(1, XDATA, add(CFA_XSP16, literal(-1)))
          CFI DPL0 load(1, XDATA, add(CFA_XSP16, literal(-2)))
          CFI ?BRET_EXT load(1, XDATA, add(CFA_XSP16, literal(-3)))
          CFI ?RET_HIGH load(1, XDATA, add(CFA_XSP16, literal(-4)))
          CFI ?RET_LOW load(1, XDATA, add(CFA_XSP16, literal(-5)))
          CFI R7 load(1, XDATA, add(CFA_XSP16, literal(-6)))
          CFI V1 load(1, XDATA, add(CFA_XSP16, literal(-7)))
          CFI V0 load(1, XDATA, add(CFA_XSP16, literal(-8)))
          CFI VB load(1, XDATA, add(CFA_XSP16, literal(-9)))
          CFI R6 load(1, XDATA, add(CFA_XSP16, literal(-10)))
          CFI CFA_SP SP+0
          CFI CFA_XSP16 add(XSP16, 10)
        ; Saved register size: 10
        ; Auto size: 21
        MOV     A,#-0x15
        LCALL   ?ALLOC_XSTACK8
          CFI CFA_XSP16 add(XSP16, 31)
// 1649   nwkActiveKeyItems keyItems;
// 1650 
// 1651   SSP_ReadNwkActiveKey( &keyItems );
        ; Setup parameters for call to function SSP_ReadNwkActiveKey
        MOV     DPL,?XSP + 0
        MOV     DPH,?XSP + 1
        MOV     R2,DPL
        MOV     R3,DPH
        LCALL   ??SSP_ReadNwkActiveKey?relay
// 1652 
// 1653   osal_nv_write( ZCD_NV_NWKKEY, 0, sizeof( nwkActiveKeyItems ),
// 1654                 (void *)&keyItems );
        ; Setup parameters for call to function osal_nv_write
        MOV     DPL,?XSP + 0
        MOV     DPH,?XSP + 1
        MOV     ?V0 + 0,DPL
        MOV     ?V0 + 1,DPH
        MOV     R0,#?V0 + 0
        LCALL   ?PUSH_XSTACK_I_TWO
          CFI CFA_XSP16 add(XSP16, 33)
        MOV     ?V0 + 0,#0x15
        MOV     ?V0 + 1,#0x0
        MOV     R0,#?V0 + 0
        LCALL   ?PUSH_XSTACK_I_TWO
          CFI CFA_XSP16 add(XSP16, 35)
        MOV     R4,#0x0
        MOV     R5,#0x0
        MOV     R2,#-0x7e
        MOV     R3,#0x0
        LCALL   ??osal_nv_write?relay
        MOV     A,#0x4
        LCALL   ?DEALLOC_XSTACK8
          CFI CFA_XSP16 add(XSP16, 31)
// 1655 
// 1656   nwkFrameCounterChanges = 0;
        MOV     DPTR,#nwkFrameCounterChanges
        CLR     A
        MOVX    @DPTR,A
        INC     DPTR
        MOVX    @DPTR,A
// 1657 
// 1658   // Clear copy in RAM before return.
// 1659   osal_memset( &keyItems, 0x00, sizeof(keyItems) );
        ; Setup parameters for call to function osal_memset
        MOV     R4,#0x15
        MOV     R5,A
        MOV     R1,A
        MOV     DPL,?XSP + 0
        MOV     DPH,?XSP + 1
        MOV     R2,DPL
        MOV     R3,DPH
        LCALL   ??osal_memset?relay
          CFI EndBlock cfiBlock49
// 1660 
// 1661 }
        REQUIRE ?Subroutine9
        ; // Fall through to label ?Subroutine9

        RSEG BANKED_CODE:CODE:NOROOT(0)
?Subroutine9:
          CFI Block cfiBlock50 Using cfiCommon0
          CFI NoFunction
          CFI CFA_SP SP+0
          CFI CFA_XSP16 add(XSP16, 31)
          CFI VB load(1, XDATA, add(CFA_XSP16, literal(-9)))
          CFI DPL0 load(1, XDATA, add(CFA_XSP16, literal(-2)))
          CFI DPH0 load(1, XDATA, add(CFA_XSP16, literal(-1)))
          CFI R6 load(1, XDATA, add(CFA_XSP16, literal(-10)))
          CFI R7 load(1, XDATA, add(CFA_XSP16, literal(-6)))
          CFI V0 load(1, XDATA, add(CFA_XSP16, literal(-8)))
          CFI V1 load(1, XDATA, add(CFA_XSP16, literal(-7)))
          CFI ?BRET_EXT load(1, XDATA, add(CFA_XSP16, literal(-3)))
          CFI ?RET_HIGH load(1, XDATA, add(CFA_XSP16, literal(-4)))
          CFI ?RET_LOW load(1, XDATA, add(CFA_XSP16, literal(-5)))
        MOV     A,#0x15
        SJMP    ??Subroutine38_0
          CFI EndBlock cfiBlock50
// 1662 
// 1663 /*********************************************************************
// 1664  * @fn      ZDApp_ResetNwkKey()
// 1665  *
// 1666  * @brief   Reset the Network key information in NV.
// 1667  *
// 1668  * @param   none
// 1669  *
// 1670  * @return  none
// 1671  */

        RSEG BANKED_CODE:CODE:NOROOT(0)
// 1672 void ZDApp_ResetNwkKey( void )
ZDApp_ResetNwkKey:
          CFI Block cfiBlock51 Using cfiCommon0
          CFI Function ZDApp_ResetNwkKey
        CODE
// 1673 {
        FUNCALL ZDApp_ResetNwkKey, osal_memset
        LOCFRAME ISTACK, 0, STACK
        LOCFRAME PSTACK, 0, STACK
        LOCFRAME XSTACK, 31, STACK
        LOCFRAME IOVERLAY, 0, STATIC
        LOCFRAME DOVERLAY, 0, STATIC
        ARGFRAME ISTACK, 0, STACK
        ARGFRAME PSTACK, 0, STACK
        ARGFRAME XSTACK, 31, STACK
        ARGFRAME IOVERLAY, 0, STATIC
        ARGFRAME DOVERLAY, 0, STATIC
        FUNCALL ZDApp_ResetNwkKey, osal_nv_write
        LOCFRAME ISTACK, 0, STACK
        LOCFRAME PSTACK, 0, STACK
        LOCFRAME XSTACK, 35, STACK
        LOCFRAME IOVERLAY, 0, STATIC
        LOCFRAME DOVERLAY, 0, STATIC
        ARGFRAME ISTACK, 0, STACK
        ARGFRAME PSTACK, 0, STACK
        ARGFRAME XSTACK, 35, STACK
        ARGFRAME IOVERLAY, 0, STATIC
        ARGFRAME DOVERLAY, 0, STATIC
        MOV     A,#-0xa
        LCALL   ?BANKED_ENTER_XDATA
          CFI DPH0 load(1, XDATA, add(CFA_XSP16, literal(-1)))
          CFI DPL0 load(1, XDATA, add(CFA_XSP16, literal(-2)))
          CFI ?BRET_EXT load(1, XDATA, add(CFA_XSP16, literal(-3)))
          CFI ?RET_HIGH load(1, XDATA, add(CFA_XSP16, literal(-4)))
          CFI ?RET_LOW load(1, XDATA, add(CFA_XSP16, literal(-5)))
          CFI R7 load(1, XDATA, add(CFA_XSP16, literal(-6)))
          CFI V1 load(1, XDATA, add(CFA_XSP16, literal(-7)))
          CFI V0 load(1, XDATA, add(CFA_XSP16, literal(-8)))
          CFI VB load(1, XDATA, add(CFA_XSP16, literal(-9)))
          CFI R6 load(1, XDATA, add(CFA_XSP16, literal(-10)))
          CFI CFA_SP SP+0
          CFI CFA_XSP16 add(XSP16, 10)
        ; Saved register size: 10
        ; Auto size: 21
        MOV     A,#-0x15
        LCALL   ?ALLOC_XSTACK8
          CFI CFA_XSP16 add(XSP16, 31)
// 1674   nwkActiveKeyItems keyItems;
// 1675 
// 1676   osal_memset( &keyItems, 0, sizeof( nwkActiveKeyItems ) );
        ; Setup parameters for call to function osal_memset
        MOV     R4,#0x15
        MOV     R5,#0x0
        MOV     R1,#0x0
        MOV     DPL,?XSP + 0
        MOV     DPH,?XSP + 1
        MOV     R2,DPL
        MOV     R3,DPH
        LCALL   ??osal_memset?relay
// 1677   osal_nv_write( ZCD_NV_NWKKEY, 0, sizeof( nwkActiveKeyItems ),
// 1678                 (void *)&keyItems );
        ; Setup parameters for call to function osal_nv_write
        MOV     DPL,?XSP + 0
        MOV     DPH,?XSP + 1
        MOV     ?V0 + 0,DPL
        MOV     ?V0 + 1,DPH
        MOV     R0,#?V0 + 0
        LCALL   ?PUSH_XSTACK_I_TWO
          CFI CFA_XSP16 add(XSP16, 33)
        MOV     ?V0 + 0,#0x15
        MOV     ?V0 + 1,#0x0
        MOV     R0,#?V0 + 0
        LCALL   ?PUSH_XSTACK_I_TWO
          CFI CFA_XSP16 add(XSP16, 35)
        MOV     R4,#0x0
        MOV     R5,#0x0
        MOV     R2,#-0x7e
        MOV     R3,#0x0
        LCALL   ??osal_nv_write?relay
        MOV     A,#0x4
        LCALL   ?DEALLOC_XSTACK8
          CFI CFA_XSP16 add(XSP16, 31)
// 1679 }
        SJMP    ?Subroutine9
          CFI EndBlock cfiBlock51

        RSEG BANKED_CODE:CODE:NOROOT(0)
?Subroutine5:
          CFI Block cfiBlock52 Using cfiCommon0
          CFI NoFunction
          CFI CFA_SP SP+0
          CFI CFA_XSP16 add(XSP16, 10)
          CFI VB load(1, XDATA, add(CFA_XSP16, literal(-9)))
          CFI DPL0 load(1, XDATA, add(CFA_XSP16, literal(-2)))
          CFI DPH0 load(1, XDATA, add(CFA_XSP16, literal(-1)))
          CFI R6 load(1, XDATA, add(CFA_XSP16, literal(-10)))
          CFI R7 load(1, XDATA, add(CFA_XSP16, literal(-6)))
          CFI V0 load(1, XDATA, add(CFA_XSP16, literal(-8)))
          CFI V1 load(1, XDATA, add(CFA_XSP16, literal(-7)))
          CFI ?BRET_EXT load(1, XDATA, add(CFA_XSP16, literal(-3)))
          CFI ?RET_HIGH load(1, XDATA, add(CFA_XSP16, literal(-4)))
          CFI ?RET_LOW load(1, XDATA, add(CFA_XSP16, literal(-5)))
        MOV     ?V0 + 0,#ZDApp_LeaveCtrl & 0xff
        MOV     ?V0 + 1,#(ZDApp_LeaveCtrl >> 8) & 0xff
        MOV     R0,#?V0 + 0
        LCALL   ?PUSH_XSTACK_I_TWO
          CFI CFA_XSP16 add(XSP16, 12)
        MOV     ?V0 + 0,#0x1
        MOV     ?V0 + 1,#0x0
        MOV     R0,#?V0 + 0
        LCALL   ?PUSH_XSTACK_I_TWO
          CFI CFA_XSP16 add(XSP16, 14)
        MOV     R4,#0x0
        MOV     R5,#0x0
        MOV     R2,#-0x7b
        MOV     R3,#0x0
        LCALL   ??osal_nv_write?relay
        MOV     A,#0x4
          CFI EndBlock cfiBlock52
        REQUIRE ??Subroutine38_0
        ; // Fall through to label ??Subroutine38_0

        RSEG BANKED_CODE:CODE:NOROOT(0)
??Subroutine38_0:
          CFI Block cfiBlock53 Using cfiCommon0
          CFI NoFunction
          CFI CFA_SP SP+0
          CFI CFA_XSP16 add(XSP16, 27)
          CFI VB load(1, XDATA, add(CFA_XSP16, literal(-9)))
          CFI DPL0 load(1, XDATA, add(CFA_XSP16, literal(-2)))
          CFI DPH0 load(1, XDATA, add(CFA_XSP16, literal(-1)))
          CFI R6 load(1, XDATA, add(CFA_XSP16, literal(-10)))
          CFI R7 load(1, XDATA, add(CFA_XSP16, literal(-6)))
          CFI V0 load(1, XDATA, add(CFA_XSP16, literal(-8)))
          CFI V1 load(1, XDATA, add(CFA_XSP16, literal(-7)))
          CFI ?BRET_EXT load(1, XDATA, add(CFA_XSP16, literal(-3)))
          CFI ?RET_HIGH load(1, XDATA, add(CFA_XSP16, literal(-4)))
          CFI ?RET_LOW load(1, XDATA, add(CFA_XSP16, literal(-5)))
          CFI Invalid
        LCALL   ?DEALLOC_XSTACK8
          CFI EndBlock cfiBlock53
        REQUIRE ??Subroutine39_0
        ; // Fall through to label ??Subroutine39_0

        RSEG BANKED_CODE:CODE:NOROOT(0)
??Subroutine39_0:
          CFI Block cfiBlock54 Using cfiCommon0
          CFI NoFunction
          CFI CFA_SP SP+0
          CFI CFA_XSP16 add(XSP16, 10)
          CFI VB load(1, XDATA, add(CFA_XSP16, literal(-9)))
          CFI DPL0 load(1, XDATA, add(CFA_XSP16, literal(-2)))
          CFI DPH0 load(1, XDATA, add(CFA_XSP16, literal(-1)))
          CFI R6 load(1, XDATA, add(CFA_XSP16, literal(-10)))
          CFI R7 load(1, XDATA, add(CFA_XSP16, literal(-6)))
          CFI V0 load(1, XDATA, add(CFA_XSP16, literal(-8)))
          CFI V1 load(1, XDATA, add(CFA_XSP16, literal(-7)))
          CFI ?BRET_EXT load(1, XDATA, add(CFA_XSP16, literal(-3)))
          CFI ?RET_HIGH load(1, XDATA, add(CFA_XSP16, literal(-4)))
          CFI ?RET_LOW load(1, XDATA, add(CFA_XSP16, literal(-5)))
        MOV     R7,#0x2
        LJMP    ?BANKED_LEAVE_XDATA
          CFI EndBlock cfiBlock54
// 1680 
// 1681 /*********************************************************************
// 1682  * @fn      ZDApp_RestoreNwkKey()
// 1683  *
// 1684  * @brief
// 1685  *
// 1686  *   Save off the Network key information.
// 1687  *
// 1688  * @param   none
// 1689  *
// 1690  * @return  true if restored from NV, false if not
// 1691  */

        RSEG BANKED_CODE:CODE:NOROOT(0)
// 1692 uint8 ZDApp_RestoreNwkKey( void )
ZDApp_RestoreNwkKey:
          CFI Block cfiBlock55 Using cfiCommon0
          CFI Function ZDApp_RestoreNwkKey
        CODE
// 1693 {
        FUNCALL ZDApp_RestoreNwkKey, osal_nv_read
        LOCFRAME ISTACK, 0, STACK
        LOCFRAME PSTACK, 0, STACK
        LOCFRAME XSTACK, 53, STACK
        LOCFRAME IOVERLAY, 0, STATIC
        LOCFRAME DOVERLAY, 0, STATIC
        ARGFRAME ISTACK, 0, STACK
        ARGFRAME PSTACK, 0, STACK
        ARGFRAME XSTACK, 53, STACK
        ARGFRAME IOVERLAY, 0, STATIC
        ARGFRAME DOVERLAY, 0, STATIC
        FUNCALL ZDApp_RestoreNwkKey, osal_memset
        LOCFRAME ISTACK, 0, STACK
        LOCFRAME PSTACK, 0, STACK
        LOCFRAME XSTACK, 49, STACK
        LOCFRAME IOVERLAY, 0, STATIC
        LOCFRAME DOVERLAY, 0, STATIC
        ARGFRAME ISTACK, 0, STACK
        ARGFRAME PSTACK, 0, STACK
        ARGFRAME XSTACK, 49, STACK
        ARGFRAME IOVERLAY, 0, STATIC
        ARGFRAME DOVERLAY, 0, STATIC
        FUNCALL ZDApp_RestoreNwkKey, osal_memcmp
        LOCFRAME ISTACK, 0, STACK
        LOCFRAME PSTACK, 0, STACK
        LOCFRAME XSTACK, 52, STACK
        LOCFRAME IOVERLAY, 0, STATIC
        LOCFRAME DOVERLAY, 0, STATIC
        ARGFRAME ISTACK, 0, STACK
        ARGFRAME PSTACK, 0, STACK
        ARGFRAME XSTACK, 52, STACK
        ARGFRAME IOVERLAY, 0, STATIC
        ARGFRAME DOVERLAY, 0, STATIC
        FUNCALL ZDApp_RestoreNwkKey, osal_nv_write
        LOCFRAME ISTACK, 0, STACK
        LOCFRAME PSTACK, 0, STACK
        LOCFRAME XSTACK, 53, STACK
        LOCFRAME IOVERLAY, 0, STATIC
        LOCFRAME DOVERLAY, 0, STATIC
        ARGFRAME ISTACK, 0, STACK
        ARGFRAME PSTACK, 0, STACK
        ARGFRAME XSTACK, 53, STACK
        ARGFRAME IOVERLAY, 0, STATIC
        ARGFRAME DOVERLAY, 0, STATIC
        FUNCALL ZDApp_RestoreNwkKey, osal_memset
        LOCFRAME ISTACK, 0, STACK
        LOCFRAME PSTACK, 0, STACK
        LOCFRAME XSTACK, 49, STACK
        LOCFRAME IOVERLAY, 0, STATIC
        LOCFRAME DOVERLAY, 0, STATIC
        ARGFRAME ISTACK, 0, STACK
        ARGFRAME PSTACK, 0, STACK
        ARGFRAME XSTACK, 49, STACK
        ARGFRAME IOVERLAY, 0, STATIC
        ARGFRAME DOVERLAY, 0, STATIC
        MOV     A,#-0xc
        LCALL   ?BANKED_ENTER_XDATA
          CFI DPH0 load(1, XDATA, add(CFA_XSP16, literal(-1)))
          CFI DPL0 load(1, XDATA, add(CFA_XSP16, literal(-2)))
          CFI ?BRET_EXT load(1, XDATA, add(CFA_XSP16, literal(-3)))
          CFI ?RET_HIGH load(1, XDATA, add(CFA_XSP16, literal(-4)))
          CFI ?RET_LOW load(1, XDATA, add(CFA_XSP16, literal(-5)))
          CFI R7 load(1, XDATA, add(CFA_XSP16, literal(-6)))
          CFI V3 load(1, XDATA, add(CFA_XSP16, literal(-7)))
          CFI V2 load(1, XDATA, add(CFA_XSP16, literal(-8)))
          CFI V1 load(1, XDATA, add(CFA_XSP16, literal(-9)))
          CFI V0 load(1, XDATA, add(CFA_XSP16, literal(-10)))
          CFI VB load(1, XDATA, add(CFA_XSP16, literal(-11)))
          CFI R6 load(1, XDATA, add(CFA_XSP16, literal(-12)))
          CFI CFA_SP SP+0
          CFI CFA_XSP16 add(XSP16, 12)
        ; Saved register size: 12
        ; Auto size: 37
        MOV     A,#-0x25
        LCALL   ?ALLOC_XSTACK8
          CFI CFA_XSP16 add(XSP16, 49)
// 1694   nwkActiveKeyItems keyItems;
// 1695   uint8 ret = FALSE;
        MOV     R6,#0x0
// 1696 
// 1697   // Restore the key information
// 1698   if ( osal_nv_read( ZCD_NV_NWKKEY, 0, sizeof(nwkActiveKeyItems), (void*)&keyItems )
// 1699       == ZSUCCESS )
        ; Setup parameters for call to function osal_nv_read
        MOV     DPL,?XSP + 0
        MOV     DPH,?XSP + 1
        MOV     ?V0 + 0,DPL
        MOV     ?V0 + 1,DPH
        MOV     R0,#?V0 + 0
        LCALL   ?PUSH_XSTACK_I_TWO
          CFI CFA_XSP16 add(XSP16, 51)
        MOV     ?V0 + 0,#0x15
        MOV     ?V0 + 1,R6
        MOV     R0,#?V0 + 0
        LCALL   ?PUSH_XSTACK_I_TWO
          CFI CFA_XSP16 add(XSP16, 53)
        MOV     R4,#0x0
        MOV     R5,#0x0
        MOV     R2,#-0x7e
        MOV     R3,#0x0
        LCALL   ??osal_nv_read?relay
        MOV     A,#0x4
        LCALL   ?DEALLOC_XSTACK8
          CFI CFA_XSP16 add(XSP16, 49)
        MOV     A,R1
        JZ      $+5
        LJMP    ??ZDApp_RestoreNwkKey_0 & 0xFFFF
// 1700   {
// 1701     uint8 nullKey[SEC_KEY_LEN];
// 1702 
// 1703     // initialize default value to compare to
// 1704     osal_memset( nullKey, 0x00, SEC_KEY_LEN );
        ; Setup parameters for call to function osal_memset
        MOV     R4,#0x10
        MOV     R5,#0x0
        MOV     R1,#0x0
        MOV     A,#0x15
        LCALL   ?XSTACK_DISP0_8
        MOV     R2,DPL
        MOV     R3,DPH
        LCALL   ??osal_memset?relay
// 1705 
// 1706     // if stored key is different than default value, then a key has been established
// 1707     if ( !osal_memcmp( keyItems.active.key, nullKey, SEC_KEY_LEN ) )
        ; Setup parameters for call to function osal_memcmp
        MOV     A,#0x15
        LCALL   ?XSTACK_DISP0_8
        MOV     R1,DPL
        MOV     R2,DPH
        MOV     ?V0 + 0,R1
        MOV     ?V0 + 1,R2
        MOV     ?V0 + 2,R6
        MOV     R0,#?V0 + 0
        LCALL   ?PUSH_XSTACK_I_THREE
          CFI CFA_XSP16 add(XSP16, 52)
        MOV     R4,#0x10
        MOV     R5,#0x0
        MOV     A,#0x4
        LCALL   ?XSTACK_DISP0_8
        MOV     R1,DPL
        MOV     R2,DPH
        MOV     R3,#0x0
        LCALL   ??osal_memcmp?relay
        MOV     A,#0x3
        LCALL   ?DEALLOC_XSTACK8
          CFI CFA_XSP16 add(XSP16, 49)
        MOV     A,R1
        JNZ     ??ZDApp_RestoreNwkKey_0
// 1708     {
// 1709       // Increment the frame counter stored in NV
// 1710       keyItems.frameCounter += ( MAX_NWK_FRAMECOUNTER_CHANGES +
// 1711                                  NWK_FRAMECOUNTER_CHANGES_RESTORE_DELTA );
        MOV     DPTR,#__Constant_4e2
        MOV     R0,#?V0 + 0
        LCALL   ?L_MOV_X
        MOV     A,#0x11
        LCALL   ?XSTACK_DISP0_8
        MOV     R0,#?V0 + 0
        LCALL   ?L_ADD_TO_X
// 1712 
// 1713       nwkFrameCounter = keyItems.frameCounter;
        MOV     A,#0x11
        LCALL   ?XSTACK_DISP0_8
        LCALL   ?XLOAD_R2345
        MOV     DPTR,#nwkFrameCounter
        LCALL   ?XSTORE_R2345
// 1714 
// 1715       // Save the updated Frame Counter right away
// 1716       osal_nv_write( ZCD_NV_NWKKEY, 0, sizeof( nwkActiveKeyItems ),
// 1717                      (void *)&keyItems );
        ; Setup parameters for call to function osal_nv_write
        MOV     DPL,?XSP + 0
        MOV     DPH,?XSP + 1
        MOV     ?V0 + 0,DPL
        MOV     ?V0 + 1,DPH
        MOV     R0,#?V0 + 0
        LCALL   ?PUSH_XSTACK_I_TWO
          CFI CFA_XSP16 add(XSP16, 51)
        MOV     ?V0 + 0,#0x15
        MOV     ?V0 + 1,R6
        MOV     R0,#?V0 + 0
        LCALL   ?PUSH_XSTACK_I_TWO
          CFI CFA_XSP16 add(XSP16, 53)
        MOV     R4,#0x0
        MOV     R5,#0x0
        MOV     R2,#-0x7e
        MOV     R3,#0x0
        LCALL   ??osal_nv_write?relay
        MOV     A,#0x4
        LCALL   ?DEALLOC_XSTACK8
          CFI CFA_XSP16 add(XSP16, 49)
// 1718 
// 1719       nwkFrameCounterChanges = 0;
        MOV     DPTR,#nwkFrameCounterChanges
        CLR     A
        MOVX    @DPTR,A
        INC     DPTR
        MOVX    @DPTR,A
// 1720 
// 1721       ret = TRUE;
        INC     R6
// 1722 
// 1723       // Clear copy in RAM before return.
// 1724       osal_memset( &keyItems, 0x00, sizeof(keyItems) );
        ; Setup parameters for call to function osal_memset
        MOV     R4,#0x15
        MOV     R5,A
        MOV     R1,A
        MOV     DPL,?XSP + 0
        MOV     DPH,?XSP + 1
        MOV     R2,DPL
        MOV     R3,DPH
        LCALL   ??osal_memset?relay
// 1725     }
// 1726   }
// 1727 
// 1728   return ( ret );
??ZDApp_RestoreNwkKey_0:
        MOV     A,R6
        MOV     R1,A
        MOV     A,#0x25
        LJMP    ?Subroutine3 & 0xFFFF
          CFI EndBlock cfiBlock55
// 1729 }
// 1730 
// 1731 /*********************************************************************
// 1732  * @fn      ZDApp_ResetTimerStart
// 1733  *
// 1734  * @brief   Start the reset timer.
// 1735  *
// 1736  * @param   delay - delay time(ms) before reset
// 1737  *
// 1738  * @return  none
// 1739  */

        RSEG BANKED_CODE:CODE:NOROOT(0)
// 1740 void ZDApp_ResetTimerStart( uint16 delay )
ZDApp_ResetTimerStart:
          CFI Block cfiBlock56 Using cfiCommon0
          CFI Function ZDApp_ResetTimerStart
        CODE
// 1741 {
        FUNCALL ZDApp_ResetTimerStart, osal_get_timeoutEx
        LOCFRAME ISTACK, 0, STACK
        LOCFRAME PSTACK, 0, STACK
        LOCFRAME XSTACK, 12, STACK
        LOCFRAME IOVERLAY, 0, STATIC
        LOCFRAME DOVERLAY, 0, STATIC
        ARGFRAME ISTACK, 0, STACK
        ARGFRAME PSTACK, 0, STACK
        ARGFRAME XSTACK, 12, STACK
        ARGFRAME IOVERLAY, 0, STATIC
        ARGFRAME DOVERLAY, 0, STATIC
        FUNCALL ZDApp_ResetTimerStart, osal_start_timerEx
        LOCFRAME ISTACK, 0, STACK
        LOCFRAME PSTACK, 0, STACK
        LOCFRAME XSTACK, 16, STACK
        LOCFRAME IOVERLAY, 0, STATIC
        LOCFRAME DOVERLAY, 0, STATIC
        ARGFRAME ISTACK, 0, STACK
        ARGFRAME PSTACK, 0, STACK
        ARGFRAME XSTACK, 16, STACK
        ARGFRAME IOVERLAY, 0, STATIC
        ARGFRAME DOVERLAY, 0, STATIC
        MOV     A,#-0xc
        LCALL   ?BANKED_ENTER_XDATA
          CFI DPH0 load(1, XDATA, add(CFA_XSP16, literal(-1)))
          CFI DPL0 load(1, XDATA, add(CFA_XSP16, literal(-2)))
          CFI ?BRET_EXT load(1, XDATA, add(CFA_XSP16, literal(-3)))
          CFI ?RET_HIGH load(1, XDATA, add(CFA_XSP16, literal(-4)))
          CFI ?RET_LOW load(1, XDATA, add(CFA_XSP16, literal(-5)))
          CFI R7 load(1, XDATA, add(CFA_XSP16, literal(-6)))
          CFI V3 load(1, XDATA, add(CFA_XSP16, literal(-7)))
          CFI V2 load(1, XDATA, add(CFA_XSP16, literal(-8)))
          CFI V1 load(1, XDATA, add(CFA_XSP16, literal(-9)))
          CFI V0 load(1, XDATA, add(CFA_XSP16, literal(-10)))
          CFI VB load(1, XDATA, add(CFA_XSP16, literal(-11)))
          CFI R6 load(1, XDATA, add(CFA_XSP16, literal(-12)))
          CFI CFA_SP SP+0
          CFI CFA_XSP16 add(XSP16, 12)
        ; Saved register size: 12
        ; Auto size: 0
        MOV     ?V0 + 0,R2
        MOV     ?V0 + 1,R3
// 1742   if ( !osal_get_timeoutEx( ZDAppTaskID, ZDO_DEVICE_RESET ) )
        ; Setup parameters for call to function osal_get_timeoutEx
        MOV     R2,#0x4
        MOV     R3,#0x0
        MOV     DPTR,#ZDAppTaskID
        MOVX    A,@DPTR
        MOV     R1,A
        LCALL   ??osal_get_timeoutEx?relay
        MOV     A,R2
        ORL     A,R3
        ORL     A,R4
        ORL     A,R5
        JNZ     ??ZDApp_ResetTimerStart_0
// 1743   {
// 1744     // Start the rest timer
// 1745     osal_start_timerEx( ZDAppTaskID, ZDO_DEVICE_RESET, delay );
        ; Setup parameters for call to function osal_start_timerEx
        CLR     A
        MOV     ?V0 + 2,A
        MOV     ?V0 + 3,A
        MOV     R0,#?V0 + 0
        LCALL   ?PUSH_XSTACK_I_FOUR
          CFI CFA_XSP16 add(XSP16, 16)
        MOV     R2,#0x4
        MOV     R3,#0x0
        MOV     DPTR,#ZDAppTaskID
        MOVX    A,@DPTR
        MOV     R1,A
        LCALL   ??osal_start_timerEx?relay
        MOV     A,#0x4
        LCALL   ?DEALLOC_XSTACK8
          CFI CFA_XSP16 add(XSP16, 12)
// 1746   }
// 1747 }
??ZDApp_ResetTimerStart_0:
        LJMP    ??Subroutine51_0 & 0xFFFF
          CFI EndBlock cfiBlock56
// 1748 
// 1749 /*********************************************************************
// 1750  * @fn      ZDApp_ResetTimerCancel
// 1751  *
// 1752  * @brief   Cancel the reset timer.
// 1753  *
// 1754  * @param   none
// 1755  *
// 1756  * @return  none
// 1757  */

        RSEG BANKED_CODE:CODE:NOROOT(0)
// 1758 void ZDApp_ResetTimerCancel( void )
ZDApp_ResetTimerCancel:
          CFI Block cfiBlock57 Using cfiCommon0
          CFI Function ZDApp_ResetTimerCancel
        CODE
// 1759 {
        FUNCALL ZDApp_ResetTimerCancel, osal_stop_timerEx
        LOCFRAME ISTACK, 2, STACK
        LOCFRAME PSTACK, 0, STACK
        LOCFRAME XSTACK, 0, STACK
        LOCFRAME IOVERLAY, 0, STATIC
        LOCFRAME DOVERLAY, 0, STATIC
        ARGFRAME ISTACK, 2, STACK
        ARGFRAME PSTACK, 0, STACK
        ARGFRAME XSTACK, 0, STACK
        ARGFRAME IOVERLAY, 0, STATIC
        ARGFRAME DOVERLAY, 0, STATIC
        FUNCALL ZDApp_ResetTimerCancel, osal_clear_event
        LOCFRAME ISTACK, 2, STACK
        LOCFRAME PSTACK, 0, STACK
        LOCFRAME XSTACK, 0, STACK
        LOCFRAME IOVERLAY, 0, STATIC
        LOCFRAME DOVERLAY, 0, STATIC
        ARGFRAME ISTACK, 2, STACK
        ARGFRAME PSTACK, 0, STACK
        ARGFRAME XSTACK, 0, STACK
        ARGFRAME IOVERLAY, 0, STATIC
        ARGFRAME DOVERLAY, 0, STATIC
        PUSH    DPL
          CFI DPL0 Frame(CFA_SP, 4)
          CFI CFA_SP SP+-4
        PUSH    DPH
          CFI DPH0 Frame(CFA_SP, 5)
          CFI CFA_SP SP+-5
        ; Saved register size: 2
        ; Auto size: 0
// 1760   (void)osal_stop_timerEx(ZDAppTaskID, ZDO_DEVICE_RESET);
        ; Setup parameters for call to function osal_stop_timerEx
        MOV     R2,#0x4
        MOV     R3,#0x0
        MOV     DPTR,#ZDAppTaskID
        MOVX    A,@DPTR
        MOV     R1,A
        LCALL   ??osal_stop_timerEx?relay
// 1761   (void)osal_clear_event(ZDAppTaskID, ZDO_DEVICE_RESET);
        ; Setup parameters for call to function osal_clear_event
        MOV     R2,#0x4
        MOV     R3,#0x0
        MOV     DPTR,#ZDAppTaskID
        MOVX    A,@DPTR
        MOV     R1,A
        LCALL   ??osal_clear_event?relay
// 1762 }
        LJMP    ??Subroutine40_0 & 0xFFFF
          CFI EndBlock cfiBlock57
// 1763 
// 1764 /*********************************************************************
// 1765  * @fn      ZDApp_LeaveCtrlInit
// 1766  *
// 1767  * @brief   Initialize the leave control logic.
// 1768  *
// 1769  * @param   none
// 1770  *
// 1771  * @return  none
// 1772  */

        RSEG BANKED_CODE:CODE:NOROOT(0)
// 1773 void ZDApp_LeaveCtrlInit( void )
ZDApp_LeaveCtrlInit:
          CFI Block cfiBlock58 Using cfiCommon0
          CFI Function ZDApp_LeaveCtrlInit
        CODE
// 1774 {
        FUNCALL ZDApp_LeaveCtrlInit, osal_nv_item_init
        LOCFRAME ISTACK, 0, STACK
        LOCFRAME PSTACK, 0, STACK
        LOCFRAME XSTACK, 12, STACK
        LOCFRAME IOVERLAY, 0, STATIC
        LOCFRAME DOVERLAY, 0, STATIC
        ARGFRAME ISTACK, 0, STACK
        ARGFRAME PSTACK, 0, STACK
        ARGFRAME XSTACK, 12, STACK
        ARGFRAME IOVERLAY, 0, STATIC
        ARGFRAME DOVERLAY, 0, STATIC
        FUNCALL ZDApp_LeaveCtrlInit, osal_nv_read
        LOCFRAME ISTACK, 0, STACK
        LOCFRAME PSTACK, 0, STACK
        LOCFRAME XSTACK, 14, STACK
        LOCFRAME IOVERLAY, 0, STATIC
        LOCFRAME DOVERLAY, 0, STATIC
        ARGFRAME ISTACK, 0, STACK
        ARGFRAME PSTACK, 0, STACK
        ARGFRAME XSTACK, 14, STACK
        ARGFRAME IOVERLAY, 0, STATIC
        ARGFRAME DOVERLAY, 0, STATIC
        MOV     A,#-0xa
        LCALL   ?BANKED_ENTER_XDATA
          CFI DPH0 load(1, XDATA, add(CFA_XSP16, literal(-1)))
          CFI DPL0 load(1, XDATA, add(CFA_XSP16, literal(-2)))
          CFI ?BRET_EXT load(1, XDATA, add(CFA_XSP16, literal(-3)))
          CFI ?RET_HIGH load(1, XDATA, add(CFA_XSP16, literal(-4)))
          CFI ?RET_LOW load(1, XDATA, add(CFA_XSP16, literal(-5)))
          CFI R7 load(1, XDATA, add(CFA_XSP16, literal(-6)))
          CFI V1 load(1, XDATA, add(CFA_XSP16, literal(-7)))
          CFI V0 load(1, XDATA, add(CFA_XSP16, literal(-8)))
          CFI VB load(1, XDATA, add(CFA_XSP16, literal(-9)))
          CFI R6 load(1, XDATA, add(CFA_XSP16, literal(-10)))
          CFI CFA_SP SP+0
          CFI CFA_XSP16 add(XSP16, 10)
        ; Saved register size: 10
        ; Auto size: 0
// 1775   uint8 status;
// 1776 
// 1777 
// 1778   // Initialize control state
// 1779   ZDApp_LeaveCtrl = ZDAPP_LEAVE_CTRL_INIT;
        MOV     DPTR,#ZDApp_LeaveCtrl
        CLR     A
        MOVX    @DPTR,A
// 1780 
// 1781   status = osal_nv_item_init( ZCD_NV_LEAVE_CTRL,
// 1782                               sizeof(ZDApp_LeaveCtrl),
// 1783                               &ZDApp_LeaveCtrl );
// 1784 
// 1785   if ( status == ZSUCCESS )
        ; Setup parameters for call to function osal_nv_item_init
        MOV     ?V0 + 0,#ZDApp_LeaveCtrl & 0xff
        MOV     ?V0 + 1,#(ZDApp_LeaveCtrl >> 8) & 0xff
        MOV     R0,#?V0 + 0
        LCALL   ?PUSH_XSTACK_I_TWO
          CFI CFA_XSP16 add(XSP16, 12)
        MOV     R4,#0x1
        MOV     R5,#0x0
        MOV     R2,#-0x7b
        MOV     R3,#0x0
        LCALL   ??osal_nv_item_init?relay
        MOV     A,#0x2
        LCALL   ?DEALLOC_XSTACK8
          CFI CFA_XSP16 add(XSP16, 10)
        MOV     A,R1
        JNZ     ??ZDApp_LeaveCtrlInit_0
// 1786   {
// 1787     // Read saved control
// 1788     osal_nv_read( ZCD_NV_LEAVE_CTRL,
// 1789                   0,
// 1790                   sizeof( uint8 ),
// 1791                   &ZDApp_LeaveCtrl);
        ; Setup parameters for call to function osal_nv_read
        MOV     R0,#?V0 + 0
        LCALL   ?PUSH_XSTACK_I_TWO
          CFI CFA_XSP16 add(XSP16, 12)
        MOV     ?V0 + 0,#0x1
        MOV     ?V0 + 1,#0x0
        MOV     R0,#?V0 + 0
        LCALL   ?PUSH_XSTACK_I_TWO
          CFI CFA_XSP16 add(XSP16, 14)
        MOV     R4,#0x0
        MOV     R5,#0x0
        MOV     R2,#-0x7b
        MOV     R3,#0x0
        LCALL   ??osal_nv_read?relay
        MOV     A,#0x4
        LCALL   ?DEALLOC_XSTACK8
          CFI CFA_XSP16 add(XSP16, 10)
// 1792   }
// 1793 }
??ZDApp_LeaveCtrlInit_0:
        LJMP    ??Subroutine39_0 & 0xFFFF
          CFI EndBlock cfiBlock58
// 1794 
// 1795 /*********************************************************************
// 1796  * @fn      ZDApp_LeaveCtrlSet
// 1797  *
// 1798  * @brief   Set the leave control logic.
// 1799  *
// 1800  * @param   ra - reassociate flag
// 1801  *
// 1802  * @return  none
// 1803  */

        RSEG BANKED_CODE:CODE:NOROOT(0)
// 1804 void ZDApp_LeaveCtrlSet( uint8 ra )
ZDApp_LeaveCtrlSet:
          CFI Block cfiBlock59 Using cfiCommon0
          CFI Function ZDApp_LeaveCtrlSet
        CODE
// 1805 {
        FUNCALL ZDApp_LeaveCtrlSet, osal_nv_write
        LOCFRAME ISTACK, 0, STACK
        LOCFRAME PSTACK, 0, STACK
        LOCFRAME XSTACK, 14, STACK
        LOCFRAME IOVERLAY, 0, STATIC
        LOCFRAME DOVERLAY, 0, STATIC
        ARGFRAME ISTACK, 0, STACK
        ARGFRAME PSTACK, 0, STACK
        ARGFRAME XSTACK, 14, STACK
        ARGFRAME IOVERLAY, 0, STATIC
        ARGFRAME DOVERLAY, 0, STATIC
        MOV     A,#-0xa
        LCALL   ?BANKED_ENTER_XDATA
          CFI DPH0 load(1, XDATA, add(CFA_XSP16, literal(-1)))
          CFI DPL0 load(1, XDATA, add(CFA_XSP16, literal(-2)))
          CFI ?BRET_EXT load(1, XDATA, add(CFA_XSP16, literal(-3)))
          CFI ?RET_HIGH load(1, XDATA, add(CFA_XSP16, literal(-4)))
          CFI ?RET_LOW load(1, XDATA, add(CFA_XSP16, literal(-5)))
          CFI R7 load(1, XDATA, add(CFA_XSP16, literal(-6)))
          CFI V1 load(1, XDATA, add(CFA_XSP16, literal(-7)))
          CFI V0 load(1, XDATA, add(CFA_XSP16, literal(-8)))
          CFI VB load(1, XDATA, add(CFA_XSP16, literal(-9)))
          CFI R6 load(1, XDATA, add(CFA_XSP16, literal(-10)))
          CFI CFA_SP SP+0
          CFI CFA_XSP16 add(XSP16, 10)
        ; Saved register size: 10
        ; Auto size: 0
        MOV     A,R1
        MOV     R6,A
// 1806   ZDApp_LeaveCtrl = ZDAPP_LEAVE_CTRL_SET;
        MOV     DPTR,#ZDApp_LeaveCtrl
        MOV     A,#0x1
        MOVX    @DPTR,A
// 1807 
// 1808   if ( ra == TRUE )
        XRL     A,R6
        JNZ     ??ZDApp_LeaveCtrlSet_0
// 1809   {
// 1810     ZDApp_LeaveCtrl |= ZDAPP_LEAVE_CTRL_RA;
        MOV     A,#0x3
        MOVX    @DPTR,A
// 1811   }
// 1812 
// 1813   // Write the leave control
// 1814   osal_nv_write( ZCD_NV_LEAVE_CTRL,
// 1815                  0,
// 1816                  sizeof( uint8 ),
// 1817                  &ZDApp_LeaveCtrl);
??ZDApp_LeaveCtrlSet_0:
        ; Setup parameters for call to function osal_nv_write
        LJMP    ?Subroutine5 & 0xFFFF
          CFI EndBlock cfiBlock59
// 1818 }
// 1819 
// 1820 /*********************************************************************
// 1821  * @fn      ZDApp_LeaveCtrlReset
// 1822  *
// 1823  * @brief   Re-initialize the leave control logic.
// 1824  *
// 1825  * @param   none
// 1826  *
// 1827  * @return  none
// 1828  */

        RSEG BANKED_CODE:CODE:NOROOT(0)
// 1829 void ZDApp_LeaveCtrlReset( void )
ZDApp_LeaveCtrlReset:
          CFI Block cfiBlock60 Using cfiCommon0
          CFI Function ZDApp_LeaveCtrlReset
        CODE
// 1830 {
        FUNCALL ZDApp_LeaveCtrlReset, osal_nv_write
        LOCFRAME ISTACK, 0, STACK
        LOCFRAME PSTACK, 0, STACK
        LOCFRAME XSTACK, 14, STACK
        LOCFRAME IOVERLAY, 0, STATIC
        LOCFRAME DOVERLAY, 0, STATIC
        ARGFRAME ISTACK, 0, STACK
        ARGFRAME PSTACK, 0, STACK
        ARGFRAME XSTACK, 14, STACK
        ARGFRAME IOVERLAY, 0, STATIC
        ARGFRAME DOVERLAY, 0, STATIC
        MOV     A,#-0xa
        LCALL   ?BANKED_ENTER_XDATA
          CFI DPH0 load(1, XDATA, add(CFA_XSP16, literal(-1)))
          CFI DPL0 load(1, XDATA, add(CFA_XSP16, literal(-2)))
          CFI ?BRET_EXT load(1, XDATA, add(CFA_XSP16, literal(-3)))
          CFI ?RET_HIGH load(1, XDATA, add(CFA_XSP16, literal(-4)))
          CFI ?RET_LOW load(1, XDATA, add(CFA_XSP16, literal(-5)))
          CFI R7 load(1, XDATA, add(CFA_XSP16, literal(-6)))
          CFI V1 load(1, XDATA, add(CFA_XSP16, literal(-7)))
          CFI V0 load(1, XDATA, add(CFA_XSP16, literal(-8)))
          CFI VB load(1, XDATA, add(CFA_XSP16, literal(-9)))
          CFI R6 load(1, XDATA, add(CFA_XSP16, literal(-10)))
          CFI CFA_SP SP+0
          CFI CFA_XSP16 add(XSP16, 10)
        ; Saved register size: 10
        ; Auto size: 0
// 1831   // Set leave control to initialized state
// 1832   ZDApp_LeaveCtrl = ZDAPP_LEAVE_CTRL_INIT;
        MOV     DPTR,#ZDApp_LeaveCtrl
        CLR     A
        MOVX    @DPTR,A
// 1833 
// 1834   // Write initialized control
// 1835   osal_nv_write( ZCD_NV_LEAVE_CTRL,
// 1836                 0,
// 1837                 sizeof( uint8 ),
// 1838                 &ZDApp_LeaveCtrl);
        ; Setup parameters for call to function osal_nv_write
        LJMP    ?Subroutine5 & 0xFFFF
          CFI EndBlock cfiBlock60
// 1839 }
// 1840 
// 1841 /*********************************************************************
// 1842  * @fn      ZDApp_LeaveCtrlBypass
// 1843  *
// 1844  * @brief   Check if NV restore should be skipped during a leave reset.
// 1845  *
// 1846  * @param   none
// 1847  *
// 1848  * @return  uint8 - (TRUE bypass:FALSE do not bypass)
// 1849  */

        RSEG BANKED_CODE:CODE:NOROOT(0)
// 1850 uint8 ZDApp_LeaveCtrlBypass( void )
ZDApp_LeaveCtrlBypass:
          CFI Block cfiBlock61 Using cfiCommon0
          CFI Function ZDApp_LeaveCtrlBypass
        CODE
// 1851 {
        PUSH    DPL
          CFI DPL0 Frame(CFA_SP, 4)
          CFI CFA_SP SP+-4
        PUSH    DPH
          CFI DPH0 Frame(CFA_SP, 5)
          CFI CFA_SP SP+-5
        ; Saved register size: 2
        ; Auto size: 0
// 1852   uint8 bypass;
// 1853 
// 1854   if ( ZDApp_LeaveCtrl & ZDAPP_LEAVE_CTRL_SET )
// 1855   {
// 1856     bypass = TRUE;
// 1857   }
// 1858   else
// 1859   {
// 1860     bypass = FALSE;
// 1861   }
// 1862 
// 1863   return bypass;
        MOV     DPTR,#ZDApp_LeaveCtrl
        MOVX    A,@DPTR
        MOV     C,0xE0 /* A   */.0
        CLR     A
        RLC     A
        MOV     R1,A
        SJMP    ??Subroutine40_0
          CFI EndBlock cfiBlock61
// 1864 }
// 1865 
// 1866 /*********************************************************************
// 1867  * @fn      ZDApp_LeaveCtrlStartup
// 1868  *
// 1869  * @brief   Check for startup conditions during a leave reset.
// 1870  *
// 1871  * @param   state      - devState_t determined by leave control logic
// 1872  * @param   startDelay - startup delay
// 1873  *
// 1874  * @return  none
// 1875  */

        RSEG BANKED_CODE:CODE:NOROOT(0)
// 1876 void ZDApp_LeaveCtrlStartup( devStates_t* state, uint16* startDelay )
ZDApp_LeaveCtrlStartup:
          CFI Block cfiBlock62 Using cfiCommon0
          CFI Function ZDApp_LeaveCtrlStartup
        CODE
// 1877 {
        FUNCALL ZDApp_LeaveCtrlStartup, ZDApp_LeaveCtrlReset
        LOCFRAME ISTACK, 2, STACK
        LOCFRAME PSTACK, 0, STACK
        LOCFRAME XSTACK, 0, STACK
        LOCFRAME IOVERLAY, 0, STATIC
        LOCFRAME DOVERLAY, 0, STATIC
        ARGFRAME ISTACK, 2, STACK
        ARGFRAME PSTACK, 0, STACK
        ARGFRAME XSTACK, 0, STACK
        ARGFRAME IOVERLAY, 0, STATIC
        ARGFRAME DOVERLAY, 0, STATIC
        PUSH    DPL
          CFI DPL0 Frame(CFA_SP, 4)
          CFI CFA_SP SP+-4
        PUSH    DPH
          CFI DPH0 Frame(CFA_SP, 5)
          CFI CFA_SP SP+-5
        ; Saved register size: 2
        ; Auto size: 0
// 1878   *startDelay = 0;
        MOV     DPL,R4
        MOV     DPH,R5
        CLR     A
        MOVX    @DPTR,A
        INC     DPTR
        MOVX    @DPTR,A
// 1879 
// 1880   if ( ZDApp_LeaveCtrl & ZDAPP_LEAVE_CTRL_SET )
        MOV     DPTR,#ZDApp_LeaveCtrl
        MOVX    A,@DPTR
        MOV     C,0xE0 /* A   */.0
        JNC     ??ZDApp_LeaveCtrlStartup_0
// 1881   {
// 1882     if ( ZDApp_LeaveCtrl & ZDAPP_LEAVE_CTRL_RA )
        MOV     C,0xE0 /* A   */.1
        JNC     ??ZDApp_LeaveCtrlStartup_1
// 1883     {
// 1884       *startDelay = LEAVE_RESET_DELAY;
        MOV     DPL,R4
        MOV     DPH,R5
        MOV     A,#-0x78
        MOVX    @DPTR,A
        INC     DPTR
        MOV     A,#0x13
        SJMP    ??ZDApp_LeaveCtrlStartup_2
// 1885     }
// 1886     else
// 1887     {
// 1888       *state = DEV_HOLD;
??ZDApp_LeaveCtrlStartup_1:
        MOV     DPL,R2
        MOV     DPH,R3
        CLR     A
??ZDApp_LeaveCtrlStartup_2:
        MOVX    @DPTR,A
// 1889     }
// 1890 
// 1891     // Reset leave control logic
// 1892     ZDApp_LeaveCtrlReset();
        ; Setup parameters for call to function ZDApp_LeaveCtrlReset
        LCALL   ??ZDApp_LeaveCtrlReset?relay
// 1893   }
// 1894 }
??ZDApp_LeaveCtrlStartup_0:
        SJMP    ??Subroutine40_0
          CFI EndBlock cfiBlock62

        RSEG BANKED_CODE:CODE:NOROOT(0)
?Subroutine4:
          CFI Block cfiBlock63 Using cfiCommon0
          CFI NoFunction
          CFI CFA_SP SP+-5
          CFI CFA_XSP16 add(XSP16, 3)
          CFI DPL0 Frame(CFA_SP, 4)
          CFI DPH0 Frame(CFA_SP, 5)
          CFI Invalid
        LCALL   ?DEALLOC_XSTACK8
          CFI EndBlock cfiBlock63
        REQUIRE ??Subroutine40_0
        ; // Fall through to label ??Subroutine40_0

        RSEG BANKED_CODE:CODE:NOROOT(0)
??Subroutine40_0:
          CFI Block cfiBlock64 Using cfiCommon0
          CFI NoFunction
          CFI CFA_SP SP+-5
          CFI DPL0 Frame(CFA_SP, 4)
          CFI DPH0 Frame(CFA_SP, 5)
        POP     DPH
          CFI CFA_SP SP+-4
          CFI DPH0 SameValue
        POP     DPL
          CFI CFA_SP SP+-3
          CFI DPL0 SameValue
        LJMP    ?BRET
          CFI EndBlock cfiBlock64
// 1895 
// 1896 /*********************************************************************
// 1897  * @fn      ZDApp_LeaveReset
// 1898  *
// 1899  * @brief   Setup a device reset due to a leave indication/confirm.
// 1900  *
// 1901  * @param   ra - reassociate flag
// 1902  *
// 1903  * @return  none
// 1904  */

        RSEG BANKED_CODE:CODE:NOROOT(0)
// 1905 void ZDApp_LeaveReset( uint8 ra )
ZDApp_LeaveReset:
          CFI Block cfiBlock65 Using cfiCommon0
          CFI Function ZDApp_LeaveReset
        CODE
// 1906 {
        FUNCALL ZDApp_LeaveReset, ZDApp_LeaveCtrlSet
        LOCFRAME ISTACK, 0, STACK
        LOCFRAME PSTACK, 0, STACK
        LOCFRAME XSTACK, 9, STACK
        LOCFRAME IOVERLAY, 0, STATIC
        LOCFRAME DOVERLAY, 0, STATIC
        ARGFRAME ISTACK, 0, STACK
        ARGFRAME PSTACK, 0, STACK
        ARGFRAME XSTACK, 9, STACK
        ARGFRAME IOVERLAY, 0, STATIC
        ARGFRAME DOVERLAY, 0, STATIC
        FUNCALL ZDApp_LeaveReset, ZDApp_ResetTimerStart
        LOCFRAME ISTACK, 0, STACK
        LOCFRAME PSTACK, 0, STACK
        LOCFRAME XSTACK, 9, STACK
        LOCFRAME IOVERLAY, 0, STATIC
        LOCFRAME DOVERLAY, 0, STATIC
        ARGFRAME ISTACK, 0, STACK
        ARGFRAME PSTACK, 0, STACK
        ARGFRAME XSTACK, 9, STACK
        ARGFRAME IOVERLAY, 0, STATIC
        ARGFRAME DOVERLAY, 0, STATIC
        MOV     A,#-0x9
        LCALL   ?BANKED_ENTER_XDATA
          CFI DPH0 load(1, XDATA, add(CFA_XSP16, literal(-1)))
          CFI DPL0 load(1, XDATA, add(CFA_XSP16, literal(-2)))
          CFI ?BRET_EXT load(1, XDATA, add(CFA_XSP16, literal(-3)))
          CFI ?RET_HIGH load(1, XDATA, add(CFA_XSP16, literal(-4)))
          CFI ?RET_LOW load(1, XDATA, add(CFA_XSP16, literal(-5)))
          CFI R7 load(1, XDATA, add(CFA_XSP16, literal(-6)))
          CFI V0 load(1, XDATA, add(CFA_XSP16, literal(-7)))
          CFI VB load(1, XDATA, add(CFA_XSP16, literal(-8)))
          CFI R6 load(1, XDATA, add(CFA_XSP16, literal(-9)))
          CFI CFA_SP SP+0
          CFI CFA_XSP16 add(XSP16, 9)
        ; Saved register size: 9
        ; Auto size: 0
// 1907   ZDApp_LeaveCtrlSet( ra );
        ; Setup parameters for call to function ZDApp_LeaveCtrlSet
        LCALL   ??ZDApp_LeaveCtrlSet?relay
// 1908 
// 1909   ZDApp_ResetTimerStart( LEAVE_RESET_DELAY );
        ; Setup parameters for call to function ZDApp_ResetTimerStart
        MOV     R2,#-0x78
        MOV     R3,#0x13
        LCALL   ??ZDApp_ResetTimerStart?relay
// 1910 }
        LJMP    ??Subroutine44_0 & 0xFFFF
          CFI EndBlock cfiBlock65
// 1911 
// 1912 /*********************************************************************
// 1913  * @fn      ZDApp_LeaveUpdate
// 1914  *
// 1915  * @brief   Update local device data related to leaving device.
// 1916  *
// 1917  * @param   nwkAddr        - NWK address of leaving device
// 1918  * @param   extAddr        - EXT address of leaving device
// 1919  * @param   removeChildren - remove children of leaving device
// 1920  *
// 1921  * @return  none
// 1922  */

        RSEG BANKED_CODE:CODE:NOROOT(0)
// 1923 void ZDApp_LeaveUpdate( uint16 nwkAddr, uint8* extAddr,
ZDApp_LeaveUpdate:
          CFI Block cfiBlock66 Using cfiCommon0
          CFI Function ZDApp_LeaveUpdate
        CODE
// 1924                         uint8 removeChildren )
// 1925 {
        FUNCALL ZDApp_LeaveUpdate, ZDSecMgrDeviceRemoveByExtAddr
        LOCFRAME ISTACK, 0, STACK
        LOCFRAME PSTACK, 0, STACK
        LOCFRAME XSTACK, 32, STACK
        LOCFRAME IOVERLAY, 0, STATIC
        LOCFRAME DOVERLAY, 0, STATIC
        ARGFRAME ISTACK, 0, STACK
        ARGFRAME PSTACK, 0, STACK
        ARGFRAME XSTACK, 32, STACK
        ARGFRAME IOVERLAY, 0, STATIC
        ARGFRAME DOVERLAY, 0, STATIC
        FUNCALL ZDApp_LeaveUpdate, ZDSecMgrAddrClear
        LOCFRAME ISTACK, 0, STACK
        LOCFRAME PSTACK, 0, STACK
        LOCFRAME XSTACK, 32, STACK
        LOCFRAME IOVERLAY, 0, STATIC
        LOCFRAME DOVERLAY, 0, STATIC
        ARGFRAME ISTACK, 0, STACK
        ARGFRAME PSTACK, 0, STACK
        ARGFRAME XSTACK, 32, STACK
        ARGFRAME IOVERLAY, 0, STATIC
        ARGFRAME DOVERLAY, 0, STATIC
        FUNCALL ZDApp_LeaveUpdate, osal_memcpy
        LOCFRAME ISTACK, 0, STACK
        LOCFRAME PSTACK, 0, STACK
        LOCFRAME XSTACK, 35, STACK
        LOCFRAME IOVERLAY, 0, STATIC
        LOCFRAME DOVERLAY, 0, STATIC
        ARGFRAME ISTACK, 0, STACK
        ARGFRAME PSTACK, 0, STACK
        ARGFRAME XSTACK, 35, STACK
        ARGFRAME IOVERLAY, 0, STATIC
        ARGFRAME DOVERLAY, 0, STATIC
        FUNCALL ZDApp_LeaveUpdate, AssocIsChild
        LOCFRAME ISTACK, 0, STACK
        LOCFRAME PSTACK, 0, STACK
        LOCFRAME XSTACK, 32, STACK
        LOCFRAME IOVERLAY, 0, STATIC
        LOCFRAME DOVERLAY, 0, STATIC
        ARGFRAME ISTACK, 0, STACK
        ARGFRAME PSTACK, 0, STACK
        ARGFRAME XSTACK, 32, STACK
        ARGFRAME IOVERLAY, 0, STATIC
        ARGFRAME DOVERLAY, 0, STATIC
        FUNCALL ZDApp_LeaveUpdate, APSME_UpdateDeviceReq
        LOCFRAME ISTACK, 0, STACK
        LOCFRAME PSTACK, 0, STACK
        LOCFRAME XSTACK, 32, STACK
        LOCFRAME IOVERLAY, 0, STATIC
        LOCFRAME DOVERLAY, 0, STATIC
        ARGFRAME ISTACK, 0, STACK
        ARGFRAME PSTACK, 0, STACK
        ARGFRAME XSTACK, 32, STACK
        ARGFRAME IOVERLAY, 0, STATIC
        ARGFRAME DOVERLAY, 0, STATIC
        FUNCALL ZDApp_LeaveUpdate, APSME_UpdateDeviceReq
        LOCFRAME ISTACK, 0, STACK
        LOCFRAME PSTACK, 0, STACK
        LOCFRAME XSTACK, 32, STACK
        LOCFRAME IOVERLAY, 0, STATIC
        LOCFRAME DOVERLAY, 0, STATIC
        ARGFRAME ISTACK, 0, STACK
        ARGFRAME PSTACK, 0, STACK
        ARGFRAME XSTACK, 32, STACK
        ARGFRAME IOVERLAY, 0, STATIC
        ARGFRAME DOVERLAY, 0, STATIC
        FUNCALL ZDApp_LeaveUpdate, NLME_RemoveChild
        LOCFRAME ISTACK, 0, STACK
        LOCFRAME PSTACK, 0, STACK
        LOCFRAME XSTACK, 32, STACK
        LOCFRAME IOVERLAY, 0, STATIC
        LOCFRAME DOVERLAY, 0, STATIC
        ARGFRAME ISTACK, 0, STACK
        ARGFRAME PSTACK, 0, STACK
        ARGFRAME XSTACK, 32, STACK
        ARGFRAME IOVERLAY, 0, STATIC
        ARGFRAME DOVERLAY, 0, STATIC
        FUNCALL ZDApp_LeaveUpdate, RTG_RemoveRtgEntry
        LOCFRAME ISTACK, 0, STACK
        LOCFRAME PSTACK, 0, STACK
        LOCFRAME XSTACK, 32, STACK
        LOCFRAME IOVERLAY, 0, STATIC
        LOCFRAME DOVERLAY, 0, STATIC
        ARGFRAME ISTACK, 0, STACK
        ARGFRAME PSTACK, 0, STACK
        ARGFRAME XSTACK, 32, STACK
        ARGFRAME IOVERLAY, 0, STATIC
        ARGFRAME DOVERLAY, 0, STATIC
        FUNCALL ZDApp_LeaveUpdate, nwkNeighborRemove
        LOCFRAME ISTACK, 0, STACK
        LOCFRAME PSTACK, 0, STACK
        LOCFRAME XSTACK, 32, STACK
        LOCFRAME IOVERLAY, 0, STATIC
        LOCFRAME DOVERLAY, 0, STATIC
        ARGFRAME ISTACK, 0, STACK
        ARGFRAME PSTACK, 0, STACK
        ARGFRAME XSTACK, 32, STACK
        ARGFRAME IOVERLAY, 0, STATIC
        ARGFRAME DOVERLAY, 0, STATIC
        FUNCALL ZDApp_LeaveUpdate, AddrMgrWriteNVRequest
        LOCFRAME ISTACK, 0, STACK
        LOCFRAME PSTACK, 0, STACK
        LOCFRAME XSTACK, 32, STACK
        LOCFRAME IOVERLAY, 0, STATIC
        LOCFRAME DOVERLAY, 0, STATIC
        ARGFRAME ISTACK, 0, STACK
        ARGFRAME PSTACK, 0, STACK
        ARGFRAME XSTACK, 32, STACK
        ARGFRAME IOVERLAY, 0, STATIC
        ARGFRAME DOVERLAY, 0, STATIC
        MOV     A,#-0xf
        LCALL   ?BANKED_ENTER_XDATA
          CFI DPH0 load(1, XDATA, add(CFA_XSP16, literal(-1)))
          CFI DPL0 load(1, XDATA, add(CFA_XSP16, literal(-2)))
          CFI ?BRET_EXT load(1, XDATA, add(CFA_XSP16, literal(-3)))
          CFI ?RET_HIGH load(1, XDATA, add(CFA_XSP16, literal(-4)))
          CFI ?RET_LOW load(1, XDATA, add(CFA_XSP16, literal(-5)))
          CFI R7 load(1, XDATA, add(CFA_XSP16, literal(-6)))
          CFI V6 load(1, XDATA, add(CFA_XSP16, literal(-7)))
          CFI V5 load(1, XDATA, add(CFA_XSP16, literal(-8)))
          CFI V4 load(1, XDATA, add(CFA_XSP16, literal(-9)))
          CFI V3 load(1, XDATA, add(CFA_XSP16, literal(-10)))
          CFI V2 load(1, XDATA, add(CFA_XSP16, literal(-11)))
          CFI V1 load(1, XDATA, add(CFA_XSP16, literal(-12)))
          CFI V0 load(1, XDATA, add(CFA_XSP16, literal(-13)))
          CFI VB load(1, XDATA, add(CFA_XSP16, literal(-14)))
          CFI R6 load(1, XDATA, add(CFA_XSP16, literal(-15)))
          CFI CFA_SP SP+0
          CFI CFA_XSP16 add(XSP16, 15)
        ; Saved register size: 15
        ; Auto size: 17
        MOV     A,#-0x11
        LCALL   ?ALLOC_XSTACK8
          CFI CFA_XSP16 add(XSP16, 32)
        MOV     ?V0 + 0,R2
        MOV     ?V0 + 1,R3
        MOV     A,R4
        MOV     R6,A
        MOV     A,R5
        MOV     R7,A
        MOV     ?V0 + 2,R1
// 1926   // Remove Apps Key for leaving device
// 1927   ZDSecMgrDeviceRemoveByExtAddr(extAddr);
        ; Setup parameters for call to function ZDSecMgrDeviceRemoveByExtAddr
        MOV     A,R6
        MOV     R2,A
        MOV     A,R7
        MOV     R3,A
        LCALL   ??ZDSecMgrDeviceRemoveByExtAddr?relay
// 1928 
// 1929   // Clear SECURITY bit from Address Manager
// 1930   ZDSecMgrAddrClear( extAddr );
        ; Setup parameters for call to function ZDSecMgrAddrClear
        MOV     A,R6
        MOV     R2,A
        MOV     A,R7
        MOV     R3,A
        LCALL   ??ZDSecMgrAddrClear?relay
// 1931 
// 1932   if ( pbindRemoveDev )
        MOV     DPTR,#pbindRemoveDev
        LCALL   ??Subroutine43_0 & 0xFFFF
??CrossCallReturnLabel_63:
        JZ      ??ZDApp_LeaveUpdate_0
// 1933   {
// 1934     zAddrType_t devAddr;
// 1935 
// 1936     // Remove bind entry and all related data
// 1937     devAddr.addrMode = Addr64Bit;
        MOV     A,#0x10
        LCALL   ?XSTACK_DISP0_8
        MOV     A,#0x3
        MOVX    @DPTR,A
// 1938     osal_memcpy(devAddr.addr.extAddr, extAddr, Z_EXTADDR_LEN);
        ; Setup parameters for call to function osal_memcpy
        MOV     ?V0 + 4,R6
        MOV     ?V0 + 5,R7
        MOV     ?V0 + 6,#0x0
        MOV     R0,#?V0 + 4
        LCALL   ?PUSH_XSTACK_I_THREE
          CFI CFA_XSP16 add(XSP16, 35)
        MOV     R4,#0x8
        MOV     R5,#0x0
        MOV     A,#0xb
        LCALL   ?XSTACK_DISP0_8
        MOV     R2,DPL
        MOV     R3,DPH
        LCALL   ??osal_memcpy?relay
        MOV     A,#0x3
        LCALL   ?DEALLOC_XSTACK8
          CFI CFA_XSP16 add(XSP16, 32)
// 1939 
// 1940     pbindRemoveDev(&devAddr);
        ; Setup parameters for indirect call
        MOV     A,#0x8
        LCALL   ?XSTACK_DISP0_8
        MOV     R2,DPL
        MOV     R3,DPH
        MOV     DPTR,#pbindRemoveDev
        LCALL   ?Subroutine22 & 0xFFFF
// 1941   }
??CrossCallReturnLabel_93:
        LCALL   ?CALL_IND
// 1942 
// 1943   // Remove if child
// 1944   if ( ZSTACK_ROUTER_BUILD )
// 1945   {
// 1946     // Router shall notify the Trust Center that a child device has left the network
// 1947     if ( AssocIsChild( nwkAddr ) == TRUE )
??ZDApp_LeaveUpdate_0:
        ; Setup parameters for call to function AssocIsChild
        MOV     R2,?V0 + 0
        MOV     R3,?V0 + 1
        LCALL   ??AssocIsChild?relay
        MOV     A,R1
        XRL     A,#0x1
        JNZ     ??ZDApp_LeaveUpdate_1
// 1948     {
// 1949         APSME_UpdateDeviceReq_t req;
// 1950 
// 1951         // forward authorization to the Trust Center
// 1952         req.dstAddr    = APSME_TRUSTCENTER_NWKADDR;
        MOV     DPL,?XSP + 0
        MOV     DPH,?XSP + 1
        CLR     A
        MOVX    @DPTR,A
        INC     DPTR
        MOVX    @DPTR,A
// 1953         req.devAddr    = nwkAddr;
        MOV     A,#0x2
        LCALL   ?XSTACK_DISP0_8
        LCALL   ??Subroutine47_0 & 0xFFFF
// 1954         req.devExtAddr = extAddr;
??CrossCallReturnLabel_87:
        MOV     A,#0x4
        LCALL   ?XSTACK_DISP0_8
        MOV     A,R6
        MOVX    @DPTR,A
        INC     DPTR
        MOV     A,R7
        MOVX    @DPTR,A
// 1955         req.status = APSME_UD_DEVICE_LEFT;
        MOV     A,#0x6
        LCALL   ?XSTACK_DISP0_8
        MOV     A,#0x2
        MOVX    @DPTR,A
// 1956 
// 1957         if ( ZG_CHECK_SECURITY_MODE == ZG_SECURITY_SE_STANDARD )
// 1958         {
// 1959           // For ZG_GLOBAL_LINK_KEY the message has to be sent twice one
// 1960           // un-encrypted and one APS encrypted, to make sure that it can interoperate
// 1961           // with legacy Coordinator devices which can only handle one or the other.
// 1962           if ( zgApsLinkKeyType == ZG_GLOBAL_LINK_KEY )
        MOV     DPTR,#zgApsLinkKeyType
        MOVX    A,@DPTR
        XRL     A,#0x1
        JNZ     ??ZDApp_LeaveUpdate_2
// 1963           {
// 1964             req.apsSecure = FALSE;
        MOV     A,#0x7
        LCALL   ?XSTACK_DISP0_8
        CLR     A
        LCALL   ?Subroutine10 & 0xFFFF
// 1965 
// 1966             // send and APSME_UPDATE_DEVICE request to the trust center
// 1967             APSME_UpdateDeviceReq( &req );
// 1968           }
??CrossCallReturnLabel_1:
        LCALL   ??APSME_UpdateDeviceReq?relay
// 1969 
// 1970           // send the message APS encrypted
// 1971           req.apsSecure = TRUE;
??ZDApp_LeaveUpdate_2:
        MOV     A,#0x7
        LCALL   ?XSTACK_DISP0_8
        MOV     A,#0x1
        LCALL   ?Subroutine10 & 0xFFFF
// 1972 
// 1973           // send and APSME_UPDATE_DEVICE request to the trust center
// 1974           APSME_UpdateDeviceReq( &req );
// 1975         }
// 1976         else
// 1977         {
// 1978           req.apsSecure = FALSE;
// 1979 
// 1980           // send and APSME_UPDATE_DEVICE request to the trust center
// 1981           APSME_UpdateDeviceReq( &req );
// 1982         }
// 1983     }
??CrossCallReturnLabel_2:
        LCALL   ??APSME_UpdateDeviceReq?relay
// 1984 
// 1985     NLME_RemoveChild( extAddr, removeChildren );
??ZDApp_LeaveUpdate_1:
        ; Setup parameters for call to function NLME_RemoveChild
        MOV     R1,?V0 + 2
        MOV     A,R6
        MOV     R2,A
        MOV     A,R7
        MOV     R3,A
        LCALL   ??NLME_RemoveChild?relay
// 1986   }
// 1987 
// 1988   // Remove Routing table related entry
// 1989   RTG_RemoveRtgEntry( nwkAddr, 0 );
        ; Setup parameters for call to function RTG_RemoveRtgEntry
        MOV     R1,#0x0
        MOV     R2,?V0 + 0
        MOV     R3,?V0 + 1
        LCALL   ??RTG_RemoveRtgEntry?relay
// 1990 
// 1991   // Remove entry from neighborTable
// 1992   nwkNeighborRemove( nwkAddr, _NIB.nwkPanId );
        ; Setup parameters for call to function nwkNeighborRemove
        MOV     DPTR,#_NIB + 33
        MOVX    A,@DPTR
        MOV     R4,A
        INC     DPTR
        MOVX    A,@DPTR
        MOV     R5,A
        MOV     R2,?V0 + 0
        MOV     R3,?V0 + 1
        LCALL   ??nwkNeighborRemove?relay
// 1993 
// 1994   // Schedule to save data to NV
// 1995   ZDApp_NwkWriteNVRequest();
        ; Setup parameters for call to function AddrMgrWriteNVRequest
        LCALL   ??AddrMgrWriteNVRequest?relay
// 1996 }
        MOV     A,#0x11
          CFI EndBlock cfiBlock66
        REQUIRE ?Subroutine6
        ; // Fall through to label ?Subroutine6

        RSEG BANKED_CODE:CODE:NOROOT(0)
?Subroutine6:
          CFI Block cfiBlock67 Using cfiCommon0
          CFI NoFunction
          CFI CFA_SP SP+0
          CFI CFA_XSP16 add(XSP16, 32)
          CFI VB load(1, XDATA, add(CFA_XSP16, literal(-14)))
          CFI DPL0 load(1, XDATA, add(CFA_XSP16, literal(-2)))
          CFI DPH0 load(1, XDATA, add(CFA_XSP16, literal(-1)))
          CFI R6 load(1, XDATA, add(CFA_XSP16, literal(-15)))
          CFI R7 load(1, XDATA, add(CFA_XSP16, literal(-6)))
          CFI V0 load(1, XDATA, add(CFA_XSP16, literal(-13)))
          CFI V1 load(1, XDATA, add(CFA_XSP16, literal(-12)))
          CFI V2 load(1, XDATA, add(CFA_XSP16, literal(-11)))
          CFI V3 load(1, XDATA, add(CFA_XSP16, literal(-10)))
          CFI V4 load(1, XDATA, add(CFA_XSP16, literal(-9)))
          CFI V5 load(1, XDATA, add(CFA_XSP16, literal(-8)))
          CFI V6 load(1, XDATA, add(CFA_XSP16, literal(-7)))
          CFI ?BRET_EXT load(1, XDATA, add(CFA_XSP16, literal(-3)))
          CFI ?RET_HIGH load(1, XDATA, add(CFA_XSP16, literal(-4)))
          CFI ?RET_LOW load(1, XDATA, add(CFA_XSP16, literal(-5)))
          CFI Invalid
        LCALL   ?DEALLOC_XSTACK8
          CFI CFA_XSP16 add(XSP16, 15)
          CFI Valid
        MOV     R7,#0x7
        LJMP    ?BANKED_LEAVE_XDATA
          CFI EndBlock cfiBlock67

        RSEG BANKED_CODE:CODE:NOROOT(0)
?Subroutine10:
          CFI Block cfiCond68 Using cfiCommon0
          CFI Function ZDApp_ProcessNetworkJoin
          CFI Conditional ??CrossCallReturnLabel_0
          CFI R6 load(1, XDATA, add(CFA_XSP16, literal(-10)))
          CFI VB load(1, XDATA, add(CFA_XSP16, literal(-9)))
          CFI V0 load(1, XDATA, add(CFA_XSP16, literal(-8)))
          CFI V1 load(1, XDATA, add(CFA_XSP16, literal(-7)))
          CFI R7 load(1, XDATA, add(CFA_XSP16, literal(-6)))
          CFI ?RET_LOW load(1, XDATA, add(CFA_XSP16, literal(-5)))
          CFI ?RET_HIGH load(1, XDATA, add(CFA_XSP16, literal(-4)))
          CFI ?BRET_EXT load(1, XDATA, add(CFA_XSP16, literal(-3)))
          CFI DPL0 load(1, XDATA, add(CFA_XSP16, literal(-2)))
          CFI DPH0 load(1, XDATA, add(CFA_XSP16, literal(-1)))
          CFI CFA_SP SP+0
          CFI CFA_XSP16 add(XSP16, 12)
          CFI Block cfiCond69 Using cfiCommon0
          CFI (cfiCond69) Function ZDApp_LeaveUpdate
          CFI (cfiCond69) Conditional ??CrossCallReturnLabel_1
          CFI (cfiCond69) R6 load(1, XDATA, add(CFA_XSP16, literal(-15)))
          CFI (cfiCond69) VB load(1, XDATA, add(CFA_XSP16, literal(-14)))
          CFI (cfiCond69) V0 load(1, XDATA, add(CFA_XSP16, literal(-13)))
          CFI (cfiCond69) V1 load(1, XDATA, add(CFA_XSP16, literal(-12)))
          CFI (cfiCond69) V2 load(1, XDATA, add(CFA_XSP16, literal(-11)))
          CFI (cfiCond69) V3 load(1, XDATA, add(CFA_XSP16, literal(-10)))
          CFI (cfiCond69) V4 load(1, XDATA, add(CFA_XSP16, literal(-9)))
          CFI (cfiCond69) V5 load(1, XDATA, add(CFA_XSP16, literal(-8)))
          CFI (cfiCond69) V6 load(1, XDATA, add(CFA_XSP16, literal(-7)))
          CFI (cfiCond69) R7 load(1, XDATA, add(CFA_XSP16, literal(-6)))
          CFI (cfiCond69) ?RET_LOW load(1, XDATA, add(CFA_XSP16, literal(-5)))
          CFI (cfiCond69) ?RET_HIGH load(1, XDATA, add(CFA_XSP16, literal(-4)))
          CFI (cfiCond69) ?BRET_EXT load(1, XDATA, add(CFA_XSP16, literal(-3)))
          CFI (cfiCond69) DPL0 load(1, XDATA, add(CFA_XSP16, literal(-2)))
          CFI (cfiCond69) DPH0 load(1, XDATA, add(CFA_XSP16, literal(-1)))
          CFI (cfiCond69) CFA_SP SP+0
          CFI (cfiCond69) CFA_XSP16 add(XSP16, 32)
          CFI Block cfiCond70 Using cfiCommon0
          CFI (cfiCond70) Function ZDApp_LeaveUpdate
          CFI (cfiCond70) Conditional ??CrossCallReturnLabel_2
          CFI (cfiCond70) R6 load(1, XDATA, add(CFA_XSP16, literal(-15)))
          CFI (cfiCond70) VB load(1, XDATA, add(CFA_XSP16, literal(-14)))
          CFI (cfiCond70) V0 load(1, XDATA, add(CFA_XSP16, literal(-13)))
          CFI (cfiCond70) V1 load(1, XDATA, add(CFA_XSP16, literal(-12)))
          CFI (cfiCond70) V2 load(1, XDATA, add(CFA_XSP16, literal(-11)))
          CFI (cfiCond70) V3 load(1, XDATA, add(CFA_XSP16, literal(-10)))
          CFI (cfiCond70) V4 load(1, XDATA, add(CFA_XSP16, literal(-9)))
          CFI (cfiCond70) V5 load(1, XDATA, add(CFA_XSP16, literal(-8)))
          CFI (cfiCond70) V6 load(1, XDATA, add(CFA_XSP16, literal(-7)))
          CFI (cfiCond70) R7 load(1, XDATA, add(CFA_XSP16, literal(-6)))
          CFI (cfiCond70) ?RET_LOW load(1, XDATA, add(CFA_XSP16, literal(-5)))
          CFI (cfiCond70) ?RET_HIGH load(1, XDATA, add(CFA_XSP16, literal(-4)))
          CFI (cfiCond70) ?BRET_EXT load(1, XDATA, add(CFA_XSP16, literal(-3)))
          CFI (cfiCond70) DPL0 load(1, XDATA, add(CFA_XSP16, literal(-2)))
          CFI (cfiCond70) DPH0 load(1, XDATA, add(CFA_XSP16, literal(-1)))
          CFI (cfiCond70) CFA_SP SP+0
          CFI (cfiCond70) CFA_XSP16 add(XSP16, 32)
          CFI Block cfiCond71 Using cfiCommon0
          CFI (cfiCond71) Function ZDO_JoinConfirmCB
          CFI (cfiCond71) Conditional ??CrossCallReturnLabel_3
          CFI (cfiCond71) R6 load(1, XDATA, add(CFA_XSP16, literal(-9)))
          CFI (cfiCond71) VB load(1, XDATA, add(CFA_XSP16, literal(-8)))
          CFI (cfiCond71) V0 load(1, XDATA, add(CFA_XSP16, literal(-7)))
          CFI (cfiCond71) R7 load(1, XDATA, add(CFA_XSP16, literal(-6)))
          CFI (cfiCond71) ?RET_LOW load(1, XDATA, add(CFA_XSP16, literal(-5)))
          CFI (cfiCond71) ?RET_HIGH load(1, XDATA, add(CFA_XSP16, literal(-4)))
          CFI (cfiCond71) ?BRET_EXT load(1, XDATA, add(CFA_XSP16, literal(-3)))
          CFI (cfiCond71) DPL0 load(1, XDATA, add(CFA_XSP16, literal(-2)))
          CFI (cfiCond71) DPH0 load(1, XDATA, add(CFA_XSP16, literal(-1)))
          CFI (cfiCond71) CFA_SP SP+0
          CFI (cfiCond71) CFA_XSP16 add(XSP16, 14)
          CFI Block cfiPicker72 Using cfiCommon1
          CFI (cfiPicker72) NoFunction
          CFI (cfiPicker72) Picker
        MOVX    @DPTR,A
        ; Setup parameters for call to function ZMacSetReq
        ; Setup parameters for call to function APSME_UpdateDeviceReq
        ; Setup parameters for call to function APSME_UpdateDeviceReq
        ; Setup parameters for indirect call
        MOV     DPL,?XSP + 0
        MOV     DPH,?XSP + 1
        MOV     R2,DPL
        MOV     R3,DPH
        RET
          CFI EndBlock cfiCond68
          CFI EndBlock cfiCond69
          CFI EndBlock cfiCond70
          CFI EndBlock cfiCond71
          CFI EndBlock cfiPicker72
// 1997 
// 1998 /*********************************************************************
// 1999  * @fn      ZDApp_NetworkDiscoveryReq
// 2000  *
// 2001  * @brief   Request a network discovery.
// 2002  *
// 2003  * @param  scanChannels -
// 2004  * @param  scanDuration -
// 2005  *
// 2006  * @return  ZStatus_t
// 2007  */

        RSEG BANKED_CODE:CODE:NOROOT(0)
// 2008 ZStatus_t ZDApp_NetworkDiscoveryReq( uint32 scanChannels, uint8 scanDuration)
ZDApp_NetworkDiscoveryReq:
          CFI Block cfiBlock73 Using cfiCommon0
          CFI Function ZDApp_NetworkDiscoveryReq
        CODE
// 2009 {
        FUNCALL ZDApp_NetworkDiscoveryReq, NLME_NetworkDiscoveryRequest
        LOCFRAME ISTACK, 0, STACK
        LOCFRAME PSTACK, 0, STACK
        LOCFRAME XSTACK, 12, STACK
        LOCFRAME IOVERLAY, 0, STATIC
        LOCFRAME DOVERLAY, 0, STATIC
        ARGFRAME ISTACK, 0, STACK
        ARGFRAME PSTACK, 0, STACK
        ARGFRAME XSTACK, 12, STACK
        ARGFRAME IOVERLAY, 0, STATIC
        ARGFRAME DOVERLAY, 0, STATIC
        MOV     A,#-0xc
        LCALL   ?BANKED_ENTER_XDATA
          CFI DPH0 load(1, XDATA, add(CFA_XSP16, literal(-1)))
          CFI DPL0 load(1, XDATA, add(CFA_XSP16, literal(-2)))
          CFI ?BRET_EXT load(1, XDATA, add(CFA_XSP16, literal(-3)))
          CFI ?RET_HIGH load(1, XDATA, add(CFA_XSP16, literal(-4)))
          CFI ?RET_LOW load(1, XDATA, add(CFA_XSP16, literal(-5)))
          CFI R7 load(1, XDATA, add(CFA_XSP16, literal(-6)))
          CFI V3 load(1, XDATA, add(CFA_XSP16, literal(-7)))
          CFI V2 load(1, XDATA, add(CFA_XSP16, literal(-8)))
          CFI V1 load(1, XDATA, add(CFA_XSP16, literal(-9)))
          CFI V0 load(1, XDATA, add(CFA_XSP16, literal(-10)))
          CFI VB load(1, XDATA, add(CFA_XSP16, literal(-11)))
          CFI R6 load(1, XDATA, add(CFA_XSP16, literal(-12)))
          CFI CFA_SP SP+0
          CFI CFA_XSP16 add(XSP16, 12)
        ; Saved register size: 12
        ; Auto size: 0
// 2010   // Setup optional filters - tbd
// 2011 
// 2012   // Request NLME network discovery
// 2013   return NLME_NetworkDiscoveryRequest(scanChannels, scanDuration);
        ; Setup parameters for call to function NLME_NetworkDiscoveryRequest
        LCALL   ??NLME_NetworkDiscoveryRequest?relay
        LJMP    ??Subroutine51_0 & 0xFFFF
          CFI EndBlock cfiBlock73
// 2014 }
// 2015 
// 2016 /*********************************************************************
// 2017  * @fn      ZDApp_JoinReq
// 2018  *
// 2019  * @brief   Request the device to join a parent in a network.
// 2020  *
// 2021  * @param   channel -
// 2022  * @param   panID -
// 2023  *
// 2024  * @return  ZStatus_t
// 2025  */

        RSEG BANKED_CODE:CODE:NOROOT(0)
// 2026 ZStatus_t ZDApp_JoinReq( uint8 channel, uint16 panID, uint8 *extendedPanID,
ZDApp_JoinReq:
          CFI Block cfiBlock74 Using cfiCommon0
          CFI Function ZDApp_JoinReq
        CODE
// 2027                          uint16 chosenParent, uint8 parentDepth, uint8 stackProfile )
// 2028 {
        FUNCALL ZDApp_JoinReq, ZDApp_NodeProfileSync
        LOCFRAME ISTACK, 0, STACK
        LOCFRAME PSTACK, 0, STACK
        LOCFRAME XSTACK, 14, STACK
        LOCFRAME IOVERLAY, 0, STATIC
        LOCFRAME DOVERLAY, 0, STATIC
        ARGFRAME ISTACK, 0, STACK
        ARGFRAME PSTACK, 0, STACK
        ARGFRAME XSTACK, 14, STACK
        ARGFRAME IOVERLAY, 0, STATIC
        ARGFRAME DOVERLAY, 0, STATIC
        FUNCALL ZDApp_JoinReq, NLME_JoinRequest
        LOCFRAME ISTACK, 0, STACK
        LOCFRAME PSTACK, 0, STACK
        LOCFRAME XSTACK, 18, STACK
        LOCFRAME IOVERLAY, 0, STATIC
        LOCFRAME DOVERLAY, 0, STATIC
        ARGFRAME ISTACK, 0, STACK
        ARGFRAME PSTACK, 0, STACK
        ARGFRAME XSTACK, 18, STACK
        ARGFRAME IOVERLAY, 0, STATIC
        ARGFRAME DOVERLAY, 0, STATIC
        MOV     A,#-0xe
        LCALL   ?BANKED_ENTER_XDATA
          CFI DPH0 load(1, XDATA, add(CFA_XSP16, literal(-1)))
          CFI DPL0 load(1, XDATA, add(CFA_XSP16, literal(-2)))
          CFI ?BRET_EXT load(1, XDATA, add(CFA_XSP16, literal(-3)))
          CFI ?RET_HIGH load(1, XDATA, add(CFA_XSP16, literal(-4)))
          CFI ?RET_LOW load(1, XDATA, add(CFA_XSP16, literal(-5)))
          CFI R7 load(1, XDATA, add(CFA_XSP16, literal(-6)))
          CFI V5 load(1, XDATA, add(CFA_XSP16, literal(-7)))
          CFI V4 load(1, XDATA, add(CFA_XSP16, literal(-8)))
          CFI V3 load(1, XDATA, add(CFA_XSP16, literal(-9)))
          CFI V2 load(1, XDATA, add(CFA_XSP16, literal(-10)))
          CFI V1 load(1, XDATA, add(CFA_XSP16, literal(-11)))
          CFI V0 load(1, XDATA, add(CFA_XSP16, literal(-12)))
          CFI VB load(1, XDATA, add(CFA_XSP16, literal(-13)))
          CFI R6 load(1, XDATA, add(CFA_XSP16, literal(-14)))
          CFI CFA_SP SP+0
          CFI CFA_XSP16 add(XSP16, 14)
        ; Saved register size: 14
        ; Auto size: 0
        MOV     ?V0 + 4,R1
        MOV     ?V0 + 0,R2
        MOV     ?V0 + 1,R3
        MOV     A,R4
        MOV     R6,A
        MOV     A,R5
        MOV     R7,A
        MOV     A,#0xe
        LCALL   ?XSTACK_DISP0_8
        LCALL   ?Subroutine23 & 0xFFFF
??CrossCallReturnLabel_17:
        MOV     A,#0x10
        LCALL   ?XSTACK_DISP0_8
        MOVX    A,@DPTR
        MOV     ?V0 + 5,A
        MOV     A,#0x11
        LCALL   ?XSTACK_DISP0_8
        MOVX    A,@DPTR
        MOV     R1,A
// 2029   // Sync up the node with the stack profile (In the case where a pro device
// 2030   // joins a non-pro network, or verse versa)
// 2031   ZDApp_NodeProfileSync( stackProfile);
        ; Setup parameters for call to function ZDApp_NodeProfileSync
        LCALL   ??ZDApp_NodeProfileSync?relay
// 2032 
// 2033   // Request NLME Join Request
// 2034   return NLME_JoinRequest(extendedPanID, panID,channel,
// 2035                           ZDO_Config_Node_Descriptor.CapabilityFlags,
// 2036                           chosenParent, parentDepth);
        ; Setup parameters for call to function NLME_JoinRequest
        MOV     R0,#?V0 + 5
        LCALL   ?PUSH_XSTACK_I_ONE
          CFI CFA_XSP16 add(XSP16, 15)
        MOV     R0,#?V0 + 2
        LCALL   ?PUSH_XSTACK_I_TWO
          CFI CFA_XSP16 add(XSP16, 17)
        MOV     DPTR,#ZDO_Config_Node_Descriptor + 2
        MOVX    A,@DPTR
        MOV     ?V0 + 2,A
        MOV     R0,#?V0 + 2
        LCALL   ?PUSH_XSTACK_I_ONE
          CFI CFA_XSP16 add(XSP16, 18)
        MOV     R1,?V0 + 4
        MOV     R4,?V0 + 0
        MOV     R5,?V0 + 1
        MOV     A,R6
        MOV     R2,A
        MOV     A,R7
        MOV     R3,A
        LCALL   ??NLME_JoinRequest?relay
        MOV     A,#0x4
        LJMP    ?Subroutine1 & 0xFFFF
          CFI EndBlock cfiBlock74
// 2037 
// 2038 }

        RSEG BANKED_CODE:CODE:NOROOT(0)
?Subroutine23:
          CFI Block cfiCond75 Using cfiCommon0
          CFI Function ZDApp_ProcessMsgCBs
          CFI Conditional ??CrossCallReturnLabel_16
          CFI R6 load(1, XDATA, add(CFA_XSP16, literal(-14)))
          CFI VB load(1, XDATA, add(CFA_XSP16, literal(-13)))
          CFI V0 load(1, XDATA, add(CFA_XSP16, literal(-12)))
          CFI V1 load(1, XDATA, add(CFA_XSP16, literal(-11)))
          CFI V2 load(1, XDATA, add(CFA_XSP16, literal(-10)))
          CFI V3 load(1, XDATA, add(CFA_XSP16, literal(-9)))
          CFI V4 load(1, XDATA, add(CFA_XSP16, literal(-8)))
          CFI V5 load(1, XDATA, add(CFA_XSP16, literal(-7)))
          CFI R7 load(1, XDATA, add(CFA_XSP16, literal(-6)))
          CFI ?RET_LOW load(1, XDATA, add(CFA_XSP16, literal(-5)))
          CFI ?RET_HIGH load(1, XDATA, add(CFA_XSP16, literal(-4)))
          CFI ?BRET_EXT load(1, XDATA, add(CFA_XSP16, literal(-3)))
          CFI DPL0 load(1, XDATA, add(CFA_XSP16, literal(-2)))
          CFI DPH0 load(1, XDATA, add(CFA_XSP16, literal(-1)))
          CFI CFA_SP SP+0
          CFI CFA_XSP16 add(XSP16, 35)
          CFI Block cfiCond76 Using cfiCommon0
          CFI (cfiCond76) Function ZDApp_JoinReq
          CFI (cfiCond76) Conditional ??CrossCallReturnLabel_17
          CFI (cfiCond76) R6 load(1, XDATA, add(CFA_XSP16, literal(-14)))
          CFI (cfiCond76) VB load(1, XDATA, add(CFA_XSP16, literal(-13)))
          CFI (cfiCond76) V0 load(1, XDATA, add(CFA_XSP16, literal(-12)))
          CFI (cfiCond76) V1 load(1, XDATA, add(CFA_XSP16, literal(-11)))
          CFI (cfiCond76) V2 load(1, XDATA, add(CFA_XSP16, literal(-10)))
          CFI (cfiCond76) V3 load(1, XDATA, add(CFA_XSP16, literal(-9)))
          CFI (cfiCond76) V4 load(1, XDATA, add(CFA_XSP16, literal(-8)))
          CFI (cfiCond76) V5 load(1, XDATA, add(CFA_XSP16, literal(-7)))
          CFI (cfiCond76) R7 load(1, XDATA, add(CFA_XSP16, literal(-6)))
          CFI (cfiCond76) ?RET_LOW load(1, XDATA, add(CFA_XSP16, literal(-5)))
          CFI (cfiCond76) ?RET_HIGH load(1, XDATA, add(CFA_XSP16, literal(-4)))
          CFI (cfiCond76) ?BRET_EXT load(1, XDATA, add(CFA_XSP16, literal(-3)))
          CFI (cfiCond76) DPL0 load(1, XDATA, add(CFA_XSP16, literal(-2)))
          CFI (cfiCond76) DPH0 load(1, XDATA, add(CFA_XSP16, literal(-1)))
          CFI (cfiCond76) CFA_SP SP+0
          CFI (cfiCond76) CFA_XSP16 add(XSP16, 14)
          CFI Block cfiCond77 Using cfiCommon0
          CFI (cfiCond77) Function ZDO_beaconNotifyIndCB
          CFI (cfiCond77) Conditional ??CrossCallReturnLabel_18
          CFI (cfiCond77) R6 load(1, XDATA, add(CFA_XSP16, literal(-18)))
          CFI (cfiCond77) VB load(1, XDATA, add(CFA_XSP16, literal(-17)))
          CFI (cfiCond77) V0 load(1, XDATA, add(CFA_XSP16, literal(-16)))
          CFI (cfiCond77) V1 load(1, XDATA, add(CFA_XSP16, literal(-15)))
          CFI (cfiCond77) V2 load(1, XDATA, add(CFA_XSP16, literal(-14)))
          CFI (cfiCond77) V3 load(1, XDATA, add(CFA_XSP16, literal(-13)))
          CFI (cfiCond77) V4 load(1, XDATA, add(CFA_XSP16, literal(-12)))
          CFI (cfiCond77) V5 load(1, XDATA, add(CFA_XSP16, literal(-11)))
          CFI (cfiCond77) V6 load(1, XDATA, add(CFA_XSP16, literal(-10)))
          CFI (cfiCond77) V7 load(1, XDATA, add(CFA_XSP16, literal(-9)))
          CFI (cfiCond77) V8 load(1, XDATA, add(CFA_XSP16, literal(-8)))
          CFI (cfiCond77) V9 load(1, XDATA, add(CFA_XSP16, literal(-7)))
          CFI (cfiCond77) R7 load(1, XDATA, add(CFA_XSP16, literal(-6)))
          CFI (cfiCond77) ?RET_LOW load(1, XDATA, add(CFA_XSP16, literal(-5)))
          CFI (cfiCond77) ?RET_HIGH load(1, XDATA, add(CFA_XSP16, literal(-4)))
          CFI (cfiCond77) ?BRET_EXT load(1, XDATA, add(CFA_XSP16, literal(-3)))
          CFI (cfiCond77) DPL0 load(1, XDATA, add(CFA_XSP16, literal(-2)))
          CFI (cfiCond77) DPH0 load(1, XDATA, add(CFA_XSP16, literal(-1)))
          CFI (cfiCond77) CFA_SP SP+0
          CFI (cfiCond77) CFA_XSP16 add(XSP16, 18)
          CFI Block cfiPicker78 Using cfiCommon1
          CFI (cfiPicker78) NoFunction
          CFI (cfiPicker78) Picker
        MOVX    A,@DPTR
        MOV     ?V0 + 2,A
        INC     DPTR
        MOVX    A,@DPTR
        MOV     ?V0 + 3,A
        RET
          CFI EndBlock cfiCond75
          CFI EndBlock cfiCond76
          CFI EndBlock cfiCond77
          CFI EndBlock cfiPicker78
// 2039 
// 2040 /*********************************************************************
// 2041  * @fn      ZDApp_DeviceConfigured
// 2042  *
// 2043  * @brief   Check to see if the local device is configured (i.e., part
// 2044  *          of a network).
// 2045  *
// 2046  * @param   none
// 2047  *
// 2048  * @return  TRUE if configured. FALSE, otherwise.
// 2049  */

        RSEG BANKED_CODE:CODE:NOROOT(0)
// 2050 uint8 ZDApp_DeviceConfigured( void )
ZDApp_DeviceConfigured:
          CFI Block cfiBlock79 Using cfiCommon0
          CFI Function ZDApp_DeviceConfigured
        CODE
// 2051 {
        FUNCALL ZDApp_DeviceConfigured, osal_nv_read
        LOCFRAME ISTACK, 0, STACK
        LOCFRAME PSTACK, 0, STACK
        LOCFRAME XSTACK, 16, STACK
        LOCFRAME IOVERLAY, 0, STATIC
        LOCFRAME DOVERLAY, 0, STATIC
        ARGFRAME ISTACK, 0, STACK
        ARGFRAME PSTACK, 0, STACK
        ARGFRAME XSTACK, 16, STACK
        ARGFRAME IOVERLAY, 0, STATIC
        ARGFRAME DOVERLAY, 0, STATIC
        MOV     A,#-0xa
        LCALL   ?BANKED_ENTER_XDATA
          CFI DPH0 load(1, XDATA, add(CFA_XSP16, literal(-1)))
          CFI DPL0 load(1, XDATA, add(CFA_XSP16, literal(-2)))
          CFI ?BRET_EXT load(1, XDATA, add(CFA_XSP16, literal(-3)))
          CFI ?RET_HIGH load(1, XDATA, add(CFA_XSP16, literal(-4)))
          CFI ?RET_LOW load(1, XDATA, add(CFA_XSP16, literal(-5)))
          CFI R7 load(1, XDATA, add(CFA_XSP16, literal(-6)))
          CFI V1 load(1, XDATA, add(CFA_XSP16, literal(-7)))
          CFI V0 load(1, XDATA, add(CFA_XSP16, literal(-8)))
          CFI VB load(1, XDATA, add(CFA_XSP16, literal(-9)))
          CFI R6 load(1, XDATA, add(CFA_XSP16, literal(-10)))
          CFI CFA_SP SP+0
          CFI CFA_XSP16 add(XSP16, 10)
        ; Saved register size: 10
        ; Auto size: 2
        MOV     A,#-0x2
        LCALL   ?ALLOC_XSTACK8
          CFI CFA_XSP16 add(XSP16, 12)
// 2052   uint16 nwkAddr = INVALID_NODE_ADDR;
        MOV     DPL,?XSP + 0
        MOV     DPH,?XSP + 1
        MOV     A,#-0x2
        MOVX    @DPTR,A
        INC     DPTR
        INC     A
        MOVX    @DPTR,A
// 2053 
// 2054   osal_nv_read( ZCD_NV_NIB, osal_offsetof( nwkIB_t, nwkDevAddress ),
// 2055                 sizeof( uint16), &nwkAddr );
        ; Setup parameters for call to function osal_nv_read
        MOV     DPL,?XSP + 0
        MOV     DPH,?XSP + 1
        MOV     ?V0 + 0,DPL
        MOV     ?V0 + 1,DPH
        MOV     R0,#?V0 + 0
        LCALL   ?PUSH_XSTACK_I_TWO
          CFI CFA_XSP16 add(XSP16, 14)
        MOV     ?V0 + 0,#0x2
        MOV     ?V0 + 1,#0x0
        MOV     R0,#?V0 + 0
        LCALL   ?PUSH_XSTACK_I_TWO
          CFI CFA_XSP16 add(XSP16, 16)
        MOV     R4,#0x14
        MOV     R5,#0x0
        MOV     R2,#0x21
        MOV     R3,#0x0
        LCALL   ??osal_nv_read?relay
        MOV     A,#0x4
        LCALL   ?DEALLOC_XSTACK8
          CFI CFA_XSP16 add(XSP16, 12)
// 2056 
// 2057   // Does the NIB have anything more than default?
// 2058   return ( nwkAddr == INVALID_NODE_ADDR ? FALSE : TRUE );
        MOV     DPL,?XSP + 0
        MOV     DPH,?XSP + 1
        MOVX    A,@DPTR
        XRL     A,#0xfe
        JNZ     ??ZDApp_DeviceConfigured_0
        INC     DPTR
        MOVX    A,@DPTR
        CPL     A
??ZDApp_DeviceConfigured_0:
        JNZ     ??ZDApp_DeviceConfigured_1
        MOV     R1,#0x0
        SJMP    ??ZDApp_DeviceConfigured_2
??ZDApp_DeviceConfigured_1:
        MOV     R1,#0x1
??ZDApp_DeviceConfigured_2:
        LJMP    ?Subroutine8 & 0xFFFF
          CFI EndBlock cfiBlock79
// 2059 }
// 2060 
// 2061 /*********************************************************************
// 2062  * CALLBACK FUNCTIONS
// 2063  */
// 2064 
// 2065 
// 2066 /*********************************************************************
// 2067  * @fn      ZDApp_SendEventMsg()
// 2068  *
// 2069  * @brief
// 2070  *
// 2071  *   Sends a Network Join message
// 2072  *
// 2073  * @param  cmd - command ID
// 2074  * @param  len - length (in bytes) of the buf field
// 2075  * @param  buf - buffer for the rest of the message.
// 2076  *
// 2077  * @return  none
// 2078  */

        RSEG BANKED_CODE:CODE:NOROOT(0)
// 2079 void ZDApp_SendEventMsg( uint8 cmd, uint8 len, uint8 *buf )
ZDApp_SendEventMsg:
          CFI Block cfiBlock80 Using cfiCommon0
          CFI Function ZDApp_SendEventMsg
        CODE
// 2080 {
        FUNCALL ZDApp_SendEventMsg, ZDApp_SendMsg
        LOCFRAME ISTACK, 0, STACK
        LOCFRAME PSTACK, 0, STACK
        LOCFRAME XSTACK, 9, STACK
        LOCFRAME IOVERLAY, 0, STATIC
        LOCFRAME DOVERLAY, 0, STATIC
        ARGFRAME ISTACK, 0, STACK
        ARGFRAME PSTACK, 0, STACK
        ARGFRAME XSTACK, 9, STACK
        ARGFRAME IOVERLAY, 0, STATIC
        ARGFRAME DOVERLAY, 0, STATIC
        MOV     A,#-0x9
        LCALL   ?BANKED_ENTER_XDATA
          CFI DPH0 load(1, XDATA, add(CFA_XSP16, literal(-1)))
          CFI DPL0 load(1, XDATA, add(CFA_XSP16, literal(-2)))
          CFI ?BRET_EXT load(1, XDATA, add(CFA_XSP16, literal(-3)))
          CFI ?RET_HIGH load(1, XDATA, add(CFA_XSP16, literal(-4)))
          CFI ?RET_LOW load(1, XDATA, add(CFA_XSP16, literal(-5)))
          CFI R7 load(1, XDATA, add(CFA_XSP16, literal(-6)))
          CFI V0 load(1, XDATA, add(CFA_XSP16, literal(-7)))
          CFI VB load(1, XDATA, add(CFA_XSP16, literal(-8)))
          CFI R6 load(1, XDATA, add(CFA_XSP16, literal(-9)))
          CFI CFA_SP SP+0
          CFI CFA_XSP16 add(XSP16, 9)
        ; Saved register size: 9
        ; Auto size: 0
        MOV     A,R1
        MOV     R6,A
        MOV     A,R2
// 2081   ZDApp_SendMsg( ZDAppTaskID, cmd, len, buf );
        ; Setup parameters for call to function ZDApp_SendMsg
        MOV     R3,A
        MOV     A,R6
        MOV     R2,A
        MOV     DPTR,#ZDAppTaskID
        MOVX    A,@DPTR
        MOV     R1,A
        LCALL   ??ZDApp_SendMsg?relay
// 2082 }
        LJMP    ??Subroutine44_0 & 0xFFFF
          CFI EndBlock cfiBlock80
// 2083 
// 2084 /*********************************************************************
// 2085  * @fn      ZDApp_SendMsg()
// 2086  *
// 2087  * @brief   Sends a OSAL message
// 2088  *
// 2089  * @param  taskID - Where to send the message
// 2090  * @param  cmd - command ID
// 2091  * @param  len - length (in bytes) of the buf field
// 2092  * @param  buf - buffer for the rest of the message.
// 2093  *
// 2094  * @return  none
// 2095  */

        RSEG BANKED_CODE:CODE:NOROOT(0)
// 2096 void ZDApp_SendMsg( uint8 taskID, uint8 cmd, uint8 len, uint8 *buf )
ZDApp_SendMsg:
          CFI Block cfiBlock81 Using cfiCommon0
          CFI Function ZDApp_SendMsg
        CODE
// 2097 {
        FUNCALL ZDApp_SendMsg, osal_msg_allocate
        LOCFRAME ISTACK, 0, STACK
        LOCFRAME PSTACK, 0, STACK
        LOCFRAME XSTACK, 19, STACK
        LOCFRAME IOVERLAY, 0, STATIC
        LOCFRAME DOVERLAY, 0, STATIC
        ARGFRAME ISTACK, 0, STACK
        ARGFRAME PSTACK, 0, STACK
        ARGFRAME XSTACK, 19, STACK
        ARGFRAME IOVERLAY, 0, STATIC
        ARGFRAME DOVERLAY, 0, STATIC
        FUNCALL ZDApp_SendMsg, osal_memcpy
        LOCFRAME ISTACK, 0, STACK
        LOCFRAME PSTACK, 0, STACK
        LOCFRAME XSTACK, 22, STACK
        LOCFRAME IOVERLAY, 0, STATIC
        LOCFRAME DOVERLAY, 0, STATIC
        ARGFRAME ISTACK, 0, STACK
        ARGFRAME PSTACK, 0, STACK
        ARGFRAME XSTACK, 22, STACK
        ARGFRAME IOVERLAY, 0, STATIC
        ARGFRAME DOVERLAY, 0, STATIC
        FUNCALL ZDApp_SendMsg, osal_msg_send
        LOCFRAME ISTACK, 0, STACK
        LOCFRAME PSTACK, 0, STACK
        LOCFRAME XSTACK, 19, STACK
        LOCFRAME IOVERLAY, 0, STATIC
        LOCFRAME DOVERLAY, 0, STATIC
        ARGFRAME ISTACK, 0, STACK
        ARGFRAME PSTACK, 0, STACK
        ARGFRAME XSTACK, 19, STACK
        ARGFRAME IOVERLAY, 0, STATIC
        ARGFRAME DOVERLAY, 0, STATIC
        MOV     A,#-0x13
        LCALL   ?BANKED_ENTER_XDATA
          CFI DPH0 load(1, XDATA, add(CFA_XSP16, literal(-1)))
          CFI DPL0 load(1, XDATA, add(CFA_XSP16, literal(-2)))
          CFI ?BRET_EXT load(1, XDATA, add(CFA_XSP16, literal(-3)))
          CFI ?RET_HIGH load(1, XDATA, add(CFA_XSP16, literal(-4)))
          CFI ?RET_LOW load(1, XDATA, add(CFA_XSP16, literal(-5)))
          CFI R7 load(1, XDATA, add(CFA_XSP16, literal(-6)))
          CFI V10 load(1, XDATA, add(CFA_XSP16, literal(-7)))
          CFI V9 load(1, XDATA, add(CFA_XSP16, literal(-8)))
          CFI V8 load(1, XDATA, add(CFA_XSP16, literal(-9)))
          CFI V7 load(1, XDATA, add(CFA_XSP16, literal(-10)))
          CFI V6 load(1, XDATA, add(CFA_XSP16, literal(-11)))
          CFI V5 load(1, XDATA, add(CFA_XSP16, literal(-12)))
          CFI V4 load(1, XDATA, add(CFA_XSP16, literal(-13)))
          CFI V3 load(1, XDATA, add(CFA_XSP16, literal(-14)))
          CFI V2 load(1, XDATA, add(CFA_XSP16, literal(-15)))
          CFI V1 load(1, XDATA, add(CFA_XSP16, literal(-16)))
          CFI V0 load(1, XDATA, add(CFA_XSP16, literal(-17)))
          CFI VB load(1, XDATA, add(CFA_XSP16, literal(-18)))
          CFI R6 load(1, XDATA, add(CFA_XSP16, literal(-19)))
          CFI CFA_SP SP+0
          CFI CFA_XSP16 add(XSP16, 19)
        ; Saved register size: 19
        ; Auto size: 0
        MOV     ?V0 + 4,R1
        MOV     ?V0 + 6,R2
        MOV     ?V0 + 5,R3
        MOV     ?V0 + 2,R4
        MOV     ?V0 + 3,R5
// 2098   osal_event_hdr_t *msgPtr;
// 2099 
// 2100   // Send the address to the task
// 2101   msgPtr = (osal_event_hdr_t *)osal_msg_allocate( len );
        MOV     DPL,R3
        MOV     ?V0 + 0,DPL
        MOV     ?V0 + 1,#0x0
        ; Setup parameters for call to function osal_msg_allocate
        MOV     R2,?V0 + 0
        MOV     R3,?V0 + 1
        LCALL   ??osal_msg_allocate?relay
        MOV     ?V0 + 8,R2
        MOV     ?V0 + 9,R3
        MOV     R6,?V0 + 8
        MOV     R7,?V0 + 9
// 2102   if ( msgPtr )
        MOV     A,R6
        ORL     A,R7
        JZ      ??ZDApp_SendMsg_0
// 2103   {
// 2104     if ( (len > 0) && (buf != NULL) )
        MOV     A,?V0 + 5
        JZ      ??ZDApp_SendMsg_1
        MOV     A,?V0 + 2
        ORL     A,?V0 + 3
        JZ      ??ZDApp_SendMsg_1
// 2105       osal_memcpy( msgPtr, buf, len );
        ; Setup parameters for call to function osal_memcpy
        MOV     ?V0 + 8,?V0 + 2
        MOV     ?V0 + 9,?V0 + 3
        MOV     ?V0 + 10,#0x0
        MOV     R0,#?V0 + 8
        LCALL   ?PUSH_XSTACK_I_THREE
          CFI CFA_XSP16 add(XSP16, 22)
        MOV     R4,?V0 + 0
        MOV     R5,?V0 + 1
        LCALL   ??osal_memcpy?relay
        MOV     A,#0x3
        LCALL   ?DEALLOC_XSTACK8
          CFI CFA_XSP16 add(XSP16, 19)
// 2106 
// 2107     msgPtr->event = cmd;
??ZDApp_SendMsg_1:
        MOV     DPL,R6
        MOV     DPH,R7
        MOV     A,?V0 + 6
        MOVX    @DPTR,A
// 2108     osal_msg_send( taskID, (uint8 *)msgPtr );
        ; Setup parameters for call to function osal_msg_send
        MOV     A,R6
        MOV     R2,A
        MOV     A,R7
        MOV     R3,A
        MOV     R1,?V0 + 4
        LCALL   ??osal_msg_send?relay
// 2109   }
// 2110 }
??ZDApp_SendMsg_0:
        MOV     R7,#0xb
        LJMP    ?BANKED_LEAVE_XDATA
          CFI EndBlock cfiBlock81
// 2111 
// 2112 /*********************************************************************
// 2113  * Call Back Functions from NWK  - API
// 2114  */
// 2115 
// 2116 /*********************************************************************
// 2117  * @fn          ZDO_NetworkDiscoveryConfirmCB
// 2118  *
// 2119  * @brief       This function returns a choice of PAN to join.
// 2120  *
// 2121  * @param       status - return status of the nwk discovery confirm
// 2122  *
// 2123  * @return      ZStatus_t
// 2124  */

        RSEG BANKED_CODE:CODE:NOROOT(0)
// 2125 ZStatus_t ZDO_NetworkDiscoveryConfirmCB(uint8 status)
ZDO_NetworkDiscoveryConfirmCB:
          CFI Block cfiBlock82 Using cfiCommon0
          CFI Function ZDO_NetworkDiscoveryConfirmCB
        CODE
// 2126 {
        FUNCALL ZDO_NetworkDiscoveryConfirmCB, ZDO_FinishProcessingMgmtNwkDiscReq
        LOCFRAME ISTACK, 2, STACK
        LOCFRAME PSTACK, 0, STACK
        LOCFRAME XSTACK, 3, STACK
        LOCFRAME IOVERLAY, 0, STATIC
        LOCFRAME DOVERLAY, 0, STATIC
        ARGFRAME ISTACK, 2, STACK
        ARGFRAME PSTACK, 0, STACK
        ARGFRAME XSTACK, 3, STACK
        ARGFRAME IOVERLAY, 0, STATIC
        ARGFRAME DOVERLAY, 0, STATIC
        FUNCALL ZDO_NetworkDiscoveryConfirmCB, ZDApp_SendMsg
        LOCFRAME ISTACK, 2, STACK
        LOCFRAME PSTACK, 0, STACK
        LOCFRAME XSTACK, 3, STACK
        LOCFRAME IOVERLAY, 0, STATIC
        LOCFRAME DOVERLAY, 0, STATIC
        ARGFRAME ISTACK, 2, STACK
        ARGFRAME PSTACK, 0, STACK
        ARGFRAME XSTACK, 3, STACK
        ARGFRAME IOVERLAY, 0, STATIC
        ARGFRAME DOVERLAY, 0, STATIC
        PUSH    DPL
          CFI DPL0 Frame(CFA_SP, 4)
          CFI CFA_SP SP+-4
        PUSH    DPH
          CFI DPH0 Frame(CFA_SP, 5)
          CFI CFA_SP SP+-5
        ; Saved register size: 2
        ; Auto size: 3
        MOV     A,#-0x3
        LCALL   ?ALLOC_XSTACK8
          CFI CFA_XSP16 add(XSP16, 3)
        MOV     A,R1
        MOV     DPL,?XSP + 0
        MOV     DPH,?XSP + 1
        MOVX    @DPTR,A
// 2127   osal_event_hdr_t msg;
// 2128 
// 2129   // If Scan is initiated by ZDO_MGMT_NWK_DISC_REQ
// 2130   // Send ZDO_MGMT_NWK_DISC_RSP back
// 2131 #if defined ( ZDO_MGMT_NWKDISC_RESPONSE )
// 2132   if ( zdappMgmtNwkDiscReqInProgress )
        MOV     DPTR,#zdappMgmtNwkDiscReqInProgress
        MOVX    A,@DPTR
        JZ      ??ZDO_NetworkDiscoveryConfirmCB_0
// 2133   {
// 2134     zdappMgmtNwkDiscReqInProgress = false;
        CLR     A
        MOVX    @DPTR,A
// 2135     ZDO_FinishProcessingMgmtNwkDiscReq();
        ; Setup parameters for call to function ZDO_FinishProcessingMgmtNwkDiscReq
        LCALL   ??ZDO_FinishProcessingMgmtNwkDiscReq?relay
        SJMP    ??ZDO_NetworkDiscoveryConfirmCB_1
// 2136   }
// 2137   else
// 2138 #endif
// 2139   {
// 2140     // Pass the confirm to another task if it registers the callback
// 2141     // Otherwise, pass the confirm to ZDApp.
// 2142     if (zdoCBFunc[ZDO_NWK_DISCOVERY_CNF_CBID] != NULL )
??ZDO_NetworkDiscoveryConfirmCB_0:
        MOV     DPTR,#zdoCBFunc + 4
        LCALL   ??Subroutine43_0 & 0xFFFF
??CrossCallReturnLabel_64:
        JZ      ??ZDO_NetworkDiscoveryConfirmCB_2
// 2143     {
// 2144       zdoCBFunc[ZDO_NWK_DISCOVERY_CNF_CBID]( (void*)&status );
        ; Setup parameters for indirect call
        MOV     DPL,?XSP + 0
        MOV     DPH,?XSP + 1
        MOV     R2,DPL
        MOV     R3,DPH
        MOV     DPL,R0
        MOV     DPH,R1
        LCALL   ?CALL_IND
        SJMP    ??ZDO_NetworkDiscoveryConfirmCB_1
// 2145     }
// 2146     else
// 2147     {
// 2148       // Otherwise, send scan confirm to ZDApp task to proceed
// 2149       msg.status = ZDO_SUCCESS;
??ZDO_NetworkDiscoveryConfirmCB_2:
        MOV     A,#0x2
        LCALL   ?XSTACK_DISP0_8
        CLR     A
        MOVX    @DPTR,A
// 2150       ZDApp_SendMsg( ZDAppTaskID, ZDO_NWK_DISC_CNF, sizeof(osal_event_hdr_t), (uint8 *)&msg );
        ; Setup parameters for call to function ZDApp_SendMsg
        INC     A
        LCALL   ?XSTACK_DISP0_8
        MOV     R4,DPL
        MOV     R5,DPH
        MOV     R3,#0x2
        MOV     R2,#0x1
        MOV     DPTR,#ZDAppTaskID
        MOVX    A,@DPTR
        MOV     R1,A
        LCALL   ??ZDApp_SendMsg?relay
// 2151     }
// 2152   }
// 2153   return (ZSuccess);
??ZDO_NetworkDiscoveryConfirmCB_1:
        MOV     R1,#0x0
        MOV     A,#0x3
        LJMP    ?Subroutine4 & 0xFFFF
          CFI EndBlock cfiBlock82
// 2154 }  // ZDO_NetworkDiscoveryConfirmCB
// 2155 
// 2156 /*********************************************************************
// 2157  * @fn          ZDApp_NwkDescListProcessing
// 2158  *
// 2159  * @brief       This function process the network discovery result and select
// 2160  *              a parent device to join itself.
// 2161  *
// 2162  * @param       none
// 2163  *
// 2164  * @return      ZStatus_t
// 2165  */
// 2166 #define STACK_PROFILE_MAX 2

        RSEG BANKED_CODE:CODE:NOROOT(0)
// 2167 networkDesc_t* ZDApp_NwkDescListProcessing(void)
ZDApp_NwkDescListProcessing:
          CFI Block cfiBlock83 Using cfiCommon0
          CFI Function ZDApp_NwkDescListProcessing
        CODE
// 2168 {
        FUNCALL ZDApp_NwkDescListProcessing, nwk_getNwkDescList
        LOCFRAME ISTACK, 0, STACK
        LOCFRAME PSTACK, 0, STACK
        LOCFRAME XSTACK, 14, STACK
        LOCFRAME IOVERLAY, 0, STATIC
        LOCFRAME DOVERLAY, 0, STATIC
        ARGFRAME ISTACK, 0, STACK
        ARGFRAME PSTACK, 0, STACK
        ARGFRAME XSTACK, 14, STACK
        ARGFRAME IOVERLAY, 0, STATIC
        ARGFRAME DOVERLAY, 0, STATIC
        FUNCALL ZDApp_NwkDescListProcessing, nwk_getNwkDescList
        LOCFRAME ISTACK, 0, STACK
        LOCFRAME PSTACK, 0, STACK
        LOCFRAME XSTACK, 14, STACK
        LOCFRAME IOVERLAY, 0, STATIC
        LOCFRAME DOVERLAY, 0, STATIC
        ARGFRAME ISTACK, 0, STACK
        ARGFRAME PSTACK, 0, STACK
        ARGFRAME XSTACK, 14, STACK
        ARGFRAME IOVERLAY, 0, STATIC
        ARGFRAME DOVERLAY, 0, STATIC
        FUNCALL ZDApp_NwkDescListProcessing, nwk_ExtPANIDValid
        LOCFRAME ISTACK, 0, STACK
        LOCFRAME PSTACK, 0, STACK
        LOCFRAME XSTACK, 14, STACK
        LOCFRAME IOVERLAY, 0, STATIC
        LOCFRAME DOVERLAY, 0, STATIC
        ARGFRAME ISTACK, 0, STACK
        ARGFRAME PSTACK, 0, STACK
        ARGFRAME XSTACK, 14, STACK
        ARGFRAME IOVERLAY, 0, STATIC
        ARGFRAME DOVERLAY, 0, STATIC
        FUNCALL ZDApp_NwkDescListProcessing, sAddrExtCmp
        LOCFRAME ISTACK, 0, STACK
        LOCFRAME PSTACK, 0, STACK
        LOCFRAME XSTACK, 14, STACK
        LOCFRAME IOVERLAY, 0, STATIC
        LOCFRAME DOVERLAY, 0, STATIC
        ARGFRAME ISTACK, 0, STACK
        ARGFRAME PSTACK, 0, STACK
        ARGFRAME XSTACK, 14, STACK
        ARGFRAME IOVERLAY, 0, STATIC
        ARGFRAME DOVERLAY, 0, STATIC
        MOV     A,#-0xe
        LCALL   ?BANKED_ENTER_XDATA
          CFI DPH0 load(1, XDATA, add(CFA_XSP16, literal(-1)))
          CFI DPL0 load(1, XDATA, add(CFA_XSP16, literal(-2)))
          CFI ?BRET_EXT load(1, XDATA, add(CFA_XSP16, literal(-3)))
          CFI ?RET_HIGH load(1, XDATA, add(CFA_XSP16, literal(-4)))
          CFI ?RET_LOW load(1, XDATA, add(CFA_XSP16, literal(-5)))
          CFI R7 load(1, XDATA, add(CFA_XSP16, literal(-6)))
          CFI V5 load(1, XDATA, add(CFA_XSP16, literal(-7)))
          CFI V4 load(1, XDATA, add(CFA_XSP16, literal(-8)))
          CFI V3 load(1, XDATA, add(CFA_XSP16, literal(-9)))
          CFI V2 load(1, XDATA, add(CFA_XSP16, literal(-10)))
          CFI V1 load(1, XDATA, add(CFA_XSP16, literal(-11)))
          CFI V0 load(1, XDATA, add(CFA_XSP16, literal(-12)))
          CFI VB load(1, XDATA, add(CFA_XSP16, literal(-13)))
          CFI R6 load(1, XDATA, add(CFA_XSP16, literal(-14)))
          CFI CFA_SP SP+0
          CFI CFA_XSP16 add(XSP16, 14)
        ; Saved register size: 14
        ; Auto size: 0
// 2169   networkDesc_t *pNwkDesc;
// 2170   uint8 i, ResultCount = 0;
        MOV     ?V0 + 0,#0x0
// 2171   uint8 stackProfile;
// 2172   uint8 stackProfilePro;
// 2173   uint8 selected;
// 2174 
// 2175   // Count the number of nwk descriptors in the list
// 2176   pNwkDesc = nwk_getNwkDescList();
        ; Setup parameters for call to function nwk_getNwkDescList
        LCALL   ??nwk_getNwkDescList?relay
        MOV     ?V0 + 2,R2
        MOV     ?V0 + 3,R3
        MOV     R6,?V0 + 2
        MOV     R7,?V0 + 3
        SJMP    ??CrossCallReturnLabel_83
// 2177   while (pNwkDesc)
// 2178   {
// 2179     ResultCount++;
??ZDApp_NwkDescListProcessing_0:
        INC     ?V0 + 0
// 2180     pNwkDesc = pNwkDesc->nextDesc;
        LCALL   ?Subroutine20 & 0xFFFF
// 2181   }
??CrossCallReturnLabel_83:
        MOV     A,R6
        ORL     A,R7
        JNZ     ??ZDApp_NwkDescListProcessing_0
// 2182 
// 2183   // process discovery results
// 2184   stackProfilePro = FALSE;
        MOV     ?V0 + 3,#0x0
// 2185   selected = FALSE;
// 2186 
// 2187 
// 2188   for ( stackProfile = 0; stackProfile < STACK_PROFILE_MAX; stackProfile++ )
        MOV     ?V0 + 1,#0x0
// 2189   {
// 2190     pNwkDesc = nwk_getNwkDescList();
??ZDApp_NwkDescListProcessing_1:
        ; Setup parameters for call to function nwk_getNwkDescList
        LCALL   ??nwk_getNwkDescList?relay
        MOV     ?V0 + 4,R2
        MOV     ?V0 + 5,R3
        MOV     R6,?V0 + 4
        MOV     R7,?V0 + 5
// 2191     for ( i = 0; i < ResultCount; i++, pNwkDesc = pNwkDesc->nextDesc )
        MOV     ?V0 + 2,#0x0
        SJMP    ??CrossCallReturnLabel_84
// 2192     {
// 2193        if ( nwk_ExtPANIDValid( ZDO_UseExtendedPANID ) == true )
// 2194       {
// 2195         // If the extended Pan ID is commissioned to a non zero value
// 2196         // Only join the Pan that has match EPID
// 2197         if ( osal_ExtAddrEqual( ZDO_UseExtendedPANID, pNwkDesc->extendedPANID) == false )
// 2198           continue;
// 2199 
// 2200       }
// 2201       else if ( zgConfigPANID != 0xFFFF )
// 2202       {
// 2203         // PAN Id is preconfigured. check if it matches
// 2204         if ( pNwkDesc->panId != zgConfigPANID )
// 2205           continue;
// 2206       }
// 2207 
// 2208       // check that network is allowing joining
// 2209       if ( ZSTACK_ROUTER_BUILD )
// 2210       {
// 2211         if ( stackProfilePro == FALSE )
// 2212         {
// 2213           if ( !pNwkDesc->routerCapacity )
// 2214           {
// 2215             continue;
// 2216           }
// 2217         }
// 2218         else
// 2219         {
// 2220           if ( !pNwkDesc->deviceCapacity )
// 2221           {
// 2222             continue;
// 2223           }
// 2224         }
// 2225       }
// 2226       else if ( ZSTACK_END_DEVICE_BUILD )
// 2227       {
// 2228         if ( !pNwkDesc->deviceCapacity )
// 2229         {
// 2230           continue;
// 2231         }
// 2232       }
// 2233 
// 2234       // check version of zigbee protocol
// 2235       if ( pNwkDesc->version != _NIB.nwkProtocolVersion )
// 2236         continue;
// 2237 
// 2238       // check version of stack profile
// 2239       if ( pNwkDesc->stackProfile != zgStackProfile  )
// 2240       {
// 2241         if ( ((zgStackProfile == HOME_CONTROLS) && (pNwkDesc->stackProfile == ZIGBEEPRO_PROFILE))
// 2242             || ((zgStackProfile == ZIGBEEPRO_PROFILE) && (pNwkDesc->stackProfile == HOME_CONTROLS))  )
??ZDApp_NwkDescListProcessing_2:
        MOVX    A,@DPTR
        XRL     A,#0x2
        JNZ     ??ZDApp_NwkDescListProcessing_3
        MOV     A,#0x1
        XRL     A,R0
        JNZ     ??ZDApp_NwkDescListProcessing_3
// 2243         {
// 2244           stackProfilePro = TRUE;
??ZDApp_NwkDescListProcessing_4:
        MOV     ?V0 + 3,#0x1
// 2245         }
// 2246 
// 2247         if ( stackProfile == 0 )
??ZDApp_NwkDescListProcessing_3:
        MOV     A,?V0 + 1
        JZ      $+5
        LJMP    ??ZDApp_NwkDescListProcessing_5 & 0xFFFF
??ZDApp_NwkDescListProcessing_6:
        INC     ?V0 + 2
        LCALL   ?Subroutine20 & 0xFFFF
??CrossCallReturnLabel_84:
        MOV     A,?V0 + 2
        CLR     C
        SUBB    A,?V0 + 0
        JC      $+5
        LJMP    ??ZDApp_NwkDescListProcessing_7 & 0xFFFF
        ; Setup parameters for call to function nwk_ExtPANIDValid
        MOV     R2,#ZDO_UseExtendedPANID & 0xff
        MOV     R3,#(ZDO_UseExtendedPANID >> 8) & 0xff
        LCALL   ??nwk_ExtPANIDValid?relay
        MOV     A,R1
        XRL     A,#0x1
        JNZ     ??ZDApp_NwkDescListProcessing_8
        ; Setup parameters for call to function sAddrExtCmp
        MOV     A,R6
        ADD     A,#0xb
        MOV     R4,A
        MOV     A,R7
        ADDC    A,#0x0
        MOV     R5,A
        MOV     R2,#ZDO_UseExtendedPANID & 0xff
        MOV     R3,#(ZDO_UseExtendedPANID >> 8) & 0xff
        LCALL   ??sAddrExtCmp?relay
        MOV     A,R1
        JNZ     ??ZDApp_NwkDescListProcessing_9
        SJMP    ??ZDApp_NwkDescListProcessing_6
??ZDApp_NwkDescListProcessing_8:
        MOV     DPTR,#zgConfigPANID
        MOVX    A,@DPTR
        CPL     A
        JNZ     ??ZDApp_NwkDescListProcessing_10
        INC     DPTR
        MOVX    A,@DPTR
        CPL     A
??ZDApp_NwkDescListProcessing_10:
        JZ      ??ZDApp_NwkDescListProcessing_9
        LCALL   ?Subroutine26 & 0xFFFF
??CrossCallReturnLabel_45:
        MOV     DPTR,#zgConfigPANID
        MOVX    A,@DPTR
        XRL     A,R0
        JNZ     ??ZDApp_NwkDescListProcessing_11
        INC     DPTR
        MOVX    A,@DPTR
        XRL     A,R1
??ZDApp_NwkDescListProcessing_11:
        JNZ     ??ZDApp_NwkDescListProcessing_6
??ZDApp_NwkDescListProcessing_9:
        MOV     A,?V0 + 3
        MOV     DPL,R6
        MOV     DPH,R7
        INC     DPTR
        INC     DPTR
        INC     DPTR
        JNZ     ??ZDApp_NwkDescListProcessing_12
        MOVX    A,@DPTR
        JNZ     ??ZDApp_NwkDescListProcessing_13
        SJMP    ??ZDApp_NwkDescListProcessing_6
??ZDApp_NwkDescListProcessing_12:
        INC     DPTR
        MOVX    A,@DPTR
        JZ      ??ZDApp_NwkDescListProcessing_6
??ZDApp_NwkDescListProcessing_13:
        MOV     DPL,R6
        MOV     DPH,R7
        INC     DPTR
        INC     DPTR
        INC     DPTR
        INC     DPTR
        INC     DPTR
        MOVX    A,@DPTR
        MOV     R0,A
        MOV     DPTR,#_NIB + 17
        MOVX    A,@DPTR
        XRL     A,R0
        JNZ     ??ZDApp_NwkDescListProcessing_6
        MOV     DPL,R6
        MOV     DPH,R7
        INC     DPTR
        INC     DPTR
        INC     DPTR
        INC     DPTR
        INC     DPTR
        INC     DPTR
        MOVX    A,@DPTR
        MOV     R0,A
        MOV     DPTR,#zgStackProfile
        MOVX    A,@DPTR
        XRL     A,R0
        JZ      ??ZDApp_NwkDescListProcessing_5
        MOVX    A,@DPTR
        XRL     A,#0x1
        JZ      $+5
        LJMP    ??ZDApp_NwkDescListProcessing_2 & 0xFFFF
        MOV     A,#0x2
        XRL     A,R0
        JZ      $+5
        LJMP    ??ZDApp_NwkDescListProcessing_3 & 0xFFFF
        LJMP    ??ZDApp_NwkDescListProcessing_4 & 0xFFFF
// 2248         {
// 2249           continue;
// 2250         }
// 2251       }
// 2252 
// 2253       break;
// 2254     }
// 2255 
// 2256     if (i < ResultCount)
// 2257     {
// 2258      selected = TRUE;
// 2259       break;
// 2260     }
// 2261 
// 2262     // break if selected or stack profile pro wasn't found
// 2263     if ( (selected == TRUE) || (stackProfilePro == FALSE) )
??ZDApp_NwkDescListProcessing_7:
        MOV     A,?V0 + 3
        JZ      ??ZDApp_NwkDescListProcessing_14
// 2264     {
// 2265       break;
// 2266     }
// 2267   }
        INC     ?V0 + 1
        MOV     A,?V0 + 1
        CLR     C
        SUBB    A,#0x2
        JNC     $+5
        LJMP    ??ZDApp_NwkDescListProcessing_1 & 0xFFFF
// 2268 
// 2269   if ( i == ResultCount )
??ZDApp_NwkDescListProcessing_14:
        MOV     A,?V0 + 0
        XRL     A,?V0 + 2
        JNZ     ??ZDApp_NwkDescListProcessing_5
// 2270   {
// 2271     return (NULL);   // couldn't find appropriate PAN to join !
        MOV     R2,#0x0
        MOV     R3,#0x0
        SJMP    ??ZDApp_NwkDescListProcessing_15
// 2272   }
// 2273   else
// 2274   {
// 2275     return (pNwkDesc);
??ZDApp_NwkDescListProcessing_5:
        MOV     A,R6
        MOV     R2,A
        MOV     A,R7
        MOV     R3,A
// 2276   }
??ZDApp_NwkDescListProcessing_15:
        LJMP    ??Subroutine36_0 & 0xFFFF
          CFI EndBlock cfiBlock83
// 2277 }// ZDApp_NwkDescListProcessing()

        RSEG BANKED_CODE:CODE:NOROOT(0)
?Subroutine26:
          CFI Block cfiCond84 Using cfiCommon0
          CFI Function ZDApp_NwkDescListProcessing
          CFI Conditional ??CrossCallReturnLabel_45
          CFI R6 load(1, XDATA, add(CFA_XSP16, literal(-14)))
          CFI VB load(1, XDATA, add(CFA_XSP16, literal(-13)))
          CFI V0 load(1, XDATA, add(CFA_XSP16, literal(-12)))
          CFI V1 load(1, XDATA, add(CFA_XSP16, literal(-11)))
          CFI V2 load(1, XDATA, add(CFA_XSP16, literal(-10)))
          CFI V3 load(1, XDATA, add(CFA_XSP16, literal(-9)))
          CFI V4 load(1, XDATA, add(CFA_XSP16, literal(-8)))
          CFI V5 load(1, XDATA, add(CFA_XSP16, literal(-7)))
          CFI R7 load(1, XDATA, add(CFA_XSP16, literal(-6)))
          CFI ?RET_LOW load(1, XDATA, add(CFA_XSP16, literal(-5)))
          CFI ?RET_HIGH load(1, XDATA, add(CFA_XSP16, literal(-4)))
          CFI ?BRET_EXT load(1, XDATA, add(CFA_XSP16, literal(-3)))
          CFI DPL0 load(1, XDATA, add(CFA_XSP16, literal(-2)))
          CFI DPH0 load(1, XDATA, add(CFA_XSP16, literal(-1)))
          CFI CFA_SP SP+0
          CFI CFA_XSP16 add(XSP16, 14)
          CFI Block cfiCond85 Using cfiCommon0
          CFI (cfiCond85) Function ZDO_beaconNotifyIndCB
          CFI (cfiCond85) Conditional ??CrossCallReturnLabel_46
          CFI (cfiCond85) R6 load(1, XDATA, add(CFA_XSP16, literal(-18)))
          CFI (cfiCond85) VB load(1, XDATA, add(CFA_XSP16, literal(-17)))
          CFI (cfiCond85) V0 load(1, XDATA, add(CFA_XSP16, literal(-16)))
          CFI (cfiCond85) V1 load(1, XDATA, add(CFA_XSP16, literal(-15)))
          CFI (cfiCond85) V2 load(1, XDATA, add(CFA_XSP16, literal(-14)))
          CFI (cfiCond85) V3 load(1, XDATA, add(CFA_XSP16, literal(-13)))
          CFI (cfiCond85) V4 load(1, XDATA, add(CFA_XSP16, literal(-12)))
          CFI (cfiCond85) V5 load(1, XDATA, add(CFA_XSP16, literal(-11)))
          CFI (cfiCond85) V6 load(1, XDATA, add(CFA_XSP16, literal(-10)))
          CFI (cfiCond85) V7 load(1, XDATA, add(CFA_XSP16, literal(-9)))
          CFI (cfiCond85) V8 load(1, XDATA, add(CFA_XSP16, literal(-8)))
          CFI (cfiCond85) V9 load(1, XDATA, add(CFA_XSP16, literal(-7)))
          CFI (cfiCond85) R7 load(1, XDATA, add(CFA_XSP16, literal(-6)))
          CFI (cfiCond85) ?RET_LOW load(1, XDATA, add(CFA_XSP16, literal(-5)))
          CFI (cfiCond85) ?RET_HIGH load(1, XDATA, add(CFA_XSP16, literal(-4)))
          CFI (cfiCond85) ?BRET_EXT load(1, XDATA, add(CFA_XSP16, literal(-3)))
          CFI (cfiCond85) DPL0 load(1, XDATA, add(CFA_XSP16, literal(-2)))
          CFI (cfiCond85) DPH0 load(1, XDATA, add(CFA_XSP16, literal(-1)))
          CFI (cfiCond85) CFA_SP SP+0
          CFI (cfiCond85) CFA_XSP16 add(XSP16, 18)
          CFI Block cfiPicker86 Using cfiCommon1
          CFI (cfiPicker86) NoFunction
          CFI (cfiPicker86) Picker
        MOV     DPL,R6
        MOV     DPH,R7
          CFI EndBlock cfiCond84
          CFI EndBlock cfiCond85
          CFI EndBlock cfiPicker86
        REQUIRE ??Subroutine41_0
        ; // Fall through to label ??Subroutine41_0

        RSEG BANKED_CODE:CODE:NOROOT(0)
??Subroutine41_0:
          CFI Block cfiCond87 Using cfiCommon0
          CFI Function ZDApp_ProcessOSALMsg
          CFI Conditional ??CrossCallReturnLabel_41
          CFI R6 load(1, XDATA, add(CFA_XSP16, literal(-12)))
          CFI VB load(1, XDATA, add(CFA_XSP16, literal(-11)))
          CFI V0 load(1, XDATA, add(CFA_XSP16, literal(-10)))
          CFI V1 load(1, XDATA, add(CFA_XSP16, literal(-9)))
          CFI V2 load(1, XDATA, add(CFA_XSP16, literal(-8)))
          CFI V3 load(1, XDATA, add(CFA_XSP16, literal(-7)))
          CFI R7 load(1, XDATA, add(CFA_XSP16, literal(-6)))
          CFI ?RET_LOW load(1, XDATA, add(CFA_XSP16, literal(-5)))
          CFI ?RET_HIGH load(1, XDATA, add(CFA_XSP16, literal(-4)))
          CFI ?BRET_EXT load(1, XDATA, add(CFA_XSP16, literal(-3)))
          CFI DPL0 load(1, XDATA, add(CFA_XSP16, literal(-2)))
          CFI DPH0 load(1, XDATA, add(CFA_XSP16, literal(-1)))
          CFI CFA_SP SP+0
          CFI CFA_XSP16 add(XSP16, 15)
          CFI Block cfiCond88 Using cfiCommon0
          CFI (cfiCond88) Function ZDApp_ProcessOSALMsg
          CFI (cfiCond88) Conditional ??CrossCallReturnLabel_42
          CFI (cfiCond88) R6 load(1, XDATA, add(CFA_XSP16, literal(-12)))
          CFI (cfiCond88) VB load(1, XDATA, add(CFA_XSP16, literal(-11)))
          CFI (cfiCond88) V0 load(1, XDATA, add(CFA_XSP16, literal(-10)))
          CFI (cfiCond88) V1 load(1, XDATA, add(CFA_XSP16, literal(-9)))
          CFI (cfiCond88) V2 load(1, XDATA, add(CFA_XSP16, literal(-8)))
          CFI (cfiCond88) V3 load(1, XDATA, add(CFA_XSP16, literal(-7)))
          CFI (cfiCond88) R7 load(1, XDATA, add(CFA_XSP16, literal(-6)))
          CFI (cfiCond88) ?RET_LOW load(1, XDATA, add(CFA_XSP16, literal(-5)))
          CFI (cfiCond88) ?RET_HIGH load(1, XDATA, add(CFA_XSP16, literal(-4)))
          CFI (cfiCond88) ?BRET_EXT load(1, XDATA, add(CFA_XSP16, literal(-3)))
          CFI (cfiCond88) DPL0 load(1, XDATA, add(CFA_XSP16, literal(-2)))
          CFI (cfiCond88) DPH0 load(1, XDATA, add(CFA_XSP16, literal(-1)))
          CFI (cfiCond88) CFA_SP SP+0
          CFI (cfiCond88) CFA_XSP16 add(XSP16, 15)
          CFI Block cfiCond89 Using cfiCommon0
          CFI (cfiCond89) Function ZDApp_ProcessOSALMsg
          CFI (cfiCond89) Conditional ??CrossCallReturnLabel_43
          CFI (cfiCond89) R6 load(1, XDATA, add(CFA_XSP16, literal(-12)))
          CFI (cfiCond89) VB load(1, XDATA, add(CFA_XSP16, literal(-11)))
          CFI (cfiCond89) V0 load(1, XDATA, add(CFA_XSP16, literal(-10)))
          CFI (cfiCond89) V1 load(1, XDATA, add(CFA_XSP16, literal(-9)))
          CFI (cfiCond89) V2 load(1, XDATA, add(CFA_XSP16, literal(-8)))
          CFI (cfiCond89) V3 load(1, XDATA, add(CFA_XSP16, literal(-7)))
          CFI (cfiCond89) R7 load(1, XDATA, add(CFA_XSP16, literal(-6)))
          CFI (cfiCond89) ?RET_LOW load(1, XDATA, add(CFA_XSP16, literal(-5)))
          CFI (cfiCond89) ?RET_HIGH load(1, XDATA, add(CFA_XSP16, literal(-4)))
          CFI (cfiCond89) ?BRET_EXT load(1, XDATA, add(CFA_XSP16, literal(-3)))
          CFI (cfiCond89) DPL0 load(1, XDATA, add(CFA_XSP16, literal(-2)))
          CFI (cfiCond89) DPH0 load(1, XDATA, add(CFA_XSP16, literal(-1)))
          CFI (cfiCond89) CFA_SP SP+0
          CFI (cfiCond89) CFA_XSP16 add(XSP16, 15)
          CFI Block cfiCond90 Using cfiCommon0
          CFI (cfiCond90) Function ZDApp_InMsgCB
          CFI (cfiCond90) Conditional ??CrossCallReturnLabel_44
          CFI (cfiCond90) R6 load(1, XDATA, add(CFA_XSP16, literal(-10)))
          CFI (cfiCond90) VB load(1, XDATA, add(CFA_XSP16, literal(-9)))
          CFI (cfiCond90) V0 load(1, XDATA, add(CFA_XSP16, literal(-8)))
          CFI (cfiCond90) V1 load(1, XDATA, add(CFA_XSP16, literal(-7)))
          CFI (cfiCond90) R7 load(1, XDATA, add(CFA_XSP16, literal(-6)))
          CFI (cfiCond90) ?RET_LOW load(1, XDATA, add(CFA_XSP16, literal(-5)))
          CFI (cfiCond90) ?RET_HIGH load(1, XDATA, add(CFA_XSP16, literal(-4)))
          CFI (cfiCond90) ?BRET_EXT load(1, XDATA, add(CFA_XSP16, literal(-3)))
          CFI (cfiCond90) DPL0 load(1, XDATA, add(CFA_XSP16, literal(-2)))
          CFI (cfiCond90) DPH0 load(1, XDATA, add(CFA_XSP16, literal(-1)))
          CFI (cfiCond90) CFA_SP SP+0
          CFI (cfiCond90) CFA_XSP16 add(XSP16, 10)
          CFI Block cfiCond91 Using cfiCommon0
          CFI (cfiCond91) Function ZDApp_NwkDescListProcessing
          CFI (cfiCond91) Conditional ??CrossCallReturnLabel_45
          CFI (cfiCond91) R6 load(1, XDATA, add(CFA_XSP16, literal(-14)))
          CFI (cfiCond91) VB load(1, XDATA, add(CFA_XSP16, literal(-13)))
          CFI (cfiCond91) V0 load(1, XDATA, add(CFA_XSP16, literal(-12)))
          CFI (cfiCond91) V1 load(1, XDATA, add(CFA_XSP16, literal(-11)))
          CFI (cfiCond91) V2 load(1, XDATA, add(CFA_XSP16, literal(-10)))
          CFI (cfiCond91) V3 load(1, XDATA, add(CFA_XSP16, literal(-9)))
          CFI (cfiCond91) V4 load(1, XDATA, add(CFA_XSP16, literal(-8)))
          CFI (cfiCond91) V5 load(1, XDATA, add(CFA_XSP16, literal(-7)))
          CFI (cfiCond91) R7 load(1, XDATA, add(CFA_XSP16, literal(-6)))
          CFI (cfiCond91) ?RET_LOW load(1, XDATA, add(CFA_XSP16, literal(-5)))
          CFI (cfiCond91) ?RET_HIGH load(1, XDATA, add(CFA_XSP16, literal(-4)))
          CFI (cfiCond91) ?BRET_EXT load(1, XDATA, add(CFA_XSP16, literal(-3)))
          CFI (cfiCond91) DPL0 load(1, XDATA, add(CFA_XSP16, literal(-2)))
          CFI (cfiCond91) DPH0 load(1, XDATA, add(CFA_XSP16, literal(-1)))
          CFI (cfiCond91) CFA_SP SP+0
          CFI (cfiCond91) CFA_XSP16 add(XSP16, 14)
          CFI Block cfiCond92 Using cfiCommon0
          CFI (cfiCond92) Function ZDO_beaconNotifyIndCB
          CFI (cfiCond92) Conditional ??CrossCallReturnLabel_46
          CFI (cfiCond92) R6 load(1, XDATA, add(CFA_XSP16, literal(-18)))
          CFI (cfiCond92) VB load(1, XDATA, add(CFA_XSP16, literal(-17)))
          CFI (cfiCond92) V0 load(1, XDATA, add(CFA_XSP16, literal(-16)))
          CFI (cfiCond92) V1 load(1, XDATA, add(CFA_XSP16, literal(-15)))
          CFI (cfiCond92) V2 load(1, XDATA, add(CFA_XSP16, literal(-14)))
          CFI (cfiCond92) V3 load(1, XDATA, add(CFA_XSP16, literal(-13)))
          CFI (cfiCond92) V4 load(1, XDATA, add(CFA_XSP16, literal(-12)))
          CFI (cfiCond92) V5 load(1, XDATA, add(CFA_XSP16, literal(-11)))
          CFI (cfiCond92) V6 load(1, XDATA, add(CFA_XSP16, literal(-10)))
          CFI (cfiCond92) V7 load(1, XDATA, add(CFA_XSP16, literal(-9)))
          CFI (cfiCond92) V8 load(1, XDATA, add(CFA_XSP16, literal(-8)))
          CFI (cfiCond92) V9 load(1, XDATA, add(CFA_XSP16, literal(-7)))
          CFI (cfiCond92) R7 load(1, XDATA, add(CFA_XSP16, literal(-6)))
          CFI (cfiCond92) ?RET_LOW load(1, XDATA, add(CFA_XSP16, literal(-5)))
          CFI (cfiCond92) ?RET_HIGH load(1, XDATA, add(CFA_XSP16, literal(-4)))
          CFI (cfiCond92) ?BRET_EXT load(1, XDATA, add(CFA_XSP16, literal(-3)))
          CFI (cfiCond92) DPL0 load(1, XDATA, add(CFA_XSP16, literal(-2)))
          CFI (cfiCond92) DPH0 load(1, XDATA, add(CFA_XSP16, literal(-1)))
          CFI (cfiCond92) CFA_SP SP+0
          CFI (cfiCond92) CFA_XSP16 add(XSP16, 18)
          CFI Block cfiPicker93 Using cfiCommon1
          CFI (cfiPicker93) NoFunction
          CFI (cfiPicker93) Picker
        LCALL   ?Subroutine32 & 0xFFFF
??CrossCallReturnLabel_78:
        RET
          CFI EndBlock cfiCond87
          CFI EndBlock cfiCond88
          CFI EndBlock cfiCond89
          CFI EndBlock cfiCond90
          CFI EndBlock cfiCond91
          CFI EndBlock cfiCond92
          CFI EndBlock cfiPicker93

        RSEG BANKED_CODE:CODE:NOROOT(0)
?Subroutine32:
          CFI Block cfiCond94 Using cfiCommon0
          CFI Function ZDApp_ProcessNetworkJoin
          CFI Conditional ??CrossCallReturnLabel_77, ??CrossCallReturnLabel_21
          CFI R6 load(1, XDATA, add(CFA_XSP16, literal(-10)))
          CFI VB load(1, XDATA, add(CFA_XSP16, literal(-9)))
          CFI V0 load(1, XDATA, add(CFA_XSP16, literal(-8)))
          CFI V1 load(1, XDATA, add(CFA_XSP16, literal(-7)))
          CFI R7 load(1, XDATA, add(CFA_XSP16, literal(-6)))
          CFI ?RET_LOW load(1, XDATA, add(CFA_XSP16, literal(-5)))
          CFI ?RET_HIGH load(1, XDATA, add(CFA_XSP16, literal(-4)))
          CFI ?BRET_EXT load(1, XDATA, add(CFA_XSP16, literal(-3)))
          CFI DPL0 load(1, XDATA, add(CFA_XSP16, literal(-2)))
          CFI DPH0 load(1, XDATA, add(CFA_XSP16, literal(-1)))
          CFI CFA_SP SP+0
          CFI CFA_XSP16 add(XSP16, 12)
          CFI Block cfiCond95 Using cfiCommon0
          CFI (cfiCond95) Function ZDApp_ProcessNetworkJoin
          CFI (cfiCond95) Conditional ??CrossCallReturnLabel_77, ??CrossCallReturnLabel_22
          CFI (cfiCond95) R6 load(1, XDATA, add(CFA_XSP16, literal(-10)))
          CFI (cfiCond95) VB load(1, XDATA, add(CFA_XSP16, literal(-9)))
          CFI (cfiCond95) V0 load(1, XDATA, add(CFA_XSP16, literal(-8)))
          CFI (cfiCond95) V1 load(1, XDATA, add(CFA_XSP16, literal(-7)))
          CFI (cfiCond95) R7 load(1, XDATA, add(CFA_XSP16, literal(-6)))
          CFI (cfiCond95) ?RET_LOW load(1, XDATA, add(CFA_XSP16, literal(-5)))
          CFI (cfiCond95) ?RET_HIGH load(1, XDATA, add(CFA_XSP16, literal(-4)))
          CFI (cfiCond95) ?BRET_EXT load(1, XDATA, add(CFA_XSP16, literal(-3)))
          CFI (cfiCond95) DPL0 load(1, XDATA, add(CFA_XSP16, literal(-2)))
          CFI (cfiCond95) DPH0 load(1, XDATA, add(CFA_XSP16, literal(-1)))
          CFI (cfiCond95) CFA_SP SP+0
          CFI (cfiCond95) CFA_XSP16 add(XSP16, 12)
          CFI Block cfiCond96 Using cfiCommon0
          CFI (cfiCond96) Function ZDApp_NwkDescListProcessing
          CFI (cfiCond96) Conditional ??CrossCallReturnLabel_78, ??CrossCallReturnLabel_45
          CFI (cfiCond96) R6 load(1, XDATA, add(CFA_XSP16, literal(-14)))
          CFI (cfiCond96) VB load(1, XDATA, add(CFA_XSP16, literal(-13)))
          CFI (cfiCond96) V0 load(1, XDATA, add(CFA_XSP16, literal(-12)))
          CFI (cfiCond96) V1 load(1, XDATA, add(CFA_XSP16, literal(-11)))
          CFI (cfiCond96) V2 load(1, XDATA, add(CFA_XSP16, literal(-10)))
          CFI (cfiCond96) V3 load(1, XDATA, add(CFA_XSP16, literal(-9)))
          CFI (cfiCond96) V4 load(1, XDATA, add(CFA_XSP16, literal(-8)))
          CFI (cfiCond96) V5 load(1, XDATA, add(CFA_XSP16, literal(-7)))
          CFI (cfiCond96) R7 load(1, XDATA, add(CFA_XSP16, literal(-6)))
          CFI (cfiCond96) ?RET_LOW load(1, XDATA, add(CFA_XSP16, literal(-5)))
          CFI (cfiCond96) ?RET_HIGH load(1, XDATA, add(CFA_XSP16, literal(-4)))
          CFI (cfiCond96) ?BRET_EXT load(1, XDATA, add(CFA_XSP16, literal(-3)))
          CFI (cfiCond96) DPL0 load(1, XDATA, add(CFA_XSP16, literal(-2)))
          CFI (cfiCond96) DPH0 load(1, XDATA, add(CFA_XSP16, literal(-1)))
          CFI (cfiCond96) CFA_SP SP+0
          CFI (cfiCond96) CFA_XSP16 add(XSP16, 14)
          CFI Block cfiCond97 Using cfiCommon0
          CFI (cfiCond97) Function ZDO_beaconNotifyIndCB
          CFI (cfiCond97) Conditional ??CrossCallReturnLabel_78, ??CrossCallReturnLabel_46
          CFI (cfiCond97) R6 load(1, XDATA, add(CFA_XSP16, literal(-18)))
          CFI (cfiCond97) VB load(1, XDATA, add(CFA_XSP16, literal(-17)))
          CFI (cfiCond97) V0 load(1, XDATA, add(CFA_XSP16, literal(-16)))
          CFI (cfiCond97) V1 load(1, XDATA, add(CFA_XSP16, literal(-15)))
          CFI (cfiCond97) V2 load(1, XDATA, add(CFA_XSP16, literal(-14)))
          CFI (cfiCond97) V3 load(1, XDATA, add(CFA_XSP16, literal(-13)))
          CFI (cfiCond97) V4 load(1, XDATA, add(CFA_XSP16, literal(-12)))
          CFI (cfiCond97) V5 load(1, XDATA, add(CFA_XSP16, literal(-11)))
          CFI (cfiCond97) V6 load(1, XDATA, add(CFA_XSP16, literal(-10)))
          CFI (cfiCond97) V7 load(1, XDATA, add(CFA_XSP16, literal(-9)))
          CFI (cfiCond97) V8 load(1, XDATA, add(CFA_XSP16, literal(-8)))
          CFI (cfiCond97) V9 load(1, XDATA, add(CFA_XSP16, literal(-7)))
          CFI (cfiCond97) R7 load(1, XDATA, add(CFA_XSP16, literal(-6)))
          CFI (cfiCond97) ?RET_LOW load(1, XDATA, add(CFA_XSP16, literal(-5)))
          CFI (cfiCond97) ?RET_HIGH load(1, XDATA, add(CFA_XSP16, literal(-4)))
          CFI (cfiCond97) ?BRET_EXT load(1, XDATA, add(CFA_XSP16, literal(-3)))
          CFI (cfiCond97) DPL0 load(1, XDATA, add(CFA_XSP16, literal(-2)))
          CFI (cfiCond97) DPH0 load(1, XDATA, add(CFA_XSP16, literal(-1)))
          CFI (cfiCond97) CFA_SP SP+0
          CFI (cfiCond97) CFA_XSP16 add(XSP16, 18)
          CFI Block cfiCond98 Using cfiCommon0
          CFI (cfiCond98) Function ZDApp_ProcessOSALMsg
          CFI (cfiCond98) Conditional ??CrossCallReturnLabel_78, ??CrossCallReturnLabel_41
          CFI (cfiCond98) R6 load(1, XDATA, add(CFA_XSP16, literal(-12)))
          CFI (cfiCond98) VB load(1, XDATA, add(CFA_XSP16, literal(-11)))
          CFI (cfiCond98) V0 load(1, XDATA, add(CFA_XSP16, literal(-10)))
          CFI (cfiCond98) V1 load(1, XDATA, add(CFA_XSP16, literal(-9)))
          CFI (cfiCond98) V2 load(1, XDATA, add(CFA_XSP16, literal(-8)))
          CFI (cfiCond98) V3 load(1, XDATA, add(CFA_XSP16, literal(-7)))
          CFI (cfiCond98) R7 load(1, XDATA, add(CFA_XSP16, literal(-6)))
          CFI (cfiCond98) ?RET_LOW load(1, XDATA, add(CFA_XSP16, literal(-5)))
          CFI (cfiCond98) ?RET_HIGH load(1, XDATA, add(CFA_XSP16, literal(-4)))
          CFI (cfiCond98) ?BRET_EXT load(1, XDATA, add(CFA_XSP16, literal(-3)))
          CFI (cfiCond98) DPL0 load(1, XDATA, add(CFA_XSP16, literal(-2)))
          CFI (cfiCond98) DPH0 load(1, XDATA, add(CFA_XSP16, literal(-1)))
          CFI (cfiCond98) CFA_SP SP+0
          CFI (cfiCond98) CFA_XSP16 add(XSP16, 15)
          CFI Block cfiCond99 Using cfiCommon0
          CFI (cfiCond99) Function ZDApp_ProcessOSALMsg
          CFI (cfiCond99) Conditional ??CrossCallReturnLabel_78, ??CrossCallReturnLabel_42
          CFI (cfiCond99) R6 load(1, XDATA, add(CFA_XSP16, literal(-12)))
          CFI (cfiCond99) VB load(1, XDATA, add(CFA_XSP16, literal(-11)))
          CFI (cfiCond99) V0 load(1, XDATA, add(CFA_XSP16, literal(-10)))
          CFI (cfiCond99) V1 load(1, XDATA, add(CFA_XSP16, literal(-9)))
          CFI (cfiCond99) V2 load(1, XDATA, add(CFA_XSP16, literal(-8)))
          CFI (cfiCond99) V3 load(1, XDATA, add(CFA_XSP16, literal(-7)))
          CFI (cfiCond99) R7 load(1, XDATA, add(CFA_XSP16, literal(-6)))
          CFI (cfiCond99) ?RET_LOW load(1, XDATA, add(CFA_XSP16, literal(-5)))
          CFI (cfiCond99) ?RET_HIGH load(1, XDATA, add(CFA_XSP16, literal(-4)))
          CFI (cfiCond99) ?BRET_EXT load(1, XDATA, add(CFA_XSP16, literal(-3)))
          CFI (cfiCond99) DPL0 load(1, XDATA, add(CFA_XSP16, literal(-2)))
          CFI (cfiCond99) DPH0 load(1, XDATA, add(CFA_XSP16, literal(-1)))
          CFI (cfiCond99) CFA_SP SP+0
          CFI (cfiCond99) CFA_XSP16 add(XSP16, 15)
          CFI Block cfiCond100 Using cfiCommon0
          CFI (cfiCond100) Function ZDApp_ProcessOSALMsg
          CFI (cfiCond100) Conditional ??CrossCallReturnLabel_78, ??CrossCallReturnLabel_43
          CFI (cfiCond100) R6 load(1, XDATA, add(CFA_XSP16, literal(-12)))
          CFI (cfiCond100) VB load(1, XDATA, add(CFA_XSP16, literal(-11)))
          CFI (cfiCond100) V0 load(1, XDATA, add(CFA_XSP16, literal(-10)))
          CFI (cfiCond100) V1 load(1, XDATA, add(CFA_XSP16, literal(-9)))
          CFI (cfiCond100) V2 load(1, XDATA, add(CFA_XSP16, literal(-8)))
          CFI (cfiCond100) V3 load(1, XDATA, add(CFA_XSP16, literal(-7)))
          CFI (cfiCond100) R7 load(1, XDATA, add(CFA_XSP16, literal(-6)))
          CFI (cfiCond100) ?RET_LOW load(1, XDATA, add(CFA_XSP16, literal(-5)))
          CFI (cfiCond100) ?RET_HIGH load(1, XDATA, add(CFA_XSP16, literal(-4)))
          CFI (cfiCond100) ?BRET_EXT load(1, XDATA, add(CFA_XSP16, literal(-3)))
          CFI (cfiCond100) DPL0 load(1, XDATA, add(CFA_XSP16, literal(-2)))
          CFI (cfiCond100) DPH0 load(1, XDATA, add(CFA_XSP16, literal(-1)))
          CFI (cfiCond100) CFA_SP SP+0
          CFI (cfiCond100) CFA_XSP16 add(XSP16, 15)
          CFI Block cfiCond101 Using cfiCommon0
          CFI (cfiCond101) Function ZDApp_InMsgCB
          CFI (cfiCond101) Conditional ??CrossCallReturnLabel_78, ??CrossCallReturnLabel_44
          CFI (cfiCond101) R6 load(1, XDATA, add(CFA_XSP16, literal(-10)))
          CFI (cfiCond101) VB load(1, XDATA, add(CFA_XSP16, literal(-9)))
          CFI (cfiCond101) V0 load(1, XDATA, add(CFA_XSP16, literal(-8)))
          CFI (cfiCond101) V1 load(1, XDATA, add(CFA_XSP16, literal(-7)))
          CFI (cfiCond101) R7 load(1, XDATA, add(CFA_XSP16, literal(-6)))
          CFI (cfiCond101) ?RET_LOW load(1, XDATA, add(CFA_XSP16, literal(-5)))
          CFI (cfiCond101) ?RET_HIGH load(1, XDATA, add(CFA_XSP16, literal(-4)))
          CFI (cfiCond101) ?BRET_EXT load(1, XDATA, add(CFA_XSP16, literal(-3)))
          CFI (cfiCond101) DPL0 load(1, XDATA, add(CFA_XSP16, literal(-2)))
          CFI (cfiCond101) DPH0 load(1, XDATA, add(CFA_XSP16, literal(-1)))
          CFI (cfiCond101) CFA_SP SP+0
          CFI (cfiCond101) CFA_XSP16 add(XSP16, 10)
          CFI Block cfiCond102 Using cfiCommon0
          CFI (cfiCond102) Function ZDApp_InitPendingBind
          CFI (cfiCond102) Conditional ??CrossCallReturnLabel_79, ??CrossCallReturnLabel_71
          CFI (cfiCond102) R6 load(1, XDATA, add(CFA_XSP16, literal(-9)))
          CFI (cfiCond102) VB load(1, XDATA, add(CFA_XSP16, literal(-8)))
          CFI (cfiCond102) V0 load(1, XDATA, add(CFA_XSP16, literal(-7)))
          CFI (cfiCond102) R7 load(1, XDATA, add(CFA_XSP16, literal(-6)))
          CFI (cfiCond102) ?RET_LOW load(1, XDATA, add(CFA_XSP16, literal(-5)))
          CFI (cfiCond102) ?RET_HIGH load(1, XDATA, add(CFA_XSP16, literal(-4)))
          CFI (cfiCond102) ?BRET_EXT load(1, XDATA, add(CFA_XSP16, literal(-3)))
          CFI (cfiCond102) DPL0 load(1, XDATA, add(CFA_XSP16, literal(-2)))
          CFI (cfiCond102) DPH0 load(1, XDATA, add(CFA_XSP16, literal(-1)))
          CFI (cfiCond102) CFA_SP SP+0
          CFI (cfiCond102) CFA_XSP16 add(XSP16, 9)
          CFI Block cfiCond103 Using cfiCommon0
          CFI (cfiCond103) Function ZDApp_InitPendingBind
          CFI (cfiCond103) Conditional ??CrossCallReturnLabel_79, ??CrossCallReturnLabel_72
          CFI (cfiCond103) R6 load(1, XDATA, add(CFA_XSP16, literal(-9)))
          CFI (cfiCond103) VB load(1, XDATA, add(CFA_XSP16, literal(-8)))
          CFI (cfiCond103) V0 load(1, XDATA, add(CFA_XSP16, literal(-7)))
          CFI (cfiCond103) R7 load(1, XDATA, add(CFA_XSP16, literal(-6)))
          CFI (cfiCond103) ?RET_LOW load(1, XDATA, add(CFA_XSP16, literal(-5)))
          CFI (cfiCond103) ?RET_HIGH load(1, XDATA, add(CFA_XSP16, literal(-4)))
          CFI (cfiCond103) ?BRET_EXT load(1, XDATA, add(CFA_XSP16, literal(-3)))
          CFI (cfiCond103) DPL0 load(1, XDATA, add(CFA_XSP16, literal(-2)))
          CFI (cfiCond103) DPH0 load(1, XDATA, add(CFA_XSP16, literal(-1)))
          CFI (cfiCond103) CFA_SP SP+0
          CFI (cfiCond103) CFA_XSP16 add(XSP16, 9)
          CFI Block cfiCond104 Using cfiCommon0
          CFI (cfiCond104) Function ZDApp_GetEmptyPendingBindReq
          CFI (cfiCond104) Conditional ??CrossCallReturnLabel_79, ??CrossCallReturnLabel_73
          CFI (cfiCond104) DPL0 Frame(CFA_SP, 4)
          CFI (cfiCond104) DPH0 Frame(CFA_SP, 5)
          CFI (cfiCond104) CFA_SP SP+-5
          CFI Block cfiCond105 Using cfiCommon0
          CFI (cfiCond105) Function ZDApp_ProcessPendingBindReq
          CFI (cfiCond105) Conditional ??CrossCallReturnLabel_79, ??CrossCallReturnLabel_74
          CFI (cfiCond105) R6 load(1, XDATA, add(CFA_XSP16, literal(-15)))
          CFI (cfiCond105) VB load(1, XDATA, add(CFA_XSP16, literal(-14)))
          CFI (cfiCond105) V0 load(1, XDATA, add(CFA_XSP16, literal(-13)))
          CFI (cfiCond105) V1 load(1, XDATA, add(CFA_XSP16, literal(-12)))
          CFI (cfiCond105) V2 load(1, XDATA, add(CFA_XSP16, literal(-11)))
          CFI (cfiCond105) V3 load(1, XDATA, add(CFA_XSP16, literal(-10)))
          CFI (cfiCond105) V4 load(1, XDATA, add(CFA_XSP16, literal(-9)))
          CFI (cfiCond105) V5 load(1, XDATA, add(CFA_XSP16, literal(-8)))
          CFI (cfiCond105) V6 load(1, XDATA, add(CFA_XSP16, literal(-7)))
          CFI (cfiCond105) R7 load(1, XDATA, add(CFA_XSP16, literal(-6)))
          CFI (cfiCond105) ?RET_LOW load(1, XDATA, add(CFA_XSP16, literal(-5)))
          CFI (cfiCond105) ?RET_HIGH load(1, XDATA, add(CFA_XSP16, literal(-4)))
          CFI (cfiCond105) ?BRET_EXT load(1, XDATA, add(CFA_XSP16, literal(-3)))
          CFI (cfiCond105) DPL0 load(1, XDATA, add(CFA_XSP16, literal(-2)))
          CFI (cfiCond105) DPH0 load(1, XDATA, add(CFA_XSP16, literal(-1)))
          CFI (cfiCond105) CFA_SP SP+0
          CFI (cfiCond105) CFA_XSP16 add(XSP16, 16)
          CFI Block cfiCond106 Using cfiCommon0
          CFI (cfiCond106) Function ZDApp_AgeOutPendingBindEntry
          CFI (cfiCond106) Conditional ??CrossCallReturnLabel_79, ??CrossCallReturnLabel_75
          CFI (cfiCond106) R6 load(1, XDATA, add(CFA_XSP16, literal(-12)))
          CFI (cfiCond106) VB load(1, XDATA, add(CFA_XSP16, literal(-11)))
          CFI (cfiCond106) V0 load(1, XDATA, add(CFA_XSP16, literal(-10)))
          CFI (cfiCond106) V1 load(1, XDATA, add(CFA_XSP16, literal(-9)))
          CFI (cfiCond106) V2 load(1, XDATA, add(CFA_XSP16, literal(-8)))
          CFI (cfiCond106) V3 load(1, XDATA, add(CFA_XSP16, literal(-7)))
          CFI (cfiCond106) R7 load(1, XDATA, add(CFA_XSP16, literal(-6)))
          CFI (cfiCond106) ?RET_LOW load(1, XDATA, add(CFA_XSP16, literal(-5)))
          CFI (cfiCond106) ?RET_HIGH load(1, XDATA, add(CFA_XSP16, literal(-4)))
          CFI (cfiCond106) ?BRET_EXT load(1, XDATA, add(CFA_XSP16, literal(-3)))
          CFI (cfiCond106) DPL0 load(1, XDATA, add(CFA_XSP16, literal(-2)))
          CFI (cfiCond106) DPH0 load(1, XDATA, add(CFA_XSP16, literal(-1)))
          CFI (cfiCond106) CFA_SP SP+0
          CFI (cfiCond106) CFA_XSP16 add(XSP16, 26)
          CFI Block cfiCond107 Using cfiCommon0
          CFI (cfiCond107) Function ZDApp_SecInit
          CFI (cfiCond107) Conditional ??CrossCallReturnLabel_79, ??CrossCallReturnLabel_59
          CFI (cfiCond107) R6 load(1, XDATA, add(CFA_XSP16, literal(-9)))
          CFI (cfiCond107) VB load(1, XDATA, add(CFA_XSP16, literal(-8)))
          CFI (cfiCond107) V0 load(1, XDATA, add(CFA_XSP16, literal(-7)))
          CFI (cfiCond107) R7 load(1, XDATA, add(CFA_XSP16, literal(-6)))
          CFI (cfiCond107) ?RET_LOW load(1, XDATA, add(CFA_XSP16, literal(-5)))
          CFI (cfiCond107) ?RET_HIGH load(1, XDATA, add(CFA_XSP16, literal(-4)))
          CFI (cfiCond107) ?BRET_EXT load(1, XDATA, add(CFA_XSP16, literal(-3)))
          CFI (cfiCond107) DPL0 load(1, XDATA, add(CFA_XSP16, literal(-2)))
          CFI (cfiCond107) DPH0 load(1, XDATA, add(CFA_XSP16, literal(-1)))
          CFI (cfiCond107) CFA_SP SP+0
          CFI (cfiCond107) CFA_XSP16 add(XSP16, 25)
          CFI Block cfiCond108 Using cfiCommon0
          CFI (cfiCond108) Function ZDApp_ProcessSecEvent
          CFI (cfiCond108) Conditional ??CrossCallReturnLabel_79, ??CrossCallReturnLabel_60
          CFI (cfiCond108) R6 load(1, XDATA, add(CFA_XSP16, literal(-16)))
          CFI (cfiCond108) VB load(1, XDATA, add(CFA_XSP16, literal(-15)))
          CFI (cfiCond108) V0 load(1, XDATA, add(CFA_XSP16, literal(-14)))
          CFI (cfiCond108) V1 load(1, XDATA, add(CFA_XSP16, literal(-13)))
          CFI (cfiCond108) V2 load(1, XDATA, add(CFA_XSP16, literal(-12)))
          CFI (cfiCond108) V3 load(1, XDATA, add(CFA_XSP16, literal(-11)))
          CFI (cfiCond108) V4 load(1, XDATA, add(CFA_XSP16, literal(-10)))
          CFI (cfiCond108) V5 load(1, XDATA, add(CFA_XSP16, literal(-9)))
          CFI (cfiCond108) V6 load(1, XDATA, add(CFA_XSP16, literal(-8)))
          CFI (cfiCond108) V7 load(1, XDATA, add(CFA_XSP16, literal(-7)))
          CFI (cfiCond108) R7 load(1, XDATA, add(CFA_XSP16, literal(-6)))
          CFI (cfiCond108) ?RET_LOW load(1, XDATA, add(CFA_XSP16, literal(-5)))
          CFI (cfiCond108) ?RET_HIGH load(1, XDATA, add(CFA_XSP16, literal(-4)))
          CFI (cfiCond108) ?BRET_EXT load(1, XDATA, add(CFA_XSP16, literal(-3)))
          CFI (cfiCond108) DPL0 load(1, XDATA, add(CFA_XSP16, literal(-2)))
          CFI (cfiCond108) DPH0 load(1, XDATA, add(CFA_XSP16, literal(-1)))
          CFI (cfiCond108) CFA_SP SP+0
          CFI (cfiCond108) CFA_XSP16 add(XSP16, 16)
          CFI Block cfiCond109 Using cfiCommon0
          CFI (cfiCond109) Function ZDApp_RestoreNetworkState
          CFI (cfiCond109) Conditional ??CrossCallReturnLabel_79, ??CrossCallReturnLabel_61
          CFI (cfiCond109) R6 load(1, XDATA, add(CFA_XSP16, literal(-9)))
          CFI (cfiCond109) VB load(1, XDATA, add(CFA_XSP16, literal(-8)))
          CFI (cfiCond109) V0 load(1, XDATA, add(CFA_XSP16, literal(-7)))
          CFI (cfiCond109) R7 load(1, XDATA, add(CFA_XSP16, literal(-6)))
          CFI (cfiCond109) ?RET_LOW load(1, XDATA, add(CFA_XSP16, literal(-5)))
          CFI (cfiCond109) ?RET_HIGH load(1, XDATA, add(CFA_XSP16, literal(-4)))
          CFI (cfiCond109) ?BRET_EXT load(1, XDATA, add(CFA_XSP16, literal(-3)))
          CFI (cfiCond109) DPL0 load(1, XDATA, add(CFA_XSP16, literal(-2)))
          CFI (cfiCond109) DPH0 load(1, XDATA, add(CFA_XSP16, literal(-1)))
          CFI (cfiCond109) CFA_SP SP+0
          CFI (cfiCond109) CFA_XSP16 add(XSP16, 9)
          CFI Block cfiCond110 Using cfiCommon0
          CFI (cfiCond110) Function ZDApp_ProcessOSALMsg
          CFI (cfiCond110) Conditional ??CrossCallReturnLabel_79, ??CrossCallReturnLabel_62
          CFI (cfiCond110) R6 load(1, XDATA, add(CFA_XSP16, literal(-12)))
          CFI (cfiCond110) VB load(1, XDATA, add(CFA_XSP16, literal(-11)))
          CFI (cfiCond110) V0 load(1, XDATA, add(CFA_XSP16, literal(-10)))
          CFI (cfiCond110) V1 load(1, XDATA, add(CFA_XSP16, literal(-9)))
          CFI (cfiCond110) V2 load(1, XDATA, add(CFA_XSP16, literal(-8)))
          CFI (cfiCond110) V3 load(1, XDATA, add(CFA_XSP16, literal(-7)))
          CFI (cfiCond110) R7 load(1, XDATA, add(CFA_XSP16, literal(-6)))
          CFI (cfiCond110) ?RET_LOW load(1, XDATA, add(CFA_XSP16, literal(-5)))
          CFI (cfiCond110) ?RET_HIGH load(1, XDATA, add(CFA_XSP16, literal(-4)))
          CFI (cfiCond110) ?BRET_EXT load(1, XDATA, add(CFA_XSP16, literal(-3)))
          CFI (cfiCond110) DPL0 load(1, XDATA, add(CFA_XSP16, literal(-2)))
          CFI (cfiCond110) DPH0 load(1, XDATA, add(CFA_XSP16, literal(-1)))
          CFI (cfiCond110) CFA_SP SP+0
          CFI (cfiCond110) CFA_XSP16 add(XSP16, 15)
          CFI Block cfiCond111 Using cfiCommon0
          CFI (cfiCond111) Function ZDApp_LeaveUpdate
          CFI (cfiCond111) Conditional ??CrossCallReturnLabel_79, ??CrossCallReturnLabel_63
          CFI (cfiCond111) R6 load(1, XDATA, add(CFA_XSP16, literal(-15)))
          CFI (cfiCond111) VB load(1, XDATA, add(CFA_XSP16, literal(-14)))
          CFI (cfiCond111) V0 load(1, XDATA, add(CFA_XSP16, literal(-13)))
          CFI (cfiCond111) V1 load(1, XDATA, add(CFA_XSP16, literal(-12)))
          CFI (cfiCond111) V2 load(1, XDATA, add(CFA_XSP16, literal(-11)))
          CFI (cfiCond111) V3 load(1, XDATA, add(CFA_XSP16, literal(-10)))
          CFI (cfiCond111) V4 load(1, XDATA, add(CFA_XSP16, literal(-9)))
          CFI (cfiCond111) V5 load(1, XDATA, add(CFA_XSP16, literal(-8)))
          CFI (cfiCond111) V6 load(1, XDATA, add(CFA_XSP16, literal(-7)))
          CFI (cfiCond111) R7 load(1, XDATA, add(CFA_XSP16, literal(-6)))
          CFI (cfiCond111) ?RET_LOW load(1, XDATA, add(CFA_XSP16, literal(-5)))
          CFI (cfiCond111) ?RET_HIGH load(1, XDATA, add(CFA_XSP16, literal(-4)))
          CFI (cfiCond111) ?BRET_EXT load(1, XDATA, add(CFA_XSP16, literal(-3)))
          CFI (cfiCond111) DPL0 load(1, XDATA, add(CFA_XSP16, literal(-2)))
          CFI (cfiCond111) DPH0 load(1, XDATA, add(CFA_XSP16, literal(-1)))
          CFI (cfiCond111) CFA_SP SP+0
          CFI (cfiCond111) CFA_XSP16 add(XSP16, 32)
          CFI Block cfiCond112 Using cfiCommon0
          CFI (cfiCond112) Function ZDO_NetworkDiscoveryConfirmCB
          CFI (cfiCond112) Conditional ??CrossCallReturnLabel_79, ??CrossCallReturnLabel_64
          CFI (cfiCond112) DPL0 Frame(CFA_SP, 4)
          CFI (cfiCond112) DPH0 Frame(CFA_SP, 5)
          CFI (cfiCond112) CFA_SP SP+-5
          CFI (cfiCond112) CFA_XSP16 add(XSP16, 3)
          CFI Block cfiCond113 Using cfiCommon0
          CFI (cfiCond113) Function ZDO_beaconNotifyIndCB
          CFI (cfiCond113) Conditional ??CrossCallReturnLabel_79, ??CrossCallReturnLabel_65
          CFI (cfiCond113) R6 load(1, XDATA, add(CFA_XSP16, literal(-18)))
          CFI (cfiCond113) VB load(1, XDATA, add(CFA_XSP16, literal(-17)))
          CFI (cfiCond113) V0 load(1, XDATA, add(CFA_XSP16, literal(-16)))
          CFI (cfiCond113) V1 load(1, XDATA, add(CFA_XSP16, literal(-15)))
          CFI (cfiCond113) V2 load(1, XDATA, add(CFA_XSP16, literal(-14)))
          CFI (cfiCond113) V3 load(1, XDATA, add(CFA_XSP16, literal(-13)))
          CFI (cfiCond113) V4 load(1, XDATA, add(CFA_XSP16, literal(-12)))
          CFI (cfiCond113) V5 load(1, XDATA, add(CFA_XSP16, literal(-11)))
          CFI (cfiCond113) V6 load(1, XDATA, add(CFA_XSP16, literal(-10)))
          CFI (cfiCond113) V7 load(1, XDATA, add(CFA_XSP16, literal(-9)))
          CFI (cfiCond113) V8 load(1, XDATA, add(CFA_XSP16, literal(-8)))
          CFI (cfiCond113) V9 load(1, XDATA, add(CFA_XSP16, literal(-7)))
          CFI (cfiCond113) R7 load(1, XDATA, add(CFA_XSP16, literal(-6)))
          CFI (cfiCond113) ?RET_LOW load(1, XDATA, add(CFA_XSP16, literal(-5)))
          CFI (cfiCond113) ?RET_HIGH load(1, XDATA, add(CFA_XSP16, literal(-4)))
          CFI (cfiCond113) ?BRET_EXT load(1, XDATA, add(CFA_XSP16, literal(-3)))
          CFI (cfiCond113) DPL0 load(1, XDATA, add(CFA_XSP16, literal(-2)))
          CFI (cfiCond113) DPH0 load(1, XDATA, add(CFA_XSP16, literal(-1)))
          CFI (cfiCond113) CFA_SP SP+0
          CFI (cfiCond113) CFA_XSP16 add(XSP16, 18)
          CFI Block cfiCond114 Using cfiCommon0
          CFI (cfiCond114) Function ZDO_JoinConfirmCB
          CFI (cfiCond114) Conditional ??CrossCallReturnLabel_79, ??CrossCallReturnLabel_66
          CFI (cfiCond114) R6 load(1, XDATA, add(CFA_XSP16, literal(-9)))
          CFI (cfiCond114) VB load(1, XDATA, add(CFA_XSP16, literal(-8)))
          CFI (cfiCond114) V0 load(1, XDATA, add(CFA_XSP16, literal(-7)))
          CFI (cfiCond114) R7 load(1, XDATA, add(CFA_XSP16, literal(-6)))
          CFI (cfiCond114) ?RET_LOW load(1, XDATA, add(CFA_XSP16, literal(-5)))
          CFI (cfiCond114) ?RET_HIGH load(1, XDATA, add(CFA_XSP16, literal(-4)))
          CFI (cfiCond114) ?BRET_EXT load(1, XDATA, add(CFA_XSP16, literal(-3)))
          CFI (cfiCond114) DPL0 load(1, XDATA, add(CFA_XSP16, literal(-2)))
          CFI (cfiCond114) DPH0 load(1, XDATA, add(CFA_XSP16, literal(-1)))
          CFI (cfiCond114) CFA_SP SP+0
          CFI (cfiCond114) CFA_XSP16 add(XSP16, 14)
          CFI Block cfiCond115 Using cfiCommon0
          CFI (cfiCond115) Function ZDO_JoinIndicationCB
          CFI (cfiCond115) Conditional ??CrossCallReturnLabel_79, ??CrossCallReturnLabel_67
          CFI (cfiCond115) R6 load(1, XDATA, add(CFA_XSP16, literal(-16)))
          CFI (cfiCond115) VB load(1, XDATA, add(CFA_XSP16, literal(-15)))
          CFI (cfiCond115) V0 load(1, XDATA, add(CFA_XSP16, literal(-14)))
          CFI (cfiCond115) V1 load(1, XDATA, add(CFA_XSP16, literal(-13)))
          CFI (cfiCond115) V2 load(1, XDATA, add(CFA_XSP16, literal(-12)))
          CFI (cfiCond115) V3 load(1, XDATA, add(CFA_XSP16, literal(-11)))
          CFI (cfiCond115) V4 load(1, XDATA, add(CFA_XSP16, literal(-10)))
          CFI (cfiCond115) V5 load(1, XDATA, add(CFA_XSP16, literal(-9)))
          CFI (cfiCond115) V6 load(1, XDATA, add(CFA_XSP16, literal(-8)))
          CFI (cfiCond115) V7 load(1, XDATA, add(CFA_XSP16, literal(-7)))
          CFI (cfiCond115) R7 load(1, XDATA, add(CFA_XSP16, literal(-6)))
          CFI (cfiCond115) ?RET_LOW load(1, XDATA, add(CFA_XSP16, literal(-5)))
          CFI (cfiCond115) ?RET_HIGH load(1, XDATA, add(CFA_XSP16, literal(-4)))
          CFI (cfiCond115) ?BRET_EXT load(1, XDATA, add(CFA_XSP16, literal(-3)))
          CFI (cfiCond115) DPL0 load(1, XDATA, add(CFA_XSP16, literal(-2)))
          CFI (cfiCond115) DPH0 load(1, XDATA, add(CFA_XSP16, literal(-1)))
          CFI (cfiCond115) CFA_SP SP+0
          CFI (cfiCond115) CFA_XSP16 add(XSP16, 16)
          CFI Block cfiCond116 Using cfiCommon0
          CFI (cfiCond116) Function ZDO_JoinIndicationCB
          CFI (cfiCond116) Conditional ??CrossCallReturnLabel_79, ??CrossCallReturnLabel_68
          CFI (cfiCond116) R6 load(1, XDATA, add(CFA_XSP16, literal(-16)))
          CFI (cfiCond116) VB load(1, XDATA, add(CFA_XSP16, literal(-15)))
          CFI (cfiCond116) V0 load(1, XDATA, add(CFA_XSP16, literal(-14)))
          CFI (cfiCond116) V1 load(1, XDATA, add(CFA_XSP16, literal(-13)))
          CFI (cfiCond116) V2 load(1, XDATA, add(CFA_XSP16, literal(-12)))
          CFI (cfiCond116) V3 load(1, XDATA, add(CFA_XSP16, literal(-11)))
          CFI (cfiCond116) V4 load(1, XDATA, add(CFA_XSP16, literal(-10)))
          CFI (cfiCond116) V5 load(1, XDATA, add(CFA_XSP16, literal(-9)))
          CFI (cfiCond116) V6 load(1, XDATA, add(CFA_XSP16, literal(-8)))
          CFI (cfiCond116) V7 load(1, XDATA, add(CFA_XSP16, literal(-7)))
          CFI (cfiCond116) R7 load(1, XDATA, add(CFA_XSP16, literal(-6)))
          CFI (cfiCond116) ?RET_LOW load(1, XDATA, add(CFA_XSP16, literal(-5)))
          CFI (cfiCond116) ?RET_HIGH load(1, XDATA, add(CFA_XSP16, literal(-4)))
          CFI (cfiCond116) ?BRET_EXT load(1, XDATA, add(CFA_XSP16, literal(-3)))
          CFI (cfiCond116) DPL0 load(1, XDATA, add(CFA_XSP16, literal(-2)))
          CFI (cfiCond116) DPH0 load(1, XDATA, add(CFA_XSP16, literal(-1)))
          CFI (cfiCond116) CFA_SP SP+0
          CFI (cfiCond116) CFA_XSP16 add(XSP16, 16)
          CFI Block cfiCond117 Using cfiCommon0
          CFI (cfiCond117) Function ZDO_ConcentratorIndicationCB
          CFI (cfiCond117) Conditional ??CrossCallReturnLabel_79, ??CrossCallReturnLabel_69
          CFI (cfiCond117) R6 load(1, XDATA, add(CFA_XSP16, literal(-9)))
          CFI (cfiCond117) VB load(1, XDATA, add(CFA_XSP16, literal(-8)))
          CFI (cfiCond117) V0 load(1, XDATA, add(CFA_XSP16, literal(-7)))
          CFI (cfiCond117) R7 load(1, XDATA, add(CFA_XSP16, literal(-6)))
          CFI (cfiCond117) ?RET_LOW load(1, XDATA, add(CFA_XSP16, literal(-5)))
          CFI (cfiCond117) ?RET_HIGH load(1, XDATA, add(CFA_XSP16, literal(-4)))
          CFI (cfiCond117) ?BRET_EXT load(1, XDATA, add(CFA_XSP16, literal(-3)))
          CFI (cfiCond117) DPL0 load(1, XDATA, add(CFA_XSP16, literal(-2)))
          CFI (cfiCond117) DPH0 load(1, XDATA, add(CFA_XSP16, literal(-1)))
          CFI (cfiCond117) CFA_SP SP+0
          CFI (cfiCond117) CFA_XSP16 add(XSP16, 14)
          CFI Block cfiCond118 Using cfiCommon0
          CFI (cfiCond118) Function ZDO_SrcRtgIndCB
          CFI (cfiCond118) Conditional ??CrossCallReturnLabel_79, ??CrossCallReturnLabel_70
          CFI (cfiCond118) R6 load(1, XDATA, add(CFA_XSP16, literal(-9)))
          CFI (cfiCond118) VB load(1, XDATA, add(CFA_XSP16, literal(-8)))
          CFI (cfiCond118) V0 load(1, XDATA, add(CFA_XSP16, literal(-7)))
          CFI (cfiCond118) R7 load(1, XDATA, add(CFA_XSP16, literal(-6)))
          CFI (cfiCond118) ?RET_LOW load(1, XDATA, add(CFA_XSP16, literal(-5)))
          CFI (cfiCond118) ?RET_HIGH load(1, XDATA, add(CFA_XSP16, literal(-4)))
          CFI (cfiCond118) ?BRET_EXT load(1, XDATA, add(CFA_XSP16, literal(-3)))
          CFI (cfiCond118) DPL0 load(1, XDATA, add(CFA_XSP16, literal(-2)))
          CFI (cfiCond118) DPH0 load(1, XDATA, add(CFA_XSP16, literal(-1)))
          CFI (cfiCond118) CFA_SP SP+0
          CFI (cfiCond118) CFA_XSP16 add(XSP16, 14)
          CFI Block cfiCond119 Using cfiCommon0
          CFI (cfiCond119) Function ZDO_beaconNotifyIndCB
          CFI (cfiCond119) Conditional ??CrossCallReturnLabel_76, ??CrossCallReturnLabel_6
          CFI (cfiCond119) R6 load(1, XDATA, add(CFA_XSP16, literal(-18)))
          CFI (cfiCond119) VB load(1, XDATA, add(CFA_XSP16, literal(-17)))
          CFI (cfiCond119) V0 load(1, XDATA, add(CFA_XSP16, literal(-16)))
          CFI (cfiCond119) V1 load(1, XDATA, add(CFA_XSP16, literal(-15)))
          CFI (cfiCond119) V2 load(1, XDATA, add(CFA_XSP16, literal(-14)))
          CFI (cfiCond119) V3 load(1, XDATA, add(CFA_XSP16, literal(-13)))
          CFI (cfiCond119) V4 load(1, XDATA, add(CFA_XSP16, literal(-12)))
          CFI (cfiCond119) V5 load(1, XDATA, add(CFA_XSP16, literal(-11)))
          CFI (cfiCond119) V6 load(1, XDATA, add(CFA_XSP16, literal(-10)))
          CFI (cfiCond119) V7 load(1, XDATA, add(CFA_XSP16, literal(-9)))
          CFI (cfiCond119) V8 load(1, XDATA, add(CFA_XSP16, literal(-8)))
          CFI (cfiCond119) V9 load(1, XDATA, add(CFA_XSP16, literal(-7)))
          CFI (cfiCond119) R7 load(1, XDATA, add(CFA_XSP16, literal(-6)))
          CFI (cfiCond119) ?RET_LOW load(1, XDATA, add(CFA_XSP16, literal(-5)))
          CFI (cfiCond119) ?RET_HIGH load(1, XDATA, add(CFA_XSP16, literal(-4)))
          CFI (cfiCond119) ?BRET_EXT load(1, XDATA, add(CFA_XSP16, literal(-3)))
          CFI (cfiCond119) DPL0 load(1, XDATA, add(CFA_XSP16, literal(-2)))
          CFI (cfiCond119) DPH0 load(1, XDATA, add(CFA_XSP16, literal(-1)))
          CFI (cfiCond119) CFA_SP SP+0
          CFI (cfiCond119) CFA_XSP16 add(XSP16, 18)
          CFI Block cfiCond120 Using cfiCommon0
          CFI (cfiCond120) Function ZDO_LeaveCnf
          CFI (cfiCond120) Conditional ??CrossCallReturnLabel_76, ??CrossCallReturnLabel_7
          CFI (cfiCond120) R6 load(1, XDATA, add(CFA_XSP16, literal(-10)))
          CFI (cfiCond120) VB load(1, XDATA, add(CFA_XSP16, literal(-9)))
          CFI (cfiCond120) V0 load(1, XDATA, add(CFA_XSP16, literal(-8)))
          CFI (cfiCond120) V1 load(1, XDATA, add(CFA_XSP16, literal(-7)))
          CFI (cfiCond120) R7 load(1, XDATA, add(CFA_XSP16, literal(-6)))
          CFI (cfiCond120) ?RET_LOW load(1, XDATA, add(CFA_XSP16, literal(-5)))
          CFI (cfiCond120) ?RET_HIGH load(1, XDATA, add(CFA_XSP16, literal(-4)))
          CFI (cfiCond120) ?BRET_EXT load(1, XDATA, add(CFA_XSP16, literal(-3)))
          CFI (cfiCond120) DPL0 load(1, XDATA, add(CFA_XSP16, literal(-2)))
          CFI (cfiCond120) DPH0 load(1, XDATA, add(CFA_XSP16, literal(-1)))
          CFI (cfiCond120) CFA_SP SP+0
          CFI (cfiCond120) CFA_XSP16 add(XSP16, 10)
          CFI Block cfiCond121 Using cfiCommon0
          CFI (cfiCond121) Function ZDO_LeaveInd
          CFI (cfiCond121) Conditional ??CrossCallReturnLabel_76, ??CrossCallReturnLabel_8
          CFI (cfiCond121) R6 load(1, XDATA, add(CFA_XSP16, literal(-14)))
          CFI (cfiCond121) VB load(1, XDATA, add(CFA_XSP16, literal(-13)))
          CFI (cfiCond121) V0 load(1, XDATA, add(CFA_XSP16, literal(-12)))
          CFI (cfiCond121) V1 load(1, XDATA, add(CFA_XSP16, literal(-11)))
          CFI (cfiCond121) V2 load(1, XDATA, add(CFA_XSP16, literal(-10)))
          CFI (cfiCond121) V3 load(1, XDATA, add(CFA_XSP16, literal(-9)))
          CFI (cfiCond121) V4 load(1, XDATA, add(CFA_XSP16, literal(-8)))
          CFI (cfiCond121) V5 load(1, XDATA, add(CFA_XSP16, literal(-7)))
          CFI (cfiCond121) R7 load(1, XDATA, add(CFA_XSP16, literal(-6)))
          CFI (cfiCond121) ?RET_LOW load(1, XDATA, add(CFA_XSP16, literal(-5)))
          CFI (cfiCond121) ?RET_HIGH load(1, XDATA, add(CFA_XSP16, literal(-4)))
          CFI (cfiCond121) ?BRET_EXT load(1, XDATA, add(CFA_XSP16, literal(-3)))
          CFI (cfiCond121) DPL0 load(1, XDATA, add(CFA_XSP16, literal(-2)))
          CFI (cfiCond121) DPH0 load(1, XDATA, add(CFA_XSP16, literal(-1)))
          CFI (cfiCond121) CFA_SP SP+0
          CFI (cfiCond121) CFA_XSP16 add(XSP16, 16)
          CFI Block cfiPicker122 Using cfiCommon1
          CFI (cfiPicker122) NoFunction
          CFI (cfiPicker122) Picker
        MOVX    A,@DPTR
        MOV     R0,A
        INC     DPTR
        MOVX    A,@DPTR
        MOV     R1,A
        RET
          CFI EndBlock cfiCond94
          CFI EndBlock cfiCond95
          CFI EndBlock cfiCond96
          CFI EndBlock cfiCond97
          CFI EndBlock cfiCond98
          CFI EndBlock cfiCond99
          CFI EndBlock cfiCond100
          CFI EndBlock cfiCond101
          CFI EndBlock cfiCond102
          CFI EndBlock cfiCond103
          CFI EndBlock cfiCond104
          CFI EndBlock cfiCond105
          CFI EndBlock cfiCond106
          CFI EndBlock cfiCond107
          CFI EndBlock cfiCond108
          CFI EndBlock cfiCond109
          CFI EndBlock cfiCond110
          CFI EndBlock cfiCond111
          CFI EndBlock cfiCond112
          CFI EndBlock cfiCond113
          CFI EndBlock cfiCond114
          CFI EndBlock cfiCond115
          CFI EndBlock cfiCond116
          CFI EndBlock cfiCond117
          CFI EndBlock cfiCond118
          CFI EndBlock cfiCond119
          CFI EndBlock cfiCond120
          CFI EndBlock cfiCond121
          CFI EndBlock cfiPicker122
// 2278 
// 2279 /*********************************************************************
// 2280  * @fn          ZDO_NetworkFormationConfirmCB
// 2281  *
// 2282  * @brief       This function reports the results of the request to
// 2283  *              initialize a coordinator in a network.
// 2284  *
// 2285  * @param       Status - Result of NLME_NetworkFormationRequest()
// 2286  *
// 2287  * @return      none
// 2288  */

        RSEG BANKED_CODE:CODE:NOROOT(0)
// 2289 void ZDO_NetworkFormationConfirmCB( ZStatus_t Status )
ZDO_NetworkFormationConfirmCB:
          CFI Block cfiBlock123 Using cfiCommon0
          CFI Function ZDO_NetworkFormationConfirmCB
        CODE
// 2290 {
        FUNCALL ZDO_NetworkFormationConfirmCB, HalLedSet
        LOCFRAME ISTACK, 0, STACK
        LOCFRAME PSTACK, 0, STACK
        LOCFRAME XSTACK, 9, STACK
        LOCFRAME IOVERLAY, 0, STATIC
        LOCFRAME DOVERLAY, 0, STATIC
        ARGFRAME ISTACK, 0, STACK
        ARGFRAME PSTACK, 0, STACK
        ARGFRAME XSTACK, 9, STACK
        ARGFRAME IOVERLAY, 0, STATIC
        ARGFRAME DOVERLAY, 0, STATIC
        FUNCALL ZDO_NetworkFormationConfirmCB, HalLedSet
        LOCFRAME ISTACK, 0, STACK
        LOCFRAME PSTACK, 0, STACK
        LOCFRAME XSTACK, 9, STACK
        LOCFRAME IOVERLAY, 0, STATIC
        LOCFRAME DOVERLAY, 0, STATIC
        ARGFRAME ISTACK, 0, STACK
        ARGFRAME PSTACK, 0, STACK
        ARGFRAME XSTACK, 9, STACK
        ARGFRAME IOVERLAY, 0, STATIC
        ARGFRAME DOVERLAY, 0, STATIC
        FUNCALL ZDO_NetworkFormationConfirmCB, HalLedSet
        LOCFRAME ISTACK, 0, STACK
        LOCFRAME PSTACK, 0, STACK
        LOCFRAME XSTACK, 9, STACK
        LOCFRAME IOVERLAY, 0, STATIC
        LOCFRAME DOVERLAY, 0, STATIC
        ARGFRAME ISTACK, 0, STACK
        ARGFRAME PSTACK, 0, STACK
        ARGFRAME XSTACK, 9, STACK
        ARGFRAME IOVERLAY, 0, STATIC
        ARGFRAME DOVERLAY, 0, STATIC
        FUNCALL ZDO_NetworkFormationConfirmCB, osal_set_event
        LOCFRAME ISTACK, 0, STACK
        LOCFRAME PSTACK, 0, STACK
        LOCFRAME XSTACK, 9, STACK
        LOCFRAME IOVERLAY, 0, STATIC
        LOCFRAME DOVERLAY, 0, STATIC
        ARGFRAME ISTACK, 0, STACK
        ARGFRAME PSTACK, 0, STACK
        ARGFRAME XSTACK, 9, STACK
        ARGFRAME IOVERLAY, 0, STATIC
        ARGFRAME DOVERLAY, 0, STATIC
        MOV     A,#-0x9
        LCALL   ?BANKED_ENTER_XDATA
          CFI DPH0 load(1, XDATA, add(CFA_XSP16, literal(-1)))
          CFI DPL0 load(1, XDATA, add(CFA_XSP16, literal(-2)))
          CFI ?BRET_EXT load(1, XDATA, add(CFA_XSP16, literal(-3)))
          CFI ?RET_HIGH load(1, XDATA, add(CFA_XSP16, literal(-4)))
          CFI ?RET_LOW load(1, XDATA, add(CFA_XSP16, literal(-5)))
          CFI R7 load(1, XDATA, add(CFA_XSP16, literal(-6)))
          CFI V0 load(1, XDATA, add(CFA_XSP16, literal(-7)))
          CFI VB load(1, XDATA, add(CFA_XSP16, literal(-8)))
          CFI R6 load(1, XDATA, add(CFA_XSP16, literal(-9)))
          CFI CFA_SP SP+0
          CFI CFA_XSP16 add(XSP16, 9)
        ; Saved register size: 9
        ; Auto size: 0
        MOV     A,R1
// 2291   nwkStatus = (byte)Status;
        MOV     DPTR,#nwkStatus
        MOVX    @DPTR,A
// 2292 
// 2293   if ( Status == ZSUCCESS )
        JNZ     ??ZDO_NetworkFormationConfirmCB_0
// 2294   {
// 2295     // LED on shows Coordinator started
// 2296     HalLedSet ( HAL_LED_3, HAL_LED_MODE_ON );
        ; Setup parameters for call to function HalLedSet
        MOV     R2,#0x1
        MOV     R1,#0x4
        LCALL   ??HalLedSet?relay
// 2297 
// 2298     // LED off forgets HOLD_AUTO_START
// 2299     HalLedSet (HAL_LED_4, HAL_LED_MODE_OFF);
        ; Setup parameters for call to function HalLedSet
        MOV     R2,#0x0
        MOV     R1,#0x8
        LCALL   ??HalLedSet?relay
// 2300 
// 2301 #if defined ( ZBIT )
// 2302     SIM_SetColor(0xd0ffd0);
// 2303 #endif
// 2304 
// 2305     if ( devState == DEV_HOLD )
        MOV     DPTR,#devState
        MOVX    A,@DPTR
        JNZ     ??ZDO_NetworkFormationConfirmCB_1
// 2306     {
// 2307       // Began with HOLD_AUTO_START
// 2308       devState = DEV_COORD_STARTING;
        MOV     A,#0x8
        MOVX    @DPTR,A
        SJMP    ??ZDO_NetworkFormationConfirmCB_1
// 2309     }
// 2310   }
// 2311 #if defined(BLINK_LEDS)
// 2312   else
// 2313   {
// 2314     HalLedSet ( HAL_LED_3, HAL_LED_MODE_FLASH );  // Flash LED to show failure
??ZDO_NetworkFormationConfirmCB_0:
        ; Setup parameters for call to function HalLedSet
        MOV     R2,#0x4
        MOV     R1,#0x4
        LCALL   ??HalLedSet?relay
// 2315   }
// 2316 #endif
// 2317 
// 2318   osal_set_event( ZDAppTaskID, ZDO_NETWORK_START );
??ZDO_NetworkFormationConfirmCB_1:
        ; Setup parameters for call to function osal_set_event
        MOV     R2,#0x2
        LJMP    ?Subroutine0 & 0xFFFF
          CFI EndBlock cfiBlock123
// 2319 }
// 2320 
// 2321 /****************************************************************************
// 2322  * @fn          ZDApp_beaconIndProcessing
// 2323  *
// 2324  * @brief       This function processes the incoming beacon indication.
// 2325  *
// 2326  *              When another task (MT or App) is registered to process
// 2327  *              beacon indication themselves, this function will parse the
// 2328  *              beacon payload and pass the beacon descriptor to that task
// 2329  *              If no other tasks registered, this function will process
// 2330  *              the beacon payload and generate the network descriptor link
// 2331  *              list.
// 2332  *
// 2333  * @param
// 2334  *
// 2335  * @return      none
// 2336  *
// 2337  */

        RSEG BANKED_CODE:CODE:NOROOT(0)
// 2338 void ZDO_beaconNotifyIndCB( NLME_beaconInd_t *pBeacon )
ZDO_beaconNotifyIndCB:
          CFI Block cfiBlock124 Using cfiCommon0
          CFI Function ZDO_beaconNotifyIndCB
        CODE
// 2339 {
        FUNCALL ZDO_beaconNotifyIndCB, osal_mem_alloc
        LOCFRAME ISTACK, 0, STACK
        LOCFRAME PSTACK, 0, STACK
        LOCFRAME XSTACK, 18, STACK
        LOCFRAME IOVERLAY, 0, STATIC
        LOCFRAME DOVERLAY, 0, STATIC
        ARGFRAME ISTACK, 0, STACK
        ARGFRAME PSTACK, 0, STACK
        ARGFRAME XSTACK, 18, STACK
        ARGFRAME IOVERLAY, 0, STATIC
        ARGFRAME DOVERLAY, 0, STATIC
        FUNCALL ZDO_beaconNotifyIndCB, osal_memset
        LOCFRAME ISTACK, 0, STACK
        LOCFRAME PSTACK, 0, STACK
        LOCFRAME XSTACK, 18, STACK
        LOCFRAME IOVERLAY, 0, STATIC
        LOCFRAME DOVERLAY, 0, STATIC
        ARGFRAME ISTACK, 0, STACK
        ARGFRAME PSTACK, 0, STACK
        ARGFRAME XSTACK, 18, STACK
        ARGFRAME IOVERLAY, 0, STATIC
        ARGFRAME DOVERLAY, 0, STATIC
        FUNCALL ZDO_beaconNotifyIndCB, sAddrExtCpy
        LOCFRAME ISTACK, 0, STACK
        LOCFRAME PSTACK, 0, STACK
        LOCFRAME XSTACK, 18, STACK
        LOCFRAME IOVERLAY, 0, STATIC
        LOCFRAME DOVERLAY, 0, STATIC
        ARGFRAME ISTACK, 0, STACK
        ARGFRAME PSTACK, 0, STACK
        ARGFRAME XSTACK, 18, STACK
        ARGFRAME IOVERLAY, 0, STATIC
        ARGFRAME DOVERLAY, 0, STATIC
        FUNCALL ZDO_beaconNotifyIndCB, osal_memset
        LOCFRAME ISTACK, 0, STACK
        LOCFRAME PSTACK, 0, STACK
        LOCFRAME XSTACK, 18, STACK
        LOCFRAME IOVERLAY, 0, STATIC
        LOCFRAME DOVERLAY, 0, STATIC
        ARGFRAME ISTACK, 0, STACK
        ARGFRAME PSTACK, 0, STACK
        ARGFRAME XSTACK, 18, STACK
        ARGFRAME IOVERLAY, 0, STATIC
        ARGFRAME DOVERLAY, 0, STATIC
        MOV     A,#-0x12
        LCALL   ?BANKED_ENTER_XDATA
          CFI DPH0 load(1, XDATA, add(CFA_XSP16, literal(-1)))
          CFI DPL0 load(1, XDATA, add(CFA_XSP16, literal(-2)))
          CFI ?BRET_EXT load(1, XDATA, add(CFA_XSP16, literal(-3)))
          CFI ?RET_HIGH load(1, XDATA, add(CFA_XSP16, literal(-4)))
          CFI ?RET_LOW load(1, XDATA, add(CFA_XSP16, literal(-5)))
          CFI R7 load(1, XDATA, add(CFA_XSP16, literal(-6)))
          CFI V9 load(1, XDATA, add(CFA_XSP16, literal(-7)))
          CFI V8 load(1, XDATA, add(CFA_XSP16, literal(-8)))
          CFI V7 load(1, XDATA, add(CFA_XSP16, literal(-9)))
          CFI V6 load(1, XDATA, add(CFA_XSP16, literal(-10)))
          CFI V5 load(1, XDATA, add(CFA_XSP16, literal(-11)))
          CFI V4 load(1, XDATA, add(CFA_XSP16, literal(-12)))
          CFI V3 load(1, XDATA, add(CFA_XSP16, literal(-13)))
          CFI V2 load(1, XDATA, add(CFA_XSP16, literal(-14)))
          CFI V1 load(1, XDATA, add(CFA_XSP16, literal(-15)))
          CFI V0 load(1, XDATA, add(CFA_XSP16, literal(-16)))
          CFI VB load(1, XDATA, add(CFA_XSP16, literal(-17)))
          CFI R6 load(1, XDATA, add(CFA_XSP16, literal(-18)))
          CFI CFA_SP SP+0
          CFI CFA_XSP16 add(XSP16, 18)
        ; Saved register size: 18
        ; Auto size: 0
        MOV     ?V0 + 0,R2
        MOV     ?V0 + 1,R3
// 2340   // Pass the beacon Indication to another task if it registers the callback
// 2341   // Otherwise, process the beacon notification here.
// 2342   if (zdoCBFunc[ZDO_BEACON_NOTIFY_IND_CBID] != NULL )
        MOV     DPTR,#zdoCBFunc + 6
        LCALL   ?Subroutine17 & 0xFFFF
??CrossCallReturnLabel_6:
        JZ      ??ZDO_beaconNotifyIndCB_0
// 2343   {
// 2344     zdoCBFunc[ZDO_BEACON_NOTIFY_IND_CBID]( (void*)pBeacon );
        ; Setup parameters for indirect call
        LCALL   ?CALL_IND
        LJMP    ??ZDO_beaconNotifyIndCB_1 & 0xFFFF
// 2345   }
// 2346   else
// 2347   {
// 2348     networkDesc_t *pNwkDesc;
// 2349     networkDesc_t *pLastNwkDesc;
// 2350     uint8 found = false;
// 2351 
// 2352     // Add the network to the Network Descriptor List
// 2353     pNwkDesc = NwkDescList;
??ZDO_beaconNotifyIndCB_0:
        MOV     DPTR,#NwkDescList
        LCALL   ??Subroutine45_0 & 0xFFFF
// 2354     pLastNwkDesc = NwkDescList;
??CrossCallReturnLabel_80:
        MOV     DPTR,#NwkDescList
        LCALL   ?Subroutine23 & 0xFFFF
??CrossCallReturnLabel_18:
        MOV     A,R2
        ADD     A,#0x4
        MOV     ?V0 + 6,A
        MOV     A,R3
        ADDC    A,#0x0
        MOV     ?V0 + 7,A
        MOV     A,R2
        ADD     A,#0x2
        MOV     ?V0 + 4,A
        MOV     A,R3
        ADDC    A,#0x0
        MOV     ?V0 + 5,A
        SJMP    ??CrossCallReturnLabel_85
// 2355     while (pNwkDesc)
// 2356     {
// 2357       if ((pNwkDesc->panId == pBeacon->panID) &&
// 2358           (pNwkDesc->logicalChannel == pBeacon->logicalChannel))
??ZDO_beaconNotifyIndCB_2:
        LCALL   ?Subroutine26 & 0xFFFF
??CrossCallReturnLabel_46:
        MOV     DPL,?V0 + 4
        MOV     DPH,?V0 + 5
        MOVX    A,@DPTR
        XRL     A,R0
        JNZ     ??ZDO_beaconNotifyIndCB_3
        INC     DPTR
        MOVX    A,@DPTR
        XRL     A,R1
??ZDO_beaconNotifyIndCB_3:
        JNZ     ??ZDO_beaconNotifyIndCB_4
        MOV     DPL,R6
        MOV     DPH,R7
        INC     DPTR
        INC     DPTR
        MOVX    A,@DPTR
        MOV     R0,A
        MOV     DPL,?V0 + 6
        MOV     DPH,?V0 + 7
        MOVX    A,@DPTR
        XRL     A,R0
        JZ      ??ZDO_beaconNotifyIndCB_5
// 2359       {
// 2360         found = true;
// 2361         break;
// 2362       }
// 2363       pLastNwkDesc = pNwkDesc;
??ZDO_beaconNotifyIndCB_4:
        MOV     ?V0 + 2,R6
        MOV     ?V0 + 3,R7
// 2364       pNwkDesc = pNwkDesc->nextDesc;
        LCALL   ?Subroutine20 & 0xFFFF
// 2365     }
??CrossCallReturnLabel_85:
        MOV     A,R6
        ORL     A,R7
        JNZ     ??ZDO_beaconNotifyIndCB_2
// 2366 
// 2367     // If no existing descriptor found, make a new one and add to the list
// 2368     if (found == false)
// 2369     {
// 2370       pNwkDesc = osal_mem_alloc( sizeof(networkDesc_t)  );
        ; Setup parameters for call to function osal_mem_alloc
        MOV     R2,#0x16
        MOV     R3,#0x0
        LCALL   ??osal_mem_alloc?relay
        MOV     ?V0 + 8,R2
        MOV     ?V0 + 9,R3
        MOV     R6,?V0 + 8
        MOV     R7,?V0 + 9
// 2371       if ( !pNwkDesc )
        MOV     A,R6
        ORL     A,R7
        JNZ     $+5
        LJMP    ??ZDO_beaconNotifyIndCB_1 & 0xFFFF
// 2372       {
// 2373         // Memory alloc failed, discard this beacon
// 2374         return;
// 2375       }
// 2376 
// 2377       // Clear the network descriptor
// 2378       osal_memset( pNwkDesc, 0, sizeof(networkDesc_t)  );
        ; Setup parameters for call to function osal_memset
        MOV     R4,#0x16
        MOV     R5,#0x0
        MOV     R1,#0x0
        LCALL   ??osal_memset?relay
// 2379 
// 2380       // Initialize the descriptor
// 2381       pNwkDesc->chosenRouter = INVALID_NODE_ADDR;
        MOV     DPL,R6
        MOV     DPH,R7
        INC     DPTR
        INC     DPTR
        INC     DPTR
        INC     DPTR
        INC     DPTR
        INC     DPTR
        INC     DPTR
        MOV     A,#-0x2
        MOVX    @DPTR,A
        INC     DPTR
        INC     A
        MOVX    @DPTR,A
// 2382       pNwkDesc->chosenRouterDepth = 0xFF;
        MOV     DPL,R6
        MOV     DPH,R7
        INC     DPTR
        INC     DPTR
        INC     DPTR
        INC     DPTR
        INC     DPTR
        INC     DPTR
        INC     DPTR
        INC     DPTR
        INC     DPTR
        INC     DPTR
        MOVX    @DPTR,A
// 2383 
// 2384       // Save new entry into the descriptor list
// 2385       if ( !NwkDescList )
        MOV     DPTR,#NwkDescList
        LCALL   ??Subroutine43_0 & 0xFFFF
??CrossCallReturnLabel_65:
        JNZ     ??ZDO_beaconNotifyIndCB_6
// 2386       {
// 2387         NwkDescList = pNwkDesc;
        MOV     DPTR,#NwkDescList
        SJMP    ??CrossCallReturnLabel_111
// 2388       }
// 2389       else
// 2390       {
// 2391         pLastNwkDesc->nextDesc = pNwkDesc;
??ZDO_beaconNotifyIndCB_6:
        MOV     A,?V0 + 2
        ADD     A,#0x14
        MOV     DPL,A
        MOV     A,?V0 + 3
        LCALL   ??Subroutine46_0 & 0xFFFF
// 2392       }
// 2393     }
??CrossCallReturnLabel_111:
        MOV     A,R6
        MOVX    @DPTR,A
        INC     DPTR
        MOV     A,R7
        MOVX    @DPTR,A
// 2394 
// 2395     // Update the descriptor with the incoming beacon
// 2396     pNwkDesc->stackProfile   = pBeacon->stackProfile;
??ZDO_beaconNotifyIndCB_5:
        MOV     DPL,?V0 + 0
        MOV     DPH,?V0 + 1
        INC     DPTR
        INC     DPTR
        INC     DPTR
        INC     DPTR
        INC     DPTR
        INC     DPTR
        INC     DPTR
        INC     DPTR
        INC     DPTR
        LCALL   ?Subroutine24 & 0xFFFF
??CrossCallReturnLabel_19:
        INC     DPTR
        MOVX    @DPTR,A
// 2397     pNwkDesc->version        = pBeacon->protocolVersion;
        MOV     A,?V0 + 0
        ADD     A,#0x8
        MOV     R0,A
        MOV     A,?V0 + 1
        ADDC    A,#0x0
        MOV     R1,A
        MOV     DPL,R0
        MOV     DPH,R1
        LCALL   ?Subroutine24 & 0xFFFF
??CrossCallReturnLabel_20:
        MOVX    @DPTR,A
// 2398     pNwkDesc->logicalChannel = pBeacon->logicalChannel;
        MOV     DPL,?V0 + 6
        MOV     DPH,?V0 + 7
        MOVX    A,@DPTR
        MOV     DPL,R6
        MOV     DPH,R7
        INC     DPTR
        INC     DPTR
        MOVX    @DPTR,A
// 2399     pNwkDesc->panId          = pBeacon->panID;
        MOV     DPL,?V0 + 4
        MOV     DPH,?V0 + 5
        LCALL   ??Subroutine42_0 & 0xFFFF
??CrossCallReturnLabel_53:
        MOV     DPL,R6
        MOV     DPH,R7
        LCALL   ??Subroutine50_0 & 0xFFFF
// 2400     pNwkDesc->updateId       = pBeacon->updateID;
??CrossCallReturnLabel_96:
        MOV     A,?V0 + 0
        ADD     A,#0xc
        MOV     DPL,A
        MOV     A,?V0 + 1
        LCALL   ??Subroutine53_0 & 0xFFFF
??CrossCallReturnLabel_103:
        PUSH    A
          CFI CFA_SP SP+-1
        MOV     A,R6
        ADD     A,#0x13
        LCALL   ?Subroutine34 & 0xFFFF
??CrossCallReturnLabel_113:
        POP     A
          CFI CFA_SP SP+0
        MOVX    @DPTR,A
// 2401 
// 2402     // Save the extended PAN ID from the beacon payload only if 1.1 version network
// 2403     if ( pBeacon->protocolVersion != ZB_PROT_V1_0 )
        MOV     A,R6
        ADD     A,#0xb
        MOV     R2,A
        MOV     A,R7
        ADDC    A,#0x0
        MOV     R3,A
        MOV     DPL,R0
        MOV     DPH,R1
        MOVX    A,@DPTR
        XRL     A,#0x1
        JZ      ??ZDO_beaconNotifyIndCB_7
// 2404     {
// 2405       osal_cpyExtAddr( pNwkDesc->extendedPANID, pBeacon->extendedPanID );
        ; Setup parameters for call to function sAddrExtCpy
        MOV     A,?V0 + 0
        ADD     A,#0xd
        MOV     R4,A
        MOV     A,?V0 + 1
        ADDC    A,#0x0
        MOV     R5,A
        LCALL   ??sAddrExtCpy?relay
        SJMP    ??ZDO_beaconNotifyIndCB_8
// 2406     }
// 2407     else
// 2408     {
// 2409       osal_memset( pNwkDesc->extendedPANID, 0xFF, Z_EXTADDR_LEN );
??ZDO_beaconNotifyIndCB_7:
        ; Setup parameters for call to function osal_memset
        MOV     R4,#0x8
        MOV     R5,#0x0
        MOV     R1,#-0x1
        LCALL   ??osal_memset?relay
// 2410     }
// 2411 
// 2412     // check if this device is a better choice to join...
// 2413     // ...dont bother checking assocPermit flag is doing a rejoin
// 2414     if ( ( pBeacon->LQI > gMIN_TREE_LINK_COST ) &&
// 2415         ( ( pBeacon->permitJoining == TRUE ) || ( _tmpRejoinState ) ) )
??ZDO_beaconNotifyIndCB_8:
        MOV     A,?V0 + 0
        ADD     A,#0xa
        MOV     R0,A
        MOV     A,?V0 + 1
        ADDC    A,#0x0
        MOV     R1,A
        MOV     DPL,R0
        MOV     DPH,R1
        MOVX    A,@DPTR
        MOV     ?V0 + 6,A
        MOV     DPTR,#gMIN_TREE_LINK_COST
        MOVX    A,@DPTR
        CLR     C
        SUBB    A,?V0 + 6
        JC      $+5
        LJMP    ??ZDO_beaconNotifyIndCB_1 & 0xFFFF
        MOV     DPL,?V0 + 0
        MOV     DPH,?V0 + 1
        INC     DPTR
        INC     DPTR
        INC     DPTR
        INC     DPTR
        INC     DPTR
        MOVX    A,@DPTR
        XRL     A,#0x1
        JZ      ??ZDO_beaconNotifyIndCB_9
        MOV     DPTR,#_tmpRejoinState
        MOVX    A,@DPTR
        JNZ     $+5
        LJMP    ??ZDO_beaconNotifyIndCB_1 & 0xFFFF
// 2416     {
// 2417       uint8 selected = FALSE;
// 2418       uint8 capacity = FALSE;
// 2419 
// 2420       if ( _NIB.nwkAddrAlloc == NWK_ADDRESSING_STOCHASTIC )
??ZDO_beaconNotifyIndCB_9:
        MOV     A,?V0 + 0
        ADD     A,#0x6
        MOV     R2,A
        MOV     A,?V0 + 1
        ADDC    A,#0x0
        MOV     R3,A
        MOV     A,R6
        ADD     A,#0xa
        MOV     R4,A
        MOV     A,R7
        ADDC    A,#0x0
        MOV     R5,A
        MOV     A,?V0 + 0
        ADD     A,#0xb
        MOV     ?V0 + 2,A
        MOV     A,?V0 + 1
        ADDC    A,#0x0
        MOV     ?V0 + 3,A
        MOV     A,R6
        ADD     A,#0x9
        MOV     ?V0 + 4,A
        MOV     A,R7
        ADDC    A,#0x0
        MOV     ?V0 + 5,A
        MOV     DPTR,#_NIB + 96
        MOVX    A,@DPTR
        XRL     A,#0x2
        JNZ     ??ZDO_beaconNotifyIndCB_10
// 2421       {
// 2422         if ( ((pBeacon->LQI   > pNwkDesc->chosenRouterLinkQuality) &&
// 2423               (pBeacon->depth < MAX_NODE_DEPTH)) ||
// 2424             ((pBeacon->LQI   == pNwkDesc->chosenRouterLinkQuality) &&
// 2425              (pBeacon->depth < pNwkDesc->chosenRouterDepth)) )
        MOV     DPL,?V0 + 4
        MOV     DPH,?V0 + 5
        MOVX    A,@DPTR
        MOV     ?V0 + 7,A
        CLR     C
        SUBB    A,?V0 + 6
        JNC     ??ZDO_beaconNotifyIndCB_11
        MOV     DPL,?V0 + 2
        MOV     DPH,?V0 + 3
        MOVX    A,@DPTR
        CLR     C
        SUBB    A,#0x14
        JC      ??ZDO_beaconNotifyIndCB_12
        SJMP    ??ZDO_beaconNotifyIndCB_13
??ZDO_beaconNotifyIndCB_11:
        MOV     A,?V0 + 7
        XRL     A,?V0 + 6
        JNZ     ??ZDO_beaconNotifyIndCB_13
// 2426         {
// 2427           selected = TRUE;
// 2428         }
// 2429       }
// 2430       else
// 2431       {
// 2432         if ( pBeacon->depth < pNwkDesc->chosenRouterDepth )
??ZDO_beaconNotifyIndCB_10:
        MOV     DPL,R4
        MOV     DPH,R5
        MOVX    A,@DPTR
        MOV     ?V0 + 6,A
        MOV     DPL,?V0 + 2
        MOV     DPH,?V0 + 3
        MOVX    A,@DPTR
        CLR     C
        SUBB    A,?V0 + 6
        JNC     ??ZDO_beaconNotifyIndCB_13
// 2433         {
// 2434           selected = TRUE;
// 2435         }
// 2436       }
// 2437 
// 2438       if ( ZSTACK_ROUTER_BUILD )
// 2439       {
// 2440         capacity = pBeacon->routerCapacity;
// 2441       }
// 2442       else if ( ZSTACK_END_DEVICE_BUILD )
// 2443       {
// 2444         capacity = pBeacon->deviceCapacity;
// 2445       }
// 2446 
// 2447       if ( (capacity) && (selected) )
??ZDO_beaconNotifyIndCB_12:
        MOV     DPL,R2
        MOV     DPH,R3
        MOVX    A,@DPTR
        JZ      ??ZDO_beaconNotifyIndCB_13
// 2448       {
// 2449         // this is the new chosen router for joining...
// 2450         pNwkDesc->chosenRouter            = pBeacon->sourceAddr;
        MOV     DPL,?V0 + 0
        MOV     DPH,?V0 + 1
        MOVX    A,@DPTR
        MOV     ?V0 + 6,A
        INC     DPTR
        MOVX    A,@DPTR
        MOV     ?V0 + 7,A
        MOV     DPL,R6
        MOV     DPH,R7
        INC     DPTR
        INC     DPTR
        INC     DPTR
        INC     DPTR
        INC     DPTR
        INC     DPTR
        INC     DPTR
        MOV     A,?V0 + 6
        MOVX    @DPTR,A
        INC     DPTR
        MOV     A,?V0 + 7
        MOVX    @DPTR,A
// 2451         pNwkDesc->chosenRouterLinkQuality = pBeacon->LQI;
        MOV     DPL,R0
        MOV     DPH,R1
        MOVX    A,@DPTR
        MOV     DPL,?V0 + 4
        MOV     DPH,?V0 + 5
        MOVX    @DPTR,A
// 2452         pNwkDesc->chosenRouterDepth       = pBeacon->depth;
        MOV     DPL,?V0 + 2
        MOV     DPH,?V0 + 3
        MOVX    A,@DPTR
        MOV     DPL,R4
        MOV     DPH,R5
        MOVX    @DPTR,A
// 2453       }
// 2454 
// 2455       if ( pBeacon->deviceCapacity )
??ZDO_beaconNotifyIndCB_13:
        MOV     DPL,?V0 + 0
        MOV     DPH,?V0 + 1
        INC     DPTR
        INC     DPTR
        INC     DPTR
        INC     DPTR
        INC     DPTR
        INC     DPTR
        INC     DPTR
        MOVX    A,@DPTR
        JZ      ??ZDO_beaconNotifyIndCB_14
// 2456         pNwkDesc->deviceCapacity = 1;
        MOV     DPL,R6
        MOV     DPH,R7
        INC     DPTR
        INC     DPTR
        INC     DPTR
        INC     DPTR
        MOV     A,#0x1
        MOVX    @DPTR,A
// 2457 
// 2458       if ( pBeacon->routerCapacity )
??ZDO_beaconNotifyIndCB_14:
        MOV     DPL,R2
        MOV     DPH,R3
        MOVX    A,@DPTR
        JZ      ??ZDO_beaconNotifyIndCB_1
// 2459         pNwkDesc->routerCapacity = 1;
        MOV     DPL,R6
        MOV     DPH,R7
        INC     DPTR
        INC     DPTR
        INC     DPTR
        MOV     A,#0x1
        MOVX    @DPTR,A
??ZDO_beaconNotifyIndCB_1:
        MOV     R7,#0xa
        LJMP    ?BANKED_LEAVE_XDATA
          CFI EndBlock cfiBlock124
// 2460     }
// 2461   }
// 2462 }

        RSEG BANKED_CODE:CODE:NOROOT(0)
?Subroutine24:
          CFI Block cfiCond125 Using cfiCommon0
          CFI Function ZDO_beaconNotifyIndCB
          CFI Conditional ??CrossCallReturnLabel_19
          CFI R6 load(1, XDATA, add(CFA_XSP16, literal(-18)))
          CFI VB load(1, XDATA, add(CFA_XSP16, literal(-17)))
          CFI V0 load(1, XDATA, add(CFA_XSP16, literal(-16)))
          CFI V1 load(1, XDATA, add(CFA_XSP16, literal(-15)))
          CFI V2 load(1, XDATA, add(CFA_XSP16, literal(-14)))
          CFI V3 load(1, XDATA, add(CFA_XSP16, literal(-13)))
          CFI V4 load(1, XDATA, add(CFA_XSP16, literal(-12)))
          CFI V5 load(1, XDATA, add(CFA_XSP16, literal(-11)))
          CFI V6 load(1, XDATA, add(CFA_XSP16, literal(-10)))
          CFI V7 load(1, XDATA, add(CFA_XSP16, literal(-9)))
          CFI V8 load(1, XDATA, add(CFA_XSP16, literal(-8)))
          CFI V9 load(1, XDATA, add(CFA_XSP16, literal(-7)))
          CFI R7 load(1, XDATA, add(CFA_XSP16, literal(-6)))
          CFI ?RET_LOW load(1, XDATA, add(CFA_XSP16, literal(-5)))
          CFI ?RET_HIGH load(1, XDATA, add(CFA_XSP16, literal(-4)))
          CFI ?BRET_EXT load(1, XDATA, add(CFA_XSP16, literal(-3)))
          CFI DPL0 load(1, XDATA, add(CFA_XSP16, literal(-2)))
          CFI DPH0 load(1, XDATA, add(CFA_XSP16, literal(-1)))
          CFI CFA_SP SP+0
          CFI CFA_XSP16 add(XSP16, 18)
          CFI Block cfiCond126 Using cfiCommon0
          CFI (cfiCond126) Function ZDO_beaconNotifyIndCB
          CFI (cfiCond126) Conditional ??CrossCallReturnLabel_20
          CFI (cfiCond126) R6 load(1, XDATA, add(CFA_XSP16, literal(-18)))
          CFI (cfiCond126) VB load(1, XDATA, add(CFA_XSP16, literal(-17)))
          CFI (cfiCond126) V0 load(1, XDATA, add(CFA_XSP16, literal(-16)))
          CFI (cfiCond126) V1 load(1, XDATA, add(CFA_XSP16, literal(-15)))
          CFI (cfiCond126) V2 load(1, XDATA, add(CFA_XSP16, literal(-14)))
          CFI (cfiCond126) V3 load(1, XDATA, add(CFA_XSP16, literal(-13)))
          CFI (cfiCond126) V4 load(1, XDATA, add(CFA_XSP16, literal(-12)))
          CFI (cfiCond126) V5 load(1, XDATA, add(CFA_XSP16, literal(-11)))
          CFI (cfiCond126) V6 load(1, XDATA, add(CFA_XSP16, literal(-10)))
          CFI (cfiCond126) V7 load(1, XDATA, add(CFA_XSP16, literal(-9)))
          CFI (cfiCond126) V8 load(1, XDATA, add(CFA_XSP16, literal(-8)))
          CFI (cfiCond126) V9 load(1, XDATA, add(CFA_XSP16, literal(-7)))
          CFI (cfiCond126) R7 load(1, XDATA, add(CFA_XSP16, literal(-6)))
          CFI (cfiCond126) ?RET_LOW load(1, XDATA, add(CFA_XSP16, literal(-5)))
          CFI (cfiCond126) ?RET_HIGH load(1, XDATA, add(CFA_XSP16, literal(-4)))
          CFI (cfiCond126) ?BRET_EXT load(1, XDATA, add(CFA_XSP16, literal(-3)))
          CFI (cfiCond126) DPL0 load(1, XDATA, add(CFA_XSP16, literal(-2)))
          CFI (cfiCond126) DPH0 load(1, XDATA, add(CFA_XSP16, literal(-1)))
          CFI (cfiCond126) CFA_SP SP+0
          CFI (cfiCond126) CFA_XSP16 add(XSP16, 18)
          CFI Block cfiPicker127 Using cfiCommon1
          CFI (cfiPicker127) NoFunction
          CFI (cfiPicker127) Picker
        MOVX    A,@DPTR
        MOV     DPL,R6
        MOV     DPH,R7
        INC     DPTR
        INC     DPTR
        INC     DPTR
        INC     DPTR
        INC     DPTR
        RET
          CFI EndBlock cfiCond125
          CFI EndBlock cfiCond126
          CFI EndBlock cfiPicker127

        RSEG BANKED_CODE:CODE:NOROOT(0)
?Subroutine16:
          CFI Block cfiCond128 Using cfiCommon0
          CFI Function ZDO_LeaveCnf
          CFI Conditional ??CrossCallReturnLabel_57
          CFI R6 load(1, XDATA, add(CFA_XSP16, literal(-10)))
          CFI VB load(1, XDATA, add(CFA_XSP16, literal(-9)))
          CFI V0 load(1, XDATA, add(CFA_XSP16, literal(-8)))
          CFI V1 load(1, XDATA, add(CFA_XSP16, literal(-7)))
          CFI R7 load(1, XDATA, add(CFA_XSP16, literal(-6)))
          CFI ?RET_LOW load(1, XDATA, add(CFA_XSP16, literal(-5)))
          CFI ?RET_HIGH load(1, XDATA, add(CFA_XSP16, literal(-4)))
          CFI ?BRET_EXT load(1, XDATA, add(CFA_XSP16, literal(-3)))
          CFI DPL0 load(1, XDATA, add(CFA_XSP16, literal(-2)))
          CFI DPH0 load(1, XDATA, add(CFA_XSP16, literal(-1)))
          CFI CFA_SP SP+0
          CFI CFA_XSP16 add(XSP16, 10)
          CFI Block cfiCond129 Using cfiCommon0
          CFI (cfiCond129) Function ZDO_LeaveInd
          CFI (cfiCond129) Conditional ??CrossCallReturnLabel_58
          CFI (cfiCond129) R6 load(1, XDATA, add(CFA_XSP16, literal(-14)))
          CFI (cfiCond129) VB load(1, XDATA, add(CFA_XSP16, literal(-13)))
          CFI (cfiCond129) V0 load(1, XDATA, add(CFA_XSP16, literal(-12)))
          CFI (cfiCond129) V1 load(1, XDATA, add(CFA_XSP16, literal(-11)))
          CFI (cfiCond129) V2 load(1, XDATA, add(CFA_XSP16, literal(-10)))
          CFI (cfiCond129) V3 load(1, XDATA, add(CFA_XSP16, literal(-9)))
          CFI (cfiCond129) V4 load(1, XDATA, add(CFA_XSP16, literal(-8)))
          CFI (cfiCond129) V5 load(1, XDATA, add(CFA_XSP16, literal(-7)))
          CFI (cfiCond129) R7 load(1, XDATA, add(CFA_XSP16, literal(-6)))
          CFI (cfiCond129) ?RET_LOW load(1, XDATA, add(CFA_XSP16, literal(-5)))
          CFI (cfiCond129) ?RET_HIGH load(1, XDATA, add(CFA_XSP16, literal(-4)))
          CFI (cfiCond129) ?BRET_EXT load(1, XDATA, add(CFA_XSP16, literal(-3)))
          CFI (cfiCond129) DPL0 load(1, XDATA, add(CFA_XSP16, literal(-2)))
          CFI (cfiCond129) DPH0 load(1, XDATA, add(CFA_XSP16, literal(-1)))
          CFI (cfiCond129) CFA_SP SP+0
          CFI (cfiCond129) CFA_XSP16 add(XSP16, 16)
          CFI Block cfiPicker130 Using cfiCommon1
          CFI (cfiPicker130) NoFunction
          CFI (cfiPicker130) Picker
        MOV     DPL,R6
        MOV     DPH,R7
          CFI EndBlock cfiCond128
          CFI EndBlock cfiCond129
          CFI EndBlock cfiPicker130
        REQUIRE ??Subroutine42_0
        ; // Fall through to label ??Subroutine42_0

        RSEG BANKED_CODE:CODE:NOROOT(0)
??Subroutine42_0:
          CFI Block cfiCond131 Using cfiCommon0
          CFI Function ZDApp_SecInit
          CFI Conditional ??CrossCallReturnLabel_47
          CFI R6 load(1, XDATA, add(CFA_XSP16, literal(-9)))
          CFI VB load(1, XDATA, add(CFA_XSP16, literal(-8)))
          CFI V0 load(1, XDATA, add(CFA_XSP16, literal(-7)))
          CFI R7 load(1, XDATA, add(CFA_XSP16, literal(-6)))
          CFI ?RET_LOW load(1, XDATA, add(CFA_XSP16, literal(-5)))
          CFI ?RET_HIGH load(1, XDATA, add(CFA_XSP16, literal(-4)))
          CFI ?BRET_EXT load(1, XDATA, add(CFA_XSP16, literal(-3)))
          CFI DPL0 load(1, XDATA, add(CFA_XSP16, literal(-2)))
          CFI DPH0 load(1, XDATA, add(CFA_XSP16, literal(-1)))
          CFI CFA_SP SP+0
          CFI CFA_XSP16 add(XSP16, 25)
          CFI Block cfiCond132 Using cfiCommon0
          CFI (cfiCond132) Function ZDApp_ProcessSecEvent
          CFI (cfiCond132) Conditional ??CrossCallReturnLabel_48
          CFI (cfiCond132) R6 load(1, XDATA, add(CFA_XSP16, literal(-16)))
          CFI (cfiCond132) VB load(1, XDATA, add(CFA_XSP16, literal(-15)))
          CFI (cfiCond132) V0 load(1, XDATA, add(CFA_XSP16, literal(-14)))
          CFI (cfiCond132) V1 load(1, XDATA, add(CFA_XSP16, literal(-13)))
          CFI (cfiCond132) V2 load(1, XDATA, add(CFA_XSP16, literal(-12)))
          CFI (cfiCond132) V3 load(1, XDATA, add(CFA_XSP16, literal(-11)))
          CFI (cfiCond132) V4 load(1, XDATA, add(CFA_XSP16, literal(-10)))
          CFI (cfiCond132) V5 load(1, XDATA, add(CFA_XSP16, literal(-9)))
          CFI (cfiCond132) V6 load(1, XDATA, add(CFA_XSP16, literal(-8)))
          CFI (cfiCond132) V7 load(1, XDATA, add(CFA_XSP16, literal(-7)))
          CFI (cfiCond132) R7 load(1, XDATA, add(CFA_XSP16, literal(-6)))
          CFI (cfiCond132) ?RET_LOW load(1, XDATA, add(CFA_XSP16, literal(-5)))
          CFI (cfiCond132) ?RET_HIGH load(1, XDATA, add(CFA_XSP16, literal(-4)))
          CFI (cfiCond132) ?BRET_EXT load(1, XDATA, add(CFA_XSP16, literal(-3)))
          CFI (cfiCond132) DPL0 load(1, XDATA, add(CFA_XSP16, literal(-2)))
          CFI (cfiCond132) DPH0 load(1, XDATA, add(CFA_XSP16, literal(-1)))
          CFI (cfiCond132) CFA_SP SP+0
          CFI (cfiCond132) CFA_XSP16 add(XSP16, 16)
          CFI Block cfiCond133 Using cfiCommon0
          CFI (cfiCond133) Function ZDApp_ProcessSecEvent
          CFI (cfiCond133) Conditional ??CrossCallReturnLabel_49
          CFI (cfiCond133) R6 load(1, XDATA, add(CFA_XSP16, literal(-16)))
          CFI (cfiCond133) VB load(1, XDATA, add(CFA_XSP16, literal(-15)))
          CFI (cfiCond133) V0 load(1, XDATA, add(CFA_XSP16, literal(-14)))
          CFI (cfiCond133) V1 load(1, XDATA, add(CFA_XSP16, literal(-13)))
          CFI (cfiCond133) V2 load(1, XDATA, add(CFA_XSP16, literal(-12)))
          CFI (cfiCond133) V3 load(1, XDATA, add(CFA_XSP16, literal(-11)))
          CFI (cfiCond133) V4 load(1, XDATA, add(CFA_XSP16, literal(-10)))
          CFI (cfiCond133) V5 load(1, XDATA, add(CFA_XSP16, literal(-9)))
          CFI (cfiCond133) V6 load(1, XDATA, add(CFA_XSP16, literal(-8)))
          CFI (cfiCond133) V7 load(1, XDATA, add(CFA_XSP16, literal(-7)))
          CFI (cfiCond133) R7 load(1, XDATA, add(CFA_XSP16, literal(-6)))
          CFI (cfiCond133) ?RET_LOW load(1, XDATA, add(CFA_XSP16, literal(-5)))
          CFI (cfiCond133) ?RET_HIGH load(1, XDATA, add(CFA_XSP16, literal(-4)))
          CFI (cfiCond133) ?BRET_EXT load(1, XDATA, add(CFA_XSP16, literal(-3)))
          CFI (cfiCond133) DPL0 load(1, XDATA, add(CFA_XSP16, literal(-2)))
          CFI (cfiCond133) DPH0 load(1, XDATA, add(CFA_XSP16, literal(-1)))
          CFI (cfiCond133) CFA_SP SP+0
          CFI (cfiCond133) CFA_XSP16 add(XSP16, 16)
          CFI Block cfiCond134 Using cfiCommon0
          CFI (cfiCond134) Function ZDApp_DeviceAuthEvt
          CFI (cfiCond134) Conditional ??CrossCallReturnLabel_50
          CFI (cfiCond134) DPL0 Frame(CFA_SP, 4)
          CFI (cfiCond134) DPH0 Frame(CFA_SP, 5)
          CFI (cfiCond134) CFA_SP SP+-5
          CFI Block cfiCond135 Using cfiCommon0
          CFI (cfiCond135) Function ZDApp_ProcessOSALMsg
          CFI (cfiCond135) Conditional ??CrossCallReturnLabel_51
          CFI (cfiCond135) R6 load(1, XDATA, add(CFA_XSP16, literal(-12)))
          CFI (cfiCond135) VB load(1, XDATA, add(CFA_XSP16, literal(-11)))
          CFI (cfiCond135) V0 load(1, XDATA, add(CFA_XSP16, literal(-10)))
          CFI (cfiCond135) V1 load(1, XDATA, add(CFA_XSP16, literal(-9)))
          CFI (cfiCond135) V2 load(1, XDATA, add(CFA_XSP16, literal(-8)))
          CFI (cfiCond135) V3 load(1, XDATA, add(CFA_XSP16, literal(-7)))
          CFI (cfiCond135) R7 load(1, XDATA, add(CFA_XSP16, literal(-6)))
          CFI (cfiCond135) ?RET_LOW load(1, XDATA, add(CFA_XSP16, literal(-5)))
          CFI (cfiCond135) ?RET_HIGH load(1, XDATA, add(CFA_XSP16, literal(-4)))
          CFI (cfiCond135) ?BRET_EXT load(1, XDATA, add(CFA_XSP16, literal(-3)))
          CFI (cfiCond135) DPL0 load(1, XDATA, add(CFA_XSP16, literal(-2)))
          CFI (cfiCond135) DPH0 load(1, XDATA, add(CFA_XSP16, literal(-1)))
          CFI (cfiCond135) CFA_SP SP+0
          CFI (cfiCond135) CFA_XSP16 add(XSP16, 15)
          CFI Block cfiCond136 Using cfiCommon0
          CFI (cfiCond136) Function ZDApp_ProcessMsgCBs
          CFI (cfiCond136) Conditional ??CrossCallReturnLabel_52
          CFI (cfiCond136) R6 load(1, XDATA, add(CFA_XSP16, literal(-14)))
          CFI (cfiCond136) VB load(1, XDATA, add(CFA_XSP16, literal(-13)))
          CFI (cfiCond136) V0 load(1, XDATA, add(CFA_XSP16, literal(-12)))
          CFI (cfiCond136) V1 load(1, XDATA, add(CFA_XSP16, literal(-11)))
          CFI (cfiCond136) V2 load(1, XDATA, add(CFA_XSP16, literal(-10)))
          CFI (cfiCond136) V3 load(1, XDATA, add(CFA_XSP16, literal(-9)))
          CFI (cfiCond136) V4 load(1, XDATA, add(CFA_XSP16, literal(-8)))
          CFI (cfiCond136) V5 load(1, XDATA, add(CFA_XSP16, literal(-7)))
          CFI (cfiCond136) R7 load(1, XDATA, add(CFA_XSP16, literal(-6)))
          CFI (cfiCond136) ?RET_LOW load(1, XDATA, add(CFA_XSP16, literal(-5)))
          CFI (cfiCond136) ?RET_HIGH load(1, XDATA, add(CFA_XSP16, literal(-4)))
          CFI (cfiCond136) ?BRET_EXT load(1, XDATA, add(CFA_XSP16, literal(-3)))
          CFI (cfiCond136) DPL0 load(1, XDATA, add(CFA_XSP16, literal(-2)))
          CFI (cfiCond136) DPH0 load(1, XDATA, add(CFA_XSP16, literal(-1)))
          CFI (cfiCond136) CFA_SP SP+0
          CFI (cfiCond136) CFA_XSP16 add(XSP16, 35)
          CFI Block cfiCond137 Using cfiCommon0
          CFI (cfiCond137) Function ZDO_beaconNotifyIndCB
          CFI (cfiCond137) Conditional ??CrossCallReturnLabel_53
          CFI (cfiCond137) R6 load(1, XDATA, add(CFA_XSP16, literal(-18)))
          CFI (cfiCond137) VB load(1, XDATA, add(CFA_XSP16, literal(-17)))
          CFI (cfiCond137) V0 load(1, XDATA, add(CFA_XSP16, literal(-16)))
          CFI (cfiCond137) V1 load(1, XDATA, add(CFA_XSP16, literal(-15)))
          CFI (cfiCond137) V2 load(1, XDATA, add(CFA_XSP16, literal(-14)))
          CFI (cfiCond137) V3 load(1, XDATA, add(CFA_XSP16, literal(-13)))
          CFI (cfiCond137) V4 load(1, XDATA, add(CFA_XSP16, literal(-12)))
          CFI (cfiCond137) V5 load(1, XDATA, add(CFA_XSP16, literal(-11)))
          CFI (cfiCond137) V6 load(1, XDATA, add(CFA_XSP16, literal(-10)))
          CFI (cfiCond137) V7 load(1, XDATA, add(CFA_XSP16, literal(-9)))
          CFI (cfiCond137) V8 load(1, XDATA, add(CFA_XSP16, literal(-8)))
          CFI (cfiCond137) V9 load(1, XDATA, add(CFA_XSP16, literal(-7)))
          CFI (cfiCond137) R7 load(1, XDATA, add(CFA_XSP16, literal(-6)))
          CFI (cfiCond137) ?RET_LOW load(1, XDATA, add(CFA_XSP16, literal(-5)))
          CFI (cfiCond137) ?RET_HIGH load(1, XDATA, add(CFA_XSP16, literal(-4)))
          CFI (cfiCond137) ?BRET_EXT load(1, XDATA, add(CFA_XSP16, literal(-3)))
          CFI (cfiCond137) DPL0 load(1, XDATA, add(CFA_XSP16, literal(-2)))
          CFI (cfiCond137) DPH0 load(1, XDATA, add(CFA_XSP16, literal(-1)))
          CFI (cfiCond137) CFA_SP SP+0
          CFI (cfiCond137) CFA_XSP16 add(XSP16, 18)
          CFI Block cfiCond138 Using cfiCommon0
          CFI (cfiCond138) Function ZDO_JoinConfirmCB
          CFI (cfiCond138) Conditional ??CrossCallReturnLabel_54
          CFI (cfiCond138) R6 load(1, XDATA, add(CFA_XSP16, literal(-9)))
          CFI (cfiCond138) VB load(1, XDATA, add(CFA_XSP16, literal(-8)))
          CFI (cfiCond138) V0 load(1, XDATA, add(CFA_XSP16, literal(-7)))
          CFI (cfiCond138) R7 load(1, XDATA, add(CFA_XSP16, literal(-6)))
          CFI (cfiCond138) ?RET_LOW load(1, XDATA, add(CFA_XSP16, literal(-5)))
          CFI (cfiCond138) ?RET_HIGH load(1, XDATA, add(CFA_XSP16, literal(-4)))
          CFI (cfiCond138) ?BRET_EXT load(1, XDATA, add(CFA_XSP16, literal(-3)))
          CFI (cfiCond138) DPL0 load(1, XDATA, add(CFA_XSP16, literal(-2)))
          CFI (cfiCond138) DPH0 load(1, XDATA, add(CFA_XSP16, literal(-1)))
          CFI (cfiCond138) CFA_SP SP+0
          CFI (cfiCond138) CFA_XSP16 add(XSP16, 14)
          CFI Block cfiCond139 Using cfiCommon0
          CFI (cfiCond139) Function ZDO_JoinConfirmCB
          CFI (cfiCond139) Conditional ??CrossCallReturnLabel_55
          CFI (cfiCond139) R6 load(1, XDATA, add(CFA_XSP16, literal(-9)))
          CFI (cfiCond139) VB load(1, XDATA, add(CFA_XSP16, literal(-8)))
          CFI (cfiCond139) V0 load(1, XDATA, add(CFA_XSP16, literal(-7)))
          CFI (cfiCond139) R7 load(1, XDATA, add(CFA_XSP16, literal(-6)))
          CFI (cfiCond139) ?RET_LOW load(1, XDATA, add(CFA_XSP16, literal(-5)))
          CFI (cfiCond139) ?RET_HIGH load(1, XDATA, add(CFA_XSP16, literal(-4)))
          CFI (cfiCond139) ?BRET_EXT load(1, XDATA, add(CFA_XSP16, literal(-3)))
          CFI (cfiCond139) DPL0 load(1, XDATA, add(CFA_XSP16, literal(-2)))
          CFI (cfiCond139) DPH0 load(1, XDATA, add(CFA_XSP16, literal(-1)))
          CFI (cfiCond139) CFA_SP SP+0
          CFI (cfiCond139) CFA_XSP16 add(XSP16, 14)
          CFI Block cfiCond140 Using cfiCommon0
          CFI (cfiCond140) Function ZDApp_ProcessPendingBindReq
          CFI (cfiCond140) Conditional ??CrossCallReturnLabel_56
          CFI (cfiCond140) R6 load(1, XDATA, add(CFA_XSP16, literal(-15)))
          CFI (cfiCond140) VB load(1, XDATA, add(CFA_XSP16, literal(-14)))
          CFI (cfiCond140) V0 load(1, XDATA, add(CFA_XSP16, literal(-13)))
          CFI (cfiCond140) V1 load(1, XDATA, add(CFA_XSP16, literal(-12)))
          CFI (cfiCond140) V2 load(1, XDATA, add(CFA_XSP16, literal(-11)))
          CFI (cfiCond140) V3 load(1, XDATA, add(CFA_XSP16, literal(-10)))
          CFI (cfiCond140) V4 load(1, XDATA, add(CFA_XSP16, literal(-9)))
          CFI (cfiCond140) V5 load(1, XDATA, add(CFA_XSP16, literal(-8)))
          CFI (cfiCond140) V6 load(1, XDATA, add(CFA_XSP16, literal(-7)))
          CFI (cfiCond140) R7 load(1, XDATA, add(CFA_XSP16, literal(-6)))
          CFI (cfiCond140) ?RET_LOW load(1, XDATA, add(CFA_XSP16, literal(-5)))
          CFI (cfiCond140) ?RET_HIGH load(1, XDATA, add(CFA_XSP16, literal(-4)))
          CFI (cfiCond140) ?BRET_EXT load(1, XDATA, add(CFA_XSP16, literal(-3)))
          CFI (cfiCond140) DPL0 load(1, XDATA, add(CFA_XSP16, literal(-2)))
          CFI (cfiCond140) DPH0 load(1, XDATA, add(CFA_XSP16, literal(-1)))
          CFI (cfiCond140) CFA_SP SP+0
          CFI (cfiCond140) CFA_XSP16 add(XSP16, 17)
          CFI Block cfiCond141 Using cfiCommon0
          CFI (cfiCond141) Function ZDO_LeaveCnf
          CFI (cfiCond141) Conditional ??CrossCallReturnLabel_57
          CFI (cfiCond141) R6 load(1, XDATA, add(CFA_XSP16, literal(-10)))
          CFI (cfiCond141) VB load(1, XDATA, add(CFA_XSP16, literal(-9)))
          CFI (cfiCond141) V0 load(1, XDATA, add(CFA_XSP16, literal(-8)))
          CFI (cfiCond141) V1 load(1, XDATA, add(CFA_XSP16, literal(-7)))
          CFI (cfiCond141) R7 load(1, XDATA, add(CFA_XSP16, literal(-6)))
          CFI (cfiCond141) ?RET_LOW load(1, XDATA, add(CFA_XSP16, literal(-5)))
          CFI (cfiCond141) ?RET_HIGH load(1, XDATA, add(CFA_XSP16, literal(-4)))
          CFI (cfiCond141) ?BRET_EXT load(1, XDATA, add(CFA_XSP16, literal(-3)))
          CFI (cfiCond141) DPL0 load(1, XDATA, add(CFA_XSP16, literal(-2)))
          CFI (cfiCond141) DPH0 load(1, XDATA, add(CFA_XSP16, literal(-1)))
          CFI (cfiCond141) CFA_SP SP+0
          CFI (cfiCond141) CFA_XSP16 add(XSP16, 10)
          CFI Block cfiCond142 Using cfiCommon0
          CFI (cfiCond142) Function ZDO_LeaveInd
          CFI (cfiCond142) Conditional ??CrossCallReturnLabel_58
          CFI (cfiCond142) R6 load(1, XDATA, add(CFA_XSP16, literal(-14)))
          CFI (cfiCond142) VB load(1, XDATA, add(CFA_XSP16, literal(-13)))
          CFI (cfiCond142) V0 load(1, XDATA, add(CFA_XSP16, literal(-12)))
          CFI (cfiCond142) V1 load(1, XDATA, add(CFA_XSP16, literal(-11)))
          CFI (cfiCond142) V2 load(1, XDATA, add(CFA_XSP16, literal(-10)))
          CFI (cfiCond142) V3 load(1, XDATA, add(CFA_XSP16, literal(-9)))
          CFI (cfiCond142) V4 load(1, XDATA, add(CFA_XSP16, literal(-8)))
          CFI (cfiCond142) V5 load(1, XDATA, add(CFA_XSP16, literal(-7)))
          CFI (cfiCond142) R7 load(1, XDATA, add(CFA_XSP16, literal(-6)))
          CFI (cfiCond142) ?RET_LOW load(1, XDATA, add(CFA_XSP16, literal(-5)))
          CFI (cfiCond142) ?RET_HIGH load(1, XDATA, add(CFA_XSP16, literal(-4)))
          CFI (cfiCond142) ?BRET_EXT load(1, XDATA, add(CFA_XSP16, literal(-3)))
          CFI (cfiCond142) DPL0 load(1, XDATA, add(CFA_XSP16, literal(-2)))
          CFI (cfiCond142) DPH0 load(1, XDATA, add(CFA_XSP16, literal(-1)))
          CFI (cfiCond142) CFA_SP SP+0
          CFI (cfiCond142) CFA_XSP16 add(XSP16, 16)
          CFI Block cfiPicker143 Using cfiCommon1
          CFI (cfiPicker143) NoFunction
          CFI (cfiPicker143) Picker
        MOVX    A,@DPTR
        MOV     R2,A
        INC     DPTR
        MOVX    A,@DPTR
        MOV     R3,A
        RET
          CFI EndBlock cfiCond131
          CFI EndBlock cfiCond132
          CFI EndBlock cfiCond133
          CFI EndBlock cfiCond134
          CFI EndBlock cfiCond135
          CFI EndBlock cfiCond136
          CFI EndBlock cfiCond137
          CFI EndBlock cfiCond138
          CFI EndBlock cfiCond139
          CFI EndBlock cfiCond140
          CFI EndBlock cfiCond141
          CFI EndBlock cfiCond142
          CFI EndBlock cfiPicker143
// 2463 
// 2464 /*********************************************************************
// 2465  * @fn          ZDO_StartRouterConfirmCB
// 2466  *
// 2467  * @brief       This function reports the results of the request to
// 2468  *              start functioning as a router in a network.
// 2469  *
// 2470  * @param       Status - Result of NLME_StartRouterRequest()
// 2471  *
// 2472  * @return      none
// 2473  */

        RSEG BANKED_CODE:CODE:NOROOT(0)
// 2474 void ZDO_StartRouterConfirmCB( ZStatus_t Status )
ZDO_StartRouterConfirmCB:
          CFI Block cfiBlock144 Using cfiCommon0
          CFI Function ZDO_StartRouterConfirmCB
        CODE
// 2475 {
        FUNCALL ZDO_StartRouterConfirmCB, HalLedSet
        LOCFRAME ISTACK, 0, STACK
        LOCFRAME PSTACK, 0, STACK
        LOCFRAME XSTACK, 9, STACK
        LOCFRAME IOVERLAY, 0, STATIC
        LOCFRAME DOVERLAY, 0, STATIC
        ARGFRAME ISTACK, 0, STACK
        ARGFRAME PSTACK, 0, STACK
        ARGFRAME XSTACK, 9, STACK
        ARGFRAME IOVERLAY, 0, STATIC
        ARGFRAME DOVERLAY, 0, STATIC
        FUNCALL ZDO_StartRouterConfirmCB, HalLedSet
        LOCFRAME ISTACK, 0, STACK
        LOCFRAME PSTACK, 0, STACK
        LOCFRAME XSTACK, 9, STACK
        LOCFRAME IOVERLAY, 0, STATIC
        LOCFRAME DOVERLAY, 0, STATIC
        ARGFRAME ISTACK, 0, STACK
        ARGFRAME PSTACK, 0, STACK
        ARGFRAME XSTACK, 9, STACK
        ARGFRAME IOVERLAY, 0, STATIC
        ARGFRAME DOVERLAY, 0, STATIC
        FUNCALL ZDO_StartRouterConfirmCB, HalLedSet
        LOCFRAME ISTACK, 0, STACK
        LOCFRAME PSTACK, 0, STACK
        LOCFRAME XSTACK, 9, STACK
        LOCFRAME IOVERLAY, 0, STATIC
        LOCFRAME DOVERLAY, 0, STATIC
        ARGFRAME ISTACK, 0, STACK
        ARGFRAME PSTACK, 0, STACK
        ARGFRAME XSTACK, 9, STACK
        ARGFRAME IOVERLAY, 0, STATIC
        ARGFRAME DOVERLAY, 0, STATIC
        FUNCALL ZDO_StartRouterConfirmCB, osal_set_event
        LOCFRAME ISTACK, 0, STACK
        LOCFRAME PSTACK, 0, STACK
        LOCFRAME XSTACK, 9, STACK
        LOCFRAME IOVERLAY, 0, STATIC
        LOCFRAME DOVERLAY, 0, STATIC
        ARGFRAME ISTACK, 0, STACK
        ARGFRAME PSTACK, 0, STACK
        ARGFRAME XSTACK, 9, STACK
        ARGFRAME IOVERLAY, 0, STATIC
        ARGFRAME DOVERLAY, 0, STATIC
        MOV     A,#-0x9
        LCALL   ?BANKED_ENTER_XDATA
          CFI DPH0 load(1, XDATA, add(CFA_XSP16, literal(-1)))
          CFI DPL0 load(1, XDATA, add(CFA_XSP16, literal(-2)))
          CFI ?BRET_EXT load(1, XDATA, add(CFA_XSP16, literal(-3)))
          CFI ?RET_HIGH load(1, XDATA, add(CFA_XSP16, literal(-4)))
          CFI ?RET_LOW load(1, XDATA, add(CFA_XSP16, literal(-5)))
          CFI R7 load(1, XDATA, add(CFA_XSP16, literal(-6)))
          CFI V0 load(1, XDATA, add(CFA_XSP16, literal(-7)))
          CFI VB load(1, XDATA, add(CFA_XSP16, literal(-8)))
          CFI R6 load(1, XDATA, add(CFA_XSP16, literal(-9)))
          CFI CFA_SP SP+0
          CFI CFA_XSP16 add(XSP16, 9)
        ; Saved register size: 9
        ; Auto size: 0
        MOV     A,R1
// 2476   nwkStatus = (byte)Status;
        MOV     DPTR,#nwkStatus
        MOVX    @DPTR,A
// 2477 
// 2478   if ( Status == ZSUCCESS )
        JNZ     ??ZDO_StartRouterConfirmCB_0
// 2479   {
// 2480     // LED on shows Router started
// 2481     HalLedSet ( HAL_LED_3, HAL_LED_MODE_ON );
        ; Setup parameters for call to function HalLedSet
        MOV     R2,#0x1
        MOV     R1,#0x4
        LCALL   ??HalLedSet?relay
// 2482     // LED off forgets HOLD_AUTO_START
// 2483     HalLedSet ( HAL_LED_4, HAL_LED_MODE_OFF);
        ; Setup parameters for call to function HalLedSet
        MOV     R2,#0x0
        MOV     R1,#0x8
        LCALL   ??HalLedSet?relay
// 2484     if ( devState == DEV_HOLD )
        MOV     DPTR,#devState
        MOVX    A,@DPTR
        JNZ     ??ZDO_StartRouterConfirmCB_1
// 2485     {
// 2486       // Began with HOLD_AUTO_START
// 2487       devState = DEV_END_DEVICE;
        MOV     A,#0x6
        MOVX    @DPTR,A
        SJMP    ??ZDO_StartRouterConfirmCB_1
// 2488     }
// 2489   }
// 2490 #if defined(BLINK_LEDS)
// 2491   else
// 2492   {
// 2493     HalLedSet( HAL_LED_3, HAL_LED_MODE_FLASH );  // Flash LED to show failure
??ZDO_StartRouterConfirmCB_0:
        ; Setup parameters for call to function HalLedSet
        MOV     R2,#0x4
        MOV     R1,#0x4
        LCALL   ??HalLedSet?relay
// 2494   }
// 2495 #endif
// 2496 
// 2497   osal_set_event( ZDAppTaskID, ZDO_ROUTER_START );
??ZDO_StartRouterConfirmCB_1:
        ; Setup parameters for call to function osal_set_event
        MOV     R2,#0x20
        LJMP    ?Subroutine0 & 0xFFFF
          CFI EndBlock cfiBlock144
// 2498 }
// 2499 
// 2500 /*********************************************************************
// 2501  * @fn          ZDO_JoinConfirmCB
// 2502  *
// 2503  * @brief       This function allows the next hight layer to be notified
// 2504  *              of the results of its request to join itself or another
// 2505  *              device to a network.
// 2506  *
// 2507  * @param       Status - Result of NLME_JoinRequest()
// 2508  *
// 2509  * @return      none
// 2510  */

        RSEG BANKED_CODE:CODE:NOROOT(0)
// 2511 void ZDO_JoinConfirmCB( uint16 PanId, ZStatus_t Status )
ZDO_JoinConfirmCB:
          CFI Block cfiBlock145 Using cfiCommon0
          CFI Function ZDO_JoinConfirmCB
        CODE
// 2512 {
        FUNCALL ZDO_JoinConfirmCB, HalLedSet
        LOCFRAME ISTACK, 0, STACK
        LOCFRAME PSTACK, 0, STACK
        LOCFRAME XSTACK, 14, STACK
        LOCFRAME IOVERLAY, 0, STATIC
        LOCFRAME DOVERLAY, 0, STATIC
        ARGFRAME ISTACK, 0, STACK
        ARGFRAME PSTACK, 0, STACK
        ARGFRAME XSTACK, 14, STACK
        ARGFRAME IOVERLAY, 0, STATIC
        ARGFRAME DOVERLAY, 0, STATIC
        FUNCALL ZDO_JoinConfirmCB, HalLedSet
        LOCFRAME ISTACK, 0, STACK
        LOCFRAME PSTACK, 0, STACK
        LOCFRAME XSTACK, 14, STACK
        LOCFRAME IOVERLAY, 0, STATIC
        LOCFRAME DOVERLAY, 0, STATIC
        ARGFRAME ISTACK, 0, STACK
        ARGFRAME PSTACK, 0, STACK
        ARGFRAME XSTACK, 14, STACK
        ARGFRAME IOVERLAY, 0, STATIC
        ARGFRAME DOVERLAY, 0, STATIC
        FUNCALL ZDO_JoinConfirmCB, HalLedSet
        LOCFRAME ISTACK, 0, STACK
        LOCFRAME PSTACK, 0, STACK
        LOCFRAME XSTACK, 14, STACK
        LOCFRAME IOVERLAY, 0, STATIC
        LOCFRAME DOVERLAY, 0, STATIC
        ARGFRAME ISTACK, 0, STACK
        ARGFRAME PSTACK, 0, STACK
        ARGFRAME XSTACK, 14, STACK
        ARGFRAME IOVERLAY, 0, STATIC
        ARGFRAME DOVERLAY, 0, STATIC
        FUNCALL ZDO_JoinConfirmCB, ZDApp_SendMsg
        LOCFRAME ISTACK, 0, STACK
        LOCFRAME PSTACK, 0, STACK
        LOCFRAME XSTACK, 14, STACK
        LOCFRAME IOVERLAY, 0, STATIC
        LOCFRAME DOVERLAY, 0, STATIC
        ARGFRAME ISTACK, 0, STACK
        ARGFRAME PSTACK, 0, STACK
        ARGFRAME XSTACK, 14, STACK
        ARGFRAME IOVERLAY, 0, STATIC
        ARGFRAME DOVERLAY, 0, STATIC
        MOV     A,#-0x9
        LCALL   ?BANKED_ENTER_XDATA
          CFI DPH0 load(1, XDATA, add(CFA_XSP16, literal(-1)))
          CFI DPL0 load(1, XDATA, add(CFA_XSP16, literal(-2)))
          CFI ?BRET_EXT load(1, XDATA, add(CFA_XSP16, literal(-3)))
          CFI ?RET_HIGH load(1, XDATA, add(CFA_XSP16, literal(-4)))
          CFI ?RET_LOW load(1, XDATA, add(CFA_XSP16, literal(-5)))
          CFI R7 load(1, XDATA, add(CFA_XSP16, literal(-6)))
          CFI V0 load(1, XDATA, add(CFA_XSP16, literal(-7)))
          CFI VB load(1, XDATA, add(CFA_XSP16, literal(-8)))
          CFI R6 load(1, XDATA, add(CFA_XSP16, literal(-9)))
          CFI CFA_SP SP+0
          CFI CFA_XSP16 add(XSP16, 9)
        ; Saved register size: 9
        ; Auto size: 5
        MOV     A,#-0x5
        LCALL   ?ALLOC_XSTACK8
          CFI CFA_XSP16 add(XSP16, 14)
        MOV     A,R1
        MOV     R6,A
// 2513   (void)PanId;  // remove if this parameter is used.
// 2514 
// 2515   nwkStatus = (byte)Status;
        MOV     DPTR,#nwkStatus
        MOVX    @DPTR,A
// 2516 
// 2517   if ( Status == ZSUCCESS )
        JNZ     ??ZDO_JoinConfirmCB_0
// 2518   {
// 2519     // LED on shows device joined
// 2520     HalLedSet ( HAL_LED_3, HAL_LED_MODE_ON );
        ; Setup parameters for call to function HalLedSet
        MOV     R2,#0x1
        MOV     R1,#0x4
        LCALL   ??HalLedSet?relay
// 2521     // LED off forgets HOLD_AUTO_START
// 2522     HalLedSet ( HAL_LED_4, HAL_LED_MODE_OFF);
        ; Setup parameters for call to function HalLedSet
        MOV     R2,#0x0
        MOV     R1,#0x8
        LCALL   ??HalLedSet?relay
// 2523     if ( (devState == DEV_HOLD) )
        MOV     DPTR,#devState
        MOVX    A,@DPTR
        JNZ     ??ZDO_JoinConfirmCB_1
// 2524     {
// 2525       // Began with HOLD_AUTO_START
// 2526       devState = DEV_NWK_JOINING;
        MOV     A,#0x3
        MOVX    @DPTR,A
        SJMP    ??ZDO_JoinConfirmCB_1
// 2527     }
// 2528 
// 2529     if ( !ZG_SECURE_ENABLED )
// 2530     {
// 2531       // Notify to save info into NV
// 2532       ZDApp_NVUpdate();
// 2533     }
// 2534   }
// 2535   else
// 2536   {
// 2537 #if defined(BLINK_LEDS)
// 2538     HalLedSet ( HAL_LED_3, HAL_LED_MODE_FLASH );  // Flash LED to show failure
??ZDO_JoinConfirmCB_0:
        ; Setup parameters for call to function HalLedSet
        MOV     R2,#0x4
        MOV     R1,#0x4
        LCALL   ??HalLedSet?relay
// 2539 #endif
// 2540   }
// 2541 
// 2542   // Pass the join confirm to higher layer if callback registered
// 2543   if (zdoCBFunc[ZDO_JOIN_CNF_CBID] != NULL )
??ZDO_JoinConfirmCB_1:
        MOV     DPTR,#zdoCBFunc + 8
        LCALL   ??Subroutine43_0 & 0xFFFF
??CrossCallReturnLabel_66:
        JZ      ??ZDO_JoinConfirmCB_2
// 2544   {
// 2545     zdoJoinCnf_t joinCnf;
// 2546 
// 2547     joinCnf.status = Status;
        MOV     A,R6
        MOV     DPL,?XSP + 0
        MOV     DPH,?XSP + 1
        MOVX    @DPTR,A
// 2548     joinCnf.deviceAddr = _NIB.nwkDevAddress;
        MOV     DPTR,#_NIB + 20
        LCALL   ??Subroutine42_0 & 0xFFFF
??CrossCallReturnLabel_54:
        MOV     A,#0x1
        LCALL   ?XSTACK_DISP0_8
        LCALL   ??Subroutine50_0 & 0xFFFF
// 2549     joinCnf.parentAddr = _NIB.nwkCoordAddress;
??CrossCallReturnLabel_97:
        MOV     DPTR,#_NIB + 23
        LCALL   ??Subroutine42_0 & 0xFFFF
// 2550 
// 2551     zdoCBFunc[ZDO_JOIN_CNF_CBID]( (void*)&joinCnf );
// 2552   }
??CrossCallReturnLabel_55:
        MOV     A,#0x3
        LCALL   ?XSTACK_DISP0_8
        MOV     A,R2
        MOVX    @DPTR,A
        INC     DPTR
        MOV     A,R3
        LCALL   ?Subroutine10 & 0xFFFF
??CrossCallReturnLabel_3:
        MOV     DPL,R0
        MOV     DPH,R1
        LCALL   ?CALL_IND
// 2553 
// 2554   // Notify ZDApp
// 2555   ZDApp_SendMsg( ZDAppTaskID, ZDO_NWK_JOIN_IND, sizeof(osal_event_hdr_t), (byte*)NULL );
??ZDO_JoinConfirmCB_2:
        ; Setup parameters for call to function ZDApp_SendMsg
        MOV     R4,#0x0
        MOV     R5,#0x0
        MOV     R3,#0x2
        MOV     R2,#0x2
        MOV     DPTR,#ZDAppTaskID
        MOVX    A,@DPTR
        MOV     R1,A
        LCALL   ??ZDApp_SendMsg?relay
// 2556 
// 2557 }
        LJMP    ?Subroutine7 & 0xFFFF
          CFI EndBlock cfiBlock145

        RSEG BANKED_CODE:CODE:NOROOT(0)
?Subroutine15:
          CFI Block cfiCond146 Using cfiCommon0
          CFI Function ZDApp_InitPendingBind
          CFI Conditional ??CrossCallReturnLabel_71
          CFI R6 load(1, XDATA, add(CFA_XSP16, literal(-9)))
          CFI VB load(1, XDATA, add(CFA_XSP16, literal(-8)))
          CFI V0 load(1, XDATA, add(CFA_XSP16, literal(-7)))
          CFI R7 load(1, XDATA, add(CFA_XSP16, literal(-6)))
          CFI ?RET_LOW load(1, XDATA, add(CFA_XSP16, literal(-5)))
          CFI ?RET_HIGH load(1, XDATA, add(CFA_XSP16, literal(-4)))
          CFI ?BRET_EXT load(1, XDATA, add(CFA_XSP16, literal(-3)))
          CFI DPL0 load(1, XDATA, add(CFA_XSP16, literal(-2)))
          CFI DPH0 load(1, XDATA, add(CFA_XSP16, literal(-1)))
          CFI CFA_SP SP+0
          CFI CFA_XSP16 add(XSP16, 9)
          CFI Block cfiCond147 Using cfiCommon0
          CFI (cfiCond147) Function ZDApp_InitPendingBind
          CFI (cfiCond147) Conditional ??CrossCallReturnLabel_72
          CFI (cfiCond147) R6 load(1, XDATA, add(CFA_XSP16, literal(-9)))
          CFI (cfiCond147) VB load(1, XDATA, add(CFA_XSP16, literal(-8)))
          CFI (cfiCond147) V0 load(1, XDATA, add(CFA_XSP16, literal(-7)))
          CFI (cfiCond147) R7 load(1, XDATA, add(CFA_XSP16, literal(-6)))
          CFI (cfiCond147) ?RET_LOW load(1, XDATA, add(CFA_XSP16, literal(-5)))
          CFI (cfiCond147) ?RET_HIGH load(1, XDATA, add(CFA_XSP16, literal(-4)))
          CFI (cfiCond147) ?BRET_EXT load(1, XDATA, add(CFA_XSP16, literal(-3)))
          CFI (cfiCond147) DPL0 load(1, XDATA, add(CFA_XSP16, literal(-2)))
          CFI (cfiCond147) DPH0 load(1, XDATA, add(CFA_XSP16, literal(-1)))
          CFI (cfiCond147) CFA_SP SP+0
          CFI (cfiCond147) CFA_XSP16 add(XSP16, 9)
          CFI Block cfiCond148 Using cfiCommon0
          CFI (cfiCond148) Function ZDApp_GetEmptyPendingBindReq
          CFI (cfiCond148) Conditional ??CrossCallReturnLabel_73
          CFI (cfiCond148) DPL0 Frame(CFA_SP, 4)
          CFI (cfiCond148) DPH0 Frame(CFA_SP, 5)
          CFI (cfiCond148) CFA_SP SP+-5
          CFI Block cfiCond149 Using cfiCommon0
          CFI (cfiCond149) Function ZDApp_ProcessPendingBindReq
          CFI (cfiCond149) Conditional ??CrossCallReturnLabel_74
          CFI (cfiCond149) R6 load(1, XDATA, add(CFA_XSP16, literal(-15)))
          CFI (cfiCond149) VB load(1, XDATA, add(CFA_XSP16, literal(-14)))
          CFI (cfiCond149) V0 load(1, XDATA, add(CFA_XSP16, literal(-13)))
          CFI (cfiCond149) V1 load(1, XDATA, add(CFA_XSP16, literal(-12)))
          CFI (cfiCond149) V2 load(1, XDATA, add(CFA_XSP16, literal(-11)))
          CFI (cfiCond149) V3 load(1, XDATA, add(CFA_XSP16, literal(-10)))
          CFI (cfiCond149) V4 load(1, XDATA, add(CFA_XSP16, literal(-9)))
          CFI (cfiCond149) V5 load(1, XDATA, add(CFA_XSP16, literal(-8)))
          CFI (cfiCond149) V6 load(1, XDATA, add(CFA_XSP16, literal(-7)))
          CFI (cfiCond149) R7 load(1, XDATA, add(CFA_XSP16, literal(-6)))
          CFI (cfiCond149) ?RET_LOW load(1, XDATA, add(CFA_XSP16, literal(-5)))
          CFI (cfiCond149) ?RET_HIGH load(1, XDATA, add(CFA_XSP16, literal(-4)))
          CFI (cfiCond149) ?BRET_EXT load(1, XDATA, add(CFA_XSP16, literal(-3)))
          CFI (cfiCond149) DPL0 load(1, XDATA, add(CFA_XSP16, literal(-2)))
          CFI (cfiCond149) DPH0 load(1, XDATA, add(CFA_XSP16, literal(-1)))
          CFI (cfiCond149) CFA_SP SP+0
          CFI (cfiCond149) CFA_XSP16 add(XSP16, 16)
          CFI Block cfiCond150 Using cfiCommon0
          CFI (cfiCond150) Function ZDApp_AgeOutPendingBindEntry
          CFI (cfiCond150) Conditional ??CrossCallReturnLabel_75
          CFI (cfiCond150) R6 load(1, XDATA, add(CFA_XSP16, literal(-12)))
          CFI (cfiCond150) VB load(1, XDATA, add(CFA_XSP16, literal(-11)))
          CFI (cfiCond150) V0 load(1, XDATA, add(CFA_XSP16, literal(-10)))
          CFI (cfiCond150) V1 load(1, XDATA, add(CFA_XSP16, literal(-9)))
          CFI (cfiCond150) V2 load(1, XDATA, add(CFA_XSP16, literal(-8)))
          CFI (cfiCond150) V3 load(1, XDATA, add(CFA_XSP16, literal(-7)))
          CFI (cfiCond150) R7 load(1, XDATA, add(CFA_XSP16, literal(-6)))
          CFI (cfiCond150) ?RET_LOW load(1, XDATA, add(CFA_XSP16, literal(-5)))
          CFI (cfiCond150) ?RET_HIGH load(1, XDATA, add(CFA_XSP16, literal(-4)))
          CFI (cfiCond150) ?BRET_EXT load(1, XDATA, add(CFA_XSP16, literal(-3)))
          CFI (cfiCond150) DPL0 load(1, XDATA, add(CFA_XSP16, literal(-2)))
          CFI (cfiCond150) DPH0 load(1, XDATA, add(CFA_XSP16, literal(-1)))
          CFI (cfiCond150) CFA_SP SP+0
          CFI (cfiCond150) CFA_XSP16 add(XSP16, 26)
          CFI Block cfiPicker151 Using cfiCommon1
          CFI (cfiPicker151) NoFunction
          CFI (cfiPicker151) Picker
        MOV     DPTR,#ZDAppPendingBindReq
          CFI EndBlock cfiCond146
          CFI EndBlock cfiCond147
          CFI EndBlock cfiCond148
          CFI EndBlock cfiCond149
          CFI EndBlock cfiCond150
          CFI EndBlock cfiPicker151
        REQUIRE ??Subroutine43_0
        ; // Fall through to label ??Subroutine43_0

        RSEG BANKED_CODE:CODE:NOROOT(0)
??Subroutine43_0:
          CFI Block cfiCond152 Using cfiCommon0
          CFI Function ZDApp_SecInit
          CFI Conditional ??CrossCallReturnLabel_59
          CFI R6 load(1, XDATA, add(CFA_XSP16, literal(-9)))
          CFI VB load(1, XDATA, add(CFA_XSP16, literal(-8)))
          CFI V0 load(1, XDATA, add(CFA_XSP16, literal(-7)))
          CFI R7 load(1, XDATA, add(CFA_XSP16, literal(-6)))
          CFI ?RET_LOW load(1, XDATA, add(CFA_XSP16, literal(-5)))
          CFI ?RET_HIGH load(1, XDATA, add(CFA_XSP16, literal(-4)))
          CFI ?BRET_EXT load(1, XDATA, add(CFA_XSP16, literal(-3)))
          CFI DPL0 load(1, XDATA, add(CFA_XSP16, literal(-2)))
          CFI DPH0 load(1, XDATA, add(CFA_XSP16, literal(-1)))
          CFI CFA_SP SP+0
          CFI CFA_XSP16 add(XSP16, 25)
          CFI Block cfiCond153 Using cfiCommon0
          CFI (cfiCond153) Function ZDApp_ProcessSecEvent
          CFI (cfiCond153) Conditional ??CrossCallReturnLabel_60
          CFI (cfiCond153) R6 load(1, XDATA, add(CFA_XSP16, literal(-16)))
          CFI (cfiCond153) VB load(1, XDATA, add(CFA_XSP16, literal(-15)))
          CFI (cfiCond153) V0 load(1, XDATA, add(CFA_XSP16, literal(-14)))
          CFI (cfiCond153) V1 load(1, XDATA, add(CFA_XSP16, literal(-13)))
          CFI (cfiCond153) V2 load(1, XDATA, add(CFA_XSP16, literal(-12)))
          CFI (cfiCond153) V3 load(1, XDATA, add(CFA_XSP16, literal(-11)))
          CFI (cfiCond153) V4 load(1, XDATA, add(CFA_XSP16, literal(-10)))
          CFI (cfiCond153) V5 load(1, XDATA, add(CFA_XSP16, literal(-9)))
          CFI (cfiCond153) V6 load(1, XDATA, add(CFA_XSP16, literal(-8)))
          CFI (cfiCond153) V7 load(1, XDATA, add(CFA_XSP16, literal(-7)))
          CFI (cfiCond153) R7 load(1, XDATA, add(CFA_XSP16, literal(-6)))
          CFI (cfiCond153) ?RET_LOW load(1, XDATA, add(CFA_XSP16, literal(-5)))
          CFI (cfiCond153) ?RET_HIGH load(1, XDATA, add(CFA_XSP16, literal(-4)))
          CFI (cfiCond153) ?BRET_EXT load(1, XDATA, add(CFA_XSP16, literal(-3)))
          CFI (cfiCond153) DPL0 load(1, XDATA, add(CFA_XSP16, literal(-2)))
          CFI (cfiCond153) DPH0 load(1, XDATA, add(CFA_XSP16, literal(-1)))
          CFI (cfiCond153) CFA_SP SP+0
          CFI (cfiCond153) CFA_XSP16 add(XSP16, 16)
          CFI Block cfiCond154 Using cfiCommon0
          CFI (cfiCond154) Function ZDApp_RestoreNetworkState
          CFI (cfiCond154) Conditional ??CrossCallReturnLabel_61
          CFI (cfiCond154) R6 load(1, XDATA, add(CFA_XSP16, literal(-9)))
          CFI (cfiCond154) VB load(1, XDATA, add(CFA_XSP16, literal(-8)))
          CFI (cfiCond154) V0 load(1, XDATA, add(CFA_XSP16, literal(-7)))
          CFI (cfiCond154) R7 load(1, XDATA, add(CFA_XSP16, literal(-6)))
          CFI (cfiCond154) ?RET_LOW load(1, XDATA, add(CFA_XSP16, literal(-5)))
          CFI (cfiCond154) ?RET_HIGH load(1, XDATA, add(CFA_XSP16, literal(-4)))
          CFI (cfiCond154) ?BRET_EXT load(1, XDATA, add(CFA_XSP16, literal(-3)))
          CFI (cfiCond154) DPL0 load(1, XDATA, add(CFA_XSP16, literal(-2)))
          CFI (cfiCond154) DPH0 load(1, XDATA, add(CFA_XSP16, literal(-1)))
          CFI (cfiCond154) CFA_SP SP+0
          CFI (cfiCond154) CFA_XSP16 add(XSP16, 9)
          CFI Block cfiCond155 Using cfiCommon0
          CFI (cfiCond155) Function ZDApp_ProcessOSALMsg
          CFI (cfiCond155) Conditional ??CrossCallReturnLabel_62
          CFI (cfiCond155) R6 load(1, XDATA, add(CFA_XSP16, literal(-12)))
          CFI (cfiCond155) VB load(1, XDATA, add(CFA_XSP16, literal(-11)))
          CFI (cfiCond155) V0 load(1, XDATA, add(CFA_XSP16, literal(-10)))
          CFI (cfiCond155) V1 load(1, XDATA, add(CFA_XSP16, literal(-9)))
          CFI (cfiCond155) V2 load(1, XDATA, add(CFA_XSP16, literal(-8)))
          CFI (cfiCond155) V3 load(1, XDATA, add(CFA_XSP16, literal(-7)))
          CFI (cfiCond155) R7 load(1, XDATA, add(CFA_XSP16, literal(-6)))
          CFI (cfiCond155) ?RET_LOW load(1, XDATA, add(CFA_XSP16, literal(-5)))
          CFI (cfiCond155) ?RET_HIGH load(1, XDATA, add(CFA_XSP16, literal(-4)))
          CFI (cfiCond155) ?BRET_EXT load(1, XDATA, add(CFA_XSP16, literal(-3)))
          CFI (cfiCond155) DPL0 load(1, XDATA, add(CFA_XSP16, literal(-2)))
          CFI (cfiCond155) DPH0 load(1, XDATA, add(CFA_XSP16, literal(-1)))
          CFI (cfiCond155) CFA_SP SP+0
          CFI (cfiCond155) CFA_XSP16 add(XSP16, 15)
          CFI Block cfiCond156 Using cfiCommon0
          CFI (cfiCond156) Function ZDApp_LeaveUpdate
          CFI (cfiCond156) Conditional ??CrossCallReturnLabel_63
          CFI (cfiCond156) R6 load(1, XDATA, add(CFA_XSP16, literal(-15)))
          CFI (cfiCond156) VB load(1, XDATA, add(CFA_XSP16, literal(-14)))
          CFI (cfiCond156) V0 load(1, XDATA, add(CFA_XSP16, literal(-13)))
          CFI (cfiCond156) V1 load(1, XDATA, add(CFA_XSP16, literal(-12)))
          CFI (cfiCond156) V2 load(1, XDATA, add(CFA_XSP16, literal(-11)))
          CFI (cfiCond156) V3 load(1, XDATA, add(CFA_XSP16, literal(-10)))
          CFI (cfiCond156) V4 load(1, XDATA, add(CFA_XSP16, literal(-9)))
          CFI (cfiCond156) V5 load(1, XDATA, add(CFA_XSP16, literal(-8)))
          CFI (cfiCond156) V6 load(1, XDATA, add(CFA_XSP16, literal(-7)))
          CFI (cfiCond156) R7 load(1, XDATA, add(CFA_XSP16, literal(-6)))
          CFI (cfiCond156) ?RET_LOW load(1, XDATA, add(CFA_XSP16, literal(-5)))
          CFI (cfiCond156) ?RET_HIGH load(1, XDATA, add(CFA_XSP16, literal(-4)))
          CFI (cfiCond156) ?BRET_EXT load(1, XDATA, add(CFA_XSP16, literal(-3)))
          CFI (cfiCond156) DPL0 load(1, XDATA, add(CFA_XSP16, literal(-2)))
          CFI (cfiCond156) DPH0 load(1, XDATA, add(CFA_XSP16, literal(-1)))
          CFI (cfiCond156) CFA_SP SP+0
          CFI (cfiCond156) CFA_XSP16 add(XSP16, 32)
          CFI Block cfiCond157 Using cfiCommon0
          CFI (cfiCond157) Function ZDO_NetworkDiscoveryConfirmCB
          CFI (cfiCond157) Conditional ??CrossCallReturnLabel_64
          CFI (cfiCond157) DPL0 Frame(CFA_SP, 4)
          CFI (cfiCond157) DPH0 Frame(CFA_SP, 5)
          CFI (cfiCond157) CFA_SP SP+-5
          CFI (cfiCond157) CFA_XSP16 add(XSP16, 3)
          CFI Block cfiCond158 Using cfiCommon0
          CFI (cfiCond158) Function ZDO_beaconNotifyIndCB
          CFI (cfiCond158) Conditional ??CrossCallReturnLabel_65
          CFI (cfiCond158) R6 load(1, XDATA, add(CFA_XSP16, literal(-18)))
          CFI (cfiCond158) VB load(1, XDATA, add(CFA_XSP16, literal(-17)))
          CFI (cfiCond158) V0 load(1, XDATA, add(CFA_XSP16, literal(-16)))
          CFI (cfiCond158) V1 load(1, XDATA, add(CFA_XSP16, literal(-15)))
          CFI (cfiCond158) V2 load(1, XDATA, add(CFA_XSP16, literal(-14)))
          CFI (cfiCond158) V3 load(1, XDATA, add(CFA_XSP16, literal(-13)))
          CFI (cfiCond158) V4 load(1, XDATA, add(CFA_XSP16, literal(-12)))
          CFI (cfiCond158) V5 load(1, XDATA, add(CFA_XSP16, literal(-11)))
          CFI (cfiCond158) V6 load(1, XDATA, add(CFA_XSP16, literal(-10)))
          CFI (cfiCond158) V7 load(1, XDATA, add(CFA_XSP16, literal(-9)))
          CFI (cfiCond158) V8 load(1, XDATA, add(CFA_XSP16, literal(-8)))
          CFI (cfiCond158) V9 load(1, XDATA, add(CFA_XSP16, literal(-7)))
          CFI (cfiCond158) R7 load(1, XDATA, add(CFA_XSP16, literal(-6)))
          CFI (cfiCond158) ?RET_LOW load(1, XDATA, add(CFA_XSP16, literal(-5)))
          CFI (cfiCond158) ?RET_HIGH load(1, XDATA, add(CFA_XSP16, literal(-4)))
          CFI (cfiCond158) ?BRET_EXT load(1, XDATA, add(CFA_XSP16, literal(-3)))
          CFI (cfiCond158) DPL0 load(1, XDATA, add(CFA_XSP16, literal(-2)))
          CFI (cfiCond158) DPH0 load(1, XDATA, add(CFA_XSP16, literal(-1)))
          CFI (cfiCond158) CFA_SP SP+0
          CFI (cfiCond158) CFA_XSP16 add(XSP16, 18)
          CFI Block cfiCond159 Using cfiCommon0
          CFI (cfiCond159) Function ZDO_JoinConfirmCB
          CFI (cfiCond159) Conditional ??CrossCallReturnLabel_66
          CFI (cfiCond159) R6 load(1, XDATA, add(CFA_XSP16, literal(-9)))
          CFI (cfiCond159) VB load(1, XDATA, add(CFA_XSP16, literal(-8)))
          CFI (cfiCond159) V0 load(1, XDATA, add(CFA_XSP16, literal(-7)))
          CFI (cfiCond159) R7 load(1, XDATA, add(CFA_XSP16, literal(-6)))
          CFI (cfiCond159) ?RET_LOW load(1, XDATA, add(CFA_XSP16, literal(-5)))
          CFI (cfiCond159) ?RET_HIGH load(1, XDATA, add(CFA_XSP16, literal(-4)))
          CFI (cfiCond159) ?BRET_EXT load(1, XDATA, add(CFA_XSP16, literal(-3)))
          CFI (cfiCond159) DPL0 load(1, XDATA, add(CFA_XSP16, literal(-2)))
          CFI (cfiCond159) DPH0 load(1, XDATA, add(CFA_XSP16, literal(-1)))
          CFI (cfiCond159) CFA_SP SP+0
          CFI (cfiCond159) CFA_XSP16 add(XSP16, 14)
          CFI Block cfiCond160 Using cfiCommon0
          CFI (cfiCond160) Function ZDO_JoinIndicationCB
          CFI (cfiCond160) Conditional ??CrossCallReturnLabel_67
          CFI (cfiCond160) R6 load(1, XDATA, add(CFA_XSP16, literal(-16)))
          CFI (cfiCond160) VB load(1, XDATA, add(CFA_XSP16, literal(-15)))
          CFI (cfiCond160) V0 load(1, XDATA, add(CFA_XSP16, literal(-14)))
          CFI (cfiCond160) V1 load(1, XDATA, add(CFA_XSP16, literal(-13)))
          CFI (cfiCond160) V2 load(1, XDATA, add(CFA_XSP16, literal(-12)))
          CFI (cfiCond160) V3 load(1, XDATA, add(CFA_XSP16, literal(-11)))
          CFI (cfiCond160) V4 load(1, XDATA, add(CFA_XSP16, literal(-10)))
          CFI (cfiCond160) V5 load(1, XDATA, add(CFA_XSP16, literal(-9)))
          CFI (cfiCond160) V6 load(1, XDATA, add(CFA_XSP16, literal(-8)))
          CFI (cfiCond160) V7 load(1, XDATA, add(CFA_XSP16, literal(-7)))
          CFI (cfiCond160) R7 load(1, XDATA, add(CFA_XSP16, literal(-6)))
          CFI (cfiCond160) ?RET_LOW load(1, XDATA, add(CFA_XSP16, literal(-5)))
          CFI (cfiCond160) ?RET_HIGH load(1, XDATA, add(CFA_XSP16, literal(-4)))
          CFI (cfiCond160) ?BRET_EXT load(1, XDATA, add(CFA_XSP16, literal(-3)))
          CFI (cfiCond160) DPL0 load(1, XDATA, add(CFA_XSP16, literal(-2)))
          CFI (cfiCond160) DPH0 load(1, XDATA, add(CFA_XSP16, literal(-1)))
          CFI (cfiCond160) CFA_SP SP+0
          CFI (cfiCond160) CFA_XSP16 add(XSP16, 16)
          CFI Block cfiCond161 Using cfiCommon0
          CFI (cfiCond161) Function ZDO_JoinIndicationCB
          CFI (cfiCond161) Conditional ??CrossCallReturnLabel_68
          CFI (cfiCond161) R6 load(1, XDATA, add(CFA_XSP16, literal(-16)))
          CFI (cfiCond161) VB load(1, XDATA, add(CFA_XSP16, literal(-15)))
          CFI (cfiCond161) V0 load(1, XDATA, add(CFA_XSP16, literal(-14)))
          CFI (cfiCond161) V1 load(1, XDATA, add(CFA_XSP16, literal(-13)))
          CFI (cfiCond161) V2 load(1, XDATA, add(CFA_XSP16, literal(-12)))
          CFI (cfiCond161) V3 load(1, XDATA, add(CFA_XSP16, literal(-11)))
          CFI (cfiCond161) V4 load(1, XDATA, add(CFA_XSP16, literal(-10)))
          CFI (cfiCond161) V5 load(1, XDATA, add(CFA_XSP16, literal(-9)))
          CFI (cfiCond161) V6 load(1, XDATA, add(CFA_XSP16, literal(-8)))
          CFI (cfiCond161) V7 load(1, XDATA, add(CFA_XSP16, literal(-7)))
          CFI (cfiCond161) R7 load(1, XDATA, add(CFA_XSP16, literal(-6)))
          CFI (cfiCond161) ?RET_LOW load(1, XDATA, add(CFA_XSP16, literal(-5)))
          CFI (cfiCond161) ?RET_HIGH load(1, XDATA, add(CFA_XSP16, literal(-4)))
          CFI (cfiCond161) ?BRET_EXT load(1, XDATA, add(CFA_XSP16, literal(-3)))
          CFI (cfiCond161) DPL0 load(1, XDATA, add(CFA_XSP16, literal(-2)))
          CFI (cfiCond161) DPH0 load(1, XDATA, add(CFA_XSP16, literal(-1)))
          CFI (cfiCond161) CFA_SP SP+0
          CFI (cfiCond161) CFA_XSP16 add(XSP16, 16)
          CFI Block cfiCond162 Using cfiCommon0
          CFI (cfiCond162) Function ZDO_ConcentratorIndicationCB
          CFI (cfiCond162) Conditional ??CrossCallReturnLabel_69
          CFI (cfiCond162) R6 load(1, XDATA, add(CFA_XSP16, literal(-9)))
          CFI (cfiCond162) VB load(1, XDATA, add(CFA_XSP16, literal(-8)))
          CFI (cfiCond162) V0 load(1, XDATA, add(CFA_XSP16, literal(-7)))
          CFI (cfiCond162) R7 load(1, XDATA, add(CFA_XSP16, literal(-6)))
          CFI (cfiCond162) ?RET_LOW load(1, XDATA, add(CFA_XSP16, literal(-5)))
          CFI (cfiCond162) ?RET_HIGH load(1, XDATA, add(CFA_XSP16, literal(-4)))
          CFI (cfiCond162) ?BRET_EXT load(1, XDATA, add(CFA_XSP16, literal(-3)))
          CFI (cfiCond162) DPL0 load(1, XDATA, add(CFA_XSP16, literal(-2)))
          CFI (cfiCond162) DPH0 load(1, XDATA, add(CFA_XSP16, literal(-1)))
          CFI (cfiCond162) CFA_SP SP+0
          CFI (cfiCond162) CFA_XSP16 add(XSP16, 14)
          CFI Block cfiCond163 Using cfiCommon0
          CFI (cfiCond163) Function ZDO_SrcRtgIndCB
          CFI (cfiCond163) Conditional ??CrossCallReturnLabel_70
          CFI (cfiCond163) R6 load(1, XDATA, add(CFA_XSP16, literal(-9)))
          CFI (cfiCond163) VB load(1, XDATA, add(CFA_XSP16, literal(-8)))
          CFI (cfiCond163) V0 load(1, XDATA, add(CFA_XSP16, literal(-7)))
          CFI (cfiCond163) R7 load(1, XDATA, add(CFA_XSP16, literal(-6)))
          CFI (cfiCond163) ?RET_LOW load(1, XDATA, add(CFA_XSP16, literal(-5)))
          CFI (cfiCond163) ?RET_HIGH load(1, XDATA, add(CFA_XSP16, literal(-4)))
          CFI (cfiCond163) ?BRET_EXT load(1, XDATA, add(CFA_XSP16, literal(-3)))
          CFI (cfiCond163) DPL0 load(1, XDATA, add(CFA_XSP16, literal(-2)))
          CFI (cfiCond163) DPH0 load(1, XDATA, add(CFA_XSP16, literal(-1)))
          CFI (cfiCond163) CFA_SP SP+0
          CFI (cfiCond163) CFA_XSP16 add(XSP16, 14)
          CFI Block cfiCond164 Using cfiCommon0
          CFI (cfiCond164) Function ZDApp_InitPendingBind
          CFI (cfiCond164) Conditional ??CrossCallReturnLabel_71
          CFI (cfiCond164) R6 load(1, XDATA, add(CFA_XSP16, literal(-9)))
          CFI (cfiCond164) VB load(1, XDATA, add(CFA_XSP16, literal(-8)))
          CFI (cfiCond164) V0 load(1, XDATA, add(CFA_XSP16, literal(-7)))
          CFI (cfiCond164) R7 load(1, XDATA, add(CFA_XSP16, literal(-6)))
          CFI (cfiCond164) ?RET_LOW load(1, XDATA, add(CFA_XSP16, literal(-5)))
          CFI (cfiCond164) ?RET_HIGH load(1, XDATA, add(CFA_XSP16, literal(-4)))
          CFI (cfiCond164) ?BRET_EXT load(1, XDATA, add(CFA_XSP16, literal(-3)))
          CFI (cfiCond164) DPL0 load(1, XDATA, add(CFA_XSP16, literal(-2)))
          CFI (cfiCond164) DPH0 load(1, XDATA, add(CFA_XSP16, literal(-1)))
          CFI (cfiCond164) CFA_SP SP+0
          CFI (cfiCond164) CFA_XSP16 add(XSP16, 9)
          CFI Block cfiCond165 Using cfiCommon0
          CFI (cfiCond165) Function ZDApp_InitPendingBind
          CFI (cfiCond165) Conditional ??CrossCallReturnLabel_72
          CFI (cfiCond165) R6 load(1, XDATA, add(CFA_XSP16, literal(-9)))
          CFI (cfiCond165) VB load(1, XDATA, add(CFA_XSP16, literal(-8)))
          CFI (cfiCond165) V0 load(1, XDATA, add(CFA_XSP16, literal(-7)))
          CFI (cfiCond165) R7 load(1, XDATA, add(CFA_XSP16, literal(-6)))
          CFI (cfiCond165) ?RET_LOW load(1, XDATA, add(CFA_XSP16, literal(-5)))
          CFI (cfiCond165) ?RET_HIGH load(1, XDATA, add(CFA_XSP16, literal(-4)))
          CFI (cfiCond165) ?BRET_EXT load(1, XDATA, add(CFA_XSP16, literal(-3)))
          CFI (cfiCond165) DPL0 load(1, XDATA, add(CFA_XSP16, literal(-2)))
          CFI (cfiCond165) DPH0 load(1, XDATA, add(CFA_XSP16, literal(-1)))
          CFI (cfiCond165) CFA_SP SP+0
          CFI (cfiCond165) CFA_XSP16 add(XSP16, 9)
          CFI Block cfiCond166 Using cfiCommon0
          CFI (cfiCond166) Function ZDApp_GetEmptyPendingBindReq
          CFI (cfiCond166) Conditional ??CrossCallReturnLabel_73
          CFI (cfiCond166) DPL0 Frame(CFA_SP, 4)
          CFI (cfiCond166) DPH0 Frame(CFA_SP, 5)
          CFI (cfiCond166) CFA_SP SP+-5
          CFI Block cfiCond167 Using cfiCommon0
          CFI (cfiCond167) Function ZDApp_ProcessPendingBindReq
          CFI (cfiCond167) Conditional ??CrossCallReturnLabel_74
          CFI (cfiCond167) R6 load(1, XDATA, add(CFA_XSP16, literal(-15)))
          CFI (cfiCond167) VB load(1, XDATA, add(CFA_XSP16, literal(-14)))
          CFI (cfiCond167) V0 load(1, XDATA, add(CFA_XSP16, literal(-13)))
          CFI (cfiCond167) V1 load(1, XDATA, add(CFA_XSP16, literal(-12)))
          CFI (cfiCond167) V2 load(1, XDATA, add(CFA_XSP16, literal(-11)))
          CFI (cfiCond167) V3 load(1, XDATA, add(CFA_XSP16, literal(-10)))
          CFI (cfiCond167) V4 load(1, XDATA, add(CFA_XSP16, literal(-9)))
          CFI (cfiCond167) V5 load(1, XDATA, add(CFA_XSP16, literal(-8)))
          CFI (cfiCond167) V6 load(1, XDATA, add(CFA_XSP16, literal(-7)))
          CFI (cfiCond167) R7 load(1, XDATA, add(CFA_XSP16, literal(-6)))
          CFI (cfiCond167) ?RET_LOW load(1, XDATA, add(CFA_XSP16, literal(-5)))
          CFI (cfiCond167) ?RET_HIGH load(1, XDATA, add(CFA_XSP16, literal(-4)))
          CFI (cfiCond167) ?BRET_EXT load(1, XDATA, add(CFA_XSP16, literal(-3)))
          CFI (cfiCond167) DPL0 load(1, XDATA, add(CFA_XSP16, literal(-2)))
          CFI (cfiCond167) DPH0 load(1, XDATA, add(CFA_XSP16, literal(-1)))
          CFI (cfiCond167) CFA_SP SP+0
          CFI (cfiCond167) CFA_XSP16 add(XSP16, 16)
          CFI Block cfiCond168 Using cfiCommon0
          CFI (cfiCond168) Function ZDApp_AgeOutPendingBindEntry
          CFI (cfiCond168) Conditional ??CrossCallReturnLabel_75
          CFI (cfiCond168) R6 load(1, XDATA, add(CFA_XSP16, literal(-12)))
          CFI (cfiCond168) VB load(1, XDATA, add(CFA_XSP16, literal(-11)))
          CFI (cfiCond168) V0 load(1, XDATA, add(CFA_XSP16, literal(-10)))
          CFI (cfiCond168) V1 load(1, XDATA, add(CFA_XSP16, literal(-9)))
          CFI (cfiCond168) V2 load(1, XDATA, add(CFA_XSP16, literal(-8)))
          CFI (cfiCond168) V3 load(1, XDATA, add(CFA_XSP16, literal(-7)))
          CFI (cfiCond168) R7 load(1, XDATA, add(CFA_XSP16, literal(-6)))
          CFI (cfiCond168) ?RET_LOW load(1, XDATA, add(CFA_XSP16, literal(-5)))
          CFI (cfiCond168) ?RET_HIGH load(1, XDATA, add(CFA_XSP16, literal(-4)))
          CFI (cfiCond168) ?BRET_EXT load(1, XDATA, add(CFA_XSP16, literal(-3)))
          CFI (cfiCond168) DPL0 load(1, XDATA, add(CFA_XSP16, literal(-2)))
          CFI (cfiCond168) DPH0 load(1, XDATA, add(CFA_XSP16, literal(-1)))
          CFI (cfiCond168) CFA_SP SP+0
          CFI (cfiCond168) CFA_XSP16 add(XSP16, 26)
          CFI Block cfiPicker169 Using cfiCommon1
          CFI (cfiPicker169) NoFunction
          CFI (cfiPicker169) Picker
        LCALL   ?Subroutine32 & 0xFFFF
??CrossCallReturnLabel_79:
        MOV     A,R0
        ORL     A,R1
        RET
          CFI EndBlock cfiCond152
          CFI EndBlock cfiCond153
          CFI EndBlock cfiCond154
          CFI EndBlock cfiCond155
          CFI EndBlock cfiCond156
          CFI EndBlock cfiCond157
          CFI EndBlock cfiCond158
          CFI EndBlock cfiCond159
          CFI EndBlock cfiCond160
          CFI EndBlock cfiCond161
          CFI EndBlock cfiCond162
          CFI EndBlock cfiCond163
          CFI EndBlock cfiCond164
          CFI EndBlock cfiCond165
          CFI EndBlock cfiCond166
          CFI EndBlock cfiCond167
          CFI EndBlock cfiCond168
          CFI EndBlock cfiPicker169

        RSEG BANKED_CODE:CODE:NOROOT(0)
?Subroutine0:
          CFI Block cfiBlock170 Using cfiCommon0
          CFI NoFunction
          CFI CFA_SP SP+0
          CFI CFA_XSP16 add(XSP16, 9)
          CFI VB load(1, XDATA, add(CFA_XSP16, literal(-8)))
          CFI DPL0 load(1, XDATA, add(CFA_XSP16, literal(-2)))
          CFI DPH0 load(1, XDATA, add(CFA_XSP16, literal(-1)))
          CFI R6 load(1, XDATA, add(CFA_XSP16, literal(-9)))
          CFI R7 load(1, XDATA, add(CFA_XSP16, literal(-6)))
          CFI V0 load(1, XDATA, add(CFA_XSP16, literal(-7)))
          CFI ?BRET_EXT load(1, XDATA, add(CFA_XSP16, literal(-3)))
          CFI ?RET_HIGH load(1, XDATA, add(CFA_XSP16, literal(-4)))
          CFI ?RET_LOW load(1, XDATA, add(CFA_XSP16, literal(-5)))
        MOV     R3,#0x0
        MOV     DPTR,#ZDAppTaskID
        MOVX    A,@DPTR
        MOV     R1,A
        LCALL   ??osal_set_event?relay
          CFI EndBlock cfiBlock170
        REQUIRE ??Subroutine44_0
        ; // Fall through to label ??Subroutine44_0

        RSEG BANKED_CODE:CODE:NOROOT(0)
??Subroutine44_0:
          CFI Block cfiBlock171 Using cfiCommon0
          CFI NoFunction
          CFI CFA_SP SP+0
          CFI CFA_XSP16 add(XSP16, 9)
          CFI VB load(1, XDATA, add(CFA_XSP16, literal(-8)))
          CFI DPL0 load(1, XDATA, add(CFA_XSP16, literal(-2)))
          CFI DPH0 load(1, XDATA, add(CFA_XSP16, literal(-1)))
          CFI R6 load(1, XDATA, add(CFA_XSP16, literal(-9)))
          CFI R7 load(1, XDATA, add(CFA_XSP16, literal(-6)))
          CFI V0 load(1, XDATA, add(CFA_XSP16, literal(-7)))
          CFI ?BRET_EXT load(1, XDATA, add(CFA_XSP16, literal(-3)))
          CFI ?RET_HIGH load(1, XDATA, add(CFA_XSP16, literal(-4)))
          CFI ?RET_LOW load(1, XDATA, add(CFA_XSP16, literal(-5)))
        MOV     R7,#0x1
        LJMP    ?BANKED_LEAVE_XDATA
          CFI EndBlock cfiBlock171
// 2558 
// 2559 /*********************************************************************
// 2560  * @fn          ZDO_AddrChangeIndicationCB
// 2561  *
// 2562  * @brief       This function notifies the application that this
// 2563  *              device's address has changed.  Could happen in
// 2564  *              a network with stochastic addressing (PRO).
// 2565  *
// 2566  * @param       newAddr - the new address
// 2567  *
// 2568  * @return      none
// 2569  */

        RSEG BANKED_CODE:CODE:NOROOT(0)
// 2570 void ZDO_AddrChangeIndicationCB( uint16 newAddr )
ZDO_AddrChangeIndicationCB:
          CFI Block cfiBlock172 Using cfiCommon0
          CFI Function ZDO_AddrChangeIndicationCB
        CODE
// 2571 {
        FUNCALL ZDO_AddrChangeIndicationCB, ZDApp_NVUpdate
        LOCFRAME ISTACK, 0, STACK
        LOCFRAME PSTACK, 0, STACK
        LOCFRAME XSTACK, 14, STACK
        LOCFRAME IOVERLAY, 0, STATIC
        LOCFRAME DOVERLAY, 0, STATIC
        ARGFRAME ISTACK, 0, STACK
        ARGFRAME PSTACK, 0, STACK
        ARGFRAME XSTACK, 14, STACK
        ARGFRAME IOVERLAY, 0, STATIC
        ARGFRAME DOVERLAY, 0, STATIC
        FUNCALL ZDO_AddrChangeIndicationCB, osal_set_event
        LOCFRAME ISTACK, 0, STACK
        LOCFRAME PSTACK, 0, STACK
        LOCFRAME XSTACK, 14, STACK
        LOCFRAME IOVERLAY, 0, STATIC
        LOCFRAME DOVERLAY, 0, STATIC
        ARGFRAME ISTACK, 0, STACK
        ARGFRAME PSTACK, 0, STACK
        ARGFRAME XSTACK, 14, STACK
        ARGFRAME IOVERLAY, 0, STATIC
        ARGFRAME DOVERLAY, 0, STATIC
        FUNCALL ZDO_AddrChangeIndicationCB, osal_msg_allocate
        LOCFRAME ISTACK, 0, STACK
        LOCFRAME PSTACK, 0, STACK
        LOCFRAME XSTACK, 14, STACK
        LOCFRAME IOVERLAY, 0, STATIC
        LOCFRAME DOVERLAY, 0, STATIC
        ARGFRAME ISTACK, 0, STACK
        ARGFRAME PSTACK, 0, STACK
        ARGFRAME XSTACK, 14, STACK
        ARGFRAME IOVERLAY, 0, STATIC
        ARGFRAME DOVERLAY, 0, STATIC
        FUNCALL ZDO_AddrChangeIndicationCB, osal_msg_send
        LOCFRAME ISTACK, 0, STACK
        LOCFRAME PSTACK, 0, STACK
        LOCFRAME XSTACK, 14, STACK
        LOCFRAME IOVERLAY, 0, STATIC
        LOCFRAME DOVERLAY, 0, STATIC
        ARGFRAME ISTACK, 0, STACK
        ARGFRAME PSTACK, 0, STACK
        ARGFRAME XSTACK, 14, STACK
        ARGFRAME IOVERLAY, 0, STATIC
        ARGFRAME DOVERLAY, 0, STATIC
        FUNCALL ZDO_AddrChangeIndicationCB, ZDApp_AnnounceNewAddress
        LOCFRAME ISTACK, 0, STACK
        LOCFRAME PSTACK, 0, STACK
        LOCFRAME XSTACK, 14, STACK
        LOCFRAME IOVERLAY, 0, STATIC
        LOCFRAME DOVERLAY, 0, STATIC
        ARGFRAME ISTACK, 0, STACK
        ARGFRAME PSTACK, 0, STACK
        ARGFRAME XSTACK, 14, STACK
        ARGFRAME IOVERLAY, 0, STATIC
        ARGFRAME DOVERLAY, 0, STATIC
        MOV     A,#-0xe
        LCALL   ?BANKED_ENTER_XDATA
          CFI DPH0 load(1, XDATA, add(CFA_XSP16, literal(-1)))
          CFI DPL0 load(1, XDATA, add(CFA_XSP16, literal(-2)))
          CFI ?BRET_EXT load(1, XDATA, add(CFA_XSP16, literal(-3)))
          CFI ?RET_HIGH load(1, XDATA, add(CFA_XSP16, literal(-4)))
          CFI ?RET_LOW load(1, XDATA, add(CFA_XSP16, literal(-5)))
          CFI R7 load(1, XDATA, add(CFA_XSP16, literal(-6)))
          CFI V5 load(1, XDATA, add(CFA_XSP16, literal(-7)))
          CFI V4 load(1, XDATA, add(CFA_XSP16, literal(-8)))
          CFI V3 load(1, XDATA, add(CFA_XSP16, literal(-9)))
          CFI V2 load(1, XDATA, add(CFA_XSP16, literal(-10)))
          CFI V1 load(1, XDATA, add(CFA_XSP16, literal(-11)))
          CFI V0 load(1, XDATA, add(CFA_XSP16, literal(-12)))
          CFI VB load(1, XDATA, add(CFA_XSP16, literal(-13)))
          CFI R6 load(1, XDATA, add(CFA_XSP16, literal(-14)))
          CFI CFA_SP SP+0
          CFI CFA_XSP16 add(XSP16, 14)
        ; Saved register size: 14
        ; Auto size: 0
        MOV     ?V0 + 0,R2
        MOV     ?V0 + 1,R3
// 2572   ZDO_AddrChangeInd_t *pZDOAddrChangeMsg;
// 2573   epList_t *pItem = epList;
        MOV     DPTR,#epList
        LCALL   ??Subroutine45_0 & 0xFFFF
// 2574 
// 2575   // Notify to save info into NV
// 2576   ZDApp_NVUpdate();
??CrossCallReturnLabel_81:
        ; Setup parameters for call to function ZDApp_NVUpdate
        LCALL   ??ZDApp_NVUpdate?relay
// 2577 
// 2578   // Notify the applications
// 2579   osal_set_event( ZDAppTaskID, ZDO_STATE_CHANGE_EVT );
        ; Setup parameters for call to function osal_set_event
        MOV     R2,#0x10
        MOV     R3,#0x0
        MOV     DPTR,#ZDAppTaskID
        MOVX    A,@DPTR
        MOV     R1,A
        LCALL   ??osal_set_event?relay
        SJMP    ??CrossCallReturnLabel_82
// 2580 
// 2581   while (pItem != NULL)
// 2582   {
// 2583     if (pItem->epDesc->endPoint != ZDO_EP)
??ZDO_AddrChangeIndicationCB_0:
        MOV     A,R6
        ADD     A,#0x2
        MOV     R0,A
        MOV     A,R7
        ADDC    A,#0x0
        MOV     R1,A
        MOV     ?V0 + 2,R0
        MOV     ?V0 + 3,R1
        MOV     DPL,R0
        MOV     DPH,A
        LCALL   ??Subroutine35_0 & 0xFFFF
??CrossCallReturnLabel_34:
        JZ      ??ZDO_AddrChangeIndicationCB_1
// 2584     {
// 2585       pZDOAddrChangeMsg = (ZDO_AddrChangeInd_t *)osal_msg_allocate( sizeof( ZDO_AddrChangeInd_t ) );
        ; Setup parameters for call to function osal_msg_allocate
        MOV     R2,#0x4
        MOV     R3,#0x0
        LCALL   ??osal_msg_allocate?relay
// 2586       if (pZDOAddrChangeMsg != NULL)
        MOV     A,R2
        ORL     A,R3
        JZ      ??ZDO_AddrChangeIndicationCB_1
// 2587       {
// 2588         pZDOAddrChangeMsg->hdr.event = ZDO_ADDR_CHANGE_IND;
        MOV     DPL,R2
        MOV     DPH,R3
        MOV     A,#-0x2a
        MOVX    @DPTR,A
// 2589         pZDOAddrChangeMsg->shortAddr = newAddr;
        LCALL   ?Subroutine13 & 0xFFFF
// 2590         osal_msg_send( *(pItem->epDesc->task_id), (uint8 *)pZDOAddrChangeMsg );
??CrossCallReturnLabel_88:
        ; Setup parameters for call to function osal_msg_send
        MOV     DPL,?V0 + 2
        MOV     DPH,?V0 + 3
        LCALL   ?Subroutine22 & 0xFFFF
// 2591       }
// 2592     }
??CrossCallReturnLabel_94:
        INC     DPTR
        LCALL   ??Subroutine35_0 & 0xFFFF
??CrossCallReturnLabel_35:
        MOV     R1,A
        LCALL   ??osal_msg_send?relay
// 2593     pItem = pItem->nextDesc;
??ZDO_AddrChangeIndicationCB_1:
        MOV     DPL,R6
        MOV     DPH,R7
        LCALL   ??Subroutine45_0 & 0xFFFF
// 2594   }
??CrossCallReturnLabel_82:
        MOV     A,R6
        ORL     A,R7
        JNZ     ??ZDO_AddrChangeIndicationCB_0
// 2595 
// 2596   // Send out a device announce
// 2597   ZDApp_AnnounceNewAddress();
        ; Setup parameters for call to function ZDApp_AnnounceNewAddress
        LCALL   ??ZDApp_AnnounceNewAddress?relay
// 2598 }
        LJMP    ??Subroutine36_0 & 0xFFFF
          CFI EndBlock cfiBlock172

        RSEG BANKED_CODE:CODE:NOROOT(0)
?Subroutine20:
          CFI Block cfiCond173 Using cfiCommon0
          CFI Function ZDApp_NwkDescListProcessing
          CFI Conditional ??CrossCallReturnLabel_83
          CFI R6 load(1, XDATA, add(CFA_XSP16, literal(-14)))
          CFI VB load(1, XDATA, add(CFA_XSP16, literal(-13)))
          CFI V0 load(1, XDATA, add(CFA_XSP16, literal(-12)))
          CFI V1 load(1, XDATA, add(CFA_XSP16, literal(-11)))
          CFI V2 load(1, XDATA, add(CFA_XSP16, literal(-10)))
          CFI V3 load(1, XDATA, add(CFA_XSP16, literal(-9)))
          CFI V4 load(1, XDATA, add(CFA_XSP16, literal(-8)))
          CFI V5 load(1, XDATA, add(CFA_XSP16, literal(-7)))
          CFI R7 load(1, XDATA, add(CFA_XSP16, literal(-6)))
          CFI ?RET_LOW load(1, XDATA, add(CFA_XSP16, literal(-5)))
          CFI ?RET_HIGH load(1, XDATA, add(CFA_XSP16, literal(-4)))
          CFI ?BRET_EXT load(1, XDATA, add(CFA_XSP16, literal(-3)))
          CFI DPL0 load(1, XDATA, add(CFA_XSP16, literal(-2)))
          CFI DPH0 load(1, XDATA, add(CFA_XSP16, literal(-1)))
          CFI CFA_SP SP+0
          CFI CFA_XSP16 add(XSP16, 14)
          CFI Block cfiCond174 Using cfiCommon0
          CFI (cfiCond174) Function ZDApp_NwkDescListProcessing
          CFI (cfiCond174) Conditional ??CrossCallReturnLabel_84
          CFI (cfiCond174) R6 load(1, XDATA, add(CFA_XSP16, literal(-14)))
          CFI (cfiCond174) VB load(1, XDATA, add(CFA_XSP16, literal(-13)))
          CFI (cfiCond174) V0 load(1, XDATA, add(CFA_XSP16, literal(-12)))
          CFI (cfiCond174) V1 load(1, XDATA, add(CFA_XSP16, literal(-11)))
          CFI (cfiCond174) V2 load(1, XDATA, add(CFA_XSP16, literal(-10)))
          CFI (cfiCond174) V3 load(1, XDATA, add(CFA_XSP16, literal(-9)))
          CFI (cfiCond174) V4 load(1, XDATA, add(CFA_XSP16, literal(-8)))
          CFI (cfiCond174) V5 load(1, XDATA, add(CFA_XSP16, literal(-7)))
          CFI (cfiCond174) R7 load(1, XDATA, add(CFA_XSP16, literal(-6)))
          CFI (cfiCond174) ?RET_LOW load(1, XDATA, add(CFA_XSP16, literal(-5)))
          CFI (cfiCond174) ?RET_HIGH load(1, XDATA, add(CFA_XSP16, literal(-4)))
          CFI (cfiCond174) ?BRET_EXT load(1, XDATA, add(CFA_XSP16, literal(-3)))
          CFI (cfiCond174) DPL0 load(1, XDATA, add(CFA_XSP16, literal(-2)))
          CFI (cfiCond174) DPH0 load(1, XDATA, add(CFA_XSP16, literal(-1)))
          CFI (cfiCond174) CFA_SP SP+0
          CFI (cfiCond174) CFA_XSP16 add(XSP16, 14)
          CFI Block cfiCond175 Using cfiCommon0
          CFI (cfiCond175) Function ZDO_beaconNotifyIndCB
          CFI (cfiCond175) Conditional ??CrossCallReturnLabel_85
          CFI (cfiCond175) R6 load(1, XDATA, add(CFA_XSP16, literal(-18)))
          CFI (cfiCond175) VB load(1, XDATA, add(CFA_XSP16, literal(-17)))
          CFI (cfiCond175) V0 load(1, XDATA, add(CFA_XSP16, literal(-16)))
          CFI (cfiCond175) V1 load(1, XDATA, add(CFA_XSP16, literal(-15)))
          CFI (cfiCond175) V2 load(1, XDATA, add(CFA_XSP16, literal(-14)))
          CFI (cfiCond175) V3 load(1, XDATA, add(CFA_XSP16, literal(-13)))
          CFI (cfiCond175) V4 load(1, XDATA, add(CFA_XSP16, literal(-12)))
          CFI (cfiCond175) V5 load(1, XDATA, add(CFA_XSP16, literal(-11)))
          CFI (cfiCond175) V6 load(1, XDATA, add(CFA_XSP16, literal(-10)))
          CFI (cfiCond175) V7 load(1, XDATA, add(CFA_XSP16, literal(-9)))
          CFI (cfiCond175) V8 load(1, XDATA, add(CFA_XSP16, literal(-8)))
          CFI (cfiCond175) V9 load(1, XDATA, add(CFA_XSP16, literal(-7)))
          CFI (cfiCond175) R7 load(1, XDATA, add(CFA_XSP16, literal(-6)))
          CFI (cfiCond175) ?RET_LOW load(1, XDATA, add(CFA_XSP16, literal(-5)))
          CFI (cfiCond175) ?RET_HIGH load(1, XDATA, add(CFA_XSP16, literal(-4)))
          CFI (cfiCond175) ?BRET_EXT load(1, XDATA, add(CFA_XSP16, literal(-3)))
          CFI (cfiCond175) DPL0 load(1, XDATA, add(CFA_XSP16, literal(-2)))
          CFI (cfiCond175) DPH0 load(1, XDATA, add(CFA_XSP16, literal(-1)))
          CFI (cfiCond175) CFA_SP SP+0
          CFI (cfiCond175) CFA_XSP16 add(XSP16, 18)
          CFI Block cfiPicker176 Using cfiCommon1
          CFI (cfiPicker176) NoFunction
          CFI (cfiPicker176) Picker
        MOV     A,R6
        ADD     A,#0x14
        LCALL   ?Subroutine34 & 0xFFFF
          CFI EndBlock cfiCond173
          CFI EndBlock cfiCond174
          CFI EndBlock cfiCond175
          CFI EndBlock cfiPicker176
??CrossCallReturnLabel_116:
        REQUIRE ??Subroutine45_0
        ; // Fall through to label ??Subroutine45_0

        RSEG BANKED_CODE:CODE:NOROOT(0)
??Subroutine45_0:
          CFI Block cfiCond177 Using cfiCommon0
          CFI Function ZDO_beaconNotifyIndCB
          CFI Conditional ??CrossCallReturnLabel_80
          CFI R6 load(1, XDATA, add(CFA_XSP16, literal(-18)))
          CFI VB load(1, XDATA, add(CFA_XSP16, literal(-17)))
          CFI V0 load(1, XDATA, add(CFA_XSP16, literal(-16)))
          CFI V1 load(1, XDATA, add(CFA_XSP16, literal(-15)))
          CFI V2 load(1, XDATA, add(CFA_XSP16, literal(-14)))
          CFI V3 load(1, XDATA, add(CFA_XSP16, literal(-13)))
          CFI V4 load(1, XDATA, add(CFA_XSP16, literal(-12)))
          CFI V5 load(1, XDATA, add(CFA_XSP16, literal(-11)))
          CFI V6 load(1, XDATA, add(CFA_XSP16, literal(-10)))
          CFI V7 load(1, XDATA, add(CFA_XSP16, literal(-9)))
          CFI V8 load(1, XDATA, add(CFA_XSP16, literal(-8)))
          CFI V9 load(1, XDATA, add(CFA_XSP16, literal(-7)))
          CFI R7 load(1, XDATA, add(CFA_XSP16, literal(-6)))
          CFI ?RET_LOW load(1, XDATA, add(CFA_XSP16, literal(-5)))
          CFI ?RET_HIGH load(1, XDATA, add(CFA_XSP16, literal(-4)))
          CFI ?BRET_EXT load(1, XDATA, add(CFA_XSP16, literal(-3)))
          CFI DPL0 load(1, XDATA, add(CFA_XSP16, literal(-2)))
          CFI DPH0 load(1, XDATA, add(CFA_XSP16, literal(-1)))
          CFI CFA_SP SP+0
          CFI CFA_XSP16 add(XSP16, 18)
          CFI Block cfiCond178 Using cfiCommon0
          CFI (cfiCond178) Function ZDO_AddrChangeIndicationCB
          CFI (cfiCond178) Conditional ??CrossCallReturnLabel_81
          CFI (cfiCond178) R6 load(1, XDATA, add(CFA_XSP16, literal(-14)))
          CFI (cfiCond178) VB load(1, XDATA, add(CFA_XSP16, literal(-13)))
          CFI (cfiCond178) V0 load(1, XDATA, add(CFA_XSP16, literal(-12)))
          CFI (cfiCond178) V1 load(1, XDATA, add(CFA_XSP16, literal(-11)))
          CFI (cfiCond178) V2 load(1, XDATA, add(CFA_XSP16, literal(-10)))
          CFI (cfiCond178) V3 load(1, XDATA, add(CFA_XSP16, literal(-9)))
          CFI (cfiCond178) V4 load(1, XDATA, add(CFA_XSP16, literal(-8)))
          CFI (cfiCond178) V5 load(1, XDATA, add(CFA_XSP16, literal(-7)))
          CFI (cfiCond178) R7 load(1, XDATA, add(CFA_XSP16, literal(-6)))
          CFI (cfiCond178) ?RET_LOW load(1, XDATA, add(CFA_XSP16, literal(-5)))
          CFI (cfiCond178) ?RET_HIGH load(1, XDATA, add(CFA_XSP16, literal(-4)))
          CFI (cfiCond178) ?BRET_EXT load(1, XDATA, add(CFA_XSP16, literal(-3)))
          CFI (cfiCond178) DPL0 load(1, XDATA, add(CFA_XSP16, literal(-2)))
          CFI (cfiCond178) DPH0 load(1, XDATA, add(CFA_XSP16, literal(-1)))
          CFI (cfiCond178) CFA_SP SP+0
          CFI (cfiCond178) CFA_XSP16 add(XSP16, 14)
          CFI Block cfiCond179 Using cfiCommon0
          CFI (cfiCond179) Function ZDO_AddrChangeIndicationCB
          CFI (cfiCond179) Conditional ??CrossCallReturnLabel_82
          CFI (cfiCond179) R6 load(1, XDATA, add(CFA_XSP16, literal(-14)))
          CFI (cfiCond179) VB load(1, XDATA, add(CFA_XSP16, literal(-13)))
          CFI (cfiCond179) V0 load(1, XDATA, add(CFA_XSP16, literal(-12)))
          CFI (cfiCond179) V1 load(1, XDATA, add(CFA_XSP16, literal(-11)))
          CFI (cfiCond179) V2 load(1, XDATA, add(CFA_XSP16, literal(-10)))
          CFI (cfiCond179) V3 load(1, XDATA, add(CFA_XSP16, literal(-9)))
          CFI (cfiCond179) V4 load(1, XDATA, add(CFA_XSP16, literal(-8)))
          CFI (cfiCond179) V5 load(1, XDATA, add(CFA_XSP16, literal(-7)))
          CFI (cfiCond179) R7 load(1, XDATA, add(CFA_XSP16, literal(-6)))
          CFI (cfiCond179) ?RET_LOW load(1, XDATA, add(CFA_XSP16, literal(-5)))
          CFI (cfiCond179) ?RET_HIGH load(1, XDATA, add(CFA_XSP16, literal(-4)))
          CFI (cfiCond179) ?BRET_EXT load(1, XDATA, add(CFA_XSP16, literal(-3)))
          CFI (cfiCond179) DPL0 load(1, XDATA, add(CFA_XSP16, literal(-2)))
          CFI (cfiCond179) DPH0 load(1, XDATA, add(CFA_XSP16, literal(-1)))
          CFI (cfiCond179) CFA_SP SP+0
          CFI (cfiCond179) CFA_XSP16 add(XSP16, 14)
          CFI Block cfiCond180 Using cfiCommon0
          CFI (cfiCond180) Function ZDApp_NwkDescListProcessing
          CFI (cfiCond180) Conditional ??CrossCallReturnLabel_83
          CFI (cfiCond180) R6 load(1, XDATA, add(CFA_XSP16, literal(-14)))
          CFI (cfiCond180) VB load(1, XDATA, add(CFA_XSP16, literal(-13)))
          CFI (cfiCond180) V0 load(1, XDATA, add(CFA_XSP16, literal(-12)))
          CFI (cfiCond180) V1 load(1, XDATA, add(CFA_XSP16, literal(-11)))
          CFI (cfiCond180) V2 load(1, XDATA, add(CFA_XSP16, literal(-10)))
          CFI (cfiCond180) V3 load(1, XDATA, add(CFA_XSP16, literal(-9)))
          CFI (cfiCond180) V4 load(1, XDATA, add(CFA_XSP16, literal(-8)))
          CFI (cfiCond180) V5 load(1, XDATA, add(CFA_XSP16, literal(-7)))
          CFI (cfiCond180) R7 load(1, XDATA, add(CFA_XSP16, literal(-6)))
          CFI (cfiCond180) ?RET_LOW load(1, XDATA, add(CFA_XSP16, literal(-5)))
          CFI (cfiCond180) ?RET_HIGH load(1, XDATA, add(CFA_XSP16, literal(-4)))
          CFI (cfiCond180) ?BRET_EXT load(1, XDATA, add(CFA_XSP16, literal(-3)))
          CFI (cfiCond180) DPL0 load(1, XDATA, add(CFA_XSP16, literal(-2)))
          CFI (cfiCond180) DPH0 load(1, XDATA, add(CFA_XSP16, literal(-1)))
          CFI (cfiCond180) CFA_SP SP+0
          CFI (cfiCond180) CFA_XSP16 add(XSP16, 14)
          CFI Block cfiCond181 Using cfiCommon0
          CFI (cfiCond181) Function ZDApp_NwkDescListProcessing
          CFI (cfiCond181) Conditional ??CrossCallReturnLabel_84
          CFI (cfiCond181) R6 load(1, XDATA, add(CFA_XSP16, literal(-14)))
          CFI (cfiCond181) VB load(1, XDATA, add(CFA_XSP16, literal(-13)))
          CFI (cfiCond181) V0 load(1, XDATA, add(CFA_XSP16, literal(-12)))
          CFI (cfiCond181) V1 load(1, XDATA, add(CFA_XSP16, literal(-11)))
          CFI (cfiCond181) V2 load(1, XDATA, add(CFA_XSP16, literal(-10)))
          CFI (cfiCond181) V3 load(1, XDATA, add(CFA_XSP16, literal(-9)))
          CFI (cfiCond181) V4 load(1, XDATA, add(CFA_XSP16, literal(-8)))
          CFI (cfiCond181) V5 load(1, XDATA, add(CFA_XSP16, literal(-7)))
          CFI (cfiCond181) R7 load(1, XDATA, add(CFA_XSP16, literal(-6)))
          CFI (cfiCond181) ?RET_LOW load(1, XDATA, add(CFA_XSP16, literal(-5)))
          CFI (cfiCond181) ?RET_HIGH load(1, XDATA, add(CFA_XSP16, literal(-4)))
          CFI (cfiCond181) ?BRET_EXT load(1, XDATA, add(CFA_XSP16, literal(-3)))
          CFI (cfiCond181) DPL0 load(1, XDATA, add(CFA_XSP16, literal(-2)))
          CFI (cfiCond181) DPH0 load(1, XDATA, add(CFA_XSP16, literal(-1)))
          CFI (cfiCond181) CFA_SP SP+0
          CFI (cfiCond181) CFA_XSP16 add(XSP16, 14)
          CFI Block cfiCond182 Using cfiCommon0
          CFI (cfiCond182) Function ZDO_beaconNotifyIndCB
          CFI (cfiCond182) Conditional ??CrossCallReturnLabel_85
          CFI (cfiCond182) R6 load(1, XDATA, add(CFA_XSP16, literal(-18)))
          CFI (cfiCond182) VB load(1, XDATA, add(CFA_XSP16, literal(-17)))
          CFI (cfiCond182) V0 load(1, XDATA, add(CFA_XSP16, literal(-16)))
          CFI (cfiCond182) V1 load(1, XDATA, add(CFA_XSP16, literal(-15)))
          CFI (cfiCond182) V2 load(1, XDATA, add(CFA_XSP16, literal(-14)))
          CFI (cfiCond182) V3 load(1, XDATA, add(CFA_XSP16, literal(-13)))
          CFI (cfiCond182) V4 load(1, XDATA, add(CFA_XSP16, literal(-12)))
          CFI (cfiCond182) V5 load(1, XDATA, add(CFA_XSP16, literal(-11)))
          CFI (cfiCond182) V6 load(1, XDATA, add(CFA_XSP16, literal(-10)))
          CFI (cfiCond182) V7 load(1, XDATA, add(CFA_XSP16, literal(-9)))
          CFI (cfiCond182) V8 load(1, XDATA, add(CFA_XSP16, literal(-8)))
          CFI (cfiCond182) V9 load(1, XDATA, add(CFA_XSP16, literal(-7)))
          CFI (cfiCond182) R7 load(1, XDATA, add(CFA_XSP16, literal(-6)))
          CFI (cfiCond182) ?RET_LOW load(1, XDATA, add(CFA_XSP16, literal(-5)))
          CFI (cfiCond182) ?RET_HIGH load(1, XDATA, add(CFA_XSP16, literal(-4)))
          CFI (cfiCond182) ?BRET_EXT load(1, XDATA, add(CFA_XSP16, literal(-3)))
          CFI (cfiCond182) DPL0 load(1, XDATA, add(CFA_XSP16, literal(-2)))
          CFI (cfiCond182) DPH0 load(1, XDATA, add(CFA_XSP16, literal(-1)))
          CFI (cfiCond182) CFA_SP SP+0
          CFI (cfiCond182) CFA_XSP16 add(XSP16, 18)
          CFI Block cfiPicker183 Using cfiCommon1
          CFI (cfiPicker183) NoFunction
          CFI (cfiPicker183) Picker
        MOVX    A,@DPTR
        MOV     R6,A
        INC     DPTR
        MOVX    A,@DPTR
        MOV     R7,A
        RET
          CFI EndBlock cfiCond177
          CFI EndBlock cfiCond178
          CFI EndBlock cfiCond179
          CFI EndBlock cfiCond180
          CFI EndBlock cfiCond181
          CFI EndBlock cfiCond182
          CFI EndBlock cfiPicker183

        RSEG BANKED_CODE:CODE:NOROOT(0)
?Subroutine34:
          CFI Block cfiCond184 Using cfiCommon0
          CFI Function ZDO_beaconNotifyIndCB
          CFI Conditional ??CrossCallReturnLabel_113
          CFI R6 load(1, XDATA, add(CFA_XSP16, literal(-18)))
          CFI VB load(1, XDATA, add(CFA_XSP16, literal(-17)))
          CFI V0 load(1, XDATA, add(CFA_XSP16, literal(-16)))
          CFI V1 load(1, XDATA, add(CFA_XSP16, literal(-15)))
          CFI V2 load(1, XDATA, add(CFA_XSP16, literal(-14)))
          CFI V3 load(1, XDATA, add(CFA_XSP16, literal(-13)))
          CFI V4 load(1, XDATA, add(CFA_XSP16, literal(-12)))
          CFI V5 load(1, XDATA, add(CFA_XSP16, literal(-11)))
          CFI V6 load(1, XDATA, add(CFA_XSP16, literal(-10)))
          CFI V7 load(1, XDATA, add(CFA_XSP16, literal(-9)))
          CFI V8 load(1, XDATA, add(CFA_XSP16, literal(-8)))
          CFI V9 load(1, XDATA, add(CFA_XSP16, literal(-7)))
          CFI R7 load(1, XDATA, add(CFA_XSP16, literal(-6)))
          CFI ?RET_LOW load(1, XDATA, add(CFA_XSP16, literal(-5)))
          CFI ?RET_HIGH load(1, XDATA, add(CFA_XSP16, literal(-4)))
          CFI ?BRET_EXT load(1, XDATA, add(CFA_XSP16, literal(-3)))
          CFI DPL0 load(1, XDATA, add(CFA_XSP16, literal(-2)))
          CFI DPH0 load(1, XDATA, add(CFA_XSP16, literal(-1)))
          CFI CFA_SP SP+-1
          CFI CFA_XSP16 add(XSP16, 18)
          CFI Block cfiCond185 Using cfiCommon0
          CFI (cfiCond185) Function ZDApp_NwkDescListProcessing
          CFI (cfiCond185) Conditional ??CrossCallReturnLabel_116, ??CrossCallReturnLabel_83
          CFI (cfiCond185) R6 load(1, XDATA, add(CFA_XSP16, literal(-14)))
          CFI (cfiCond185) VB load(1, XDATA, add(CFA_XSP16, literal(-13)))
          CFI (cfiCond185) V0 load(1, XDATA, add(CFA_XSP16, literal(-12)))
          CFI (cfiCond185) V1 load(1, XDATA, add(CFA_XSP16, literal(-11)))
          CFI (cfiCond185) V2 load(1, XDATA, add(CFA_XSP16, literal(-10)))
          CFI (cfiCond185) V3 load(1, XDATA, add(CFA_XSP16, literal(-9)))
          CFI (cfiCond185) V4 load(1, XDATA, add(CFA_XSP16, literal(-8)))
          CFI (cfiCond185) V5 load(1, XDATA, add(CFA_XSP16, literal(-7)))
          CFI (cfiCond185) R7 load(1, XDATA, add(CFA_XSP16, literal(-6)))
          CFI (cfiCond185) ?RET_LOW load(1, XDATA, add(CFA_XSP16, literal(-5)))
          CFI (cfiCond185) ?RET_HIGH load(1, XDATA, add(CFA_XSP16, literal(-4)))
          CFI (cfiCond185) ?BRET_EXT load(1, XDATA, add(CFA_XSP16, literal(-3)))
          CFI (cfiCond185) DPL0 load(1, XDATA, add(CFA_XSP16, literal(-2)))
          CFI (cfiCond185) DPH0 load(1, XDATA, add(CFA_XSP16, literal(-1)))
          CFI (cfiCond185) CFA_SP SP+0
          CFI (cfiCond185) CFA_XSP16 add(XSP16, 14)
          CFI Block cfiCond186 Using cfiCommon0
          CFI (cfiCond186) Function ZDApp_NwkDescListProcessing
          CFI (cfiCond186) Conditional ??CrossCallReturnLabel_116, ??CrossCallReturnLabel_84
          CFI (cfiCond186) R6 load(1, XDATA, add(CFA_XSP16, literal(-14)))
          CFI (cfiCond186) VB load(1, XDATA, add(CFA_XSP16, literal(-13)))
          CFI (cfiCond186) V0 load(1, XDATA, add(CFA_XSP16, literal(-12)))
          CFI (cfiCond186) V1 load(1, XDATA, add(CFA_XSP16, literal(-11)))
          CFI (cfiCond186) V2 load(1, XDATA, add(CFA_XSP16, literal(-10)))
          CFI (cfiCond186) V3 load(1, XDATA, add(CFA_XSP16, literal(-9)))
          CFI (cfiCond186) V4 load(1, XDATA, add(CFA_XSP16, literal(-8)))
          CFI (cfiCond186) V5 load(1, XDATA, add(CFA_XSP16, literal(-7)))
          CFI (cfiCond186) R7 load(1, XDATA, add(CFA_XSP16, literal(-6)))
          CFI (cfiCond186) ?RET_LOW load(1, XDATA, add(CFA_XSP16, literal(-5)))
          CFI (cfiCond186) ?RET_HIGH load(1, XDATA, add(CFA_XSP16, literal(-4)))
          CFI (cfiCond186) ?BRET_EXT load(1, XDATA, add(CFA_XSP16, literal(-3)))
          CFI (cfiCond186) DPL0 load(1, XDATA, add(CFA_XSP16, literal(-2)))
          CFI (cfiCond186) DPH0 load(1, XDATA, add(CFA_XSP16, literal(-1)))
          CFI (cfiCond186) CFA_SP SP+0
          CFI (cfiCond186) CFA_XSP16 add(XSP16, 14)
          CFI Block cfiCond187 Using cfiCommon0
          CFI (cfiCond187) Function ZDO_beaconNotifyIndCB
          CFI (cfiCond187) Conditional ??CrossCallReturnLabel_116, ??CrossCallReturnLabel_85
          CFI (cfiCond187) R6 load(1, XDATA, add(CFA_XSP16, literal(-18)))
          CFI (cfiCond187) VB load(1, XDATA, add(CFA_XSP16, literal(-17)))
          CFI (cfiCond187) V0 load(1, XDATA, add(CFA_XSP16, literal(-16)))
          CFI (cfiCond187) V1 load(1, XDATA, add(CFA_XSP16, literal(-15)))
          CFI (cfiCond187) V2 load(1, XDATA, add(CFA_XSP16, literal(-14)))
          CFI (cfiCond187) V3 load(1, XDATA, add(CFA_XSP16, literal(-13)))
          CFI (cfiCond187) V4 load(1, XDATA, add(CFA_XSP16, literal(-12)))
          CFI (cfiCond187) V5 load(1, XDATA, add(CFA_XSP16, literal(-11)))
          CFI (cfiCond187) V6 load(1, XDATA, add(CFA_XSP16, literal(-10)))
          CFI (cfiCond187) V7 load(1, XDATA, add(CFA_XSP16, literal(-9)))
          CFI (cfiCond187) V8 load(1, XDATA, add(CFA_XSP16, literal(-8)))
          CFI (cfiCond187) V9 load(1, XDATA, add(CFA_XSP16, literal(-7)))
          CFI (cfiCond187) R7 load(1, XDATA, add(CFA_XSP16, literal(-6)))
          CFI (cfiCond187) ?RET_LOW load(1, XDATA, add(CFA_XSP16, literal(-5)))
          CFI (cfiCond187) ?RET_HIGH load(1, XDATA, add(CFA_XSP16, literal(-4)))
          CFI (cfiCond187) ?BRET_EXT load(1, XDATA, add(CFA_XSP16, literal(-3)))
          CFI (cfiCond187) DPL0 load(1, XDATA, add(CFA_XSP16, literal(-2)))
          CFI (cfiCond187) DPH0 load(1, XDATA, add(CFA_XSP16, literal(-1)))
          CFI (cfiCond187) CFA_SP SP+0
          CFI (cfiCond187) CFA_XSP16 add(XSP16, 18)
          CFI Block cfiCond188 Using cfiCommon0
          CFI (cfiCond188) Function ZDApp_InMsgCB
          CFI (cfiCond188) Conditional ??CrossCallReturnLabel_114
          CFI (cfiCond188) R6 load(1, XDATA, add(CFA_XSP16, literal(-10)))
          CFI (cfiCond188) VB load(1, XDATA, add(CFA_XSP16, literal(-9)))
          CFI (cfiCond188) V0 load(1, XDATA, add(CFA_XSP16, literal(-8)))
          CFI (cfiCond188) V1 load(1, XDATA, add(CFA_XSP16, literal(-7)))
          CFI (cfiCond188) R7 load(1, XDATA, add(CFA_XSP16, literal(-6)))
          CFI (cfiCond188) ?RET_LOW load(1, XDATA, add(CFA_XSP16, literal(-5)))
          CFI (cfiCond188) ?RET_HIGH load(1, XDATA, add(CFA_XSP16, literal(-4)))
          CFI (cfiCond188) ?BRET_EXT load(1, XDATA, add(CFA_XSP16, literal(-3)))
          CFI (cfiCond188) DPL0 load(1, XDATA, add(CFA_XSP16, literal(-2)))
          CFI (cfiCond188) DPH0 load(1, XDATA, add(CFA_XSP16, literal(-1)))
          CFI (cfiCond188) CFA_SP SP+0
          CFI (cfiCond188) CFA_XSP16 add(XSP16, 10)
          CFI Block cfiCond189 Using cfiCommon0
          CFI (cfiCond189) Function ZDApp_SetPendingBindDefault
          CFI (cfiCond189) Conditional ??CrossCallReturnLabel_115
          CFI (cfiCond189) R6 load(1, XDATA, add(CFA_XSP16, literal(-9)))
          CFI (cfiCond189) VB load(1, XDATA, add(CFA_XSP16, literal(-8)))
          CFI (cfiCond189) V0 load(1, XDATA, add(CFA_XSP16, literal(-7)))
          CFI (cfiCond189) R7 load(1, XDATA, add(CFA_XSP16, literal(-6)))
          CFI (cfiCond189) ?RET_LOW load(1, XDATA, add(CFA_XSP16, literal(-5)))
          CFI (cfiCond189) ?RET_HIGH load(1, XDATA, add(CFA_XSP16, literal(-4)))
          CFI (cfiCond189) ?BRET_EXT load(1, XDATA, add(CFA_XSP16, literal(-3)))
          CFI (cfiCond189) DPL0 load(1, XDATA, add(CFA_XSP16, literal(-2)))
          CFI (cfiCond189) DPH0 load(1, XDATA, add(CFA_XSP16, literal(-1)))
          CFI (cfiCond189) CFA_SP SP+0
          CFI (cfiCond189) CFA_XSP16 add(XSP16, 9)
          CFI Block cfiPicker190 Using cfiCommon1
          CFI (cfiPicker190) NoFunction
          CFI (cfiPicker190) Picker
        MOV     DPL,A
        MOV     A,R7
          CFI EndBlock cfiCond184
          CFI EndBlock cfiCond185
          CFI EndBlock cfiCond186
          CFI EndBlock cfiCond187
          CFI EndBlock cfiCond188
          CFI EndBlock cfiCond189
          CFI EndBlock cfiPicker190
        REQUIRE ??Subroutine46_0
        ; // Fall through to label ??Subroutine46_0

        RSEG BANKED_CODE:CODE:NOROOT(0)
??Subroutine46_0:
          CFI Block cfiCond191 Using cfiCommon0
          CFI Function ZDO_beaconNotifyIndCB
          CFI Conditional ??CrossCallReturnLabel_111
          CFI R6 load(1, XDATA, add(CFA_XSP16, literal(-18)))
          CFI VB load(1, XDATA, add(CFA_XSP16, literal(-17)))
          CFI V0 load(1, XDATA, add(CFA_XSP16, literal(-16)))
          CFI V1 load(1, XDATA, add(CFA_XSP16, literal(-15)))
          CFI V2 load(1, XDATA, add(CFA_XSP16, literal(-14)))
          CFI V3 load(1, XDATA, add(CFA_XSP16, literal(-13)))
          CFI V4 load(1, XDATA, add(CFA_XSP16, literal(-12)))
          CFI V5 load(1, XDATA, add(CFA_XSP16, literal(-11)))
          CFI V6 load(1, XDATA, add(CFA_XSP16, literal(-10)))
          CFI V7 load(1, XDATA, add(CFA_XSP16, literal(-9)))
          CFI V8 load(1, XDATA, add(CFA_XSP16, literal(-8)))
          CFI V9 load(1, XDATA, add(CFA_XSP16, literal(-7)))
          CFI R7 load(1, XDATA, add(CFA_XSP16, literal(-6)))
          CFI ?RET_LOW load(1, XDATA, add(CFA_XSP16, literal(-5)))
          CFI ?RET_HIGH load(1, XDATA, add(CFA_XSP16, literal(-4)))
          CFI ?BRET_EXT load(1, XDATA, add(CFA_XSP16, literal(-3)))
          CFI DPL0 load(1, XDATA, add(CFA_XSP16, literal(-2)))
          CFI DPH0 load(1, XDATA, add(CFA_XSP16, literal(-1)))
          CFI CFA_SP SP+0
          CFI CFA_XSP16 add(XSP16, 18)
          CFI Block cfiCond192 Using cfiCommon0
          CFI (cfiCond192) Function ZDO_LeaveCnf
          CFI (cfiCond192) Conditional ??CrossCallReturnLabel_117, ??CrossCallReturnLabel_109
          CFI (cfiCond192) R6 load(1, XDATA, add(CFA_XSP16, literal(-10)))
          CFI (cfiCond192) VB load(1, XDATA, add(CFA_XSP16, literal(-9)))
          CFI (cfiCond192) V0 load(1, XDATA, add(CFA_XSP16, literal(-8)))
          CFI (cfiCond192) V1 load(1, XDATA, add(CFA_XSP16, literal(-7)))
          CFI (cfiCond192) R7 load(1, XDATA, add(CFA_XSP16, literal(-6)))
          CFI (cfiCond192) ?RET_LOW load(1, XDATA, add(CFA_XSP16, literal(-5)))
          CFI (cfiCond192) ?RET_HIGH load(1, XDATA, add(CFA_XSP16, literal(-4)))
          CFI (cfiCond192) ?BRET_EXT load(1, XDATA, add(CFA_XSP16, literal(-3)))
          CFI (cfiCond192) DPL0 load(1, XDATA, add(CFA_XSP16, literal(-2)))
          CFI (cfiCond192) DPH0 load(1, XDATA, add(CFA_XSP16, literal(-1)))
          CFI (cfiCond192) CFA_SP SP+0
          CFI (cfiCond192) CFA_XSP16 add(XSP16, 10)
          CFI Block cfiCond193 Using cfiCommon0
          CFI (cfiCond193) Function ZDApp_InMsgCB
          CFI (cfiCond193) Conditional ??CrossCallReturnLabel_117, ??CrossCallReturnLabel_110
          CFI (cfiCond193) R6 load(1, XDATA, add(CFA_XSP16, literal(-10)))
          CFI (cfiCond193) VB load(1, XDATA, add(CFA_XSP16, literal(-9)))
          CFI (cfiCond193) V0 load(1, XDATA, add(CFA_XSP16, literal(-8)))
          CFI (cfiCond193) V1 load(1, XDATA, add(CFA_XSP16, literal(-7)))
          CFI (cfiCond193) R7 load(1, XDATA, add(CFA_XSP16, literal(-6)))
          CFI (cfiCond193) ?RET_LOW load(1, XDATA, add(CFA_XSP16, literal(-5)))
          CFI (cfiCond193) ?RET_HIGH load(1, XDATA, add(CFA_XSP16, literal(-4)))
          CFI (cfiCond193) ?BRET_EXT load(1, XDATA, add(CFA_XSP16, literal(-3)))
          CFI (cfiCond193) DPL0 load(1, XDATA, add(CFA_XSP16, literal(-2)))
          CFI (cfiCond193) DPH0 load(1, XDATA, add(CFA_XSP16, literal(-1)))
          CFI (cfiCond193) CFA_SP SP+0
          CFI (cfiCond193) CFA_XSP16 add(XSP16, 10)
          CFI Block cfiCond194 Using cfiCommon0
          CFI (cfiCond194) Function ZDApp_InMsgCB
          CFI (cfiCond194) Conditional ??CrossCallReturnLabel_117, ??CrossCallReturnLabel_107
          CFI (cfiCond194) R6 load(1, XDATA, add(CFA_XSP16, literal(-10)))
          CFI (cfiCond194) VB load(1, XDATA, add(CFA_XSP16, literal(-9)))
          CFI (cfiCond194) V0 load(1, XDATA, add(CFA_XSP16, literal(-8)))
          CFI (cfiCond194) V1 load(1, XDATA, add(CFA_XSP16, literal(-7)))
          CFI (cfiCond194) R7 load(1, XDATA, add(CFA_XSP16, literal(-6)))
          CFI (cfiCond194) ?RET_LOW load(1, XDATA, add(CFA_XSP16, literal(-5)))
          CFI (cfiCond194) ?RET_HIGH load(1, XDATA, add(CFA_XSP16, literal(-4)))
          CFI (cfiCond194) ?BRET_EXT load(1, XDATA, add(CFA_XSP16, literal(-3)))
          CFI (cfiCond194) DPL0 load(1, XDATA, add(CFA_XSP16, literal(-2)))
          CFI (cfiCond194) DPH0 load(1, XDATA, add(CFA_XSP16, literal(-1)))
          CFI (cfiCond194) CFA_SP SP+0
          CFI (cfiCond194) CFA_XSP16 add(XSP16, 14)
          CFI Block cfiCond195 Using cfiCommon0
          CFI (cfiCond195) Function ZDApp_InMsgCB
          CFI (cfiCond195) Conditional ??CrossCallReturnLabel_117, ??CrossCallReturnLabel_108
          CFI (cfiCond195) R6 load(1, XDATA, add(CFA_XSP16, literal(-10)))
          CFI (cfiCond195) VB load(1, XDATA, add(CFA_XSP16, literal(-9)))
          CFI (cfiCond195) V0 load(1, XDATA, add(CFA_XSP16, literal(-8)))
          CFI (cfiCond195) V1 load(1, XDATA, add(CFA_XSP16, literal(-7)))
          CFI (cfiCond195) R7 load(1, XDATA, add(CFA_XSP16, literal(-6)))
          CFI (cfiCond195) ?RET_LOW load(1, XDATA, add(CFA_XSP16, literal(-5)))
          CFI (cfiCond195) ?RET_HIGH load(1, XDATA, add(CFA_XSP16, literal(-4)))
          CFI (cfiCond195) ?BRET_EXT load(1, XDATA, add(CFA_XSP16, literal(-3)))
          CFI (cfiCond195) DPL0 load(1, XDATA, add(CFA_XSP16, literal(-2)))
          CFI (cfiCond195) DPH0 load(1, XDATA, add(CFA_XSP16, literal(-1)))
          CFI (cfiCond195) CFA_SP SP+0
          CFI (cfiCond195) CFA_XSP16 add(XSP16, 14)
          CFI Block cfiCond196 Using cfiCommon0
          CFI (cfiCond196) Function ZDO_beaconNotifyIndCB
          CFI (cfiCond196) Conditional ??CrossCallReturnLabel_117, ??CrossCallReturnLabel_103
          CFI (cfiCond196) R6 load(1, XDATA, add(CFA_XSP16, literal(-18)))
          CFI (cfiCond196) VB load(1, XDATA, add(CFA_XSP16, literal(-17)))
          CFI (cfiCond196) V0 load(1, XDATA, add(CFA_XSP16, literal(-16)))
          CFI (cfiCond196) V1 load(1, XDATA, add(CFA_XSP16, literal(-15)))
          CFI (cfiCond196) V2 load(1, XDATA, add(CFA_XSP16, literal(-14)))
          CFI (cfiCond196) V3 load(1, XDATA, add(CFA_XSP16, literal(-13)))
          CFI (cfiCond196) V4 load(1, XDATA, add(CFA_XSP16, literal(-12)))
          CFI (cfiCond196) V5 load(1, XDATA, add(CFA_XSP16, literal(-11)))
          CFI (cfiCond196) V6 load(1, XDATA, add(CFA_XSP16, literal(-10)))
          CFI (cfiCond196) V7 load(1, XDATA, add(CFA_XSP16, literal(-9)))
          CFI (cfiCond196) V8 load(1, XDATA, add(CFA_XSP16, literal(-8)))
          CFI (cfiCond196) V9 load(1, XDATA, add(CFA_XSP16, literal(-7)))
          CFI (cfiCond196) R7 load(1, XDATA, add(CFA_XSP16, literal(-6)))
          CFI (cfiCond196) ?RET_LOW load(1, XDATA, add(CFA_XSP16, literal(-5)))
          CFI (cfiCond196) ?RET_HIGH load(1, XDATA, add(CFA_XSP16, literal(-4)))
          CFI (cfiCond196) ?BRET_EXT load(1, XDATA, add(CFA_XSP16, literal(-3)))
          CFI (cfiCond196) DPL0 load(1, XDATA, add(CFA_XSP16, literal(-2)))
          CFI (cfiCond196) DPH0 load(1, XDATA, add(CFA_XSP16, literal(-1)))
          CFI (cfiCond196) CFA_SP SP+0
          CFI (cfiCond196) CFA_XSP16 add(XSP16, 18)
          CFI Block cfiCond197 Using cfiCommon0
          CFI (cfiCond197) Function ZDApp_GetEmptyPendingBindReq
          CFI (cfiCond197) Conditional ??CrossCallReturnLabel_117, ??CrossCallReturnLabel_104
          CFI (cfiCond197) DPL0 Frame(CFA_SP, 4)
          CFI (cfiCond197) DPH0 Frame(CFA_SP, 5)
          CFI (cfiCond197) CFA_SP SP+-5
          CFI Block cfiCond198 Using cfiCommon0
          CFI (cfiCond198) Function ZDApp_ProcessPendingBindReq
          CFI (cfiCond198) Conditional ??CrossCallReturnLabel_117, ??CrossCallReturnLabel_105
          CFI (cfiCond198) R6 load(1, XDATA, add(CFA_XSP16, literal(-15)))
          CFI (cfiCond198) VB load(1, XDATA, add(CFA_XSP16, literal(-14)))
          CFI (cfiCond198) V0 load(1, XDATA, add(CFA_XSP16, literal(-13)))
          CFI (cfiCond198) V1 load(1, XDATA, add(CFA_XSP16, literal(-12)))
          CFI (cfiCond198) V2 load(1, XDATA, add(CFA_XSP16, literal(-11)))
          CFI (cfiCond198) V3 load(1, XDATA, add(CFA_XSP16, literal(-10)))
          CFI (cfiCond198) V4 load(1, XDATA, add(CFA_XSP16, literal(-9)))
          CFI (cfiCond198) V5 load(1, XDATA, add(CFA_XSP16, literal(-8)))
          CFI (cfiCond198) V6 load(1, XDATA, add(CFA_XSP16, literal(-7)))
          CFI (cfiCond198) R7 load(1, XDATA, add(CFA_XSP16, literal(-6)))
          CFI (cfiCond198) ?RET_LOW load(1, XDATA, add(CFA_XSP16, literal(-5)))
          CFI (cfiCond198) ?RET_HIGH load(1, XDATA, add(CFA_XSP16, literal(-4)))
          CFI (cfiCond198) ?BRET_EXT load(1, XDATA, add(CFA_XSP16, literal(-3)))
          CFI (cfiCond198) DPL0 load(1, XDATA, add(CFA_XSP16, literal(-2)))
          CFI (cfiCond198) DPH0 load(1, XDATA, add(CFA_XSP16, literal(-1)))
          CFI (cfiCond198) CFA_SP SP+0
          CFI (cfiCond198) CFA_XSP16 add(XSP16, 16)
          CFI Block cfiCond199 Using cfiCommon0
          CFI (cfiCond199) Function ZDApp_AgeOutPendingBindEntry
          CFI (cfiCond199) Conditional ??CrossCallReturnLabel_117, ??CrossCallReturnLabel_106
          CFI (cfiCond199) R6 load(1, XDATA, add(CFA_XSP16, literal(-12)))
          CFI (cfiCond199) VB load(1, XDATA, add(CFA_XSP16, literal(-11)))
          CFI (cfiCond199) V0 load(1, XDATA, add(CFA_XSP16, literal(-10)))
          CFI (cfiCond199) V1 load(1, XDATA, add(CFA_XSP16, literal(-9)))
          CFI (cfiCond199) V2 load(1, XDATA, add(CFA_XSP16, literal(-8)))
          CFI (cfiCond199) V3 load(1, XDATA, add(CFA_XSP16, literal(-7)))
          CFI (cfiCond199) R7 load(1, XDATA, add(CFA_XSP16, literal(-6)))
          CFI (cfiCond199) ?RET_LOW load(1, XDATA, add(CFA_XSP16, literal(-5)))
          CFI (cfiCond199) ?RET_HIGH load(1, XDATA, add(CFA_XSP16, literal(-4)))
          CFI (cfiCond199) ?BRET_EXT load(1, XDATA, add(CFA_XSP16, literal(-3)))
          CFI (cfiCond199) DPL0 load(1, XDATA, add(CFA_XSP16, literal(-2)))
          CFI (cfiCond199) DPH0 load(1, XDATA, add(CFA_XSP16, literal(-1)))
          CFI (cfiCond199) CFA_SP SP+0
          CFI (cfiCond199) CFA_XSP16 add(XSP16, 26)
          CFI Block cfiCond200 Using cfiCommon0
          CFI (cfiCond200) Function ZDApp_ProcessPendingBindReq
          CFI (cfiCond200) Conditional ??CrossCallReturnLabel_112, ??CrossCallReturnLabel_9
          CFI (cfiCond200) R6 load(1, XDATA, add(CFA_XSP16, literal(-15)))
          CFI (cfiCond200) VB load(1, XDATA, add(CFA_XSP16, literal(-14)))
          CFI (cfiCond200) V0 load(1, XDATA, add(CFA_XSP16, literal(-13)))
          CFI (cfiCond200) V1 load(1, XDATA, add(CFA_XSP16, literal(-12)))
          CFI (cfiCond200) V2 load(1, XDATA, add(CFA_XSP16, literal(-11)))
          CFI (cfiCond200) V3 load(1, XDATA, add(CFA_XSP16, literal(-10)))
          CFI (cfiCond200) V4 load(1, XDATA, add(CFA_XSP16, literal(-9)))
          CFI (cfiCond200) V5 load(1, XDATA, add(CFA_XSP16, literal(-8)))
          CFI (cfiCond200) V6 load(1, XDATA, add(CFA_XSP16, literal(-7)))
          CFI (cfiCond200) R7 load(1, XDATA, add(CFA_XSP16, literal(-6)))
          CFI (cfiCond200) ?RET_LOW load(1, XDATA, add(CFA_XSP16, literal(-5)))
          CFI (cfiCond200) ?RET_HIGH load(1, XDATA, add(CFA_XSP16, literal(-4)))
          CFI (cfiCond200) ?BRET_EXT load(1, XDATA, add(CFA_XSP16, literal(-3)))
          CFI (cfiCond200) DPL0 load(1, XDATA, add(CFA_XSP16, literal(-2)))
          CFI (cfiCond200) DPH0 load(1, XDATA, add(CFA_XSP16, literal(-1)))
          CFI (cfiCond200) CFA_SP SP+0
          CFI (cfiCond200) CFA_XSP16 add(XSP16, 16)
          CFI Block cfiCond201 Using cfiCommon0
          CFI (cfiCond201) Function ZDApp_AgeOutPendingBindEntry
          CFI (cfiCond201) Conditional ??CrossCallReturnLabel_112, ??CrossCallReturnLabel_10
          CFI (cfiCond201) R6 load(1, XDATA, add(CFA_XSP16, literal(-12)))
          CFI (cfiCond201) VB load(1, XDATA, add(CFA_XSP16, literal(-11)))
          CFI (cfiCond201) V0 load(1, XDATA, add(CFA_XSP16, literal(-10)))
          CFI (cfiCond201) V1 load(1, XDATA, add(CFA_XSP16, literal(-9)))
          CFI (cfiCond201) V2 load(1, XDATA, add(CFA_XSP16, literal(-8)))
          CFI (cfiCond201) V3 load(1, XDATA, add(CFA_XSP16, literal(-7)))
          CFI (cfiCond201) R7 load(1, XDATA, add(CFA_XSP16, literal(-6)))
          CFI (cfiCond201) ?RET_LOW load(1, XDATA, add(CFA_XSP16, literal(-5)))
          CFI (cfiCond201) ?RET_HIGH load(1, XDATA, add(CFA_XSP16, literal(-4)))
          CFI (cfiCond201) ?BRET_EXT load(1, XDATA, add(CFA_XSP16, literal(-3)))
          CFI (cfiCond201) DPL0 load(1, XDATA, add(CFA_XSP16, literal(-2)))
          CFI (cfiCond201) DPH0 load(1, XDATA, add(CFA_XSP16, literal(-1)))
          CFI (cfiCond201) CFA_SP SP+0
          CFI (cfiCond201) CFA_XSP16 add(XSP16, 26)
          CFI Block cfiCond202 Using cfiCommon0
          CFI (cfiCond202) Function ZDO_beaconNotifyIndCB
          CFI (cfiCond202) Conditional ??CrossCallReturnLabel_113
          CFI (cfiCond202) R6 load(1, XDATA, add(CFA_XSP16, literal(-18)))
          CFI (cfiCond202) VB load(1, XDATA, add(CFA_XSP16, literal(-17)))
          CFI (cfiCond202) V0 load(1, XDATA, add(CFA_XSP16, literal(-16)))
          CFI (cfiCond202) V1 load(1, XDATA, add(CFA_XSP16, literal(-15)))
          CFI (cfiCond202) V2 load(1, XDATA, add(CFA_XSP16, literal(-14)))
          CFI (cfiCond202) V3 load(1, XDATA, add(CFA_XSP16, literal(-13)))
          CFI (cfiCond202) V4 load(1, XDATA, add(CFA_XSP16, literal(-12)))
          CFI (cfiCond202) V5 load(1, XDATA, add(CFA_XSP16, literal(-11)))
          CFI (cfiCond202) V6 load(1, XDATA, add(CFA_XSP16, literal(-10)))
          CFI (cfiCond202) V7 load(1, XDATA, add(CFA_XSP16, literal(-9)))
          CFI (cfiCond202) V8 load(1, XDATA, add(CFA_XSP16, literal(-8)))
          CFI (cfiCond202) V9 load(1, XDATA, add(CFA_XSP16, literal(-7)))
          CFI (cfiCond202) R7 load(1, XDATA, add(CFA_XSP16, literal(-6)))
          CFI (cfiCond202) ?RET_LOW load(1, XDATA, add(CFA_XSP16, literal(-5)))
          CFI (cfiCond202) ?RET_HIGH load(1, XDATA, add(CFA_XSP16, literal(-4)))
          CFI (cfiCond202) ?BRET_EXT load(1, XDATA, add(CFA_XSP16, literal(-3)))
          CFI (cfiCond202) DPL0 load(1, XDATA, add(CFA_XSP16, literal(-2)))
          CFI (cfiCond202) DPH0 load(1, XDATA, add(CFA_XSP16, literal(-1)))
          CFI (cfiCond202) CFA_SP SP+-1
          CFI (cfiCond202) CFA_XSP16 add(XSP16, 18)
          CFI Block cfiCond203 Using cfiCommon0
          CFI (cfiCond203) Function ZDApp_NwkDescListProcessing
          CFI (cfiCond203) Conditional ??CrossCallReturnLabel_116, ??CrossCallReturnLabel_83
          CFI (cfiCond203) R6 load(1, XDATA, add(CFA_XSP16, literal(-14)))
          CFI (cfiCond203) VB load(1, XDATA, add(CFA_XSP16, literal(-13)))
          CFI (cfiCond203) V0 load(1, XDATA, add(CFA_XSP16, literal(-12)))
          CFI (cfiCond203) V1 load(1, XDATA, add(CFA_XSP16, literal(-11)))
          CFI (cfiCond203) V2 load(1, XDATA, add(CFA_XSP16, literal(-10)))
          CFI (cfiCond203) V3 load(1, XDATA, add(CFA_XSP16, literal(-9)))
          CFI (cfiCond203) V4 load(1, XDATA, add(CFA_XSP16, literal(-8)))
          CFI (cfiCond203) V5 load(1, XDATA, add(CFA_XSP16, literal(-7)))
          CFI (cfiCond203) R7 load(1, XDATA, add(CFA_XSP16, literal(-6)))
          CFI (cfiCond203) ?RET_LOW load(1, XDATA, add(CFA_XSP16, literal(-5)))
          CFI (cfiCond203) ?RET_HIGH load(1, XDATA, add(CFA_XSP16, literal(-4)))
          CFI (cfiCond203) ?BRET_EXT load(1, XDATA, add(CFA_XSP16, literal(-3)))
          CFI (cfiCond203) DPL0 load(1, XDATA, add(CFA_XSP16, literal(-2)))
          CFI (cfiCond203) DPH0 load(1, XDATA, add(CFA_XSP16, literal(-1)))
          CFI (cfiCond203) CFA_SP SP+0
          CFI (cfiCond203) CFA_XSP16 add(XSP16, 14)
          CFI Block cfiCond204 Using cfiCommon0
          CFI (cfiCond204) Function ZDApp_NwkDescListProcessing
          CFI (cfiCond204) Conditional ??CrossCallReturnLabel_116, ??CrossCallReturnLabel_84
          CFI (cfiCond204) R6 load(1, XDATA, add(CFA_XSP16, literal(-14)))
          CFI (cfiCond204) VB load(1, XDATA, add(CFA_XSP16, literal(-13)))
          CFI (cfiCond204) V0 load(1, XDATA, add(CFA_XSP16, literal(-12)))
          CFI (cfiCond204) V1 load(1, XDATA, add(CFA_XSP16, literal(-11)))
          CFI (cfiCond204) V2 load(1, XDATA, add(CFA_XSP16, literal(-10)))
          CFI (cfiCond204) V3 load(1, XDATA, add(CFA_XSP16, literal(-9)))
          CFI (cfiCond204) V4 load(1, XDATA, add(CFA_XSP16, literal(-8)))
          CFI (cfiCond204) V5 load(1, XDATA, add(CFA_XSP16, literal(-7)))
          CFI (cfiCond204) R7 load(1, XDATA, add(CFA_XSP16, literal(-6)))
          CFI (cfiCond204) ?RET_LOW load(1, XDATA, add(CFA_XSP16, literal(-5)))
          CFI (cfiCond204) ?RET_HIGH load(1, XDATA, add(CFA_XSP16, literal(-4)))
          CFI (cfiCond204) ?BRET_EXT load(1, XDATA, add(CFA_XSP16, literal(-3)))
          CFI (cfiCond204) DPL0 load(1, XDATA, add(CFA_XSP16, literal(-2)))
          CFI (cfiCond204) DPH0 load(1, XDATA, add(CFA_XSP16, literal(-1)))
          CFI (cfiCond204) CFA_SP SP+0
          CFI (cfiCond204) CFA_XSP16 add(XSP16, 14)
          CFI Block cfiCond205 Using cfiCommon0
          CFI (cfiCond205) Function ZDO_beaconNotifyIndCB
          CFI (cfiCond205) Conditional ??CrossCallReturnLabel_116, ??CrossCallReturnLabel_85
          CFI (cfiCond205) R6 load(1, XDATA, add(CFA_XSP16, literal(-18)))
          CFI (cfiCond205) VB load(1, XDATA, add(CFA_XSP16, literal(-17)))
          CFI (cfiCond205) V0 load(1, XDATA, add(CFA_XSP16, literal(-16)))
          CFI (cfiCond205) V1 load(1, XDATA, add(CFA_XSP16, literal(-15)))
          CFI (cfiCond205) V2 load(1, XDATA, add(CFA_XSP16, literal(-14)))
          CFI (cfiCond205) V3 load(1, XDATA, add(CFA_XSP16, literal(-13)))
          CFI (cfiCond205) V4 load(1, XDATA, add(CFA_XSP16, literal(-12)))
          CFI (cfiCond205) V5 load(1, XDATA, add(CFA_XSP16, literal(-11)))
          CFI (cfiCond205) V6 load(1, XDATA, add(CFA_XSP16, literal(-10)))
          CFI (cfiCond205) V7 load(1, XDATA, add(CFA_XSP16, literal(-9)))
          CFI (cfiCond205) V8 load(1, XDATA, add(CFA_XSP16, literal(-8)))
          CFI (cfiCond205) V9 load(1, XDATA, add(CFA_XSP16, literal(-7)))
          CFI (cfiCond205) R7 load(1, XDATA, add(CFA_XSP16, literal(-6)))
          CFI (cfiCond205) ?RET_LOW load(1, XDATA, add(CFA_XSP16, literal(-5)))
          CFI (cfiCond205) ?RET_HIGH load(1, XDATA, add(CFA_XSP16, literal(-4)))
          CFI (cfiCond205) ?BRET_EXT load(1, XDATA, add(CFA_XSP16, literal(-3)))
          CFI (cfiCond205) DPL0 load(1, XDATA, add(CFA_XSP16, literal(-2)))
          CFI (cfiCond205) DPH0 load(1, XDATA, add(CFA_XSP16, literal(-1)))
          CFI (cfiCond205) CFA_SP SP+0
          CFI (cfiCond205) CFA_XSP16 add(XSP16, 18)
          CFI Block cfiCond206 Using cfiCommon0
          CFI (cfiCond206) Function ZDApp_InMsgCB
          CFI (cfiCond206) Conditional ??CrossCallReturnLabel_114
          CFI (cfiCond206) R6 load(1, XDATA, add(CFA_XSP16, literal(-10)))
          CFI (cfiCond206) VB load(1, XDATA, add(CFA_XSP16, literal(-9)))
          CFI (cfiCond206) V0 load(1, XDATA, add(CFA_XSP16, literal(-8)))
          CFI (cfiCond206) V1 load(1, XDATA, add(CFA_XSP16, literal(-7)))
          CFI (cfiCond206) R7 load(1, XDATA, add(CFA_XSP16, literal(-6)))
          CFI (cfiCond206) ?RET_LOW load(1, XDATA, add(CFA_XSP16, literal(-5)))
          CFI (cfiCond206) ?RET_HIGH load(1, XDATA, add(CFA_XSP16, literal(-4)))
          CFI (cfiCond206) ?BRET_EXT load(1, XDATA, add(CFA_XSP16, literal(-3)))
          CFI (cfiCond206) DPL0 load(1, XDATA, add(CFA_XSP16, literal(-2)))
          CFI (cfiCond206) DPH0 load(1, XDATA, add(CFA_XSP16, literal(-1)))
          CFI (cfiCond206) CFA_SP SP+0
          CFI (cfiCond206) CFA_XSP16 add(XSP16, 10)
          CFI Block cfiCond207 Using cfiCommon0
          CFI (cfiCond207) Function ZDApp_SetPendingBindDefault
          CFI (cfiCond207) Conditional ??CrossCallReturnLabel_115
          CFI (cfiCond207) R6 load(1, XDATA, add(CFA_XSP16, literal(-9)))
          CFI (cfiCond207) VB load(1, XDATA, add(CFA_XSP16, literal(-8)))
          CFI (cfiCond207) V0 load(1, XDATA, add(CFA_XSP16, literal(-7)))
          CFI (cfiCond207) R7 load(1, XDATA, add(CFA_XSP16, literal(-6)))
          CFI (cfiCond207) ?RET_LOW load(1, XDATA, add(CFA_XSP16, literal(-5)))
          CFI (cfiCond207) ?RET_HIGH load(1, XDATA, add(CFA_XSP16, literal(-4)))
          CFI (cfiCond207) ?BRET_EXT load(1, XDATA, add(CFA_XSP16, literal(-3)))
          CFI (cfiCond207) DPL0 load(1, XDATA, add(CFA_XSP16, literal(-2)))
          CFI (cfiCond207) DPH0 load(1, XDATA, add(CFA_XSP16, literal(-1)))
          CFI (cfiCond207) CFA_SP SP+0
          CFI (cfiCond207) CFA_XSP16 add(XSP16, 9)
          CFI Block cfiPicker208 Using cfiCommon1
          CFI (cfiPicker208) NoFunction
          CFI (cfiPicker208) Picker
        ADDC    A,#0x0
        MOV     DPH,A
        RET
          CFI EndBlock cfiCond191
          CFI EndBlock cfiCond192
          CFI EndBlock cfiCond193
          CFI EndBlock cfiCond194
          CFI EndBlock cfiCond195
          CFI EndBlock cfiCond196
          CFI EndBlock cfiCond197
          CFI EndBlock cfiCond198
          CFI EndBlock cfiCond199
          CFI EndBlock cfiCond200
          CFI EndBlock cfiCond201
          CFI EndBlock cfiCond202
          CFI EndBlock cfiCond203
          CFI EndBlock cfiCond204
          CFI EndBlock cfiCond205
          CFI EndBlock cfiCond206
          CFI EndBlock cfiCond207
          CFI EndBlock cfiPicker208

        RSEG BANKED_CODE:CODE:NOROOT(0)
?Subroutine13:
          CFI Block cfiCond209 Using cfiCommon0
          CFI Function ZDO_AddrChangeIndicationCB
          CFI Conditional ??CrossCallReturnLabel_88
          CFI R6 load(1, XDATA, add(CFA_XSP16, literal(-14)))
          CFI VB load(1, XDATA, add(CFA_XSP16, literal(-13)))
          CFI V0 load(1, XDATA, add(CFA_XSP16, literal(-12)))
          CFI V1 load(1, XDATA, add(CFA_XSP16, literal(-11)))
          CFI V2 load(1, XDATA, add(CFA_XSP16, literal(-10)))
          CFI V3 load(1, XDATA, add(CFA_XSP16, literal(-9)))
          CFI V4 load(1, XDATA, add(CFA_XSP16, literal(-8)))
          CFI V5 load(1, XDATA, add(CFA_XSP16, literal(-7)))
          CFI R7 load(1, XDATA, add(CFA_XSP16, literal(-6)))
          CFI ?RET_LOW load(1, XDATA, add(CFA_XSP16, literal(-5)))
          CFI ?RET_HIGH load(1, XDATA, add(CFA_XSP16, literal(-4)))
          CFI ?BRET_EXT load(1, XDATA, add(CFA_XSP16, literal(-3)))
          CFI DPL0 load(1, XDATA, add(CFA_XSP16, literal(-2)))
          CFI DPH0 load(1, XDATA, add(CFA_XSP16, literal(-1)))
          CFI CFA_SP SP+0
          CFI CFA_XSP16 add(XSP16, 14)
          CFI Block cfiCond210 Using cfiCommon0
          CFI (cfiCond210) Function ZDO_JoinIndicationCB
          CFI (cfiCond210) Conditional ??CrossCallReturnLabel_89
          CFI (cfiCond210) R6 load(1, XDATA, add(CFA_XSP16, literal(-16)))
          CFI (cfiCond210) VB load(1, XDATA, add(CFA_XSP16, literal(-15)))
          CFI (cfiCond210) V0 load(1, XDATA, add(CFA_XSP16, literal(-14)))
          CFI (cfiCond210) V1 load(1, XDATA, add(CFA_XSP16, literal(-13)))
          CFI (cfiCond210) V2 load(1, XDATA, add(CFA_XSP16, literal(-12)))
          CFI (cfiCond210) V3 load(1, XDATA, add(CFA_XSP16, literal(-11)))
          CFI (cfiCond210) V4 load(1, XDATA, add(CFA_XSP16, literal(-10)))
          CFI (cfiCond210) V5 load(1, XDATA, add(CFA_XSP16, literal(-9)))
          CFI (cfiCond210) V6 load(1, XDATA, add(CFA_XSP16, literal(-8)))
          CFI (cfiCond210) V7 load(1, XDATA, add(CFA_XSP16, literal(-7)))
          CFI (cfiCond210) R7 load(1, XDATA, add(CFA_XSP16, literal(-6)))
          CFI (cfiCond210) ?RET_LOW load(1, XDATA, add(CFA_XSP16, literal(-5)))
          CFI (cfiCond210) ?RET_HIGH load(1, XDATA, add(CFA_XSP16, literal(-4)))
          CFI (cfiCond210) ?BRET_EXT load(1, XDATA, add(CFA_XSP16, literal(-3)))
          CFI (cfiCond210) DPL0 load(1, XDATA, add(CFA_XSP16, literal(-2)))
          CFI (cfiCond210) DPH0 load(1, XDATA, add(CFA_XSP16, literal(-1)))
          CFI (cfiCond210) CFA_SP SP+0
          CFI (cfiCond210) CFA_XSP16 add(XSP16, 16)
          CFI Block cfiPicker211 Using cfiCommon1
          CFI (cfiPicker211) NoFunction
          CFI (cfiPicker211) Picker
        INC     DPTR
        INC     DPTR
          CFI EndBlock cfiCond209
          CFI EndBlock cfiCond210
          CFI EndBlock cfiPicker211
        REQUIRE ??Subroutine47_0
        ; // Fall through to label ??Subroutine47_0

        RSEG BANKED_CODE:CODE:NOROOT(0)
??Subroutine47_0:
          CFI Block cfiCond212 Using cfiCommon0
          CFI Function ZDApp_ProcessSecEvent
          CFI Conditional ??CrossCallReturnLabel_86
          CFI R6 load(1, XDATA, add(CFA_XSP16, literal(-16)))
          CFI VB load(1, XDATA, add(CFA_XSP16, literal(-15)))
          CFI V0 load(1, XDATA, add(CFA_XSP16, literal(-14)))
          CFI V1 load(1, XDATA, add(CFA_XSP16, literal(-13)))
          CFI V2 load(1, XDATA, add(CFA_XSP16, literal(-12)))
          CFI V3 load(1, XDATA, add(CFA_XSP16, literal(-11)))
          CFI V4 load(1, XDATA, add(CFA_XSP16, literal(-10)))
          CFI V5 load(1, XDATA, add(CFA_XSP16, literal(-9)))
          CFI V6 load(1, XDATA, add(CFA_XSP16, literal(-8)))
          CFI V7 load(1, XDATA, add(CFA_XSP16, literal(-7)))
          CFI R7 load(1, XDATA, add(CFA_XSP16, literal(-6)))
          CFI ?RET_LOW load(1, XDATA, add(CFA_XSP16, literal(-5)))
          CFI ?RET_HIGH load(1, XDATA, add(CFA_XSP16, literal(-4)))
          CFI ?BRET_EXT load(1, XDATA, add(CFA_XSP16, literal(-3)))
          CFI DPL0 load(1, XDATA, add(CFA_XSP16, literal(-2)))
          CFI DPH0 load(1, XDATA, add(CFA_XSP16, literal(-1)))
          CFI CFA_SP SP+0
          CFI CFA_XSP16 add(XSP16, 16)
          CFI Block cfiCond213 Using cfiCommon0
          CFI (cfiCond213) Function ZDApp_LeaveUpdate
          CFI (cfiCond213) Conditional ??CrossCallReturnLabel_87
          CFI (cfiCond213) R6 load(1, XDATA, add(CFA_XSP16, literal(-15)))
          CFI (cfiCond213) VB load(1, XDATA, add(CFA_XSP16, literal(-14)))
          CFI (cfiCond213) V0 load(1, XDATA, add(CFA_XSP16, literal(-13)))
          CFI (cfiCond213) V1 load(1, XDATA, add(CFA_XSP16, literal(-12)))
          CFI (cfiCond213) V2 load(1, XDATA, add(CFA_XSP16, literal(-11)))
          CFI (cfiCond213) V3 load(1, XDATA, add(CFA_XSP16, literal(-10)))
          CFI (cfiCond213) V4 load(1, XDATA, add(CFA_XSP16, literal(-9)))
          CFI (cfiCond213) V5 load(1, XDATA, add(CFA_XSP16, literal(-8)))
          CFI (cfiCond213) V6 load(1, XDATA, add(CFA_XSP16, literal(-7)))
          CFI (cfiCond213) R7 load(1, XDATA, add(CFA_XSP16, literal(-6)))
          CFI (cfiCond213) ?RET_LOW load(1, XDATA, add(CFA_XSP16, literal(-5)))
          CFI (cfiCond213) ?RET_HIGH load(1, XDATA, add(CFA_XSP16, literal(-4)))
          CFI (cfiCond213) ?BRET_EXT load(1, XDATA, add(CFA_XSP16, literal(-3)))
          CFI (cfiCond213) DPL0 load(1, XDATA, add(CFA_XSP16, literal(-2)))
          CFI (cfiCond213) DPH0 load(1, XDATA, add(CFA_XSP16, literal(-1)))
          CFI (cfiCond213) CFA_SP SP+0
          CFI (cfiCond213) CFA_XSP16 add(XSP16, 32)
          CFI Block cfiCond214 Using cfiCommon0
          CFI (cfiCond214) Function ZDO_AddrChangeIndicationCB
          CFI (cfiCond214) Conditional ??CrossCallReturnLabel_88
          CFI (cfiCond214) R6 load(1, XDATA, add(CFA_XSP16, literal(-14)))
          CFI (cfiCond214) VB load(1, XDATA, add(CFA_XSP16, literal(-13)))
          CFI (cfiCond214) V0 load(1, XDATA, add(CFA_XSP16, literal(-12)))
          CFI (cfiCond214) V1 load(1, XDATA, add(CFA_XSP16, literal(-11)))
          CFI (cfiCond214) V2 load(1, XDATA, add(CFA_XSP16, literal(-10)))
          CFI (cfiCond214) V3 load(1, XDATA, add(CFA_XSP16, literal(-9)))
          CFI (cfiCond214) V4 load(1, XDATA, add(CFA_XSP16, literal(-8)))
          CFI (cfiCond214) V5 load(1, XDATA, add(CFA_XSP16, literal(-7)))
          CFI (cfiCond214) R7 load(1, XDATA, add(CFA_XSP16, literal(-6)))
          CFI (cfiCond214) ?RET_LOW load(1, XDATA, add(CFA_XSP16, literal(-5)))
          CFI (cfiCond214) ?RET_HIGH load(1, XDATA, add(CFA_XSP16, literal(-4)))
          CFI (cfiCond214) ?BRET_EXT load(1, XDATA, add(CFA_XSP16, literal(-3)))
          CFI (cfiCond214) DPL0 load(1, XDATA, add(CFA_XSP16, literal(-2)))
          CFI (cfiCond214) DPH0 load(1, XDATA, add(CFA_XSP16, literal(-1)))
          CFI (cfiCond214) CFA_SP SP+0
          CFI (cfiCond214) CFA_XSP16 add(XSP16, 14)
          CFI Block cfiCond215 Using cfiCommon0
          CFI (cfiCond215) Function ZDO_JoinIndicationCB
          CFI (cfiCond215) Conditional ??CrossCallReturnLabel_89
          CFI (cfiCond215) R6 load(1, XDATA, add(CFA_XSP16, literal(-16)))
          CFI (cfiCond215) VB load(1, XDATA, add(CFA_XSP16, literal(-15)))
          CFI (cfiCond215) V0 load(1, XDATA, add(CFA_XSP16, literal(-14)))
          CFI (cfiCond215) V1 load(1, XDATA, add(CFA_XSP16, literal(-13)))
          CFI (cfiCond215) V2 load(1, XDATA, add(CFA_XSP16, literal(-12)))
          CFI (cfiCond215) V3 load(1, XDATA, add(CFA_XSP16, literal(-11)))
          CFI (cfiCond215) V4 load(1, XDATA, add(CFA_XSP16, literal(-10)))
          CFI (cfiCond215) V5 load(1, XDATA, add(CFA_XSP16, literal(-9)))
          CFI (cfiCond215) V6 load(1, XDATA, add(CFA_XSP16, literal(-8)))
          CFI (cfiCond215) V7 load(1, XDATA, add(CFA_XSP16, literal(-7)))
          CFI (cfiCond215) R7 load(1, XDATA, add(CFA_XSP16, literal(-6)))
          CFI (cfiCond215) ?RET_LOW load(1, XDATA, add(CFA_XSP16, literal(-5)))
          CFI (cfiCond215) ?RET_HIGH load(1, XDATA, add(CFA_XSP16, literal(-4)))
          CFI (cfiCond215) ?BRET_EXT load(1, XDATA, add(CFA_XSP16, literal(-3)))
          CFI (cfiCond215) DPL0 load(1, XDATA, add(CFA_XSP16, literal(-2)))
          CFI (cfiCond215) DPH0 load(1, XDATA, add(CFA_XSP16, literal(-1)))
          CFI (cfiCond215) CFA_SP SP+0
          CFI (cfiCond215) CFA_XSP16 add(XSP16, 16)
          CFI Block cfiPicker216 Using cfiCommon1
          CFI (cfiPicker216) NoFunction
          CFI (cfiPicker216) Picker
        MOV     A,?V0 + 0
        MOVX    @DPTR,A
        INC     DPTR
        MOV     A,?V0 + 1
        MOVX    @DPTR,A
        RET
          CFI EndBlock cfiCond212
          CFI EndBlock cfiCond213
          CFI EndBlock cfiCond214
          CFI EndBlock cfiCond215
          CFI EndBlock cfiPicker216
// 2599 
// 2600 /*********************************************************************
// 2601  * @fn          ZDO_JoinIndicationCB
// 2602  *
// 2603  * @brief       This function allows the next higher layer of a
// 2604  *              coordinator to be notified of a remote join request.
// 2605  *
// 2606  * @param       ShortAddress - 16-bit address
// 2607  * @param       ExtendedAddress - IEEE (64-bit) address
// 2608  * @param       CapabilityFlags - Association Capability Flags
// 2609  * @param       type - of joining -
// 2610  *                          NWK_ASSOC_JOIN
// 2611  *                          NWK_ASSOC_REJOIN_UNSECURE
// 2612  *                          NWK_ASSOC_REJOIN_SECURE
// 2613  *
// 2614  * @return      ZStatus_t
// 2615  */

        RSEG BANKED_CODE:CODE:NOROOT(0)
// 2616 ZStatus_t ZDO_JoinIndicationCB(uint16 ShortAddress, uint8 *ExtendedAddress,
ZDO_JoinIndicationCB:
          CFI Block cfiBlock217 Using cfiCommon0
          CFI Function ZDO_JoinIndicationCB
        CODE
// 2617                                 uint8 CapabilityFlags, uint8 type)
// 2618 {
        FUNCALL ZDO_JoinIndicationCB, ZDApp_NVUpdate
        LOCFRAME ISTACK, 0, STACK
        LOCFRAME PSTACK, 0, STACK
        LOCFRAME XSTACK, 16, STACK
        LOCFRAME IOVERLAY, 0, STATIC
        LOCFRAME DOVERLAY, 0, STATIC
        ARGFRAME ISTACK, 0, STACK
        ARGFRAME PSTACK, 0, STACK
        ARGFRAME XSTACK, 16, STACK
        ARGFRAME IOVERLAY, 0, STATIC
        ARGFRAME DOVERLAY, 0, STATIC
        FUNCALL ZDO_JoinIndicationCB, osal_mem_alloc
        LOCFRAME ISTACK, 0, STACK
        LOCFRAME PSTACK, 0, STACK
        LOCFRAME XSTACK, 16, STACK
        LOCFRAME IOVERLAY, 0, STATIC
        LOCFRAME DOVERLAY, 0, STATIC
        ARGFRAME ISTACK, 0, STACK
        ARGFRAME PSTACK, 0, STACK
        ARGFRAME XSTACK, 16, STACK
        ARGFRAME IOVERLAY, 0, STATIC
        ARGFRAME DOVERLAY, 0, STATIC
        FUNCALL ZDO_JoinIndicationCB, osal_get_timeoutEx
        LOCFRAME ISTACK, 0, STACK
        LOCFRAME PSTACK, 0, STACK
        LOCFRAME XSTACK, 16, STACK
        LOCFRAME IOVERLAY, 0, STATIC
        LOCFRAME DOVERLAY, 0, STATIC
        ARGFRAME ISTACK, 0, STACK
        ARGFRAME PSTACK, 0, STACK
        ARGFRAME XSTACK, 16, STACK
        ARGFRAME IOVERLAY, 0, STATIC
        ARGFRAME DOVERLAY, 0, STATIC
        FUNCALL ZDO_JoinIndicationCB, osal_start_timerEx
        LOCFRAME ISTACK, 0, STACK
        LOCFRAME PSTACK, 0, STACK
        LOCFRAME XSTACK, 20, STACK
        LOCFRAME IOVERLAY, 0, STATIC
        LOCFRAME DOVERLAY, 0, STATIC
        ARGFRAME ISTACK, 0, STACK
        ARGFRAME PSTACK, 0, STACK
        ARGFRAME XSTACK, 20, STACK
        ARGFRAME IOVERLAY, 0, STATIC
        ARGFRAME DOVERLAY, 0, STATIC
        MOV     A,#-0x10
        LCALL   ?BANKED_ENTER_XDATA
          CFI DPH0 load(1, XDATA, add(CFA_XSP16, literal(-1)))
          CFI DPL0 load(1, XDATA, add(CFA_XSP16, literal(-2)))
          CFI ?BRET_EXT load(1, XDATA, add(CFA_XSP16, literal(-3)))
          CFI ?RET_HIGH load(1, XDATA, add(CFA_XSP16, literal(-4)))
          CFI ?RET_LOW load(1, XDATA, add(CFA_XSP16, literal(-5)))
          CFI R7 load(1, XDATA, add(CFA_XSP16, literal(-6)))
          CFI V7 load(1, XDATA, add(CFA_XSP16, literal(-7)))
          CFI V6 load(1, XDATA, add(CFA_XSP16, literal(-8)))
          CFI V5 load(1, XDATA, add(CFA_XSP16, literal(-9)))
          CFI V4 load(1, XDATA, add(CFA_XSP16, literal(-10)))
          CFI V3 load(1, XDATA, add(CFA_XSP16, literal(-11)))
          CFI V2 load(1, XDATA, add(CFA_XSP16, literal(-12)))
          CFI V1 load(1, XDATA, add(CFA_XSP16, literal(-13)))
          CFI V0 load(1, XDATA, add(CFA_XSP16, literal(-14)))
          CFI VB load(1, XDATA, add(CFA_XSP16, literal(-15)))
          CFI R6 load(1, XDATA, add(CFA_XSP16, literal(-16)))
          CFI CFA_SP SP+0
          CFI CFA_XSP16 add(XSP16, 16)
        ; Saved register size: 16
        ; Auto size: 0
        MOV     ?V0 + 0,R2
        MOV     ?V0 + 1,R3
// 2619   (void)ExtendedAddress;
// 2620 #if ZDO_NV_SAVE_RFDs
// 2621   (void)CapabilityFlags;
// 2622 
// 2623 #else  // if !ZDO_NV_SAVE_RFDs
// 2624   if (CapabilityFlags & CAPINFO_DEVICETYPE_FFD)
// 2625 #endif
// 2626   {
// 2627     ZDApp_NVUpdate();  // Notify to save info into NV.
        ; Setup parameters for call to function ZDApp_NVUpdate
        LCALL   ??ZDApp_NVUpdate?relay
        MOV     A,#0x10
        LCALL   ?XSTACK_DISP0_8
        MOVX    A,@DPTR
        MOV     R0,A
// 2628   }
// 2629 
// 2630   if (ZG_SECURE_ENABLED)  // Send notification to TC of new device.
// 2631   {
// 2632     if ( type == NWK_ASSOC_JOIN ||
// 2633          type == NWK_ASSOC_REJOIN_UNSECURE ||
// 2634          type == NWK_ASSOC_REJOIN_SECURE )
        JZ      ??ZDO_JoinIndicationCB_0
        MOV     A,#0x1
        XRL     A,R0
        JZ      ??ZDO_JoinIndicationCB_0
        MOV     A,#0x2
        XRL     A,R0
        JZ      $+5
        LJMP    ??ZDO_JoinIndicationCB_1 & 0xFFFF
// 2635     {
// 2636       uint16 timeToFire;
// 2637       ZDAppNewDevice_t *pNewDevice, *pDeviceList;
// 2638 
// 2639       pNewDevice = (ZDAppNewDevice_t *) osal_mem_alloc( sizeof(ZDAppNewDevice_t) );
??ZDO_JoinIndicationCB_0:
        ; Setup parameters for call to function osal_mem_alloc
        MOV     R2,#0x6
        MOV     R3,#0x0
        LCALL   ??osal_mem_alloc?relay
        MOV     ?V0 + 2,R2
        MOV     ?V0 + 3,R3
        MOV     R6,?V0 + 2
        MOV     R7,?V0 + 3
// 2640 
// 2641       if ( pNewDevice == NULL )
        MOV     A,R6
        ORL     A,R7
        JNZ     ??ZDO_JoinIndicationCB_2
// 2642       {
// 2643         // Memory alloc failed
// 2644         return ZMemError;
        MOV     R1,#0x10
        LJMP    ??ZDO_JoinIndicationCB_3 & 0xFFFF
// 2645       }
// 2646 
// 2647       // Add the new device to the New Device List
// 2648       if ( ZDApp_NewDeviceList == NULL )
??ZDO_JoinIndicationCB_2:
        MOV     DPTR,#ZDApp_NewDeviceList
        LCALL   ??Subroutine43_0 & 0xFFFF
??CrossCallReturnLabel_67:
        MOV     DPTR,#ZDApp_NewDeviceList
        JNZ     ??ZDO_JoinIndicationCB_4
// 2649       {
// 2650         // The list is empty, add the first element
// 2651         ZDApp_NewDeviceList = pNewDevice;
        MOV     A,R6
        MOVX    @DPTR,A
        INC     DPTR
        MOV     A,R7
        SJMP    ??ZDO_JoinIndicationCB_5
// 2652       }
// 2653       else
// 2654       {
// 2655         pDeviceList = ZDApp_NewDeviceList;
??ZDO_JoinIndicationCB_4:
        MOVX    A,@DPTR
        MOV     R2,A
        INC     DPTR
        MOVX    A,@DPTR
        SJMP    ??ZDO_JoinIndicationCB_6
// 2656 
// 2657         // Walk the list to last element
// 2658         while ( pDeviceList->next )
// 2659         {
// 2660           pDeviceList = (ZDAppNewDevice_t *) pDeviceList->next;
??ZDO_JoinIndicationCB_7:
        MOV     A,R0
        MOV     R2,A
        MOV     A,R1
??ZDO_JoinIndicationCB_6:
        MOV     R3,A
// 2661         }
        MOV     DPL,R2
        MOV     DPH,R3
        LCALL   ??Subroutine43_0 & 0xFFFF
??CrossCallReturnLabel_68:
        JNZ     ??ZDO_JoinIndicationCB_7
// 2662 
// 2663         // Add new device at the end
// 2664         pDeviceList->next = pNewDevice;
        MOV     A,R6
        MOV     R0,A
        MOV     A,R7
        MOV     R1,A
        MOV     DPL,R2
        MOV     DPH,R3
        MOV     A,R0
        MOVX    @DPTR,A
        INC     DPTR
        MOV     A,R1
??ZDO_JoinIndicationCB_5:
        MOVX    @DPTR,A
// 2665       }
// 2666 
// 2667       // get the remaining time of the timer
// 2668       timeToFire = osal_get_timeoutEx( ZDAppTaskID, ZDO_NEW_DEVICE );
        ; Setup parameters for call to function osal_get_timeoutEx
        MOV     R2,#0x40
        MOV     R3,#0x0
        MOV     DPTR,#ZDAppTaskID
        MOVX    A,@DPTR
        MOV     R1,A
        LCALL   ??osal_get_timeoutEx?relay
        MOV     ?V0 + 4,R2
        MOV     ?V0 + 5,R3
// 2669 
// 2670       pNewDevice->next = NULL;
        MOV     DPL,R6
        MOV     DPH,R7
        CLR     A
        MOVX    @DPTR,A
        INC     DPTR
        MOVX    @DPTR,A
// 2671       pNewDevice->shortAddr = ShortAddress;
        MOV     DPL,R6
        MOV     DPH,R7
        LCALL   ?Subroutine13 & 0xFFFF
// 2672       pNewDevice->timeDelta = ZDAPP_NEW_DEVICE_TIME - timeToFire;
??CrossCallReturnLabel_89:
        MOV     A,#0x58
        CLR     C
        SUBB    A,?V0 + 4
        MOV     R0,A
        MOV     A,#0x2
        SUBB    A,?V0 + 5
        MOV     R1,A
        MOV     DPL,R6
        MOV     DPH,R7
        INC     DPTR
        INC     DPTR
        INC     DPTR
        INC     DPTR
        MOV     A,R0
        MOVX    @DPTR,A
        INC     DPTR
        MOV     A,R1
        MOVX    @DPTR,A
// 2673 
// 2674       // Start the timer only if there is no pending timer
// 2675       if ( pNewDevice->timeDelta == ZDAPP_NEW_DEVICE_TIME )
        MOV     A,#0x58
        XRL     A,R0
        JNZ     ??ZDO_JoinIndicationCB_8
        MOV     A,#0x2
        XRL     A,R1
??ZDO_JoinIndicationCB_8:
        JNZ     ??ZDO_JoinIndicationCB_1
// 2676       {
// 2677         osal_start_timerEx( ZDAppTaskID, ZDO_NEW_DEVICE, ZDAPP_NEW_DEVICE_TIME );
        ; Setup parameters for call to function osal_start_timerEx
        MOV     DPTR,#__Constant_258
        LCALL   ?PUSH_XSTACK8_X_FOUR
          CFI CFA_XSP16 add(XSP16, 20)
        MOV     R2,#0x40
        MOV     R3,#0x0
        MOV     DPTR,#ZDAppTaskID
        MOVX    A,@DPTR
        MOV     R1,A
        LCALL   ??osal_start_timerEx?relay
        MOV     A,#0x4
        LCALL   ?DEALLOC_XSTACK8
          CFI CFA_XSP16 add(XSP16, 16)
// 2678       }
// 2679     }
// 2680   }
// 2681 
// 2682   return ZSuccess;
??ZDO_JoinIndicationCB_1:
        MOV     R1,#0x0
??ZDO_JoinIndicationCB_3:
        LJMP    ?Subroutine2 & 0xFFFF
          CFI EndBlock cfiBlock217
// 2683 }
// 2684 
// 2685 /*********************************************************************
// 2686  * @fn          ZDO_ConcentratorIndicationCB
// 2687  *
// 2688  * @brief       This function allows the next higher layer of a
// 2689  *              device to be notified of existence of the concentrator.
// 2690  *
// 2691  * @param       nwkAddr - 16-bit NWK address of the concentrator
// 2692  * @param       extAddr - pointer to extended Address
// 2693  *                        NULL if not available
// 2694  * @param       pktCost - PktCost from RREQ
// 2695  *
// 2696  * @return      void
// 2697  */

        RSEG BANKED_CODE:CODE:NOROOT(0)
// 2698 void ZDO_ConcentratorIndicationCB( uint16 nwkAddr, uint8 *extAddr, uint8 pktCost )
ZDO_ConcentratorIndicationCB:
          CFI Block cfiBlock218 Using cfiCommon0
          CFI Function ZDO_ConcentratorIndicationCB
        CODE
// 2699 {
        MOV     A,#-0x9
        LCALL   ?BANKED_ENTER_XDATA
          CFI DPH0 load(1, XDATA, add(CFA_XSP16, literal(-1)))
          CFI DPL0 load(1, XDATA, add(CFA_XSP16, literal(-2)))
          CFI ?BRET_EXT load(1, XDATA, add(CFA_XSP16, literal(-3)))
          CFI ?RET_HIGH load(1, XDATA, add(CFA_XSP16, literal(-4)))
          CFI ?RET_LOW load(1, XDATA, add(CFA_XSP16, literal(-5)))
          CFI R7 load(1, XDATA, add(CFA_XSP16, literal(-6)))
          CFI V0 load(1, XDATA, add(CFA_XSP16, literal(-7)))
          CFI VB load(1, XDATA, add(CFA_XSP16, literal(-8)))
          CFI R6 load(1, XDATA, add(CFA_XSP16, literal(-9)))
          CFI CFA_SP SP+0
          CFI CFA_XSP16 add(XSP16, 9)
        ; Saved register size: 9
        ; Auto size: 5
        MOV     A,#-0x5
        LCALL   ?ALLOC_XSTACK8
          CFI CFA_XSP16 add(XSP16, 14)
// 2700   zdoConcentratorInd_t conInd;
// 2701 
// 2702   conInd.nwkAddr = nwkAddr;
        LCALL   ?Subroutine12 & 0xFFFF
// 2703   conInd.extAddr = extAddr;
??CrossCallReturnLabel_101:
        MOV     A,#0x2
        LCALL   ?XSTACK_DISP0_8
        MOV     A,R4
        MOVX    @DPTR,A
        INC     DPTR
        MOV     A,R5
        MOVX    @DPTR,A
// 2704   conInd.pktCost = pktCost;
        MOV     A,#0x4
        LCALL   ?XSTACK_DISP0_8
        MOV     A,R1
        MOVX    @DPTR,A
// 2705 
// 2706   if( zdoCBFunc[ZDO_CONCENTRATOR_IND_CBID] != NULL )
        MOV     DPTR,#zdoCBFunc + 2
        LCALL   ??Subroutine43_0 & 0xFFFF
??CrossCallReturnLabel_69:
        JZ      ??ZDO_ConcentratorIndicationCB_0
// 2707   {
// 2708     zdoCBFunc[ZDO_CONCENTRATOR_IND_CBID]( (void*)&conInd );
        ; Setup parameters for indirect call
        MOV     DPL,?XSP + 0
        MOV     DPH,?XSP + 1
        MOV     R2,DPL
        MOV     R3,DPH
        MOV     DPL,R0
        MOV     DPH,R1
        LCALL   ?CALL_IND
// 2709   }
// 2710 }
??ZDO_ConcentratorIndicationCB_0:
        LJMP    ?Subroutine7 & 0xFFFF
          CFI EndBlock cfiBlock218
// 2711 
// 2712 /*********************************************************************
// 2713  * @fn          ZDO_LeaveCnf
// 2714  *
// 2715  * @brief       This function allows the next higher layer to be
// 2716  *              notified of the results of its request for this or
// 2717  *              a child device to leave the network.
// 2718  *
// 2719  * @param       cnf - NLME_LeaveCnf_t
// 2720  *
// 2721  * @return      none
// 2722  */

        RSEG BANKED_CODE:CODE:NOROOT(0)
// 2723 void ZDO_LeaveCnf( NLME_LeaveCnf_t* cnf )
ZDO_LeaveCnf:
          CFI Block cfiBlock219 Using cfiCommon0
          CFI Function ZDO_LeaveCnf
        CODE
// 2724 {
        FUNCALL ZDO_LeaveCnf, NLME_GetExtAddr
        LOCFRAME ISTACK, 0, STACK
        LOCFRAME PSTACK, 0, STACK
        LOCFRAME XSTACK, 10, STACK
        LOCFRAME IOVERLAY, 0, STATIC
        LOCFRAME DOVERLAY, 0, STATIC
        ARGFRAME ISTACK, 0, STACK
        ARGFRAME PSTACK, 0, STACK
        ARGFRAME XSTACK, 10, STACK
        ARGFRAME IOVERLAY, 0, STATIC
        ARGFRAME DOVERLAY, 0, STATIC
        FUNCALL ZDO_LeaveCnf, sAddrExtCmp
        LOCFRAME ISTACK, 0, STACK
        LOCFRAME PSTACK, 0, STACK
        LOCFRAME XSTACK, 10, STACK
        LOCFRAME IOVERLAY, 0, STATIC
        LOCFRAME DOVERLAY, 0, STATIC
        ARGFRAME ISTACK, 0, STACK
        ARGFRAME PSTACK, 0, STACK
        ARGFRAME XSTACK, 10, STACK
        ARGFRAME IOVERLAY, 0, STATIC
        ARGFRAME DOVERLAY, 0, STATIC
        FUNCALL ZDO_LeaveCnf, ZDApp_LeaveReset
        LOCFRAME ISTACK, 0, STACK
        LOCFRAME PSTACK, 0, STACK
        LOCFRAME XSTACK, 10, STACK
        LOCFRAME IOVERLAY, 0, STATIC
        LOCFRAME DOVERLAY, 0, STATIC
        ARGFRAME ISTACK, 0, STACK
        ARGFRAME PSTACK, 0, STACK
        ARGFRAME XSTACK, 10, STACK
        ARGFRAME IOVERLAY, 0, STATIC
        ARGFRAME DOVERLAY, 0, STATIC
        FUNCALL ZDO_LeaveCnf, ZDApp_LeaveUpdate
        LOCFRAME ISTACK, 0, STACK
        LOCFRAME PSTACK, 0, STACK
        LOCFRAME XSTACK, 10, STACK
        LOCFRAME IOVERLAY, 0, STATIC
        LOCFRAME DOVERLAY, 0, STATIC
        ARGFRAME ISTACK, 0, STACK
        ARGFRAME PSTACK, 0, STACK
        ARGFRAME XSTACK, 10, STACK
        ARGFRAME IOVERLAY, 0, STATIC
        ARGFRAME DOVERLAY, 0, STATIC
        MOV     A,#-0xa
        LCALL   ?BANKED_ENTER_XDATA
          CFI DPH0 load(1, XDATA, add(CFA_XSP16, literal(-1)))
          CFI DPL0 load(1, XDATA, add(CFA_XSP16, literal(-2)))
          CFI ?BRET_EXT load(1, XDATA, add(CFA_XSP16, literal(-3)))
          CFI ?RET_HIGH load(1, XDATA, add(CFA_XSP16, literal(-4)))
          CFI ?RET_LOW load(1, XDATA, add(CFA_XSP16, literal(-5)))
          CFI R7 load(1, XDATA, add(CFA_XSP16, literal(-6)))
          CFI V1 load(1, XDATA, add(CFA_XSP16, literal(-7)))
          CFI V0 load(1, XDATA, add(CFA_XSP16, literal(-8)))
          CFI VB load(1, XDATA, add(CFA_XSP16, literal(-9)))
          CFI R6 load(1, XDATA, add(CFA_XSP16, literal(-10)))
          CFI CFA_SP SP+0
          CFI CFA_XSP16 add(XSP16, 10)
        ; Saved register size: 10
        ; Auto size: 0
        MOV     A,R2
        MOV     R6,A
        MOV     A,R3
        MOV     R7,A
// 2725   // Check for this device
// 2726   if ( osal_ExtAddrEqual( cnf->extAddr,
// 2727                           NLME_GetExtAddr() ) == TRUE )
        MOV     A,R6
        ADD     A,#0x2
        MOV     ?V0 + 0,A
        MOV     A,R7
        ADDC    A,#0x0
        MOV     ?V0 + 1,A
        ; Setup parameters for call to function sAddrExtCmp
        ; Setup parameters for call to function NLME_GetExtAddr
        LCALL   ??NLME_GetExtAddr?relay
        MOV     A,R2
        MOV     R4,A
        MOV     A,R3
        MOV     R5,A
        MOV     R2,?V0 + 0
        MOV     R3,?V0 + 1
        LCALL   ??sAddrExtCmp?relay
        MOV     A,R1
        XRL     A,#0x1
        JNZ     ??ZDO_LeaveCnf_0
// 2728   {
// 2729     // Pass the leave confirm to higher layer if callback registered
// 2730     if ( ( zdoCBFunc[ZDO_LEAVE_CNF_CBID] == NULL ) ||
// 2731          ( (*zdoCBFunc[ZDO_LEAVE_CNF_CBID])( cnf ) == NULL ) )
        MOV     DPTR,#zdoCBFunc + 10
        LCALL   ?Subroutine17 & 0xFFFF
??CrossCallReturnLabel_7:
        JZ      ??ZDO_LeaveCnf_1
        ; Setup parameters for indirect call
        MOV     A,R6
        MOV     R2,A
        MOV     A,R7
        MOV     R3,A
        LCALL   ?CALL_IND
        MOV     ?V0 + 1,R3
        MOV     A,R2
        ORL     A,?V0 + 1
        JNZ     ??ZDO_LeaveCnf_2
// 2732     {
// 2733       // Prepare to leave with reset
// 2734       ZDApp_LeaveReset( cnf->rejoin );
??ZDO_LeaveCnf_1:
        ; Setup parameters for call to function ZDApp_LeaveReset
        LCALL   ?Subroutine28 & 0xFFFF
// 2735     }
// 2736   }
??CrossCallReturnLabel_109:
        MOV     R1,A
        LCALL   ??ZDApp_LeaveReset?relay
        SJMP    ??ZDO_LeaveCnf_2
// 2737   else if ( ZSTACK_ROUTER_BUILD )
// 2738   {
// 2739     // Remove device address(optionally descendents) from data
// 2740     ZDApp_LeaveUpdate( cnf->dstAddr,
// 2741                        cnf->extAddr,
// 2742                        cnf->removeChildren );
??ZDO_LeaveCnf_0:
        ; Setup parameters for call to function ZDApp_LeaveUpdate
        MOV     DPL,R6
        MOV     DPH,R7
        INC     DPTR
        INC     DPTR
        INC     DPTR
        INC     DPTR
        INC     DPTR
        INC     DPTR
        INC     DPTR
        INC     DPTR
        INC     DPTR
        INC     DPTR
        MOVX    A,@DPTR
        MOV     R1,A
        MOV     R4,?V0 + 0
        MOV     R5,?V0 + 1
        LCALL   ?Subroutine16 & 0xFFFF
// 2743   }
??CrossCallReturnLabel_57:
        LCALL   ??ZDApp_LeaveUpdate?relay
// 2744 }
??ZDO_LeaveCnf_2:
        LJMP    ??Subroutine39_0 & 0xFFFF
          CFI EndBlock cfiBlock219

        RSEG BANKED_CODE:CODE:NOROOT(0)
?Subroutine17:
          CFI Block cfiCond220 Using cfiCommon0
          CFI Function ZDO_beaconNotifyIndCB
          CFI Conditional ??CrossCallReturnLabel_6
          CFI R6 load(1, XDATA, add(CFA_XSP16, literal(-18)))
          CFI VB load(1, XDATA, add(CFA_XSP16, literal(-17)))
          CFI V0 load(1, XDATA, add(CFA_XSP16, literal(-16)))
          CFI V1 load(1, XDATA, add(CFA_XSP16, literal(-15)))
          CFI V2 load(1, XDATA, add(CFA_XSP16, literal(-14)))
          CFI V3 load(1, XDATA, add(CFA_XSP16, literal(-13)))
          CFI V4 load(1, XDATA, add(CFA_XSP16, literal(-12)))
          CFI V5 load(1, XDATA, add(CFA_XSP16, literal(-11)))
          CFI V6 load(1, XDATA, add(CFA_XSP16, literal(-10)))
          CFI V7 load(1, XDATA, add(CFA_XSP16, literal(-9)))
          CFI V8 load(1, XDATA, add(CFA_XSP16, literal(-8)))
          CFI V9 load(1, XDATA, add(CFA_XSP16, literal(-7)))
          CFI R7 load(1, XDATA, add(CFA_XSP16, literal(-6)))
          CFI ?RET_LOW load(1, XDATA, add(CFA_XSP16, literal(-5)))
          CFI ?RET_HIGH load(1, XDATA, add(CFA_XSP16, literal(-4)))
          CFI ?BRET_EXT load(1, XDATA, add(CFA_XSP16, literal(-3)))
          CFI DPL0 load(1, XDATA, add(CFA_XSP16, literal(-2)))
          CFI DPH0 load(1, XDATA, add(CFA_XSP16, literal(-1)))
          CFI CFA_SP SP+0
          CFI CFA_XSP16 add(XSP16, 18)
          CFI Block cfiCond221 Using cfiCommon0
          CFI (cfiCond221) Function ZDO_LeaveCnf
          CFI (cfiCond221) Conditional ??CrossCallReturnLabel_7
          CFI (cfiCond221) R6 load(1, XDATA, add(CFA_XSP16, literal(-10)))
          CFI (cfiCond221) VB load(1, XDATA, add(CFA_XSP16, literal(-9)))
          CFI (cfiCond221) V0 load(1, XDATA, add(CFA_XSP16, literal(-8)))
          CFI (cfiCond221) V1 load(1, XDATA, add(CFA_XSP16, literal(-7)))
          CFI (cfiCond221) R7 load(1, XDATA, add(CFA_XSP16, literal(-6)))
          CFI (cfiCond221) ?RET_LOW load(1, XDATA, add(CFA_XSP16, literal(-5)))
          CFI (cfiCond221) ?RET_HIGH load(1, XDATA, add(CFA_XSP16, literal(-4)))
          CFI (cfiCond221) ?BRET_EXT load(1, XDATA, add(CFA_XSP16, literal(-3)))
          CFI (cfiCond221) DPL0 load(1, XDATA, add(CFA_XSP16, literal(-2)))
          CFI (cfiCond221) DPH0 load(1, XDATA, add(CFA_XSP16, literal(-1)))
          CFI (cfiCond221) CFA_SP SP+0
          CFI (cfiCond221) CFA_XSP16 add(XSP16, 10)
          CFI Block cfiCond222 Using cfiCommon0
          CFI (cfiCond222) Function ZDO_LeaveInd
          CFI (cfiCond222) Conditional ??CrossCallReturnLabel_8
          CFI (cfiCond222) R6 load(1, XDATA, add(CFA_XSP16, literal(-14)))
          CFI (cfiCond222) VB load(1, XDATA, add(CFA_XSP16, literal(-13)))
          CFI (cfiCond222) V0 load(1, XDATA, add(CFA_XSP16, literal(-12)))
          CFI (cfiCond222) V1 load(1, XDATA, add(CFA_XSP16, literal(-11)))
          CFI (cfiCond222) V2 load(1, XDATA, add(CFA_XSP16, literal(-10)))
          CFI (cfiCond222) V3 load(1, XDATA, add(CFA_XSP16, literal(-9)))
          CFI (cfiCond222) V4 load(1, XDATA, add(CFA_XSP16, literal(-8)))
          CFI (cfiCond222) V5 load(1, XDATA, add(CFA_XSP16, literal(-7)))
          CFI (cfiCond222) R7 load(1, XDATA, add(CFA_XSP16, literal(-6)))
          CFI (cfiCond222) ?RET_LOW load(1, XDATA, add(CFA_XSP16, literal(-5)))
          CFI (cfiCond222) ?RET_HIGH load(1, XDATA, add(CFA_XSP16, literal(-4)))
          CFI (cfiCond222) ?BRET_EXT load(1, XDATA, add(CFA_XSP16, literal(-3)))
          CFI (cfiCond222) DPL0 load(1, XDATA, add(CFA_XSP16, literal(-2)))
          CFI (cfiCond222) DPH0 load(1, XDATA, add(CFA_XSP16, literal(-1)))
          CFI (cfiCond222) CFA_SP SP+0
          CFI (cfiCond222) CFA_XSP16 add(XSP16, 16)
          CFI Block cfiPicker223 Using cfiCommon1
          CFI (cfiPicker223) NoFunction
          CFI (cfiPicker223) Picker
        LCALL   ?Subroutine32 & 0xFFFF
??CrossCallReturnLabel_76:
        MOV     DPL,R0
        MOV     DPH,R1
        MOV     A,DPL
        ORL     A,DPH
        RET
          CFI EndBlock cfiCond220
          CFI EndBlock cfiCond221
          CFI EndBlock cfiCond222
          CFI EndBlock cfiPicker223
// 2745 
// 2746 /*********************************************************************
// 2747  * @fn          ZDO_LeaveInd
// 2748  *
// 2749  * @brief       This function allows the next higher layer of a
// 2750  *              device to be notified of a remote leave request or
// 2751  *              indication.
// 2752  *
// 2753  * @param       ind - NLME_LeaveInd_t
// 2754  *
// 2755  * @return      none
// 2756  */

        RSEG BANKED_CODE:CODE:NOROOT(0)
// 2757 void ZDO_LeaveInd( NLME_LeaveInd_t* ind )
ZDO_LeaveInd:
          CFI Block cfiBlock224 Using cfiCommon0
          CFI Function ZDO_LeaveInd
        CODE
// 2758 {
        FUNCALL ZDO_LeaveInd, NLME_LeaveRsp
        LOCFRAME ISTACK, 0, STACK
        LOCFRAME PSTACK, 0, STACK
        LOCFRAME XSTACK, 16, STACK
        LOCFRAME IOVERLAY, 0, STATIC
        LOCFRAME DOVERLAY, 0, STATIC
        ARGFRAME ISTACK, 0, STACK
        ARGFRAME PSTACK, 0, STACK
        ARGFRAME XSTACK, 16, STACK
        ARGFRAME IOVERLAY, 0, STATIC
        ARGFRAME DOVERLAY, 0, STATIC
        FUNCALL ZDO_LeaveInd, NLME_GetCoordShortAddr
        LOCFRAME ISTACK, 0, STACK
        LOCFRAME PSTACK, 0, STACK
        LOCFRAME XSTACK, 16, STACK
        LOCFRAME IOVERLAY, 0, STATIC
        LOCFRAME DOVERLAY, 0, STATIC
        ARGFRAME ISTACK, 0, STACK
        ARGFRAME PSTACK, 0, STACK
        ARGFRAME XSTACK, 16, STACK
        ARGFRAME IOVERLAY, 0, STATIC
        ARGFRAME DOVERLAY, 0, STATIC
        FUNCALL ZDO_LeaveInd, ZDApp_LeaveReset
        LOCFRAME ISTACK, 0, STACK
        LOCFRAME PSTACK, 0, STACK
        LOCFRAME XSTACK, 16, STACK
        LOCFRAME IOVERLAY, 0, STATIC
        LOCFRAME DOVERLAY, 0, STATIC
        ARGFRAME ISTACK, 0, STACK
        ARGFRAME PSTACK, 0, STACK
        ARGFRAME XSTACK, 16, STACK
        ARGFRAME IOVERLAY, 0, STATIC
        ARGFRAME DOVERLAY, 0, STATIC
        FUNCALL ZDO_LeaveInd, ZDApp_LeaveUpdate
        LOCFRAME ISTACK, 0, STACK
        LOCFRAME PSTACK, 0, STACK
        LOCFRAME XSTACK, 16, STACK
        LOCFRAME IOVERLAY, 0, STATIC
        LOCFRAME DOVERLAY, 0, STATIC
        ARGFRAME ISTACK, 0, STACK
        ARGFRAME PSTACK, 0, STACK
        ARGFRAME XSTACK, 16, STACK
        ARGFRAME IOVERLAY, 0, STATIC
        ARGFRAME DOVERLAY, 0, STATIC
        MOV     A,#-0xe
        LCALL   ?BANKED_ENTER_XDATA
          CFI DPH0 load(1, XDATA, add(CFA_XSP16, literal(-1)))
          CFI DPL0 load(1, XDATA, add(CFA_XSP16, literal(-2)))
          CFI ?BRET_EXT load(1, XDATA, add(CFA_XSP16, literal(-3)))
          CFI ?RET_HIGH load(1, XDATA, add(CFA_XSP16, literal(-4)))
          CFI ?RET_LOW load(1, XDATA, add(CFA_XSP16, literal(-5)))
          CFI R7 load(1, XDATA, add(CFA_XSP16, literal(-6)))
          CFI V5 load(1, XDATA, add(CFA_XSP16, literal(-7)))
          CFI V4 load(1, XDATA, add(CFA_XSP16, literal(-8)))
          CFI V3 load(1, XDATA, add(CFA_XSP16, literal(-9)))
          CFI V2 load(1, XDATA, add(CFA_XSP16, literal(-10)))
          CFI V1 load(1, XDATA, add(CFA_XSP16, literal(-11)))
          CFI V0 load(1, XDATA, add(CFA_XSP16, literal(-12)))
          CFI VB load(1, XDATA, add(CFA_XSP16, literal(-13)))
          CFI R6 load(1, XDATA, add(CFA_XSP16, literal(-14)))
          CFI CFA_SP SP+0
          CFI CFA_XSP16 add(XSP16, 14)
        ; Saved register size: 14
        ; Auto size: 2
        MOV     A,#-0x2
        LCALL   ?ALLOC_XSTACK8
          CFI CFA_XSP16 add(XSP16, 16)
        MOV     A,R2
        MOV     R6,A
        MOV     A,R3
        MOV     R7,A
// 2759   uint8 leave;
// 2760 
// 2761 
// 2762   // Parent is requesting the leave - NWK layer filters out illegal
// 2763   // requests
// 2764   if ( ind->request == TRUE )
        MOV     A,R6
        ADD     A,#0xb
        MOV     R0,A
        MOV     A,R7
        ADDC    A,#0x0
        MOV     R1,A
        MOV     ?V0 + 0,R0
        MOV     ?V0 + 1,R1
        MOV     A,R6
        ADD     A,#0xc
        INC     R0
        MOV     A,R7
        ADDC    A,#0x0
        MOV     R1,A
        MOV     ?V0 + 2,R0
        MOV     ?V0 + 3,R1
        MOV     DPL,R6
        MOV     DPH,R7
        INC     DPTR
        INC     DPTR
        INC     DPTR
        INC     DPTR
        INC     DPTR
        INC     DPTR
        INC     DPTR
        INC     DPTR
        INC     DPTR
        INC     DPTR
        MOVX    A,@DPTR
        XRL     A,#0x1
        JNZ     ??ZDO_LeaveInd_0
// 2765   {
// 2766     // Only respond if we are not rejoining the network
// 2767     if ( ind->rejoin == FALSE )
        MOV     DPL,R0
        MOV     DPH,R1
        MOVX    A,@DPTR
        JNZ     ??ZDO_LeaveInd_1
// 2768     {
// 2769       // Notify network of leave
// 2770       NLME_LeaveRsp_t rsp;
// 2771       rsp.rejoin = ind->rejoin;
        MOV     A,#0x1
        LCALL   ?XSTACK_DISP0_8
        CLR     A
        MOVX    @DPTR,A
// 2772 
// 2773       if ( ZSTACK_ROUTER_BUILD )
// 2774       {
// 2775         rsp.removeChildren = ind->removeChildren;
        MOV     DPL,?V0 + 0
        MOV     DPH,?V0 + 1
        MOVX    A,@DPTR
        MOV     DPL,?XSP + 0
        MOV     DPH,?XSP + 1
        MOVX    @DPTR,A
// 2776       }
// 2777       else if ( ZSTACK_END_DEVICE_BUILD )
// 2778       {
// 2779         rsp.removeChildren = 0;
// 2780       }
// 2781 
// 2782       NLME_LeaveRsp( &rsp );
        ; Setup parameters for call to function NLME_LeaveRsp
        MOV     R2,DPL
        MOV     R3,DPH
        LCALL   ??NLME_LeaveRsp?relay
        SJMP    ??ZDO_LeaveInd_1
// 2783     }
// 2784 
// 2785     if ( ZSTACK_END_DEVICE_BUILD )
// 2786     {
// 2787       // Stop polling and get ready to reset
// 2788       NLME_SetPollRate( 0 );
// 2789     }
// 2790 
// 2791     // Prepare to leave with reset
// 2792     ZDApp_LeaveReset( ind->rejoin );
// 2793   }
// 2794   else
// 2795   {
// 2796     leave = FALSE;
// 2797 
// 2798     // Check if this device needs to leave as a child or descendent
// 2799     if ( ind->srcAddr == NLME_GetCoordShortAddr() )
??ZDO_LeaveInd_0:
        ; Setup parameters for call to function NLME_GetCoordShortAddr
        LCALL   ??NLME_GetCoordShortAddr?relay
        MOV     ?V0 + 4,R2
        MOV     ?V0 + 5,R3
        MOV     DPL,?V0 + 0
        MOV     DPH,?V0 + 1
        MOVX    A,@DPTR
        MOV     R1,A
        LCALL   ?Subroutine16 & 0xFFFF
??CrossCallReturnLabel_58:
        MOV     A,?V0 + 4
        XRL     A,R2
        JNZ     ??ZDO_LeaveInd_2
        MOV     A,?V0 + 5
        XRL     A,R3
??ZDO_LeaveInd_2:
        JNZ     ??ZDO_LeaveInd_3
// 2800     {
// 2801       if ( ( ind->removeChildren == TRUE               ) ||
// 2802            ( ZDO_Config_Node_Descriptor.LogicalType ==
// 2803              NODETYPE_DEVICE                           )    )
        MOV     A,#0x1
        XRL     A,R1
        JZ      ??ZDO_LeaveInd_1
        LCALL   ?Subroutine21 & 0xFFFF
// 2804       {
// 2805         leave = TRUE;
// 2806       }
// 2807     }
??CrossCallReturnLabel_15:
        JNZ     ??ZDO_LeaveInd_3
// 2808     else if ( ind->removeChildren == TRUE )
// 2809     {
// 2810       // Check NWK address allocation algorithm
// 2811       //leave = RTG_ANCESTOR(nwkAddr,thisAddr);
// 2812     }
// 2813 
// 2814     if ( leave == TRUE )
// 2815     {
// 2816       // Prepare to leave with reset
// 2817       ZDApp_LeaveReset( ind->rejoin );
??ZDO_LeaveInd_1:
        ; Setup parameters for call to function ZDApp_LeaveReset
        MOV     DPL,?V0 + 2
        MOV     DPH,?V0 + 3
        MOVX    A,@DPTR
        MOV     R1,A
        LCALL   ??ZDApp_LeaveReset?relay
        SJMP    ??ZDO_LeaveInd_4
// 2818     }
// 2819     else
// 2820     {
// 2821       // Remove device address(optionally descendents) from data
// 2822       ZDApp_LeaveUpdate( ind->srcAddr,
// 2823                          ind->extAddr,
// 2824                          ind->removeChildren );
??ZDO_LeaveInd_3:
        ; Setup parameters for call to function ZDApp_LeaveUpdate
        MOV     A,R6
        ADD     A,#0x2
        MOV     R4,A
        MOV     A,R7
        ADDC    A,#0x0
        MOV     R5,A
        LCALL   ??ZDApp_LeaveUpdate?relay
// 2825     }
// 2826   }
// 2827 
// 2828   // Pass the leave indication to higher layer if callback registered.
// 2829   if (zdoCBFunc[ZDO_LEAVE_IND_CBID] != NULL)
??ZDO_LeaveInd_4:
        MOV     DPTR,#zdoCBFunc + 12
        LCALL   ?Subroutine17 & 0xFFFF
??CrossCallReturnLabel_8:
        JZ      ??ZDO_LeaveInd_5
// 2830   {
// 2831     (void)zdoCBFunc[ZDO_LEAVE_IND_CBID](ind);
        ; Setup parameters for indirect call
        MOV     A,R6
        MOV     R2,A
        MOV     A,R7
        MOV     R3,A
        LCALL   ?CALL_IND
// 2832   }
// 2833 }
??ZDO_LeaveInd_5:
        MOV     A,#0x2
        LJMP    ?Subroutine1 & 0xFFFF
          CFI EndBlock cfiBlock224
// 2834 
// 2835 /*********************************************************************
// 2836  * @fn          ZDO_SyncIndicationCB
// 2837  *
// 2838  * @brief       This function allows the next higher layer of a
// 2839  *              coordinator to be notified of a loss of synchronization
// 2840  *                          with the parent/child device.
// 2841  *
// 2842  * @param       type: 0 - child; 1 - parent
// 2843  *
// 2844  *
// 2845  * @return      none
// 2846  */

        RSEG BANKED_CODE:CODE:NOROOT(0)
// 2847 void ZDO_SyncIndicationCB( uint8 type, uint16 shortAddr )
ZDO_SyncIndicationCB:
          CFI Block cfiBlock225 Using cfiCommon0
          CFI Function ZDO_SyncIndicationCB
        CODE
// 2848 {
        FUNCALL ZDO_SyncIndicationCB, nwkNeighborInitTable
        LOCFRAME ISTACK, 0, STACK
        LOCFRAME PSTACK, 0, STACK
        LOCFRAME XSTACK, 9, STACK
        LOCFRAME IOVERLAY, 0, STATIC
        LOCFRAME DOVERLAY, 0, STATIC
        ARGFRAME ISTACK, 0, STACK
        ARGFRAME PSTACK, 0, STACK
        ARGFRAME XSTACK, 9, STACK
        ARGFRAME IOVERLAY, 0, STATIC
        ARGFRAME DOVERLAY, 0, STATIC
        FUNCALL ZDO_SyncIndicationCB, ZDApp_SendMsg
        LOCFRAME ISTACK, 0, STACK
        LOCFRAME PSTACK, 0, STACK
        LOCFRAME XSTACK, 9, STACK
        LOCFRAME IOVERLAY, 0, STATIC
        LOCFRAME DOVERLAY, 0, STATIC
        ARGFRAME ISTACK, 0, STACK
        ARGFRAME PSTACK, 0, STACK
        ARGFRAME XSTACK, 9, STACK
        ARGFRAME IOVERLAY, 0, STATIC
        ARGFRAME DOVERLAY, 0, STATIC
        MOV     A,#-0x9
        LCALL   ?BANKED_ENTER_XDATA
          CFI DPH0 load(1, XDATA, add(CFA_XSP16, literal(-1)))
          CFI DPL0 load(1, XDATA, add(CFA_XSP16, literal(-2)))
          CFI ?BRET_EXT load(1, XDATA, add(CFA_XSP16, literal(-3)))
          CFI ?RET_HIGH load(1, XDATA, add(CFA_XSP16, literal(-4)))
          CFI ?RET_LOW load(1, XDATA, add(CFA_XSP16, literal(-5)))
          CFI R7 load(1, XDATA, add(CFA_XSP16, literal(-6)))
          CFI V0 load(1, XDATA, add(CFA_XSP16, literal(-7)))
          CFI VB load(1, XDATA, add(CFA_XSP16, literal(-8)))
          CFI R6 load(1, XDATA, add(CFA_XSP16, literal(-9)))
          CFI CFA_SP SP+0
          CFI CFA_XSP16 add(XSP16, 9)
        ; Saved register size: 9
        ; Auto size: 0
        MOV     A,R1
        MOV     R6,A
// 2849   (void)shortAddr;  // Remove this line if this parameter is used.
// 2850 
// 2851   if ( ZSTACK_END_DEVICE_BUILD
// 2852     || (ZSTACK_ROUTER_BUILD && ((_NIB.CapabilityFlags & ZMAC_ASSOC_CAPINFO_FFD_TYPE) == 0)))
        MOV     DPTR,#_NIB + 14
        MOVX    A,@DPTR
        MOV     C,0xE0 /* A   */.1
        JC      ??ZDO_SyncIndicationCB_0
// 2853   {
// 2854     if ( type == 1 )
        MOV     A,#0x1
        XRL     A,R6
        JNZ     ??ZDO_SyncIndicationCB_0
// 2855     {
// 2856       // We lost contact with our parent.  Clear the neighbor Table.
// 2857       nwkNeighborInitTable();
        ; Setup parameters for call to function nwkNeighborInitTable
        LCALL   ??nwkNeighborInitTable?relay
// 2858 
// 2859       // Start the rejoin process.
// 2860       ZDApp_SendMsg( ZDAppTaskID, ZDO_NWK_JOIN_REQ, sizeof(osal_event_hdr_t), NULL );
        ; Setup parameters for call to function ZDApp_SendMsg
        MOV     R4,#0x0
        MOV     R5,#0x0
        MOV     R3,#0x2
        MOV     R2,#0x3
        MOV     DPTR,#ZDAppTaskID
        MOVX    A,@DPTR
        MOV     R1,A
        LCALL   ??ZDApp_SendMsg?relay
// 2861     }
// 2862   }
// 2863 }
??ZDO_SyncIndicationCB_0:
        LJMP    ??Subroutine44_0 & 0xFFFF
          CFI EndBlock cfiBlock225
// 2864 
// 2865 /*********************************************************************
// 2866  * @fn          ZDO_ManytoOneFailureIndicationCB
// 2867  *
// 2868  * @brief       This function allows the next higher layer of a
// 2869  *              concentrator to be notified of a many-to-one route
// 2870  *              failure.
// 2871  *
// 2872  * @param       none
// 2873  *
// 2874  *
// 2875  * @return      none
// 2876  */

        RSEG BANKED_CODE:CODE:NOROOT(0)
// 2877 void ZDO_ManytoOneFailureIndicationCB()
ZDO_ManytoOneFailureIndicationCB:
          CFI Block cfiBlock226 Using cfiCommon0
          CFI Function ZDO_ManytoOneFailureIndicationCB
        CODE
// 2878 {
        FUNCALL ZDO_ManytoOneFailureIndicationCB, RTG_MTORouteReq
        LOCFRAME ISTACK, 2, STACK
        LOCFRAME PSTACK, 0, STACK
        LOCFRAME XSTACK, 0, STACK
        LOCFRAME IOVERLAY, 0, STATIC
        LOCFRAME DOVERLAY, 0, STATIC
        ARGFRAME ISTACK, 2, STACK
        ARGFRAME PSTACK, 0, STACK
        ARGFRAME XSTACK, 0, STACK
        ARGFRAME IOVERLAY, 0, STATIC
        ARGFRAME DOVERLAY, 0, STATIC
        PUSH    DPL
          CFI DPL0 Frame(CFA_SP, 4)
          CFI CFA_SP SP+-4
        PUSH    DPH
          CFI DPH0 Frame(CFA_SP, 5)
          CFI CFA_SP SP+-5
        ; Saved register size: 2
        ; Auto size: 0
// 2879   // By default, the concentrator automatically redo many-to-one route
// 2880   // discovery to update all many-to-one routes in the network
// 2881   // If you want anything processing other than the default,
// 2882   // please replace the following code.
// 2883 
// 2884   RTG_MTORouteReq();
        ; Setup parameters for call to function RTG_MTORouteReq
        LCALL   ??RTG_MTORouteReq?relay
// 2885 }
        LJMP    ??Subroutine40_0 & 0xFFFF
          CFI EndBlock cfiBlock226
// 2886 
// 2887 /*********************************************************************
// 2888  * @fn          ZDO_PollConfirmCB
// 2889  *
// 2890  * @brief       This function allows the next higher layer to be
// 2891  *              notified of a Poll Confirm.
// 2892  *
// 2893  * @param       none
// 2894  *
// 2895  * @return      none
// 2896  */

        RSEG BANKED_CODE:CODE:NOROOT(0)
// 2897 void ZDO_PollConfirmCB( uint8 status )
ZDO_PollConfirmCB:
          CFI Block cfiBlock227 Using cfiCommon0
          CFI Function ZDO_PollConfirmCB
        CODE
// 2898 {
        ; Saved register size: 0
        ; Auto size: 0
// 2899   (void)status;  // Remove this line if this parameter is used.
// 2900   return;
        LJMP    ?BRET
          CFI EndBlock cfiBlock227
// 2901 }
// 2902 
// 2903 /*********************************************************************
// 2904  * @fn          ZDO_NetworkStatusCB
// 2905  *
// 2906  * @brief       Network Status Callback function
// 2907  *
// 2908  * @param       nwkDstAddr - message's destination address- used to determine
// 2909  *                           if the message was intended for this device or
// 2910  *                           a sleeping end device.
// 2911  * @param       statusCode - message's status code (ie. NWKSTAT_NONTREE_LINK_FAILURE)
// 2912  * @param       dstAddr - the destination address related to the status code
// 2913  *
// 2914  * @return      none
// 2915  */

        RSEG BANKED_CODE:CODE:NOROOT(0)
// 2916 void ZDO_NetworkStatusCB( uint16 nwkDstAddr, uint8 statusCode, uint16 dstAddr )
ZDO_NetworkStatusCB:
          CFI Block cfiBlock228 Using cfiCommon0
          CFI Function ZDO_NetworkStatusCB
        CODE
// 2917 {
        FUNCALL ZDO_NetworkStatusCB, NLME_GetShortAddr
        LOCFRAME ISTACK, 2, STACK
        LOCFRAME PSTACK, 0, STACK
        LOCFRAME XSTACK, 0, STACK
        LOCFRAME IOVERLAY, 0, STATIC
        LOCFRAME DOVERLAY, 0, STATIC
        ARGFRAME ISTACK, 2, STACK
        ARGFRAME PSTACK, 0, STACK
        ARGFRAME XSTACK, 0, STACK
        ARGFRAME IOVERLAY, 0, STATIC
        ARGFRAME DOVERLAY, 0, STATIC
        PUSH    DPL
          CFI DPL0 Frame(CFA_SP, 4)
          CFI CFA_SP SP+-4
        PUSH    DPH
          CFI DPH0 Frame(CFA_SP, 5)
          CFI CFA_SP SP+-5
        ; Saved register size: 2
        ; Auto size: 0
// 2918   (void)dstAddr;     // Remove this line if this parameter is used.
// 2919 
// 2920   if ( (nwkDstAddr == NLME_GetShortAddr())
// 2921       && (statusCode == NWKSTAT_NONTREE_LINK_FAILURE) )
        ; Setup parameters for call to function NLME_GetShortAddr
        LCALL   ??NLME_GetShortAddr?relay
// 2922   {
// 2923     // Routing error for dstAddr, this is informational and a Route
// 2924     // Request should happen automatically.
// 2925   }
// 2926 }
        LJMP    ??Subroutine40_0 & 0xFFFF
          CFI EndBlock cfiBlock228
// 2927 
// 2928 /******************************************************************************
// 2929  * @fn          ZDApp_NwkWriteNVRequest (stubs AddrMgrWriteNVRequest)
// 2930  *
// 2931  * @brief       Stub routine implemented by NHLE. NHLE should call
// 2932  *              <AddrMgrWriteNV> when appropriate.
// 2933  *
// 2934  * @param       none
// 2935  *
// 2936  * @return      none
// 2937  */

        RSEG BANKED_CODE:CODE:NOROOT(0)
// 2938 void ZDApp_NwkWriteNVRequest( void )
AddrMgrWriteNVRequest:
          CFI Block cfiBlock229 Using cfiCommon0
          CFI Function AddrMgrWriteNVRequest
        CODE
// 2939 {
        FUNCALL AddrMgrWriteNVRequest, osal_get_timeoutEx
        LOCFRAME ISTACK, 2, STACK
        LOCFRAME PSTACK, 0, STACK
        LOCFRAME XSTACK, 0, STACK
        LOCFRAME IOVERLAY, 0, STATIC
        LOCFRAME DOVERLAY, 0, STATIC
        ARGFRAME ISTACK, 2, STACK
        ARGFRAME PSTACK, 0, STACK
        ARGFRAME XSTACK, 0, STACK
        ARGFRAME IOVERLAY, 0, STATIC
        ARGFRAME DOVERLAY, 0, STATIC
        FUNCALL AddrMgrWriteNVRequest, ZDApp_NVUpdate
        LOCFRAME ISTACK, 2, STACK
        LOCFRAME PSTACK, 0, STACK
        LOCFRAME XSTACK, 0, STACK
        LOCFRAME IOVERLAY, 0, STATIC
        LOCFRAME DOVERLAY, 0, STATIC
        ARGFRAME ISTACK, 2, STACK
        ARGFRAME PSTACK, 0, STACK
        ARGFRAME XSTACK, 0, STACK
        ARGFRAME IOVERLAY, 0, STATIC
        ARGFRAME DOVERLAY, 0, STATIC
        PUSH    DPL
          CFI DPL0 Frame(CFA_SP, 4)
          CFI CFA_SP SP+-4
        PUSH    DPH
          CFI DPH0 Frame(CFA_SP, 5)
          CFI CFA_SP SP+-5
        ; Saved register size: 2
        ; Auto size: 0
// 2940 #if defined ( NV_RESTORE )
// 2941   if ( !osal_get_timeoutEx( ZDAppTaskID, ZDO_NWK_UPDATE_NV ) )
        ; Setup parameters for call to function osal_get_timeoutEx
        MOV     R2,#0x0
        MOV     R3,#0x1
        MOV     DPTR,#ZDAppTaskID
        MOVX    A,@DPTR
        MOV     R1,A
        LCALL   ??osal_get_timeoutEx?relay
        MOV     A,R2
        ORL     A,R3
        ORL     A,R4
        ORL     A,R5
        JNZ     ??AddrMgrWriteNVRequest_0
// 2942   {
// 2943     // Trigger to save info into NV
// 2944     ZDApp_NVUpdate();
        ; Setup parameters for call to function ZDApp_NVUpdate
        LCALL   ??ZDApp_NVUpdate?relay
// 2945   }
// 2946 #endif
// 2947 }
??AddrMgrWriteNVRequest_0:
        LJMP    ??Subroutine40_0 & 0xFFFF
          CFI EndBlock cfiBlock229
// 2948 
// 2949 /*********************************************************************
// 2950  * Call Back Functions from Security  - API
// 2951  */
// 2952 
// 2953  /*********************************************************************
// 2954  * @fn          ZDO_UpdateDeviceIndication
// 2955  *
// 2956  * @brief       This function notifies the "Trust Center" of a
// 2957  *              network when a device joins or leaves the network.
// 2958  *
// 2959  * @param       extAddr - pointer to 64 bit address of new device
// 2960  * @param       status  - 0 if a new device joined securely
// 2961  *                      - 1 if a new device joined un-securely
// 2962  *                      - 2 if a device left the network
// 2963  *
// 2964  * @return      true if newly joined device should be allowed to
// 2965  *                                              remain on network
// 2966  */

        RSEG BANKED_CODE:CODE:NOROOT(0)
// 2967 ZStatus_t ZDO_UpdateDeviceIndication( uint8 *extAddr, uint8 status )
ZDO_UpdateDeviceIndication:
          CFI Block cfiBlock230 Using cfiCommon0
          CFI Function ZDO_UpdateDeviceIndication
        CODE
// 2968 {
        ; Saved register size: 0
        ; Auto size: 0
// 2969   // can implement a network access policy based on the
// 2970   // IEEE address of newly joining devices...
// 2971   (void)extAddr;
// 2972   (void)status;
// 2973 
// 2974   return ZSuccess;
        MOV     R1,#0x0
        LJMP    ?BRET
          CFI EndBlock cfiBlock230
// 2975 }
// 2976 
// 2977 /*********************************************************************
// 2978  * @fn          ZDApp_InMsgCB
// 2979  *
// 2980  * @brief       This function is called to pass up any message that is
// 2981  *              not yet supported.  This allows for the developer to
// 2982  *              support features themselves..
// 2983  *
// 2984  * @return      none
// 2985  */

        RSEG BANKED_CODE:CODE:NOROOT(0)
// 2986 void ZDApp_InMsgCB( zdoIncomingMsg_t *inMsg )
ZDApp_InMsgCB:
          CFI Block cfiBlock231 Using cfiCommon0
          CFI Function ZDApp_InMsgCB
        CODE
// 2987 {
        FUNCALL ZDApp_InMsgCB, ZDP_GenericRsp
        LOCFRAME ISTACK, 0, STACK
        LOCFRAME PSTACK, 0, STACK
        LOCFRAME XSTACK, 14, STACK
        LOCFRAME IOVERLAY, 0, STATIC
        LOCFRAME DOVERLAY, 0, STATIC
        ARGFRAME ISTACK, 0, STACK
        ARGFRAME PSTACK, 0, STACK
        ARGFRAME XSTACK, 14, STACK
        ARGFRAME IOVERLAY, 0, STATIC
        ARGFRAME DOVERLAY, 0, STATIC
        MOV     A,#-0xa
        LCALL   ?BANKED_ENTER_XDATA
          CFI DPH0 load(1, XDATA, add(CFA_XSP16, literal(-1)))
          CFI DPL0 load(1, XDATA, add(CFA_XSP16, literal(-2)))
          CFI ?BRET_EXT load(1, XDATA, add(CFA_XSP16, literal(-3)))
          CFI ?RET_HIGH load(1, XDATA, add(CFA_XSP16, literal(-4)))
          CFI ?RET_LOW load(1, XDATA, add(CFA_XSP16, literal(-5)))
          CFI R7 load(1, XDATA, add(CFA_XSP16, literal(-6)))
          CFI V1 load(1, XDATA, add(CFA_XSP16, literal(-7)))
          CFI V0 load(1, XDATA, add(CFA_XSP16, literal(-8)))
          CFI VB load(1, XDATA, add(CFA_XSP16, literal(-9)))
          CFI R6 load(1, XDATA, add(CFA_XSP16, literal(-10)))
          CFI CFA_SP SP+0
          CFI CFA_XSP16 add(XSP16, 10)
        ; Saved register size: 10
        ; Auto size: 0
        MOV     A,R2
        MOV     R6,A
        MOV     A,R3
        MOV     R7,A
// 2988   if ( inMsg->clusterID & ZDO_RESPONSE_BIT )
        MOV     A,R6
        ADD     A,#0xc
        LCALL   ?Subroutine34 & 0xFFFF
??CrossCallReturnLabel_114:
        LCALL   ??Subroutine41_0 & 0xFFFF
??CrossCallReturnLabel_44:
        ANL     A,#0x80
        JNZ     ??ZDApp_InMsgCB_0
// 2989   {
// 2990     // Handle the response message
// 2991   }
// 2992   else
// 2993   {
// 2994     // Handle the request message by sending a generic "not supported".
// 2995     // Device Announce doesn't have a response.
// 2996     if ( !(inMsg->wasBroadcast) && inMsg->clusterID != Device_annce )
        LCALL   ?Subroutine28 & 0xFFFF
??CrossCallReturnLabel_110:
        JNZ     ??ZDApp_InMsgCB_0
        MOV     A,#0x13
        XRL     A,R0
        JNZ     ??ZDApp_InMsgCB_1
        MOV     A,R1
??ZDApp_InMsgCB_1:
        JZ      ??ZDApp_InMsgCB_0
// 2997     {
// 2998       ZDP_GenericRsp( inMsg->TransSeq, &(inMsg->srcAddr), ZDP_NOT_SUPPORTED, 0,
// 2999                       (uint16)(inMsg->clusterID | ZDO_RESPONSE_BIT), inMsg->SecurityUse );
        ; Setup parameters for call to function ZDP_GenericRsp
        MOV     A,R0
        MOV     ?V0 + 0,A
        MOV     A,R1
        ORL     A,#0x80
        MOV     ?V0 + 1,A
        MOV     R0,#?V0 + 0
        LCALL   ?PUSH_XSTACK_I_TWO
          CFI CFA_XSP16 add(XSP16, 12)
        CLR     A
        MOV     ?V0 + 0,A
        MOV     ?V0 + 1,A
        MOV     R0,#?V0 + 0
        LCALL   ?PUSH_XSTACK_I_TWO
          CFI CFA_XSP16 add(XSP16, 14)
        MOV     A,R6
        ADD     A,#0xe
        LCALL   ??Subroutine52_0 & 0xFFFF
// 3000     }
// 3001   }
??CrossCallReturnLabel_107:
        MOV     R5,A
        MOV     R4,#-0x7c
        MOV     A,R6
        ADD     A,#0x2
        MOV     R2,A
        MOV     A,R7
        ADDC    A,#0x0
        MOV     R3,A
        MOV     A,R6
        ADD     A,#0xf
        LCALL   ??Subroutine52_0 & 0xFFFF
??CrossCallReturnLabel_108:
        MOV     R1,A
        LCALL   ??ZDP_GenericRsp?relay
        MOV     A,#0x4
        LCALL   ?DEALLOC_XSTACK8
          CFI CFA_XSP16 add(XSP16, 10)
// 3002 }
??ZDApp_InMsgCB_0:
        LJMP    ??Subroutine39_0 & 0xFFFF
          CFI EndBlock cfiBlock231
// 3003 
// 3004 
// 3005 /*********************************************************************
// 3006  * @fn      ZDApp_ChangeMatchDescRespPermission()
// 3007  *
// 3008  * @brief   Changes the Match Descriptor Response permission.
// 3009  *
// 3010  * @param   endpoint - endpoint to allow responses
// 3011  * @param   action - true to allow responses, false to not
// 3012  *
// 3013  * @return  none
// 3014  */

        RSEG BANKED_CODE:CODE:NOROOT(0)
// 3015 void ZDApp_ChangeMatchDescRespPermission( uint8 endpoint, uint8 action )
ZDApp_ChangeMatchDescRespPermission:
          CFI Block cfiBlock232 Using cfiCommon0
          CFI Function ZDApp_ChangeMatchDescRespPermission
        CODE
// 3016 {
        FUNCALL ZDApp_ChangeMatchDescRespPermission, afSetMatch
        LOCFRAME ISTACK, 0, STACK
        LOCFRAME PSTACK, 0, STACK
        LOCFRAME XSTACK, 9, STACK
        LOCFRAME IOVERLAY, 0, STATIC
        LOCFRAME DOVERLAY, 0, STATIC
        ARGFRAME ISTACK, 0, STACK
        ARGFRAME PSTACK, 0, STACK
        ARGFRAME XSTACK, 9, STACK
        ARGFRAME IOVERLAY, 0, STATIC
        ARGFRAME DOVERLAY, 0, STATIC
        MOV     A,#-0x9
        LCALL   ?BANKED_ENTER_XDATA
          CFI DPH0 load(1, XDATA, add(CFA_XSP16, literal(-1)))
          CFI DPL0 load(1, XDATA, add(CFA_XSP16, literal(-2)))
          CFI ?BRET_EXT load(1, XDATA, add(CFA_XSP16, literal(-3)))
          CFI ?RET_HIGH load(1, XDATA, add(CFA_XSP16, literal(-4)))
          CFI ?RET_LOW load(1, XDATA, add(CFA_XSP16, literal(-5)))
          CFI R7 load(1, XDATA, add(CFA_XSP16, literal(-6)))
          CFI V0 load(1, XDATA, add(CFA_XSP16, literal(-7)))
          CFI VB load(1, XDATA, add(CFA_XSP16, literal(-8)))
          CFI R6 load(1, XDATA, add(CFA_XSP16, literal(-9)))
          CFI CFA_SP SP+0
          CFI CFA_XSP16 add(XSP16, 9)
        ; Saved register size: 9
        ; Auto size: 0
// 3017   // Store the action
// 3018   afSetMatch( endpoint, action );
        ; Setup parameters for call to function afSetMatch
        LCALL   ??afSetMatch?relay
// 3019 }
        LJMP    ??Subroutine44_0 & 0xFFFF
          CFI EndBlock cfiBlock232
// 3020 
// 3021 /*********************************************************************
// 3022  * @fn      ZDApp_NetworkInit()
// 3023  *
// 3024  * @brief   Used to start the network joining process
// 3025  *
// 3026  * @param   delay - mSec delay to wait before starting
// 3027  *
// 3028  * @return  none
// 3029  */

        RSEG BANKED_CODE:CODE:NOROOT(0)
// 3030 void ZDApp_NetworkInit( uint16 delay )
ZDApp_NetworkInit:
          CFI Block cfiBlock233 Using cfiCommon0
          CFI Function ZDApp_NetworkInit
        CODE
// 3031 {
        FUNCALL ZDApp_NetworkInit, osal_start_timerEx
        LOCFRAME ISTACK, 0, STACK
        LOCFRAME PSTACK, 0, STACK
        LOCFRAME XSTACK, 16, STACK
        LOCFRAME IOVERLAY, 0, STATIC
        LOCFRAME DOVERLAY, 0, STATIC
        ARGFRAME ISTACK, 0, STACK
        ARGFRAME PSTACK, 0, STACK
        ARGFRAME XSTACK, 16, STACK
        ARGFRAME IOVERLAY, 0, STATIC
        ARGFRAME DOVERLAY, 0, STATIC
        FUNCALL ZDApp_NetworkInit, osal_set_event
        LOCFRAME ISTACK, 0, STACK
        LOCFRAME PSTACK, 0, STACK
        LOCFRAME XSTACK, 12, STACK
        LOCFRAME IOVERLAY, 0, STATIC
        LOCFRAME DOVERLAY, 0, STATIC
        ARGFRAME ISTACK, 0, STACK
        ARGFRAME PSTACK, 0, STACK
        ARGFRAME XSTACK, 12, STACK
        ARGFRAME IOVERLAY, 0, STATIC
        ARGFRAME DOVERLAY, 0, STATIC
        MOV     A,#-0xc
        LCALL   ?BANKED_ENTER_XDATA
          CFI DPH0 load(1, XDATA, add(CFA_XSP16, literal(-1)))
          CFI DPL0 load(1, XDATA, add(CFA_XSP16, literal(-2)))
          CFI ?BRET_EXT load(1, XDATA, add(CFA_XSP16, literal(-3)))
          CFI ?RET_HIGH load(1, XDATA, add(CFA_XSP16, literal(-4)))
          CFI ?RET_LOW load(1, XDATA, add(CFA_XSP16, literal(-5)))
          CFI R7 load(1, XDATA, add(CFA_XSP16, literal(-6)))
          CFI V3 load(1, XDATA, add(CFA_XSP16, literal(-7)))
          CFI V2 load(1, XDATA, add(CFA_XSP16, literal(-8)))
          CFI V1 load(1, XDATA, add(CFA_XSP16, literal(-9)))
          CFI V0 load(1, XDATA, add(CFA_XSP16, literal(-10)))
          CFI VB load(1, XDATA, add(CFA_XSP16, literal(-11)))
          CFI R6 load(1, XDATA, add(CFA_XSP16, literal(-12)))
          CFI CFA_SP SP+0
          CFI CFA_XSP16 add(XSP16, 12)
        ; Saved register size: 12
        ; Auto size: 0
// 3032   if ( delay )
        MOV     A,R2
        ORL     A,R3
        JZ      ??ZDApp_NetworkInit_0
// 3033   {
// 3034     // Wait awhile before starting the device
// 3035     osal_start_timerEx( ZDAppTaskID, ZDO_NETWORK_INIT, delay );
        ; Setup parameters for call to function osal_start_timerEx
        MOV     ?V0 + 0,R2
        MOV     ?V0 + 1,R3
        CLR     A
        MOV     ?V0 + 2,A
        MOV     ?V0 + 3,A
        MOV     R0,#?V0 + 0
        LCALL   ?PUSH_XSTACK_I_FOUR
          CFI CFA_XSP16 add(XSP16, 16)
        MOV     R2,#0x1
        MOV     R3,#0x0
        MOV     DPTR,#ZDAppTaskID
        MOVX    A,@DPTR
        MOV     R1,A
        LCALL   ??osal_start_timerEx?relay
        MOV     A,#0x4
        LCALL   ?DEALLOC_XSTACK8
          CFI CFA_XSP16 add(XSP16, 12)
        SJMP    ??ZDApp_NetworkInit_1
// 3036   }
// 3037   else
// 3038   {
// 3039     osal_set_event( ZDAppTaskID, ZDO_NETWORK_INIT );
??ZDApp_NetworkInit_0:
        ; Setup parameters for call to function osal_set_event
        MOV     R2,#0x1
        MOV     R3,#0x0
        MOV     DPTR,#ZDAppTaskID
        MOVX    A,@DPTR
        MOV     R1,A
        LCALL   ??osal_set_event?relay
// 3040   }
// 3041 }
??ZDApp_NetworkInit_1:
        LJMP    ??Subroutine51_0 & 0xFFFF
          CFI EndBlock cfiBlock233
// 3042 
// 3043 /*********************************************************************
// 3044  * @fn      ZDApp_NwkStateUpdateCB()
// 3045  *
// 3046  * @brief   This function notifies that this device's network
// 3047  *          state info has been changed.
// 3048  *
// 3049  * @param   none
// 3050  *
// 3051  * @return  none
// 3052  */

        RSEG BANKED_CODE:CODE:NOROOT(0)
// 3053 void ZDApp_NwkStateUpdateCB( void )
ZDApp_NwkStateUpdateCB:
          CFI Block cfiBlock234 Using cfiCommon0
          CFI Function ZDApp_NwkStateUpdateCB
        CODE
// 3054 {
        FUNCALL ZDApp_NwkStateUpdateCB, osal_get_timeoutEx
        LOCFRAME ISTACK, 2, STACK
        LOCFRAME PSTACK, 0, STACK
        LOCFRAME XSTACK, 0, STACK
        LOCFRAME IOVERLAY, 0, STATIC
        LOCFRAME DOVERLAY, 0, STATIC
        ARGFRAME ISTACK, 2, STACK
        ARGFRAME PSTACK, 0, STACK
        ARGFRAME XSTACK, 0, STACK
        ARGFRAME IOVERLAY, 0, STATIC
        ARGFRAME DOVERLAY, 0, STATIC
        FUNCALL ZDApp_NwkStateUpdateCB, ZDApp_NVUpdate
        LOCFRAME ISTACK, 2, STACK
        LOCFRAME PSTACK, 0, STACK
        LOCFRAME XSTACK, 0, STACK
        LOCFRAME IOVERLAY, 0, STATIC
        LOCFRAME DOVERLAY, 0, STATIC
        ARGFRAME ISTACK, 2, STACK
        ARGFRAME PSTACK, 0, STACK
        ARGFRAME XSTACK, 0, STACK
        ARGFRAME IOVERLAY, 0, STATIC
        ARGFRAME DOVERLAY, 0, STATIC
        PUSH    DPL
          CFI DPL0 Frame(CFA_SP, 4)
          CFI CFA_SP SP+-4
        PUSH    DPH
          CFI DPH0 Frame(CFA_SP, 5)
          CFI CFA_SP SP+-5
        ; Saved register size: 2
        ; Auto size: 0
// 3055   // Notify to save info into NV
// 3056   if ( !osal_get_timeoutEx( ZDAppTaskID, ZDO_NWK_UPDATE_NV ) )
        ; Setup parameters for call to function osal_get_timeoutEx
        MOV     R2,#0x0
        MOV     R3,#0x1
        MOV     DPTR,#ZDAppTaskID
        MOVX    A,@DPTR
        MOV     R1,A
        LCALL   ??osal_get_timeoutEx?relay
        MOV     A,R2
        ORL     A,R3
        ORL     A,R4
        ORL     A,R5
        JNZ     ??ZDApp_NwkStateUpdateCB_0
// 3057   {
// 3058     // Trigger to save info into NV
// 3059     ZDApp_NVUpdate();
        ; Setup parameters for call to function ZDApp_NVUpdate
        LCALL   ??ZDApp_NVUpdate?relay
// 3060   }
// 3061 }
??ZDApp_NwkStateUpdateCB_0:
        LJMP    ??Subroutine40_0 & 0xFFFF
          CFI EndBlock cfiBlock234
// 3062 
// 3063 /*********************************************************************
// 3064  * @fn      ZDApp_NodeProfileSync()
// 3065  *
// 3066  * @brief   Sync node with stack profile.
// 3067  *
// 3068  * @param   stackProfile - stack profile of the network to join
// 3069  *
// 3070  * @return  none
// 3071  */

        RSEG BANKED_CODE:CODE:NOROOT(0)
// 3072 void ZDApp_NodeProfileSync( uint8 stackProfile )
ZDApp_NodeProfileSync:
          CFI Block cfiBlock235 Using cfiCommon0
          CFI Function ZDApp_NodeProfileSync
        CODE
// 3073 {
        FUNCALL ZDApp_NodeProfileSync, NLME_SetBroadcastFilter
        LOCFRAME ISTACK, 0, STACK
        LOCFRAME PSTACK, 0, STACK
        LOCFRAME XSTACK, 9, STACK
        LOCFRAME IOVERLAY, 0, STATIC
        LOCFRAME DOVERLAY, 0, STATIC
        ARGFRAME ISTACK, 0, STACK
        ARGFRAME PSTACK, 0, STACK
        ARGFRAME XSTACK, 9, STACK
        ARGFRAME IOVERLAY, 0, STATIC
        ARGFRAME DOVERLAY, 0, STATIC
        MOV     A,#-0x9
        LCALL   ?BANKED_ENTER_XDATA
          CFI DPH0 load(1, XDATA, add(CFA_XSP16, literal(-1)))
          CFI DPL0 load(1, XDATA, add(CFA_XSP16, literal(-2)))
          CFI ?BRET_EXT load(1, XDATA, add(CFA_XSP16, literal(-3)))
          CFI ?RET_HIGH load(1, XDATA, add(CFA_XSP16, literal(-4)))
          CFI ?RET_LOW load(1, XDATA, add(CFA_XSP16, literal(-5)))
          CFI R7 load(1, XDATA, add(CFA_XSP16, literal(-6)))
          CFI V0 load(1, XDATA, add(CFA_XSP16, literal(-7)))
          CFI VB load(1, XDATA, add(CFA_XSP16, literal(-8)))
          CFI R6 load(1, XDATA, add(CFA_XSP16, literal(-9)))
          CFI CFA_SP SP+0
          CFI CFA_XSP16 add(XSP16, 9)
        ; Saved register size: 9
        ; Auto size: 0
        MOV     A,R1
        MOV     R6,A
// 3074   if ( ZDO_Config_Node_Descriptor.CapabilityFlags & CAPINFO_DEVICETYPE_FFD  )
        MOV     DPTR,#ZDO_Config_Node_Descriptor + 2
        MOVX    A,@DPTR
        MOV     C,0xE0 /* A   */.1
        JNC     ??ZDApp_NodeProfileSync_0
// 3075   {
// 3076     if ( stackProfile != zgStackProfile )
        MOV     DPTR,#zgStackProfile
        MOVX    A,@DPTR
        XRL     A,R6
        JZ      ??ZDApp_NodeProfileSync_0
// 3077     {
// 3078       ZDO_Config_Node_Descriptor.LogicalType = NODETYPE_DEVICE;
        MOV     DPTR,#ZDO_Config_Node_Descriptor
        MOVX    A,@DPTR
        ANL     A,#0xf8
        ORL     A,#0x2
        MOVX    @DPTR,A
// 3079       ZDO_Config_Node_Descriptor.CapabilityFlags = CAPINFO_DEVICETYPE_RFD | CAPINFO_POWER_AC | CAPINFO_RCVR_ON_IDLE;
        MOV     DPTR,#ZDO_Config_Node_Descriptor + 2
        MOV     A,#0xc
        MOVX    @DPTR,A
// 3080       NLME_SetBroadcastFilter( ZDO_Config_Node_Descriptor.CapabilityFlags );
        ; Setup parameters for call to function NLME_SetBroadcastFilter
        MOV     R1,A
        LCALL   ??NLME_SetBroadcastFilter?relay
// 3081     }
// 3082   }
// 3083 }
??ZDApp_NodeProfileSync_0:
        LJMP    ??Subroutine44_0 & 0xFFFF
          CFI EndBlock cfiBlock235
// 3084 
// 3085 /*********************************************************************
// 3086  * @fn      ZDApp_StartJoiningCycle()
// 3087  *
// 3088  * @brief   Starts the joining cycle of a device.  This will only
// 3089  *          continue an already started (or stopped) joining cycle.
// 3090  *
// 3091  * @param   none
// 3092  *
// 3093  * @return  TRUE if joining stopped, FALSE if joining or rejoining
// 3094  */

        RSEG BANKED_CODE:CODE:NOROOT(0)
// 3095 uint8 ZDApp_StartJoiningCycle( void )
ZDApp_StartJoiningCycle:
          CFI Block cfiBlock236 Using cfiCommon0
          CFI Function ZDApp_StartJoiningCycle
        CODE
// 3096 {
        FUNCALL ZDApp_StartJoiningCycle, ZDApp_NetworkInit
        LOCFRAME ISTACK, 2, STACK
        LOCFRAME PSTACK, 0, STACK
        LOCFRAME XSTACK, 0, STACK
        LOCFRAME IOVERLAY, 0, STATIC
        LOCFRAME DOVERLAY, 0, STATIC
        ARGFRAME ISTACK, 2, STACK
        ARGFRAME PSTACK, 0, STACK
        ARGFRAME XSTACK, 0, STACK
        ARGFRAME IOVERLAY, 0, STATIC
        ARGFRAME DOVERLAY, 0, STATIC
        PUSH    DPL
          CFI DPL0 Frame(CFA_SP, 4)
          CFI CFA_SP SP+-4
        PUSH    DPH
          CFI DPH0 Frame(CFA_SP, 5)
          CFI CFA_SP SP+-5
        ; Saved register size: 2
        ; Auto size: 0
// 3097   if ( devState == DEV_INIT || devState == DEV_NWK_DISC )
        MOV     DPTR,#devState
        MOVX    A,@DPTR
        XRL     A,#0x1
        JZ      ??ZDApp_StartJoiningCycle_0
        MOVX    A,@DPTR
        XRL     A,#0x2
        JNZ     ??ZDApp_StartJoiningCycle_1
// 3098   {
// 3099     continueJoining = TRUE;
??ZDApp_StartJoiningCycle_0:
        MOV     DPTR,#continueJoining
        MOV     A,#0x1
        MOVX    @DPTR,A
// 3100     ZDApp_NetworkInit( 0 );
        ; Setup parameters for call to function ZDApp_NetworkInit
        MOV     R2,#0x0
        MOV     R3,#0x0
        LCALL   ??ZDApp_NetworkInit?relay
// 3101 
// 3102     return ( TRUE );
        MOV     R1,#0x1
        SJMP    ??ZDApp_StartJoiningCycle_2
// 3103   }
// 3104   else
// 3105     return ( FALSE );
??ZDApp_StartJoiningCycle_1:
        MOV     R1,#0x0
??ZDApp_StartJoiningCycle_2:
        LJMP    ??Subroutine40_0 & 0xFFFF
          CFI EndBlock cfiBlock236
// 3106 }
// 3107 
// 3108 /*********************************************************************
// 3109  * @fn      ZDApp_StopJoiningCycle()
// 3110  *
// 3111  * @brief   Stops the joining or rejoining process of a device.
// 3112  *
// 3113  * @param   none
// 3114  *
// 3115  * @return  TRUE if joining stopped, FALSE if joining or rejoining
// 3116  */

        RSEG BANKED_CODE:CODE:NOROOT(0)
// 3117 uint8 ZDApp_StopJoiningCycle( void )
ZDApp_StopJoiningCycle:
          CFI Block cfiBlock237 Using cfiCommon0
          CFI Function ZDApp_StopJoiningCycle
        CODE
// 3118 {
        PUSH    DPL
          CFI DPL0 Frame(CFA_SP, 4)
          CFI CFA_SP SP+-4
        PUSH    DPH
          CFI DPH0 Frame(CFA_SP, 5)
          CFI CFA_SP SP+-5
        ; Saved register size: 2
        ; Auto size: 0
// 3119   if ( devState == DEV_INIT || devState == DEV_NWK_DISC )
        MOV     DPTR,#devState
        MOVX    A,@DPTR
        XRL     A,#0x1
        JZ      ??ZDApp_StopJoiningCycle_0
        MOVX    A,@DPTR
        XRL     A,#0x2
        JNZ     ??ZDApp_StopJoiningCycle_1
// 3120   {
// 3121     continueJoining = FALSE;
??ZDApp_StopJoiningCycle_0:
        MOV     DPTR,#continueJoining
        CLR     A
        MOVX    @DPTR,A
// 3122     return ( TRUE );
        MOV     R1,#0x1
        SJMP    ??ZDApp_StopJoiningCycle_2
// 3123   }
// 3124   else
// 3125     return ( FALSE );
??ZDApp_StopJoiningCycle_1:
        MOV     R1,#0x0
??ZDApp_StopJoiningCycle_2:
        LJMP    ??Subroutine40_0 & 0xFFFF
          CFI EndBlock cfiBlock237
// 3126 }
// 3127 
// 3128 /*********************************************************************
// 3129  * @fn      ZDApp_AnnounceNewAddress()
// 3130  *
// 3131  * @brief   Send Device Announce and hold all transmissions for
// 3132  *          new address timeout.
// 3133  *
// 3134  * @param   none
// 3135  *
// 3136  * @return  none
// 3137  */

        RSEG BANKED_CODE:CODE:NOROOT(0)
// 3138 void ZDApp_AnnounceNewAddress( void )
ZDApp_AnnounceNewAddress:
          CFI Block cfiBlock238 Using cfiCommon0
          CFI Function ZDApp_AnnounceNewAddress
        CODE
// 3139 {
        FUNCALL ZDApp_AnnounceNewAddress, APSME_HoldDataRequests
        LOCFRAME ISTACK, 0, STACK
        LOCFRAME PSTACK, 0, STACK
        LOCFRAME XSTACK, 10, STACK
        LOCFRAME IOVERLAY, 0, STATIC
        LOCFRAME DOVERLAY, 0, STATIC
        ARGFRAME ISTACK, 0, STACK
        ARGFRAME PSTACK, 0, STACK
        ARGFRAME XSTACK, 10, STACK
        ARGFRAME IOVERLAY, 0, STATIC
        ARGFRAME DOVERLAY, 0, STATIC
        FUNCALL ZDApp_AnnounceNewAddress, NLME_GetExtAddr
        LOCFRAME ISTACK, 0, STACK
        LOCFRAME PSTACK, 0, STACK
        LOCFRAME XSTACK, 10, STACK
        LOCFRAME IOVERLAY, 0, STATIC
        LOCFRAME DOVERLAY, 0, STATIC
        ARGFRAME ISTACK, 0, STACK
        ARGFRAME PSTACK, 0, STACK
        ARGFRAME XSTACK, 10, STACK
        ARGFRAME IOVERLAY, 0, STATIC
        ARGFRAME DOVERLAY, 0, STATIC
        FUNCALL ZDApp_AnnounceNewAddress, NLME_GetShortAddr
        LOCFRAME ISTACK, 0, STACK
        LOCFRAME PSTACK, 0, STACK
        LOCFRAME XSTACK, 10, STACK
        LOCFRAME IOVERLAY, 0, STATIC
        LOCFRAME DOVERLAY, 0, STATIC
        ARGFRAME ISTACK, 0, STACK
        ARGFRAME PSTACK, 0, STACK
        ARGFRAME XSTACK, 10, STACK
        ARGFRAME IOVERLAY, 0, STATIC
        ARGFRAME DOVERLAY, 0, STATIC
        FUNCALL ZDApp_AnnounceNewAddress, ZDP_DeviceAnnce
        LOCFRAME ISTACK, 0, STACK
        LOCFRAME PSTACK, 0, STACK
        LOCFRAME XSTACK, 11, STACK
        LOCFRAME IOVERLAY, 0, STATIC
        LOCFRAME DOVERLAY, 0, STATIC
        ARGFRAME ISTACK, 0, STACK
        ARGFRAME PSTACK, 0, STACK
        ARGFRAME XSTACK, 11, STACK
        ARGFRAME IOVERLAY, 0, STATIC
        ARGFRAME DOVERLAY, 0, STATIC
        FUNCALL ZDApp_AnnounceNewAddress, APSME_HoldDataRequests
        LOCFRAME ISTACK, 0, STACK
        LOCFRAME PSTACK, 0, STACK
        LOCFRAME XSTACK, 10, STACK
        LOCFRAME IOVERLAY, 0, STATIC
        LOCFRAME DOVERLAY, 0, STATIC
        ARGFRAME ISTACK, 0, STACK
        ARGFRAME PSTACK, 0, STACK
        ARGFRAME XSTACK, 10, STACK
        ARGFRAME IOVERLAY, 0, STATIC
        ARGFRAME DOVERLAY, 0, STATIC
        MOV     A,#-0xa
        LCALL   ?BANKED_ENTER_XDATA
          CFI DPH0 load(1, XDATA, add(CFA_XSP16, literal(-1)))
          CFI DPL0 load(1, XDATA, add(CFA_XSP16, literal(-2)))
          CFI ?BRET_EXT load(1, XDATA, add(CFA_XSP16, literal(-3)))
          CFI ?RET_HIGH load(1, XDATA, add(CFA_XSP16, literal(-4)))
          CFI ?RET_LOW load(1, XDATA, add(CFA_XSP16, literal(-5)))
          CFI R7 load(1, XDATA, add(CFA_XSP16, literal(-6)))
          CFI V1 load(1, XDATA, add(CFA_XSP16, literal(-7)))
          CFI V0 load(1, XDATA, add(CFA_XSP16, literal(-8)))
          CFI VB load(1, XDATA, add(CFA_XSP16, literal(-9)))
          CFI R6 load(1, XDATA, add(CFA_XSP16, literal(-10)))
          CFI CFA_SP SP+0
          CFI CFA_XSP16 add(XSP16, 10)
        ; Saved register size: 10
        ; Auto size: 0
// 3140 #if defined ( ZIGBEE_NWK_UNIQUE_ADDR_CHECK )
// 3141   // Turn off data request hold
// 3142   APSME_HoldDataRequests( 0 );
        ; Setup parameters for call to function APSME_HoldDataRequests
        MOV     R2,#0x0
        MOV     R3,#0x0
        LCALL   ??APSME_HoldDataRequests?relay
// 3143 #endif
// 3144 
// 3145   ZDP_DeviceAnnce( NLME_GetShortAddr(), NLME_GetExtAddr(),
// 3146                      ZDO_Config_Node_Descriptor.CapabilityFlags, 0 );
        ; Setup parameters for call to function NLME_GetExtAddr
        LCALL   ??NLME_GetExtAddr?relay
        MOV     ?V0 + 0,R2
        MOV     ?V0 + 1,R3
        MOV     R6,?V0 + 0
        ; Setup parameters for call to function NLME_GetShortAddr
        LCALL   ??NLME_GetShortAddr?relay
        ; Setup parameters for call to function ZDP_DeviceAnnce
        MOV     ?V0 + 0,#0x0
        MOV     R0,#?V0 + 0
        LCALL   ?PUSH_XSTACK_I_ONE
          CFI CFA_XSP16 add(XSP16, 11)
        MOV     DPTR,#ZDO_Config_Node_Descriptor + 2
        MOVX    A,@DPTR
        MOV     R1,A
        MOV     A,R6
        MOV     R4,A
        MOV     R5,?V0 + 1
        LCALL   ??ZDP_DeviceAnnce?relay
        MOV     A,#0x1
        LCALL   ?DEALLOC_XSTACK8
          CFI CFA_XSP16 add(XSP16, 10)
// 3147 
// 3148 #if defined ( ZIGBEE_NWK_UNIQUE_ADDR_CHECK )
// 3149   // Setup the timeout
// 3150   APSME_HoldDataRequests( ZDAPP_HOLD_DATA_REQUESTS_TIMEOUT );
        ; Setup parameters for call to function APSME_HoldDataRequests
        MOV     R2,#0x0
        MOV     R3,#0x0
        LCALL   ??APSME_HoldDataRequests?relay
// 3151 #endif
// 3152 }
        LJMP    ??Subroutine39_0 & 0xFFFF
          CFI EndBlock cfiBlock238
// 3153 
// 3154 /*********************************************************************
// 3155  * @fn          ZDApp_NVUpdate
// 3156  *
// 3157  * @brief       Set the NV Update Timer.
// 3158  *
// 3159  * @param       none
// 3160  *
// 3161  * @return      none
// 3162  */

        RSEG BANKED_CODE:CODE:NOROOT(0)
// 3163 void ZDApp_NVUpdate( void )
ZDApp_NVUpdate:
          CFI Block cfiBlock239 Using cfiCommon0
          CFI Function ZDApp_NVUpdate
        CODE
// 3164 {
        FUNCALL ZDApp_NVUpdate, osal_start_timerEx
        LOCFRAME ISTACK, 2, STACK
        LOCFRAME PSTACK, 0, STACK
        LOCFRAME XSTACK, 4, STACK
        LOCFRAME IOVERLAY, 0, STATIC
        LOCFRAME DOVERLAY, 0, STATIC
        ARGFRAME ISTACK, 2, STACK
        ARGFRAME PSTACK, 0, STACK
        ARGFRAME XSTACK, 4, STACK
        ARGFRAME IOVERLAY, 0, STATIC
        ARGFRAME DOVERLAY, 0, STATIC
        PUSH    DPL
          CFI DPL0 Frame(CFA_SP, 4)
          CFI CFA_SP SP+-4
        PUSH    DPH
          CFI DPH0 Frame(CFA_SP, 5)
          CFI CFA_SP SP+-5
        ; Saved register size: 2
        ; Auto size: 0
// 3165 #if defined ( NV_RESTORE )
// 3166   osal_start_timerEx( ZDAppTaskID, ZDO_NWK_UPDATE_NV, ZDAPP_UPDATE_NWK_NV_TIME );
        ; Setup parameters for call to function osal_start_timerEx
        MOV     DPTR,#__Constant_2bc
        LCALL   ?PUSH_XSTACK8_X_FOUR
          CFI CFA_XSP16 add(XSP16, 4)
        MOV     R2,#0x0
        MOV     R3,#0x1
        MOV     DPTR,#ZDAppTaskID
        MOVX    A,@DPTR
        MOV     R1,A
        LCALL   ??osal_start_timerEx?relay
        MOV     A,#0x4
        LJMP    ?Subroutine4 & 0xFFFF
          CFI EndBlock cfiBlock239
// 3167 #endif
// 3168 }
// 3169 
// 3170 /*********************************************************************
// 3171  * @fn      ZDApp_CoordStartPANIDConflictCB()
// 3172  *
// 3173  * @brief   Returns a PAN ID for the network layer to use during
// 3174  *          a coordinator start and there is another network with
// 3175  *          the intended PANID.
// 3176  *
// 3177  * @param   panid - the intended PAN ID
// 3178  *
// 3179  * @return  PANID to try
// 3180  */

        RSEG BANKED_CODE:CODE:NOROOT(0)
// 3181 uint16 ZDApp_CoordStartPANIDConflictCB( uint16 panid )
ZDApp_CoordStartPANIDConflictCB:
          CFI Block cfiBlock240 Using cfiCommon0
          CFI Function ZDApp_CoordStartPANIDConflictCB
        CODE
// 3182 {
        ; Saved register size: 0
        ; Auto size: 0
// 3183   return ( panid + 1 );
        MOV     A,R2
        ADD     A,#0x1
        INC     R2
        MOV     A,R3
        ADDC    A,#0x0
        MOV     R3,A
        LJMP    ?BRET
          CFI EndBlock cfiBlock240
// 3184 }
// 3185 
// 3186 /*********************************************************************
// 3187  * @fn          ZDO_SrcRtgIndCB
// 3188  *
// 3189  * @brief       This function notifies the ZDO available src route record received.
// 3190  *
// 3191  * @param       srcAddr - source address of the source route
// 3192  * @param       relayCnt - number of devices in the relay list
// 3193  * @param       relayList - relay list of the source route
// 3194  *
// 3195  * @return      none
// 3196  */

        RSEG BANKED_CODE:CODE:NOROOT(0)
// 3197 void ZDO_SrcRtgIndCB (uint16 srcAddr, uint8 relayCnt, uint16* pRelayList )
ZDO_SrcRtgIndCB:
          CFI Block cfiBlock241 Using cfiCommon0
          CFI Function ZDO_SrcRtgIndCB
        CODE
// 3198 {
        MOV     A,#-0x9
        LCALL   ?BANKED_ENTER_XDATA
          CFI DPH0 load(1, XDATA, add(CFA_XSP16, literal(-1)))
          CFI DPL0 load(1, XDATA, add(CFA_XSP16, literal(-2)))
          CFI ?BRET_EXT load(1, XDATA, add(CFA_XSP16, literal(-3)))
          CFI ?RET_HIGH load(1, XDATA, add(CFA_XSP16, literal(-4)))
          CFI ?RET_LOW load(1, XDATA, add(CFA_XSP16, literal(-5)))
          CFI R7 load(1, XDATA, add(CFA_XSP16, literal(-6)))
          CFI V0 load(1, XDATA, add(CFA_XSP16, literal(-7)))
          CFI VB load(1, XDATA, add(CFA_XSP16, literal(-8)))
          CFI R6 load(1, XDATA, add(CFA_XSP16, literal(-9)))
          CFI CFA_SP SP+0
          CFI CFA_XSP16 add(XSP16, 9)
        ; Saved register size: 9
        ; Auto size: 5
        MOV     A,#-0x5
        LCALL   ?ALLOC_XSTACK8
          CFI CFA_XSP16 add(XSP16, 14)
// 3199   zdoSrcRtg_t srcRtg;
// 3200 
// 3201   srcRtg.srcAddr = srcAddr;
        LCALL   ?Subroutine12 & 0xFFFF
// 3202   srcRtg.relayCnt = relayCnt;
??CrossCallReturnLabel_102:
        MOV     A,#0x2
        LCALL   ?XSTACK_DISP0_8
        MOV     A,R1
        MOVX    @DPTR,A
// 3203   srcRtg.pRelayList = pRelayList;
        MOV     A,#0x3
        LCALL   ?XSTACK_DISP0_8
        MOV     A,R4
        MOVX    @DPTR,A
        INC     DPTR
        MOV     A,R5
        MOVX    @DPTR,A
// 3204 
// 3205   if( zdoCBFunc[ZDO_SRC_RTG_IND_CBID] != NULL )
        MOV     DPTR,#zdoCBFunc
        LCALL   ??Subroutine43_0 & 0xFFFF
??CrossCallReturnLabel_70:
        JZ      ??ZDO_SrcRtgIndCB_0
// 3206   {
// 3207     zdoCBFunc[ZDO_SRC_RTG_IND_CBID]( (void*)&srcRtg );
        ; Setup parameters for indirect call
        MOV     DPL,?XSP + 0
        MOV     DPH,?XSP + 1
        MOV     R2,DPL
        MOV     R3,DPH
        MOV     DPTR,#zdoCBFunc + 1
        LCALL   ??Subroutine49_0 & 0xFFFF
// 3208   }
??CrossCallReturnLabel_92:
        LCALL   ?CALL_IND
          CFI EndBlock cfiBlock241
// 3209 }
??ZDO_SrcRtgIndCB_0:
        REQUIRE ?Subroutine7
        ; // Fall through to label ?Subroutine7

        RSEG BANKED_CODE:CODE:NOROOT(0)
?Subroutine7:
          CFI Block cfiBlock242 Using cfiCommon0
          CFI NoFunction
          CFI CFA_SP SP+0
          CFI CFA_XSP16 add(XSP16, 14)
          CFI VB load(1, XDATA, add(CFA_XSP16, literal(-8)))
          CFI DPL0 load(1, XDATA, add(CFA_XSP16, literal(-2)))
          CFI DPH0 load(1, XDATA, add(CFA_XSP16, literal(-1)))
          CFI R6 load(1, XDATA, add(CFA_XSP16, literal(-9)))
          CFI R7 load(1, XDATA, add(CFA_XSP16, literal(-6)))
          CFI V0 load(1, XDATA, add(CFA_XSP16, literal(-7)))
          CFI ?BRET_EXT load(1, XDATA, add(CFA_XSP16, literal(-3)))
          CFI ?RET_HIGH load(1, XDATA, add(CFA_XSP16, literal(-4)))
          CFI ?RET_LOW load(1, XDATA, add(CFA_XSP16, literal(-5)))
        MOV     A,#0x5
          CFI EndBlock cfiBlock242
        REQUIRE ??Subroutine48_0
        ; // Fall through to label ??Subroutine48_0

        RSEG BANKED_CODE:CODE:NOROOT(0)
??Subroutine48_0:
          CFI Block cfiBlock243 Using cfiCommon0
          CFI NoFunction
          CFI CFA_SP SP+0
          CFI CFA_XSP16 add(XSP16, 25)
          CFI VB load(1, XDATA, add(CFA_XSP16, literal(-8)))
          CFI DPL0 load(1, XDATA, add(CFA_XSP16, literal(-2)))
          CFI DPH0 load(1, XDATA, add(CFA_XSP16, literal(-1)))
          CFI R6 load(1, XDATA, add(CFA_XSP16, literal(-9)))
          CFI R7 load(1, XDATA, add(CFA_XSP16, literal(-6)))
          CFI V0 load(1, XDATA, add(CFA_XSP16, literal(-7)))
          CFI ?BRET_EXT load(1, XDATA, add(CFA_XSP16, literal(-3)))
          CFI ?RET_HIGH load(1, XDATA, add(CFA_XSP16, literal(-4)))
          CFI ?RET_LOW load(1, XDATA, add(CFA_XSP16, literal(-5)))
          CFI Invalid
        LCALL   ?DEALLOC_XSTACK8
          CFI CFA_XSP16 add(XSP16, 9)
          CFI Valid
        LJMP    ??Subroutine44_0 & 0xFFFF
          CFI EndBlock cfiBlock243

        RSEG BANKED_CODE:CODE:NOROOT(0)
?Subroutine22:
          CFI Block cfiCond244 Using cfiCommon0
          CFI Function ZDApp_LeaveUpdate
          CFI Conditional ??CrossCallReturnLabel_93
          CFI R6 load(1, XDATA, add(CFA_XSP16, literal(-15)))
          CFI VB load(1, XDATA, add(CFA_XSP16, literal(-14)))
          CFI V0 load(1, XDATA, add(CFA_XSP16, literal(-13)))
          CFI V1 load(1, XDATA, add(CFA_XSP16, literal(-12)))
          CFI V2 load(1, XDATA, add(CFA_XSP16, literal(-11)))
          CFI V3 load(1, XDATA, add(CFA_XSP16, literal(-10)))
          CFI V4 load(1, XDATA, add(CFA_XSP16, literal(-9)))
          CFI V5 load(1, XDATA, add(CFA_XSP16, literal(-8)))
          CFI V6 load(1, XDATA, add(CFA_XSP16, literal(-7)))
          CFI R7 load(1, XDATA, add(CFA_XSP16, literal(-6)))
          CFI ?RET_LOW load(1, XDATA, add(CFA_XSP16, literal(-5)))
          CFI ?RET_HIGH load(1, XDATA, add(CFA_XSP16, literal(-4)))
          CFI ?BRET_EXT load(1, XDATA, add(CFA_XSP16, literal(-3)))
          CFI DPL0 load(1, XDATA, add(CFA_XSP16, literal(-2)))
          CFI DPH0 load(1, XDATA, add(CFA_XSP16, literal(-1)))
          CFI CFA_SP SP+0
          CFI CFA_XSP16 add(XSP16, 32)
          CFI Block cfiCond245 Using cfiCommon0
          CFI (cfiCond245) Function ZDO_AddrChangeIndicationCB
          CFI (cfiCond245) Conditional ??CrossCallReturnLabel_94
          CFI (cfiCond245) R6 load(1, XDATA, add(CFA_XSP16, literal(-14)))
          CFI (cfiCond245) VB load(1, XDATA, add(CFA_XSP16, literal(-13)))
          CFI (cfiCond245) V0 load(1, XDATA, add(CFA_XSP16, literal(-12)))
          CFI (cfiCond245) V1 load(1, XDATA, add(CFA_XSP16, literal(-11)))
          CFI (cfiCond245) V2 load(1, XDATA, add(CFA_XSP16, literal(-10)))
          CFI (cfiCond245) V3 load(1, XDATA, add(CFA_XSP16, literal(-9)))
          CFI (cfiCond245) V4 load(1, XDATA, add(CFA_XSP16, literal(-8)))
          CFI (cfiCond245) V5 load(1, XDATA, add(CFA_XSP16, literal(-7)))
          CFI (cfiCond245) R7 load(1, XDATA, add(CFA_XSP16, literal(-6)))
          CFI (cfiCond245) ?RET_LOW load(1, XDATA, add(CFA_XSP16, literal(-5)))
          CFI (cfiCond245) ?RET_HIGH load(1, XDATA, add(CFA_XSP16, literal(-4)))
          CFI (cfiCond245) ?BRET_EXT load(1, XDATA, add(CFA_XSP16, literal(-3)))
          CFI (cfiCond245) DPL0 load(1, XDATA, add(CFA_XSP16, literal(-2)))
          CFI (cfiCond245) DPH0 load(1, XDATA, add(CFA_XSP16, literal(-1)))
          CFI (cfiCond245) CFA_SP SP+0
          CFI (cfiCond245) CFA_XSP16 add(XSP16, 14)
          CFI Block cfiPicker246 Using cfiCommon1
          CFI (cfiPicker246) NoFunction
          CFI (cfiPicker246) Picker
        MOVX    A,@DPTR
        MOV     R0,A
        INC     DPTR
          CFI EndBlock cfiCond244
          CFI EndBlock cfiCond245
          CFI EndBlock cfiPicker246
        REQUIRE ??Subroutine49_0
        ; // Fall through to label ??Subroutine49_0

        RSEG BANKED_CODE:CODE:NOROOT(0)
??Subroutine49_0:
          CFI Block cfiCond247 Using cfiCommon0
          CFI Function ZDApp_ProcessSecEvent
          CFI Conditional ??CrossCallReturnLabel_90
          CFI R6 load(1, XDATA, add(CFA_XSP16, literal(-16)))
          CFI VB load(1, XDATA, add(CFA_XSP16, literal(-15)))
          CFI V0 load(1, XDATA, add(CFA_XSP16, literal(-14)))
          CFI V1 load(1, XDATA, add(CFA_XSP16, literal(-13)))
          CFI V2 load(1, XDATA, add(CFA_XSP16, literal(-12)))
          CFI V3 load(1, XDATA, add(CFA_XSP16, literal(-11)))
          CFI V4 load(1, XDATA, add(CFA_XSP16, literal(-10)))
          CFI V5 load(1, XDATA, add(CFA_XSP16, literal(-9)))
          CFI V6 load(1, XDATA, add(CFA_XSP16, literal(-8)))
          CFI V7 load(1, XDATA, add(CFA_XSP16, literal(-7)))
          CFI R7 load(1, XDATA, add(CFA_XSP16, literal(-6)))
          CFI ?RET_LOW load(1, XDATA, add(CFA_XSP16, literal(-5)))
          CFI ?RET_HIGH load(1, XDATA, add(CFA_XSP16, literal(-4)))
          CFI ?BRET_EXT load(1, XDATA, add(CFA_XSP16, literal(-3)))
          CFI DPL0 load(1, XDATA, add(CFA_XSP16, literal(-2)))
          CFI DPH0 load(1, XDATA, add(CFA_XSP16, literal(-1)))
          CFI CFA_SP SP+0
          CFI CFA_XSP16 add(XSP16, 16)
          CFI Block cfiCond248 Using cfiCommon0
          CFI (cfiCond248) Function ZDApp_ProcessOSALMsg
          CFI (cfiCond248) Conditional ??CrossCallReturnLabel_91
          CFI (cfiCond248) R6 load(1, XDATA, add(CFA_XSP16, literal(-12)))
          CFI (cfiCond248) VB load(1, XDATA, add(CFA_XSP16, literal(-11)))
          CFI (cfiCond248) V0 load(1, XDATA, add(CFA_XSP16, literal(-10)))
          CFI (cfiCond248) V1 load(1, XDATA, add(CFA_XSP16, literal(-9)))
          CFI (cfiCond248) V2 load(1, XDATA, add(CFA_XSP16, literal(-8)))
          CFI (cfiCond248) V3 load(1, XDATA, add(CFA_XSP16, literal(-7)))
          CFI (cfiCond248) R7 load(1, XDATA, add(CFA_XSP16, literal(-6)))
          CFI (cfiCond248) ?RET_LOW load(1, XDATA, add(CFA_XSP16, literal(-5)))
          CFI (cfiCond248) ?RET_HIGH load(1, XDATA, add(CFA_XSP16, literal(-4)))
          CFI (cfiCond248) ?BRET_EXT load(1, XDATA, add(CFA_XSP16, literal(-3)))
          CFI (cfiCond248) DPL0 load(1, XDATA, add(CFA_XSP16, literal(-2)))
          CFI (cfiCond248) DPH0 load(1, XDATA, add(CFA_XSP16, literal(-1)))
          CFI (cfiCond248) CFA_SP SP+0
          CFI (cfiCond248) CFA_XSP16 add(XSP16, 15)
          CFI Block cfiCond249 Using cfiCommon0
          CFI (cfiCond249) Function ZDO_SrcRtgIndCB
          CFI (cfiCond249) Conditional ??CrossCallReturnLabel_92
          CFI (cfiCond249) R6 load(1, XDATA, add(CFA_XSP16, literal(-9)))
          CFI (cfiCond249) VB load(1, XDATA, add(CFA_XSP16, literal(-8)))
          CFI (cfiCond249) V0 load(1, XDATA, add(CFA_XSP16, literal(-7)))
          CFI (cfiCond249) R7 load(1, XDATA, add(CFA_XSP16, literal(-6)))
          CFI (cfiCond249) ?RET_LOW load(1, XDATA, add(CFA_XSP16, literal(-5)))
          CFI (cfiCond249) ?RET_HIGH load(1, XDATA, add(CFA_XSP16, literal(-4)))
          CFI (cfiCond249) ?BRET_EXT load(1, XDATA, add(CFA_XSP16, literal(-3)))
          CFI (cfiCond249) DPL0 load(1, XDATA, add(CFA_XSP16, literal(-2)))
          CFI (cfiCond249) DPH0 load(1, XDATA, add(CFA_XSP16, literal(-1)))
          CFI (cfiCond249) CFA_SP SP+0
          CFI (cfiCond249) CFA_XSP16 add(XSP16, 14)
          CFI Block cfiCond250 Using cfiCommon0
          CFI (cfiCond250) Function ZDApp_LeaveUpdate
          CFI (cfiCond250) Conditional ??CrossCallReturnLabel_93
          CFI (cfiCond250) R6 load(1, XDATA, add(CFA_XSP16, literal(-15)))
          CFI (cfiCond250) VB load(1, XDATA, add(CFA_XSP16, literal(-14)))
          CFI (cfiCond250) V0 load(1, XDATA, add(CFA_XSP16, literal(-13)))
          CFI (cfiCond250) V1 load(1, XDATA, add(CFA_XSP16, literal(-12)))
          CFI (cfiCond250) V2 load(1, XDATA, add(CFA_XSP16, literal(-11)))
          CFI (cfiCond250) V3 load(1, XDATA, add(CFA_XSP16, literal(-10)))
          CFI (cfiCond250) V4 load(1, XDATA, add(CFA_XSP16, literal(-9)))
          CFI (cfiCond250) V5 load(1, XDATA, add(CFA_XSP16, literal(-8)))
          CFI (cfiCond250) V6 load(1, XDATA, add(CFA_XSP16, literal(-7)))
          CFI (cfiCond250) R7 load(1, XDATA, add(CFA_XSP16, literal(-6)))
          CFI (cfiCond250) ?RET_LOW load(1, XDATA, add(CFA_XSP16, literal(-5)))
          CFI (cfiCond250) ?RET_HIGH load(1, XDATA, add(CFA_XSP16, literal(-4)))
          CFI (cfiCond250) ?BRET_EXT load(1, XDATA, add(CFA_XSP16, literal(-3)))
          CFI (cfiCond250) DPL0 load(1, XDATA, add(CFA_XSP16, literal(-2)))
          CFI (cfiCond250) DPH0 load(1, XDATA, add(CFA_XSP16, literal(-1)))
          CFI (cfiCond250) CFA_SP SP+0
          CFI (cfiCond250) CFA_XSP16 add(XSP16, 32)
          CFI Block cfiCond251 Using cfiCommon0
          CFI (cfiCond251) Function ZDO_AddrChangeIndicationCB
          CFI (cfiCond251) Conditional ??CrossCallReturnLabel_94
          CFI (cfiCond251) R6 load(1, XDATA, add(CFA_XSP16, literal(-14)))
          CFI (cfiCond251) VB load(1, XDATA, add(CFA_XSP16, literal(-13)))
          CFI (cfiCond251) V0 load(1, XDATA, add(CFA_XSP16, literal(-12)))
          CFI (cfiCond251) V1 load(1, XDATA, add(CFA_XSP16, literal(-11)))
          CFI (cfiCond251) V2 load(1, XDATA, add(CFA_XSP16, literal(-10)))
          CFI (cfiCond251) V3 load(1, XDATA, add(CFA_XSP16, literal(-9)))
          CFI (cfiCond251) V4 load(1, XDATA, add(CFA_XSP16, literal(-8)))
          CFI (cfiCond251) V5 load(1, XDATA, add(CFA_XSP16, literal(-7)))
          CFI (cfiCond251) R7 load(1, XDATA, add(CFA_XSP16, literal(-6)))
          CFI (cfiCond251) ?RET_LOW load(1, XDATA, add(CFA_XSP16, literal(-5)))
          CFI (cfiCond251) ?RET_HIGH load(1, XDATA, add(CFA_XSP16, literal(-4)))
          CFI (cfiCond251) ?BRET_EXT load(1, XDATA, add(CFA_XSP16, literal(-3)))
          CFI (cfiCond251) DPL0 load(1, XDATA, add(CFA_XSP16, literal(-2)))
          CFI (cfiCond251) DPH0 load(1, XDATA, add(CFA_XSP16, literal(-1)))
          CFI (cfiCond251) CFA_SP SP+0
          CFI (cfiCond251) CFA_XSP16 add(XSP16, 14)
          CFI Block cfiPicker252 Using cfiCommon1
          CFI (cfiPicker252) NoFunction
          CFI (cfiPicker252) Picker
        MOVX    A,@DPTR
        MOV     DPH,A
        MOV     DPL,R0
        RET
          CFI EndBlock cfiCond247
          CFI EndBlock cfiCond248
          CFI EndBlock cfiCond249
          CFI EndBlock cfiCond250
          CFI EndBlock cfiCond251
          CFI EndBlock cfiPicker252
// 3210 
// 3211 /*********************************************************************
// 3212  * @fn          ZDApp_InitZdoCBFunc
// 3213  *
// 3214  * @brief       Call this function to initialize zdoCBFunc[]
// 3215  *
// 3216  * @param       none
// 3217  *
// 3218  * @return      none
// 3219  */

        RSEG BANKED_CODE:CODE:NOROOT(0)
// 3220 void ZDApp_InitZdoCBFunc( void )
ZDApp_InitZdoCBFunc:
          CFI Block cfiBlock253 Using cfiCommon0
          CFI Function ZDApp_InitZdoCBFunc
        CODE
// 3221 {
        PUSH    DPL
          CFI DPL0 Frame(CFA_SP, 4)
          CFI CFA_SP SP+-4
        PUSH    DPH
          CFI DPH0 Frame(CFA_SP, 5)
          CFI CFA_SP SP+-5
        ; Saved register size: 2
        ; Auto size: 0
// 3222   uint8 i;
// 3223 
// 3224   for ( i=0; i< MAX_ZDO_CB_FUNC; i++ )
        MOV     R2,#0x0
// 3225   {
// 3226     zdoCBFunc[i] = NULL;
??ZDApp_InitZdoCBFunc_0:
        LCALL   ?Subroutine29 & 0xFFFF
// 3227   }
??CrossCallReturnLabel_25:
        INC     R2
        MOV     A,R2
        CLR     C
        SUBB    A,#0x7
        JC      ??ZDApp_InitZdoCBFunc_0
// 3228 }
        LJMP    ??Subroutine40_0 & 0xFFFF
          CFI EndBlock cfiBlock253
// 3229 
// 3230 /*********************************************************************
// 3231  * @fn          ZDO_RegisterForZdoCB
// 3232  *
// 3233  * @brief       Call this function to register the higher layer (for
// 3234  *              example, the Application layer or MT layer) with ZDO
// 3235  *              callbacks to get notified of some ZDO indication like
// 3236  *              existence of a concentrator or receipt of a source
// 3237  *              route record.
// 3238  *
// 3239  * @param       indID - ZDO Indication ID
// 3240  * @param       pFn   - Callback function pointer
// 3241  *
// 3242  * @return      ZSuccess - successful, ZInvalidParameter if not
// 3243  */

        RSEG BANKED_CODE:CODE:NOROOT(0)
// 3244 ZStatus_t ZDO_RegisterForZdoCB( uint8 indID, pfnZdoCb pFn )
ZDO_RegisterForZdoCB:
          CFI Block cfiBlock254 Using cfiCommon0
          CFI Function ZDO_RegisterForZdoCB
        CODE
// 3245 {
        PUSH    DPL
          CFI DPL0 Frame(CFA_SP, 4)
          CFI CFA_SP SP+-4
        PUSH    DPH
          CFI DPH0 Frame(CFA_SP, 5)
          CFI CFA_SP SP+-5
        ; Saved register size: 2
        ; Auto size: 0
        MOV     A,R1
        MOV     R4,A
// 3246   // Check the range of the indication ID
// 3247   if ( indID < MAX_ZDO_CB_FUNC )
        CLR     C
        SUBB    A,#0x7
        JNC     ??ZDO_RegisterForZdoCB_0
// 3248   {
// 3249     zdoCBFunc[indID] = pFn;
        MOV     A,R4
        LCALL   ?Subroutine33 & 0xFFFF
??CrossCallReturnLabel_32:
        LCALL   ??Subroutine50_0 & 0xFFFF
// 3250     return ZSuccess;
??CrossCallReturnLabel_98:
        MOV     R1,#0x0
        SJMP    ??ZDO_RegisterForZdoCB_1
// 3251   }
// 3252 
// 3253   return ZInvalidParameter;
??ZDO_RegisterForZdoCB_0:
        MOV     R1,#0x2
??ZDO_RegisterForZdoCB_1:
        LJMP    ??Subroutine40_0 & 0xFFFF
          CFI EndBlock cfiBlock254
// 3254 }
// 3255 
// 3256 /*********************************************************************
// 3257  * @fn          ZDO_DeregisterForZdoCB
// 3258  *
// 3259  * @brief       Call this function to de-register the higher layer (for
// 3260  *              example, the Application layer or MT layer) with ZDO
// 3261  *              callbacks to get notified of some ZDO indication like
// 3262  *              existence of a concentrator or receipt of a source
// 3263  *              route record.
// 3264  *
// 3265  * @param       indID - ZDO Indication ID
// 3266  *
// 3267  * @return      ZSuccess - successful, ZInvalidParameter if not
// 3268  */

        RSEG BANKED_CODE:CODE:NOROOT(0)
// 3269 ZStatus_t ZDO_DeregisterForZdoCB( uint8 indID )
ZDO_DeregisterForZdoCB:
          CFI Block cfiBlock255 Using cfiCommon0
          CFI Function ZDO_DeregisterForZdoCB
        CODE
// 3270 {
        PUSH    DPL
          CFI DPL0 Frame(CFA_SP, 4)
          CFI CFA_SP SP+-4
        PUSH    DPH
          CFI DPH0 Frame(CFA_SP, 5)
          CFI CFA_SP SP+-5
        ; Saved register size: 2
        ; Auto size: 0
        MOV     A,R1
        MOV     R2,A
// 3271   // Check the range of the indication ID
// 3272   if ( indID < MAX_ZDO_CB_FUNC )
        CLR     C
        SUBB    A,#0x7
        JNC     ??ZDO_DeregisterForZdoCB_0
// 3273   {
// 3274     zdoCBFunc[indID] = NULL;
        LCALL   ?Subroutine29 & 0xFFFF
// 3275     return ZSuccess;
??CrossCallReturnLabel_26:
        MOV     R1,A
        SJMP    ??ZDO_DeregisterForZdoCB_1
// 3276   }
// 3277 
// 3278   return ZInvalidParameter;
??ZDO_DeregisterForZdoCB_0:
        MOV     R1,#0x2
??ZDO_DeregisterForZdoCB_1:
        LJMP    ??Subroutine40_0 & 0xFFFF
          CFI EndBlock cfiBlock255
// 3279 }

        RSEG BANKED_CODE:CODE:NOROOT(0)
?Subroutine29:
          CFI Block cfiCond256 Using cfiCommon0
          CFI Function ZDApp_InitZdoCBFunc
          CFI Conditional ??CrossCallReturnLabel_25
          CFI DPL0 Frame(CFA_SP, 4)
          CFI DPH0 Frame(CFA_SP, 5)
          CFI CFA_SP SP+-5
          CFI Block cfiCond257 Using cfiCommon0
          CFI (cfiCond257) Function ZDO_DeregisterForZdoCB
          CFI (cfiCond257) Conditional ??CrossCallReturnLabel_26
          CFI (cfiCond257) DPL0 Frame(CFA_SP, 4)
          CFI (cfiCond257) DPH0 Frame(CFA_SP, 5)
          CFI (cfiCond257) CFA_SP SP+-5
          CFI Block cfiPicker258 Using cfiCommon1
          CFI (cfiPicker258) NoFunction
          CFI (cfiPicker258) Picker
        MOV     A,R2
        LCALL   ?Subroutine33 & 0xFFFF
??CrossCallReturnLabel_33:
        CLR     A
        MOVX    @DPTR,A
        INC     DPTR
        MOVX    @DPTR,A
        RET
          CFI EndBlock cfiCond256
          CFI EndBlock cfiCond257
          CFI EndBlock cfiPicker258

        RSEG BANKED_CODE:CODE:NOROOT(0)
?Subroutine33:
          CFI Block cfiCond259 Using cfiCommon0
          CFI Function ZDO_RegisterForZdoCB
          CFI Conditional ??CrossCallReturnLabel_32
          CFI DPL0 Frame(CFA_SP, 4)
          CFI DPH0 Frame(CFA_SP, 5)
          CFI CFA_SP SP+-5
          CFI Block cfiCond260 Using cfiCommon0
          CFI (cfiCond260) Function ZDApp_InitZdoCBFunc
          CFI (cfiCond260) Conditional ??CrossCallReturnLabel_33, ??CrossCallReturnLabel_25
          CFI (cfiCond260) DPL0 Frame(CFA_SP, 4)
          CFI (cfiCond260) DPH0 Frame(CFA_SP, 5)
          CFI (cfiCond260) CFA_SP SP+-5
          CFI Block cfiCond261 Using cfiCommon0
          CFI (cfiCond261) Function ZDO_DeregisterForZdoCB
          CFI (cfiCond261) Conditional ??CrossCallReturnLabel_33, ??CrossCallReturnLabel_26
          CFI (cfiCond261) DPL0 Frame(CFA_SP, 4)
          CFI (cfiCond261) DPH0 Frame(CFA_SP, 5)
          CFI (cfiCond261) CFA_SP SP+-5
          CFI Block cfiPicker262 Using cfiCommon1
          CFI (cfiPicker262) NoFunction
          CFI (cfiPicker262) Picker
        CLR     C
        RLC     A
        MOV     R0,A
        CLR     A
        RLC     A
        MOV     R1,A
        MOV     A,#zdoCBFunc & 0xff
        ADD     A,R0
        MOV     DPL,A
        MOV     A,#(zdoCBFunc >> 8) & 0xff
        ADDC    A,R1
        MOV     DPH,A
        RET
          CFI EndBlock cfiCond259
          CFI EndBlock cfiCond260
          CFI EndBlock cfiCond261
          CFI EndBlock cfiPicker262
// 3280 
// 3281 #if !defined ( ZDP_BIND_SKIP_VALIDATION )
// 3282 #if defined ( REFLECTOR )
// 3283 /*********************************************************************
// 3284  * @fn          ZDApp_SetPendingBindDefault
// 3285  *
// 3286  * @brief       This function initializes a specific entry of pending
// 3287  *              Bind Request.
// 3288  *
// 3289  * @param       pendBindReq - pointer to the entry in the table
// 3290  *
// 3291  * @return      none
// 3292  */

        RSEG BANKED_CODE:CODE:NOROOT(0)
// 3293 void ZDApp_SetPendingBindDefault( ZDO_PendingBindReq_t *pendBindReq )
ZDApp_SetPendingBindDefault:
          CFI Block cfiBlock263 Using cfiCommon0
          CFI Function ZDApp_SetPendingBindDefault
        CODE
// 3294 {
        FUNCALL ZDApp_SetPendingBindDefault, osal_memset
        LOCFRAME ISTACK, 0, STACK
        LOCFRAME PSTACK, 0, STACK
        LOCFRAME XSTACK, 9, STACK
        LOCFRAME IOVERLAY, 0, STATIC
        LOCFRAME DOVERLAY, 0, STATIC
        ARGFRAME ISTACK, 0, STACK
        ARGFRAME PSTACK, 0, STACK
        ARGFRAME XSTACK, 9, STACK
        ARGFRAME IOVERLAY, 0, STATIC
        ARGFRAME DOVERLAY, 0, STATIC
        MOV     A,#-0x9
        LCALL   ?BANKED_ENTER_XDATA
          CFI DPH0 load(1, XDATA, add(CFA_XSP16, literal(-1)))
          CFI DPL0 load(1, XDATA, add(CFA_XSP16, literal(-2)))
          CFI ?BRET_EXT load(1, XDATA, add(CFA_XSP16, literal(-3)))
          CFI ?RET_HIGH load(1, XDATA, add(CFA_XSP16, literal(-4)))
          CFI ?RET_LOW load(1, XDATA, add(CFA_XSP16, literal(-5)))
          CFI R7 load(1, XDATA, add(CFA_XSP16, literal(-6)))
          CFI V0 load(1, XDATA, add(CFA_XSP16, literal(-7)))
          CFI VB load(1, XDATA, add(CFA_XSP16, literal(-8)))
          CFI R6 load(1, XDATA, add(CFA_XSP16, literal(-9)))
          CFI CFA_SP SP+0
          CFI CFA_XSP16 add(XSP16, 9)
        ; Saved register size: 9
        ; Auto size: 0
        MOV     A,R2
        MOV     R6,A
        MOV     A,R3
        MOV     R7,A
// 3295   // Set it to an initial value
// 3296   osal_memset( pendBindReq, 0xFF, sizeof( ZDO_PendingBindReq_t ) );
        ; Setup parameters for call to function osal_memset
        MOV     R4,#0x21
        MOV     R5,#0x0
        MOV     R1,#-0x1
        LCALL   ??osal_memset?relay
// 3297 
// 3298   // We are checking for age 0 for aged-out records
// 3299   pendBindReq->age = 0;
        MOV     A,R6
        ADD     A,#0x20
        LCALL   ?Subroutine34 & 0xFFFF
??CrossCallReturnLabel_115:
        CLR     A
        MOVX    @DPTR,A
// 3300 }
        LJMP    ??Subroutine44_0 & 0xFFFF
          CFI EndBlock cfiBlock263
// 3301 
// 3302 /*********************************************************************
// 3303  * @fn          ZDApp_InitPendingBind
// 3304  *
// 3305  * @brief       This function initializes the buffer that holds
// 3306  *              pending Bind Request messages if no valid NWK address
// 3307  *              exists in Address Manager and a Network Address Req
// 3308  *              has been sent out.
// 3309  *
// 3310  * @param       none
// 3311  *
// 3312  * @return      none
// 3313  */

        RSEG BANKED_CODE:CODE:NOROOT(0)
// 3314 void ZDApp_InitPendingBind( void )
ZDApp_InitPendingBind:
          CFI Block cfiBlock264 Using cfiCommon0
          CFI Function ZDApp_InitPendingBind
        CODE
// 3315 {
        FUNCALL ZDApp_InitPendingBind, osal_mem_alloc
        LOCFRAME ISTACK, 0, STACK
        LOCFRAME PSTACK, 0, STACK
        LOCFRAME XSTACK, 9, STACK
        LOCFRAME IOVERLAY, 0, STATIC
        LOCFRAME DOVERLAY, 0, STATIC
        ARGFRAME ISTACK, 0, STACK
        ARGFRAME PSTACK, 0, STACK
        ARGFRAME XSTACK, 9, STACK
        ARGFRAME IOVERLAY, 0, STATIC
        ARGFRAME DOVERLAY, 0, STATIC
        FUNCALL ZDApp_InitPendingBind, ZDApp_SetPendingBindDefault
        LOCFRAME ISTACK, 0, STACK
        LOCFRAME PSTACK, 0, STACK
        LOCFRAME XSTACK, 9, STACK
        LOCFRAME IOVERLAY, 0, STATIC
        LOCFRAME DOVERLAY, 0, STATIC
        ARGFRAME ISTACK, 0, STACK
        ARGFRAME PSTACK, 0, STACK
        ARGFRAME XSTACK, 9, STACK
        ARGFRAME IOVERLAY, 0, STATIC
        ARGFRAME DOVERLAY, 0, STATIC
        MOV     A,#-0x9
        LCALL   ?BANKED_ENTER_XDATA
          CFI DPH0 load(1, XDATA, add(CFA_XSP16, literal(-1)))
          CFI DPL0 load(1, XDATA, add(CFA_XSP16, literal(-2)))
          CFI ?BRET_EXT load(1, XDATA, add(CFA_XSP16, literal(-3)))
          CFI ?RET_HIGH load(1, XDATA, add(CFA_XSP16, literal(-4)))
          CFI ?RET_LOW load(1, XDATA, add(CFA_XSP16, literal(-5)))
          CFI R7 load(1, XDATA, add(CFA_XSP16, literal(-6)))
          CFI V0 load(1, XDATA, add(CFA_XSP16, literal(-7)))
          CFI VB load(1, XDATA, add(CFA_XSP16, literal(-8)))
          CFI R6 load(1, XDATA, add(CFA_XSP16, literal(-9)))
          CFI CFA_SP SP+0
          CFI CFA_XSP16 add(XSP16, 9)
        ; Saved register size: 9
        ; Auto size: 0
// 3316   if ( ZDAppPendingBindReq == NULL )
        LCALL   ?Subroutine15 & 0xFFFF
??CrossCallReturnLabel_71:
        JNZ     ??ZDApp_InitPendingBind_0
// 3317   {
// 3318     if ( ( ZDAppPendingBindReq = osal_mem_alloc( sizeof(ZDO_PendingBindReq_t) * MAX_PENDING_BIND_REQ ) ) != NULL )
        ; Setup parameters for call to function osal_mem_alloc
        MOV     R2,#0x63
        MOV     R3,#0x0
        LCALL   ??osal_mem_alloc?relay
        MOV     DPTR,#ZDAppPendingBindReq
        LCALL   ??Subroutine50_0 & 0xFFFF
??CrossCallReturnLabel_99:
        LCALL   ?Subroutine15 & 0xFFFF
??CrossCallReturnLabel_72:
        JZ      ??ZDApp_InitPendingBind_0
// 3319     {
// 3320       uint8 i;
// 3321 
// 3322       for ( i = 0; i < MAX_PENDING_BIND_REQ; i++ )
        MOV     R6,#0x0
// 3323       {
// 3324         // Set to default values
// 3325         ZDApp_SetPendingBindDefault( &ZDAppPendingBindReq[i] );
??ZDApp_InitPendingBind_1:
        ; Setup parameters for call to function ZDApp_SetPendingBindDefault
        MOV     A,R6
        MOV     B,#0x21
        MUL     AB
        MOV     R0,A
        MOV     R1,B
        MOV     DPTR,#ZDAppPendingBindReq
        MOVX    A,@DPTR
        ADD     A,R0
        MOV     R2,A
        INC     DPTR
        MOVX    A,@DPTR
        ADDC    A,R1
        MOV     R3,A
        LCALL   ??ZDApp_SetPendingBindDefault?relay
// 3326       }
        INC     R6
        MOV     A,R6
        CLR     C
        SUBB    A,#0x3
        JC      ??ZDApp_InitPendingBind_1
// 3327     }
// 3328   }
// 3329 }
??ZDApp_InitPendingBind_0:
        LJMP    ??Subroutine44_0 & 0xFFFF
          CFI EndBlock cfiBlock264

        RSEG BANKED_CODE:CODE:NOROOT(0)
?Subroutine12:
          CFI Block cfiCond265 Using cfiCommon0
          CFI Function ZDOInitDevice
          CFI Conditional ??CrossCallReturnLabel_100
          CFI R6 load(1, XDATA, add(CFA_XSP16, literal(-12)))
          CFI VB load(1, XDATA, add(CFA_XSP16, literal(-11)))
          CFI V0 load(1, XDATA, add(CFA_XSP16, literal(-10)))
          CFI V1 load(1, XDATA, add(CFA_XSP16, literal(-9)))
          CFI V2 load(1, XDATA, add(CFA_XSP16, literal(-8)))
          CFI V3 load(1, XDATA, add(CFA_XSP16, literal(-7)))
          CFI R7 load(1, XDATA, add(CFA_XSP16, literal(-6)))
          CFI ?RET_LOW load(1, XDATA, add(CFA_XSP16, literal(-5)))
          CFI ?RET_HIGH load(1, XDATA, add(CFA_XSP16, literal(-4)))
          CFI ?BRET_EXT load(1, XDATA, add(CFA_XSP16, literal(-3)))
          CFI DPL0 load(1, XDATA, add(CFA_XSP16, literal(-2)))
          CFI DPH0 load(1, XDATA, add(CFA_XSP16, literal(-1)))
          CFI CFA_SP SP+0
          CFI CFA_XSP16 add(XSP16, 14)
          CFI Block cfiCond266 Using cfiCommon0
          CFI (cfiCond266) Function ZDO_ConcentratorIndicationCB
          CFI (cfiCond266) Conditional ??CrossCallReturnLabel_101
          CFI (cfiCond266) R6 load(1, XDATA, add(CFA_XSP16, literal(-9)))
          CFI (cfiCond266) VB load(1, XDATA, add(CFA_XSP16, literal(-8)))
          CFI (cfiCond266) V0 load(1, XDATA, add(CFA_XSP16, literal(-7)))
          CFI (cfiCond266) R7 load(1, XDATA, add(CFA_XSP16, literal(-6)))
          CFI (cfiCond266) ?RET_LOW load(1, XDATA, add(CFA_XSP16, literal(-5)))
          CFI (cfiCond266) ?RET_HIGH load(1, XDATA, add(CFA_XSP16, literal(-4)))
          CFI (cfiCond266) ?BRET_EXT load(1, XDATA, add(CFA_XSP16, literal(-3)))
          CFI (cfiCond266) DPL0 load(1, XDATA, add(CFA_XSP16, literal(-2)))
          CFI (cfiCond266) DPH0 load(1, XDATA, add(CFA_XSP16, literal(-1)))
          CFI (cfiCond266) CFA_SP SP+0
          CFI (cfiCond266) CFA_XSP16 add(XSP16, 14)
          CFI Block cfiCond267 Using cfiCommon0
          CFI (cfiCond267) Function ZDO_SrcRtgIndCB
          CFI (cfiCond267) Conditional ??CrossCallReturnLabel_102
          CFI (cfiCond267) R6 load(1, XDATA, add(CFA_XSP16, literal(-9)))
          CFI (cfiCond267) VB load(1, XDATA, add(CFA_XSP16, literal(-8)))
          CFI (cfiCond267) V0 load(1, XDATA, add(CFA_XSP16, literal(-7)))
          CFI (cfiCond267) R7 load(1, XDATA, add(CFA_XSP16, literal(-6)))
          CFI (cfiCond267) ?RET_LOW load(1, XDATA, add(CFA_XSP16, literal(-5)))
          CFI (cfiCond267) ?RET_HIGH load(1, XDATA, add(CFA_XSP16, literal(-4)))
          CFI (cfiCond267) ?BRET_EXT load(1, XDATA, add(CFA_XSP16, literal(-3)))
          CFI (cfiCond267) DPL0 load(1, XDATA, add(CFA_XSP16, literal(-2)))
          CFI (cfiCond267) DPH0 load(1, XDATA, add(CFA_XSP16, literal(-1)))
          CFI (cfiCond267) CFA_SP SP+0
          CFI (cfiCond267) CFA_XSP16 add(XSP16, 14)
          CFI Block cfiPicker268 Using cfiCommon1
          CFI (cfiPicker268) NoFunction
          CFI (cfiPicker268) Picker
        MOV     DPL,?XSP + 0
        MOV     DPH,?XSP + 1
          CFI EndBlock cfiCond265
          CFI EndBlock cfiCond266
          CFI EndBlock cfiCond267
          CFI EndBlock cfiPicker268
        REQUIRE ??Subroutine50_0
        ; // Fall through to label ??Subroutine50_0

        RSEG BANKED_CODE:CODE:NOROOT(0)
??Subroutine50_0:
          CFI Block cfiCond269 Using cfiCommon0
          CFI Function ZDApp_RestoreNetworkState
          CFI Conditional ??CrossCallReturnLabel_95
          CFI R6 load(1, XDATA, add(CFA_XSP16, literal(-9)))
          CFI VB load(1, XDATA, add(CFA_XSP16, literal(-8)))
          CFI V0 load(1, XDATA, add(CFA_XSP16, literal(-7)))
          CFI R7 load(1, XDATA, add(CFA_XSP16, literal(-6)))
          CFI ?RET_LOW load(1, XDATA, add(CFA_XSP16, literal(-5)))
          CFI ?RET_HIGH load(1, XDATA, add(CFA_XSP16, literal(-4)))
          CFI ?BRET_EXT load(1, XDATA, add(CFA_XSP16, literal(-3)))
          CFI DPL0 load(1, XDATA, add(CFA_XSP16, literal(-2)))
          CFI DPH0 load(1, XDATA, add(CFA_XSP16, literal(-1)))
          CFI CFA_SP SP+0
          CFI CFA_XSP16 add(XSP16, 9)
          CFI Block cfiCond270 Using cfiCommon0
          CFI (cfiCond270) Function ZDO_beaconNotifyIndCB
          CFI (cfiCond270) Conditional ??CrossCallReturnLabel_96
          CFI (cfiCond270) R6 load(1, XDATA, add(CFA_XSP16, literal(-18)))
          CFI (cfiCond270) VB load(1, XDATA, add(CFA_XSP16, literal(-17)))
          CFI (cfiCond270) V0 load(1, XDATA, add(CFA_XSP16, literal(-16)))
          CFI (cfiCond270) V1 load(1, XDATA, add(CFA_XSP16, literal(-15)))
          CFI (cfiCond270) V2 load(1, XDATA, add(CFA_XSP16, literal(-14)))
          CFI (cfiCond270) V3 load(1, XDATA, add(CFA_XSP16, literal(-13)))
          CFI (cfiCond270) V4 load(1, XDATA, add(CFA_XSP16, literal(-12)))
          CFI (cfiCond270) V5 load(1, XDATA, add(CFA_XSP16, literal(-11)))
          CFI (cfiCond270) V6 load(1, XDATA, add(CFA_XSP16, literal(-10)))
          CFI (cfiCond270) V7 load(1, XDATA, add(CFA_XSP16, literal(-9)))
          CFI (cfiCond270) V8 load(1, XDATA, add(CFA_XSP16, literal(-8)))
          CFI (cfiCond270) V9 load(1, XDATA, add(CFA_XSP16, literal(-7)))
          CFI (cfiCond270) R7 load(1, XDATA, add(CFA_XSP16, literal(-6)))
          CFI (cfiCond270) ?RET_LOW load(1, XDATA, add(CFA_XSP16, literal(-5)))
          CFI (cfiCond270) ?RET_HIGH load(1, XDATA, add(CFA_XSP16, literal(-4)))
          CFI (cfiCond270) ?BRET_EXT load(1, XDATA, add(CFA_XSP16, literal(-3)))
          CFI (cfiCond270) DPL0 load(1, XDATA, add(CFA_XSP16, literal(-2)))
          CFI (cfiCond270) DPH0 load(1, XDATA, add(CFA_XSP16, literal(-1)))
          CFI (cfiCond270) CFA_SP SP+0
          CFI (cfiCond270) CFA_XSP16 add(XSP16, 18)
          CFI Block cfiCond271 Using cfiCommon0
          CFI (cfiCond271) Function ZDO_JoinConfirmCB
          CFI (cfiCond271) Conditional ??CrossCallReturnLabel_97
          CFI (cfiCond271) R6 load(1, XDATA, add(CFA_XSP16, literal(-9)))
          CFI (cfiCond271) VB load(1, XDATA, add(CFA_XSP16, literal(-8)))
          CFI (cfiCond271) V0 load(1, XDATA, add(CFA_XSP16, literal(-7)))
          CFI (cfiCond271) R7 load(1, XDATA, add(CFA_XSP16, literal(-6)))
          CFI (cfiCond271) ?RET_LOW load(1, XDATA, add(CFA_XSP16, literal(-5)))
          CFI (cfiCond271) ?RET_HIGH load(1, XDATA, add(CFA_XSP16, literal(-4)))
          CFI (cfiCond271) ?BRET_EXT load(1, XDATA, add(CFA_XSP16, literal(-3)))
          CFI (cfiCond271) DPL0 load(1, XDATA, add(CFA_XSP16, literal(-2)))
          CFI (cfiCond271) DPH0 load(1, XDATA, add(CFA_XSP16, literal(-1)))
          CFI (cfiCond271) CFA_SP SP+0
          CFI (cfiCond271) CFA_XSP16 add(XSP16, 14)
          CFI Block cfiCond272 Using cfiCommon0
          CFI (cfiCond272) Function ZDO_RegisterForZdoCB
          CFI (cfiCond272) Conditional ??CrossCallReturnLabel_98
          CFI (cfiCond272) DPL0 Frame(CFA_SP, 4)
          CFI (cfiCond272) DPH0 Frame(CFA_SP, 5)
          CFI (cfiCond272) CFA_SP SP+-5
          CFI Block cfiCond273 Using cfiCommon0
          CFI (cfiCond273) Function ZDApp_InitPendingBind
          CFI (cfiCond273) Conditional ??CrossCallReturnLabel_99
          CFI (cfiCond273) R6 load(1, XDATA, add(CFA_XSP16, literal(-9)))
          CFI (cfiCond273) VB load(1, XDATA, add(CFA_XSP16, literal(-8)))
          CFI (cfiCond273) V0 load(1, XDATA, add(CFA_XSP16, literal(-7)))
          CFI (cfiCond273) R7 load(1, XDATA, add(CFA_XSP16, literal(-6)))
          CFI (cfiCond273) ?RET_LOW load(1, XDATA, add(CFA_XSP16, literal(-5)))
          CFI (cfiCond273) ?RET_HIGH load(1, XDATA, add(CFA_XSP16, literal(-4)))
          CFI (cfiCond273) ?BRET_EXT load(1, XDATA, add(CFA_XSP16, literal(-3)))
          CFI (cfiCond273) DPL0 load(1, XDATA, add(CFA_XSP16, literal(-2)))
          CFI (cfiCond273) DPH0 load(1, XDATA, add(CFA_XSP16, literal(-1)))
          CFI (cfiCond273) CFA_SP SP+0
          CFI (cfiCond273) CFA_XSP16 add(XSP16, 9)
          CFI Block cfiCond274 Using cfiCommon0
          CFI (cfiCond274) Function ZDOInitDevice
          CFI (cfiCond274) Conditional ??CrossCallReturnLabel_100
          CFI (cfiCond274) R6 load(1, XDATA, add(CFA_XSP16, literal(-12)))
          CFI (cfiCond274) VB load(1, XDATA, add(CFA_XSP16, literal(-11)))
          CFI (cfiCond274) V0 load(1, XDATA, add(CFA_XSP16, literal(-10)))
          CFI (cfiCond274) V1 load(1, XDATA, add(CFA_XSP16, literal(-9)))
          CFI (cfiCond274) V2 load(1, XDATA, add(CFA_XSP16, literal(-8)))
          CFI (cfiCond274) V3 load(1, XDATA, add(CFA_XSP16, literal(-7)))
          CFI (cfiCond274) R7 load(1, XDATA, add(CFA_XSP16, literal(-6)))
          CFI (cfiCond274) ?RET_LOW load(1, XDATA, add(CFA_XSP16, literal(-5)))
          CFI (cfiCond274) ?RET_HIGH load(1, XDATA, add(CFA_XSP16, literal(-4)))
          CFI (cfiCond274) ?BRET_EXT load(1, XDATA, add(CFA_XSP16, literal(-3)))
          CFI (cfiCond274) DPL0 load(1, XDATA, add(CFA_XSP16, literal(-2)))
          CFI (cfiCond274) DPH0 load(1, XDATA, add(CFA_XSP16, literal(-1)))
          CFI (cfiCond274) CFA_SP SP+0
          CFI (cfiCond274) CFA_XSP16 add(XSP16, 14)
          CFI Block cfiCond275 Using cfiCommon0
          CFI (cfiCond275) Function ZDO_ConcentratorIndicationCB
          CFI (cfiCond275) Conditional ??CrossCallReturnLabel_101
          CFI (cfiCond275) R6 load(1, XDATA, add(CFA_XSP16, literal(-9)))
          CFI (cfiCond275) VB load(1, XDATA, add(CFA_XSP16, literal(-8)))
          CFI (cfiCond275) V0 load(1, XDATA, add(CFA_XSP16, literal(-7)))
          CFI (cfiCond275) R7 load(1, XDATA, add(CFA_XSP16, literal(-6)))
          CFI (cfiCond275) ?RET_LOW load(1, XDATA, add(CFA_XSP16, literal(-5)))
          CFI (cfiCond275) ?RET_HIGH load(1, XDATA, add(CFA_XSP16, literal(-4)))
          CFI (cfiCond275) ?BRET_EXT load(1, XDATA, add(CFA_XSP16, literal(-3)))
          CFI (cfiCond275) DPL0 load(1, XDATA, add(CFA_XSP16, literal(-2)))
          CFI (cfiCond275) DPH0 load(1, XDATA, add(CFA_XSP16, literal(-1)))
          CFI (cfiCond275) CFA_SP SP+0
          CFI (cfiCond275) CFA_XSP16 add(XSP16, 14)
          CFI Block cfiCond276 Using cfiCommon0
          CFI (cfiCond276) Function ZDO_SrcRtgIndCB
          CFI (cfiCond276) Conditional ??CrossCallReturnLabel_102
          CFI (cfiCond276) R6 load(1, XDATA, add(CFA_XSP16, literal(-9)))
          CFI (cfiCond276) VB load(1, XDATA, add(CFA_XSP16, literal(-8)))
          CFI (cfiCond276) V0 load(1, XDATA, add(CFA_XSP16, literal(-7)))
          CFI (cfiCond276) R7 load(1, XDATA, add(CFA_XSP16, literal(-6)))
          CFI (cfiCond276) ?RET_LOW load(1, XDATA, add(CFA_XSP16, literal(-5)))
          CFI (cfiCond276) ?RET_HIGH load(1, XDATA, add(CFA_XSP16, literal(-4)))
          CFI (cfiCond276) ?BRET_EXT load(1, XDATA, add(CFA_XSP16, literal(-3)))
          CFI (cfiCond276) DPL0 load(1, XDATA, add(CFA_XSP16, literal(-2)))
          CFI (cfiCond276) DPH0 load(1, XDATA, add(CFA_XSP16, literal(-1)))
          CFI (cfiCond276) CFA_SP SP+0
          CFI (cfiCond276) CFA_XSP16 add(XSP16, 14)
          CFI Block cfiPicker277 Using cfiCommon1
          CFI (cfiPicker277) NoFunction
          CFI (cfiPicker277) Picker
        MOV     A,R2
        MOVX    @DPTR,A
        INC     DPTR
        MOV     A,R3
        MOVX    @DPTR,A
        RET
          CFI EndBlock cfiCond269
          CFI EndBlock cfiCond270
          CFI EndBlock cfiCond271
          CFI EndBlock cfiCond272
          CFI EndBlock cfiCond273
          CFI EndBlock cfiCond274
          CFI EndBlock cfiCond275
          CFI EndBlock cfiCond276
          CFI EndBlock cfiPicker277
// 3330 
// 3331 /*********************************************************************
// 3332  * @fn          ZDApp_GetEmptyPendingBindReq
// 3333  *
// 3334  * @brief       This function looks for an empty entry.
// 3335  *
// 3336  * @param       none
// 3337  *
// 3338  * @return      Pointer to entry
// 3339  */

        RSEG BANKED_CODE:CODE:NOROOT(0)
// 3340 ZDO_PendingBindReq_t *ZDApp_GetEmptyPendingBindReq( void )
ZDApp_GetEmptyPendingBindReq:
          CFI Block cfiBlock278 Using cfiCommon0
          CFI Function ZDApp_GetEmptyPendingBindReq
        CODE
// 3341 {
        PUSH    DPL
          CFI DPL0 Frame(CFA_SP, 4)
          CFI CFA_SP SP+-4
        PUSH    DPH
          CFI DPH0 Frame(CFA_SP, 5)
          CFI CFA_SP SP+-5
        ; Saved register size: 2
        ; Auto size: 0
// 3342   uint8 i;
// 3343 
// 3344   if ( ZDAppPendingBindReq != NULL )
        LCALL   ?Subroutine15 & 0xFFFF
??CrossCallReturnLabel_73:
        JZ      ??ZDApp_GetEmptyPendingBindReq_0
// 3345   {
// 3346     for ( i = 0; i < MAX_PENDING_BIND_REQ; i++ )
        MOV     R4,#0x0
// 3347     {
// 3348       if ( ZDAppPendingBindReq[i].age == 0 )
??ZDApp_GetEmptyPendingBindReq_1:
        MOV     A,R4
        MOV     B,#0x21
        MUL     AB
        MOV     R0,A
        MOV     R1,B
        MOV     DPTR,#ZDAppPendingBindReq
        MOVX    A,@DPTR
        ADD     A,R0
        MOV     R2,A
        INC     DPTR
        MOVX    A,@DPTR
        ADDC    A,R1
        MOV     R3,A
        MOV     A,R2
        ADD     A,#0x20
        MOV     DPL,A
        MOV     A,R3
        LCALL   ??Subroutine53_0 & 0xFFFF
??CrossCallReturnLabel_104:
        JZ      ??ZDApp_GetEmptyPendingBindReq_2
// 3349       {
// 3350         return ( &ZDAppPendingBindReq[i] );
// 3351       }
// 3352     }
        INC     R4
        MOV     A,R4
        CLR     C
        SUBB    A,#0x3
        JC      ??ZDApp_GetEmptyPendingBindReq_1
// 3353   }
// 3354 
// 3355   // No empty entry was found
// 3356   return NULL;
??ZDApp_GetEmptyPendingBindReq_0:
        MOV     R2,#0x0
        MOV     R3,#0x0
??ZDApp_GetEmptyPendingBindReq_2:
        LJMP    ??Subroutine40_0 & 0xFFFF
          CFI EndBlock cfiBlock278
// 3357 }
// 3358 
// 3359 /*********************************************************************
// 3360  * @fn          ZDApp_ProcessPendingBindReq
// 3361  *
// 3362  * @brief       Process pending entry based on EXT address.
// 3363  *
// 3364  * @param       extAddr - of device to look up
// 3365  *
// 3366  * @return      none
// 3367  */

        RSEG BANKED_CODE:CODE:NOROOT(0)
// 3368 void ZDApp_ProcessPendingBindReq( uint8 *extAddr )
ZDApp_ProcessPendingBindReq:
          CFI Block cfiBlock279 Using cfiCommon0
          CFI Function ZDApp_ProcessPendingBindReq
        CODE
// 3369 {
        FUNCALL ZDApp_ProcessPendingBindReq, osal_memcmp
        LOCFRAME ISTACK, 0, STACK
        LOCFRAME PSTACK, 0, STACK
        LOCFRAME XSTACK, 19, STACK
        LOCFRAME IOVERLAY, 0, STATIC
        LOCFRAME DOVERLAY, 0, STATIC
        ARGFRAME ISTACK, 0, STACK
        ARGFRAME PSTACK, 0, STACK
        ARGFRAME XSTACK, 19, STACK
        ARGFRAME IOVERLAY, 0, STATIC
        ARGFRAME DOVERLAY, 0, STATIC
        FUNCALL ZDApp_ProcessPendingBindReq, APSME_BindRequest
        LOCFRAME ISTACK, 0, STACK
        LOCFRAME PSTACK, 0, STACK
        LOCFRAME XSTACK, 17, STACK
        LOCFRAME IOVERLAY, 0, STATIC
        LOCFRAME DOVERLAY, 0, STATIC
        ARGFRAME ISTACK, 0, STACK
        ARGFRAME PSTACK, 0, STACK
        ARGFRAME XSTACK, 17, STACK
        ARGFRAME IOVERLAY, 0, STATIC
        ARGFRAME DOVERLAY, 0, STATIC
        FUNCALL ZDApp_ProcessPendingBindReq, ZDApp_NVUpdate
        LOCFRAME ISTACK, 0, STACK
        LOCFRAME PSTACK, 0, STACK
        LOCFRAME XSTACK, 16, STACK
        LOCFRAME IOVERLAY, 0, STATIC
        LOCFRAME DOVERLAY, 0, STATIC
        ARGFRAME ISTACK, 0, STACK
        ARGFRAME PSTACK, 0, STACK
        ARGFRAME XSTACK, 16, STACK
        ARGFRAME IOVERLAY, 0, STATIC
        ARGFRAME DOVERLAY, 0, STATIC
        FUNCALL ZDApp_ProcessPendingBindReq, ZDP_SendData
        LOCFRAME ISTACK, 0, STACK
        LOCFRAME PSTACK, 0, STACK
        LOCFRAME XSTACK, 21, STACK
        LOCFRAME IOVERLAY, 0, STATIC
        LOCFRAME DOVERLAY, 0, STATIC
        ARGFRAME ISTACK, 0, STACK
        ARGFRAME PSTACK, 0, STACK
        ARGFRAME XSTACK, 21, STACK
        ARGFRAME IOVERLAY, 0, STATIC
        ARGFRAME DOVERLAY, 0, STATIC
        FUNCALL ZDApp_ProcessPendingBindReq, ZDApp_SetPendingBindDefault
        LOCFRAME ISTACK, 0, STACK
        LOCFRAME PSTACK, 0, STACK
        LOCFRAME XSTACK, 16, STACK
        LOCFRAME IOVERLAY, 0, STATIC
        LOCFRAME DOVERLAY, 0, STATIC
        ARGFRAME ISTACK, 0, STACK
        ARGFRAME PSTACK, 0, STACK
        ARGFRAME XSTACK, 16, STACK
        ARGFRAME IOVERLAY, 0, STATIC
        ARGFRAME DOVERLAY, 0, STATIC
        MOV     A,#-0xf
        LCALL   ?BANKED_ENTER_XDATA
          CFI DPH0 load(1, XDATA, add(CFA_XSP16, literal(-1)))
          CFI DPL0 load(1, XDATA, add(CFA_XSP16, literal(-2)))
          CFI ?BRET_EXT load(1, XDATA, add(CFA_XSP16, literal(-3)))
          CFI ?RET_HIGH load(1, XDATA, add(CFA_XSP16, literal(-4)))
          CFI ?RET_LOW load(1, XDATA, add(CFA_XSP16, literal(-5)))
          CFI R7 load(1, XDATA, add(CFA_XSP16, literal(-6)))
          CFI V6 load(1, XDATA, add(CFA_XSP16, literal(-7)))
          CFI V5 load(1, XDATA, add(CFA_XSP16, literal(-8)))
          CFI V4 load(1, XDATA, add(CFA_XSP16, literal(-9)))
          CFI V3 load(1, XDATA, add(CFA_XSP16, literal(-10)))
          CFI V2 load(1, XDATA, add(CFA_XSP16, literal(-11)))
          CFI V1 load(1, XDATA, add(CFA_XSP16, literal(-12)))
          CFI V0 load(1, XDATA, add(CFA_XSP16, literal(-13)))
          CFI VB load(1, XDATA, add(CFA_XSP16, literal(-14)))
          CFI R6 load(1, XDATA, add(CFA_XSP16, literal(-15)))
          CFI CFA_SP SP+0
          CFI CFA_XSP16 add(XSP16, 15)
        ; Saved register size: 15
        ; Auto size: 1
        MOV     A,#-0x1
        LCALL   ?ALLOC_XSTACK8
          CFI CFA_XSP16 add(XSP16, 16)
        MOV     ?V0 + 2,R2
        MOV     ?V0 + 3,R3
// 3370   uint8 i;
// 3371 
// 3372   // Loop through all the pending entries for that Ext Address
// 3373   // to create Bind Entries and send Bind Rsp
// 3374   if ( ZDAppPendingBindReq != NULL )
        LCALL   ?Subroutine15 & 0xFFFF
??CrossCallReturnLabel_74:
        JNZ     $+5
        LJMP    ??ZDApp_ProcessPendingBindReq_0 & 0xFFFF
// 3375   {
// 3376     for ( i = 0; i < MAX_PENDING_BIND_REQ; i++ )
        MOV     ?V0 + 0,#0x0
// 3377     {
// 3378       if ( osal_memcmp( ZDAppPendingBindReq[i].bindReq.dstAddress.addr.extAddr,
// 3379                         extAddr, Z_EXTADDR_LEN ) == TRUE )
??ZDApp_ProcessPendingBindReq_1:
        MOV     A,?V0 + 0
        MOV     B,#0x21
        MUL     AB
        MOV     R6,A
        MOV     R7,B
        ; Setup parameters for call to function osal_memcmp
        MOV     ?V0 + 4,?V0 + 2
        MOV     ?V0 + 5,?V0 + 3
        MOV     ?V0 + 6,#0x0
        MOV     R0,#?V0 + 4
        LCALL   ?PUSH_XSTACK_I_THREE
          CFI CFA_XSP16 add(XSP16, 19)
        MOV     R4,#0x8
        MOV     R5,#0x0
        LCALL   ?Subroutine27 & 0xFFFF
??CrossCallReturnLabel_23:
        ADD     A,#0xb
        MOV     ?V0 + 4,A
        MOV     A,R1
        ADDC    A,#0x0
        MOV     R1,?V0 + 4
        MOV     R2,A
        MOV     R3,#0x0
        LCALL   ??osal_memcmp?relay
        MOV     A,#0x3
        LCALL   ?DEALLOC_XSTACK8
          CFI CFA_XSP16 add(XSP16, 16)
        MOV     A,R1
        XRL     A,#0x1
        JZ      $+5
        LJMP    ??ZDApp_ProcessPendingBindReq_2 & 0xFFFF
// 3380       {
// 3381         uint8 bindStat = ZDP_TABLE_FULL; // Assume table is full
        MOV     DPL,?XSP + 0
        MOV     DPH,?XSP + 1
        MOV     A,#-0x74
        MOVX    @DPTR,A
// 3382 
// 3383         // Add Bind entry
// 3384         if ( APSME_BindRequest( ZDAppPendingBindReq[i].bindReq.srcEndpoint,
// 3385                                 ZDAppPendingBindReq[i].bindReq.clusterID,
// 3386                                 &(ZDAppPendingBindReq[i].bindReq.dstAddress),
// 3387                                 ZDAppPendingBindReq[i].bindReq.dstEndpoint ) == ZSuccess )
        MOV     DPTR,#ZDAppPendingBindReq
        MOVX    A,@DPTR
        ADD     A,R6
        MOV     ?V0 + 4,A
        INC     DPTR
        MOVX    A,@DPTR
        ADDC    A,R7
        MOV     ?V0 + 5,A
        ; Setup parameters for call to function APSME_BindRequest
        MOV     A,?V0 + 4
        ADD     A,#0x14
        MOV     DPL,A
        MOV     A,?V0 + 5
        LCALL   ??Subroutine53_0 & 0xFFFF
??CrossCallReturnLabel_105:
        MOV     ?V0 + 1,A
        MOV     R0,#?V0 + 1
        LCALL   ?PUSH_XSTACK_I_ONE
          CFI CFA_XSP16 add(XSP16, 17)
        MOV     A,?V0 + 4
        ADD     A,#0xb
        MOV     R4,A
        MOV     A,?V0 + 5
        ADDC    A,#0x0
        MOV     R5,A
        MOV     DPL,?V0 + 4
        MOV     DPH,?V0 + 5
        INC     DPTR
        INC     DPTR
        INC     DPTR
        INC     DPTR
        INC     DPTR
        INC     DPTR
        INC     DPTR
        INC     DPTR
        INC     DPTR
        LCALL   ??Subroutine42_0 & 0xFFFF
??CrossCallReturnLabel_56:
        MOV     DPL,?V0 + 4
        MOV     DPH,?V0 + 5
        INC     DPTR
        INC     DPTR
        INC     DPTR
        INC     DPTR
        INC     DPTR
        INC     DPTR
        INC     DPTR
        INC     DPTR
        MOVX    A,@DPTR
        MOV     R1,A
        LCALL   ??APSME_BindRequest?relay
        MOV     A,#0x1
        LCALL   ?DEALLOC_XSTACK8
          CFI CFA_XSP16 add(XSP16, 16)
        MOV     A,R1
        JNZ     ??ZDApp_ProcessPendingBindReq_3
// 3388         {
// 3389           // valid entry
// 3390           bindStat = ZDP_SUCCESS;
        MOV     DPL,?XSP + 0
        MOV     DPH,?XSP + 1
        CLR     A
        MOVX    @DPTR,A
// 3391 
// 3392           // Notify to save info into NV
// 3393           ZDApp_NVUpdate();
        ; Setup parameters for call to function ZDApp_NVUpdate
        LCALL   ??ZDApp_NVUpdate?relay
// 3394         }
// 3395 
// 3396         // Send back a response message
// 3397         ZDP_BindRsp( ZDAppPendingBindReq[i].transSeq, &(ZDAppPendingBindReq[i].srcAddr),
// 3398                      bindStat, ZDAppPendingBindReq[i].securityUse );
??ZDApp_ProcessPendingBindReq_3:
        LCALL   ?Subroutine19 & 0xFFFF
??CrossCallReturnLabel_9:
        MOV     ?V0 + 1,A
        MOV     R0,#?V0 + 1
        LCALL   ?PUSH_XSTACK_I_ONE
          CFI CFA_XSP16 add(XSP16, 17)
        MOV     A,#0x1
        LCALL   ?XSTACK_DISP0_8
        MOV     ?V0 + 4,DPL
        MOV     ?V0 + 5,DPH
        MOV     R0,#?V0 + 4
        LCALL   ?PUSH_XSTACK_I_TWO
          CFI CFA_XSP16 add(XSP16, 19)
        MOV     ?V0 + 4,#0x21
        MOV     ?V0 + 5,#-0x80
        MOV     R0,#?V0 + 4
        LCALL   ?PUSH_XSTACK_I_TWO
          CFI CFA_XSP16 add(XSP16, 21)
        LCALL   ?Subroutine30 & 0xFFFF
??CrossCallReturnLabel_27:
        LCALL   ??ZDP_SendData?relay
        MOV     A,#0x5
        LCALL   ?DEALLOC_XSTACK8
          CFI CFA_XSP16 add(XSP16, 16)
// 3399 
// 3400         // Set the pending request entry to default values
// 3401         ZDApp_SetPendingBindDefault( &ZDAppPendingBindReq[i] );
        ; Setup parameters for call to function ZDApp_SetPendingBindDefault
        LCALL   ?Subroutine31 & 0xFFFF
// 3402       }
// 3403     }
??CrossCallReturnLabel_29:
        LCALL   ??ZDApp_SetPendingBindDefault?relay
??ZDApp_ProcessPendingBindReq_2:
        INC     ?V0 + 0
        MOV     A,?V0 + 0
        CLR     C
        SUBB    A,#0x3
        JNC     $+5
        LJMP    ??ZDApp_ProcessPendingBindReq_1 & 0xFFFF
// 3404   }
// 3405 }
??ZDApp_ProcessPendingBindReq_0:
        MOV     A,#0x1
        LJMP    ?Subroutine6 & 0xFFFF
          CFI EndBlock cfiBlock279
// 3406 
// 3407 /*********************************************************************
// 3408  * @fn          ZDApp_AgeOutPendingBindEntry
// 3409  *
// 3410  * @brief       Age out pending Bind Req entries.
// 3411  *
// 3412  * @param       none
// 3413  *
// 3414  * @return      none
// 3415  */

        RSEG BANKED_CODE:CODE:NOROOT(0)
// 3416 void ZDApp_AgeOutPendingBindEntry( void )
ZDApp_AgeOutPendingBindEntry:
          CFI Block cfiBlock280 Using cfiCommon0
          CFI Function ZDApp_AgeOutPendingBindEntry
        CODE
// 3417 {
        FUNCALL ZDApp_AgeOutPendingBindEntry, AddrMgrExtAddrSet
        LOCFRAME ISTACK, 0, STACK
        LOCFRAME PSTACK, 0, STACK
        LOCFRAME XSTACK, 26, STACK
        LOCFRAME IOVERLAY, 0, STATIC
        LOCFRAME DOVERLAY, 0, STATIC
        ARGFRAME ISTACK, 0, STACK
        ARGFRAME PSTACK, 0, STACK
        ARGFRAME XSTACK, 26, STACK
        ARGFRAME IOVERLAY, 0, STATIC
        ARGFRAME DOVERLAY, 0, STATIC
        FUNCALL ZDApp_AgeOutPendingBindEntry, AddrMgrEntryLookupExt
        LOCFRAME ISTACK, 0, STACK
        LOCFRAME PSTACK, 0, STACK
        LOCFRAME XSTACK, 26, STACK
        LOCFRAME IOVERLAY, 0, STATIC
        LOCFRAME DOVERLAY, 0, STATIC
        ARGFRAME ISTACK, 0, STACK
        ARGFRAME PSTACK, 0, STACK
        ARGFRAME XSTACK, 26, STACK
        ARGFRAME IOVERLAY, 0, STATIC
        ARGFRAME DOVERLAY, 0, STATIC
        FUNCALL ZDApp_AgeOutPendingBindEntry, AddrMgrEntryRelease
        LOCFRAME ISTACK, 0, STACK
        LOCFRAME PSTACK, 0, STACK
        LOCFRAME XSTACK, 26, STACK
        LOCFRAME IOVERLAY, 0, STATIC
        LOCFRAME DOVERLAY, 0, STATIC
        ARGFRAME ISTACK, 0, STACK
        ARGFRAME PSTACK, 0, STACK
        ARGFRAME XSTACK, 26, STACK
        ARGFRAME IOVERLAY, 0, STATIC
        ARGFRAME DOVERLAY, 0, STATIC
        FUNCALL ZDApp_AgeOutPendingBindEntry, ZDP_SendData
        LOCFRAME ISTACK, 0, STACK
        LOCFRAME PSTACK, 0, STACK
        LOCFRAME XSTACK, 31, STACK
        LOCFRAME IOVERLAY, 0, STATIC
        LOCFRAME DOVERLAY, 0, STATIC
        ARGFRAME ISTACK, 0, STACK
        ARGFRAME PSTACK, 0, STACK
        ARGFRAME XSTACK, 31, STACK
        ARGFRAME IOVERLAY, 0, STATIC
        ARGFRAME DOVERLAY, 0, STATIC
        FUNCALL ZDApp_AgeOutPendingBindEntry, ZDApp_SetPendingBindDefault
        LOCFRAME ISTACK, 0, STACK
        LOCFRAME PSTACK, 0, STACK
        LOCFRAME XSTACK, 26, STACK
        LOCFRAME IOVERLAY, 0, STATIC
        LOCFRAME DOVERLAY, 0, STATIC
        ARGFRAME ISTACK, 0, STACK
        ARGFRAME PSTACK, 0, STACK
        ARGFRAME XSTACK, 26, STACK
        ARGFRAME IOVERLAY, 0, STATIC
        ARGFRAME DOVERLAY, 0, STATIC
        FUNCALL ZDApp_AgeOutPendingBindEntry, osal_stop_timerEx
        LOCFRAME ISTACK, 0, STACK
        LOCFRAME PSTACK, 0, STACK
        LOCFRAME XSTACK, 26, STACK
        LOCFRAME IOVERLAY, 0, STATIC
        LOCFRAME DOVERLAY, 0, STATIC
        ARGFRAME ISTACK, 0, STACK
        ARGFRAME PSTACK, 0, STACK
        ARGFRAME XSTACK, 26, STACK
        ARGFRAME IOVERLAY, 0, STATIC
        ARGFRAME DOVERLAY, 0, STATIC
        FUNCALL ZDApp_AgeOutPendingBindEntry, osal_start_timerEx
        LOCFRAME ISTACK, 0, STACK
        LOCFRAME PSTACK, 0, STACK
        LOCFRAME XSTACK, 30, STACK
        LOCFRAME IOVERLAY, 0, STATIC
        LOCFRAME DOVERLAY, 0, STATIC
        ARGFRAME ISTACK, 0, STACK
        ARGFRAME PSTACK, 0, STACK
        ARGFRAME XSTACK, 30, STACK
        ARGFRAME IOVERLAY, 0, STATIC
        ARGFRAME DOVERLAY, 0, STATIC
        MOV     A,#-0xc
        LCALL   ?BANKED_ENTER_XDATA
          CFI DPH0 load(1, XDATA, add(CFA_XSP16, literal(-1)))
          CFI DPL0 load(1, XDATA, add(CFA_XSP16, literal(-2)))
          CFI ?BRET_EXT load(1, XDATA, add(CFA_XSP16, literal(-3)))
          CFI ?RET_HIGH load(1, XDATA, add(CFA_XSP16, literal(-4)))
          CFI ?RET_LOW load(1, XDATA, add(CFA_XSP16, literal(-5)))
          CFI R7 load(1, XDATA, add(CFA_XSP16, literal(-6)))
          CFI V3 load(1, XDATA, add(CFA_XSP16, literal(-7)))
          CFI V2 load(1, XDATA, add(CFA_XSP16, literal(-8)))
          CFI V1 load(1, XDATA, add(CFA_XSP16, literal(-9)))
          CFI V0 load(1, XDATA, add(CFA_XSP16, literal(-10)))
          CFI VB load(1, XDATA, add(CFA_XSP16, literal(-11)))
          CFI R6 load(1, XDATA, add(CFA_XSP16, literal(-12)))
          CFI CFA_SP SP+0
          CFI CFA_XSP16 add(XSP16, 12)
        ; Saved register size: 12
        ; Auto size: 14
        MOV     A,#-0xe
        LCALL   ?ALLOC_XSTACK8
          CFI CFA_XSP16 add(XSP16, 26)
// 3418   uint8 i;
// 3419   bool entryFound = FALSE;
        MOV     ?V0 + 1,#0x0
// 3420 
// 3421   if ( ZDAppPendingBindReq != NULL )
        LCALL   ?Subroutine15 & 0xFFFF
??CrossCallReturnLabel_75:
        JNZ     $+5
        LJMP    ??ZDApp_AgeOutPendingBindEntry_0 & 0xFFFF
// 3422   {
// 3423     for ( i = 0; i < MAX_PENDING_BIND_REQ; i++ )
        MOV     ?V0 + 0,#0x0
// 3424     {
// 3425       if ( ZDAppPendingBindReq[i].age > 1 )
??ZDApp_AgeOutPendingBindEntry_1:
        MOV     A,?V0 + 0
        MOV     B,#0x21
        MUL     AB
        MOV     R6,A
        MOV     R7,B
        LCALL   ?Subroutine27 & 0xFFFF
??CrossCallReturnLabel_24:
        ADD     A,#0x20
        MOV     DPL,A
        MOV     A,R1
        LCALL   ??Subroutine53_0 & 0xFFFF
??CrossCallReturnLabel_106:
        MOV     R2,A
        CLR     C
        SUBB    A,#0x2
        JC      ??ZDApp_AgeOutPendingBindEntry_2
// 3426       {
// 3427         ZDAppPendingBindReq[i].age--;
        MOVX    A,@DPTR
        DEC     A
        MOVX    @DPTR,A
// 3428 
// 3429         entryFound = TRUE;
        MOV     ?V0 + 1,#0x1
        LJMP    ??ZDApp_AgeOutPendingBindEntry_3 & 0xFFFF
// 3430       }
// 3431       else if ( ZDAppPendingBindReq[i].age == 1 )
??ZDApp_AgeOutPendingBindEntry_2:
        MOV     A,#0x1
        XRL     A,R2
        JZ      $+5
        LJMP    ??ZDApp_AgeOutPendingBindEntry_3 & 0xFFFF
// 3432       {
// 3433         // The record has aged out and has valid data
// 3434         AddrMgrEntry_t entry;
// 3435         uint8 bindStat = ZDP_TABLE_FULL; // Assume table is full
        MOV     DPL,?XSP + 0
        MOV     DPH,?XSP + 1
        MOV     A,#-0x74
        MOVX    @DPTR,A
// 3436 
// 3437         entry.user = ADDRMGR_USER_BINDING;
        MOV     A,#0x1
        LCALL   ?XSTACK_DISP0_8
        MOV     A,#0x4
        MOVX    @DPTR,A
// 3438 
// 3439         // Remove the entry in address manager so we do not keep entries
// 3440         // with invalid addresses
// 3441         AddrMgrExtAddrSet( entry.extAddr, ZDAppPendingBindReq[i].bindReq.dstAddress.addr.extAddr );
        ; Setup parameters for call to function AddrMgrExtAddrSet
        MOV     A,R0
        ADD     A,#0xb
        MOV     R4,A
        MOV     A,R1
        ADDC    A,#0x0
        MOV     R5,A
        MOV     A,#0x4
        LCALL   ?XSTACK_DISP0_8
        MOV     R2,DPL
        MOV     R3,DPH
        LCALL   ??AddrMgrExtAddrSet?relay
// 3442 
// 3443         if ( AddrMgrEntryLookupExt( &entry ) == TRUE )
        ; Setup parameters for call to function AddrMgrEntryLookupExt
        MOV     A,#0x1
        LCALL   ?XSTACK_DISP0_8
        MOV     R2,DPL
        MOV     R3,DPH
        LCALL   ??AddrMgrEntryLookupExt?relay
        MOV     A,R1
        XRL     A,#0x1
        JNZ     ??ZDApp_AgeOutPendingBindEntry_4
// 3444         {
// 3445           if ( entry.nwkAddr == INVALID_NODE_ADDR )
        MOV     A,#0x2
        LCALL   ?XSTACK_DISP0_8
        MOVX    A,@DPTR
        XRL     A,#0xfe
        JNZ     ??ZDApp_AgeOutPendingBindEntry_5
        INC     DPTR
        MOVX    A,@DPTR
        CPL     A
??ZDApp_AgeOutPendingBindEntry_5:
        JNZ     ??ZDApp_AgeOutPendingBindEntry_4
// 3446           {
// 3447             // Release the entry that contains an invalid NWK address
// 3448             AddrMgrEntryRelease( &entry );
        ; Setup parameters for call to function AddrMgrEntryRelease
        MOV     A,#0x1
        LCALL   ?XSTACK_DISP0_8
        MOV     R2,DPL
        MOV     R3,DPH
        LCALL   ??AddrMgrEntryRelease?relay
// 3449           }
// 3450         }
// 3451 
// 3452         // Send the Bind Response with failure status
// 3453         ZDP_BindRsp( ZDAppPendingBindReq[i].transSeq,
// 3454                      &(ZDAppPendingBindReq[i].srcAddr),
// 3455                      bindStat, ZDAppPendingBindReq[i].securityUse );
??ZDApp_AgeOutPendingBindEntry_4:
        LCALL   ?Subroutine19 & 0xFFFF
??CrossCallReturnLabel_10:
        MOV     ?V0 + 2,A
        MOV     R0,#?V0 + 2
        LCALL   ?PUSH_XSTACK_I_ONE
          CFI CFA_XSP16 add(XSP16, 27)
        MOV     A,#0x1
        LCALL   ?XSTACK_DISP0_8
        MOV     ?V0 + 2,DPL
        MOV     ?V0 + 3,DPH
        MOV     R0,#?V0 + 2
        LCALL   ?PUSH_XSTACK_I_TWO
          CFI CFA_XSP16 add(XSP16, 29)
        MOV     ?V0 + 2,#0x21
        MOV     ?V0 + 3,#-0x80
        MOV     R0,#?V0 + 2
        LCALL   ?PUSH_XSTACK_I_TWO
          CFI CFA_XSP16 add(XSP16, 31)
        LCALL   ?Subroutine30 & 0xFFFF
??CrossCallReturnLabel_28:
        LCALL   ??ZDP_SendData?relay
        MOV     A,#0x5
        LCALL   ?DEALLOC_XSTACK8
          CFI CFA_XSP16 add(XSP16, 26)
// 3456 
// 3457         // Clear the record and set to default values
// 3458         ZDApp_SetPendingBindDefault( &ZDAppPendingBindReq[i] );
        ; Setup parameters for call to function ZDApp_SetPendingBindDefault
        LCALL   ?Subroutine31 & 0xFFFF
// 3459       }
// 3460     }
??CrossCallReturnLabel_30:
        LCALL   ??ZDApp_SetPendingBindDefault?relay
??ZDApp_AgeOutPendingBindEntry_3:
        INC     ?V0 + 0
        MOV     A,?V0 + 0
        CLR     C
        SUBB    A,#0x3
        JNC     $+5
        LJMP    ??ZDApp_AgeOutPendingBindEntry_1 & 0xFFFF
// 3461   }
// 3462 
// 3463   if ( entryFound == FALSE )
        MOV     A,?V0 + 1
        MOV     C,0xE0 /* A   */.0
        JC      ??ZDApp_AgeOutPendingBindEntry_6
// 3464   {
// 3465     osal_stop_timerEx( ZDAppTaskID, ZDO_PENDING_BIND_REQ_EVT );
??ZDApp_AgeOutPendingBindEntry_0:
        ; Setup parameters for call to function osal_stop_timerEx
        MOV     R2,#0x0
        MOV     R3,#0x10
        MOV     DPTR,#ZDAppTaskID
        MOVX    A,@DPTR
        MOV     R1,A
        LCALL   ??osal_stop_timerEx?relay
        SJMP    ??ZDApp_AgeOutPendingBindEntry_7
// 3466   }
// 3467   else
// 3468   {
// 3469     osal_start_timerEx( ZDAppTaskID, ZDO_PENDING_BIND_REQ_EVT,
// 3470                         AGE_OUT_PEND_BIND_REQ_DELAY );
??ZDApp_AgeOutPendingBindEntry_6:
        ; Setup parameters for call to function osal_start_timerEx
        MOV     DPTR,#__Constant_3e8
        LCALL   ?PUSH_XSTACK8_X_FOUR
          CFI CFA_XSP16 add(XSP16, 30)
        MOV     R2,#0x0
        MOV     R3,#0x10
        MOV     DPTR,#ZDAppTaskID
        MOVX    A,@DPTR
        MOV     R1,A
        LCALL   ??osal_start_timerEx?relay
        MOV     A,#0x4
        LCALL   ?DEALLOC_XSTACK8
          CFI CFA_XSP16 add(XSP16, 26)
// 3471   }
// 3472 }
??ZDApp_AgeOutPendingBindEntry_7:
        MOV     A,#0xe
          CFI EndBlock cfiBlock280
        REQUIRE ?Subroutine3
        ; // Fall through to label ?Subroutine3

        RSEG BANKED_CODE:CODE:NOROOT(0)
?Subroutine3:
          CFI Block cfiBlock281 Using cfiCommon0
          CFI NoFunction
          CFI CFA_SP SP+0
          CFI CFA_XSP16 add(XSP16, 14)
          CFI VB load(1, XDATA, add(CFA_XSP16, literal(-11)))
          CFI DPL0 load(1, XDATA, add(CFA_XSP16, literal(-2)))
          CFI DPH0 load(1, XDATA, add(CFA_XSP16, literal(-1)))
          CFI R6 load(1, XDATA, add(CFA_XSP16, literal(-12)))
          CFI R7 load(1, XDATA, add(CFA_XSP16, literal(-6)))
          CFI V0 load(1, XDATA, add(CFA_XSP16, literal(-10)))
          CFI V1 load(1, XDATA, add(CFA_XSP16, literal(-9)))
          CFI V2 load(1, XDATA, add(CFA_XSP16, literal(-8)))
          CFI V3 load(1, XDATA, add(CFA_XSP16, literal(-7)))
          CFI ?BRET_EXT load(1, XDATA, add(CFA_XSP16, literal(-3)))
          CFI ?RET_HIGH load(1, XDATA, add(CFA_XSP16, literal(-4)))
          CFI ?RET_LOW load(1, XDATA, add(CFA_XSP16, literal(-5)))
          CFI Invalid
        LCALL   ?DEALLOC_XSTACK8
          CFI EndBlock cfiBlock281
        REQUIRE ??Subroutine51_0
        ; // Fall through to label ??Subroutine51_0

        RSEG BANKED_CODE:CODE:NOROOT(0)
??Subroutine51_0:
          CFI Block cfiBlock282 Using cfiCommon0
          CFI NoFunction
          CFI CFA_SP SP+0
          CFI CFA_XSP16 add(XSP16, 12)
          CFI VB load(1, XDATA, add(CFA_XSP16, literal(-11)))
          CFI DPL0 load(1, XDATA, add(CFA_XSP16, literal(-2)))
          CFI DPH0 load(1, XDATA, add(CFA_XSP16, literal(-1)))
          CFI R6 load(1, XDATA, add(CFA_XSP16, literal(-12)))
          CFI R7 load(1, XDATA, add(CFA_XSP16, literal(-6)))
          CFI V0 load(1, XDATA, add(CFA_XSP16, literal(-10)))
          CFI V1 load(1, XDATA, add(CFA_XSP16, literal(-9)))
          CFI V2 load(1, XDATA, add(CFA_XSP16, literal(-8)))
          CFI V3 load(1, XDATA, add(CFA_XSP16, literal(-7)))
          CFI ?BRET_EXT load(1, XDATA, add(CFA_XSP16, literal(-3)))
          CFI ?RET_HIGH load(1, XDATA, add(CFA_XSP16, literal(-4)))
          CFI ?RET_LOW load(1, XDATA, add(CFA_XSP16, literal(-5)))
        MOV     R7,#0x4
        LJMP    ?BANKED_LEAVE_XDATA
          CFI EndBlock cfiBlock282

        RSEG BANKED_CODE:CODE:NOROOT(0)
?Subroutine31:
          CFI Block cfiCond283 Using cfiCommon0
          CFI Function ZDApp_ProcessPendingBindReq
          CFI Conditional ??CrossCallReturnLabel_29
          CFI R6 load(1, XDATA, add(CFA_XSP16, literal(-15)))
          CFI VB load(1, XDATA, add(CFA_XSP16, literal(-14)))
          CFI V0 load(1, XDATA, add(CFA_XSP16, literal(-13)))
          CFI V1 load(1, XDATA, add(CFA_XSP16, literal(-12)))
          CFI V2 load(1, XDATA, add(CFA_XSP16, literal(-11)))
          CFI V3 load(1, XDATA, add(CFA_XSP16, literal(-10)))
          CFI V4 load(1, XDATA, add(CFA_XSP16, literal(-9)))
          CFI V5 load(1, XDATA, add(CFA_XSP16, literal(-8)))
          CFI V6 load(1, XDATA, add(CFA_XSP16, literal(-7)))
          CFI R7 load(1, XDATA, add(CFA_XSP16, literal(-6)))
          CFI ?RET_LOW load(1, XDATA, add(CFA_XSP16, literal(-5)))
          CFI ?RET_HIGH load(1, XDATA, add(CFA_XSP16, literal(-4)))
          CFI ?BRET_EXT load(1, XDATA, add(CFA_XSP16, literal(-3)))
          CFI DPL0 load(1, XDATA, add(CFA_XSP16, literal(-2)))
          CFI DPH0 load(1, XDATA, add(CFA_XSP16, literal(-1)))
          CFI CFA_SP SP+0
          CFI CFA_XSP16 add(XSP16, 16)
          CFI Block cfiCond284 Using cfiCommon0
          CFI (cfiCond284) Function ZDApp_AgeOutPendingBindEntry
          CFI (cfiCond284) Conditional ??CrossCallReturnLabel_30
          CFI (cfiCond284) R6 load(1, XDATA, add(CFA_XSP16, literal(-12)))
          CFI (cfiCond284) VB load(1, XDATA, add(CFA_XSP16, literal(-11)))
          CFI (cfiCond284) V0 load(1, XDATA, add(CFA_XSP16, literal(-10)))
          CFI (cfiCond284) V1 load(1, XDATA, add(CFA_XSP16, literal(-9)))
          CFI (cfiCond284) V2 load(1, XDATA, add(CFA_XSP16, literal(-8)))
          CFI (cfiCond284) V3 load(1, XDATA, add(CFA_XSP16, literal(-7)))
          CFI (cfiCond284) R7 load(1, XDATA, add(CFA_XSP16, literal(-6)))
          CFI (cfiCond284) ?RET_LOW load(1, XDATA, add(CFA_XSP16, literal(-5)))
          CFI (cfiCond284) ?RET_HIGH load(1, XDATA, add(CFA_XSP16, literal(-4)))
          CFI (cfiCond284) ?BRET_EXT load(1, XDATA, add(CFA_XSP16, literal(-3)))
          CFI (cfiCond284) DPL0 load(1, XDATA, add(CFA_XSP16, literal(-2)))
          CFI (cfiCond284) DPH0 load(1, XDATA, add(CFA_XSP16, literal(-1)))
          CFI (cfiCond284) CFA_SP SP+0
          CFI (cfiCond284) CFA_XSP16 add(XSP16, 26)
          CFI Block cfiCond285 Using cfiCommon0
          CFI (cfiCond285) Function ZDApp_ProcessPendingBindReq
          CFI (cfiCond285) Conditional ??CrossCallReturnLabel_31, ??CrossCallReturnLabel_9
          CFI (cfiCond285) R6 load(1, XDATA, add(CFA_XSP16, literal(-15)))
          CFI (cfiCond285) VB load(1, XDATA, add(CFA_XSP16, literal(-14)))
          CFI (cfiCond285) V0 load(1, XDATA, add(CFA_XSP16, literal(-13)))
          CFI (cfiCond285) V1 load(1, XDATA, add(CFA_XSP16, literal(-12)))
          CFI (cfiCond285) V2 load(1, XDATA, add(CFA_XSP16, literal(-11)))
          CFI (cfiCond285) V3 load(1, XDATA, add(CFA_XSP16, literal(-10)))
          CFI (cfiCond285) V4 load(1, XDATA, add(CFA_XSP16, literal(-9)))
          CFI (cfiCond285) V5 load(1, XDATA, add(CFA_XSP16, literal(-8)))
          CFI (cfiCond285) V6 load(1, XDATA, add(CFA_XSP16, literal(-7)))
          CFI (cfiCond285) R7 load(1, XDATA, add(CFA_XSP16, literal(-6)))
          CFI (cfiCond285) ?RET_LOW load(1, XDATA, add(CFA_XSP16, literal(-5)))
          CFI (cfiCond285) ?RET_HIGH load(1, XDATA, add(CFA_XSP16, literal(-4)))
          CFI (cfiCond285) ?BRET_EXT load(1, XDATA, add(CFA_XSP16, literal(-3)))
          CFI (cfiCond285) DPL0 load(1, XDATA, add(CFA_XSP16, literal(-2)))
          CFI (cfiCond285) DPH0 load(1, XDATA, add(CFA_XSP16, literal(-1)))
          CFI (cfiCond285) CFA_SP SP+0
          CFI (cfiCond285) CFA_XSP16 add(XSP16, 16)
          CFI Block cfiCond286 Using cfiCommon0
          CFI (cfiCond286) Function ZDApp_AgeOutPendingBindEntry
          CFI (cfiCond286) Conditional ??CrossCallReturnLabel_31, ??CrossCallReturnLabel_10
          CFI (cfiCond286) R6 load(1, XDATA, add(CFA_XSP16, literal(-12)))
          CFI (cfiCond286) VB load(1, XDATA, add(CFA_XSP16, literal(-11)))
          CFI (cfiCond286) V0 load(1, XDATA, add(CFA_XSP16, literal(-10)))
          CFI (cfiCond286) V1 load(1, XDATA, add(CFA_XSP16, literal(-9)))
          CFI (cfiCond286) V2 load(1, XDATA, add(CFA_XSP16, literal(-8)))
          CFI (cfiCond286) V3 load(1, XDATA, add(CFA_XSP16, literal(-7)))
          CFI (cfiCond286) R7 load(1, XDATA, add(CFA_XSP16, literal(-6)))
          CFI (cfiCond286) ?RET_LOW load(1, XDATA, add(CFA_XSP16, literal(-5)))
          CFI (cfiCond286) ?RET_HIGH load(1, XDATA, add(CFA_XSP16, literal(-4)))
          CFI (cfiCond286) ?BRET_EXT load(1, XDATA, add(CFA_XSP16, literal(-3)))
          CFI (cfiCond286) DPL0 load(1, XDATA, add(CFA_XSP16, literal(-2)))
          CFI (cfiCond286) DPH0 load(1, XDATA, add(CFA_XSP16, literal(-1)))
          CFI (cfiCond286) CFA_SP SP+0
          CFI (cfiCond286) CFA_XSP16 add(XSP16, 26)
          CFI Block cfiPicker287 Using cfiCommon1
          CFI (cfiPicker287) NoFunction
          CFI (cfiPicker287) Picker
        MOV     DPTR,#ZDAppPendingBindReq
        MOVX    A,@DPTR
        ADD     A,R6
        MOV     R2,A
        INC     DPTR
        MOVX    A,@DPTR
        ADDC    A,R7
        MOV     R3,A
        RET
          CFI EndBlock cfiCond283
          CFI EndBlock cfiCond284
          CFI EndBlock cfiCond285
          CFI EndBlock cfiCond286
          CFI EndBlock cfiPicker287

        RSEG BANKED_CODE:CODE:NOROOT(0)
?Subroutine30:
          CFI Block cfiCond288 Using cfiCommon0
          CFI Function ZDApp_ProcessPendingBindReq
          CFI Conditional ??CrossCallReturnLabel_27
          CFI R6 load(1, XDATA, add(CFA_XSP16, literal(-15)))
          CFI VB load(1, XDATA, add(CFA_XSP16, literal(-14)))
          CFI V0 load(1, XDATA, add(CFA_XSP16, literal(-13)))
          CFI V1 load(1, XDATA, add(CFA_XSP16, literal(-12)))
          CFI V2 load(1, XDATA, add(CFA_XSP16, literal(-11)))
          CFI V3 load(1, XDATA, add(CFA_XSP16, literal(-10)))
          CFI V4 load(1, XDATA, add(CFA_XSP16, literal(-9)))
          CFI V5 load(1, XDATA, add(CFA_XSP16, literal(-8)))
          CFI V6 load(1, XDATA, add(CFA_XSP16, literal(-7)))
          CFI R7 load(1, XDATA, add(CFA_XSP16, literal(-6)))
          CFI ?RET_LOW load(1, XDATA, add(CFA_XSP16, literal(-5)))
          CFI ?RET_HIGH load(1, XDATA, add(CFA_XSP16, literal(-4)))
          CFI ?BRET_EXT load(1, XDATA, add(CFA_XSP16, literal(-3)))
          CFI DPL0 load(1, XDATA, add(CFA_XSP16, literal(-2)))
          CFI DPH0 load(1, XDATA, add(CFA_XSP16, literal(-1)))
          CFI CFA_SP SP+0
          CFI CFA_XSP16 add(XSP16, 21)
          CFI Block cfiCond289 Using cfiCommon0
          CFI (cfiCond289) Function ZDApp_AgeOutPendingBindEntry
          CFI (cfiCond289) Conditional ??CrossCallReturnLabel_28
          CFI (cfiCond289) R6 load(1, XDATA, add(CFA_XSP16, literal(-12)))
          CFI (cfiCond289) VB load(1, XDATA, add(CFA_XSP16, literal(-11)))
          CFI (cfiCond289) V0 load(1, XDATA, add(CFA_XSP16, literal(-10)))
          CFI (cfiCond289) V1 load(1, XDATA, add(CFA_XSP16, literal(-9)))
          CFI (cfiCond289) V2 load(1, XDATA, add(CFA_XSP16, literal(-8)))
          CFI (cfiCond289) V3 load(1, XDATA, add(CFA_XSP16, literal(-7)))
          CFI (cfiCond289) R7 load(1, XDATA, add(CFA_XSP16, literal(-6)))
          CFI (cfiCond289) ?RET_LOW load(1, XDATA, add(CFA_XSP16, literal(-5)))
          CFI (cfiCond289) ?RET_HIGH load(1, XDATA, add(CFA_XSP16, literal(-4)))
          CFI (cfiCond289) ?BRET_EXT load(1, XDATA, add(CFA_XSP16, literal(-3)))
          CFI (cfiCond289) DPL0 load(1, XDATA, add(CFA_XSP16, literal(-2)))
          CFI (cfiCond289) DPH0 load(1, XDATA, add(CFA_XSP16, literal(-1)))
          CFI (cfiCond289) CFA_SP SP+0
          CFI (cfiCond289) CFA_XSP16 add(XSP16, 31)
          CFI Block cfiPicker290 Using cfiCommon1
          CFI (cfiPicker290) NoFunction
          CFI (cfiPicker290) Picker
        MOV     R1,#0x1
        MOV     A,R2
        ADD     A,#0x15
        MOV     R4,A
        MOV     A,R3
        ADDC    A,#0x0
        MOV     R5,A
        MOV     A,R2
        ADD     A,#0x1f
        MOV     R2,A
        MOV     A,R3
        ADDC    A,#0x0
        MOV     R3,A
        RET
          CFI EndBlock cfiCond288
          CFI EndBlock cfiCond289
          CFI EndBlock cfiPicker290

        RSEG BANKED_CODE:CODE:NOROOT(0)
?Subroutine28:
          CFI Block cfiCond291 Using cfiCommon0
          CFI Function ZDO_LeaveCnf
          CFI Conditional ??CrossCallReturnLabel_109
          CFI R6 load(1, XDATA, add(CFA_XSP16, literal(-10)))
          CFI VB load(1, XDATA, add(CFA_XSP16, literal(-9)))
          CFI V0 load(1, XDATA, add(CFA_XSP16, literal(-8)))
          CFI V1 load(1, XDATA, add(CFA_XSP16, literal(-7)))
          CFI R7 load(1, XDATA, add(CFA_XSP16, literal(-6)))
          CFI ?RET_LOW load(1, XDATA, add(CFA_XSP16, literal(-5)))
          CFI ?RET_HIGH load(1, XDATA, add(CFA_XSP16, literal(-4)))
          CFI ?BRET_EXT load(1, XDATA, add(CFA_XSP16, literal(-3)))
          CFI DPL0 load(1, XDATA, add(CFA_XSP16, literal(-2)))
          CFI DPH0 load(1, XDATA, add(CFA_XSP16, literal(-1)))
          CFI CFA_SP SP+0
          CFI CFA_XSP16 add(XSP16, 10)
          CFI Block cfiCond292 Using cfiCommon0
          CFI (cfiCond292) Function ZDApp_InMsgCB
          CFI (cfiCond292) Conditional ??CrossCallReturnLabel_110
          CFI (cfiCond292) R6 load(1, XDATA, add(CFA_XSP16, literal(-10)))
          CFI (cfiCond292) VB load(1, XDATA, add(CFA_XSP16, literal(-9)))
          CFI (cfiCond292) V0 load(1, XDATA, add(CFA_XSP16, literal(-8)))
          CFI (cfiCond292) V1 load(1, XDATA, add(CFA_XSP16, literal(-7)))
          CFI (cfiCond292) R7 load(1, XDATA, add(CFA_XSP16, literal(-6)))
          CFI (cfiCond292) ?RET_LOW load(1, XDATA, add(CFA_XSP16, literal(-5)))
          CFI (cfiCond292) ?RET_HIGH load(1, XDATA, add(CFA_XSP16, literal(-4)))
          CFI (cfiCond292) ?BRET_EXT load(1, XDATA, add(CFA_XSP16, literal(-3)))
          CFI (cfiCond292) DPL0 load(1, XDATA, add(CFA_XSP16, literal(-2)))
          CFI (cfiCond292) DPH0 load(1, XDATA, add(CFA_XSP16, literal(-1)))
          CFI (cfiCond292) CFA_SP SP+0
          CFI (cfiCond292) CFA_XSP16 add(XSP16, 10)
          CFI Block cfiPicker293 Using cfiCommon1
          CFI (cfiPicker293) NoFunction
          CFI (cfiPicker293) Picker
        MOV     A,R6
        ADD     A,#0xb
          CFI EndBlock cfiCond291
          CFI EndBlock cfiCond292
          CFI EndBlock cfiPicker293
        REQUIRE ??Subroutine52_0
        ; // Fall through to label ??Subroutine52_0

        RSEG BANKED_CODE:CODE:NOROOT(0)
??Subroutine52_0:
          CFI Block cfiCond294 Using cfiCommon0
          CFI Function ZDApp_InMsgCB
          CFI Conditional ??CrossCallReturnLabel_107
          CFI R6 load(1, XDATA, add(CFA_XSP16, literal(-10)))
          CFI VB load(1, XDATA, add(CFA_XSP16, literal(-9)))
          CFI V0 load(1, XDATA, add(CFA_XSP16, literal(-8)))
          CFI V1 load(1, XDATA, add(CFA_XSP16, literal(-7)))
          CFI R7 load(1, XDATA, add(CFA_XSP16, literal(-6)))
          CFI ?RET_LOW load(1, XDATA, add(CFA_XSP16, literal(-5)))
          CFI ?RET_HIGH load(1, XDATA, add(CFA_XSP16, literal(-4)))
          CFI ?BRET_EXT load(1, XDATA, add(CFA_XSP16, literal(-3)))
          CFI DPL0 load(1, XDATA, add(CFA_XSP16, literal(-2)))
          CFI DPH0 load(1, XDATA, add(CFA_XSP16, literal(-1)))
          CFI CFA_SP SP+0
          CFI CFA_XSP16 add(XSP16, 14)
          CFI Block cfiCond295 Using cfiCommon0
          CFI (cfiCond295) Function ZDApp_InMsgCB
          CFI (cfiCond295) Conditional ??CrossCallReturnLabel_108
          CFI (cfiCond295) R6 load(1, XDATA, add(CFA_XSP16, literal(-10)))
          CFI (cfiCond295) VB load(1, XDATA, add(CFA_XSP16, literal(-9)))
          CFI (cfiCond295) V0 load(1, XDATA, add(CFA_XSP16, literal(-8)))
          CFI (cfiCond295) V1 load(1, XDATA, add(CFA_XSP16, literal(-7)))
          CFI (cfiCond295) R7 load(1, XDATA, add(CFA_XSP16, literal(-6)))
          CFI (cfiCond295) ?RET_LOW load(1, XDATA, add(CFA_XSP16, literal(-5)))
          CFI (cfiCond295) ?RET_HIGH load(1, XDATA, add(CFA_XSP16, literal(-4)))
          CFI (cfiCond295) ?BRET_EXT load(1, XDATA, add(CFA_XSP16, literal(-3)))
          CFI (cfiCond295) DPL0 load(1, XDATA, add(CFA_XSP16, literal(-2)))
          CFI (cfiCond295) DPH0 load(1, XDATA, add(CFA_XSP16, literal(-1)))
          CFI (cfiCond295) CFA_SP SP+0
          CFI (cfiCond295) CFA_XSP16 add(XSP16, 14)
          CFI Block cfiCond296 Using cfiCommon0
          CFI (cfiCond296) Function ZDO_LeaveCnf
          CFI (cfiCond296) Conditional ??CrossCallReturnLabel_109
          CFI (cfiCond296) R6 load(1, XDATA, add(CFA_XSP16, literal(-10)))
          CFI (cfiCond296) VB load(1, XDATA, add(CFA_XSP16, literal(-9)))
          CFI (cfiCond296) V0 load(1, XDATA, add(CFA_XSP16, literal(-8)))
          CFI (cfiCond296) V1 load(1, XDATA, add(CFA_XSP16, literal(-7)))
          CFI (cfiCond296) R7 load(1, XDATA, add(CFA_XSP16, literal(-6)))
          CFI (cfiCond296) ?RET_LOW load(1, XDATA, add(CFA_XSP16, literal(-5)))
          CFI (cfiCond296) ?RET_HIGH load(1, XDATA, add(CFA_XSP16, literal(-4)))
          CFI (cfiCond296) ?BRET_EXT load(1, XDATA, add(CFA_XSP16, literal(-3)))
          CFI (cfiCond296) DPL0 load(1, XDATA, add(CFA_XSP16, literal(-2)))
          CFI (cfiCond296) DPH0 load(1, XDATA, add(CFA_XSP16, literal(-1)))
          CFI (cfiCond296) CFA_SP SP+0
          CFI (cfiCond296) CFA_XSP16 add(XSP16, 10)
          CFI Block cfiCond297 Using cfiCommon0
          CFI (cfiCond297) Function ZDApp_InMsgCB
          CFI (cfiCond297) Conditional ??CrossCallReturnLabel_110
          CFI (cfiCond297) R6 load(1, XDATA, add(CFA_XSP16, literal(-10)))
          CFI (cfiCond297) VB load(1, XDATA, add(CFA_XSP16, literal(-9)))
          CFI (cfiCond297) V0 load(1, XDATA, add(CFA_XSP16, literal(-8)))
          CFI (cfiCond297) V1 load(1, XDATA, add(CFA_XSP16, literal(-7)))
          CFI (cfiCond297) R7 load(1, XDATA, add(CFA_XSP16, literal(-6)))
          CFI (cfiCond297) ?RET_LOW load(1, XDATA, add(CFA_XSP16, literal(-5)))
          CFI (cfiCond297) ?RET_HIGH load(1, XDATA, add(CFA_XSP16, literal(-4)))
          CFI (cfiCond297) ?BRET_EXT load(1, XDATA, add(CFA_XSP16, literal(-3)))
          CFI (cfiCond297) DPL0 load(1, XDATA, add(CFA_XSP16, literal(-2)))
          CFI (cfiCond297) DPH0 load(1, XDATA, add(CFA_XSP16, literal(-1)))
          CFI (cfiCond297) CFA_SP SP+0
          CFI (cfiCond297) CFA_XSP16 add(XSP16, 10)
          CFI Block cfiPicker298 Using cfiCommon1
          CFI (cfiPicker298) NoFunction
          CFI (cfiPicker298) Picker
        MOV     DPL,A
        MOV     A,R7
          CFI EndBlock cfiCond294
          CFI EndBlock cfiCond295
          CFI EndBlock cfiCond296
          CFI EndBlock cfiCond297
          CFI EndBlock cfiPicker298
        REQUIRE ??Subroutine53_0
        ; // Fall through to label ??Subroutine53_0

        RSEG BANKED_CODE:CODE:NOROOT(0)
??Subroutine53_0:
          CFI Block cfiCond299 Using cfiCommon0
          CFI Function ZDO_beaconNotifyIndCB
          CFI Conditional ??CrossCallReturnLabel_103
          CFI R6 load(1, XDATA, add(CFA_XSP16, literal(-18)))
          CFI VB load(1, XDATA, add(CFA_XSP16, literal(-17)))
          CFI V0 load(1, XDATA, add(CFA_XSP16, literal(-16)))
          CFI V1 load(1, XDATA, add(CFA_XSP16, literal(-15)))
          CFI V2 load(1, XDATA, add(CFA_XSP16, literal(-14)))
          CFI V3 load(1, XDATA, add(CFA_XSP16, literal(-13)))
          CFI V4 load(1, XDATA, add(CFA_XSP16, literal(-12)))
          CFI V5 load(1, XDATA, add(CFA_XSP16, literal(-11)))
          CFI V6 load(1, XDATA, add(CFA_XSP16, literal(-10)))
          CFI V7 load(1, XDATA, add(CFA_XSP16, literal(-9)))
          CFI V8 load(1, XDATA, add(CFA_XSP16, literal(-8)))
          CFI V9 load(1, XDATA, add(CFA_XSP16, literal(-7)))
          CFI R7 load(1, XDATA, add(CFA_XSP16, literal(-6)))
          CFI ?RET_LOW load(1, XDATA, add(CFA_XSP16, literal(-5)))
          CFI ?RET_HIGH load(1, XDATA, add(CFA_XSP16, literal(-4)))
          CFI ?BRET_EXT load(1, XDATA, add(CFA_XSP16, literal(-3)))
          CFI DPL0 load(1, XDATA, add(CFA_XSP16, literal(-2)))
          CFI DPH0 load(1, XDATA, add(CFA_XSP16, literal(-1)))
          CFI CFA_SP SP+0
          CFI CFA_XSP16 add(XSP16, 18)
          CFI Block cfiCond300 Using cfiCommon0
          CFI (cfiCond300) Function ZDApp_GetEmptyPendingBindReq
          CFI (cfiCond300) Conditional ??CrossCallReturnLabel_104
          CFI (cfiCond300) DPL0 Frame(CFA_SP, 4)
          CFI (cfiCond300) DPH0 Frame(CFA_SP, 5)
          CFI (cfiCond300) CFA_SP SP+-5
          CFI Block cfiCond301 Using cfiCommon0
          CFI (cfiCond301) Function ZDApp_ProcessPendingBindReq
          CFI (cfiCond301) Conditional ??CrossCallReturnLabel_105
          CFI (cfiCond301) R6 load(1, XDATA, add(CFA_XSP16, literal(-15)))
          CFI (cfiCond301) VB load(1, XDATA, add(CFA_XSP16, literal(-14)))
          CFI (cfiCond301) V0 load(1, XDATA, add(CFA_XSP16, literal(-13)))
          CFI (cfiCond301) V1 load(1, XDATA, add(CFA_XSP16, literal(-12)))
          CFI (cfiCond301) V2 load(1, XDATA, add(CFA_XSP16, literal(-11)))
          CFI (cfiCond301) V3 load(1, XDATA, add(CFA_XSP16, literal(-10)))
          CFI (cfiCond301) V4 load(1, XDATA, add(CFA_XSP16, literal(-9)))
          CFI (cfiCond301) V5 load(1, XDATA, add(CFA_XSP16, literal(-8)))
          CFI (cfiCond301) V6 load(1, XDATA, add(CFA_XSP16, literal(-7)))
          CFI (cfiCond301) R7 load(1, XDATA, add(CFA_XSP16, literal(-6)))
          CFI (cfiCond301) ?RET_LOW load(1, XDATA, add(CFA_XSP16, literal(-5)))
          CFI (cfiCond301) ?RET_HIGH load(1, XDATA, add(CFA_XSP16, literal(-4)))
          CFI (cfiCond301) ?BRET_EXT load(1, XDATA, add(CFA_XSP16, literal(-3)))
          CFI (cfiCond301) DPL0 load(1, XDATA, add(CFA_XSP16, literal(-2)))
          CFI (cfiCond301) DPH0 load(1, XDATA, add(CFA_XSP16, literal(-1)))
          CFI (cfiCond301) CFA_SP SP+0
          CFI (cfiCond301) CFA_XSP16 add(XSP16, 16)
          CFI Block cfiCond302 Using cfiCommon0
          CFI (cfiCond302) Function ZDApp_AgeOutPendingBindEntry
          CFI (cfiCond302) Conditional ??CrossCallReturnLabel_106
          CFI (cfiCond302) R6 load(1, XDATA, add(CFA_XSP16, literal(-12)))
          CFI (cfiCond302) VB load(1, XDATA, add(CFA_XSP16, literal(-11)))
          CFI (cfiCond302) V0 load(1, XDATA, add(CFA_XSP16, literal(-10)))
          CFI (cfiCond302) V1 load(1, XDATA, add(CFA_XSP16, literal(-9)))
          CFI (cfiCond302) V2 load(1, XDATA, add(CFA_XSP16, literal(-8)))
          CFI (cfiCond302) V3 load(1, XDATA, add(CFA_XSP16, literal(-7)))
          CFI (cfiCond302) R7 load(1, XDATA, add(CFA_XSP16, literal(-6)))
          CFI (cfiCond302) ?RET_LOW load(1, XDATA, add(CFA_XSP16, literal(-5)))
          CFI (cfiCond302) ?RET_HIGH load(1, XDATA, add(CFA_XSP16, literal(-4)))
          CFI (cfiCond302) ?BRET_EXT load(1, XDATA, add(CFA_XSP16, literal(-3)))
          CFI (cfiCond302) DPL0 load(1, XDATA, add(CFA_XSP16, literal(-2)))
          CFI (cfiCond302) DPH0 load(1, XDATA, add(CFA_XSP16, literal(-1)))
          CFI (cfiCond302) CFA_SP SP+0
          CFI (cfiCond302) CFA_XSP16 add(XSP16, 26)
          CFI Block cfiCond303 Using cfiCommon0
          CFI (cfiCond303) Function ZDApp_InMsgCB
          CFI (cfiCond303) Conditional ??CrossCallReturnLabel_107
          CFI (cfiCond303) R6 load(1, XDATA, add(CFA_XSP16, literal(-10)))
          CFI (cfiCond303) VB load(1, XDATA, add(CFA_XSP16, literal(-9)))
          CFI (cfiCond303) V0 load(1, XDATA, add(CFA_XSP16, literal(-8)))
          CFI (cfiCond303) V1 load(1, XDATA, add(CFA_XSP16, literal(-7)))
          CFI (cfiCond303) R7 load(1, XDATA, add(CFA_XSP16, literal(-6)))
          CFI (cfiCond303) ?RET_LOW load(1, XDATA, add(CFA_XSP16, literal(-5)))
          CFI (cfiCond303) ?RET_HIGH load(1, XDATA, add(CFA_XSP16, literal(-4)))
          CFI (cfiCond303) ?BRET_EXT load(1, XDATA, add(CFA_XSP16, literal(-3)))
          CFI (cfiCond303) DPL0 load(1, XDATA, add(CFA_XSP16, literal(-2)))
          CFI (cfiCond303) DPH0 load(1, XDATA, add(CFA_XSP16, literal(-1)))
          CFI (cfiCond303) CFA_SP SP+0
          CFI (cfiCond303) CFA_XSP16 add(XSP16, 14)
          CFI Block cfiCond304 Using cfiCommon0
          CFI (cfiCond304) Function ZDApp_InMsgCB
          CFI (cfiCond304) Conditional ??CrossCallReturnLabel_108
          CFI (cfiCond304) R6 load(1, XDATA, add(CFA_XSP16, literal(-10)))
          CFI (cfiCond304) VB load(1, XDATA, add(CFA_XSP16, literal(-9)))
          CFI (cfiCond304) V0 load(1, XDATA, add(CFA_XSP16, literal(-8)))
          CFI (cfiCond304) V1 load(1, XDATA, add(CFA_XSP16, literal(-7)))
          CFI (cfiCond304) R7 load(1, XDATA, add(CFA_XSP16, literal(-6)))
          CFI (cfiCond304) ?RET_LOW load(1, XDATA, add(CFA_XSP16, literal(-5)))
          CFI (cfiCond304) ?RET_HIGH load(1, XDATA, add(CFA_XSP16, literal(-4)))
          CFI (cfiCond304) ?BRET_EXT load(1, XDATA, add(CFA_XSP16, literal(-3)))
          CFI (cfiCond304) DPL0 load(1, XDATA, add(CFA_XSP16, literal(-2)))
          CFI (cfiCond304) DPH0 load(1, XDATA, add(CFA_XSP16, literal(-1)))
          CFI (cfiCond304) CFA_SP SP+0
          CFI (cfiCond304) CFA_XSP16 add(XSP16, 14)
          CFI Block cfiCond305 Using cfiCommon0
          CFI (cfiCond305) Function ZDO_LeaveCnf
          CFI (cfiCond305) Conditional ??CrossCallReturnLabel_109
          CFI (cfiCond305) R6 load(1, XDATA, add(CFA_XSP16, literal(-10)))
          CFI (cfiCond305) VB load(1, XDATA, add(CFA_XSP16, literal(-9)))
          CFI (cfiCond305) V0 load(1, XDATA, add(CFA_XSP16, literal(-8)))
          CFI (cfiCond305) V1 load(1, XDATA, add(CFA_XSP16, literal(-7)))
          CFI (cfiCond305) R7 load(1, XDATA, add(CFA_XSP16, literal(-6)))
          CFI (cfiCond305) ?RET_LOW load(1, XDATA, add(CFA_XSP16, literal(-5)))
          CFI (cfiCond305) ?RET_HIGH load(1, XDATA, add(CFA_XSP16, literal(-4)))
          CFI (cfiCond305) ?BRET_EXT load(1, XDATA, add(CFA_XSP16, literal(-3)))
          CFI (cfiCond305) DPL0 load(1, XDATA, add(CFA_XSP16, literal(-2)))
          CFI (cfiCond305) DPH0 load(1, XDATA, add(CFA_XSP16, literal(-1)))
          CFI (cfiCond305) CFA_SP SP+0
          CFI (cfiCond305) CFA_XSP16 add(XSP16, 10)
          CFI Block cfiCond306 Using cfiCommon0
          CFI (cfiCond306) Function ZDApp_InMsgCB
          CFI (cfiCond306) Conditional ??CrossCallReturnLabel_110
          CFI (cfiCond306) R6 load(1, XDATA, add(CFA_XSP16, literal(-10)))
          CFI (cfiCond306) VB load(1, XDATA, add(CFA_XSP16, literal(-9)))
          CFI (cfiCond306) V0 load(1, XDATA, add(CFA_XSP16, literal(-8)))
          CFI (cfiCond306) V1 load(1, XDATA, add(CFA_XSP16, literal(-7)))
          CFI (cfiCond306) R7 load(1, XDATA, add(CFA_XSP16, literal(-6)))
          CFI (cfiCond306) ?RET_LOW load(1, XDATA, add(CFA_XSP16, literal(-5)))
          CFI (cfiCond306) ?RET_HIGH load(1, XDATA, add(CFA_XSP16, literal(-4)))
          CFI (cfiCond306) ?BRET_EXT load(1, XDATA, add(CFA_XSP16, literal(-3)))
          CFI (cfiCond306) DPL0 load(1, XDATA, add(CFA_XSP16, literal(-2)))
          CFI (cfiCond306) DPH0 load(1, XDATA, add(CFA_XSP16, literal(-1)))
          CFI (cfiCond306) CFA_SP SP+0
          CFI (cfiCond306) CFA_XSP16 add(XSP16, 10)
          CFI Block cfiPicker307 Using cfiCommon1
          CFI (cfiPicker307) NoFunction
          CFI (cfiPicker307) Picker
        LCALL   ??Subroutine46_0 & 0xFFFF
??CrossCallReturnLabel_117:
        MOVX    A,@DPTR
        RET
          CFI EndBlock cfiCond299
          CFI EndBlock cfiCond300
          CFI EndBlock cfiCond301
          CFI EndBlock cfiCond302
          CFI EndBlock cfiCond303
          CFI EndBlock cfiCond304
          CFI EndBlock cfiCond305
          CFI EndBlock cfiCond306
          CFI EndBlock cfiPicker307

        RSEG BANKED_CODE:CODE:NOROOT(0)
?Subroutine27:
          CFI Block cfiCond308 Using cfiCommon0
          CFI Function ZDApp_ProcessPendingBindReq
          CFI Conditional ??CrossCallReturnLabel_23
          CFI R6 load(1, XDATA, add(CFA_XSP16, literal(-15)))
          CFI VB load(1, XDATA, add(CFA_XSP16, literal(-14)))
          CFI V0 load(1, XDATA, add(CFA_XSP16, literal(-13)))
          CFI V1 load(1, XDATA, add(CFA_XSP16, literal(-12)))
          CFI V2 load(1, XDATA, add(CFA_XSP16, literal(-11)))
          CFI V3 load(1, XDATA, add(CFA_XSP16, literal(-10)))
          CFI V4 load(1, XDATA, add(CFA_XSP16, literal(-9)))
          CFI V5 load(1, XDATA, add(CFA_XSP16, literal(-8)))
          CFI V6 load(1, XDATA, add(CFA_XSP16, literal(-7)))
          CFI R7 load(1, XDATA, add(CFA_XSP16, literal(-6)))
          CFI ?RET_LOW load(1, XDATA, add(CFA_XSP16, literal(-5)))
          CFI ?RET_HIGH load(1, XDATA, add(CFA_XSP16, literal(-4)))
          CFI ?BRET_EXT load(1, XDATA, add(CFA_XSP16, literal(-3)))
          CFI DPL0 load(1, XDATA, add(CFA_XSP16, literal(-2)))
          CFI DPH0 load(1, XDATA, add(CFA_XSP16, literal(-1)))
          CFI CFA_SP SP+0
          CFI CFA_XSP16 add(XSP16, 19)
          CFI Block cfiCond309 Using cfiCommon0
          CFI (cfiCond309) Function ZDApp_AgeOutPendingBindEntry
          CFI (cfiCond309) Conditional ??CrossCallReturnLabel_24
          CFI (cfiCond309) R6 load(1, XDATA, add(CFA_XSP16, literal(-12)))
          CFI (cfiCond309) VB load(1, XDATA, add(CFA_XSP16, literal(-11)))
          CFI (cfiCond309) V0 load(1, XDATA, add(CFA_XSP16, literal(-10)))
          CFI (cfiCond309) V1 load(1, XDATA, add(CFA_XSP16, literal(-9)))
          CFI (cfiCond309) V2 load(1, XDATA, add(CFA_XSP16, literal(-8)))
          CFI (cfiCond309) V3 load(1, XDATA, add(CFA_XSP16, literal(-7)))
          CFI (cfiCond309) R7 load(1, XDATA, add(CFA_XSP16, literal(-6)))
          CFI (cfiCond309) ?RET_LOW load(1, XDATA, add(CFA_XSP16, literal(-5)))
          CFI (cfiCond309) ?RET_HIGH load(1, XDATA, add(CFA_XSP16, literal(-4)))
          CFI (cfiCond309) ?BRET_EXT load(1, XDATA, add(CFA_XSP16, literal(-3)))
          CFI (cfiCond309) DPL0 load(1, XDATA, add(CFA_XSP16, literal(-2)))
          CFI (cfiCond309) DPH0 load(1, XDATA, add(CFA_XSP16, literal(-1)))
          CFI (cfiCond309) CFA_SP SP+0
          CFI (cfiCond309) CFA_XSP16 add(XSP16, 26)
          CFI Block cfiPicker310 Using cfiCommon1
          CFI (cfiPicker310) NoFunction
          CFI (cfiPicker310) Picker
        MOV     DPTR,#ZDAppPendingBindReq
        MOVX    A,@DPTR
        ADD     A,R6
        MOV     R0,A
        INC     DPTR
        MOVX    A,@DPTR
        ADDC    A,R7
        MOV     R1,A
        MOV     A,R0
        RET
          CFI EndBlock cfiCond308
          CFI EndBlock cfiCond309
          CFI EndBlock cfiPicker310

        RSEG BANKED_CODE:CODE:NOROOT(0)
?Subroutine19:
          CFI Block cfiCond311 Using cfiCommon0
          CFI Function ZDApp_ProcessPendingBindReq
          CFI Conditional ??CrossCallReturnLabel_9
          CFI R6 load(1, XDATA, add(CFA_XSP16, literal(-15)))
          CFI VB load(1, XDATA, add(CFA_XSP16, literal(-14)))
          CFI V0 load(1, XDATA, add(CFA_XSP16, literal(-13)))
          CFI V1 load(1, XDATA, add(CFA_XSP16, literal(-12)))
          CFI V2 load(1, XDATA, add(CFA_XSP16, literal(-11)))
          CFI V3 load(1, XDATA, add(CFA_XSP16, literal(-10)))
          CFI V4 load(1, XDATA, add(CFA_XSP16, literal(-9)))
          CFI V5 load(1, XDATA, add(CFA_XSP16, literal(-8)))
          CFI V6 load(1, XDATA, add(CFA_XSP16, literal(-7)))
          CFI R7 load(1, XDATA, add(CFA_XSP16, literal(-6)))
          CFI ?RET_LOW load(1, XDATA, add(CFA_XSP16, literal(-5)))
          CFI ?RET_HIGH load(1, XDATA, add(CFA_XSP16, literal(-4)))
          CFI ?BRET_EXT load(1, XDATA, add(CFA_XSP16, literal(-3)))
          CFI DPL0 load(1, XDATA, add(CFA_XSP16, literal(-2)))
          CFI DPH0 load(1, XDATA, add(CFA_XSP16, literal(-1)))
          CFI CFA_SP SP+0
          CFI CFA_XSP16 add(XSP16, 16)
          CFI Block cfiCond312 Using cfiCommon0
          CFI (cfiCond312) Function ZDApp_AgeOutPendingBindEntry
          CFI (cfiCond312) Conditional ??CrossCallReturnLabel_10
          CFI (cfiCond312) R6 load(1, XDATA, add(CFA_XSP16, literal(-12)))
          CFI (cfiCond312) VB load(1, XDATA, add(CFA_XSP16, literal(-11)))
          CFI (cfiCond312) V0 load(1, XDATA, add(CFA_XSP16, literal(-10)))
          CFI (cfiCond312) V1 load(1, XDATA, add(CFA_XSP16, literal(-9)))
          CFI (cfiCond312) V2 load(1, XDATA, add(CFA_XSP16, literal(-8)))
          CFI (cfiCond312) V3 load(1, XDATA, add(CFA_XSP16, literal(-7)))
          CFI (cfiCond312) R7 load(1, XDATA, add(CFA_XSP16, literal(-6)))
          CFI (cfiCond312) ?RET_LOW load(1, XDATA, add(CFA_XSP16, literal(-5)))
          CFI (cfiCond312) ?RET_HIGH load(1, XDATA, add(CFA_XSP16, literal(-4)))
          CFI (cfiCond312) ?BRET_EXT load(1, XDATA, add(CFA_XSP16, literal(-3)))
          CFI (cfiCond312) DPL0 load(1, XDATA, add(CFA_XSP16, literal(-2)))
          CFI (cfiCond312) DPH0 load(1, XDATA, add(CFA_XSP16, literal(-1)))
          CFI (cfiCond312) CFA_SP SP+0
          CFI (cfiCond312) CFA_XSP16 add(XSP16, 26)
          CFI Block cfiPicker313 Using cfiCommon1
          CFI (cfiPicker313) NoFunction
          CFI (cfiPicker313) Picker
        LCALL   ?Subroutine31 & 0xFFFF
??CrossCallReturnLabel_31:
        ; Setup parameters for call to function ZDP_SendData
        ; Setup parameters for call to function ZDP_SendData
        MOV     A,R2
        ADD     A,#0x1e
        MOV     DPL,A
        MOV     A,R3
        LCALL   ??Subroutine46_0 & 0xFFFF
??CrossCallReturnLabel_112:
        MOVX    A,@DPTR
        RET
          CFI EndBlock cfiCond311
          CFI EndBlock cfiCond312
          CFI EndBlock cfiPicker313

        RSEG XDATA_ID:CODE:NOROOT(0)
`?<Initializer for zdoDiscCounter>`:
        DATA8
        DB 1

        RSEG XDATA_ID:CODE:NOROOT(0)
`?<Initializer for continueJoining>`:
        DATA8
        DB 1

        RSEG XDATA_ID:CODE:NOROOT(0)
`?<Initializer for ZDApp_epDesc>`:
        DATA8
        DB 0
        DATA16
        DW ZDAppTaskID
        DW 0H
        DATA8
        DB 0

        RSEG XDATA_ID:CODE:NOROOT(0)
`?<Initializer for ZDApp_SavedPollRate>`:
        DATA16
        DW 1000

        RSEG XDATA_ROM_C:CONST:REORDER:NOROOT(0)
        DATA32
__Constant_64:
        DD 100

        RSEG XDATA_ROM_C:CONST:REORDER:NOROOT(0)
        DATA32
__Constant_4e2:
        DD 1250

        RSEG XDATA_ROM_C:CONST:REORDER:NOROOT(0)
        DATA32
__Constant_258:
        DD 600

        RSEG XDATA_ROM_C:CONST:REORDER:NOROOT(0)
        DATA32
__Constant_2bc:
        DD 700

        RSEG XDATA_ROM_C:CONST:REORDER:NOROOT(0)
        DATA32
__Constant_3e8:
        DD 1000

        RSEG BANK_RELAYS:CODE:REORDER:NOROOT(0)
??ZDApp_Init?relay:
        CODE
        LCALL   ?BDISPATCH
        DATA24
        DC24    ZDApp_Init

        RSEG BANK_RELAYS:CODE:REORDER:NOROOT(0)
??ZDApp_SecInit?relay:
        CODE
        LCALL   ?BDISPATCH
        DATA24
        DC24    ZDApp_SecInit

        RSEG BANK_RELAYS:CODE:REORDER:NOROOT(0)
??ZDApp_event_loop?relay:
        CODE
        LCALL   ?BDISPATCH
        DATA24
        DC24    ZDApp_event_loop

        RSEG BANK_RELAYS:CODE:REORDER:NOROOT(0)
??ZDApp_ProcessSecEvent?relay:
        CODE
        LCALL   ?BDISPATCH
        DATA24
        DC24    ZDApp_ProcessSecEvent

        RSEG BANK_RELAYS:CODE:REORDER:NOROOT(0)
??ZDOInitDevice?relay:
        CODE
        LCALL   ?BDISPATCH
        DATA24
        DC24    ZDOInitDevice

        RSEG BANK_RELAYS:CODE:REORDER:NOROOT(0)
??ZDApp_ReadNetworkRestoreState?relay:
        CODE
        LCALL   ?BDISPATCH
        DATA24
        DC24    ZDApp_ReadNetworkRestoreState

        RSEG BANK_RELAYS:CODE:REORDER:NOROOT(0)
??ZDAppDetermineDeviceType?relay:
        CODE
        LCALL   ?BDISPATCH
        DATA24
        DC24    ZDAppDetermineDeviceType

        RSEG BANK_RELAYS:CODE:REORDER:NOROOT(0)
??ZDApp_NetworkStartEvt?relay:
        CODE
        LCALL   ?BDISPATCH
        DATA24
        DC24    ZDApp_NetworkStartEvt

        RSEG BANK_RELAYS:CODE:REORDER:NOROOT(0)
??ZDApp_DeviceAuthEvt?relay:
        CODE
        LCALL   ?BDISPATCH
        DATA24
        DC24    ZDApp_DeviceAuthEvt

        RSEG BANK_RELAYS:CODE:REORDER:NOROOT(0)
??ZDApp_SaveNetworkStateEvt?relay:
        CODE
        LCALL   ?BDISPATCH
        DATA24
        DC24    ZDApp_SaveNetworkStateEvt

        RSEG BANK_RELAYS:CODE:REORDER:NOROOT(0)
??ZDApp_RestoreNetworkState?relay:
        CODE
        LCALL   ?BDISPATCH
        DATA24
        DC24    ZDApp_RestoreNetworkState

        RSEG BANK_RELAYS:CODE:REORDER:NOROOT(0)
??ZDApp_InitUserDesc?relay:
        CODE
        LCALL   ?BDISPATCH
        DATA24
        DC24    ZDApp_InitUserDesc

        RSEG BANK_RELAYS:CODE:REORDER:NOROOT(0)
??ZDAppCheckForHoldKey?relay:
        CODE
        LCALL   ?BDISPATCH
        DATA24
        DC24    ZDAppCheckForHoldKey

        RSEG BANK_RELAYS:CODE:REORDER:NOROOT(0)
??ZDApp_ProcessOSALMsg?relay:
        CODE
        LCALL   ?BDISPATCH
        DATA24
        DC24    ZDApp_ProcessOSALMsg

        RSEG BANK_RELAYS:CODE:REORDER:NOROOT(0)
??ZDApp_ProcessMsgCBs?relay:
        CODE
        LCALL   ?BDISPATCH
        DATA24
        DC24    ZDApp_ProcessMsgCBs

        RSEG BANK_RELAYS:CODE:REORDER:NOROOT(0)
??ZDApp_RegisterCBs?relay:
        CODE
        LCALL   ?BDISPATCH
        DATA24
        DC24    ZDApp_RegisterCBs

        RSEG BANK_RELAYS:CODE:REORDER:NOROOT(0)
??ZDApp_ProcessSecMsg?relay:
        CODE
        LCALL   ?BDISPATCH
        DATA24
        DC24    ZDApp_ProcessSecMsg

        RSEG BANK_RELAYS:CODE:REORDER:NOROOT(0)
??ZDApp_ProcessNetworkJoin?relay:
        CODE
        LCALL   ?BDISPATCH
        DATA24
        DC24    ZDApp_ProcessNetworkJoin

        RSEG BANK_RELAYS:CODE:REORDER:NOROOT(0)
??ZDApp_SaveNwkKey?relay:
        CODE
        LCALL   ?BDISPATCH
        DATA24
        DC24    ZDApp_SaveNwkKey

        RSEG BANK_RELAYS:CODE:REORDER:NOROOT(0)
??ZDApp_ResetNwkKey?relay:
        CODE
        LCALL   ?BDISPATCH
        DATA24
        DC24    ZDApp_ResetNwkKey

        RSEG BANK_RELAYS:CODE:REORDER:NOROOT(0)
??ZDApp_RestoreNwkKey?relay:
        CODE
        LCALL   ?BDISPATCH
        DATA24
        DC24    ZDApp_RestoreNwkKey

        RSEG BANK_RELAYS:CODE:REORDER:NOROOT(0)
??ZDApp_ResetTimerStart?relay:
        CODE
        LCALL   ?BDISPATCH
        DATA24
        DC24    ZDApp_ResetTimerStart

        RSEG BANK_RELAYS:CODE:REORDER:NOROOT(0)
??ZDApp_ResetTimerCancel?relay:
        CODE
        LCALL   ?BDISPATCH
        DATA24
        DC24    ZDApp_ResetTimerCancel

        RSEG BANK_RELAYS:CODE:REORDER:NOROOT(0)
??ZDApp_LeaveCtrlInit?relay:
        CODE
        LCALL   ?BDISPATCH
        DATA24
        DC24    ZDApp_LeaveCtrlInit

        RSEG BANK_RELAYS:CODE:REORDER:NOROOT(0)
??ZDApp_LeaveCtrlSet?relay:
        CODE
        LCALL   ?BDISPATCH
        DATA24
        DC24    ZDApp_LeaveCtrlSet

        RSEG BANK_RELAYS:CODE:REORDER:NOROOT(0)
??ZDApp_LeaveCtrlReset?relay:
        CODE
        LCALL   ?BDISPATCH
        DATA24
        DC24    ZDApp_LeaveCtrlReset

        RSEG BANK_RELAYS:CODE:REORDER:NOROOT(0)
??ZDApp_LeaveCtrlBypass?relay:
        CODE
        LCALL   ?BDISPATCH
        DATA24
        DC24    ZDApp_LeaveCtrlBypass

        RSEG BANK_RELAYS:CODE:REORDER:NOROOT(0)
??ZDApp_LeaveCtrlStartup?relay:
        CODE
        LCALL   ?BDISPATCH
        DATA24
        DC24    ZDApp_LeaveCtrlStartup

        RSEG BANK_RELAYS:CODE:REORDER:NOROOT(0)
??ZDApp_LeaveReset?relay:
        CODE
        LCALL   ?BDISPATCH
        DATA24
        DC24    ZDApp_LeaveReset

        RSEG BANK_RELAYS:CODE:REORDER:NOROOT(0)
??ZDApp_LeaveUpdate?relay:
        CODE
        LCALL   ?BDISPATCH
        DATA24
        DC24    ZDApp_LeaveUpdate

        RSEG BANK_RELAYS:CODE:REORDER:NOROOT(0)
??ZDApp_NetworkDiscoveryReq?relay:
        CODE
        LCALL   ?BDISPATCH
        DATA24
        DC24    ZDApp_NetworkDiscoveryReq

        RSEG BANK_RELAYS:CODE:REORDER:NOROOT(0)
??ZDApp_JoinReq?relay:
        CODE
        LCALL   ?BDISPATCH
        DATA24
        DC24    ZDApp_JoinReq

        RSEG BANK_RELAYS:CODE:REORDER:NOROOT(0)
??ZDApp_DeviceConfigured?relay:
        CODE
        LCALL   ?BDISPATCH
        DATA24
        DC24    ZDApp_DeviceConfigured

        RSEG BANK_RELAYS:CODE:REORDER:NOROOT(0)
??ZDApp_SendEventMsg?relay:
        CODE
        LCALL   ?BDISPATCH
        DATA24
        DC24    ZDApp_SendEventMsg

        RSEG BANK_RELAYS:CODE:REORDER:NOROOT(0)
??ZDApp_SendMsg?relay:
        CODE
        LCALL   ?BDISPATCH
        DATA24
        DC24    ZDApp_SendMsg

        RSEG BANK_RELAYS:CODE:REORDER:NOROOT(0)
??ZDO_NetworkDiscoveryConfirmCB?relay:
        CODE
        LCALL   ?BDISPATCH
        DATA24
        DC24    ZDO_NetworkDiscoveryConfirmCB

        RSEG BANK_RELAYS:CODE:REORDER:NOROOT(0)
??ZDApp_NwkDescListProcessing?relay:
        CODE
        LCALL   ?BDISPATCH
        DATA24
        DC24    ZDApp_NwkDescListProcessing

        RSEG BANK_RELAYS:CODE:REORDER:NOROOT(0)
??ZDO_NetworkFormationConfirmCB?relay:
        CODE
        LCALL   ?BDISPATCH
        DATA24
        DC24    ZDO_NetworkFormationConfirmCB

        RSEG BANK_RELAYS:CODE:REORDER:NOROOT(0)
??ZDO_beaconNotifyIndCB?relay:
        CODE
        LCALL   ?BDISPATCH
        DATA24
        DC24    ZDO_beaconNotifyIndCB

        RSEG BANK_RELAYS:CODE:REORDER:NOROOT(0)
??ZDO_StartRouterConfirmCB?relay:
        CODE
        LCALL   ?BDISPATCH
        DATA24
        DC24    ZDO_StartRouterConfirmCB

        RSEG BANK_RELAYS:CODE:REORDER:NOROOT(0)
??ZDO_JoinConfirmCB?relay:
        CODE
        LCALL   ?BDISPATCH
        DATA24
        DC24    ZDO_JoinConfirmCB

        RSEG BANK_RELAYS:CODE:REORDER:NOROOT(0)
??ZDO_AddrChangeIndicationCB?relay:
        CODE
        LCALL   ?BDISPATCH
        DATA24
        DC24    ZDO_AddrChangeIndicationCB

        RSEG BANK_RELAYS:CODE:REORDER:NOROOT(0)
??ZDO_JoinIndicationCB?relay:
        CODE
        LCALL   ?BDISPATCH
        DATA24
        DC24    ZDO_JoinIndicationCB

        RSEG BANK_RELAYS:CODE:REORDER:NOROOT(0)
??ZDO_ConcentratorIndicationCB?relay:
        CODE
        LCALL   ?BDISPATCH
        DATA24
        DC24    ZDO_ConcentratorIndicationCB

        RSEG BANK_RELAYS:CODE:REORDER:NOROOT(0)
??ZDO_LeaveCnf?relay:
        CODE
        LCALL   ?BDISPATCH
        DATA24
        DC24    ZDO_LeaveCnf

        RSEG BANK_RELAYS:CODE:REORDER:NOROOT(0)
??ZDO_LeaveInd?relay:
        CODE
        LCALL   ?BDISPATCH
        DATA24
        DC24    ZDO_LeaveInd

        RSEG BANK_RELAYS:CODE:REORDER:NOROOT(0)
??ZDO_SyncIndicationCB?relay:
        CODE
        LCALL   ?BDISPATCH
        DATA24
        DC24    ZDO_SyncIndicationCB

        RSEG BANK_RELAYS:CODE:REORDER:NOROOT(0)
??ZDO_ManytoOneFailureIndicationCB?relay:
        CODE
        LCALL   ?BDISPATCH
        DATA24
        DC24    ZDO_ManytoOneFailureIndicationCB

        RSEG BANK_RELAYS:CODE:REORDER:NOROOT(0)
??ZDO_PollConfirmCB?relay:
        CODE
        LCALL   ?BDISPATCH
        DATA24
        DC24    ZDO_PollConfirmCB

        RSEG BANK_RELAYS:CODE:REORDER:NOROOT(0)
??ZDO_NetworkStatusCB?relay:
        CODE
        LCALL   ?BDISPATCH
        DATA24
        DC24    ZDO_NetworkStatusCB

        RSEG BANK_RELAYS:CODE:REORDER:NOROOT(0)
??AddrMgrWriteNVRequest?relay:
        CODE
        LCALL   ?BDISPATCH
        DATA24
        DC24    AddrMgrWriteNVRequest

        RSEG BANK_RELAYS:CODE:REORDER:NOROOT(0)
??ZDO_UpdateDeviceIndication?relay:
        CODE
        LCALL   ?BDISPATCH
        DATA24
        DC24    ZDO_UpdateDeviceIndication

        RSEG BANK_RELAYS:CODE:REORDER:NOROOT(0)
??ZDApp_InMsgCB?relay:
        CODE
        LCALL   ?BDISPATCH
        DATA24
        DC24    ZDApp_InMsgCB

        RSEG BANK_RELAYS:CODE:REORDER:NOROOT(0)
??ZDApp_ChangeMatchDescRespPermission?relay:
        CODE
        LCALL   ?BDISPATCH
        DATA24
        DC24    ZDApp_ChangeMatchDescRespPermission

        RSEG BANK_RELAYS:CODE:REORDER:NOROOT(0)
??ZDApp_NetworkInit?relay:
        CODE
        LCALL   ?BDISPATCH
        DATA24
        DC24    ZDApp_NetworkInit

        RSEG BANK_RELAYS:CODE:REORDER:NOROOT(0)
??ZDApp_NwkStateUpdateCB?relay:
        CODE
        LCALL   ?BDISPATCH
        DATA24
        DC24    ZDApp_NwkStateUpdateCB

        RSEG BANK_RELAYS:CODE:REORDER:NOROOT(0)
??ZDApp_NodeProfileSync?relay:
        CODE
        LCALL   ?BDISPATCH
        DATA24
        DC24    ZDApp_NodeProfileSync

        RSEG BANK_RELAYS:CODE:REORDER:NOROOT(0)
??ZDApp_StartJoiningCycle?relay:
        CODE
        LCALL   ?BDISPATCH
        DATA24
        DC24    ZDApp_StartJoiningCycle

        RSEG BANK_RELAYS:CODE:REORDER:NOROOT(0)
??ZDApp_StopJoiningCycle?relay:
        CODE
        LCALL   ?BDISPATCH
        DATA24
        DC24    ZDApp_StopJoiningCycle

        RSEG BANK_RELAYS:CODE:REORDER:NOROOT(0)
??ZDApp_AnnounceNewAddress?relay:
        CODE
        LCALL   ?BDISPATCH
        DATA24
        DC24    ZDApp_AnnounceNewAddress

        RSEG BANK_RELAYS:CODE:REORDER:NOROOT(0)
??ZDApp_NVUpdate?relay:
        CODE
        LCALL   ?BDISPATCH
        DATA24
        DC24    ZDApp_NVUpdate

        RSEG BANK_RELAYS:CODE:REORDER:NOROOT(0)
??ZDApp_CoordStartPANIDConflictCB?relay:
        CODE
        LCALL   ?BDISPATCH
        DATA24
        DC24    ZDApp_CoordStartPANIDConflictCB

        RSEG BANK_RELAYS:CODE:REORDER:NOROOT(0)
??ZDO_SrcRtgIndCB?relay:
        CODE
        LCALL   ?BDISPATCH
        DATA24
        DC24    ZDO_SrcRtgIndCB

        RSEG BANK_RELAYS:CODE:REORDER:NOROOT(0)
??ZDApp_InitZdoCBFunc?relay:
        CODE
        LCALL   ?BDISPATCH
        DATA24
        DC24    ZDApp_InitZdoCBFunc

        RSEG BANK_RELAYS:CODE:REORDER:NOROOT(0)
??ZDO_RegisterForZdoCB?relay:
        CODE
        LCALL   ?BDISPATCH
        DATA24
        DC24    ZDO_RegisterForZdoCB

        RSEG BANK_RELAYS:CODE:REORDER:NOROOT(0)
??ZDO_DeregisterForZdoCB?relay:
        CODE
        LCALL   ?BDISPATCH
        DATA24
        DC24    ZDO_DeregisterForZdoCB

        RSEG BANK_RELAYS:CODE:REORDER:NOROOT(0)
??ZDApp_SetPendingBindDefault?relay:
        CODE
        LCALL   ?BDISPATCH
        DATA24
        DC24    ZDApp_SetPendingBindDefault

        RSEG BANK_RELAYS:CODE:REORDER:NOROOT(0)
??ZDApp_InitPendingBind?relay:
        CODE
        LCALL   ?BDISPATCH
        DATA24
        DC24    ZDApp_InitPendingBind

        RSEG BANK_RELAYS:CODE:REORDER:NOROOT(0)
??ZDApp_GetEmptyPendingBindReq?relay:
        CODE
        LCALL   ?BDISPATCH
        DATA24
        DC24    ZDApp_GetEmptyPendingBindReq

        RSEG BANK_RELAYS:CODE:REORDER:NOROOT(0)
??ZDApp_ProcessPendingBindReq?relay:
        CODE
        LCALL   ?BDISPATCH
        DATA24
        DC24    ZDApp_ProcessPendingBindReq

        RSEG BANK_RELAYS:CODE:REORDER:NOROOT(0)
??ZDApp_AgeOutPendingBindEntry?relay:
        CODE
        LCALL   ?BDISPATCH
        DATA24
        DC24    ZDApp_AgeOutPendingBindEntry

        END
// 3473 #endif
// 3474 #endif
// 3475 
// 3476 /*********************************************************************
// 3477 *********************************************************************/
// 
// 7 544 bytes in segment BANKED_CODE
//   426 bytes in segment BANK_RELAYS
//    10 bytes in segment XDATA_I
//    10 bytes in segment XDATA_ID
//    20 bytes in segment XDATA_ROM_C
//    59 bytes in segment XDATA_Z
// 
// 7 980 bytes of CODE  memory
//     0 bytes of CONST memory (+ 20 bytes shared)
//    69 bytes of XDATA memory
//
//Errors: none
//Warnings: none
