///////////////////////////////////////////////////////////////////////////////
//                                                                            /
// IAR C/C++ Compiler V8.20.2.41139 for 8051            07/May/2014  17:02:24 /
// Copyright 2004-2013 IAR Systems AB.                                        /
//                                                                            /
//    Core               =  plain                                             /
//    Code model         =  banked                                            /
//    Data model         =  large                                             /
//    Calling convention =  xdata reentrant                                   /
//    Constant location  =  data_rom                                          /
//    Dptr setup         =  1,16                                              /
//                                                                            /
//    Source file        =  D:\Texas Instruments\Z-Stack Lighting             /
//                          1.0.2\Projects\zstack\ZLL\Source\zll.c            /
//    Command line       =  -f "D:\Texas Instruments\Z-Stack Lighting         /
//                          1.0.2\Projects\zstack\ZLL\SampleApp\CC253x\..\..\ /
//                          ..\Tools\CC2530DB\f8wRouter.cfg" (-DCPU32MHZ      /
//                          -DROOT=__near_func -DMAC_CFG_APP_PENDING_QUEUE=TR /
//                          UE -DMAC_CFG_TX_DATA_MAX=5 -DMAC_CFG_TX_MAX=8     /
//                          -DMAC_CFG_RX_MAX=5 -DRTR_NWK) -f "D:\Texas        /
//                          Instruments\Z-Stack Lighting                      /
//                          1.0.2\Projects\zstack\ZLL\SampleApp\CC253x\..\..\ /
//                          ..\Tools\CC2530DB\f8wConfig.cfg" (-DZIGBEEPRO     /
//                          -DSECURE=1 -DZG_SECURE_DYNAMIC=0 -DREFLECTOR      /
//                          -DDEFAULT_CHANLIST=0x00000800                     /
//                          -DZDAPP_CONFIG_PAN_ID=0xFFFF                      /
//                          -DNWK_START_DELAY=100 -DEXTENDED_JOINING_RANDOM_M /
//                          ASK=0x007F -DBEACON_REQUEST_DELAY=100             /
//                          -DBEACON_REQ_DELAY_MASK=0x00FF                    /
//                          -DLINK_STATUS_JITTER_MASK=0x007F                  /
//                          -DROUTE_EXPIRY_TIME=30 -DAPSC_ACK_WAIT_DURATION_P /
//                          OLLED=3000 -DNWK_INDIRECT_MSG_TIMEOUT=7           /
//                          -DMAX_RREQ_ENTRIES=8 -DAPSC_MAX_FRAME_RETRIES=3   /
//                          -DNWK_MAX_DATA_RETRIES=2                          /
//                          -DMAX_POLL_FAILURE_RETRIES=2 -DMAX_BCAST=9        /
//                          -DAPS_MAX_GROUPS=16 -DMAX_RTG_ENTRIES=40          /
//                          -DNWK_MAX_BINDING_ENTRIES=4                       /
//                          -DMAX_BINDING_CLUSTER_IDS=4                       /
//                          "-DDEFAULT_KEY={0x01, 0x03, 0x05, 0x07, 0x09,     /
//                          0x0B, 0x0D, 0x0F, 0x00, 0x02, 0x04, 0x06, 0x08,   /
//                          0x0A, 0x0C, 0x0D}" -DMAC_MAX_FRAME_SIZE=116       /
//                          -DZDNWKMGR_MIN_TRANSMISSIONS=20 "-DCONST=const    /
//                          __code" -DGENERIC=__generic                       /
//                          -DRFD_RCVC_ALWAYS_ON=FALSE -DPOLL_RATE=1000       /
//                          -DQUEUED_POLL_RATE=100 -DRESPONSE_POLL_RATE=100   /
//                          -DREJOIN_POLL_RATE=440) -f "D:\Texas              /
//                          Instruments\Z-Stack Lighting                      /
//                          1.0.2\Projects\zstack\ZLL\SampleApp\CC253x\..\..\ /
//                          ..\Tools\CC2530DB\f8wZCL.cfg" "D:\Texas           /
//                          Instruments\Z-Stack Lighting                      /
//                          1.0.2\Projects\zstack\ZLL\Source\zll.c" -D        /
//                          FEATURE_GREEN_POWER -D SECURE=1 -D                /
//                          TC_LINKKEY_JOIN -D ZDSECMGR_TC_DEVICE_MAX=2 -D    /
//                          NV_RESTORE -D HOLD_AUTO_START -D INTER_PAN -D     /
//                          ZTOOL_P1 -D MT_TASK -D MT_APP_FUNC -D             /
//                          MT_SYS_FUNC -D MT_ZDO_FUNC -D MT_ZDO_CB_FUNC -D   /
//                          MT_UTIL_FUNC -D MT_ZDO_MGMT -D LCD_SUPPORTED -D   /
//                          HAL_LCD=FALSE -D HAL_KEY=FALSE -D ZCL_BASIC -D    /
//                          ZCL_READ -D ZCL_WRITE -D ZCL_IDENTIFY -D          /
//                          ZCL_ON_OFF -D ZCL_SCENES -D ZCL_GROUPS -D         /
//                          ZCL_LIGHT_LINK_ENHANCE -D ZCL_LEVEL_CTRL -D       /
//                          ZCL_COLOR_CTRL -D xMAX_CHANNELS_24GHZ=0x02108800  /
//                          -lC "D:\Texas Instruments\Z-Stack Lighting        /
//                          1.0.2\Projects\zstack\ZLL\SampleApp\CC253x\Bridge /
//                          EB-Pro\List\" -lA "D:\Texas Instruments\Z-Stack   /
//                          Lighting 1.0.2\Projects\zstack\ZLL\SampleApp\CC25 /
//                          3x\BridgeEB-Pro\List\" --diag_suppress            /
//                          Pe001,Pa010 -o "D:\Texas Instruments\Z-Stack      /
//                          Lighting 1.0.2\Projects\zstack\ZLL\SampleApp\CC25 /
//                          3x\BridgeEB-Pro\Obj\" -e --debug --core=plain     /
//                          --dptr=16,1 --data_model=large                    /
//                          --code_model=banked --calling_convention=xdata_re /
//                          entrant --place_constants=data_rom                /
//                          --nr_virtual_regs 16 -I "D:\Texas                 /
//                          Instruments\Z-Stack Lighting                      /
//                          1.0.2\Projects\zstack\ZLL\SampleApp\CC253x\" -I   /
//                          "D:\Texas Instruments\Z-Stack Lighting            /
//                          1.0.2\Projects\zstack\ZLL\SampleApp\CC253x\..\Sou /
//                          rce\" -I "D:\Texas Instruments\Z-Stack Lighting   /
//                          1.0.2\Projects\zstack\ZLL\SampleApp\CC253x\..\..\ /
//                          Source\" -I "D:\Texas Instruments\Z-Stack         /
//                          Lighting 1.0.2\Projects\zstack\ZLL\SampleApp\CC25 /
//                          3x\..\..\..\HomeAutomation\Source\" -I "D:\Texas  /
//                          Instruments\Z-Stack Lighting                      /
//                          1.0.2\Projects\zstack\ZLL\SampleApp\CC253x\..\..\ /
//                          ..\HomeAutomation\SampleLight\Source\" -I         /
//                          "D:\Texas Instruments\Z-Stack Lighting            /
//                          1.0.2\Projects\zstack\ZLL\SampleApp\CC253x\..\..\ /
//                          ..\ZMain\TI2530DB\" -I "D:\Texas                  /
//                          Instruments\Z-Stack Lighting                      /
//                          1.0.2\Projects\zstack\ZLL\SampleApp\CC253x\..\..\ /
//                          ..\..\..\Components\hal\include\" -I "D:\Texas    /
//                          Instruments\Z-Stack Lighting                      /
//                          1.0.2\Projects\zstack\ZLL\SampleApp\CC253x\..\..\ /
//                          ..\..\..\Components\hal\target\CC2530EB\" -I      /
//                          "D:\Texas Instruments\Z-Stack Lighting            /
//                          1.0.2\Projects\zstack\ZLL\SampleApp\CC253x\..\..\ /
//                          ..\..\..\Components\mac\include\" -I "D:\Texas    /
//                          Instruments\Z-Stack Lighting                      /
//                          1.0.2\Projects\zstack\ZLL\SampleApp\CC253x\..\..\ /
//                          ..\..\..\Components\mac\high_level\" -I           /
//                          "D:\Texas Instruments\Z-Stack Lighting            /
//                          1.0.2\Projects\zstack\ZLL\SampleApp\CC253x\..\..\ /
//                          ..\..\..\Components\mac\low_level\srf04\" -I      /
//                          "D:\Texas Instruments\Z-Stack Lighting            /
//                          1.0.2\Projects\zstack\ZLL\SampleApp\CC253x\..\..\ /
//                          ..\..\..\Components\mac\low_level\srf04\single_ch /
//                          ip\" -I "D:\Texas Instruments\Z-Stack Lighting    /
//                          1.0.2\Projects\zstack\ZLL\SampleApp\CC253x\..\..\ /
//                          ..\..\..\Components\mt\" -I "D:\Texas             /
//                          Instruments\Z-Stack Lighting                      /
//                          1.0.2\Projects\zstack\ZLL\SampleApp\CC253x\..\..\ /
//                          ..\..\..\Components\osal\include\" -I "D:\Texas   /
//                          Instruments\Z-Stack Lighting                      /
//                          1.0.2\Projects\zstack\ZLL\SampleApp\CC253x\..\..\ /
//                          ..\..\..\Components\services\saddr\" -I           /
//                          "D:\Texas Instruments\Z-Stack Lighting            /
//                          1.0.2\Projects\zstack\ZLL\SampleApp\CC253x\..\..\ /
//                          ..\..\..\Components\services\sdata\" -I           /
//                          "D:\Texas Instruments\Z-Stack Lighting            /
//                          1.0.2\Projects\zstack\ZLL\SampleApp\CC253x\..\..\ /
//                          ..\..\..\Components\stack\af\" -I "D:\Texas       /
//                          Instruments\Z-Stack Lighting                      /
//                          1.0.2\Projects\zstack\ZLL\SampleApp\CC253x\..\..\ /
//                          ..\..\..\Components\stack\nwk\" -I "D:\Texas      /
//                          Instruments\Z-Stack Lighting                      /
//                          1.0.2\Projects\zstack\ZLL\SampleApp\CC253x\..\..\ /
//                          ..\..\..\Components\stack\sapi\" -I "D:\Texas     /
//                          Instruments\Z-Stack Lighting                      /
//                          1.0.2\Projects\zstack\ZLL\SampleApp\CC253x\..\..\ /
//                          ..\..\..\Components\stack\sec\" -I "D:\Texas      /
//                          Instruments\Z-Stack Lighting                      /
//                          1.0.2\Projects\zstack\ZLL\SampleApp\CC253x\..\..\ /
//                          ..\..\..\Components\stack\sys\" -I "D:\Texas      /
//                          Instruments\Z-Stack Lighting                      /
//                          1.0.2\Projects\zstack\ZLL\SampleApp\CC253x\..\..\ /
//                          ..\..\..\Components\stack\zcl\" -I "D:\Texas      /
//                          Instruments\Z-Stack Lighting                      /
//                          1.0.2\Projects\zstack\ZLL\SampleApp\CC253x\..\..\ /
//                          ..\..\..\Components\stack\zdo\" -I "D:\Texas      /
//                          Instruments\Z-Stack Lighting                      /
//                          1.0.2\Projects\zstack\ZLL\SampleApp\CC253x\..\..\ /
//                          ..\..\..\Components\zmac\" -I "D:\Texas           /
//                          Instruments\Z-Stack Lighting                      /
//                          1.0.2\Projects\zstack\ZLL\SampleApp\CC253x\..\..\ /
//                          ..\..\..\Components\zmac\f8w\" -Ohz               /
//                          --require_prototypes                              /
//    List file          =  D:\Texas Instruments\Z-Stack Lighting             /
//                          1.0.2\Projects\zstack\ZLL\SampleApp\CC253x\Bridge /
//                          EB-Pro\List\zll.s51                               /
//                                                                            /
//                                                                            /
///////////////////////////////////////////////////////////////////////////////

        NAME zll

        RTMODEL "__SystemLibrary", "CLib"
        RTMODEL "__calling_convention", "xdata_reentrant"
        RTMODEL "__code_model", "banked"
        RTMODEL "__core", "plain"
        RTMODEL "__data_model", "large"
        RTMODEL "__dptr_size", "16"
        RTMODEL "__extended_stack", "disabled"
        RTMODEL "__location_for_constants", "data"
        RTMODEL "__number_of_dptrs", "1"
        RTMODEL "__rt_version", "1"

        RSEG DOVERLAY:DATA:NOROOT(0)
        RSEG IOVERLAY:IDATA:NOROOT(0)
        RSEG ISTACK:IDATA:NOROOT(0)
        RSEG PSTACK:XDATA:NOROOT(0)
        RSEG XSTACK:XDATA:NOROOT(0)

        EXTERN ?ALLOC_XSTACK8
        EXTERN ?BANKED_ENTER_XDATA
        EXTERN ?BANKED_LEAVE_XDATA
        EXTERN ?BDISPATCH
        EXTERN ?BRET
        EXTERN ?DEALLOC_XSTACK8
        EXTERN ?L_ADD
        EXTERN ?L_ADD_X
        EXTERN ?L_EQ_X
        EXTERN ?L_MOV_TO_X
        EXTERN ?L_MOV_X
        EXTERN ?L_SHL
        EXTERN ?MOVE_LONG8_XDATA_XDATA
        EXTERN ?PUSH_XSTACK8_X_FOUR
        EXTERN ?PUSH_XSTACK8_X_TWO
        EXTERN ?PUSH_XSTACK_I_FOUR
        EXTERN ?PUSH_XSTACK_I_ONE
        EXTERN ?PUSH_XSTACK_I_THREE
        EXTERN ?PUSH_XSTACK_I_TWO
        EXTERN ?S_SHL
        EXTERN ?UL_SHR
        EXTERN ?US_SWITCH_SPARSE
        EXTERN ?V0
        EXTERN ?XLOAD_R2345
        EXTERN ?XSP
        EXTERN ?XSTACK_DISP0_8
        EXTERN ?XSTORE_R2345
        EXTERN __INIT_XDATA_I
        EXTERN __INIT_XDATA_Z

        FUNCTION ??zll_BeaconIndCB?relay,0203H
        FUNCTION ??zll_BuildAesKey?relay,0203H
        PUBLIC ??zll_ClassicalCommissioningInit?relay
        FUNCTION ??zll_ClassicalCommissioningInit?relay,0203H
        PUBLIC ??zll_ClassicalCommissioningJoinDiscoveredNwk?r
        FUNCTION ??zll_ClassicalCommissioningJoinDiscoveredNwk?r,0203H
        FUNCTION ??zll_ClassicalCommissioningNetworkDisc?relay,0203H
        PUBLIC ??zll_DecryptNwkKey?relay
        FUNCTION ??zll_DecryptNwkKey?relay,0203H
        PUBLIC ??zll_EncryptNwkKey?relay
        FUNCTION ??zll_EncryptNwkKey?relay,0203H
        PUBLIC ??zll_FreeNwkParamList?relay
        FUNCTION ??zll_FreeNwkParamList?relay,0203H
        PUBLIC ??zll_GenerateRandNum?relay
        FUNCTION ??zll_GenerateRandNum?relay,0203H
        PUBLIC ??zll_GetMsgRssi?relay
        FUNCTION ??zll_GetMsgRssi?relay,0203H
        PUBLIC ??zll_GetNumGrpIDs?relay
        FUNCTION ??zll_GetNumGrpIDs?relay,0203H
        PUBLIC ??zll_GetNumSubDevices?relay
        FUNCTION ??zll_GetNumSubDevices?relay,0203H
        PUBLIC ??zll_GetNwkKeyBitmask?relay
        FUNCTION ??zll_GetNwkKeyBitmask?relay,0203H
        PUBLIC ??zll_GetRandPrimaryChannel?relay
        FUNCTION ??zll_GetRandPrimaryChannel?relay,0203H
        PUBLIC ??zll_GetSubDeviceInfo?relay
        FUNCTION ??zll_GetSubDeviceInfo?relay,0203H
        FUNCTION ??zll_InitFreeRanges?relay,0203H
        PUBLIC ??zll_InitVariables?relay
        FUNCTION ??zll_InitVariables?relay,0203H
        PUBLIC ??zll_IsFactoryNew?relay
        FUNCTION ??zll_IsFactoryNew?relay,0203H
        PUBLIC ??zll_IsValidSplitFreeRanges?relay
        FUNCTION ??zll_IsValidSplitFreeRanges?relay,0203H
        PUBLIC ??zll_IsValidTransID?relay
        FUNCTION ??zll_IsValidTransID?relay,0203H
        PUBLIC ??zll_ItemInit?relay
        FUNCTION ??zll_ItemInit?relay,0203H
        PUBLIC ??zll_NewNwkUpdateId?relay
        FUNCTION ??zll_NewNwkUpdateId?relay,0203H
        FUNCTION ??zll_NwkDiscoveryCnfCB?relay,0203H
        PUBLIC ??zll_PerformNetworkDisc?relay
        FUNCTION ??zll_PerformNetworkDisc?relay,0203H
        PUBLIC ??zll_PermitJoin?relay
        FUNCTION ??zll_PermitJoin?relay,0203H
        PUBLIC ??zll_PopGrpIDRange?relay
        FUNCTION ??zll_PopGrpIDRange?relay,0203H
        PUBLIC ??zll_PopNwkAddress?relay
        FUNCTION ??zll_PopNwkAddress?relay,0203H
        PUBLIC ??zll_ProcessNwkUpdate?relay
        FUNCTION ??zll_ProcessNwkUpdate?relay,0203H
        PUBLIC ??zll_RegisterApp?relay
        FUNCTION ??zll_RegisterApp?relay,0203H
        PUBLIC ??zll_RegisterSimpleDesc?relay
        FUNCTION ??zll_RegisterSimpleDesc?relay,0203H
        PUBLIC ??zll_ResetToFactoryNew?relay
        FUNCTION ??zll_ResetToFactoryNew?relay,0203H
        PUBLIC ??zll_RouterProcessZDOMsg?relay
        FUNCTION ??zll_RouterProcessZDOMsg?relay,0203H
        PUBLIC ??zll_SendDeviceInfoRsp?relay
        FUNCTION ??zll_SendDeviceInfoRsp?relay,0203H
        PUBLIC ??zll_SendLeaveReq?relay
        FUNCTION ??zll_SendLeaveReq?relay,0203H
        PUBLIC ??zll_SendScanRsp?relay
        FUNCTION ??zll_SendScanRsp?relay,0203H
        PUBLIC ??zll_SetChannel?relay
        FUNCTION ??zll_SetChannel?relay,0203H
        PUBLIC ??zll_SetMacNwkParams?relay
        FUNCTION ??zll_SetMacNwkParams?relay,0203H
        PUBLIC ??zll_SetNIB?relay
        FUNCTION ??zll_SetNIB?relay,0203H
        FUNCTION ??zll_SetTCLK?relay,0203H
        PUBLIC ??zll_SetZllTaskId?relay
        FUNCTION ??zll_SetZllTaskId?relay,0203H
        PUBLIC ??zll_SplitFreeRanges?relay
        FUNCTION ??zll_SplitFreeRanges?relay,0203H
        PUBLIC ??zll_UpdateFreeRanges?relay
        FUNCTION ??zll_UpdateFreeRanges?relay,0203H
        PUBLIC ??zll_UpdateNV?relay
        FUNCTION ??zll_UpdateNV?relay,0203H
        PUBLIC ??zll_UpdateNwkKey?relay
        FUNCTION ??zll_UpdateNwkKey?relay,0203H
        PUBWEAK __Constant_1
        PUBWEAK __Constant_1f40
        PUBWEAK __Constant_2108800
        PUBWEAK __Constant_5ef7000
        PUBLIC pDiscoveredNwkParamList
        PUBLIC zllGrpIDsBegin
        PUBLIC zllGrpIDsEnd
        PUBLIC zllHAScanInitiated
        PUBLIC zllJoinedHANetwork
        PUBLIC zllLeaveInitiated
        PUBLIC zllResponseID
        PUBLIC zllTransID
        FUNCTION zll_BeaconIndCB,021603H
        ARGFRAME XSTACK, 0, STACK
        LOCFRAME ISTACK, 1, STACK
        LOCFRAME XSTACK, 20, STACK
        FUNCTION zll_BuildAesKey,0203H
        ARGFRAME XSTACK, 99, STACK
        ARGFRAME IOVERLAY, 0, STATIC
        ARGFRAME DOVERLAY, 0, STATIC
        LOCFRAME ISTACK, 1, STACK
        LOCFRAME XSTACK, 21, STACK
        PUBLIC zll_ClassicalCommissioningInit
        FUNCTION zll_ClassicalCommissioningInit,021203H
        ARGFRAME XSTACK, 0, STACK
        LOCFRAME ISTACK, 2, STACK
        PUBLIC zll_ClassicalCommissioningJoinDiscoveredNwk
        FUNCTION zll_ClassicalCommissioningJoinDiscoveredNwk,021203H
        ARGFRAME XSTACK, 0, STACK
        LOCFRAME XSTACK, 13, STACK
        FUNCTION zll_ClassicalCommissioningNetworkDisc,021203H
        ARGFRAME XSTACK, 0, STACK
        ARGFRAME IOVERLAY, 0, STATIC
        ARGFRAME DOVERLAY, 0, STATIC
        LOCFRAME ISTACK, 2, STACK
        PUBLIC zll_DecryptNwkKey
        FUNCTION zll_DecryptNwkKey,021203H
        ARGFRAME XSTACK, 8, STACK
        LOCFRAME ISTACK, 2, STACK
        LOCFRAME XSTACK, 75, STACK
        PUBLIC zll_EncryptNwkKey
        FUNCTION zll_EncryptNwkKey,021203H
        ARGFRAME XSTACK, 8, STACK
        LOCFRAME ISTACK, 2, STACK
        LOCFRAME XSTACK, 99, STACK
        PUBLIC zll_FreeNwkParamList
        FUNCTION zll_FreeNwkParamList,021203H
        ARGFRAME XSTACK, 9, STACK
        ARGFRAME IOVERLAY, 0, STATIC
        ARGFRAME DOVERLAY, 0, STATIC
        LOCFRAME XSTACK, 9, STACK
        PUBLIC zll_GenerateRandNum
        FUNCTION zll_GenerateRandNum,021203H
        ARGFRAME XSTACK, 91, STACK
        ARGFRAME IOVERLAY, 0, STATIC
        ARGFRAME DOVERLAY, 0, STATIC
        LOCFRAME ISTACK, 1, STACK
        LOCFRAME XSTACK, 13, STACK
        PUBLIC zll_GetMsgRssi
        FUNCTION zll_GetMsgRssi,021203H
        ARGFRAME XSTACK, 0, STACK
        LOCFRAME XSTACK, 10, STACK
        PUBLIC zll_GetNumGrpIDs
        FUNCTION zll_GetNumGrpIDs,0203H
        ARGFRAME XSTACK, 22, STACK
        ARGFRAME IOVERLAY, 0, STATIC
        ARGFRAME DOVERLAY, 0, STATIC
        LOCFRAME ISTACK, 2, STACK
        PUBLIC zll_GetNumSubDevices
        FUNCTION zll_GetNumSubDevices,0203H
        ARGFRAME XSTACK, 22, STACK
        ARGFRAME IOVERLAY, 0, STATIC
        ARGFRAME DOVERLAY, 0, STATIC
        LOCFRAME ISTACK, 2, STACK
        PUBLIC zll_GetNwkKeyBitmask
        FUNCTION zll_GetNwkKeyBitmask,0203H
        ARGFRAME XSTACK, 0, STACK
        PUBLIC zll_GetRandPrimaryChannel
        FUNCTION zll_GetRandPrimaryChannel,021203H
        ARGFRAME XSTACK, 0, STACK
        LOCFRAME ISTACK, 2, STACK
        PUBLIC zll_GetSubDeviceInfo
        FUNCTION zll_GetSubDeviceInfo,021203H
        ARGFRAME XSTACK, 22, STACK
        ARGFRAME IOVERLAY, 0, STATIC
        ARGFRAME DOVERLAY, 0, STATIC
        LOCFRAME XSTACK, 14, STACK
        FUNCTION zll_InitFreeRanges,0203H
        ARGFRAME XSTACK, 10, STACK
        ARGFRAME IOVERLAY, 0, STATIC
        ARGFRAME DOVERLAY, 0, STATIC
        LOCFRAME ISTACK, 2, STACK
        PUBLIC zll_InitVariables
        FUNCTION zll_InitVariables,021203H
        ARGFRAME XSTACK, 0, STACK
        LOCFRAME XSTACK, 14, STACK
        PUBLIC zll_IsFactoryNew
        FUNCTION zll_IsFactoryNew,021203H
        ARGFRAME XSTACK, 91, STACK
        ARGFRAME IOVERLAY, 0, STATIC
        ARGFRAME DOVERLAY, 0, STATIC
        LOCFRAME XSTACK, 16, STACK
        PUBLIC zll_IsValidSplitFreeRanges
        FUNCTION zll_IsValidSplitFreeRanges,0203H
        ARGFRAME XSTACK, 22, STACK
        ARGFRAME IOVERLAY, 0, STATIC
        ARGFRAME DOVERLAY, 0, STATIC
        LOCFRAME ISTACK, 2, STACK
        LOCFRAME XSTACK, 10, STACK
        PUBLIC zll_IsValidTransID
        FUNCTION zll_IsValidTransID,0203H
        ARGFRAME XSTACK, 0, STACK
        LOCFRAME XSTACK, 16, STACK
        PUBLIC zll_ItemInit
        FUNCTION zll_ItemInit,021203H
        ARGFRAME XSTACK, 12, STACK
        ARGFRAME IOVERLAY, 0, STATIC
        ARGFRAME DOVERLAY, 0, STATIC
        LOCFRAME XSTACK, 16, STACK
        PUBLIC zll_NewNwkUpdateId
        FUNCTION zll_NewNwkUpdateId,0203H
        ARGFRAME XSTACK, 0, STACK
        LOCFRAME XSTACK, 9, STACK
        FUNCTION zll_NwkDiscoveryCnfCB,021603H
        ARGFRAME XSTACK, 0, STACK
        LOCFRAME ISTACK, 2, STACK
        PUBLIC zll_PerformNetworkDisc
        FUNCTION zll_PerformNetworkDisc,021203H
        ARGFRAME XSTACK, 0, STACK
        ARGFRAME IOVERLAY, 0, STATIC
        ARGFRAME DOVERLAY, 0, STATIC
        LOCFRAME XSTACK, 19, STACK
        PUBLIC zll_PermitJoin
        FUNCTION zll_PermitJoin,021203H
        ARGFRAME XSTACK, 0, STACK
        LOCFRAME XSTACK, 9, STACK
        PUBLIC zll_PopGrpIDRange
        FUNCTION zll_PopGrpIDRange,0203H
        ARGFRAME XSTACK, 0, STACK
        LOCFRAME ISTACK, 2, STACK
        LOCFRAME XSTACK, 10, STACK
        PUBLIC zll_PopNwkAddress
        FUNCTION zll_PopNwkAddress,0203H
        ARGFRAME XSTACK, 0, STACK
        LOCFRAME ISTACK, 4, STACK
        PUBLIC zll_ProcessNwkUpdate
        FUNCTION zll_ProcessNwkUpdate,021203H
        ARGFRAME XSTACK, 0, STACK
        LOCFRAME XSTACK, 12, STACK
        PUBLIC zll_RegisterApp
        FUNCTION zll_RegisterApp,021203H
        ARGFRAME XSTACK, 0, STACK
        LOCFRAME XSTACK, 10, STACK
        PUBLIC zll_RegisterSimpleDesc
        FUNCTION zll_RegisterSimpleDesc,021203H
        ARGFRAME XSTACK, 10, STACK
        ARGFRAME IOVERLAY, 0, STATIC
        ARGFRAME DOVERLAY, 0, STATIC
        LOCFRAME ISTACK, 1, STACK
        LOCFRAME XSTACK, 10, STACK
        PUBLIC zll_ResetToFactoryNew
        FUNCTION zll_ResetToFactoryNew,021203H
        ARGFRAME XSTACK, 0, STACK
        LOCFRAME XSTACK, 9, STACK
        PUBLIC zll_RouterProcessZDOMsg
        FUNCTION zll_RouterProcessZDOMsg,0a1203H
        ARGFRAME XSTACK, 0, STACK
        LOCFRAME ISTACK, 1, STACK
        LOCFRAME XSTACK, 27, STACK
        PUBLIC zll_SendDeviceInfoRsp
        FUNCTION zll_SendDeviceInfoRsp,021203H
        ARGFRAME XSTACK, 4, STACK
        LOCFRAME ISTACK, 1, STACK
        LOCFRAME XSTACK, 21, STACK
        PUBLIC zll_SendLeaveReq
        FUNCTION zll_SendLeaveReq,021203H
        ARGFRAME XSTACK, 9, STACK
        ARGFRAME IOVERLAY, 0, STATIC
        ARGFRAME DOVERLAY, 0, STATIC
        LOCFRAME ISTACK, 2, STACK
        LOCFRAME XSTACK, 5, STACK
        PUBLIC zll_SendScanRsp
        FUNCTION zll_SendScanRsp,021203H
        ARGFRAME XSTACK, 4, STACK
        LOCFRAME ISTACK, 1, STACK
        LOCFRAME XSTACK, 26, STACK
        PUBLIC zll_SetChannel
        FUNCTION zll_SetChannel,021203H
        ARGFRAME XSTACK, 13, STACK
        ARGFRAME IOVERLAY, 0, STATIC
        ARGFRAME DOVERLAY, 0, STATIC
        LOCFRAME ISTACK, 3, STACK
        LOCFRAME XSTACK, 2, STACK
        PUBLIC zll_SetMacNwkParams
        FUNCTION zll_SetMacNwkParams,021203H
        ARGFRAME XSTACK, 0, STACK
        LOCFRAME XSTACK, 13, STACK
        PUBLIC zll_SetNIB
        FUNCTION zll_SetNIB,021203H
        ARGFRAME XSTACK, 4, STACK
        LOCFRAME XSTACK, 13, STACK
        FUNCTION zll_SetTCLK,021203H
        ARGFRAME XSTACK, 10, STACK
        ARGFRAME IOVERLAY, 0, STATIC
        ARGFRAME DOVERLAY, 0, STATIC
        LOCFRAME ISTACK, 2, STACK
        LOCFRAME XSTACK, 63, STACK
        PUBLIC zll_SetZllTaskId
        FUNCTION zll_SetZllTaskId,021203H
        ARGFRAME XSTACK, 0, STACK
        LOCFRAME XSTACK, 9, STACK
        PUBLIC zll_SplitFreeRanges
        FUNCTION zll_SplitFreeRanges,0203H
        ARGFRAME XSTACK, 4, STACK
        LOCFRAME XSTACK, 18, STACK
        PUBLIC zll_UpdateFreeRanges
        FUNCTION zll_UpdateFreeRanges,0203H
        ARGFRAME XSTACK, 0, STACK
        LOCFRAME ISTACK, 2, STACK
        PUBLIC zll_UpdateNV
        FUNCTION zll_UpdateNV,021203H
        ARGFRAME XSTACK, 13, STACK
        ARGFRAME IOVERLAY, 0, STATIC
        ARGFRAME DOVERLAY, 0, STATIC
        LOCFRAME XSTACK, 14, STACK
        PUBLIC zll_UpdateNwkKey
        FUNCTION zll_UpdateNwkKey,021203H
        ARGFRAME XSTACK, 67, STACK
        ARGFRAME IOVERLAY, 0, STATIC
        ARGFRAME DOVERLAY, 0, STATIC
        LOCFRAME XSTACK, 12, STACK
        
          CFI Names cfiNames0
          CFI StackFrame CFA_SP SP IDATA
          CFI StackFrame CFA_PSP16 PSP16 XDATA
          CFI StackFrame CFA_XSP16 XSP16 XDATA
          CFI StaticOverlayFrame CFA_IOVERLAY IOVERLAY
          CFI StaticOverlayFrame CFA_DOVERLAY DOVERLAY
          CFI Resource `PSW.CY`:1, `B.BR0`:1, `B.BR1`:1, `B.BR2`:1, `B.BR3`:1
          CFI Resource `B.BR4`:1, `B.BR5`:1, `B.BR6`:1, `B.BR7`:1, `VB.BR8`:1
          CFI Resource `VB.BR9`:1, `VB.BR10`:1, `VB.BR11`:1, `VB.BR12`:1
          CFI Resource `VB.BR13`:1, `VB.BR14`:1, `VB.BR15`:1, VB:8, B:8, A:8
          CFI Resource PSW:8, DPL0:8, DPH0:8, R0:8, R1:8, R2:8, R3:8, R4:8, R5:8
          CFI Resource R6:8, R7:8, V0:8, V1:8, V2:8, V3:8, V4:8, V5:8, V6:8, V7:8
          CFI Resource V8:8, V9:8, V10:8, V11:8, V12:8, V13:8, V14:8, V15:8, SP:8
          CFI Resource PSPH:8, PSPL:8, PSP16:16, XSPH:8, XSPL:8, XSP16:16
          CFI VirtualResource ?RET:24
          CFI Resource ?BRET_EXT:8
          CFI VirtualResource ?RET_HIGH:8, ?RET_LOW:8
          CFI ResourceParts PSP16 PSPH, PSPL
          CFI ResourceParts XSP16 XSPH, XSPL
          CFI ResourceParts ?RET ?BRET_EXT, ?RET_HIGH, ?RET_LOW
          CFI EndNames cfiNames0
        
          CFI Common cfiCommon0 Using cfiNames0
          CFI CodeAlign 1
          CFI DataAlign -1
          CFI ReturnAddress ?RET CODE
          CFI CFA_DOVERLAY Used
          CFI CFA_IOVERLAY Used
          CFI CFA_SP SP+-3
          CFI CFA_PSP16 PSP16+0
          CFI CFA_XSP16 XSP16+0
          CFI `PSW.CY` SameValue
          CFI `B.BR0` SameValue
          CFI `B.BR1` SameValue
          CFI `B.BR2` SameValue
          CFI `B.BR3` SameValue
          CFI `B.BR4` SameValue
          CFI `B.BR5` SameValue
          CFI `B.BR6` SameValue
          CFI `B.BR7` SameValue
          CFI `VB.BR8` SameValue
          CFI `VB.BR9` SameValue
          CFI `VB.BR10` SameValue
          CFI `VB.BR11` SameValue
          CFI `VB.BR12` SameValue
          CFI `VB.BR13` SameValue
          CFI `VB.BR14` SameValue
          CFI `VB.BR15` SameValue
          CFI VB SameValue
          CFI B Undefined
          CFI A Undefined
          CFI PSW SameValue
          CFI DPL0 SameValue
          CFI DPH0 SameValue
          CFI R0 Undefined
          CFI R1 Undefined
          CFI R2 Undefined
          CFI R3 Undefined
          CFI R4 Undefined
          CFI R5 Undefined
          CFI R6 SameValue
          CFI R7 SameValue
          CFI V0 SameValue
          CFI V1 SameValue
          CFI V2 SameValue
          CFI V3 SameValue
          CFI V4 SameValue
          CFI V5 SameValue
          CFI V6 SameValue
          CFI V7 SameValue
          CFI V8 SameValue
          CFI V9 SameValue
          CFI V10 SameValue
          CFI V11 SameValue
          CFI V12 SameValue
          CFI V13 SameValue
          CFI V14 SameValue
          CFI V15 SameValue
          CFI PSPH Undefined
          CFI PSPL Undefined
          CFI XSPH Undefined
          CFI XSPL Undefined
          CFI ?RET Concat
          CFI ?BRET_EXT Frame(CFA_SP, 3)
          CFI ?RET_HIGH Frame(CFA_SP, 2)
          CFI ?RET_LOW Frame(CFA_SP, 1)
          CFI EndCommon cfiCommon0
        
        
          CFI Common cfiCommon1 Using cfiNames0
          CFI CodeAlign 1
          CFI DataAlign -1
          CFI ReturnAddress ?RET CODE
          CFI CFA_DOVERLAY Used
          CFI CFA_IOVERLAY Used
          CFI CFA_SP SP+-2
          CFI CFA_PSP16 PSP16+0
          CFI CFA_XSP16 XSP16+0
          CFI `PSW.CY` SameValue
          CFI `B.BR0` SameValue
          CFI `B.BR1` SameValue
          CFI `B.BR2` SameValue
          CFI `B.BR3` SameValue
          CFI `B.BR4` SameValue
          CFI `B.BR5` SameValue
          CFI `B.BR6` SameValue
          CFI `B.BR7` SameValue
          CFI `VB.BR8` SameValue
          CFI `VB.BR9` SameValue
          CFI `VB.BR10` SameValue
          CFI `VB.BR11` SameValue
          CFI `VB.BR12` SameValue
          CFI `VB.BR13` SameValue
          CFI `VB.BR14` SameValue
          CFI `VB.BR15` SameValue
          CFI VB SameValue
          CFI B SameValue
          CFI A SameValue
          CFI PSW SameValue
          CFI DPL0 SameValue
          CFI DPH0 SameValue
          CFI R0 SameValue
          CFI R1 SameValue
          CFI R2 SameValue
          CFI R3 SameValue
          CFI R4 SameValue
          CFI R5 SameValue
          CFI R6 SameValue
          CFI R7 SameValue
          CFI V0 SameValue
          CFI V1 SameValue
          CFI V2 SameValue
          CFI V3 SameValue
          CFI V4 SameValue
          CFI V5 SameValue
          CFI V6 SameValue
          CFI V7 SameValue
          CFI V8 SameValue
          CFI V9 SameValue
          CFI V10 SameValue
          CFI V11 SameValue
          CFI V12 SameValue
          CFI V13 SameValue
          CFI V14 SameValue
          CFI V15 SameValue
          CFI PSPH Undefined
          CFI PSPL Undefined
          CFI XSPH Undefined
          CFI XSPL Undefined
          CFI ?RET Concat
          CFI ?BRET_EXT SameValue
          CFI ?RET_HIGH Frame(CFA_SP, 2)
          CFI ?RET_LOW Frame(CFA_SP, 1)
          CFI EndCommon cfiCommon1
        
APSME_IsDistributedSecurity SYMBOL "APSME_IsDistributedSecurity"
??APSME_IsDistributedSecurity?relay SYMBOL "?relay", APSME_IsDistributedSecurity
AssocCount          SYMBOL "AssocCount"
??AssocCount?relay  SYMBOL "?relay", AssocCount
NLME_GetExtAddr     SYMBOL "NLME_GetExtAddr"
??NLME_GetExtAddr?relay SYMBOL "?relay", NLME_GetExtAddr
NLME_JoinRequest    SYMBOL "NLME_JoinRequest"
??NLME_JoinRequest?relay SYMBOL "?relay", NLME_JoinRequest
NLME_LeaveReq       SYMBOL "NLME_LeaveReq"
??NLME_LeaveReq?relay SYMBOL "?relay", NLME_LeaveReq
NLME_NwkDiscReq2    SYMBOL "NLME_NwkDiscReq2"
??NLME_NwkDiscReq2?relay SYMBOL "?relay", NLME_NwkDiscReq2
NLME_NwkDiscTerm    SYMBOL "NLME_NwkDiscTerm"
??NLME_NwkDiscTerm?relay SYMBOL "?relay", NLME_NwkDiscTerm
NLME_PermitJoiningRequest SYMBOL "NLME_PermitJoiningRequest"
??NLME_PermitJoiningRequest?relay SYMBOL "?relay", NLME_PermitJoiningRequest
NLME_SetBroadcastFilter SYMBOL "NLME_SetBroadcastFilter"
??NLME_SetBroadcastFilter?relay SYMBOL "?relay", NLME_SetBroadcastFilter
NLME_SetUpdateID    SYMBOL "NLME_SetUpdateID"
??NLME_SetUpdateID?relay SYMBOL "?relay", NLME_SetUpdateID
NLME_UpdateLinkStatus SYMBOL "NLME_UpdateLinkStatus"
??NLME_UpdateLinkStatus?relay SYMBOL "?relay", NLME_UpdateLinkStatus
SSP_ReadNwkActiveKey SYMBOL "SSP_ReadNwkActiveKey"
??SSP_ReadNwkActiveKey?relay SYMBOL "?relay", SSP_ReadNwkActiveKey
SSP_SwitchNwkKey    SYMBOL "SSP_SwitchNwkKey"
??SSP_SwitchNwkKey?relay SYMBOL "?relay", SSP_SwitchNwkKey
SSP_UpdateNwkKey    SYMBOL "SSP_UpdateNwkKey"
??SSP_UpdateNwkKey?relay SYMBOL "?relay", SSP_UpdateNwkKey
StubAPS_RegisterApp SYMBOL "StubAPS_RegisterApp"
??StubAPS_RegisterApp?relay SYMBOL "?relay", StubAPS_RegisterApp
ZDApp_LeaveCtrlReset SYMBOL "ZDApp_LeaveCtrlReset"
??ZDApp_LeaveCtrlReset?relay SYMBOL "?relay", ZDApp_LeaveCtrlReset
ZDApp_LeaveReset    SYMBOL "ZDApp_LeaveReset"
??ZDApp_LeaveReset?relay SYMBOL "?relay", ZDApp_LeaveReset
ZDApp_NwkStateUpdateCB SYMBOL "ZDApp_NwkStateUpdateCB"
??ZDApp_NwkStateUpdateCB?relay SYMBOL "?relay", ZDApp_NwkStateUpdateCB
ZDApp_ResetNwkKey   SYMBOL "ZDApp_ResetNwkKey"
??ZDApp_ResetNwkKey?relay SYMBOL "?relay", ZDApp_ResetNwkKey
ZDApp_SaveNwkKey    SYMBOL "ZDApp_SaveNwkKey"
??ZDApp_SaveNwkKey?relay SYMBOL "?relay", ZDApp_SaveNwkKey
ZDO_DeregisterForZdoCB SYMBOL "ZDO_DeregisterForZdoCB"
??ZDO_DeregisterForZdoCB?relay SYMBOL "?relay", ZDO_DeregisterForZdoCB
ZDO_ParseDeviceAnnce SYMBOL "ZDO_ParseDeviceAnnce"
??ZDO_ParseDeviceAnnce?relay SYMBOL "?relay", ZDO_ParseDeviceAnnce
ZDO_RegisterForZdoCB SYMBOL "ZDO_RegisterForZdoCB"
??ZDO_RegisterForZdoCB?relay SYMBOL "?relay", ZDO_RegisterForZdoCB
ZDP_SendData        SYMBOL "ZDP_SendData"
??ZDP_SendData?relay SYMBOL "?relay", ZDP_SendData
ZDSecMgrUpdateTCAddress SYMBOL "ZDSecMgrUpdateTCAddress"
??ZDSecMgrUpdateTCAddress?relay SYMBOL "?relay", ZDSecMgrUpdateTCAddress
ZMacGetReq          SYMBOL "ZMacGetReq"
??ZMacGetReq?relay  SYMBOL "?relay", ZMacGetReq
ZMacSetReq          SYMBOL "ZMacSetReq"
??ZMacSetReq?relay  SYMBOL "?relay", ZMacSetReq
afFindEndPointDesc  SYMBOL "afFindEndPointDesc"
??afFindEndPointDesc?relay SYMBOL "?relay", afFindEndPointDesc
afRegister          SYMBOL "afRegister"
??afRegister?relay  SYMBOL "?relay", afRegister
nwkNeighborAdd      SYMBOL "nwkNeighborAdd"
??nwkNeighborAdd?relay SYMBOL "?relay", nwkNeighborAdd
nwkNeighborGetLinkInfo SYMBOL "nwkNeighborGetLinkInfo"
??nwkNeighborGetLinkInfo?relay SYMBOL "?relay", nwkNeighborGetLinkInfo
nwkTransmissionFailures SYMBOL "nwkTransmissionFailures"
??nwkTransmissionFailures?relay SYMBOL "?relay", nwkTransmissionFailures
osal_mem_alloc      SYMBOL "osal_mem_alloc"
??osal_mem_alloc?relay SYMBOL "?relay", osal_mem_alloc
osal_mem_free       SYMBOL "osal_mem_free"
??osal_mem_free?relay SYMBOL "?relay", osal_mem_free
osal_memcpy         SYMBOL "osal_memcpy"
??osal_memcpy?relay SYMBOL "?relay", osal_memcpy
osal_memset         SYMBOL "osal_memset"
??osal_memset?relay SYMBOL "?relay", osal_memset
osal_nv_item_init   SYMBOL "osal_nv_item_init"
??osal_nv_item_init?relay SYMBOL "?relay", osal_nv_item_init
osal_nv_read        SYMBOL "osal_nv_read"
??osal_nv_read?relay SYMBOL "?relay", osal_nv_read
osal_nv_write       SYMBOL "osal_nv_write"
??osal_nv_write?relay SYMBOL "?relay", osal_nv_write
osal_rand           SYMBOL "osal_rand"
??osal_rand?relay   SYMBOL "?relay", osal_rand
osal_set_event      SYMBOL "osal_set_event"
??osal_set_event?relay SYMBOL "?relay", osal_set_event
osal_start_timerEx  SYMBOL "osal_start_timerEx"
??osal_start_timerEx?relay SYMBOL "?relay", osal_start_timerEx
osal_stop_timerEx   SYMBOL "osal_stop_timerEx"
??osal_stop_timerEx?relay SYMBOL "?relay", osal_stop_timerEx
sAddrExtCpy         SYMBOL "sAddrExtCpy"
??sAddrExtCpy?relay SYMBOL "?relay", sAddrExtCpy
sspAesDecrypt       SYMBOL "sspAesDecrypt"
??sspAesDecrypt?relay SYMBOL "?relay", sspAesDecrypt
sspAesEncrypt       SYMBOL "sspAesEncrypt"
??sspAesEncrypt?relay SYMBOL "?relay", sspAesEncrypt
zclLL_Send_DeviceInfoRsp SYMBOL "zclLL_Send_DeviceInfoRsp"
??zclLL_Send_DeviceInfoRsp?relay SYMBOL "?relay", zclLL_Send_DeviceInfoRsp
zclLL_Send_ScanRsp  SYMBOL "zclLL_Send_ScanRsp"
??zclLL_Send_ScanRsp?relay SYMBOL "?relay", zclLL_Send_ScanRsp
zcl_getRawAFMsg     SYMBOL "zcl_getRawAFMsg"
??zcl_getRawAFMsg?relay SYMBOL "?relay", zcl_getRawAFMsg
zgWriteStartupOptions SYMBOL "zgWriteStartupOptions"
??zgWriteStartupOptions?relay SYMBOL "?relay", zgWriteStartupOptions
zll_ClassicalCommissioningInit SYMBOL "zll_ClassicalCommissioningInit"
??zll_ClassicalCommissioningInit?relay SYMBOL "?relay", zll_ClassicalCommissioningInit
zll_ClassicalCommissioningJoinDiscoveredNwk SYMBOL "zll_ClassicalCommissioningJoinDiscoveredNwk"
??zll_ClassicalCommissioningJoinDiscoveredNwk?r SYMBOL "?relay", zll_ClassicalCommissioningJoinDiscoveredNwk
zll_DecryptNwkKey   SYMBOL "zll_DecryptNwkKey"
??zll_DecryptNwkKey?relay SYMBOL "?relay", zll_DecryptNwkKey
zll_EncryptNwkKey   SYMBOL "zll_EncryptNwkKey"
??zll_EncryptNwkKey?relay SYMBOL "?relay", zll_EncryptNwkKey
zll_FreeNwkParamList SYMBOL "zll_FreeNwkParamList"
??zll_FreeNwkParamList?relay SYMBOL "?relay", zll_FreeNwkParamList
zll_GenerateRandNum SYMBOL "zll_GenerateRandNum"
??zll_GenerateRandNum?relay SYMBOL "?relay", zll_GenerateRandNum
zll_GetMsgRssi      SYMBOL "zll_GetMsgRssi"
??zll_GetMsgRssi?relay SYMBOL "?relay", zll_GetMsgRssi
zll_GetNumGrpIDs    SYMBOL "zll_GetNumGrpIDs"
??zll_GetNumGrpIDs?relay SYMBOL "?relay", zll_GetNumGrpIDs
zll_GetNumSubDevices SYMBOL "zll_GetNumSubDevices"
??zll_GetNumSubDevices?relay SYMBOL "?relay", zll_GetNumSubDevices
zll_GetNwkKeyBitmask SYMBOL "zll_GetNwkKeyBitmask"
??zll_GetNwkKeyBitmask?relay SYMBOL "?relay", zll_GetNwkKeyBitmask
zll_GetRandPrimaryChannel SYMBOL "zll_GetRandPrimaryChannel"
??zll_GetRandPrimaryChannel?relay SYMBOL "?relay", zll_GetRandPrimaryChannel
zll_GetSubDeviceInfo SYMBOL "zll_GetSubDeviceInfo"
??zll_GetSubDeviceInfo?relay SYMBOL "?relay", zll_GetSubDeviceInfo
zll_InitVariables   SYMBOL "zll_InitVariables"
??zll_InitVariables?relay SYMBOL "?relay", zll_InitVariables
zll_IsFactoryNew    SYMBOL "zll_IsFactoryNew"
??zll_IsFactoryNew?relay SYMBOL "?relay", zll_IsFactoryNew
zll_IsValidSplitFreeRanges SYMBOL "zll_IsValidSplitFreeRanges"
??zll_IsValidSplitFreeRanges?relay SYMBOL "?relay", zll_IsValidSplitFreeRanges
zll_IsValidTransID  SYMBOL "zll_IsValidTransID"
??zll_IsValidTransID?relay SYMBOL "?relay", zll_IsValidTransID
zll_ItemInit        SYMBOL "zll_ItemInit"
??zll_ItemInit?relay SYMBOL "?relay", zll_ItemInit
zll_NewNwkUpdateId  SYMBOL "zll_NewNwkUpdateId"
??zll_NewNwkUpdateId?relay SYMBOL "?relay", zll_NewNwkUpdateId
zll_PerformNetworkDisc SYMBOL "zll_PerformNetworkDisc"
??zll_PerformNetworkDisc?relay SYMBOL "?relay", zll_PerformNetworkDisc
zll_PermitJoin      SYMBOL "zll_PermitJoin"
??zll_PermitJoin?relay SYMBOL "?relay", zll_PermitJoin
zll_PopGrpIDRange   SYMBOL "zll_PopGrpIDRange"
??zll_PopGrpIDRange?relay SYMBOL "?relay", zll_PopGrpIDRange
zll_PopNwkAddress   SYMBOL "zll_PopNwkAddress"
??zll_PopNwkAddress?relay SYMBOL "?relay", zll_PopNwkAddress
zll_ProcessNwkUpdate SYMBOL "zll_ProcessNwkUpdate"
??zll_ProcessNwkUpdate?relay SYMBOL "?relay", zll_ProcessNwkUpdate
zll_RegisterApp     SYMBOL "zll_RegisterApp"
??zll_RegisterApp?relay SYMBOL "?relay", zll_RegisterApp
zll_RegisterSimpleDesc SYMBOL "zll_RegisterSimpleDesc"
??zll_RegisterSimpleDesc?relay SYMBOL "?relay", zll_RegisterSimpleDesc
zll_ResetToFactoryNew SYMBOL "zll_ResetToFactoryNew"
??zll_ResetToFactoryNew?relay SYMBOL "?relay", zll_ResetToFactoryNew
zll_RouterProcessZDOMsg SYMBOL "zll_RouterProcessZDOMsg"
??zll_RouterProcessZDOMsg?relay SYMBOL "?relay", zll_RouterProcessZDOMsg
zll_SendDeviceInfoRsp SYMBOL "zll_SendDeviceInfoRsp"
??zll_SendDeviceInfoRsp?relay SYMBOL "?relay", zll_SendDeviceInfoRsp
zll_SendLeaveReq    SYMBOL "zll_SendLeaveReq"
??zll_SendLeaveReq?relay SYMBOL "?relay", zll_SendLeaveReq
zll_SendScanRsp     SYMBOL "zll_SendScanRsp"
??zll_SendScanRsp?relay SYMBOL "?relay", zll_SendScanRsp
zll_SetChannel      SYMBOL "zll_SetChannel"
??zll_SetChannel?relay SYMBOL "?relay", zll_SetChannel
zll_SetMacNwkParams SYMBOL "zll_SetMacNwkParams"
??zll_SetMacNwkParams?relay SYMBOL "?relay", zll_SetMacNwkParams
zll_SetNIB          SYMBOL "zll_SetNIB"
??zll_SetNIB?relay  SYMBOL "?relay", zll_SetNIB
zll_SetZllTaskId    SYMBOL "zll_SetZllTaskId"
??zll_SetZllTaskId?relay SYMBOL "?relay", zll_SetZllTaskId
zll_SplitFreeRanges SYMBOL "zll_SplitFreeRanges"
??zll_SplitFreeRanges?relay SYMBOL "?relay", zll_SplitFreeRanges
zll_UpdateFreeRanges SYMBOL "zll_UpdateFreeRanges"
??zll_UpdateFreeRanges?relay SYMBOL "?relay", zll_UpdateFreeRanges
zll_UpdateNV        SYMBOL "zll_UpdateNV"
??zll_UpdateNV?relay SYMBOL "?relay", zll_UpdateNV
zll_UpdateNwkKey    SYMBOL "zll_UpdateNwkKey"
??zll_UpdateNwkKey?relay SYMBOL "?relay", zll_UpdateNwkKey

        EXTERN ??APSME_IsDistributedSecurity?relay
        FUNCTION ??APSME_IsDistributedSecurity?relay,00H
        EXTERN ??AssocCount?relay
        FUNCTION ??AssocCount?relay,00H
        EXTERN ??NLME_GetExtAddr?relay
        FUNCTION ??NLME_GetExtAddr?relay,00H
        EXTERN ??NLME_JoinRequest?relay
        FUNCTION ??NLME_JoinRequest?relay,00H
        EXTERN ??NLME_LeaveReq?relay
        FUNCTION ??NLME_LeaveReq?relay,00H
        EXTERN ??NLME_NwkDiscReq2?relay
        FUNCTION ??NLME_NwkDiscReq2?relay,00H
        EXTERN ??NLME_NwkDiscTerm?relay
        FUNCTION ??NLME_NwkDiscTerm?relay,00H
        EXTERN ??NLME_PermitJoiningRequest?relay
        FUNCTION ??NLME_PermitJoiningRequest?relay,00H
        EXTERN ??NLME_SetBroadcastFilter?relay
        FUNCTION ??NLME_SetBroadcastFilter?relay,00H
        EXTERN ??NLME_SetUpdateID?relay
        FUNCTION ??NLME_SetUpdateID?relay,00H
        EXTERN ??NLME_UpdateLinkStatus?relay
        FUNCTION ??NLME_UpdateLinkStatus?relay,00H
        EXTERN ??SSP_ReadNwkActiveKey?relay
        FUNCTION ??SSP_ReadNwkActiveKey?relay,00H
        EXTERN ??SSP_SwitchNwkKey?relay
        FUNCTION ??SSP_SwitchNwkKey?relay,00H
        EXTERN ??SSP_UpdateNwkKey?relay
        FUNCTION ??SSP_UpdateNwkKey?relay,00H
        EXTERN ??StubAPS_RegisterApp?relay
        FUNCTION ??StubAPS_RegisterApp?relay,00H
        EXTERN ??ZDApp_LeaveCtrlReset?relay
        FUNCTION ??ZDApp_LeaveCtrlReset?relay,00H
        EXTERN ??ZDApp_LeaveReset?relay
        FUNCTION ??ZDApp_LeaveReset?relay,00H
        EXTERN ??ZDApp_NwkStateUpdateCB?relay
        FUNCTION ??ZDApp_NwkStateUpdateCB?relay,00H
        EXTERN ??ZDApp_ResetNwkKey?relay
        FUNCTION ??ZDApp_ResetNwkKey?relay,00H
        EXTERN ??ZDApp_SaveNwkKey?relay
        FUNCTION ??ZDApp_SaveNwkKey?relay,00H
        EXTERN ??ZDO_DeregisterForZdoCB?relay
        FUNCTION ??ZDO_DeregisterForZdoCB?relay,00H
        EXTERN ??ZDO_ParseDeviceAnnce?relay
        FUNCTION ??ZDO_ParseDeviceAnnce?relay,00H
        EXTERN ??ZDO_RegisterForZdoCB?relay
        FUNCTION ??ZDO_RegisterForZdoCB?relay,00H
        EXTERN ??ZDP_SendData?relay
        FUNCTION ??ZDP_SendData?relay,00H
        EXTERN ??ZDSecMgrUpdateTCAddress?relay
        FUNCTION ??ZDSecMgrUpdateTCAddress?relay,00H
        EXTERN ??ZMacGetReq?relay
        FUNCTION ??ZMacGetReq?relay,00H
        EXTERN ??ZMacSetReq?relay
        FUNCTION ??ZMacSetReq?relay,00H
        EXTERN ??afFindEndPointDesc?relay
        FUNCTION ??afFindEndPointDesc?relay,00H
        EXTERN ??afRegister?relay
        FUNCTION ??afRegister?relay,00H
        EXTERN ??nwkNeighborAdd?relay
        FUNCTION ??nwkNeighborAdd?relay,00H
        EXTERN ??nwkNeighborGetLinkInfo?relay
        FUNCTION ??nwkNeighborGetLinkInfo?relay,00H
        EXTERN ??nwkTransmissionFailures?relay
        FUNCTION ??nwkTransmissionFailures?relay,00H
        EXTERN ??osal_mem_alloc?relay
        FUNCTION ??osal_mem_alloc?relay,00H
        EXTERN ??osal_mem_free?relay
        FUNCTION ??osal_mem_free?relay,00H
        EXTERN ??osal_memcpy?relay
        FUNCTION ??osal_memcpy?relay,00H
        EXTERN ??osal_memset?relay
        FUNCTION ??osal_memset?relay,00H
        EXTERN ??osal_nv_item_init?relay
        FUNCTION ??osal_nv_item_init?relay,00H
        EXTERN ??osal_nv_read?relay
        FUNCTION ??osal_nv_read?relay,00H
        EXTERN ??osal_nv_write?relay
        FUNCTION ??osal_nv_write?relay,00H
        EXTERN ??osal_rand?relay
        FUNCTION ??osal_rand?relay,00H
        EXTERN ??osal_set_event?relay
        FUNCTION ??osal_set_event?relay,00H
        EXTERN ??osal_start_timerEx?relay
        FUNCTION ??osal_start_timerEx?relay,00H
        EXTERN ??osal_stop_timerEx?relay
        FUNCTION ??osal_stop_timerEx?relay,00H
        EXTERN ??sAddrExtCpy?relay
        FUNCTION ??sAddrExtCpy?relay,00H
        EXTERN ??sspAesDecrypt?relay
        FUNCTION ??sspAesDecrypt?relay,00H
        EXTERN ??sspAesEncrypt?relay
        FUNCTION ??sspAesEncrypt?relay,00H
        EXTERN ??zclLL_Send_DeviceInfoRsp?relay
        FUNCTION ??zclLL_Send_DeviceInfoRsp?relay,00H
        EXTERN ??zclLL_Send_ScanRsp?relay
        FUNCTION ??zclLL_Send_ScanRsp?relay,00H
        EXTERN ??zcl_getRawAFMsg?relay
        FUNCTION ??zcl_getRawAFMsg?relay,00H
        EXTERN ??zgWriteStartupOptions?relay
        FUNCTION ??zgWriteStartupOptions?relay,00H
        EXTERN APSME_IsDistributedSecurity
        FUNCTION APSME_IsDistributedSecurity,0202H
        ARGFRAME ISTACK, 0, STACK
        ARGFRAME PSTACK, 0, STACK
        ARGFRAME XSTACK, 10, STACK
        ARGFRAME IOVERLAY, 0, STATIC
        ARGFRAME DOVERLAY, 0, STATIC
        EXTERN AssocCount
        FUNCTION AssocCount,0202H
        ARGFRAME ISTACK, 0, STACK
        ARGFRAME PSTACK, 0, STACK
        ARGFRAME XSTACK, 22, STACK
        ARGFRAME IOVERLAY, 0, STATIC
        ARGFRAME DOVERLAY, 0, STATIC
        EXTERN NLME_GetExtAddr
        FUNCTION NLME_GetExtAddr,0202H
        ARGFRAME ISTACK, 0, STACK
        ARGFRAME PSTACK, 0, STACK
        ARGFRAME XSTACK, 20, STACK
        ARGFRAME IOVERLAY, 0, STATIC
        ARGFRAME DOVERLAY, 0, STATIC
        EXTERN NLME_JoinRequest
        FUNCTION NLME_JoinRequest,0202H
        ARGFRAME ISTACK, 0, STACK
        ARGFRAME PSTACK, 0, STACK
        ARGFRAME XSTACK, 13, STACK
        ARGFRAME IOVERLAY, 0, STATIC
        ARGFRAME DOVERLAY, 0, STATIC
        EXTERN NLME_LeaveReq
        FUNCTION NLME_LeaveReq,0202H
        ARGFRAME ISTACK, 2, STACK
        ARGFRAME PSTACK, 0, STACK
        ARGFRAME XSTACK, 5, STACK
        ARGFRAME IOVERLAY, 0, STATIC
        ARGFRAME DOVERLAY, 0, STATIC
        EXTERN NLME_NwkDiscReq2
        FUNCTION NLME_NwkDiscReq2,0202H
        ARGFRAME ISTACK, 0, STACK
        ARGFRAME PSTACK, 0, STACK
        ARGFRAME XSTACK, 19, STACK
        ARGFRAME IOVERLAY, 0, STATIC
        ARGFRAME DOVERLAY, 0, STATIC
        EXTERN NLME_NwkDiscTerm
        FUNCTION NLME_NwkDiscTerm,0202H
        ARGFRAME ISTACK, 2, STACK
        ARGFRAME PSTACK, 0, STACK
        ARGFRAME XSTACK, 19, STACK
        ARGFRAME IOVERLAY, 0, STATIC
        ARGFRAME DOVERLAY, 0, STATIC
        EXTERN NLME_PermitJoiningRequest
        FUNCTION NLME_PermitJoiningRequest,0202H
        ARGFRAME ISTACK, 0, STACK
        ARGFRAME PSTACK, 0, STACK
        ARGFRAME XSTACK, 22, STACK
        ARGFRAME IOVERLAY, 0, STATIC
        ARGFRAME DOVERLAY, 0, STATIC
        EXTERN NLME_SetBroadcastFilter
        FUNCTION NLME_SetBroadcastFilter,0202H
        ARGFRAME ISTACK, 0, STACK
        ARGFRAME PSTACK, 0, STACK
        ARGFRAME XSTACK, 10, STACK
        ARGFRAME IOVERLAY, 0, STATIC
        ARGFRAME DOVERLAY, 0, STATIC
        EXTERN NLME_SetUpdateID
        FUNCTION NLME_SetUpdateID,0202H
        ARGFRAME ISTACK, 0, STACK
        ARGFRAME PSTACK, 0, STACK
        ARGFRAME XSTACK, 13, STACK
        ARGFRAME IOVERLAY, 0, STATIC
        ARGFRAME DOVERLAY, 0, STATIC
        EXTERN NLME_UpdateLinkStatus
        FUNCTION NLME_UpdateLinkStatus,0202H
        ARGFRAME ISTACK, 0, STACK
        ARGFRAME PSTACK, 0, STACK
        ARGFRAME XSTACK, 22, STACK
        ARGFRAME IOVERLAY, 0, STATIC
        ARGFRAME DOVERLAY, 0, STATIC
        EXTERN SSP_ReadNwkActiveKey
        FUNCTION SSP_ReadNwkActiveKey,0202H
        ARGFRAME ISTACK, 0, STACK
        ARGFRAME PSTACK, 0, STACK
        ARGFRAME XSTACK, 91, STACK
        ARGFRAME IOVERLAY, 0, STATIC
        ARGFRAME DOVERLAY, 0, STATIC
        EXTERN SSP_SwitchNwkKey
        FUNCTION SSP_SwitchNwkKey,0202H
        ARGFRAME ISTACK, 0, STACK
        ARGFRAME PSTACK, 0, STACK
        ARGFRAME XSTACK, 12, STACK
        ARGFRAME IOVERLAY, 0, STATIC
        ARGFRAME DOVERLAY, 0, STATIC
        EXTERN SSP_UpdateNwkKey
        FUNCTION SSP_UpdateNwkKey,0202H
        ARGFRAME ISTACK, 0, STACK
        ARGFRAME PSTACK, 0, STACK
        ARGFRAME XSTACK, 12, STACK
        ARGFRAME IOVERLAY, 0, STATIC
        ARGFRAME DOVERLAY, 0, STATIC
        EXTERN StubAPS_RegisterApp
        FUNCTION StubAPS_RegisterApp,0202H
        ARGFRAME ISTACK, 0, STACK
        ARGFRAME PSTACK, 0, STACK
        ARGFRAME XSTACK, 9, STACK
        ARGFRAME IOVERLAY, 0, STATIC
        ARGFRAME DOVERLAY, 0, STATIC
        EXTERN ZDAppTaskID
        EXTERN ZDApp_LeaveCtrlReset
        FUNCTION ZDApp_LeaveCtrlReset,0202H
        ARGFRAME ISTACK, 0, STACK
        ARGFRAME PSTACK, 0, STACK
        ARGFRAME XSTACK, 9, STACK
        ARGFRAME IOVERLAY, 0, STATIC
        ARGFRAME DOVERLAY, 0, STATIC
        EXTERN ZDApp_LeaveReset
        FUNCTION ZDApp_LeaveReset,0202H
        ARGFRAME ISTACK, 0, STACK
        ARGFRAME PSTACK, 0, STACK
        ARGFRAME XSTACK, 9, STACK
        ARGFRAME IOVERLAY, 0, STATIC
        ARGFRAME DOVERLAY, 0, STATIC
        EXTERN ZDApp_NwkStateUpdateCB
        FUNCTION ZDApp_NwkStateUpdateCB,0202H
        ARGFRAME ISTACK, 0, STACK
        ARGFRAME PSTACK, 0, STACK
        ARGFRAME XSTACK, 12, STACK
        ARGFRAME IOVERLAY, 0, STATIC
        ARGFRAME DOVERLAY, 0, STATIC
        EXTERN ZDApp_ResetNwkKey
        FUNCTION ZDApp_ResetNwkKey,0202H
        ARGFRAME ISTACK, 0, STACK
        ARGFRAME PSTACK, 0, STACK
        ARGFRAME XSTACK, 9, STACK
        ARGFRAME IOVERLAY, 0, STATIC
        ARGFRAME DOVERLAY, 0, STATIC
        EXTERN ZDApp_SaveNwkKey
        FUNCTION ZDApp_SaveNwkKey,0202H
        ARGFRAME ISTACK, 0, STACK
        ARGFRAME PSTACK, 0, STACK
        ARGFRAME XSTACK, 12, STACK
        ARGFRAME IOVERLAY, 0, STATIC
        ARGFRAME DOVERLAY, 0, STATIC
        EXTERN ZDO_Config_Node_Descriptor
        EXTERN ZDO_DeregisterForZdoCB
        FUNCTION ZDO_DeregisterForZdoCB,0202H
        ARGFRAME ISTACK, 2, STACK
        ARGFRAME PSTACK, 0, STACK
        ARGFRAME XSTACK, 0, STACK
        ARGFRAME IOVERLAY, 0, STATIC
        ARGFRAME DOVERLAY, 0, STATIC
        EXTERN ZDO_ParseDeviceAnnce
        FUNCTION ZDO_ParseDeviceAnnce,0202H
        ARGFRAME ISTACK, 0, STACK
        ARGFRAME PSTACK, 0, STACK
        ARGFRAME XSTACK, 22, STACK
        ARGFRAME IOVERLAY, 0, STATIC
        ARGFRAME DOVERLAY, 0, STATIC
        EXTERN ZDO_RegisterForZdoCB
        FUNCTION ZDO_RegisterForZdoCB,0202H
        ARGFRAME ISTACK, 0, STACK
        ARGFRAME PSTACK, 0, STACK
        ARGFRAME XSTACK, 19, STACK
        ARGFRAME IOVERLAY, 0, STATIC
        ARGFRAME DOVERLAY, 0, STATIC
        EXTERN ZDP_SendData
        FUNCTION ZDP_SendData,0202H
        ARGFRAME ISTACK, 0, STACK
        ARGFRAME PSTACK, 0, STACK
        ARGFRAME XSTACK, 27, STACK
        ARGFRAME IOVERLAY, 0, STATIC
        ARGFRAME DOVERLAY, 0, STATIC
        EXTERN ZDSecMgrUpdateTCAddress
        FUNCTION ZDSecMgrUpdateTCAddress,0202H
        ARGFRAME ISTACK, 0, STACK
        ARGFRAME PSTACK, 0, STACK
        ARGFRAME XSTACK, 9, STACK
        ARGFRAME IOVERLAY, 0, STATIC
        ARGFRAME DOVERLAY, 0, STATIC
        EXTERN ZMacGetReq
        FUNCTION ZMacGetReq,0202H
        ARGFRAME ISTACK, 2, STACK
        ARGFRAME PSTACK, 0, STACK
        ARGFRAME XSTACK, 2, STACK
        ARGFRAME IOVERLAY, 0, STATIC
        ARGFRAME DOVERLAY, 0, STATIC
        EXTERN ZMacSetReq
        FUNCTION ZMacSetReq,0202H
        ARGFRAME ISTACK, 2, STACK
        ARGFRAME PSTACK, 0, STACK
        ARGFRAME XSTACK, 13, STACK
        ARGFRAME IOVERLAY, 0, STATIC
        ARGFRAME DOVERLAY, 0, STATIC
        EXTERN _NIB
        EXTERN afFindEndPointDesc
        FUNCTION afFindEndPointDesc,0202H
        ARGFRAME ISTACK, 0, STACK
        ARGFRAME PSTACK, 0, STACK
        ARGFRAME XSTACK, 14, STACK
        ARGFRAME IOVERLAY, 0, STATIC
        ARGFRAME DOVERLAY, 0, STATIC
        EXTERN afRegister
        FUNCTION afRegister,0202H
        ARGFRAME ISTACK, 0, STACK
        ARGFRAME PSTACK, 0, STACK
        ARGFRAME XSTACK, 10, STACK
        ARGFRAME IOVERLAY, 0, STATIC
        ARGFRAME DOVERLAY, 0, STATIC
        EXTERN devState
        EXTERN gMIN_TREE_LINK_COST
        EXTERN gNWK_MAX_DEVICE_LIST
        EXTERN nwkFrameCounter
        EXTERN nwkNeighborAdd
        FUNCTION nwkNeighborAdd,0202H
        ARGFRAME ISTACK, 0, STACK
        ARGFRAME PSTACK, 0, STACK
        ARGFRAME XSTACK, 22, STACK
        ARGFRAME IOVERLAY, 0, STATIC
        ARGFRAME DOVERLAY, 0, STATIC
        EXTERN nwkNeighborGetLinkInfo
        FUNCTION nwkNeighborGetLinkInfo,0202H
        ARGFRAME ISTACK, 0, STACK
        ARGFRAME PSTACK, 0, STACK
        ARGFRAME XSTACK, 22, STACK
        ARGFRAME IOVERLAY, 0, STATIC
        ARGFRAME DOVERLAY, 0, STATIC
        EXTERN nwkTransmissionFailures
        FUNCTION nwkTransmissionFailures,0202H
        ARGFRAME ISTACK, 0, STACK
        ARGFRAME PSTACK, 0, STACK
        ARGFRAME XSTACK, 12, STACK
        ARGFRAME IOVERLAY, 0, STATIC
        ARGFRAME DOVERLAY, 0, STATIC
        EXTERN osal_mem_alloc
        FUNCTION osal_mem_alloc,0202H
        ARGFRAME ISTACK, 0, STACK
        ARGFRAME PSTACK, 0, STACK
        ARGFRAME XSTACK, 22, STACK
        ARGFRAME IOVERLAY, 0, STATIC
        ARGFRAME DOVERLAY, 0, STATIC
        EXTERN osal_mem_free
        FUNCTION osal_mem_free,0202H
        ARGFRAME ISTACK, 0, STACK
        ARGFRAME PSTACK, 0, STACK
        ARGFRAME XSTACK, 22, STACK
        ARGFRAME IOVERLAY, 0, STATIC
        ARGFRAME DOVERLAY, 0, STATIC
        EXTERN osal_memcpy
        FUNCTION osal_memcpy,0202H
        ARGFRAME ISTACK, 0, STACK
        ARGFRAME PSTACK, 0, STACK
        ARGFRAME XSTACK, 94, STACK
        ARGFRAME IOVERLAY, 0, STATIC
        ARGFRAME DOVERLAY, 0, STATIC
        EXTERN osal_memset
        FUNCTION osal_memset,0202H
        ARGFRAME ISTACK, 2, STACK
        ARGFRAME PSTACK, 0, STACK
        ARGFRAME XSTACK, 59, STACK
        ARGFRAME IOVERLAY, 0, STATIC
        ARGFRAME DOVERLAY, 0, STATIC
        EXTERN osal_nv_item_init
        FUNCTION osal_nv_item_init,0202H
        ARGFRAME ISTACK, 0, STACK
        ARGFRAME PSTACK, 0, STACK
        ARGFRAME XSTACK, 14, STACK
        ARGFRAME IOVERLAY, 0, STATIC
        ARGFRAME DOVERLAY, 0, STATIC
        EXTERN osal_nv_read
        FUNCTION osal_nv_read,0202H
        ARGFRAME ISTACK, 0, STACK
        ARGFRAME PSTACK, 0, STACK
        ARGFRAME XSTACK, 16, STACK
        ARGFRAME IOVERLAY, 0, STATIC
        ARGFRAME DOVERLAY, 0, STATIC
        EXTERN osal_nv_write
        FUNCTION osal_nv_write,0202H
        ARGFRAME ISTACK, 0, STACK
        ARGFRAME PSTACK, 0, STACK
        ARGFRAME XSTACK, 63, STACK
        ARGFRAME IOVERLAY, 0, STATIC
        ARGFRAME DOVERLAY, 0, STATIC
        EXTERN osal_rand
        FUNCTION osal_rand,0202H
        ARGFRAME ISTACK, 2, STACK
        ARGFRAME PSTACK, 0, STACK
        ARGFRAME XSTACK, 22, STACK
        ARGFRAME IOVERLAY, 0, STATIC
        ARGFRAME DOVERLAY, 0, STATIC
        EXTERN osal_set_event
        FUNCTION osal_set_event,0202H
        ARGFRAME ISTACK, 2, STACK
        ARGFRAME PSTACK, 0, STACK
        ARGFRAME XSTACK, 0, STACK
        ARGFRAME IOVERLAY, 0, STATIC
        ARGFRAME DOVERLAY, 0, STATIC
        EXTERN osal_start_timerEx
        FUNCTION osal_start_timerEx,0202H
        ARGFRAME ISTACK, 0, STACK
        ARGFRAME PSTACK, 0, STACK
        ARGFRAME XSTACK, 26, STACK
        ARGFRAME IOVERLAY, 0, STATIC
        ARGFRAME DOVERLAY, 0, STATIC
        EXTERN osal_stop_timerEx
        FUNCTION osal_stop_timerEx,0202H
        ARGFRAME ISTACK, 2, STACK
        ARGFRAME PSTACK, 0, STACK
        ARGFRAME XSTACK, 0, STACK
        ARGFRAME IOVERLAY, 0, STATIC
        ARGFRAME DOVERLAY, 0, STATIC
        EXTERN sAddrExtCpy
        FUNCTION sAddrExtCpy,0202H
        ARGFRAME ISTACK, 0, STACK
        ARGFRAME PSTACK, 0, STACK
        ARGFRAME XSTACK, 22, STACK
        ARGFRAME IOVERLAY, 0, STATIC
        ARGFRAME DOVERLAY, 0, STATIC
        EXTERN sspAesDecrypt
        FUNCTION sspAesDecrypt,0202H
        ARGFRAME ISTACK, 0, STACK
        ARGFRAME PSTACK, 0, STACK
        ARGFRAME XSTACK, 67, STACK
        ARGFRAME IOVERLAY, 0, STATIC
        ARGFRAME DOVERLAY, 0, STATIC
        EXTERN sspAesEncrypt
        FUNCTION sspAesEncrypt,0202H
        ARGFRAME ISTACK, 0, STACK
        ARGFRAME PSTACK, 0, STACK
        ARGFRAME XSTACK, 91, STACK
        ARGFRAME IOVERLAY, 0, STATIC
        ARGFRAME DOVERLAY, 0, STATIC
        EXTERN zclLL_Send_DeviceInfoRsp
        FUNCTION zclLL_Send_DeviceInfoRsp,0202H
        ARGFRAME ISTACK, 0, STACK
        ARGFRAME PSTACK, 0, STACK
        ARGFRAME XSTACK, 21, STACK
        ARGFRAME IOVERLAY, 0, STATIC
        ARGFRAME DOVERLAY, 0, STATIC
        EXTERN zclLL_Send_ScanRsp
        FUNCTION zclLL_Send_ScanRsp,0202H
        ARGFRAME ISTACK, 0, STACK
        ARGFRAME PSTACK, 0, STACK
        ARGFRAME XSTACK, 23, STACK
        ARGFRAME IOVERLAY, 0, STATIC
        ARGFRAME DOVERLAY, 0, STATIC
        EXTERN zcl_TaskID
        EXTERN zcl_getRawAFMsg
        FUNCTION zcl_getRawAFMsg,0202H
        ARGFRAME ISTACK, 0, STACK
        ARGFRAME PSTACK, 0, STACK
        ARGFRAME XSTACK, 10, STACK
        ARGFRAME IOVERLAY, 0, STATIC
        ARGFRAME DOVERLAY, 0, STATIC
        EXTERN zgDeviceLogicalType
        EXTERN zgRouterOffAssocCleanup
        EXTERN zgWriteStartupOptions
        FUNCTION zgWriteStartupOptions,0202H
        ARGFRAME ISTACK, 0, STACK
        ARGFRAME PSTACK, 0, STACK
        ARGFRAME XSTACK, 10, STACK
        ARGFRAME IOVERLAY, 0, STATIC
        ARGFRAME DOVERLAY, 0, STATIC

// D:\Texas Instruments\Z-Stack Lighting 1.0.2\Projects\zstack\ZLL\Source\zll.c
//    1 /**************************************************************************************************
//    2   Filename:       zll.c
//    3   Revised:        $Date: 2013-12-06 15:53:38 -0800 (Fri, 06 Dec 2013) $
//    4   Revision:       $Revision: 36460 $
//    5 
//    6   Description:    Zigbee Cluster Library - Light Link Profile.
//    7 
//    8 
//    9   Copyright 2011-2013 Texas Instruments Incorporated. All rights reserved.
//   10 
//   11   IMPORTANT: Your use of this Software is limited to those specific rights
//   12   granted under the terms of a software license agreement between the user
//   13   who downloaded the software, his/her employer (which must be your employer)
//   14   and Texas Instruments Incorporated (the "License").  You may not use this
//   15   Software unless you agree to abide by the terms of the License. The License
//   16   limits your use, and you acknowledge, that the Software may not be modified,
//   17   copied or distributed unless embedded on a Texas Instruments microcontroller
//   18   or used solely and exclusively in conjunction with a Texas Instruments radio
//   19   frequency transceiver, which is integrated into your product.  Other than for
//   20   the foregoing purpose, you may not use, reproduce, copy, prepare derivative
//   21   works of, modify, distribute, perform, display or sell this Software and/or
//   22   its documentation for any purpose.
//   23 
//   24   YOU FURTHER ACKNOWLEDGE AND AGREE THAT THE SOFTWARE AND DOCUMENTATION ARE
//   25   PROVIDED AS IS WITHOUT WARRANTY OF ANY KIND, EITHER EXPRESS OR IMPLIED,
//   26   INCLUDING WITHOUT LIMITATION, ANY WARRANTY OF MERCHANTABILITY, TITLE,
//   27   NON-INFRINGEMENT AND FITNESS FOR A PARTICULAR PURPOSE. IN NO EVENT SHALL
//   28   TEXAS INSTRUMENTS OR ITS LICENSORS BE LIABLE OR OBLIGATED UNDER CONTRACT,
//   29   NEGLIGENCE, STRICT LIABILITY, CONTRIBUTION, BREACH OF WARRANTY, OR OTHER
//   30   LEGAL EQUITABLE THEORY ANY DIRECT OR INDIRECT DAMAGES OR EXPENSES
//   31   INCLUDING BUT NOT LIMITED TO ANY INCIDENTAL, SPECIAL, INDIRECT, PUNITIVE
//   32   OR CONSEQUENTIAL DAMAGES, LOST PROFITS OR LOST DATA, COST OF PROCUREMENT
//   33   OF SUBSTITUTE GOODS, TECHNOLOGY, SERVICES, OR ANY CLAIMS BY THIRD PARTIES
//   34   (INCLUDING BUT NOT LIMITED TO ANY DEFENSE THEREOF), OR OTHER SIMILAR COSTS.
//   35 
//   36   Should you have any questions regarding your right to use this Software,
//   37   contact Texas Instruments Incorporated at www.TI.com.
//   38 **************************************************************************************************/
//   39 
//   40 /*********************************************************************
//   41  * INCLUDES
//   42  */
//   43 #include "OSAL_Nv.h"
//   44 #include "hal_aes.h"
//   45 #include "nwk_util.h"
//   46 #include "ZDSecMgr.h"
//   47 #include "ZDObject.h"
//   48 
//   49 #if defined( INTER_PAN )
//   50   #include "stub_aps.h"
//   51 #endif
//   52 
//   53 #include "zcl_ll.h"
//   54 #include "zll.h"
//   55 
//   56 /*********************************************************************
//   57  * MACROS
//   58  */
//   59 #define ZLL_NEW_MIN( min, max )                  ( ( (uint32)(max) + (uint32)(min) + 1 ) / 2 )
//   60 
//   61 /*********************************************************************
//   62  * CONSTANTS
//   63  */
//   64 
//   65 #define ZLL_NUM_DEVICE_INFO_ENTRIES              5
//   66 
//   67 
//   68 /*********************************************************************
//   69  * TYPEDEFS
//   70  */
//   71 
//   72 /*********************************************************************
//   73  * GLOBAL VARIABLES
//   74  */
//   75 
//   76 // Used for Network Discovery

        RSEG XDATA_Z:XDATA:NOROOT(0)
        DATA16
//   77 zllDiscoveredNwkParam_t *pDiscoveredNwkParamList = NULL;
pDiscoveredNwkParamList:
        DS 2
        REQUIRE __INIT_XDATA_Z
//   78 
//   79 // Current Touch Link Transaction ID

        RSEG XDATA_Z:XDATA:NOROOT(0)
        DATA32
//   80 uint32 zllTransID;
zllTransID:
        DS 4
        REQUIRE __INIT_XDATA_Z
//   81 
//   82 // Scan Response ID

        RSEG XDATA_Z:XDATA:NOROOT(0)
        DATA32
//   83 uint32 zllResponseID;
zllResponseID:
        DS 4
        REQUIRE __INIT_XDATA_Z
//   84 
//   85 // Our group ID range

        RSEG XDATA_Z:XDATA:NOROOT(0)
        DATA16
//   86 uint16 zllGrpIDsBegin;
zllGrpIDsBegin:
        DS 2
        REQUIRE __INIT_XDATA_Z

        RSEG XDATA_Z:XDATA:NOROOT(0)
        DATA16
//   87 uint16 zllGrpIDsEnd;
zllGrpIDsEnd:
        DS 2
        REQUIRE __INIT_XDATA_Z
//   88 
//   89 // Flag for leave

        RSEG XDATA_Z:XDATA:NOROOT(0)
        DATA8
//   90 uint8 zllLeaveInitiated;
zllLeaveInitiated:
        DS 1
        REQUIRE __INIT_XDATA_Z
//   91 
//   92 // Flags for Classical Commissioning

        RSEG XDATA_Z:XDATA:NOROOT(0)
        DATA8
//   93 uint8 zllHAScanInitiated;
zllHAScanInitiated:
        DS 1
        REQUIRE __INIT_XDATA_Z

        RSEG XDATA_Z:XDATA:NOROOT(0)
        DATA8
//   94 bool zllJoinedHANetwork;
zllJoinedHANetwork:
        DS 1
        REQUIRE __INIT_XDATA_Z
//   95 
//   96 /*********************************************************************
//   97  * EXTERNAL VARIABLES
//   98  */
//   99 
//  100 /*********************************************************************
//  101  * EXTERNAL FUNCTIONS
//  102  */
//  103 
//  104 /*********************************************************************
//  105  * LOCAL VARIABLES
//  106  */

        RSEG XDATA_Z:XDATA:NOROOT(0)
        DATA32
//  107 static uint32 zllLastAcceptedTransID;
zllLastAcceptedTransID:
        DS 4
        REQUIRE __INIT_XDATA_Z
//  108 
//  109 // ZLL Profile attributes - Our free network address and group ID ranges

        RSEG XDATA_Z:XDATA:NOROOT(0)
        DATA16
//  110 static uint16 zllFreeNwkAddrBegin;
zllFreeNwkAddrBegin:
        DS 2
        REQUIRE __INIT_XDATA_Z

        RSEG XDATA_Z:XDATA:NOROOT(0)
        DATA16
//  111 static uint16 zllFreeNwkAddrEnd;
zllFreeNwkAddrEnd:
        DS 2
        REQUIRE __INIT_XDATA_Z

        RSEG XDATA_Z:XDATA:NOROOT(0)
        DATA16
//  112 static uint16 zllFreeGrpIdBegin;
zllFreeGrpIdBegin:
        DS 2
        REQUIRE __INIT_XDATA_Z

        RSEG XDATA_Z:XDATA:NOROOT(0)
        DATA16
//  113 static uint16 zllFreeGrpIdEnd;
zllFreeGrpIdEnd:
        DS 2
        REQUIRE __INIT_XDATA_Z
//  114 
//  115 // Device Information Table

        RSEG XDATA_Z:XDATA:NOROOT(0)
        DATA8
//  116 static zclLLDeviceInfo_t *zllSubDevicesTbl[ZLL_NUM_DEVICE_INFO_ENTRIES];
zllSubDevicesTbl:
        DS 10
        REQUIRE __INIT_XDATA_Z

        RSEG XDATA_Z:XDATA:NOROOT(0)
        DATA8
//  117 static bool zllIsInitiator;
zllIsInitiator:
        DS 1
        REQUIRE __INIT_XDATA_Z

        RSEG XDATA_Z:XDATA:NOROOT(0)
        DATA8
//  118 static uint8 zllTaskId;
zllTaskId:
        DS 1
        REQUIRE __INIT_XDATA_Z
//  119 
//  120 // This is the Cluster ID List and should be filled with Application
//  121 // specific cluster IDs.
//  122 #define ZLL_EP_MAX_INCLUSTERS       1

        RSEG XDATA_ROM_C:CONST:REORDER:NOROOT(0)
        DATA16
//  123 static const cId_t zll_EP_InClusterList[ZLL_EP_MAX_INCLUSTERS] =
zll_EP_InClusterList:
        DW 4096
//  124 {
//  125   ZCL_CLUSTER_ID_LIGHT_LINK
//  126 };
//  127 
//  128 #define ZLL_EP_MAX_OUTCLUSTERS       1

        RSEG XDATA_ROM_C:CONST:REORDER:NOROOT(0)
        DATA16
//  129 static const cId_t zll_EP_OutClusterList[ZLL_EP_MAX_OUTCLUSTERS] =
zll_EP_OutClusterList:
        DW 4096
//  130 {
//  131   ZCL_CLUSTER_ID_LIGHT_LINK
//  132 };
//  133 

        RSEG XDATA_I:XDATA:NOROOT(0)
//  134 static SimpleDescriptionFormat_t zll_EP_SimpleDesc =
zll_EP_SimpleDesc:
        DATA8
        DS 12
        REQUIRE `?<Initializer for zll_EP_SimpleDesc>`
        REQUIRE __INIT_XDATA_I
//  135 {
//  136   ZLL_INTERNAL_ENDPOINT,         //  int Endpoint;
//  137   ZLL_PROFILE_ID,                //  uint16 AppProfId[2];
//  138   ZLL_INTERNAL_DEVICE_ID,        //  uint16 AppDeviceId[2];
//  139   ZLL_DEVICE_VERSION,            //  int   AppDevVer:4;
//  140   ZLL_INTERNAL_FLAGS,            //  int   AppFlags:4;
//  141   ZLL_EP_MAX_INCLUSTERS,         //  byte  AppNumInClusters;
//  142   (cId_t *)zll_EP_InClusterList, //  byte *pAppInClusterList;
//  143   ZLL_EP_MAX_OUTCLUSTERS,        //  byte  AppNumInClusters;
//  144   (cId_t *)zll_EP_OutClusterList //  byte *pAppInClusterList;
//  145 };
//  146 
//  147 #if defined( INTER_PAN )
//  148 // Define endpoint structure to register with STUB APS for INTER-PAN support

        RSEG XDATA_I:XDATA:NOROOT(0)
//  149 static endPointDesc_t zll_EP =
zll_EP:
        DATA8
        DS 6
        REQUIRE `?<Initializer for zll_EP>`
        REQUIRE __INIT_XDATA_I
//  150 {
//  151   ZLL_INTERNAL_ENDPOINT,
//  152   &zllTaskId,
//  153   (SimpleDescriptionFormat_t *)NULL,  // No Simple description for this endpoint
//  154   (afNetworkLatencyReq_t)0            // No Network Latency req
//  155 };
//  156 #endif
//  157 
//  158 
//  159 /*********************************************************************
//  160  * LOCAL FUNCTIONS
//  161  */
//  162 static void zll_BuildAesKey( uint8 *pAesKey, uint32 transID, uint32 responseID, uint8 keyIndex );
//  163 static void zll_InitFreeRanges( bool initiator );
//  164 void zll_ItemInit( uint16 id, uint16 len, void *pBuf );
//  165 static void *zll_BeaconIndCB ( void *param );
//  166 static void *zll_NwkDiscoveryCnfCB ( void *param );
//  167 static void zll_InitNV( void );
//  168 static void zll_SetTCLK( void );
//  169 static ZStatus_t zll_ClassicalCommissioningNetworkDisc( void );
//  170 
//  171 /*********************************************************************
//  172  * PUBLIC FUNCTIONS
//  173  */
//  174 
//  175 /*********************************************************************
//  176  * @fn      zll_RegisterSimpleDesc
//  177  *
//  178  * @brief   Register the Simple descriptor with the AF.
//  179  *
//  180  * @param   simpleDesc - a pointer to a valid SimpleDescriptionFormat_t, must not be NULL.
//  181  *
//  182  * @return  status
//  183  */

        RSEG BANKED_CODE:CODE:NOROOT(0)
//  184 ZStatus_t zll_RegisterSimpleDesc( SimpleDescriptionFormat_t *simpleDesc )
zll_RegisterSimpleDesc:
          CFI Block cfiBlock0 Using cfiCommon0
          CFI Function zll_RegisterSimpleDesc
        CODE
//  185 {
        FUNCALL zll_RegisterSimpleDesc, osal_mem_alloc
        LOCFRAME ISTACK, 0, STACK
        LOCFRAME PSTACK, 0, STACK
        LOCFRAME XSTACK, 10, STACK
        LOCFRAME IOVERLAY, 0, STATIC
        LOCFRAME DOVERLAY, 0, STATIC
        ARGFRAME ISTACK, 0, STACK
        ARGFRAME PSTACK, 0, STACK
        ARGFRAME XSTACK, 10, STACK
        ARGFRAME IOVERLAY, 0, STATIC
        ARGFRAME DOVERLAY, 0, STATIC
        FUNCALL zll_RegisterSimpleDesc, afRegister
        LOCFRAME ISTACK, 0, STACK
        LOCFRAME PSTACK, 0, STACK
        LOCFRAME XSTACK, 10, STACK
        LOCFRAME IOVERLAY, 0, STATIC
        LOCFRAME DOVERLAY, 0, STATIC
        ARGFRAME ISTACK, 0, STACK
        ARGFRAME PSTACK, 0, STACK
        ARGFRAME XSTACK, 10, STACK
        ARGFRAME IOVERLAY, 0, STATIC
        ARGFRAME DOVERLAY, 0, STATIC
        MOV     A,#-0xa
        LCALL   ?BANKED_ENTER_XDATA
          CFI DPH0 load(1, XDATA, add(CFA_XSP16, literal(-1)))
          CFI DPL0 load(1, XDATA, add(CFA_XSP16, literal(-2)))
          CFI ?BRET_EXT load(1, XDATA, add(CFA_XSP16, literal(-3)))
          CFI ?RET_HIGH load(1, XDATA, add(CFA_XSP16, literal(-4)))
          CFI ?RET_LOW load(1, XDATA, add(CFA_XSP16, literal(-5)))
          CFI R7 load(1, XDATA, add(CFA_XSP16, literal(-6)))
          CFI V1 load(1, XDATA, add(CFA_XSP16, literal(-7)))
          CFI V0 load(1, XDATA, add(CFA_XSP16, literal(-8)))
          CFI VB load(1, XDATA, add(CFA_XSP16, literal(-9)))
          CFI R6 load(1, XDATA, add(CFA_XSP16, literal(-10)))
          CFI CFA_SP SP+0
          CFI CFA_XSP16 add(XSP16, 10)
        ; Saved register size: 10
        ; Auto size: 0
        MOV     A,R2
        MOV     R6,A
        MOV     A,R3
        MOV     R7,A
//  186   endPointDesc_t *epDesc;
//  187 
//  188   // Register the application's endpoint descriptor
//  189   //  - This memory is allocated and never freed.
//  190   epDesc = osal_mem_alloc( sizeof ( endPointDesc_t ) );
        ; Setup parameters for call to function osal_mem_alloc
        MOV     R2,#0x6
        MOV     R3,#0x0
        LCALL   ??osal_mem_alloc?relay
//  191   if ( epDesc )
        MOV     A,R2
        ORL     A,R3
        JZ      ??zll_RegisterSimpleDesc_0
//  192   {
//  193     // Fill out the endpoint description.
//  194     epDesc->endPoint = simpleDesc->EndPoint;
        MOV     DPL,R6
        MOV     DPH,R7
        MOVX    A,@DPTR
        MOV     DPL,R2
        MOV     DPH,R3
        MOVX    @DPTR,A
//  195     epDesc->task_id = &zcl_TaskID;   // all messages get sent to ZCL first
        INC     DPTR
        MOV     A,#zcl_TaskID & 0xff
        MOVX    @DPTR,A
        INC     DPTR
        MOV     A,#(zcl_TaskID >> 8) & 0xff
        LCALL   ?Subroutine34 & 0xFFFF
//  196     epDesc->simpleDesc = simpleDesc;
??CrossCallReturnLabel_45:
        MOV     A,R6
        MOVX    @DPTR,A
        INC     DPTR
        MOV     A,R7
        LCALL   ?Subroutine22 & 0xFFFF
//  197     epDesc->latencyReq = noLatencyReqs;
??CrossCallReturnLabel_26:
        CLR     A
        MOVX    @DPTR,A
//  198 
//  199     // Register the endpoint description with the AF
//  200     return afRegister( epDesc );
        ; Setup parameters for call to function afRegister
        LCALL   ??afRegister?relay
        SJMP    ??zll_RegisterSimpleDesc_1
//  201   }
//  202   return ZMemError;
??zll_RegisterSimpleDesc_0:
        MOV     R1,#0x10
??zll_RegisterSimpleDesc_1:
        LJMP    ??Subroutine36_0 & 0xFFFF
          CFI EndBlock cfiBlock0
//  203 }
//  204 
//  205 /*********************************************************************
//  206  * @fn      zll_InitVariables
//  207  *
//  208  * @brief   Initialize the ZLL global and local variables.
//  209  *
//  210  * @param   initiator - if caller is Initiator
//  211  *
//  212  * @return  none
//  213  */

        RSEG BANKED_CODE:CODE:NOROOT(0)
//  214 void zll_InitVariables( bool initiator )
zll_InitVariables:
          CFI Block cfiBlock1 Using cfiCommon0
          CFI Function zll_InitVariables
        CODE
//  215 {
        FUNCALL zll_InitVariables, zll_IsFactoryNew
        LOCFRAME ISTACK, 0, STACK
        LOCFRAME PSTACK, 0, STACK
        LOCFRAME XSTACK, 10, STACK
        LOCFRAME IOVERLAY, 0, STATIC
        LOCFRAME DOVERLAY, 0, STATIC
        ARGFRAME ISTACK, 0, STACK
        ARGFRAME PSTACK, 0, STACK
        ARGFRAME XSTACK, 10, STACK
        ARGFRAME IOVERLAY, 0, STATIC
        ARGFRAME DOVERLAY, 0, STATIC
        FUNCALL zll_InitVariables, APSME_IsDistributedSecurity
        LOCFRAME ISTACK, 0, STACK
        LOCFRAME PSTACK, 0, STACK
        LOCFRAME XSTACK, 10, STACK
        LOCFRAME IOVERLAY, 0, STATIC
        LOCFRAME DOVERLAY, 0, STATIC
        ARGFRAME ISTACK, 0, STACK
        ARGFRAME PSTACK, 0, STACK
        ARGFRAME XSTACK, 10, STACK
        ARGFRAME IOVERLAY, 0, STATIC
        ARGFRAME DOVERLAY, 0, STATIC
        FUNCALL zll_InitVariables, osal_nv_write
        LOCFRAME ISTACK, 0, STACK
        LOCFRAME PSTACK, 0, STACK
        LOCFRAME XSTACK, 14, STACK
        LOCFRAME IOVERLAY, 0, STATIC
        LOCFRAME DOVERLAY, 0, STATIC
        ARGFRAME ISTACK, 0, STACK
        ARGFRAME PSTACK, 0, STACK
        ARGFRAME XSTACK, 14, STACK
        ARGFRAME IOVERLAY, 0, STATIC
        ARGFRAME DOVERLAY, 0, STATIC
        FUNCALL zll_InitVariables, zll_InitFreeRanges
        LOCFRAME ISTACK, 0, STACK
        LOCFRAME PSTACK, 0, STACK
        LOCFRAME XSTACK, 10, STACK
        LOCFRAME IOVERLAY, 0, STATIC
        LOCFRAME DOVERLAY, 0, STATIC
        ARGFRAME ISTACK, 0, STACK
        ARGFRAME PSTACK, 0, STACK
        ARGFRAME XSTACK, 10, STACK
        ARGFRAME IOVERLAY, 0, STATIC
        ARGFRAME DOVERLAY, 0, STATIC
        FUNCALL zll_InitVariables, zll_ItemInit
        LOCFRAME ISTACK, 0, STACK
        LOCFRAME PSTACK, 0, STACK
        LOCFRAME XSTACK, 12, STACK
        LOCFRAME IOVERLAY, 0, STATIC
        LOCFRAME DOVERLAY, 0, STATIC
        ARGFRAME ISTACK, 0, STACK
        ARGFRAME PSTACK, 0, STACK
        ARGFRAME XSTACK, 12, STACK
        ARGFRAME IOVERLAY, 0, STATIC
        ARGFRAME DOVERLAY, 0, STATIC
        FUNCALL zll_InitVariables, zll_ItemInit
        LOCFRAME ISTACK, 0, STACK
        LOCFRAME PSTACK, 0, STACK
        LOCFRAME XSTACK, 12, STACK
        LOCFRAME IOVERLAY, 0, STATIC
        LOCFRAME DOVERLAY, 0, STATIC
        ARGFRAME ISTACK, 0, STACK
        ARGFRAME PSTACK, 0, STACK
        ARGFRAME XSTACK, 12, STACK
        ARGFRAME IOVERLAY, 0, STATIC
        ARGFRAME DOVERLAY, 0, STATIC
        FUNCALL zll_InitVariables, zll_ItemInit
        LOCFRAME ISTACK, 0, STACK
        LOCFRAME PSTACK, 0, STACK
        LOCFRAME XSTACK, 12, STACK
        LOCFRAME IOVERLAY, 0, STATIC
        LOCFRAME DOVERLAY, 0, STATIC
        ARGFRAME ISTACK, 0, STACK
        ARGFRAME PSTACK, 0, STACK
        ARGFRAME XSTACK, 12, STACK
        ARGFRAME IOVERLAY, 0, STATIC
        ARGFRAME DOVERLAY, 0, STATIC
        FUNCALL zll_InitVariables, zll_ItemInit
        LOCFRAME ISTACK, 0, STACK
        LOCFRAME PSTACK, 0, STACK
        LOCFRAME XSTACK, 12, STACK
        LOCFRAME IOVERLAY, 0, STATIC
        LOCFRAME DOVERLAY, 0, STATIC
        ARGFRAME ISTACK, 0, STACK
        ARGFRAME PSTACK, 0, STACK
        ARGFRAME XSTACK, 12, STACK
        ARGFRAME IOVERLAY, 0, STATIC
        ARGFRAME DOVERLAY, 0, STATIC
        FUNCALL zll_InitVariables, zll_ItemInit
        LOCFRAME ISTACK, 0, STACK
        LOCFRAME PSTACK, 0, STACK
        LOCFRAME XSTACK, 12, STACK
        LOCFRAME IOVERLAY, 0, STATIC
        LOCFRAME DOVERLAY, 0, STATIC
        ARGFRAME ISTACK, 0, STACK
        ARGFRAME PSTACK, 0, STACK
        ARGFRAME XSTACK, 12, STACK
        ARGFRAME IOVERLAY, 0, STATIC
        ARGFRAME DOVERLAY, 0, STATIC
        FUNCALL zll_InitVariables, zll_ItemInit
        LOCFRAME ISTACK, 0, STACK
        LOCFRAME PSTACK, 0, STACK
        LOCFRAME XSTACK, 12, STACK
        LOCFRAME IOVERLAY, 0, STATIC
        LOCFRAME DOVERLAY, 0, STATIC
        ARGFRAME ISTACK, 0, STACK
        ARGFRAME PSTACK, 0, STACK
        ARGFRAME XSTACK, 12, STACK
        ARGFRAME IOVERLAY, 0, STATIC
        ARGFRAME DOVERLAY, 0, STATIC
        FUNCALL zll_InitVariables, osal_memset
        LOCFRAME ISTACK, 0, STACK
        LOCFRAME PSTACK, 0, STACK
        LOCFRAME XSTACK, 10, STACK
        LOCFRAME IOVERLAY, 0, STATIC
        LOCFRAME DOVERLAY, 0, STATIC
        ARGFRAME ISTACK, 0, STACK
        ARGFRAME PSTACK, 0, STACK
        ARGFRAME XSTACK, 10, STACK
        ARGFRAME IOVERLAY, 0, STATIC
        ARGFRAME DOVERLAY, 0, STATIC
        FUNCALL zll_InitVariables, zll_SetTCLK
        LOCFRAME ISTACK, 0, STACK
        LOCFRAME PSTACK, 0, STACK
        LOCFRAME XSTACK, 10, STACK
        LOCFRAME IOVERLAY, 0, STATIC
        LOCFRAME DOVERLAY, 0, STATIC
        ARGFRAME ISTACK, 0, STACK
        ARGFRAME PSTACK, 0, STACK
        ARGFRAME XSTACK, 10, STACK
        ARGFRAME IOVERLAY, 0, STATIC
        ARGFRAME DOVERLAY, 0, STATIC
        FUNCALL zll_InitVariables, NLME_SetBroadcastFilter
        LOCFRAME ISTACK, 0, STACK
        LOCFRAME PSTACK, 0, STACK
        LOCFRAME XSTACK, 10, STACK
        LOCFRAME IOVERLAY, 0, STATIC
        LOCFRAME DOVERLAY, 0, STATIC
        ARGFRAME ISTACK, 0, STACK
        ARGFRAME PSTACK, 0, STACK
        ARGFRAME XSTACK, 10, STACK
        ARGFRAME IOVERLAY, 0, STATIC
        ARGFRAME DOVERLAY, 0, STATIC
        MOV     A,#-0xa
        LCALL   ?BANKED_ENTER_XDATA
          CFI DPH0 load(1, XDATA, add(CFA_XSP16, literal(-1)))
          CFI DPL0 load(1, XDATA, add(CFA_XSP16, literal(-2)))
          CFI ?BRET_EXT load(1, XDATA, add(CFA_XSP16, literal(-3)))
          CFI ?RET_HIGH load(1, XDATA, add(CFA_XSP16, literal(-4)))
          CFI ?RET_LOW load(1, XDATA, add(CFA_XSP16, literal(-5)))
          CFI R7 load(1, XDATA, add(CFA_XSP16, literal(-6)))
          CFI V1 load(1, XDATA, add(CFA_XSP16, literal(-7)))
          CFI V0 load(1, XDATA, add(CFA_XSP16, literal(-8)))
          CFI VB load(1, XDATA, add(CFA_XSP16, literal(-9)))
          CFI R6 load(1, XDATA, add(CFA_XSP16, literal(-10)))
          CFI CFA_SP SP+0
          CFI CFA_XSP16 add(XSP16, 10)
        ; Saved register size: 10
        ; Auto size: 0
        MOV     A,R1
        MOV     R6,A
//  216   zllTransID = 0;
        MOV     DPTR,#zllTransID
        CLR     A
        MOVX    @DPTR,A
        INC     DPTR
        MOVX    @DPTR,A
        INC     DPTR
        MOVX    @DPTR,A
        INC     DPTR
        MOVX    @DPTR,A
//  217   zllJoinedHANetwork = FALSE;
        MOV     DPTR,#zllJoinedHANetwork
        MOVX    @DPTR,A
//  218   zllIsInitiator = initiator;
        MOV     A,R6
        MOV     DPTR,#zllIsInitiator
        MOVX    @DPTR,A
//  219 
//  220   if ( zll_IsFactoryNew() )
        ; Setup parameters for call to function zll_IsFactoryNew
        LCALL   ??zll_IsFactoryNew?relay
        MOV     A,R1
        JZ      ??zll_InitVariables_0
//  221   {
//  222     _NIB.nwkDevAddress = INVALID_NODE_ADDR;
        MOV     DPTR,#_NIB + 20
        MOV     A,#-0x2
        MOVX    @DPTR,A
        INC     DPTR
        INC     A
        SJMP    ??zll_InitVariables_1
//  223   }
//  224   else
//  225   {
//  226     if ( !APSME_IsDistributedSecurity() )
??zll_InitVariables_0:
        ; Setup parameters for call to function APSME_IsDistributedSecurity
        LCALL   ??APSME_IsDistributedSecurity?relay
        MOV     A,R1
        JNZ     ??zll_InitVariables_2
//  227     {
//  228       zllJoinedHANetwork = TRUE;
        MOV     DPTR,#zllJoinedHANetwork
        MOV     A,#0x1
??zll_InitVariables_1:
        MOVX    @DPTR,A
//  229     }
//  230   }
//  231 
//  232   // verify groups communication is initiated by broadcasts rather than multicasts
//  233   _NIB.nwkUseMultiCast = FALSE;
??zll_InitVariables_2:
        MOV     DPTR,#_NIB + 100
        CLR     A
        MOVX    @DPTR,A
//  234   // detect and remove stored deprecated end device children after power up
//  235   zgRouterOffAssocCleanup = TRUE;
        MOV     DPTR,#zgRouterOffAssocCleanup
        INC     A
        MOVX    @DPTR,A
//  236   osal_nv_write(ZCD_NV_ROUTER_OFF_ASSOC_CLEANUP, 0, sizeof(zgRouterOffAssocCleanup), &zgRouterOffAssocCleanup);
        ; Setup parameters for call to function osal_nv_write
        MOV     ?V0 + 0,#zgRouterOffAssocCleanup & 0xff
        MOV     ?V0 + 1,#(zgRouterOffAssocCleanup >> 8) & 0xff
        MOV     R0,#?V0 + 0
        LCALL   ?PUSH_XSTACK_I_TWO
          CFI CFA_XSP16 add(XSP16, 12)
        MOV     ?V0 + 0,#0x1
        MOV     ?V0 + 1,#0x0
        MOV     R0,#?V0 + 0
        LCALL   ?PUSH_XSTACK_I_TWO
          CFI CFA_XSP16 add(XSP16, 14)
        MOV     R4,#0x0
        MOV     R5,#0x0
        MOV     R2,#0x3c
        MOV     R3,#0x0
        LCALL   ??osal_nv_write?relay
        MOV     A,#0x4
        LCALL   ?DEALLOC_XSTACK8
          CFI CFA_XSP16 add(XSP16, 10)
//  237 
//  238   zll_InitFreeRanges( initiator );
        ; Setup parameters for call to function zll_InitFreeRanges
        MOV     A,R6
        MOV     R1,A
        LCALL   ??zll_InitFreeRanges?relay
//  239 
//  240   zll_InitNV();
        ; Setup parameters for call to function zll_ItemInit
        MOV     ?V0 + 0,#zllFreeNwkAddrBegin & 0xff
        MOV     ?V0 + 1,#(zllFreeNwkAddrBegin >> 8) & 0xff
        MOV     R0,#?V0 + 0
        LCALL   ?PUSH_XSTACK_I_TWO
          CFI CFA_XSP16 add(XSP16, 12)
        MOV     R4,#0x2
        MOV     R5,#0x0
        MOV     R2,#-0x6e
        MOV     R3,#0x0
        LCALL   ??zll_ItemInit?relay
        MOV     A,#0x2
        LCALL   ?DEALLOC_XSTACK8
          CFI CFA_XSP16 add(XSP16, 10)
        ; Setup parameters for call to function zll_ItemInit
        MOV     ?V0 + 0,#zllFreeNwkAddrEnd & 0xff
        MOV     ?V0 + 1,#(zllFreeNwkAddrEnd >> 8) & 0xff
        MOV     R0,#?V0 + 0
        LCALL   ?PUSH_XSTACK_I_TWO
          CFI CFA_XSP16 add(XSP16, 12)
        MOV     R4,#0x2
        MOV     R5,#0x0
        MOV     R2,#-0x6d
        MOV     R3,#0x0
        LCALL   ??zll_ItemInit?relay
        MOV     A,#0x2
        LCALL   ?DEALLOC_XSTACK8
          CFI CFA_XSP16 add(XSP16, 10)
        ; Setup parameters for call to function zll_ItemInit
        MOV     ?V0 + 0,#zllFreeGrpIdBegin & 0xff
        MOV     ?V0 + 1,#(zllFreeGrpIdBegin >> 8) & 0xff
        MOV     R0,#?V0 + 0
        LCALL   ?PUSH_XSTACK_I_TWO
          CFI CFA_XSP16 add(XSP16, 12)
        MOV     R4,#0x2
        MOV     R5,#0x0
        MOV     R2,#-0x6c
        MOV     R3,#0x0
        LCALL   ??zll_ItemInit?relay
        MOV     A,#0x2
        LCALL   ?DEALLOC_XSTACK8
          CFI CFA_XSP16 add(XSP16, 10)
        ; Setup parameters for call to function zll_ItemInit
        MOV     ?V0 + 0,#zllFreeGrpIdEnd & 0xff
        MOV     ?V0 + 1,#(zllFreeGrpIdEnd >> 8) & 0xff
        MOV     R0,#?V0 + 0
        LCALL   ?PUSH_XSTACK_I_TWO
          CFI CFA_XSP16 add(XSP16, 12)
        MOV     R4,#0x2
        MOV     R5,#0x0
        MOV     R2,#-0x6b
        MOV     R3,#0x0
        LCALL   ??zll_ItemInit?relay
        MOV     A,#0x2
        LCALL   ?DEALLOC_XSTACK8
          CFI CFA_XSP16 add(XSP16, 10)
        ; Setup parameters for call to function zll_ItemInit
        MOV     ?V0 + 0,#zllGrpIDsBegin & 0xff
        MOV     ?V0 + 1,#(zllGrpIDsBegin >> 8) & 0xff
        MOV     R0,#?V0 + 0
        LCALL   ?PUSH_XSTACK_I_TWO
          CFI CFA_XSP16 add(XSP16, 12)
        MOV     R4,#0x2
        MOV     R5,#0x0
        MOV     R2,#-0x6a
        MOV     R3,#0x0
        LCALL   ??zll_ItemInit?relay
        MOV     A,#0x2
        LCALL   ?DEALLOC_XSTACK8
          CFI CFA_XSP16 add(XSP16, 10)
        ; Setup parameters for call to function zll_ItemInit
        MOV     ?V0 + 0,#zllGrpIDsEnd & 0xff
        MOV     ?V0 + 1,#(zllGrpIDsEnd >> 8) & 0xff
        MOV     R0,#?V0 + 0
        LCALL   ?PUSH_XSTACK_I_TWO
          CFI CFA_XSP16 add(XSP16, 12)
        MOV     R4,#0x2
        MOV     R5,#0x0
        MOV     R2,#-0x69
        MOV     R3,#0x0
        LCALL   ??zll_ItemInit?relay
        MOV     A,#0x2
        LCALL   ?DEALLOC_XSTACK8
          CFI CFA_XSP16 add(XSP16, 10)
//  241 
//  242   zllLeaveInitiated = FALSE;
        MOV     DPTR,#zllLeaveInitiated
        CLR     A
        MOVX    @DPTR,A
//  243   zllHAScanInitiated = FALSE;
        MOV     DPTR,#zllHAScanInitiated
        MOVX    @DPTR,A
//  244 
//  245   // Initialize device info table
//  246   osal_memset( zllSubDevicesTbl, 0, sizeof( zllSubDevicesTbl ) );
        ; Setup parameters for call to function osal_memset
        MOV     R4,#0xa
        MOV     R5,A
        MOV     R1,A
        MOV     R2,#zllSubDevicesTbl & 0xff
        MOV     R3,#(zllSubDevicesTbl >> 8) & 0xff
        LCALL   ??osal_memset?relay
//  247 
//  248   //set ZLL default Link Key
//  249   zll_SetTCLK();
        ; Setup parameters for call to function zll_SetTCLK
        LCALL   ??zll_SetTCLK?relay
//  250 
//  251   // set broadcast address mask to support broadcast filtering
//  252   NLME_SetBroadcastFilter( ZDO_Config_Node_Descriptor.CapabilityFlags );
        ; Setup parameters for call to function NLME_SetBroadcastFilter
        MOV     DPTR,#ZDO_Config_Node_Descriptor + 2
        MOVX    A,@DPTR
        MOV     R1,A
        LCALL   ??NLME_SetBroadcastFilter?relay
//  253 }
        LJMP    ??Subroutine36_0 & 0xFFFF
          CFI EndBlock cfiBlock1
//  254 
//  255 /*********************************************************************
//  256  * @fn      zll_InitFreeRanges
//  257  *
//  258  * @brief   Initialize the ZLL free range global variables.
//  259  *
//  260  * @param   initiator - if caller is link initiator
//  261  *
//  262  * @return  none
//  263  */

        RSEG BANKED_CODE:CODE:NOROOT(0)
//  264 static void zll_InitFreeRanges( bool initiator )
zll_InitFreeRanges:
          CFI Block cfiBlock2 Using cfiCommon0
          CFI Function zll_InitFreeRanges
        CODE
//  265 {
        PUSH    DPL
          CFI DPL0 Frame(CFA_SP, 4)
          CFI CFA_SP SP+-4
        PUSH    DPH
          CFI DPH0 Frame(CFA_SP, 5)
          CFI CFA_SP SP+-5
        ; Saved register size: 2
        ; Auto size: 0
//  266   // Initialize our free network address and group ID ranges
//  267   if ( initiator )
        MOV     A,R1
        JZ      ??zll_InitFreeRanges_0
//  268   {
//  269     zllFreeNwkAddrBegin = ZLL_ADDR_MIN;
        MOV     DPTR,#zllFreeNwkAddrBegin
        MOV     A,#0x1
        MOVX    @DPTR,A
        INC     DPTR
        CLR     A
        MOVX    @DPTR,A
//  270     zllFreeNwkAddrEnd = ZLL_ADDR_MAX;
        MOV     DPTR,#zllFreeNwkAddrEnd
        MOV     A,#-0x9
        MOVX    @DPTR,A
        INC     DPTR
        MOV     A,#-0x1
        MOVX    @DPTR,A
//  271 
//  272     zllFreeGrpIdBegin = ZLL_GRP_ID_MIN;
        MOV     DPTR,#zllFreeGrpIdBegin
        MOV     A,#0x1
        MOVX    @DPTR,A
        INC     DPTR
        CLR     A
        MOVX    @DPTR,A
//  273     zllFreeGrpIdEnd = ZLL_GRP_ID_MAX;
        MOV     DPTR,#zllFreeGrpIdEnd
        MOV     A,#-0x1
        MOVX    @DPTR,A
        INC     DPTR
        DEC     A
        SJMP    ??CrossCallReturnLabel_32
//  274   }
//  275   else
//  276   {
//  277     zllFreeNwkAddrBegin = zllFreeNwkAddrEnd = 0;
??zll_InitFreeRanges_0:
        MOV     DPTR,#zllFreeNwkAddrEnd
        CLR     A
        LCALL   ?Subroutine23 & 0xFFFF
//  278     zllFreeGrpIdBegin = zllFreeGrpIdEnd = 0;
??CrossCallReturnLabel_28:
        MOV     DPTR,#zllFreeGrpIdEnd
        LCALL   ?Subroutine25 & 0xFFFF
//  279   }
??CrossCallReturnLabel_32:
        MOVX    @DPTR,A
//  280 
//  281   // Initialize our local group ID range
//  282   zllGrpIDsBegin = zllGrpIDsEnd = 0;
        MOV     DPTR,#zllGrpIDsEnd
        CLR     A
        MOVX    @DPTR,A
        INC     DPTR
        MOVX    @DPTR,A
        MOV     DPTR,#zllGrpIDsBegin
        MOVX    @DPTR,A
        INC     DPTR
        MOVX    @DPTR,A
//  283 }
        LJMP    ??Subroutine39_0 & 0xFFFF
          CFI EndBlock cfiBlock2
//  284 
//  285 /*********************************************************************
//  286  * @fn      zll_RegisterApp
//  287  *
//  288  * @brief   Register an Application's EndPoint with the ZLL.
//  289  *
//  290  * @param   simpleDesc - application simple description
//  291  * @param   numGrpIDs - number of unique group IDs required by application
//  292  *
//  293  * @return  ZSuccess - Registered
//  294  *          ZInvalidParameter - invalid or duplicate endpoint
//  295  *          ZMemError - not enough memory to add
//  296  */

        RSEG BANKED_CODE:CODE:NOROOT(0)
//  297 ZStatus_t zll_RegisterApp( SimpleDescriptionFormat_t *simpleDesc, zclLLDeviceInfo_t *pDeviceInfo )
zll_RegisterApp:
          CFI Block cfiBlock3 Using cfiCommon0
          CFI Function zll_RegisterApp
        CODE
//  298 {
        FUNCALL zll_RegisterApp, zll_RegisterSimpleDesc
        LOCFRAME ISTACK, 0, STACK
        LOCFRAME PSTACK, 0, STACK
        LOCFRAME XSTACK, 10, STACK
        LOCFRAME IOVERLAY, 0, STATIC
        LOCFRAME DOVERLAY, 0, STATIC
        ARGFRAME ISTACK, 0, STACK
        ARGFRAME PSTACK, 0, STACK
        ARGFRAME XSTACK, 10, STACK
        ARGFRAME IOVERLAY, 0, STATIC
        ARGFRAME DOVERLAY, 0, STATIC
        MOV     A,#-0xa
        LCALL   ?BANKED_ENTER_XDATA
          CFI DPH0 load(1, XDATA, add(CFA_XSP16, literal(-1)))
          CFI DPL0 load(1, XDATA, add(CFA_XSP16, literal(-2)))
          CFI ?BRET_EXT load(1, XDATA, add(CFA_XSP16, literal(-3)))
          CFI ?RET_HIGH load(1, XDATA, add(CFA_XSP16, literal(-4)))
          CFI ?RET_LOW load(1, XDATA, add(CFA_XSP16, literal(-5)))
          CFI R7 load(1, XDATA, add(CFA_XSP16, literal(-6)))
          CFI V1 load(1, XDATA, add(CFA_XSP16, literal(-7)))
          CFI V0 load(1, XDATA, add(CFA_XSP16, literal(-8)))
          CFI VB load(1, XDATA, add(CFA_XSP16, literal(-9)))
          CFI R6 load(1, XDATA, add(CFA_XSP16, literal(-10)))
          CFI CFA_SP SP+0
          CFI CFA_XSP16 add(XSP16, 10)
        ; Saved register size: 10
        ; Auto size: 0
        MOV     ?V0 + 0,R4
        MOV     ?V0 + 1,R5
//  299   zclLLDeviceInfo_t **pSubDevice = NULL;
//  300   ZStatus_t status;
//  301 
//  302   // Make sure the endpoint is valid
//  303   if ( ( simpleDesc->EndPoint != pDeviceInfo->endpoint ) || ( pDeviceInfo->profileID != ZLL_PROFILE_ID ) )
        MOV     DPL,R2
        MOV     DPH,R3
        MOVX    A,@DPTR
        MOV     R0,A
        MOV     DPL,R4
        MOV     DPH,R5
        MOVX    A,@DPTR
        XRL     A,R0
        JNZ     ??zll_RegisterApp_0
        INC     DPTR
        MOVX    A,@DPTR
        XRL     A,#0x5e
        JNZ     ??zll_RegisterApp_1
        INC     DPTR
        MOVX    A,@DPTR
        XRL     A,#0xc0
??zll_RegisterApp_1:
        JZ      ??zll_RegisterApp_2
//  304   {
//  305     return ( ZInvalidParameter ); // invalid endpoint
??zll_RegisterApp_0:
        MOV     R1,#0x2
        SJMP    ??zll_RegisterApp_3
//  306   }
//  307 
//  308   // find the first empty entry in the device info table
//  309   for ( uint8 i = 0; i < ZLL_NUM_DEVICE_INFO_ENTRIES; i++ )
??zll_RegisterApp_2:
        MOV     R6,#0x0
//  310   {
//  311     if ( zllSubDevicesTbl[i] == NULL )
??zll_RegisterApp_4:
        MOV     A,R6
        CLR     C
        RLC     A
        MOV     R0,A
        CLR     A
        RLC     A
        MOV     R1,A
        MOV     A,#zllSubDevicesTbl & 0xff
        ADD     A,R0
        MOV     R0,A
        MOV     A,#(zllSubDevicesTbl >> 8) & 0xff
        ADDC    A,R1
        MOV     R1,A
        MOV     DPL,R0
        MOV     DPH,R1
        LCALL   ??Subroutine44_0 & 0xFFFF
??CrossCallReturnLabel_105:
        MOV     A,R4
        ORL     A,R5
        JNZ     ??zll_RegisterApp_5
//  312     {
//  313        pSubDevice = zllSubDevicesTbl+i;
        MOV     A,R0
        MOV     R6,A
        MOV     A,R1
        MOV     R7,A
//  314        break;
//  315     }
//  316   }
//  317   if ( pSubDevice == NULL )
//  318   {
//  319     // Device info table is full
//  320     return ( ZMemError );
//  321   }
//  322 
//  323   status = zll_RegisterSimpleDesc( simpleDesc );
        ; Setup parameters for call to function zll_RegisterSimpleDesc
        LCALL   ??zll_RegisterSimpleDesc?relay
        MOV     A,R1
//  324   if ( status != ZSuccess )
        JNZ     ??zll_RegisterApp_3
//  325   {
//  326     return status;
//  327   }
//  328 
//  329   // Add the device info to the table
//  330   *pSubDevice = pDeviceInfo;
        MOV     DPL,R6
        MOV     DPH,R7
        MOV     A,?V0 + 0
        MOVX    @DPTR,A
        INC     DPTR
        MOV     A,?V0 + 1
        MOVX    @DPTR,A
//  331 
//  332   return ( ZSuccess );
        MOV     R1,#0x0
??zll_RegisterApp_3:
        LJMP    ??Subroutine36_0 & 0xFFFF
??zll_RegisterApp_5:
        INC     R6
        MOV     A,R6
        CLR     C
        SUBB    A,#0x5
        JC      ??zll_RegisterApp_4
        MOV     R1,#0x10
        SJMP    ??zll_RegisterApp_3
          CFI EndBlock cfiBlock3
//  333 }
//  334 
//  335 /*********************************************************************
//  336  * @fn      zll_IsFactoryNew
//  337  *
//  338  * @brief   Check to see if the device is factory new.
//  339  *
//  340  * @param   none
//  341  *
//  342  * @return  TRUE if factory new. FALSE, otherwise.
//  343  */

        RSEG BANKED_CODE:CODE:NOROOT(0)
//  344 bool zll_IsFactoryNew( void )
zll_IsFactoryNew:
          CFI Block cfiBlock4 Using cfiCommon0
          CFI Function zll_IsFactoryNew
        CODE
//  345 {
        FUNCALL zll_IsFactoryNew, osal_nv_read
        LOCFRAME ISTACK, 0, STACK
        LOCFRAME PSTACK, 0, STACK
        LOCFRAME XSTACK, 16, STACK
        LOCFRAME IOVERLAY, 0, STATIC
        LOCFRAME DOVERLAY, 0, STATIC
        ARGFRAME ISTACK, 0, STACK
        ARGFRAME PSTACK, 0, STACK
        ARGFRAME XSTACK, 16, STACK
        ARGFRAME IOVERLAY, 0, STATIC
        ARGFRAME DOVERLAY, 0, STATIC
        MOV     A,#-0xa
        LCALL   ?BANKED_ENTER_XDATA
          CFI DPH0 load(1, XDATA, add(CFA_XSP16, literal(-1)))
          CFI DPL0 load(1, XDATA, add(CFA_XSP16, literal(-2)))
          CFI ?BRET_EXT load(1, XDATA, add(CFA_XSP16, literal(-3)))
          CFI ?RET_HIGH load(1, XDATA, add(CFA_XSP16, literal(-4)))
          CFI ?RET_LOW load(1, XDATA, add(CFA_XSP16, literal(-5)))
          CFI R7 load(1, XDATA, add(CFA_XSP16, literal(-6)))
          CFI V1 load(1, XDATA, add(CFA_XSP16, literal(-7)))
          CFI V0 load(1, XDATA, add(CFA_XSP16, literal(-8)))
          CFI VB load(1, XDATA, add(CFA_XSP16, literal(-9)))
          CFI R6 load(1, XDATA, add(CFA_XSP16, literal(-10)))
          CFI CFA_SP SP+0
          CFI CFA_XSP16 add(XSP16, 10)
        ; Saved register size: 10
        ; Auto size: 2
        MOV     A,#-0x2
        LCALL   ?ALLOC_XSTACK8
          CFI CFA_XSP16 add(XSP16, 12)
//  346   uint16 nwkAddr = INVALID_NODE_ADDR;
        MOV     DPL,?XSP + 0
        MOV     DPH,?XSP + 1
        LCALL   ?Subroutine26 & 0xFFFF
//  347 
//  348   osal_nv_read( ZCD_NV_NIB, osal_offsetof( nwkIB_t, nwkDevAddress ),
//  349                 sizeof( uint16), &nwkAddr );
??CrossCallReturnLabel_49:
        ; Setup parameters for call to function osal_nv_read
        MOV     DPL,?XSP + 0
        MOV     DPH,?XSP + 1
        MOV     ?V0 + 0,DPL
        MOV     ?V0 + 1,DPH
        MOV     R0,#?V0 + 0
        LCALL   ?PUSH_XSTACK_I_TWO
          CFI CFA_XSP16 add(XSP16, 14)
        MOV     ?V0 + 0,#0x2
        MOV     ?V0 + 1,#0x0
        MOV     R0,#?V0 + 0
        LCALL   ?PUSH_XSTACK_I_TWO
          CFI CFA_XSP16 add(XSP16, 16)
        MOV     R4,#0x14
        MOV     R5,#0x0
        MOV     R2,#0x21
        MOV     R3,#0x0
        LCALL   ??osal_nv_read?relay
        MOV     A,#0x4
        LCALL   ?DEALLOC_XSTACK8
          CFI CFA_XSP16 add(XSP16, 12)
//  350 
//  351   // Does the NIB have anything more than default?
//  352   return ( nwkAddr == INVALID_NODE_ADDR ? TRUE : FALSE );
        MOV     DPL,?XSP + 0
        MOV     DPH,?XSP + 1
        MOVX    A,@DPTR
        XRL     A,#0xfe
        JNZ     ??zll_IsFactoryNew_0
        INC     DPTR
        MOVX    A,@DPTR
        CPL     A
??zll_IsFactoryNew_0:
        JNZ     ??zll_IsFactoryNew_1
        MOV     R1,#0x1
        SJMP    ??zll_IsFactoryNew_2
??zll_IsFactoryNew_1:
        MOV     R1,#0x0
??zll_IsFactoryNew_2:
        MOV     A,#0x2
        LJMP    ?Subroutine0 & 0xFFFF
          CFI EndBlock cfiBlock4
//  353 }

        RSEG BANKED_CODE:CODE:NOROOT(0)
?Subroutine26:
          CFI Block cfiCond5 Using cfiCommon0
          CFI Function zll_IsFactoryNew
          CFI Conditional ??CrossCallReturnLabel_49
          CFI R6 load(1, XDATA, add(CFA_XSP16, literal(-10)))
          CFI VB load(1, XDATA, add(CFA_XSP16, literal(-9)))
          CFI V0 load(1, XDATA, add(CFA_XSP16, literal(-8)))
          CFI V1 load(1, XDATA, add(CFA_XSP16, literal(-7)))
          CFI R7 load(1, XDATA, add(CFA_XSP16, literal(-6)))
          CFI ?RET_LOW load(1, XDATA, add(CFA_XSP16, literal(-5)))
          CFI ?RET_HIGH load(1, XDATA, add(CFA_XSP16, literal(-4)))
          CFI ?BRET_EXT load(1, XDATA, add(CFA_XSP16, literal(-3)))
          CFI DPL0 load(1, XDATA, add(CFA_XSP16, literal(-2)))
          CFI DPH0 load(1, XDATA, add(CFA_XSP16, literal(-1)))
          CFI CFA_SP SP+0
          CFI CFA_XSP16 add(XSP16, 12)
          CFI Block cfiCond6 Using cfiCommon0
          CFI (cfiCond6) Function zll_SetNIB
          CFI (cfiCond6) Conditional ??CrossCallReturnLabel_50
          CFI (cfiCond6) R6 load(1, XDATA, add(CFA_XSP16, literal(-13)))
          CFI (cfiCond6) VB load(1, XDATA, add(CFA_XSP16, literal(-12)))
          CFI (cfiCond6) V0 load(1, XDATA, add(CFA_XSP16, literal(-11)))
          CFI (cfiCond6) V1 load(1, XDATA, add(CFA_XSP16, literal(-10)))
          CFI (cfiCond6) V2 load(1, XDATA, add(CFA_XSP16, literal(-9)))
          CFI (cfiCond6) V3 load(1, XDATA, add(CFA_XSP16, literal(-8)))
          CFI (cfiCond6) V4 load(1, XDATA, add(CFA_XSP16, literal(-7)))
          CFI (cfiCond6) R7 load(1, XDATA, add(CFA_XSP16, literal(-6)))
          CFI (cfiCond6) ?RET_LOW load(1, XDATA, add(CFA_XSP16, literal(-5)))
          CFI (cfiCond6) ?RET_HIGH load(1, XDATA, add(CFA_XSP16, literal(-4)))
          CFI (cfiCond6) ?BRET_EXT load(1, XDATA, add(CFA_XSP16, literal(-3)))
          CFI (cfiCond6) DPL0 load(1, XDATA, add(CFA_XSP16, literal(-2)))
          CFI (cfiCond6) DPH0 load(1, XDATA, add(CFA_XSP16, literal(-1)))
          CFI (cfiCond6) CFA_SP SP+0
          CFI (cfiCond6) CFA_XSP16 add(XSP16, 13)
          CFI Block cfiCond7 Using cfiCommon0
          CFI (cfiCond7) Function zll_ResetToFactoryNew
          CFI (cfiCond7) Conditional ??CrossCallReturnLabel_51
          CFI (cfiCond7) R6 load(1, XDATA, add(CFA_XSP16, literal(-9)))
          CFI (cfiCond7) VB load(1, XDATA, add(CFA_XSP16, literal(-8)))
          CFI (cfiCond7) V0 load(1, XDATA, add(CFA_XSP16, literal(-7)))
          CFI (cfiCond7) R7 load(1, XDATA, add(CFA_XSP16, literal(-6)))
          CFI (cfiCond7) ?RET_LOW load(1, XDATA, add(CFA_XSP16, literal(-5)))
          CFI (cfiCond7) ?RET_HIGH load(1, XDATA, add(CFA_XSP16, literal(-4)))
          CFI (cfiCond7) ?BRET_EXT load(1, XDATA, add(CFA_XSP16, literal(-3)))
          CFI (cfiCond7) DPL0 load(1, XDATA, add(CFA_XSP16, literal(-2)))
          CFI (cfiCond7) DPH0 load(1, XDATA, add(CFA_XSP16, literal(-1)))
          CFI (cfiCond7) CFA_SP SP+0
          CFI (cfiCond7) CFA_XSP16 add(XSP16, 9)
          CFI Block cfiCond8 Using cfiCommon0
          CFI (cfiCond8) Function zll_BeaconIndCB
          CFI (cfiCond8) Conditional ??CrossCallReturnLabel_52
          CFI (cfiCond8) R6 load(1, XDATA, add(CFA_XSP16, literal(-20)))
          CFI (cfiCond8) VB load(1, XDATA, add(CFA_XSP16, literal(-19)))
          CFI (cfiCond8) V0 load(1, XDATA, add(CFA_XSP16, literal(-18)))
          CFI (cfiCond8) V1 load(1, XDATA, add(CFA_XSP16, literal(-17)))
          CFI (cfiCond8) V2 load(1, XDATA, add(CFA_XSP16, literal(-16)))
          CFI (cfiCond8) V3 load(1, XDATA, add(CFA_XSP16, literal(-15)))
          CFI (cfiCond8) V4 load(1, XDATA, add(CFA_XSP16, literal(-14)))
          CFI (cfiCond8) V5 load(1, XDATA, add(CFA_XSP16, literal(-13)))
          CFI (cfiCond8) V6 load(1, XDATA, add(CFA_XSP16, literal(-12)))
          CFI (cfiCond8) V7 load(1, XDATA, add(CFA_XSP16, literal(-11)))
          CFI (cfiCond8) V8 load(1, XDATA, add(CFA_XSP16, literal(-10)))
          CFI (cfiCond8) V9 load(1, XDATA, add(CFA_XSP16, literal(-9)))
          CFI (cfiCond8) V10 load(1, XDATA, add(CFA_XSP16, literal(-8)))
          CFI (cfiCond8) V11 load(1, XDATA, add(CFA_XSP16, literal(-7)))
          CFI (cfiCond8) R7 load(1, XDATA, add(CFA_XSP16, literal(-6)))
          CFI (cfiCond8) ?RET_LOW load(1, XDATA, add(CFA_XSP16, literal(-5)))
          CFI (cfiCond8) ?RET_HIGH load(1, XDATA, add(CFA_XSP16, literal(-4)))
          CFI (cfiCond8) ?BRET_EXT load(1, XDATA, add(CFA_XSP16, literal(-3)))
          CFI (cfiCond8) DPL0 load(1, XDATA, add(CFA_XSP16, literal(-2)))
          CFI (cfiCond8) DPH0 load(1, XDATA, add(CFA_XSP16, literal(-1)))
          CFI (cfiCond8) CFA_SP SP+0
          CFI (cfiCond8) CFA_XSP16 add(XSP16, 20)
          CFI Block cfiPicker9 Using cfiCommon1
          CFI (cfiPicker9) NoFunction
          CFI (cfiPicker9) Picker
        MOV     A,#-0x2
          CFI EndBlock cfiCond5
          CFI EndBlock cfiCond6
          CFI EndBlock cfiCond7
          CFI EndBlock cfiCond8
          CFI EndBlock cfiPicker9
        REQUIRE ??Subroutine35_0
        ; // Fall through to label ??Subroutine35_0

        RSEG BANKED_CODE:CODE:NOROOT(0)
??Subroutine35_0:
          CFI Block cfiCond10 Using cfiCommon0
          CFI Function zll_SetNIB
          CFI Conditional ??CrossCallReturnLabel_47
          CFI R6 load(1, XDATA, add(CFA_XSP16, literal(-13)))
          CFI VB load(1, XDATA, add(CFA_XSP16, literal(-12)))
          CFI V0 load(1, XDATA, add(CFA_XSP16, literal(-11)))
          CFI V1 load(1, XDATA, add(CFA_XSP16, literal(-10)))
          CFI V2 load(1, XDATA, add(CFA_XSP16, literal(-9)))
          CFI V3 load(1, XDATA, add(CFA_XSP16, literal(-8)))
          CFI V4 load(1, XDATA, add(CFA_XSP16, literal(-7)))
          CFI R7 load(1, XDATA, add(CFA_XSP16, literal(-6)))
          CFI ?RET_LOW load(1, XDATA, add(CFA_XSP16, literal(-5)))
          CFI ?RET_HIGH load(1, XDATA, add(CFA_XSP16, literal(-4)))
          CFI ?BRET_EXT load(1, XDATA, add(CFA_XSP16, literal(-3)))
          CFI DPL0 load(1, XDATA, add(CFA_XSP16, literal(-2)))
          CFI DPH0 load(1, XDATA, add(CFA_XSP16, literal(-1)))
          CFI CFA_SP SP+0
          CFI CFA_XSP16 add(XSP16, 13)
          CFI Block cfiCond11 Using cfiCommon0
          CFI (cfiCond11) Function zll_ResetToFactoryNew
          CFI (cfiCond11) Conditional ??CrossCallReturnLabel_48
          CFI (cfiCond11) R6 load(1, XDATA, add(CFA_XSP16, literal(-9)))
          CFI (cfiCond11) VB load(1, XDATA, add(CFA_XSP16, literal(-8)))
          CFI (cfiCond11) V0 load(1, XDATA, add(CFA_XSP16, literal(-7)))
          CFI (cfiCond11) R7 load(1, XDATA, add(CFA_XSP16, literal(-6)))
          CFI (cfiCond11) ?RET_LOW load(1, XDATA, add(CFA_XSP16, literal(-5)))
          CFI (cfiCond11) ?RET_HIGH load(1, XDATA, add(CFA_XSP16, literal(-4)))
          CFI (cfiCond11) ?BRET_EXT load(1, XDATA, add(CFA_XSP16, literal(-3)))
          CFI (cfiCond11) DPL0 load(1, XDATA, add(CFA_XSP16, literal(-2)))
          CFI (cfiCond11) DPH0 load(1, XDATA, add(CFA_XSP16, literal(-1)))
          CFI (cfiCond11) CFA_SP SP+0
          CFI (cfiCond11) CFA_XSP16 add(XSP16, 9)
          CFI Block cfiCond12 Using cfiCommon0
          CFI (cfiCond12) Function zll_IsFactoryNew
          CFI (cfiCond12) Conditional ??CrossCallReturnLabel_49
          CFI (cfiCond12) R6 load(1, XDATA, add(CFA_XSP16, literal(-10)))
          CFI (cfiCond12) VB load(1, XDATA, add(CFA_XSP16, literal(-9)))
          CFI (cfiCond12) V0 load(1, XDATA, add(CFA_XSP16, literal(-8)))
          CFI (cfiCond12) V1 load(1, XDATA, add(CFA_XSP16, literal(-7)))
          CFI (cfiCond12) R7 load(1, XDATA, add(CFA_XSP16, literal(-6)))
          CFI (cfiCond12) ?RET_LOW load(1, XDATA, add(CFA_XSP16, literal(-5)))
          CFI (cfiCond12) ?RET_HIGH load(1, XDATA, add(CFA_XSP16, literal(-4)))
          CFI (cfiCond12) ?BRET_EXT load(1, XDATA, add(CFA_XSP16, literal(-3)))
          CFI (cfiCond12) DPL0 load(1, XDATA, add(CFA_XSP16, literal(-2)))
          CFI (cfiCond12) DPH0 load(1, XDATA, add(CFA_XSP16, literal(-1)))
          CFI (cfiCond12) CFA_SP SP+0
          CFI (cfiCond12) CFA_XSP16 add(XSP16, 12)
          CFI Block cfiCond13 Using cfiCommon0
          CFI (cfiCond13) Function zll_SetNIB
          CFI (cfiCond13) Conditional ??CrossCallReturnLabel_50
          CFI (cfiCond13) R6 load(1, XDATA, add(CFA_XSP16, literal(-13)))
          CFI (cfiCond13) VB load(1, XDATA, add(CFA_XSP16, literal(-12)))
          CFI (cfiCond13) V0 load(1, XDATA, add(CFA_XSP16, literal(-11)))
          CFI (cfiCond13) V1 load(1, XDATA, add(CFA_XSP16, literal(-10)))
          CFI (cfiCond13) V2 load(1, XDATA, add(CFA_XSP16, literal(-9)))
          CFI (cfiCond13) V3 load(1, XDATA, add(CFA_XSP16, literal(-8)))
          CFI (cfiCond13) V4 load(1, XDATA, add(CFA_XSP16, literal(-7)))
          CFI (cfiCond13) R7 load(1, XDATA, add(CFA_XSP16, literal(-6)))
          CFI (cfiCond13) ?RET_LOW load(1, XDATA, add(CFA_XSP16, literal(-5)))
          CFI (cfiCond13) ?RET_HIGH load(1, XDATA, add(CFA_XSP16, literal(-4)))
          CFI (cfiCond13) ?BRET_EXT load(1, XDATA, add(CFA_XSP16, literal(-3)))
          CFI (cfiCond13) DPL0 load(1, XDATA, add(CFA_XSP16, literal(-2)))
          CFI (cfiCond13) DPH0 load(1, XDATA, add(CFA_XSP16, literal(-1)))
          CFI (cfiCond13) CFA_SP SP+0
          CFI (cfiCond13) CFA_XSP16 add(XSP16, 13)
          CFI Block cfiCond14 Using cfiCommon0
          CFI (cfiCond14) Function zll_ResetToFactoryNew
          CFI (cfiCond14) Conditional ??CrossCallReturnLabel_51
          CFI (cfiCond14) R6 load(1, XDATA, add(CFA_XSP16, literal(-9)))
          CFI (cfiCond14) VB load(1, XDATA, add(CFA_XSP16, literal(-8)))
          CFI (cfiCond14) V0 load(1, XDATA, add(CFA_XSP16, literal(-7)))
          CFI (cfiCond14) R7 load(1, XDATA, add(CFA_XSP16, literal(-6)))
          CFI (cfiCond14) ?RET_LOW load(1, XDATA, add(CFA_XSP16, literal(-5)))
          CFI (cfiCond14) ?RET_HIGH load(1, XDATA, add(CFA_XSP16, literal(-4)))
          CFI (cfiCond14) ?BRET_EXT load(1, XDATA, add(CFA_XSP16, literal(-3)))
          CFI (cfiCond14) DPL0 load(1, XDATA, add(CFA_XSP16, literal(-2)))
          CFI (cfiCond14) DPH0 load(1, XDATA, add(CFA_XSP16, literal(-1)))
          CFI (cfiCond14) CFA_SP SP+0
          CFI (cfiCond14) CFA_XSP16 add(XSP16, 9)
          CFI Block cfiCond15 Using cfiCommon0
          CFI (cfiCond15) Function zll_BeaconIndCB
          CFI (cfiCond15) Conditional ??CrossCallReturnLabel_52
          CFI (cfiCond15) R6 load(1, XDATA, add(CFA_XSP16, literal(-20)))
          CFI (cfiCond15) VB load(1, XDATA, add(CFA_XSP16, literal(-19)))
          CFI (cfiCond15) V0 load(1, XDATA, add(CFA_XSP16, literal(-18)))
          CFI (cfiCond15) V1 load(1, XDATA, add(CFA_XSP16, literal(-17)))
          CFI (cfiCond15) V2 load(1, XDATA, add(CFA_XSP16, literal(-16)))
          CFI (cfiCond15) V3 load(1, XDATA, add(CFA_XSP16, literal(-15)))
          CFI (cfiCond15) V4 load(1, XDATA, add(CFA_XSP16, literal(-14)))
          CFI (cfiCond15) V5 load(1, XDATA, add(CFA_XSP16, literal(-13)))
          CFI (cfiCond15) V6 load(1, XDATA, add(CFA_XSP16, literal(-12)))
          CFI (cfiCond15) V7 load(1, XDATA, add(CFA_XSP16, literal(-11)))
          CFI (cfiCond15) V8 load(1, XDATA, add(CFA_XSP16, literal(-10)))
          CFI (cfiCond15) V9 load(1, XDATA, add(CFA_XSP16, literal(-9)))
          CFI (cfiCond15) V10 load(1, XDATA, add(CFA_XSP16, literal(-8)))
          CFI (cfiCond15) V11 load(1, XDATA, add(CFA_XSP16, literal(-7)))
          CFI (cfiCond15) R7 load(1, XDATA, add(CFA_XSP16, literal(-6)))
          CFI (cfiCond15) ?RET_LOW load(1, XDATA, add(CFA_XSP16, literal(-5)))
          CFI (cfiCond15) ?RET_HIGH load(1, XDATA, add(CFA_XSP16, literal(-4)))
          CFI (cfiCond15) ?BRET_EXT load(1, XDATA, add(CFA_XSP16, literal(-3)))
          CFI (cfiCond15) DPL0 load(1, XDATA, add(CFA_XSP16, literal(-2)))
          CFI (cfiCond15) DPH0 load(1, XDATA, add(CFA_XSP16, literal(-1)))
          CFI (cfiCond15) CFA_SP SP+0
          CFI (cfiCond15) CFA_XSP16 add(XSP16, 20)
          CFI Block cfiPicker16 Using cfiCommon1
          CFI (cfiPicker16) NoFunction
          CFI (cfiPicker16) Picker
        MOVX    @DPTR,A
        INC     DPTR
        INC     A
        MOVX    @DPTR,A
        RET
          CFI EndBlock cfiCond10
          CFI EndBlock cfiCond11
          CFI EndBlock cfiCond12
          CFI EndBlock cfiCond13
          CFI EndBlock cfiCond14
          CFI EndBlock cfiCond15
          CFI EndBlock cfiPicker16
//  354 
//  355 /*********************************************************************
//  356  * @fn      zll_UpdateFreeRanges
//  357  *
//  358  * @brief   Update the ZLL free range global variables.
//  359  *
//  360  * @param   pParams - new parameters
//  361  *
//  362  * @return  none
//  363  */

        RSEG BANKED_CODE:CODE:NOROOT(0)
//  364 void zll_UpdateFreeRanges( zclLLNwkParams_t *pParams )
zll_UpdateFreeRanges:
          CFI Block cfiBlock17 Using cfiCommon0
          CFI Function zll_UpdateFreeRanges
        CODE
//  365 {
        PUSH    DPL
          CFI DPL0 Frame(CFA_SP, 4)
          CFI CFA_SP SP+-4
        PUSH    DPH
          CFI DPH0 Frame(CFA_SP, 5)
          CFI CFA_SP SP+-5
        ; Saved register size: 2
        ; Auto size: 0
//  366   // Set our free network address and group ID ranges
//  367   zllFreeNwkAddrBegin = pParams->freeNwkAddrBegin;
        MOV     A,R2
        ADD     A,#0x22
        LCALL   ?Subroutine13 & 0xFFFF
??CrossCallReturnLabel_99:
        MOV     DPTR,#zllFreeNwkAddrBegin
        LCALL   ?Subroutine18 & 0xFFFF
//  368   zllFreeNwkAddrEnd = pParams->freeNwkAddrEnd;
??CrossCallReturnLabel_17:
        ADD     A,#0x24
        LCALL   ?Subroutine13 & 0xFFFF
??CrossCallReturnLabel_100:
        MOV     DPTR,#zllFreeNwkAddrEnd
        LCALL   ?Subroutine18 & 0xFFFF
//  369   zllFreeGrpIdBegin = pParams->freeGrpIDBegin;
??CrossCallReturnLabel_18:
        ADD     A,#0x26
        LCALL   ?Subroutine13 & 0xFFFF
??CrossCallReturnLabel_101:
        MOV     DPTR,#zllFreeGrpIdBegin
        LCALL   ?Subroutine18 & 0xFFFF
//  370   zllFreeGrpIdEnd = pParams->freeGrpIDEnd;
??CrossCallReturnLabel_19:
        ADD     A,#0x28
        LCALL   ?Subroutine13 & 0xFFFF
??CrossCallReturnLabel_102:
        MOV     DPTR,#zllFreeGrpIdEnd
        LCALL   ?Subroutine18 & 0xFFFF
//  371 
//  372   // Set our group ID range
//  373   zllGrpIDsBegin = pParams->grpIDsBegin;
??CrossCallReturnLabel_20:
        ADD     A,#0x1e
        LCALL   ?Subroutine13 & 0xFFFF
??CrossCallReturnLabel_103:
        MOV     DPTR,#zllGrpIDsBegin
        LCALL   ?Subroutine18 & 0xFFFF
//  374   zllGrpIDsEnd = pParams->grpIDsEnd;
??CrossCallReturnLabel_21:
        ADD     A,#0x20
        LCALL   ?Subroutine13 & 0xFFFF
??CrossCallReturnLabel_104:
        MOV     DPTR,#zllGrpIDsEnd
        LCALL   ?Subroutine19 & 0xFFFF
//  375 }
??CrossCallReturnLabel_56:
        LJMP    ??Subroutine39_0 & 0xFFFF
          CFI EndBlock cfiBlock17

        RSEG BANKED_CODE:CODE:NOROOT(0)
?Subroutine18:
          CFI Block cfiCond18 Using cfiCommon0
          CFI Function zll_UpdateFreeRanges
          CFI Conditional ??CrossCallReturnLabel_17
          CFI DPL0 Frame(CFA_SP, 4)
          CFI DPH0 Frame(CFA_SP, 5)
          CFI CFA_SP SP+-5
          CFI Block cfiCond19 Using cfiCommon0
          CFI (cfiCond19) Function zll_UpdateFreeRanges
          CFI (cfiCond19) Conditional ??CrossCallReturnLabel_18
          CFI (cfiCond19) DPL0 Frame(CFA_SP, 4)
          CFI (cfiCond19) DPH0 Frame(CFA_SP, 5)
          CFI (cfiCond19) CFA_SP SP+-5
          CFI Block cfiCond20 Using cfiCommon0
          CFI (cfiCond20) Function zll_UpdateFreeRanges
          CFI (cfiCond20) Conditional ??CrossCallReturnLabel_19
          CFI (cfiCond20) DPL0 Frame(CFA_SP, 4)
          CFI (cfiCond20) DPH0 Frame(CFA_SP, 5)
          CFI (cfiCond20) CFA_SP SP+-5
          CFI Block cfiCond21 Using cfiCommon0
          CFI (cfiCond21) Function zll_UpdateFreeRanges
          CFI (cfiCond21) Conditional ??CrossCallReturnLabel_20
          CFI (cfiCond21) DPL0 Frame(CFA_SP, 4)
          CFI (cfiCond21) DPH0 Frame(CFA_SP, 5)
          CFI (cfiCond21) CFA_SP SP+-5
          CFI Block cfiCond22 Using cfiCommon0
          CFI (cfiCond22) Function zll_UpdateFreeRanges
          CFI (cfiCond22) Conditional ??CrossCallReturnLabel_21
          CFI (cfiCond22) DPL0 Frame(CFA_SP, 4)
          CFI (cfiCond22) DPH0 Frame(CFA_SP, 5)
          CFI (cfiCond22) CFA_SP SP+-5
          CFI Block cfiPicker23 Using cfiCommon1
          CFI (cfiPicker23) NoFunction
          CFI (cfiPicker23) Picker
        MOV     A,R0
        MOVX    @DPTR,A
        INC     DPTR
        MOV     A,R1
        MOVX    @DPTR,A
        MOV     A,R2
        RET
          CFI EndBlock cfiCond18
          CFI EndBlock cfiCond19
          CFI EndBlock cfiCond20
          CFI EndBlock cfiCond21
          CFI EndBlock cfiCond22
          CFI EndBlock cfiPicker23
//  376 
//  377 /*********************************************************************
//  378  * @fn      zll_IsValidSplitFreeRanges
//  379  *
//  380  * @brief   Checks to see if the resulting two ranges are not smaller
//  381  *          than the threshold after division of a network address or
//  382  *          group ID range. The Initiator splits its own free range
//  383  *          in half and assigns the top half to the new device.
//  384  *
//  385  *          Note: A range (Nmin...Nmax) is split as follows:
//  386  *
//  387  *                N'min = (Nmax + Nmin + 1)/2
//  388  *                N'max = Nmax
//  389  *                Nmax = N'min - 1
//  390  *
//  391  * @param   totalGrpIDs - total number of group IDs needed
//  392  *
//  393  * @return  TRUE if split possible. FALSE, otherwise.
//  394  */

        RSEG BANKED_CODE:CODE:NOROOT(0)
//  395 bool zll_IsValidSplitFreeRanges( uint8 totalGrpIDs )
zll_IsValidSplitFreeRanges:
          CFI Block cfiBlock24 Using cfiCommon0
          CFI Function zll_IsValidSplitFreeRanges
        CODE
//  396 {
        MOV     A,#-0xa
        LCALL   ?BANKED_ENTER_XDATA
          CFI DPH0 load(1, XDATA, add(CFA_XSP16, literal(-1)))
          CFI DPL0 load(1, XDATA, add(CFA_XSP16, literal(-2)))
          CFI ?BRET_EXT load(1, XDATA, add(CFA_XSP16, literal(-3)))
          CFI ?RET_HIGH load(1, XDATA, add(CFA_XSP16, literal(-4)))
          CFI ?RET_LOW load(1, XDATA, add(CFA_XSP16, literal(-5)))
          CFI R7 load(1, XDATA, add(CFA_XSP16, literal(-6)))
          CFI V1 load(1, XDATA, add(CFA_XSP16, literal(-7)))
          CFI V0 load(1, XDATA, add(CFA_XSP16, literal(-8)))
          CFI VB load(1, XDATA, add(CFA_XSP16, literal(-9)))
          CFI R6 load(1, XDATA, add(CFA_XSP16, literal(-10)))
          CFI CFA_SP SP+0
          CFI CFA_XSP16 add(XSP16, 10)
        ; Saved register size: 10
        ; Auto size: 0
        MOV     A,R1
        MOV     R2,A
//  397   if ( ( zllFreeNwkAddrBegin != 0 ) && ( zllFreeGrpIdBegin != 0 ) )
        MOV     DPTR,#zllFreeNwkAddrBegin
        LCALL   ??Subroutine46_0 & 0xFFFF
??CrossCallReturnLabel_116:
        JZ      ??zll_IsValidSplitFreeRanges_0
        MOV     DPTR,#zllFreeGrpIdBegin
        LCALL   ??Subroutine46_0 & 0xFFFF
??CrossCallReturnLabel_117:
        JZ      ??zll_IsValidSplitFreeRanges_0
//  398   {
//  399       return ( ( ( ( zllFreeNwkAddrEnd - zllFreeNwkAddrBegin ) / 2 ) >= ZLL_ADDR_THRESHOLD ) &&
//  400                ( ( ( zllFreeGrpIdEnd - ( zllFreeGrpIdBegin + totalGrpIDs - 1 ) ) / 2 ) >= ZLL_GRP_ID_THRESHOLD ) );
        MOV     DPTR,#zllFreeNwkAddrBegin
        LCALL   ??Subroutine43_0 & 0xFFFF
//  401 
//  402   }
??CrossCallReturnLabel_92:
        MOV     DPH,#(zllFreeNwkAddrEnd >> 8) & 0xff
        MOV     DPL,#zllFreeNwkAddrEnd & 0xff
        MOVX    A,@DPTR
        CLR     C
        SUBB    A,R0
        MOV     R0,A
        INC     DPTR
        MOVX    A,@DPTR
        SUBB    A,R1
        CLR     C
        RRC     A
        MOV     R1,A
        MOV     A,R0
        RRC     A
        CLR     C
        SUBB    A,#0xa
        MOV     A,R1
        SUBB    A,#0x0
        JC      ??zll_IsValidSplitFreeRanges_0
        MOV     DPTR,#zllFreeGrpIdBegin
        LCALL   ??Subroutine43_0 & 0xFFFF
??CrossCallReturnLabel_93:
        LCALL   ?Subroutine17 & 0xFFFF
??CrossCallReturnLabel_15:
        MOV     ?V0 + 0,R2
        MOV     A,R0
        CLR     C
        SUBB    A,?V0 + 0
        MOV     R0,A
        MOV     A,R1
        SUBB    A,#0x0
        MOV     R1,A
        MOV     A,R0
        ADD     A,#0x1
        INC     R0
        MOV     A,R1
        ADDC    A,#0x0
        CLR     C
        RRC     A
        MOV     R1,A
        MOV     A,R0
        RRC     A
        CLR     C
        SUBB    A,#0xa
        MOV     A,R1
        SUBB    A,#0x0
        JC      ??zll_IsValidSplitFreeRanges_0
        MOV     R1,#0x1
        SJMP    ??zll_IsValidSplitFreeRanges_1
//  403 
//  404   return ( FALSE );
??zll_IsValidSplitFreeRanges_0:
        MOV     R1,#0x0
??zll_IsValidSplitFreeRanges_1:
        SJMP    ??Subroutine36_0
          CFI EndBlock cfiBlock24
//  405 }

        RSEG BANKED_CODE:CODE:NOROOT(0)
?Subroutine0:
          CFI Block cfiBlock25 Using cfiCommon0
          CFI NoFunction
          CFI CFA_SP SP+0
          CFI CFA_XSP16 add(XSP16, 12)
          CFI VB load(1, XDATA, add(CFA_XSP16, literal(-9)))
          CFI DPL0 load(1, XDATA, add(CFA_XSP16, literal(-2)))
          CFI DPH0 load(1, XDATA, add(CFA_XSP16, literal(-1)))
          CFI R6 load(1, XDATA, add(CFA_XSP16, literal(-10)))
          CFI R7 load(1, XDATA, add(CFA_XSP16, literal(-6)))
          CFI V0 load(1, XDATA, add(CFA_XSP16, literal(-8)))
          CFI V1 load(1, XDATA, add(CFA_XSP16, literal(-7)))
          CFI ?BRET_EXT load(1, XDATA, add(CFA_XSP16, literal(-3)))
          CFI ?RET_HIGH load(1, XDATA, add(CFA_XSP16, literal(-4)))
          CFI ?RET_LOW load(1, XDATA, add(CFA_XSP16, literal(-5)))
          CFI Invalid
        LCALL   ?DEALLOC_XSTACK8
          CFI EndBlock cfiBlock25
        REQUIRE ??Subroutine36_0
        ; // Fall through to label ??Subroutine36_0

        RSEG BANKED_CODE:CODE:NOROOT(0)
??Subroutine36_0:
          CFI Block cfiBlock26 Using cfiCommon0
          CFI NoFunction
          CFI CFA_SP SP+0
          CFI CFA_XSP16 add(XSP16, 10)
          CFI VB load(1, XDATA, add(CFA_XSP16, literal(-9)))
          CFI DPL0 load(1, XDATA, add(CFA_XSP16, literal(-2)))
          CFI DPH0 load(1, XDATA, add(CFA_XSP16, literal(-1)))
          CFI R6 load(1, XDATA, add(CFA_XSP16, literal(-10)))
          CFI R7 load(1, XDATA, add(CFA_XSP16, literal(-6)))
          CFI V0 load(1, XDATA, add(CFA_XSP16, literal(-8)))
          CFI V1 load(1, XDATA, add(CFA_XSP16, literal(-7)))
          CFI ?BRET_EXT load(1, XDATA, add(CFA_XSP16, literal(-3)))
          CFI ?RET_HIGH load(1, XDATA, add(CFA_XSP16, literal(-4)))
          CFI ?RET_LOW load(1, XDATA, add(CFA_XSP16, literal(-5)))
        MOV     R7,#0x2
        LJMP    ?BANKED_LEAVE_XDATA
          CFI EndBlock cfiBlock26
//  406 
//  407 /*********************************************************************
//  408  * @fn      zll_SplitFreeRanges
//  409  *
//  410  * @brief   Split our own free network address and group ID ranges
//  411  *          in half and assign the top half to the new device.
//  412  *
//  413  *          Note: A range (Nmin...Nmax) is split as follows:
//  414  *
//  415  *                N'min = (Nmax + Nmin + 1)/2
//  416  *                N'max = Nmax
//  417  *                Nmax = N'min - 1
//  418  *
//  419  * output parameters
//  420  *
//  421  * @param   pAddrBegin - new address range begin
//  422  * @param   pAddrEnd - new address range end
//  423  * @param   pGrpIdBegin - new group id range begin
//  424  * @param   pGrpIdEnd - new group id range end
//  425  *
//  426  * @return  none
//  427  */

        RSEG BANKED_CODE:CODE:NOROOT(0)
//  428 void zll_SplitFreeRanges( uint16 *pAddrBegin, uint16 *pAddrEnd,
zll_SplitFreeRanges:
          CFI Block cfiBlock27 Using cfiCommon0
          CFI Function zll_SplitFreeRanges
        CODE
//  429                         uint16 *pGrpIdBegin, uint16 *pGrpIdEnd )
//  430 {
        MOV     A,#-0x12
        LCALL   ?BANKED_ENTER_XDATA
          CFI DPH0 load(1, XDATA, add(CFA_XSP16, literal(-1)))
          CFI DPL0 load(1, XDATA, add(CFA_XSP16, literal(-2)))
          CFI ?BRET_EXT load(1, XDATA, add(CFA_XSP16, literal(-3)))
          CFI ?RET_HIGH load(1, XDATA, add(CFA_XSP16, literal(-4)))
          CFI ?RET_LOW load(1, XDATA, add(CFA_XSP16, literal(-5)))
          CFI R7 load(1, XDATA, add(CFA_XSP16, literal(-6)))
          CFI V9 load(1, XDATA, add(CFA_XSP16, literal(-7)))
          CFI V8 load(1, XDATA, add(CFA_XSP16, literal(-8)))
          CFI V7 load(1, XDATA, add(CFA_XSP16, literal(-9)))
          CFI V6 load(1, XDATA, add(CFA_XSP16, literal(-10)))
          CFI V5 load(1, XDATA, add(CFA_XSP16, literal(-11)))
          CFI V4 load(1, XDATA, add(CFA_XSP16, literal(-12)))
          CFI V3 load(1, XDATA, add(CFA_XSP16, literal(-13)))
          CFI V2 load(1, XDATA, add(CFA_XSP16, literal(-14)))
          CFI V1 load(1, XDATA, add(CFA_XSP16, literal(-15)))
          CFI V0 load(1, XDATA, add(CFA_XSP16, literal(-16)))
          CFI VB load(1, XDATA, add(CFA_XSP16, literal(-17)))
          CFI R6 load(1, XDATA, add(CFA_XSP16, literal(-18)))
          CFI CFA_SP SP+0
          CFI CFA_XSP16 add(XSP16, 18)
        ; Saved register size: 18
        ; Auto size: 0
        MOV     ?V0 + 8,R4
        MOV     ?V0 + 9,R5
        MOV     A,#0x12
        LCALL   ?XSTACK_DISP0_8
        LCALL   ??Subroutine44_0 & 0xFFFF
??CrossCallReturnLabel_106:
        MOV     A,#0x14
        LCALL   ?XSTACK_DISP0_8
        LCALL   ?Subroutine14 & 0xFFFF
//  431   if ( ( zllFreeNwkAddrBegin != 0 ) && ( zllFreeGrpIdBegin != 0 ) )
??CrossCallReturnLabel_7:
        MOV     DPTR,#zllFreeNwkAddrBegin
        LCALL   ??Subroutine46_0 & 0xFFFF
??CrossCallReturnLabel_118:
        JNZ     $+5
        LJMP    ??zll_SplitFreeRanges_0 & 0xFFFF
        MOV     DPTR,#zllFreeGrpIdBegin
        LCALL   ??Subroutine46_0 & 0xFFFF
??CrossCallReturnLabel_119:
        JNZ     $+5
        LJMP    ??zll_SplitFreeRanges_0 & 0xFFFF
//  432   {
//  433     *pAddrBegin = ZLL_NEW_MIN( zllFreeNwkAddrBegin, zllFreeNwkAddrEnd );
        MOV     DPTR,#zllFreeNwkAddrEnd
        LCALL   ?Subroutine11 & 0xFFFF
??CrossCallReturnLabel_3:
        MOV     DPTR,#zllFreeNwkAddrBegin
        LCALL   ?Subroutine32 & 0xFFFF
??CrossCallReturnLabel_40:
        CLR     A
        MOV     ?V0 + 2,A
        MOV     ?V0 + 3,A
        MOV     R0,#?V0 + 4
        MOV     R1,#?V0 + 0
        LCALL   ?L_ADD
        MOV     DPTR,#__Constant_1
        MOV     R0,#?V0 + 4
        LCALL   ?L_ADD_X
        MOV     A,#0x1
        MOV     R0,#?V0 + 4
        LCALL   ?UL_SHR
        MOV     DPL,R2
        MOV     DPH,R3
        MOV     A,?V0 + 4
        MOVX    @DPTR,A
        INC     DPTR
        MOV     A,?V0 + 5
        MOVX    @DPTR,A
//  434     *pGrpIdBegin = ZLL_NEW_MIN( zllFreeGrpIdBegin, zllFreeGrpIdEnd );
        MOV     DPTR,#zllFreeGrpIdEnd
        LCALL   ?Subroutine11 & 0xFFFF
??CrossCallReturnLabel_4:
        MOV     DPTR,#zllFreeGrpIdBegin
        LCALL   ?Subroutine32 & 0xFFFF
??CrossCallReturnLabel_41:
        MOV     R0,#?V0 + 4
        MOV     R1,#?V0 + 0
        LCALL   ?L_ADD
        MOV     DPTR,#__Constant_1
        MOV     R0,#?V0 + 4
        LCALL   ?L_ADD_X
        MOV     A,#0x1
        MOV     R0,#?V0 + 4
        LCALL   ?UL_SHR
        MOV     DPL,R4
        MOV     DPH,R5
        MOV     A,?V0 + 4
        MOVX    @DPTR,A
        INC     DPTR
        MOV     A,?V0 + 5
        MOVX    @DPTR,A
//  435 
//  436     *pAddrEnd = zllFreeNwkAddrEnd;
        MOV     DPTR,#zllFreeNwkAddrEnd
        LCALL   ??Subroutine43_0 & 0xFFFF
??CrossCallReturnLabel_94:
        MOV     DPL,?V0 + 8
        MOV     DPH,?V0 + 9
        LCALL   ?Subroutine19 & 0xFFFF
//  437     *pGrpIdEnd = zllFreeGrpIdEnd;
??CrossCallReturnLabel_57:
        MOV     DPTR,#zllFreeGrpIdEnd
        LCALL   ?Subroutine12 & 0xFFFF
??CrossCallReturnLabel_5:
        LCALL   ?Subroutine19 & 0xFFFF
//  438 
//  439     // Update our max
//  440     zllFreeNwkAddrEnd = *pAddrBegin - 1;
??CrossCallReturnLabel_58:
        MOV     DPL,R2
        MOV     DPH,R3
        LCALL   ?Subroutine9 & 0xFFFF
??CrossCallReturnLabel_0:
        MOV     DPTR,#zllFreeNwkAddrEnd
        LCALL   ?Subroutine19 & 0xFFFF
//  441     zllFreeGrpIdEnd = *pGrpIdBegin - 1;
??CrossCallReturnLabel_59:
        MOV     DPL,R4
        MOV     DPH,R5
        LCALL   ?Subroutine9 & 0xFFFF
//  442   }
??CrossCallReturnLabel_1:
        MOV     DPTR,#zllFreeGrpIdEnd
        MOV     A,R0
        MOVX    @DPTR,A
        INC     DPTR
        MOV     A,R1
        SJMP    ??zll_SplitFreeRanges_1
//  443   else
//  444   {
//  445     *pAddrBegin = *pAddrEnd = 0;
??zll_SplitFreeRanges_0:
        MOV     DPL,?V0 + 8
        MOV     DPH,?V0 + 9
        LCALL   ?Subroutine24 & 0xFFFF
??CrossCallReturnLabel_30:
        MOVX    @DPTR,A
//  446     *pGrpIdBegin = *pGrpIdEnd = 0;
        MOV     DPL,R6
        MOV     DPH,R7
        MOVX    @DPTR,A
        INC     DPTR
        MOVX    @DPTR,A
        MOV     DPL,R4
        MOV     DPH,R5
        MOVX    @DPTR,A
        INC     DPTR
??zll_SplitFreeRanges_1:
        MOVX    @DPTR,A
//  447   }
//  448 }
        MOV     R7,#0xa
        LJMP    ?BANKED_LEAVE_XDATA
          CFI EndBlock cfiBlock27

        RSEG BANKED_CODE:CODE:NOROOT(0)
?Subroutine11:
          CFI Block cfiCond28 Using cfiCommon0
          CFI Function zll_SplitFreeRanges
          CFI Conditional ??CrossCallReturnLabel_3
          CFI R6 load(1, XDATA, add(CFA_XSP16, literal(-18)))
          CFI VB load(1, XDATA, add(CFA_XSP16, literal(-17)))
          CFI V0 load(1, XDATA, add(CFA_XSP16, literal(-16)))
          CFI V1 load(1, XDATA, add(CFA_XSP16, literal(-15)))
          CFI V2 load(1, XDATA, add(CFA_XSP16, literal(-14)))
          CFI V3 load(1, XDATA, add(CFA_XSP16, literal(-13)))
          CFI V4 load(1, XDATA, add(CFA_XSP16, literal(-12)))
          CFI V5 load(1, XDATA, add(CFA_XSP16, literal(-11)))
          CFI V6 load(1, XDATA, add(CFA_XSP16, literal(-10)))
          CFI V7 load(1, XDATA, add(CFA_XSP16, literal(-9)))
          CFI V8 load(1, XDATA, add(CFA_XSP16, literal(-8)))
          CFI V9 load(1, XDATA, add(CFA_XSP16, literal(-7)))
          CFI R7 load(1, XDATA, add(CFA_XSP16, literal(-6)))
          CFI ?RET_LOW load(1, XDATA, add(CFA_XSP16, literal(-5)))
          CFI ?RET_HIGH load(1, XDATA, add(CFA_XSP16, literal(-4)))
          CFI ?BRET_EXT load(1, XDATA, add(CFA_XSP16, literal(-3)))
          CFI DPL0 load(1, XDATA, add(CFA_XSP16, literal(-2)))
          CFI DPH0 load(1, XDATA, add(CFA_XSP16, literal(-1)))
          CFI CFA_SP SP+0
          CFI CFA_XSP16 add(XSP16, 18)
          CFI Block cfiCond29 Using cfiCommon0
          CFI (cfiCond29) Function zll_SplitFreeRanges
          CFI (cfiCond29) Conditional ??CrossCallReturnLabel_4
          CFI (cfiCond29) R6 load(1, XDATA, add(CFA_XSP16, literal(-18)))
          CFI (cfiCond29) VB load(1, XDATA, add(CFA_XSP16, literal(-17)))
          CFI (cfiCond29) V0 load(1, XDATA, add(CFA_XSP16, literal(-16)))
          CFI (cfiCond29) V1 load(1, XDATA, add(CFA_XSP16, literal(-15)))
          CFI (cfiCond29) V2 load(1, XDATA, add(CFA_XSP16, literal(-14)))
          CFI (cfiCond29) V3 load(1, XDATA, add(CFA_XSP16, literal(-13)))
          CFI (cfiCond29) V4 load(1, XDATA, add(CFA_XSP16, literal(-12)))
          CFI (cfiCond29) V5 load(1, XDATA, add(CFA_XSP16, literal(-11)))
          CFI (cfiCond29) V6 load(1, XDATA, add(CFA_XSP16, literal(-10)))
          CFI (cfiCond29) V7 load(1, XDATA, add(CFA_XSP16, literal(-9)))
          CFI (cfiCond29) V8 load(1, XDATA, add(CFA_XSP16, literal(-8)))
          CFI (cfiCond29) V9 load(1, XDATA, add(CFA_XSP16, literal(-7)))
          CFI (cfiCond29) R7 load(1, XDATA, add(CFA_XSP16, literal(-6)))
          CFI (cfiCond29) ?RET_LOW load(1, XDATA, add(CFA_XSP16, literal(-5)))
          CFI (cfiCond29) ?RET_HIGH load(1, XDATA, add(CFA_XSP16, literal(-4)))
          CFI (cfiCond29) ?BRET_EXT load(1, XDATA, add(CFA_XSP16, literal(-3)))
          CFI (cfiCond29) DPL0 load(1, XDATA, add(CFA_XSP16, literal(-2)))
          CFI (cfiCond29) DPH0 load(1, XDATA, add(CFA_XSP16, literal(-1)))
          CFI (cfiCond29) CFA_SP SP+0
          CFI (cfiCond29) CFA_XSP16 add(XSP16, 18)
          CFI Block cfiPicker30 Using cfiCommon1
          CFI (cfiPicker30) NoFunction
          CFI (cfiPicker30) Picker
        MOVX    A,@DPTR
        MOV     ?V0 + 4,A
        INC     DPTR
        MOVX    A,@DPTR
        MOV     ?V0 + 5,A
        CLR     A
        MOV     ?V0 + 6,A
        MOV     ?V0 + 7,A
        RET
          CFI EndBlock cfiCond28
          CFI EndBlock cfiCond29
          CFI EndBlock cfiPicker30
//  449 
//  450 /*********************************************************************
//  451  * @fn      zll_PopGrpIDRange
//  452  *
//  453  * @brief   Pop the requested number of group IDs out of the free group IDs range.
//  454  *
//  455  * input parameters
//  456  *
//  457  * @param   numGrpIDs - number of group IDs needed
//  458  *
//  459  * output parameters
//  460  *
//  461  * @param   pGrpIdBegin - new group id range begin, or 0 if unavaialable
//  462  * @param   pGrpIdEnd - new group id range end, , or 0 if unavaialable
//  463  *
//  464  * @return  none
//  465  */

        RSEG BANKED_CODE:CODE:NOROOT(0)
//  466 void zll_PopGrpIDRange( uint8 numGrpIDs, uint16 *pGrpIDsBegin, uint16 *pGrpIDsEnd )
zll_PopGrpIDRange:
          CFI Block cfiBlock31 Using cfiCommon0
          CFI Function zll_PopGrpIDRange
        CODE
//  467 {
        MOV     A,#-0xa
        LCALL   ?BANKED_ENTER_XDATA
          CFI DPH0 load(1, XDATA, add(CFA_XSP16, literal(-1)))
          CFI DPL0 load(1, XDATA, add(CFA_XSP16, literal(-2)))
          CFI ?BRET_EXT load(1, XDATA, add(CFA_XSP16, literal(-3)))
          CFI ?RET_HIGH load(1, XDATA, add(CFA_XSP16, literal(-4)))
          CFI ?RET_LOW load(1, XDATA, add(CFA_XSP16, literal(-5)))
          CFI R7 load(1, XDATA, add(CFA_XSP16, literal(-6)))
          CFI V1 load(1, XDATA, add(CFA_XSP16, literal(-7)))
          CFI V0 load(1, XDATA, add(CFA_XSP16, literal(-8)))
          CFI VB load(1, XDATA, add(CFA_XSP16, literal(-9)))
          CFI R6 load(1, XDATA, add(CFA_XSP16, literal(-10)))
          CFI CFA_SP SP+0
          CFI CFA_XSP16 add(XSP16, 10)
        ; Saved register size: 10
        ; Auto size: 0
        MOV     ?V0 + 0,R1
//  468   if ( ( zllFreeGrpIdBegin != 0 )
//  469        && ( zllFreeGrpIdBegin <= zllFreeGrpIdEnd )
//  470        && ( ( zllFreeGrpIdEnd - zllFreeGrpIdBegin ) >= numGrpIDs ) )
        MOV     DPTR,#zllFreeGrpIdBegin
        LCALL   ??Subroutine46_0 & 0xFFFF
??CrossCallReturnLabel_120:
        JZ      ??zll_PopGrpIDRange_0
        MOVX    A,@DPTR
        MOV     R1,A
        MOV     DPH,#(zllFreeGrpIdEnd >> 8) & 0xff
        MOV     DPL,#zllFreeGrpIdEnd & 0xff
        CLR     C
        MOVX    A,@DPTR
        SUBB    A,R0
        INC     DPTR
        MOVX    A,@DPTR
        SUBB    A,R1
        JC      ??zll_PopGrpIDRange_0
        MOV     DPL,?V0 + 0
        MOV     R6,DPL
        LCALL   ?Subroutine17 & 0xFFFF
??CrossCallReturnLabel_16:
        CLR     C
        MOV     A,R0
        SUBB    A,R6
        MOV     A,R1
        SUBB    A,#0x0
        JC      ??zll_PopGrpIDRange_0
//  471   {
//  472     *pGrpIDsBegin = zllFreeGrpIdBegin;
        MOV     DPTR,#zllFreeGrpIdBegin
        LCALL   ??Subroutine43_0 & 0xFFFF
??CrossCallReturnLabel_95:
        MOV     DPL,R2
        MOV     DPH,R3
        LCALL   ?Subroutine19 & 0xFFFF
//  473 
//  474     // Update min free group id
//  475     zllFreeGrpIdBegin += numGrpIDs;
??CrossCallReturnLabel_60:
        MOV     DPTR,#zllFreeGrpIdBegin
        MOVX    A,@DPTR
        ADD     A,R6
        MOVX    @DPTR,A
        INC     DPTR
        MOVX    A,@DPTR
        ADDC    A,#0x0
        MOVX    @DPTR,A
//  476 
//  477     *pGrpIDsEnd = zllFreeGrpIdBegin - 1;
        MOV     DPTR,#zllFreeGrpIdBegin
        LCALL   ?Subroutine9 & 0xFFFF
//  478   }
??CrossCallReturnLabel_2:
        MOV     DPL,R4
        MOV     DPH,R5
        MOV     A,R0
        MOVX    @DPTR,A
        INC     DPTR
        MOV     A,R1
        SJMP    ??CrossCallReturnLabel_31
//  479   else
//  480   {
//  481     *pGrpIDsBegin = *pGrpIDsEnd = 0;
??zll_PopGrpIDRange_0:
        MOV     DPL,R4
        MOV     DPH,R5
        LCALL   ?Subroutine24 & 0xFFFF
//  482   }
??CrossCallReturnLabel_31:
        MOVX    @DPTR,A
//  483 }
        LJMP    ??Subroutine36_0 & 0xFFFF
          CFI EndBlock cfiBlock31

        RSEG BANKED_CODE:CODE:NOROOT(0)
?Subroutine24:
          CFI Block cfiCond32 Using cfiCommon0
          CFI Function zll_SplitFreeRanges
          CFI Conditional ??CrossCallReturnLabel_30
          CFI R6 load(1, XDATA, add(CFA_XSP16, literal(-18)))
          CFI VB load(1, XDATA, add(CFA_XSP16, literal(-17)))
          CFI V0 load(1, XDATA, add(CFA_XSP16, literal(-16)))
          CFI V1 load(1, XDATA, add(CFA_XSP16, literal(-15)))
          CFI V2 load(1, XDATA, add(CFA_XSP16, literal(-14)))
          CFI V3 load(1, XDATA, add(CFA_XSP16, literal(-13)))
          CFI V4 load(1, XDATA, add(CFA_XSP16, literal(-12)))
          CFI V5 load(1, XDATA, add(CFA_XSP16, literal(-11)))
          CFI V6 load(1, XDATA, add(CFA_XSP16, literal(-10)))
          CFI V7 load(1, XDATA, add(CFA_XSP16, literal(-9)))
          CFI V8 load(1, XDATA, add(CFA_XSP16, literal(-8)))
          CFI V9 load(1, XDATA, add(CFA_XSP16, literal(-7)))
          CFI R7 load(1, XDATA, add(CFA_XSP16, literal(-6)))
          CFI ?RET_LOW load(1, XDATA, add(CFA_XSP16, literal(-5)))
          CFI ?RET_HIGH load(1, XDATA, add(CFA_XSP16, literal(-4)))
          CFI ?BRET_EXT load(1, XDATA, add(CFA_XSP16, literal(-3)))
          CFI DPL0 load(1, XDATA, add(CFA_XSP16, literal(-2)))
          CFI DPH0 load(1, XDATA, add(CFA_XSP16, literal(-1)))
          CFI CFA_SP SP+0
          CFI CFA_XSP16 add(XSP16, 18)
          CFI Block cfiCond33 Using cfiCommon0
          CFI (cfiCond33) Function zll_PopGrpIDRange
          CFI (cfiCond33) Conditional ??CrossCallReturnLabel_31
          CFI (cfiCond33) R6 load(1, XDATA, add(CFA_XSP16, literal(-10)))
          CFI (cfiCond33) VB load(1, XDATA, add(CFA_XSP16, literal(-9)))
          CFI (cfiCond33) V0 load(1, XDATA, add(CFA_XSP16, literal(-8)))
          CFI (cfiCond33) V1 load(1, XDATA, add(CFA_XSP16, literal(-7)))
          CFI (cfiCond33) R7 load(1, XDATA, add(CFA_XSP16, literal(-6)))
          CFI (cfiCond33) ?RET_LOW load(1, XDATA, add(CFA_XSP16, literal(-5)))
          CFI (cfiCond33) ?RET_HIGH load(1, XDATA, add(CFA_XSP16, literal(-4)))
          CFI (cfiCond33) ?BRET_EXT load(1, XDATA, add(CFA_XSP16, literal(-3)))
          CFI (cfiCond33) DPL0 load(1, XDATA, add(CFA_XSP16, literal(-2)))
          CFI (cfiCond33) DPH0 load(1, XDATA, add(CFA_XSP16, literal(-1)))
          CFI (cfiCond33) CFA_SP SP+0
          CFI (cfiCond33) CFA_XSP16 add(XSP16, 10)
          CFI Block cfiPicker34 Using cfiCommon1
          CFI (cfiPicker34) NoFunction
          CFI (cfiPicker34) Picker
        CLR     A
        MOVX    @DPTR,A
        INC     DPTR
        MOVX    @DPTR,A
        MOV     DPL,R2
        MOV     DPH,R3
        MOVX    @DPTR,A
        INC     DPTR
        RET
          CFI EndBlock cfiCond32
          CFI EndBlock cfiCond33
          CFI EndBlock cfiPicker34

        RSEG BANKED_CODE:CODE:NOROOT(0)
?Subroutine19:
          CFI Block cfiCond35 Using cfiCommon0
          CFI Function zll_UpdateFreeRanges
          CFI Conditional ??CrossCallReturnLabel_56
          CFI DPL0 Frame(CFA_SP, 4)
          CFI DPH0 Frame(CFA_SP, 5)
          CFI CFA_SP SP+-5
          CFI Block cfiCond36 Using cfiCommon0
          CFI (cfiCond36) Function zll_SplitFreeRanges
          CFI (cfiCond36) Conditional ??CrossCallReturnLabel_57
          CFI (cfiCond36) R6 load(1, XDATA, add(CFA_XSP16, literal(-18)))
          CFI (cfiCond36) VB load(1, XDATA, add(CFA_XSP16, literal(-17)))
          CFI (cfiCond36) V0 load(1, XDATA, add(CFA_XSP16, literal(-16)))
          CFI (cfiCond36) V1 load(1, XDATA, add(CFA_XSP16, literal(-15)))
          CFI (cfiCond36) V2 load(1, XDATA, add(CFA_XSP16, literal(-14)))
          CFI (cfiCond36) V3 load(1, XDATA, add(CFA_XSP16, literal(-13)))
          CFI (cfiCond36) V4 load(1, XDATA, add(CFA_XSP16, literal(-12)))
          CFI (cfiCond36) V5 load(1, XDATA, add(CFA_XSP16, literal(-11)))
          CFI (cfiCond36) V6 load(1, XDATA, add(CFA_XSP16, literal(-10)))
          CFI (cfiCond36) V7 load(1, XDATA, add(CFA_XSP16, literal(-9)))
          CFI (cfiCond36) V8 load(1, XDATA, add(CFA_XSP16, literal(-8)))
          CFI (cfiCond36) V9 load(1, XDATA, add(CFA_XSP16, literal(-7)))
          CFI (cfiCond36) R7 load(1, XDATA, add(CFA_XSP16, literal(-6)))
          CFI (cfiCond36) ?RET_LOW load(1, XDATA, add(CFA_XSP16, literal(-5)))
          CFI (cfiCond36) ?RET_HIGH load(1, XDATA, add(CFA_XSP16, literal(-4)))
          CFI (cfiCond36) ?BRET_EXT load(1, XDATA, add(CFA_XSP16, literal(-3)))
          CFI (cfiCond36) DPL0 load(1, XDATA, add(CFA_XSP16, literal(-2)))
          CFI (cfiCond36) DPH0 load(1, XDATA, add(CFA_XSP16, literal(-1)))
          CFI (cfiCond36) CFA_SP SP+0
          CFI (cfiCond36) CFA_XSP16 add(XSP16, 18)
          CFI Block cfiCond37 Using cfiCommon0
          CFI (cfiCond37) Function zll_SplitFreeRanges
          CFI (cfiCond37) Conditional ??CrossCallReturnLabel_58
          CFI (cfiCond37) R6 load(1, XDATA, add(CFA_XSP16, literal(-18)))
          CFI (cfiCond37) VB load(1, XDATA, add(CFA_XSP16, literal(-17)))
          CFI (cfiCond37) V0 load(1, XDATA, add(CFA_XSP16, literal(-16)))
          CFI (cfiCond37) V1 load(1, XDATA, add(CFA_XSP16, literal(-15)))
          CFI (cfiCond37) V2 load(1, XDATA, add(CFA_XSP16, literal(-14)))
          CFI (cfiCond37) V3 load(1, XDATA, add(CFA_XSP16, literal(-13)))
          CFI (cfiCond37) V4 load(1, XDATA, add(CFA_XSP16, literal(-12)))
          CFI (cfiCond37) V5 load(1, XDATA, add(CFA_XSP16, literal(-11)))
          CFI (cfiCond37) V6 load(1, XDATA, add(CFA_XSP16, literal(-10)))
          CFI (cfiCond37) V7 load(1, XDATA, add(CFA_XSP16, literal(-9)))
          CFI (cfiCond37) V8 load(1, XDATA, add(CFA_XSP16, literal(-8)))
          CFI (cfiCond37) V9 load(1, XDATA, add(CFA_XSP16, literal(-7)))
          CFI (cfiCond37) R7 load(1, XDATA, add(CFA_XSP16, literal(-6)))
          CFI (cfiCond37) ?RET_LOW load(1, XDATA, add(CFA_XSP16, literal(-5)))
          CFI (cfiCond37) ?RET_HIGH load(1, XDATA, add(CFA_XSP16, literal(-4)))
          CFI (cfiCond37) ?BRET_EXT load(1, XDATA, add(CFA_XSP16, literal(-3)))
          CFI (cfiCond37) DPL0 load(1, XDATA, add(CFA_XSP16, literal(-2)))
          CFI (cfiCond37) DPH0 load(1, XDATA, add(CFA_XSP16, literal(-1)))
          CFI (cfiCond37) CFA_SP SP+0
          CFI (cfiCond37) CFA_XSP16 add(XSP16, 18)
          CFI Block cfiCond38 Using cfiCommon0
          CFI (cfiCond38) Function zll_SplitFreeRanges
          CFI (cfiCond38) Conditional ??CrossCallReturnLabel_59
          CFI (cfiCond38) R6 load(1, XDATA, add(CFA_XSP16, literal(-18)))
          CFI (cfiCond38) VB load(1, XDATA, add(CFA_XSP16, literal(-17)))
          CFI (cfiCond38) V0 load(1, XDATA, add(CFA_XSP16, literal(-16)))
          CFI (cfiCond38) V1 load(1, XDATA, add(CFA_XSP16, literal(-15)))
          CFI (cfiCond38) V2 load(1, XDATA, add(CFA_XSP16, literal(-14)))
          CFI (cfiCond38) V3 load(1, XDATA, add(CFA_XSP16, literal(-13)))
          CFI (cfiCond38) V4 load(1, XDATA, add(CFA_XSP16, literal(-12)))
          CFI (cfiCond38) V5 load(1, XDATA, add(CFA_XSP16, literal(-11)))
          CFI (cfiCond38) V6 load(1, XDATA, add(CFA_XSP16, literal(-10)))
          CFI (cfiCond38) V7 load(1, XDATA, add(CFA_XSP16, literal(-9)))
          CFI (cfiCond38) V8 load(1, XDATA, add(CFA_XSP16, literal(-8)))
          CFI (cfiCond38) V9 load(1, XDATA, add(CFA_XSP16, literal(-7)))
          CFI (cfiCond38) R7 load(1, XDATA, add(CFA_XSP16, literal(-6)))
          CFI (cfiCond38) ?RET_LOW load(1, XDATA, add(CFA_XSP16, literal(-5)))
          CFI (cfiCond38) ?RET_HIGH load(1, XDATA, add(CFA_XSP16, literal(-4)))
          CFI (cfiCond38) ?BRET_EXT load(1, XDATA, add(CFA_XSP16, literal(-3)))
          CFI (cfiCond38) DPL0 load(1, XDATA, add(CFA_XSP16, literal(-2)))
          CFI (cfiCond38) DPH0 load(1, XDATA, add(CFA_XSP16, literal(-1)))
          CFI (cfiCond38) CFA_SP SP+0
          CFI (cfiCond38) CFA_XSP16 add(XSP16, 18)
          CFI Block cfiCond39 Using cfiCommon0
          CFI (cfiCond39) Function zll_PopGrpIDRange
          CFI (cfiCond39) Conditional ??CrossCallReturnLabel_60
          CFI (cfiCond39) R6 load(1, XDATA, add(CFA_XSP16, literal(-10)))
          CFI (cfiCond39) VB load(1, XDATA, add(CFA_XSP16, literal(-9)))
          CFI (cfiCond39) V0 load(1, XDATA, add(CFA_XSP16, literal(-8)))
          CFI (cfiCond39) V1 load(1, XDATA, add(CFA_XSP16, literal(-7)))
          CFI (cfiCond39) R7 load(1, XDATA, add(CFA_XSP16, literal(-6)))
          CFI (cfiCond39) ?RET_LOW load(1, XDATA, add(CFA_XSP16, literal(-5)))
          CFI (cfiCond39) ?RET_HIGH load(1, XDATA, add(CFA_XSP16, literal(-4)))
          CFI (cfiCond39) ?BRET_EXT load(1, XDATA, add(CFA_XSP16, literal(-3)))
          CFI (cfiCond39) DPL0 load(1, XDATA, add(CFA_XSP16, literal(-2)))
          CFI (cfiCond39) DPH0 load(1, XDATA, add(CFA_XSP16, literal(-1)))
          CFI (cfiCond39) CFA_SP SP+0
          CFI (cfiCond39) CFA_XSP16 add(XSP16, 10)
          CFI Block cfiCond40 Using cfiCommon0
          CFI (cfiCond40) Function zll_PopNwkAddress
          CFI (cfiCond40) Conditional ??CrossCallReturnLabel_61
          CFI (cfiCond40) DPL0 Frame(CFA_SP, 4)
          CFI (cfiCond40) DPH0 Frame(CFA_SP, 5)
          CFI (cfiCond40) CFA_SP SP+-5
          CFI Block cfiCond41 Using cfiCommon0
          CFI (cfiCond41) Function zll_SendScanRsp
          CFI (cfiCond41) Conditional ??CrossCallReturnLabel_62
          CFI (cfiCond41) R6 load(1, XDATA, add(CFA_XSP16, literal(-22)))
          CFI (cfiCond41) VB load(1, XDATA, add(CFA_XSP16, literal(-21)))
          CFI (cfiCond41) V0 load(1, XDATA, add(CFA_XSP16, literal(-20)))
          CFI (cfiCond41) V1 load(1, XDATA, add(CFA_XSP16, literal(-19)))
          CFI (cfiCond41) V2 load(1, XDATA, add(CFA_XSP16, literal(-18)))
          CFI (cfiCond41) V3 load(1, XDATA, add(CFA_XSP16, literal(-17)))
          CFI (cfiCond41) V4 load(1, XDATA, add(CFA_XSP16, literal(-16)))
          CFI (cfiCond41) V5 load(1, XDATA, add(CFA_XSP16, literal(-15)))
          CFI (cfiCond41) V6 load(1, XDATA, add(CFA_XSP16, literal(-14)))
          CFI (cfiCond41) V7 load(1, XDATA, add(CFA_XSP16, literal(-13)))
          CFI (cfiCond41) V8 load(1, XDATA, add(CFA_XSP16, literal(-12)))
          CFI (cfiCond41) V9 load(1, XDATA, add(CFA_XSP16, literal(-11)))
          CFI (cfiCond41) V10 load(1, XDATA, add(CFA_XSP16, literal(-10)))
          CFI (cfiCond41) V11 load(1, XDATA, add(CFA_XSP16, literal(-9)))
          CFI (cfiCond41) V12 load(1, XDATA, add(CFA_XSP16, literal(-8)))
          CFI (cfiCond41) V13 load(1, XDATA, add(CFA_XSP16, literal(-7)))
          CFI (cfiCond41) R7 load(1, XDATA, add(CFA_XSP16, literal(-6)))
          CFI (cfiCond41) ?RET_LOW load(1, XDATA, add(CFA_XSP16, literal(-5)))
          CFI (cfiCond41) ?RET_HIGH load(1, XDATA, add(CFA_XSP16, literal(-4)))
          CFI (cfiCond41) ?BRET_EXT load(1, XDATA, add(CFA_XSP16, literal(-3)))
          CFI (cfiCond41) DPL0 load(1, XDATA, add(CFA_XSP16, literal(-2)))
          CFI (cfiCond41) DPH0 load(1, XDATA, add(CFA_XSP16, literal(-1)))
          CFI (cfiCond41) CFA_SP SP+0
          CFI (cfiCond41) CFA_XSP16 add(XSP16, 22)
          CFI Block cfiCond42 Using cfiCommon0
          CFI (cfiCond42) Function zll_SendScanRsp
          CFI (cfiCond42) Conditional ??CrossCallReturnLabel_63
          CFI (cfiCond42) R6 load(1, XDATA, add(CFA_XSP16, literal(-22)))
          CFI (cfiCond42) VB load(1, XDATA, add(CFA_XSP16, literal(-21)))
          CFI (cfiCond42) V0 load(1, XDATA, add(CFA_XSP16, literal(-20)))
          CFI (cfiCond42) V1 load(1, XDATA, add(CFA_XSP16, literal(-19)))
          CFI (cfiCond42) V2 load(1, XDATA, add(CFA_XSP16, literal(-18)))
          CFI (cfiCond42) V3 load(1, XDATA, add(CFA_XSP16, literal(-17)))
          CFI (cfiCond42) V4 load(1, XDATA, add(CFA_XSP16, literal(-16)))
          CFI (cfiCond42) V5 load(1, XDATA, add(CFA_XSP16, literal(-15)))
          CFI (cfiCond42) V6 load(1, XDATA, add(CFA_XSP16, literal(-14)))
          CFI (cfiCond42) V7 load(1, XDATA, add(CFA_XSP16, literal(-13)))
          CFI (cfiCond42) V8 load(1, XDATA, add(CFA_XSP16, literal(-12)))
          CFI (cfiCond42) V9 load(1, XDATA, add(CFA_XSP16, literal(-11)))
          CFI (cfiCond42) V10 load(1, XDATA, add(CFA_XSP16, literal(-10)))
          CFI (cfiCond42) V11 load(1, XDATA, add(CFA_XSP16, literal(-9)))
          CFI (cfiCond42) V12 load(1, XDATA, add(CFA_XSP16, literal(-8)))
          CFI (cfiCond42) V13 load(1, XDATA, add(CFA_XSP16, literal(-7)))
          CFI (cfiCond42) R7 load(1, XDATA, add(CFA_XSP16, literal(-6)))
          CFI (cfiCond42) ?RET_LOW load(1, XDATA, add(CFA_XSP16, literal(-5)))
          CFI (cfiCond42) ?RET_HIGH load(1, XDATA, add(CFA_XSP16, literal(-4)))
          CFI (cfiCond42) ?BRET_EXT load(1, XDATA, add(CFA_XSP16, literal(-3)))
          CFI (cfiCond42) DPL0 load(1, XDATA, add(CFA_XSP16, literal(-2)))
          CFI (cfiCond42) DPH0 load(1, XDATA, add(CFA_XSP16, literal(-1)))
          CFI (cfiCond42) CFA_SP SP+0
          CFI (cfiCond42) CFA_XSP16 add(XSP16, 22)
          CFI Block cfiCond43 Using cfiCommon0
          CFI (cfiCond43) Function zll_BeaconIndCB
          CFI (cfiCond43) Conditional ??CrossCallReturnLabel_64
          CFI (cfiCond43) R6 load(1, XDATA, add(CFA_XSP16, literal(-20)))
          CFI (cfiCond43) VB load(1, XDATA, add(CFA_XSP16, literal(-19)))
          CFI (cfiCond43) V0 load(1, XDATA, add(CFA_XSP16, literal(-18)))
          CFI (cfiCond43) V1 load(1, XDATA, add(CFA_XSP16, literal(-17)))
          CFI (cfiCond43) V2 load(1, XDATA, add(CFA_XSP16, literal(-16)))
          CFI (cfiCond43) V3 load(1, XDATA, add(CFA_XSP16, literal(-15)))
          CFI (cfiCond43) V4 load(1, XDATA, add(CFA_XSP16, literal(-14)))
          CFI (cfiCond43) V5 load(1, XDATA, add(CFA_XSP16, literal(-13)))
          CFI (cfiCond43) V6 load(1, XDATA, add(CFA_XSP16, literal(-12)))
          CFI (cfiCond43) V7 load(1, XDATA, add(CFA_XSP16, literal(-11)))
          CFI (cfiCond43) V8 load(1, XDATA, add(CFA_XSP16, literal(-10)))
          CFI (cfiCond43) V9 load(1, XDATA, add(CFA_XSP16, literal(-9)))
          CFI (cfiCond43) V10 load(1, XDATA, add(CFA_XSP16, literal(-8)))
          CFI (cfiCond43) V11 load(1, XDATA, add(CFA_XSP16, literal(-7)))
          CFI (cfiCond43) R7 load(1, XDATA, add(CFA_XSP16, literal(-6)))
          CFI (cfiCond43) ?RET_LOW load(1, XDATA, add(CFA_XSP16, literal(-5)))
          CFI (cfiCond43) ?RET_HIGH load(1, XDATA, add(CFA_XSP16, literal(-4)))
          CFI (cfiCond43) ?BRET_EXT load(1, XDATA, add(CFA_XSP16, literal(-3)))
          CFI (cfiCond43) DPL0 load(1, XDATA, add(CFA_XSP16, literal(-2)))
          CFI (cfiCond43) DPH0 load(1, XDATA, add(CFA_XSP16, literal(-1)))
          CFI (cfiCond43) CFA_SP SP+0
          CFI (cfiCond43) CFA_XSP16 add(XSP16, 20)
          CFI Block cfiPicker44 Using cfiCommon1
          CFI (cfiPicker44) NoFunction
          CFI (cfiPicker44) Picker
        MOV     A,R0
          CFI EndBlock cfiCond35
          CFI EndBlock cfiCond36
          CFI EndBlock cfiCond37
          CFI EndBlock cfiCond38
          CFI EndBlock cfiCond39
          CFI EndBlock cfiCond40
          CFI EndBlock cfiCond41
          CFI EndBlock cfiCond42
          CFI EndBlock cfiCond43
          CFI EndBlock cfiPicker44
        REQUIRE ??Subroutine37_0
        ; // Fall through to label ??Subroutine37_0

        RSEG BANKED_CODE:CODE:NOROOT(0)
??Subroutine37_0:
          CFI Block cfiCond45 Using cfiCommon0
          CFI Function zll_SendScanRsp
          CFI Conditional ??CrossCallReturnLabel_53
          CFI R6 load(1, XDATA, add(CFA_XSP16, literal(-22)))
          CFI VB load(1, XDATA, add(CFA_XSP16, literal(-21)))
          CFI V0 load(1, XDATA, add(CFA_XSP16, literal(-20)))
          CFI V1 load(1, XDATA, add(CFA_XSP16, literal(-19)))
          CFI V2 load(1, XDATA, add(CFA_XSP16, literal(-18)))
          CFI V3 load(1, XDATA, add(CFA_XSP16, literal(-17)))
          CFI V4 load(1, XDATA, add(CFA_XSP16, literal(-16)))
          CFI V5 load(1, XDATA, add(CFA_XSP16, literal(-15)))
          CFI V6 load(1, XDATA, add(CFA_XSP16, literal(-14)))
          CFI V7 load(1, XDATA, add(CFA_XSP16, literal(-13)))
          CFI V8 load(1, XDATA, add(CFA_XSP16, literal(-12)))
          CFI V9 load(1, XDATA, add(CFA_XSP16, literal(-11)))
          CFI V10 load(1, XDATA, add(CFA_XSP16, literal(-10)))
          CFI V11 load(1, XDATA, add(CFA_XSP16, literal(-9)))
          CFI V12 load(1, XDATA, add(CFA_XSP16, literal(-8)))
          CFI V13 load(1, XDATA, add(CFA_XSP16, literal(-7)))
          CFI R7 load(1, XDATA, add(CFA_XSP16, literal(-6)))
          CFI ?RET_LOW load(1, XDATA, add(CFA_XSP16, literal(-5)))
          CFI ?RET_HIGH load(1, XDATA, add(CFA_XSP16, literal(-4)))
          CFI ?BRET_EXT load(1, XDATA, add(CFA_XSP16, literal(-3)))
          CFI DPL0 load(1, XDATA, add(CFA_XSP16, literal(-2)))
          CFI DPH0 load(1, XDATA, add(CFA_XSP16, literal(-1)))
          CFI CFA_SP SP+0
          CFI CFA_XSP16 add(XSP16, 22)
          CFI Block cfiCond46 Using cfiCommon0
          CFI (cfiCond46) Function zll_SendScanRsp
          CFI (cfiCond46) Conditional ??CrossCallReturnLabel_54
          CFI (cfiCond46) R6 load(1, XDATA, add(CFA_XSP16, literal(-22)))
          CFI (cfiCond46) VB load(1, XDATA, add(CFA_XSP16, literal(-21)))
          CFI (cfiCond46) V0 load(1, XDATA, add(CFA_XSP16, literal(-20)))
          CFI (cfiCond46) V1 load(1, XDATA, add(CFA_XSP16, literal(-19)))
          CFI (cfiCond46) V2 load(1, XDATA, add(CFA_XSP16, literal(-18)))
          CFI (cfiCond46) V3 load(1, XDATA, add(CFA_XSP16, literal(-17)))
          CFI (cfiCond46) V4 load(1, XDATA, add(CFA_XSP16, literal(-16)))
          CFI (cfiCond46) V5 load(1, XDATA, add(CFA_XSP16, literal(-15)))
          CFI (cfiCond46) V6 load(1, XDATA, add(CFA_XSP16, literal(-14)))
          CFI (cfiCond46) V7 load(1, XDATA, add(CFA_XSP16, literal(-13)))
          CFI (cfiCond46) V8 load(1, XDATA, add(CFA_XSP16, literal(-12)))
          CFI (cfiCond46) V9 load(1, XDATA, add(CFA_XSP16, literal(-11)))
          CFI (cfiCond46) V10 load(1, XDATA, add(CFA_XSP16, literal(-10)))
          CFI (cfiCond46) V11 load(1, XDATA, add(CFA_XSP16, literal(-9)))
          CFI (cfiCond46) V12 load(1, XDATA, add(CFA_XSP16, literal(-8)))
          CFI (cfiCond46) V13 load(1, XDATA, add(CFA_XSP16, literal(-7)))
          CFI (cfiCond46) R7 load(1, XDATA, add(CFA_XSP16, literal(-6)))
          CFI (cfiCond46) ?RET_LOW load(1, XDATA, add(CFA_XSP16, literal(-5)))
          CFI (cfiCond46) ?RET_HIGH load(1, XDATA, add(CFA_XSP16, literal(-4)))
          CFI (cfiCond46) ?BRET_EXT load(1, XDATA, add(CFA_XSP16, literal(-3)))
          CFI (cfiCond46) DPL0 load(1, XDATA, add(CFA_XSP16, literal(-2)))
          CFI (cfiCond46) DPH0 load(1, XDATA, add(CFA_XSP16, literal(-1)))
          CFI (cfiCond46) CFA_SP SP+0
          CFI (cfiCond46) CFA_XSP16 add(XSP16, 22)
          CFI Block cfiCond47 Using cfiCommon0
          CFI (cfiCond47) Function zll_SendScanRsp
          CFI (cfiCond47) Conditional ??CrossCallReturnLabel_55
          CFI (cfiCond47) R6 load(1, XDATA, add(CFA_XSP16, literal(-22)))
          CFI (cfiCond47) VB load(1, XDATA, add(CFA_XSP16, literal(-21)))
          CFI (cfiCond47) V0 load(1, XDATA, add(CFA_XSP16, literal(-20)))
          CFI (cfiCond47) V1 load(1, XDATA, add(CFA_XSP16, literal(-19)))
          CFI (cfiCond47) V2 load(1, XDATA, add(CFA_XSP16, literal(-18)))
          CFI (cfiCond47) V3 load(1, XDATA, add(CFA_XSP16, literal(-17)))
          CFI (cfiCond47) V4 load(1, XDATA, add(CFA_XSP16, literal(-16)))
          CFI (cfiCond47) V5 load(1, XDATA, add(CFA_XSP16, literal(-15)))
          CFI (cfiCond47) V6 load(1, XDATA, add(CFA_XSP16, literal(-14)))
          CFI (cfiCond47) V7 load(1, XDATA, add(CFA_XSP16, literal(-13)))
          CFI (cfiCond47) V8 load(1, XDATA, add(CFA_XSP16, literal(-12)))
          CFI (cfiCond47) V9 load(1, XDATA, add(CFA_XSP16, literal(-11)))
          CFI (cfiCond47) V10 load(1, XDATA, add(CFA_XSP16, literal(-10)))
          CFI (cfiCond47) V11 load(1, XDATA, add(CFA_XSP16, literal(-9)))
          CFI (cfiCond47) V12 load(1, XDATA, add(CFA_XSP16, literal(-8)))
          CFI (cfiCond47) V13 load(1, XDATA, add(CFA_XSP16, literal(-7)))
          CFI (cfiCond47) R7 load(1, XDATA, add(CFA_XSP16, literal(-6)))
          CFI (cfiCond47) ?RET_LOW load(1, XDATA, add(CFA_XSP16, literal(-5)))
          CFI (cfiCond47) ?RET_HIGH load(1, XDATA, add(CFA_XSP16, literal(-4)))
          CFI (cfiCond47) ?BRET_EXT load(1, XDATA, add(CFA_XSP16, literal(-3)))
          CFI (cfiCond47) DPL0 load(1, XDATA, add(CFA_XSP16, literal(-2)))
          CFI (cfiCond47) DPH0 load(1, XDATA, add(CFA_XSP16, literal(-1)))
          CFI (cfiCond47) CFA_SP SP+0
          CFI (cfiCond47) CFA_XSP16 add(XSP16, 22)
          CFI Block cfiCond48 Using cfiCommon0
          CFI (cfiCond48) Function zll_UpdateFreeRanges
          CFI (cfiCond48) Conditional ??CrossCallReturnLabel_56
          CFI (cfiCond48) DPL0 Frame(CFA_SP, 4)
          CFI (cfiCond48) DPH0 Frame(CFA_SP, 5)
          CFI (cfiCond48) CFA_SP SP+-5
          CFI Block cfiCond49 Using cfiCommon0
          CFI (cfiCond49) Function zll_SplitFreeRanges
          CFI (cfiCond49) Conditional ??CrossCallReturnLabel_57
          CFI (cfiCond49) R6 load(1, XDATA, add(CFA_XSP16, literal(-18)))
          CFI (cfiCond49) VB load(1, XDATA, add(CFA_XSP16, literal(-17)))
          CFI (cfiCond49) V0 load(1, XDATA, add(CFA_XSP16, literal(-16)))
          CFI (cfiCond49) V1 load(1, XDATA, add(CFA_XSP16, literal(-15)))
          CFI (cfiCond49) V2 load(1, XDATA, add(CFA_XSP16, literal(-14)))
          CFI (cfiCond49) V3 load(1, XDATA, add(CFA_XSP16, literal(-13)))
          CFI (cfiCond49) V4 load(1, XDATA, add(CFA_XSP16, literal(-12)))
          CFI (cfiCond49) V5 load(1, XDATA, add(CFA_XSP16, literal(-11)))
          CFI (cfiCond49) V6 load(1, XDATA, add(CFA_XSP16, literal(-10)))
          CFI (cfiCond49) V7 load(1, XDATA, add(CFA_XSP16, literal(-9)))
          CFI (cfiCond49) V8 load(1, XDATA, add(CFA_XSP16, literal(-8)))
          CFI (cfiCond49) V9 load(1, XDATA, add(CFA_XSP16, literal(-7)))
          CFI (cfiCond49) R7 load(1, XDATA, add(CFA_XSP16, literal(-6)))
          CFI (cfiCond49) ?RET_LOW load(1, XDATA, add(CFA_XSP16, literal(-5)))
          CFI (cfiCond49) ?RET_HIGH load(1, XDATA, add(CFA_XSP16, literal(-4)))
          CFI (cfiCond49) ?BRET_EXT load(1, XDATA, add(CFA_XSP16, literal(-3)))
          CFI (cfiCond49) DPL0 load(1, XDATA, add(CFA_XSP16, literal(-2)))
          CFI (cfiCond49) DPH0 load(1, XDATA, add(CFA_XSP16, literal(-1)))
          CFI (cfiCond49) CFA_SP SP+0
          CFI (cfiCond49) CFA_XSP16 add(XSP16, 18)
          CFI Block cfiCond50 Using cfiCommon0
          CFI (cfiCond50) Function zll_SplitFreeRanges
          CFI (cfiCond50) Conditional ??CrossCallReturnLabel_58
          CFI (cfiCond50) R6 load(1, XDATA, add(CFA_XSP16, literal(-18)))
          CFI (cfiCond50) VB load(1, XDATA, add(CFA_XSP16, literal(-17)))
          CFI (cfiCond50) V0 load(1, XDATA, add(CFA_XSP16, literal(-16)))
          CFI (cfiCond50) V1 load(1, XDATA, add(CFA_XSP16, literal(-15)))
          CFI (cfiCond50) V2 load(1, XDATA, add(CFA_XSP16, literal(-14)))
          CFI (cfiCond50) V3 load(1, XDATA, add(CFA_XSP16, literal(-13)))
          CFI (cfiCond50) V4 load(1, XDATA, add(CFA_XSP16, literal(-12)))
          CFI (cfiCond50) V5 load(1, XDATA, add(CFA_XSP16, literal(-11)))
          CFI (cfiCond50) V6 load(1, XDATA, add(CFA_XSP16, literal(-10)))
          CFI (cfiCond50) V7 load(1, XDATA, add(CFA_XSP16, literal(-9)))
          CFI (cfiCond50) V8 load(1, XDATA, add(CFA_XSP16, literal(-8)))
          CFI (cfiCond50) V9 load(1, XDATA, add(CFA_XSP16, literal(-7)))
          CFI (cfiCond50) R7 load(1, XDATA, add(CFA_XSP16, literal(-6)))
          CFI (cfiCond50) ?RET_LOW load(1, XDATA, add(CFA_XSP16, literal(-5)))
          CFI (cfiCond50) ?RET_HIGH load(1, XDATA, add(CFA_XSP16, literal(-4)))
          CFI (cfiCond50) ?BRET_EXT load(1, XDATA, add(CFA_XSP16, literal(-3)))
          CFI (cfiCond50) DPL0 load(1, XDATA, add(CFA_XSP16, literal(-2)))
          CFI (cfiCond50) DPH0 load(1, XDATA, add(CFA_XSP16, literal(-1)))
          CFI (cfiCond50) CFA_SP SP+0
          CFI (cfiCond50) CFA_XSP16 add(XSP16, 18)
          CFI Block cfiCond51 Using cfiCommon0
          CFI (cfiCond51) Function zll_SplitFreeRanges
          CFI (cfiCond51) Conditional ??CrossCallReturnLabel_59
          CFI (cfiCond51) R6 load(1, XDATA, add(CFA_XSP16, literal(-18)))
          CFI (cfiCond51) VB load(1, XDATA, add(CFA_XSP16, literal(-17)))
          CFI (cfiCond51) V0 load(1, XDATA, add(CFA_XSP16, literal(-16)))
          CFI (cfiCond51) V1 load(1, XDATA, add(CFA_XSP16, literal(-15)))
          CFI (cfiCond51) V2 load(1, XDATA, add(CFA_XSP16, literal(-14)))
          CFI (cfiCond51) V3 load(1, XDATA, add(CFA_XSP16, literal(-13)))
          CFI (cfiCond51) V4 load(1, XDATA, add(CFA_XSP16, literal(-12)))
          CFI (cfiCond51) V5 load(1, XDATA, add(CFA_XSP16, literal(-11)))
          CFI (cfiCond51) V6 load(1, XDATA, add(CFA_XSP16, literal(-10)))
          CFI (cfiCond51) V7 load(1, XDATA, add(CFA_XSP16, literal(-9)))
          CFI (cfiCond51) V8 load(1, XDATA, add(CFA_XSP16, literal(-8)))
          CFI (cfiCond51) V9 load(1, XDATA, add(CFA_XSP16, literal(-7)))
          CFI (cfiCond51) R7 load(1, XDATA, add(CFA_XSP16, literal(-6)))
          CFI (cfiCond51) ?RET_LOW load(1, XDATA, add(CFA_XSP16, literal(-5)))
          CFI (cfiCond51) ?RET_HIGH load(1, XDATA, add(CFA_XSP16, literal(-4)))
          CFI (cfiCond51) ?BRET_EXT load(1, XDATA, add(CFA_XSP16, literal(-3)))
          CFI (cfiCond51) DPL0 load(1, XDATA, add(CFA_XSP16, literal(-2)))
          CFI (cfiCond51) DPH0 load(1, XDATA, add(CFA_XSP16, literal(-1)))
          CFI (cfiCond51) CFA_SP SP+0
          CFI (cfiCond51) CFA_XSP16 add(XSP16, 18)
          CFI Block cfiCond52 Using cfiCommon0
          CFI (cfiCond52) Function zll_PopGrpIDRange
          CFI (cfiCond52) Conditional ??CrossCallReturnLabel_60
          CFI (cfiCond52) R6 load(1, XDATA, add(CFA_XSP16, literal(-10)))
          CFI (cfiCond52) VB load(1, XDATA, add(CFA_XSP16, literal(-9)))
          CFI (cfiCond52) V0 load(1, XDATA, add(CFA_XSP16, literal(-8)))
          CFI (cfiCond52) V1 load(1, XDATA, add(CFA_XSP16, literal(-7)))
          CFI (cfiCond52) R7 load(1, XDATA, add(CFA_XSP16, literal(-6)))
          CFI (cfiCond52) ?RET_LOW load(1, XDATA, add(CFA_XSP16, literal(-5)))
          CFI (cfiCond52) ?RET_HIGH load(1, XDATA, add(CFA_XSP16, literal(-4)))
          CFI (cfiCond52) ?BRET_EXT load(1, XDATA, add(CFA_XSP16, literal(-3)))
          CFI (cfiCond52) DPL0 load(1, XDATA, add(CFA_XSP16, literal(-2)))
          CFI (cfiCond52) DPH0 load(1, XDATA, add(CFA_XSP16, literal(-1)))
          CFI (cfiCond52) CFA_SP SP+0
          CFI (cfiCond52) CFA_XSP16 add(XSP16, 10)
          CFI Block cfiCond53 Using cfiCommon0
          CFI (cfiCond53) Function zll_PopNwkAddress
          CFI (cfiCond53) Conditional ??CrossCallReturnLabel_61
          CFI (cfiCond53) DPL0 Frame(CFA_SP, 4)
          CFI (cfiCond53) DPH0 Frame(CFA_SP, 5)
          CFI (cfiCond53) CFA_SP SP+-5
          CFI Block cfiCond54 Using cfiCommon0
          CFI (cfiCond54) Function zll_SendScanRsp
          CFI (cfiCond54) Conditional ??CrossCallReturnLabel_62
          CFI (cfiCond54) R6 load(1, XDATA, add(CFA_XSP16, literal(-22)))
          CFI (cfiCond54) VB load(1, XDATA, add(CFA_XSP16, literal(-21)))
          CFI (cfiCond54) V0 load(1, XDATA, add(CFA_XSP16, literal(-20)))
          CFI (cfiCond54) V1 load(1, XDATA, add(CFA_XSP16, literal(-19)))
          CFI (cfiCond54) V2 load(1, XDATA, add(CFA_XSP16, literal(-18)))
          CFI (cfiCond54) V3 load(1, XDATA, add(CFA_XSP16, literal(-17)))
          CFI (cfiCond54) V4 load(1, XDATA, add(CFA_XSP16, literal(-16)))
          CFI (cfiCond54) V5 load(1, XDATA, add(CFA_XSP16, literal(-15)))
          CFI (cfiCond54) V6 load(1, XDATA, add(CFA_XSP16, literal(-14)))
          CFI (cfiCond54) V7 load(1, XDATA, add(CFA_XSP16, literal(-13)))
          CFI (cfiCond54) V8 load(1, XDATA, add(CFA_XSP16, literal(-12)))
          CFI (cfiCond54) V9 load(1, XDATA, add(CFA_XSP16, literal(-11)))
          CFI (cfiCond54) V10 load(1, XDATA, add(CFA_XSP16, literal(-10)))
          CFI (cfiCond54) V11 load(1, XDATA, add(CFA_XSP16, literal(-9)))
          CFI (cfiCond54) V12 load(1, XDATA, add(CFA_XSP16, literal(-8)))
          CFI (cfiCond54) V13 load(1, XDATA, add(CFA_XSP16, literal(-7)))
          CFI (cfiCond54) R7 load(1, XDATA, add(CFA_XSP16, literal(-6)))
          CFI (cfiCond54) ?RET_LOW load(1, XDATA, add(CFA_XSP16, literal(-5)))
          CFI (cfiCond54) ?RET_HIGH load(1, XDATA, add(CFA_XSP16, literal(-4)))
          CFI (cfiCond54) ?BRET_EXT load(1, XDATA, add(CFA_XSP16, literal(-3)))
          CFI (cfiCond54) DPL0 load(1, XDATA, add(CFA_XSP16, literal(-2)))
          CFI (cfiCond54) DPH0 load(1, XDATA, add(CFA_XSP16, literal(-1)))
          CFI (cfiCond54) CFA_SP SP+0
          CFI (cfiCond54) CFA_XSP16 add(XSP16, 22)
          CFI Block cfiCond55 Using cfiCommon0
          CFI (cfiCond55) Function zll_SendScanRsp
          CFI (cfiCond55) Conditional ??CrossCallReturnLabel_63
          CFI (cfiCond55) R6 load(1, XDATA, add(CFA_XSP16, literal(-22)))
          CFI (cfiCond55) VB load(1, XDATA, add(CFA_XSP16, literal(-21)))
          CFI (cfiCond55) V0 load(1, XDATA, add(CFA_XSP16, literal(-20)))
          CFI (cfiCond55) V1 load(1, XDATA, add(CFA_XSP16, literal(-19)))
          CFI (cfiCond55) V2 load(1, XDATA, add(CFA_XSP16, literal(-18)))
          CFI (cfiCond55) V3 load(1, XDATA, add(CFA_XSP16, literal(-17)))
          CFI (cfiCond55) V4 load(1, XDATA, add(CFA_XSP16, literal(-16)))
          CFI (cfiCond55) V5 load(1, XDATA, add(CFA_XSP16, literal(-15)))
          CFI (cfiCond55) V6 load(1, XDATA, add(CFA_XSP16, literal(-14)))
          CFI (cfiCond55) V7 load(1, XDATA, add(CFA_XSP16, literal(-13)))
          CFI (cfiCond55) V8 load(1, XDATA, add(CFA_XSP16, literal(-12)))
          CFI (cfiCond55) V9 load(1, XDATA, add(CFA_XSP16, literal(-11)))
          CFI (cfiCond55) V10 load(1, XDATA, add(CFA_XSP16, literal(-10)))
          CFI (cfiCond55) V11 load(1, XDATA, add(CFA_XSP16, literal(-9)))
          CFI (cfiCond55) V12 load(1, XDATA, add(CFA_XSP16, literal(-8)))
          CFI (cfiCond55) V13 load(1, XDATA, add(CFA_XSP16, literal(-7)))
          CFI (cfiCond55) R7 load(1, XDATA, add(CFA_XSP16, literal(-6)))
          CFI (cfiCond55) ?RET_LOW load(1, XDATA, add(CFA_XSP16, literal(-5)))
          CFI (cfiCond55) ?RET_HIGH load(1, XDATA, add(CFA_XSP16, literal(-4)))
          CFI (cfiCond55) ?BRET_EXT load(1, XDATA, add(CFA_XSP16, literal(-3)))
          CFI (cfiCond55) DPL0 load(1, XDATA, add(CFA_XSP16, literal(-2)))
          CFI (cfiCond55) DPH0 load(1, XDATA, add(CFA_XSP16, literal(-1)))
          CFI (cfiCond55) CFA_SP SP+0
          CFI (cfiCond55) CFA_XSP16 add(XSP16, 22)
          CFI Block cfiCond56 Using cfiCommon0
          CFI (cfiCond56) Function zll_BeaconIndCB
          CFI (cfiCond56) Conditional ??CrossCallReturnLabel_64
          CFI (cfiCond56) R6 load(1, XDATA, add(CFA_XSP16, literal(-20)))
          CFI (cfiCond56) VB load(1, XDATA, add(CFA_XSP16, literal(-19)))
          CFI (cfiCond56) V0 load(1, XDATA, add(CFA_XSP16, literal(-18)))
          CFI (cfiCond56) V1 load(1, XDATA, add(CFA_XSP16, literal(-17)))
          CFI (cfiCond56) V2 load(1, XDATA, add(CFA_XSP16, literal(-16)))
          CFI (cfiCond56) V3 load(1, XDATA, add(CFA_XSP16, literal(-15)))
          CFI (cfiCond56) V4 load(1, XDATA, add(CFA_XSP16, literal(-14)))
          CFI (cfiCond56) V5 load(1, XDATA, add(CFA_XSP16, literal(-13)))
          CFI (cfiCond56) V6 load(1, XDATA, add(CFA_XSP16, literal(-12)))
          CFI (cfiCond56) V7 load(1, XDATA, add(CFA_XSP16, literal(-11)))
          CFI (cfiCond56) V8 load(1, XDATA, add(CFA_XSP16, literal(-10)))
          CFI (cfiCond56) V9 load(1, XDATA, add(CFA_XSP16, literal(-9)))
          CFI (cfiCond56) V10 load(1, XDATA, add(CFA_XSP16, literal(-8)))
          CFI (cfiCond56) V11 load(1, XDATA, add(CFA_XSP16, literal(-7)))
          CFI (cfiCond56) R7 load(1, XDATA, add(CFA_XSP16, literal(-6)))
          CFI (cfiCond56) ?RET_LOW load(1, XDATA, add(CFA_XSP16, literal(-5)))
          CFI (cfiCond56) ?RET_HIGH load(1, XDATA, add(CFA_XSP16, literal(-4)))
          CFI (cfiCond56) ?BRET_EXT load(1, XDATA, add(CFA_XSP16, literal(-3)))
          CFI (cfiCond56) DPL0 load(1, XDATA, add(CFA_XSP16, literal(-2)))
          CFI (cfiCond56) DPH0 load(1, XDATA, add(CFA_XSP16, literal(-1)))
          CFI (cfiCond56) CFA_SP SP+0
          CFI (cfiCond56) CFA_XSP16 add(XSP16, 20)
          CFI Block cfiPicker57 Using cfiCommon1
          CFI (cfiPicker57) NoFunction
          CFI (cfiPicker57) Picker
        MOVX    @DPTR,A
        INC     DPTR
        MOV     A,R1
        MOVX    @DPTR,A
        RET
          CFI EndBlock cfiCond45
          CFI EndBlock cfiCond46
          CFI EndBlock cfiCond47
          CFI EndBlock cfiCond48
          CFI EndBlock cfiCond49
          CFI EndBlock cfiCond50
          CFI EndBlock cfiCond51
          CFI EndBlock cfiCond52
          CFI EndBlock cfiCond53
          CFI EndBlock cfiCond54
          CFI EndBlock cfiCond55
          CFI EndBlock cfiCond56
          CFI EndBlock cfiPicker57

        RSEG BANKED_CODE:CODE:NOROOT(0)
?Subroutine17:
          CFI Block cfiCond58 Using cfiCommon0
          CFI Function zll_IsValidSplitFreeRanges
          CFI Conditional ??CrossCallReturnLabel_15
          CFI R6 load(1, XDATA, add(CFA_XSP16, literal(-10)))
          CFI VB load(1, XDATA, add(CFA_XSP16, literal(-9)))
          CFI V0 load(1, XDATA, add(CFA_XSP16, literal(-8)))
          CFI V1 load(1, XDATA, add(CFA_XSP16, literal(-7)))
          CFI R7 load(1, XDATA, add(CFA_XSP16, literal(-6)))
          CFI ?RET_LOW load(1, XDATA, add(CFA_XSP16, literal(-5)))
          CFI ?RET_HIGH load(1, XDATA, add(CFA_XSP16, literal(-4)))
          CFI ?BRET_EXT load(1, XDATA, add(CFA_XSP16, literal(-3)))
          CFI DPL0 load(1, XDATA, add(CFA_XSP16, literal(-2)))
          CFI DPH0 load(1, XDATA, add(CFA_XSP16, literal(-1)))
          CFI CFA_SP SP+0
          CFI CFA_XSP16 add(XSP16, 10)
          CFI Block cfiCond59 Using cfiCommon0
          CFI (cfiCond59) Function zll_PopGrpIDRange
          CFI (cfiCond59) Conditional ??CrossCallReturnLabel_16
          CFI (cfiCond59) R6 load(1, XDATA, add(CFA_XSP16, literal(-10)))
          CFI (cfiCond59) VB load(1, XDATA, add(CFA_XSP16, literal(-9)))
          CFI (cfiCond59) V0 load(1, XDATA, add(CFA_XSP16, literal(-8)))
          CFI (cfiCond59) V1 load(1, XDATA, add(CFA_XSP16, literal(-7)))
          CFI (cfiCond59) R7 load(1, XDATA, add(CFA_XSP16, literal(-6)))
          CFI (cfiCond59) ?RET_LOW load(1, XDATA, add(CFA_XSP16, literal(-5)))
          CFI (cfiCond59) ?RET_HIGH load(1, XDATA, add(CFA_XSP16, literal(-4)))
          CFI (cfiCond59) ?BRET_EXT load(1, XDATA, add(CFA_XSP16, literal(-3)))
          CFI (cfiCond59) DPL0 load(1, XDATA, add(CFA_XSP16, literal(-2)))
          CFI (cfiCond59) DPH0 load(1, XDATA, add(CFA_XSP16, literal(-1)))
          CFI (cfiCond59) CFA_SP SP+0
          CFI (cfiCond59) CFA_XSP16 add(XSP16, 10)
          CFI Block cfiPicker60 Using cfiCommon1
          CFI (cfiPicker60) NoFunction
          CFI (cfiPicker60) Picker
        MOV     DPH,#(zllFreeGrpIdEnd >> 8) & 0xff
        MOV     DPL,#zllFreeGrpIdEnd & 0xff
        MOVX    A,@DPTR
        CLR     C
        SUBB    A,R0
        MOV     R0,A
        INC     DPTR
        MOVX    A,@DPTR
        SUBB    A,R1
        MOV     R1,A
        RET
          CFI EndBlock cfiCond58
          CFI EndBlock cfiCond59
          CFI EndBlock cfiPicker60

        RSEG BANKED_CODE:CODE:NOROOT(0)
?Subroutine9:
          CFI Block cfiCond61 Using cfiCommon0
          CFI Function zll_SplitFreeRanges
          CFI Conditional ??CrossCallReturnLabel_0
          CFI R6 load(1, XDATA, add(CFA_XSP16, literal(-18)))
          CFI VB load(1, XDATA, add(CFA_XSP16, literal(-17)))
          CFI V0 load(1, XDATA, add(CFA_XSP16, literal(-16)))
          CFI V1 load(1, XDATA, add(CFA_XSP16, literal(-15)))
          CFI V2 load(1, XDATA, add(CFA_XSP16, literal(-14)))
          CFI V3 load(1, XDATA, add(CFA_XSP16, literal(-13)))
          CFI V4 load(1, XDATA, add(CFA_XSP16, literal(-12)))
          CFI V5 load(1, XDATA, add(CFA_XSP16, literal(-11)))
          CFI V6 load(1, XDATA, add(CFA_XSP16, literal(-10)))
          CFI V7 load(1, XDATA, add(CFA_XSP16, literal(-9)))
          CFI V8 load(1, XDATA, add(CFA_XSP16, literal(-8)))
          CFI V9 load(1, XDATA, add(CFA_XSP16, literal(-7)))
          CFI R7 load(1, XDATA, add(CFA_XSP16, literal(-6)))
          CFI ?RET_LOW load(1, XDATA, add(CFA_XSP16, literal(-5)))
          CFI ?RET_HIGH load(1, XDATA, add(CFA_XSP16, literal(-4)))
          CFI ?BRET_EXT load(1, XDATA, add(CFA_XSP16, literal(-3)))
          CFI DPL0 load(1, XDATA, add(CFA_XSP16, literal(-2)))
          CFI DPH0 load(1, XDATA, add(CFA_XSP16, literal(-1)))
          CFI CFA_SP SP+0
          CFI CFA_XSP16 add(XSP16, 18)
          CFI Block cfiCond62 Using cfiCommon0
          CFI (cfiCond62) Function zll_SplitFreeRanges
          CFI (cfiCond62) Conditional ??CrossCallReturnLabel_1
          CFI (cfiCond62) R6 load(1, XDATA, add(CFA_XSP16, literal(-18)))
          CFI (cfiCond62) VB load(1, XDATA, add(CFA_XSP16, literal(-17)))
          CFI (cfiCond62) V0 load(1, XDATA, add(CFA_XSP16, literal(-16)))
          CFI (cfiCond62) V1 load(1, XDATA, add(CFA_XSP16, literal(-15)))
          CFI (cfiCond62) V2 load(1, XDATA, add(CFA_XSP16, literal(-14)))
          CFI (cfiCond62) V3 load(1, XDATA, add(CFA_XSP16, literal(-13)))
          CFI (cfiCond62) V4 load(1, XDATA, add(CFA_XSP16, literal(-12)))
          CFI (cfiCond62) V5 load(1, XDATA, add(CFA_XSP16, literal(-11)))
          CFI (cfiCond62) V6 load(1, XDATA, add(CFA_XSP16, literal(-10)))
          CFI (cfiCond62) V7 load(1, XDATA, add(CFA_XSP16, literal(-9)))
          CFI (cfiCond62) V8 load(1, XDATA, add(CFA_XSP16, literal(-8)))
          CFI (cfiCond62) V9 load(1, XDATA, add(CFA_XSP16, literal(-7)))
          CFI (cfiCond62) R7 load(1, XDATA, add(CFA_XSP16, literal(-6)))
          CFI (cfiCond62) ?RET_LOW load(1, XDATA, add(CFA_XSP16, literal(-5)))
          CFI (cfiCond62) ?RET_HIGH load(1, XDATA, add(CFA_XSP16, literal(-4)))
          CFI (cfiCond62) ?BRET_EXT load(1, XDATA, add(CFA_XSP16, literal(-3)))
          CFI (cfiCond62) DPL0 load(1, XDATA, add(CFA_XSP16, literal(-2)))
          CFI (cfiCond62) DPH0 load(1, XDATA, add(CFA_XSP16, literal(-1)))
          CFI (cfiCond62) CFA_SP SP+0
          CFI (cfiCond62) CFA_XSP16 add(XSP16, 18)
          CFI Block cfiCond63 Using cfiCommon0
          CFI (cfiCond63) Function zll_PopGrpIDRange
          CFI (cfiCond63) Conditional ??CrossCallReturnLabel_2
          CFI (cfiCond63) R6 load(1, XDATA, add(CFA_XSP16, literal(-10)))
          CFI (cfiCond63) VB load(1, XDATA, add(CFA_XSP16, literal(-9)))
          CFI (cfiCond63) V0 load(1, XDATA, add(CFA_XSP16, literal(-8)))
          CFI (cfiCond63) V1 load(1, XDATA, add(CFA_XSP16, literal(-7)))
          CFI (cfiCond63) R7 load(1, XDATA, add(CFA_XSP16, literal(-6)))
          CFI (cfiCond63) ?RET_LOW load(1, XDATA, add(CFA_XSP16, literal(-5)))
          CFI (cfiCond63) ?RET_HIGH load(1, XDATA, add(CFA_XSP16, literal(-4)))
          CFI (cfiCond63) ?BRET_EXT load(1, XDATA, add(CFA_XSP16, literal(-3)))
          CFI (cfiCond63) DPL0 load(1, XDATA, add(CFA_XSP16, literal(-2)))
          CFI (cfiCond63) DPH0 load(1, XDATA, add(CFA_XSP16, literal(-1)))
          CFI (cfiCond63) CFA_SP SP+0
          CFI (cfiCond63) CFA_XSP16 add(XSP16, 10)
          CFI Block cfiPicker64 Using cfiCommon1
          CFI (cfiPicker64) NoFunction
          CFI (cfiPicker64) Picker
        MOVX    A,@DPTR
        ADD     A,#-0x1
        MOV     R0,A
        INC     DPTR
        MOVX    A,@DPTR
        ADDC    A,#-0x1
        MOV     R1,A
        RET
          CFI EndBlock cfiCond61
          CFI EndBlock cfiCond62
          CFI EndBlock cfiCond63
          CFI EndBlock cfiPicker64
//  484 
//  485 /*********************************************************************
//  486  * @fn      zll_PopNwkAddress
//  487  *
//  488  * @brief   Pop an avaialble short address out of the free network addresses range.
//  489  *
//  490  * @param   none
//  491  *
//  492  * @return  free address if available. 0, otherwise.
//  493  */

        RSEG BANKED_CODE:CODE:NOROOT(0)
//  494 uint16 zll_PopNwkAddress( void )
zll_PopNwkAddress:
          CFI Block cfiBlock65 Using cfiCommon0
          CFI Function zll_PopNwkAddress
        CODE
//  495 {
        PUSH    DPL
          CFI DPL0 Frame(CFA_SP, 4)
          CFI CFA_SP SP+-4
        PUSH    DPH
          CFI DPH0 Frame(CFA_SP, 5)
          CFI CFA_SP SP+-5
        ; Saved register size: 2
        ; Auto size: 0
//  496   if ( ( zllFreeNwkAddrBegin == 0 ) || ( zllFreeNwkAddrBegin > zllFreeNwkAddrEnd ) )
        MOV     DPTR,#zllFreeNwkAddrBegin
        LCALL   ??Subroutine46_0 & 0xFFFF
??CrossCallReturnLabel_121:
        JZ      ??zll_PopNwkAddress_0
        MOV     DPH,#(zllFreeNwkAddrEnd >> 8) & 0xff
        MOV     DPL,#zllFreeNwkAddrEnd & 0xff
        CLR     C
        MOVX    A,@DPTR
        SUBB    A,R0
        INC     DPTR
        MOVX    A,@DPTR
        SUBB    A,R1
        JNC     ??zll_PopNwkAddress_1
//  497   {
//  498     return ( 0 );
??zll_PopNwkAddress_0:
        MOV     R2,#0x0
        MOV     R3,#0x0
        SJMP    ??CrossCallReturnLabel_61
//  499   }
//  500 
//  501   return ( zllFreeNwkAddrBegin++ );
??zll_PopNwkAddress_1:
        MOV     DPTR,#zllFreeNwkAddrBegin
        LCALL   ??Subroutine38_0 & 0xFFFF
??CrossCallReturnLabel_65:
        MOV     A,R2
        ADD     A,#0x1
        INC     R0
        MOV     A,R3
        ADDC    A,#0x0
        MOV     R1,A
        MOV     DPTR,#zllFreeNwkAddrBegin
        LCALL   ?Subroutine19 & 0xFFFF
??CrossCallReturnLabel_61:
        SJMP    ??Subroutine39_0
          CFI EndBlock cfiBlock65
//  502 }
//  503 
//  504 /*********************************************************************
//  505  * @fn      zll_GetNumSubDevices
//  506  *
//  507  * @brief   Get the total number of sub-devices (endpoints) registered.
//  508  *
//  509  * @param   startIndex - starting index
//  510  *
//  511  * @return  number of sub-devices
//  512  */

        RSEG BANKED_CODE:CODE:NOROOT(0)
//  513 uint8 zll_GetNumSubDevices( uint8 startIndex )
zll_GetNumSubDevices:
          CFI Block cfiBlock66 Using cfiCommon0
          CFI Function zll_GetNumSubDevices
        CODE
//  514 {
        PUSH    DPL
          CFI DPL0 Frame(CFA_SP, 4)
          CFI CFA_SP SP+-4
        PUSH    DPH
          CFI DPH0 Frame(CFA_SP, 5)
          CFI CFA_SP SP+-5
        ; Saved register size: 2
        ; Auto size: 0
        MOV     A,R1
//  515   uint8 numEPs = 0;
        MOV     R1,#0x0
//  516 
//  517   for ( uint8 i = startIndex; i < ZLL_NUM_DEVICE_INFO_ENTRIES; i++ )
        MOV     R0,A
        SJMP    ??zll_GetNumSubDevices_0
//  518   {
//  519     if ( zllSubDevicesTbl[i] != NULL )
??zll_GetNumSubDevices_1:
        LCALL   ?Subroutine10 & 0xFFFF
??CrossCallReturnLabel_69:
        MOV     A,R2
        ORL     A,R3
        JZ      ??zll_GetNumSubDevices_2
//  520     numEPs++;
        INC     R1
//  521   }
??zll_GetNumSubDevices_2:
        INC     R0
??zll_GetNumSubDevices_0:
        MOV     A,R0
        CLR     C
        SUBB    A,#0x5
        JC      ??zll_GetNumSubDevices_1
//  522 
//  523   return ( numEPs );
        SJMP    ??Subroutine39_0
          CFI EndBlock cfiBlock66
//  524 }

        RSEG BANKED_CODE:CODE:NOROOT(0)
?Subroutine10:
          CFI Block cfiCond67 Using cfiCommon0
          CFI Function zll_GetNumSubDevices
          CFI Conditional ??CrossCallReturnLabel_69
          CFI DPL0 Frame(CFA_SP, 4)
          CFI DPH0 Frame(CFA_SP, 5)
          CFI CFA_SP SP+-5
          CFI Block cfiCond68 Using cfiCommon0
          CFI (cfiCond68) Function zll_GetNumGrpIDs
          CFI (cfiCond68) Conditional ??CrossCallReturnLabel_70
          CFI (cfiCond68) DPL0 Frame(CFA_SP, 4)
          CFI (cfiCond68) DPH0 Frame(CFA_SP, 5)
          CFI (cfiCond68) CFA_SP SP+-5
          CFI Block cfiPicker69 Using cfiCommon1
          CFI (cfiPicker69) NoFunction
          CFI (cfiPicker69) Picker
        MOV     A,R0
        CLR     C
        RLC     A
        MOV     R2,A
        CLR     A
        RLC     A
        MOV     R3,A
        MOV     A,#zllSubDevicesTbl & 0xff
        ADD     A,R2
        MOV     DPL,A
        MOV     A,#(zllSubDevicesTbl >> 8) & 0xff
        ADDC    A,R3
        MOV     DPH,A
          CFI EndBlock cfiCond67
          CFI EndBlock cfiCond68
          CFI EndBlock cfiPicker69
        REQUIRE ??Subroutine38_0
        ; // Fall through to label ??Subroutine38_0

        RSEG BANKED_CODE:CODE:NOROOT(0)
??Subroutine38_0:
          CFI Block cfiCond70 Using cfiCommon0
          CFI Function zll_PopNwkAddress
          CFI Conditional ??CrossCallReturnLabel_65
          CFI DPL0 Frame(CFA_SP, 4)
          CFI DPH0 Frame(CFA_SP, 5)
          CFI CFA_SP SP+-5
          CFI Block cfiCond71 Using cfiCommon0
          CFI (cfiCond71) Function zll_RouterProcessZDOMsg
          CFI (cfiCond71) Conditional ??CrossCallReturnLabel_66
          CFI (cfiCond71) R6 load(1, XDATA, add(CFA_XSP16, literal(-10)))
          CFI (cfiCond71) VB load(1, XDATA, add(CFA_XSP16, literal(-9)))
          CFI (cfiCond71) V0 load(1, XDATA, add(CFA_XSP16, literal(-8)))
          CFI (cfiCond71) V1 load(1, XDATA, add(CFA_XSP16, literal(-7)))
          CFI (cfiCond71) R7 load(1, XDATA, add(CFA_XSP16, literal(-6)))
          CFI (cfiCond71) ?RET_LOW load(1, XDATA, add(CFA_XSP16, literal(-5)))
          CFI (cfiCond71) ?RET_HIGH load(1, XDATA, add(CFA_XSP16, literal(-4)))
          CFI (cfiCond71) ?BRET_EXT load(1, XDATA, add(CFA_XSP16, literal(-3)))
          CFI (cfiCond71) DPL0 load(1, XDATA, add(CFA_XSP16, literal(-2)))
          CFI (cfiCond71) DPH0 load(1, XDATA, add(CFA_XSP16, literal(-1)))
          CFI (cfiCond71) CFA_SP SP+0
          CFI (cfiCond71) CFA_XSP16 add(XSP16, 22)
          CFI Block cfiCond72 Using cfiCommon0
          CFI (cfiCond72) Function zll_RouterProcessZDOMsg
          CFI (cfiCond72) Conditional ??CrossCallReturnLabel_67
          CFI (cfiCond72) R6 load(1, XDATA, add(CFA_XSP16, literal(-10)))
          CFI (cfiCond72) VB load(1, XDATA, add(CFA_XSP16, literal(-9)))
          CFI (cfiCond72) V0 load(1, XDATA, add(CFA_XSP16, literal(-8)))
          CFI (cfiCond72) V1 load(1, XDATA, add(CFA_XSP16, literal(-7)))
          CFI (cfiCond72) R7 load(1, XDATA, add(CFA_XSP16, literal(-6)))
          CFI (cfiCond72) ?RET_LOW load(1, XDATA, add(CFA_XSP16, literal(-5)))
          CFI (cfiCond72) ?RET_HIGH load(1, XDATA, add(CFA_XSP16, literal(-4)))
          CFI (cfiCond72) ?BRET_EXT load(1, XDATA, add(CFA_XSP16, literal(-3)))
          CFI (cfiCond72) DPL0 load(1, XDATA, add(CFA_XSP16, literal(-2)))
          CFI (cfiCond72) DPH0 load(1, XDATA, add(CFA_XSP16, literal(-1)))
          CFI (cfiCond72) CFA_SP SP+0
          CFI (cfiCond72) CFA_XSP16 add(XSP16, 22)
          CFI Block cfiCond73 Using cfiCommon0
          CFI (cfiCond73) Function zll_RouterProcessZDOMsg
          CFI (cfiCond73) Conditional ??CrossCallReturnLabel_68
          CFI (cfiCond73) R6 load(1, XDATA, add(CFA_XSP16, literal(-10)))
          CFI (cfiCond73) VB load(1, XDATA, add(CFA_XSP16, literal(-9)))
          CFI (cfiCond73) V0 load(1, XDATA, add(CFA_XSP16, literal(-8)))
          CFI (cfiCond73) V1 load(1, XDATA, add(CFA_XSP16, literal(-7)))
          CFI (cfiCond73) R7 load(1, XDATA, add(CFA_XSP16, literal(-6)))
          CFI (cfiCond73) ?RET_LOW load(1, XDATA, add(CFA_XSP16, literal(-5)))
          CFI (cfiCond73) ?RET_HIGH load(1, XDATA, add(CFA_XSP16, literal(-4)))
          CFI (cfiCond73) ?BRET_EXT load(1, XDATA, add(CFA_XSP16, literal(-3)))
          CFI (cfiCond73) DPL0 load(1, XDATA, add(CFA_XSP16, literal(-2)))
          CFI (cfiCond73) DPH0 load(1, XDATA, add(CFA_XSP16, literal(-1)))
          CFI (cfiCond73) CFA_SP SP+0
          CFI (cfiCond73) CFA_XSP16 add(XSP16, 22)
          CFI Block cfiCond74 Using cfiCommon0
          CFI (cfiCond74) Function zll_GetNumSubDevices
          CFI (cfiCond74) Conditional ??CrossCallReturnLabel_69
          CFI (cfiCond74) DPL0 Frame(CFA_SP, 4)
          CFI (cfiCond74) DPH0 Frame(CFA_SP, 5)
          CFI (cfiCond74) CFA_SP SP+-5
          CFI Block cfiCond75 Using cfiCommon0
          CFI (cfiCond75) Function zll_GetNumGrpIDs
          CFI (cfiCond75) Conditional ??CrossCallReturnLabel_70
          CFI (cfiCond75) DPL0 Frame(CFA_SP, 4)
          CFI (cfiCond75) DPH0 Frame(CFA_SP, 5)
          CFI (cfiCond75) CFA_SP SP+-5
          CFI Block cfiPicker76 Using cfiCommon1
          CFI (cfiPicker76) NoFunction
          CFI (cfiPicker76) Picker
        MOVX    A,@DPTR
        MOV     R2,A
        INC     DPTR
        MOVX    A,@DPTR
        MOV     R3,A
        RET
          CFI EndBlock cfiCond70
          CFI EndBlock cfiCond71
          CFI EndBlock cfiCond72
          CFI EndBlock cfiCond73
          CFI EndBlock cfiCond74
          CFI EndBlock cfiCond75
          CFI EndBlock cfiPicker76

        RSEG BANKED_CODE:CODE:NOROOT(0)
?Subroutine1:
          CFI Block cfiBlock77 Using cfiCommon0
          CFI NoFunction
          CFI CFA_SP SP+-5
          CFI CFA_XSP16 add(XSP16, 2)
          CFI DPL0 Frame(CFA_SP, 4)
          CFI DPH0 Frame(CFA_SP, 5)
          CFI Invalid
        LCALL   ?DEALLOC_XSTACK8
          CFI EndBlock cfiBlock77
        REQUIRE ??Subroutine39_0
        ; // Fall through to label ??Subroutine39_0

        RSEG BANKED_CODE:CODE:NOROOT(0)
??Subroutine39_0:
          CFI Block cfiBlock78 Using cfiCommon0
          CFI NoFunction
          CFI CFA_SP SP+-5
          CFI DPL0 Frame(CFA_SP, 4)
          CFI DPH0 Frame(CFA_SP, 5)
        POP     DPH
          CFI CFA_SP SP+-4
          CFI DPH0 SameValue
        POP     DPL
          CFI CFA_SP SP+-3
          CFI DPL0 SameValue
        LJMP    ?BRET
          CFI EndBlock cfiBlock78
//  525 
//  526 /*********************************************************************
//  527  * @fn      zll_GetNumGrpIDs
//  528  *
//  529  * @brief   Get the total number of group IDs required by this device.
//  530  *
//  531  * @param   none
//  532  *
//  533  * @return  number of group IDs
//  534  */

        RSEG BANKED_CODE:CODE:NOROOT(0)
//  535 uint8 zll_GetNumGrpIDs( void )
zll_GetNumGrpIDs:
          CFI Block cfiBlock79 Using cfiCommon0
          CFI Function zll_GetNumGrpIDs
        CODE
//  536 {
        PUSH    DPL
          CFI DPL0 Frame(CFA_SP, 4)
          CFI CFA_SP SP+-4
        PUSH    DPH
          CFI DPH0 Frame(CFA_SP, 5)
          CFI CFA_SP SP+-5
        ; Saved register size: 2
        ; Auto size: 0
//  537   uint8 numGrpIDs = 0;
        MOV     R1,#0x0
//  538 
//  539   for ( uint8 i = 0; i < ZLL_NUM_DEVICE_INFO_ENTRIES; i++ )
        MOV     R0,#0x0
//  540   {
//  541     if ( zllSubDevicesTbl[i] != NULL )
??zll_GetNumGrpIDs_0:
        LCALL   ?Subroutine10 & 0xFFFF
??CrossCallReturnLabel_70:
        MOV     DPL,R2
        MOV     DPH,R3
        MOV     A,DPL
        ORL     A,DPH
        JZ      ??zll_GetNumGrpIDs_1
//  542     {
//  543       numGrpIDs += zllSubDevicesTbl[i]->grpIdCnt;
        INC     DPTR
        INC     DPTR
        INC     DPTR
        INC     DPTR
        INC     DPTR
        INC     DPTR
        MOVX    A,@DPTR
        ADD     A,R1
        MOV     R1,A
//  544     }
//  545   }
??zll_GetNumGrpIDs_1:
        INC     R0
        MOV     A,R0
        CLR     C
        SUBB    A,#0x5
        JC      ??zll_GetNumGrpIDs_0
//  546 
//  547   return ( numGrpIDs );
        SJMP    ??Subroutine39_0
          CFI EndBlock cfiBlock79
//  548 }
//  549 
//  550 /*********************************************************************
//  551  * @fn      zll_GetSubDeviceInfo
//  552  *
//  553  * @brief   Get the sub-device information.
//  554  *
//  555  * input parameter
//  556  *
//  557  * @param   index - index of sub-device
//  558  *
//  559  * output parameter
//  560  *
//  561  * @param   pInfo - sub-device info (to be returned)
//  562  *
//  563  * @return  none
//  564  */

        RSEG BANKED_CODE:CODE:NOROOT(0)
//  565 void zll_GetSubDeviceInfo( uint8 index, zclLLDeviceInfo_t *pInfo )
zll_GetSubDeviceInfo:
          CFI Block cfiBlock80 Using cfiCommon0
          CFI Function zll_GetSubDeviceInfo
        CODE
//  566 {
        FUNCALL zll_GetSubDeviceInfo, afFindEndPointDesc
        LOCFRAME ISTACK, 0, STACK
        LOCFRAME PSTACK, 0, STACK
        LOCFRAME XSTACK, 14, STACK
        LOCFRAME IOVERLAY, 0, STATIC
        LOCFRAME DOVERLAY, 0, STATIC
        ARGFRAME ISTACK, 0, STACK
        ARGFRAME PSTACK, 0, STACK
        ARGFRAME XSTACK, 14, STACK
        ARGFRAME IOVERLAY, 0, STATIC
        ARGFRAME DOVERLAY, 0, STATIC
        FUNCALL zll_GetSubDeviceInfo, osal_memset
        LOCFRAME ISTACK, 0, STACK
        LOCFRAME PSTACK, 0, STACK
        LOCFRAME XSTACK, 14, STACK
        LOCFRAME IOVERLAY, 0, STATIC
        LOCFRAME DOVERLAY, 0, STATIC
        ARGFRAME ISTACK, 0, STACK
        ARGFRAME PSTACK, 0, STACK
        ARGFRAME XSTACK, 14, STACK
        ARGFRAME IOVERLAY, 0, STATIC
        ARGFRAME DOVERLAY, 0, STATIC
        MOV     A,#-0xe
        LCALL   ?BANKED_ENTER_XDATA
          CFI DPH0 load(1, XDATA, add(CFA_XSP16, literal(-1)))
          CFI DPL0 load(1, XDATA, add(CFA_XSP16, literal(-2)))
          CFI ?BRET_EXT load(1, XDATA, add(CFA_XSP16, literal(-3)))
          CFI ?RET_HIGH load(1, XDATA, add(CFA_XSP16, literal(-4)))
          CFI ?RET_LOW load(1, XDATA, add(CFA_XSP16, literal(-5)))
          CFI R7 load(1, XDATA, add(CFA_XSP16, literal(-6)))
          CFI V5 load(1, XDATA, add(CFA_XSP16, literal(-7)))
          CFI V4 load(1, XDATA, add(CFA_XSP16, literal(-8)))
          CFI V3 load(1, XDATA, add(CFA_XSP16, literal(-9)))
          CFI V2 load(1, XDATA, add(CFA_XSP16, literal(-10)))
          CFI V1 load(1, XDATA, add(CFA_XSP16, literal(-11)))
          CFI V0 load(1, XDATA, add(CFA_XSP16, literal(-12)))
          CFI VB load(1, XDATA, add(CFA_XSP16, literal(-13)))
          CFI R6 load(1, XDATA, add(CFA_XSP16, literal(-14)))
          CFI CFA_SP SP+0
          CFI CFA_XSP16 add(XSP16, 14)
        ; Saved register size: 14
        ; Auto size: 0
        MOV     A,R2
        MOV     R6,A
        MOV     A,R3
        MOV     R7,A
//  567   if ( pInfo == NULL )
        MOV     A,R6
        ORL     A,R7
        JZ      ??zll_GetSubDeviceInfo_0
//  568   {
//  569     return;
//  570   }
//  571   if ( ( index < ZLL_NUM_DEVICE_INFO_ENTRIES ) &&
//  572        ( zllSubDevicesTbl[index] != NULL ) )
        MOV     A,R1
        CLR     C
        SUBB    A,#0x5
        JNC     ??zll_GetSubDeviceInfo_1
        MOV     A,R1
        CLR     C
        RLC     A
        MOV     R0,A
        CLR     A
        RLC     A
        MOV     R1,A
        MOV     A,#zllSubDevicesTbl & 0xff
        ADD     A,R0
        MOV     R0,A
        MOV     A,#(zllSubDevicesTbl >> 8) & 0xff
        ADDC    A,R1
        MOV     R1,A
        MOV     ?V0 + 0,R0
        MOV     ?V0 + 1,R1
        MOV     DPL,R0
        LCALL   ??Subroutine42_0 & 0xFFFF
??CrossCallReturnLabel_98:
        MOV     DPL,R0
        MOV     DPH,R1
        MOV     A,DPL
        ORL     A,DPH
        JZ      ??zll_GetSubDeviceInfo_1
//  573   {
//  574     endPointDesc_t *epDesc = afFindEndPointDesc( zllSubDevicesTbl[index]->endpoint );
//  575     if ( epDesc != NULL )
        ; Setup parameters for call to function afFindEndPointDesc
        MOVX    A,@DPTR
        MOV     R1,A
        LCALL   ??afFindEndPointDesc?relay
        MOV     ?V0 + 5,R3
        MOV     A,R2
        ORL     A,?V0 + 5
        JZ      ??zll_GetSubDeviceInfo_0
//  576     {
//  577       // Copy sub-device info
//  578       *pInfo = *(zllSubDevicesTbl[index]);
        MOV     DPL,?V0 + 0
        MOV     DPH,?V0 + 1
        LCALL   ?Subroutine16 & 0xFFFF
//  579     }
//  580   }
??CrossCallReturnLabel_13:
        MOV     A,R6
        MOV     R4,A
        MOV     A,R7
        MOV     R5,A
        MOV     A,#0x7
        LCALL   ?MOVE_LONG8_XDATA_XDATA
        SJMP    ??zll_GetSubDeviceInfo_0
//  581   else
//  582   {
//  583     osal_memset( pInfo, 0, sizeof( zclLLDeviceInfo_t ) );
??zll_GetSubDeviceInfo_1:
        ; Setup parameters for call to function osal_memset
        MOV     R4,#0x7
        MOV     R5,#0x0
        MOV     R1,#0x0
        LCALL   ??osal_memset?relay
??zll_GetSubDeviceInfo_0:
        MOV     R7,#0x6
        LJMP    ?BANKED_LEAVE_XDATA
          CFI EndBlock cfiBlock80
//  584   }
//  585 }
//  586 
//  587 
//  588 /*********************************************************************
//  589  * @fn      zll_EncryptNwkKey
//  590  *
//  591  * @brief   Encrypt the current network key to be sent to a Target.
//  592  *          In case of Factory New device generate new key.
//  593  *
//  594  * output parameter
//  595  *
//  596  * @param   pNwkKey - pointer to encrypted network key
//  597  *
//  598  * input parameters
//  599  *
//  600  * @param   keyIndex - key index
//  601  * @param   transID - transaction id
//  602  * @param   responseID - response id
//  603  *
//  604  * @return  none
//  605  */

        RSEG BANKED_CODE:CODE:NOROOT(0)
//  606 void zll_EncryptNwkKey( uint8 *pNwkKey, uint8 keyIndex, uint32 transID, uint32 responseID )
zll_EncryptNwkKey:
          CFI Block cfiBlock81 Using cfiCommon0
          CFI Function zll_EncryptNwkKey
        CODE
//  607 {
        FUNCALL zll_EncryptNwkKey, zll_IsFactoryNew
        LOCFRAME ISTACK, 0, STACK
        LOCFRAME PSTACK, 0, STACK
        LOCFRAME XSTACK, 91, STACK
        LOCFRAME IOVERLAY, 0, STATIC
        LOCFRAME DOVERLAY, 0, STATIC
        ARGFRAME ISTACK, 0, STACK
        ARGFRAME PSTACK, 0, STACK
        ARGFRAME XSTACK, 91, STACK
        ARGFRAME IOVERLAY, 0, STATIC
        ARGFRAME DOVERLAY, 0, STATIC
        FUNCALL zll_EncryptNwkKey, zll_GenerateRandNum
        LOCFRAME ISTACK, 0, STACK
        LOCFRAME PSTACK, 0, STACK
        LOCFRAME XSTACK, 91, STACK
        LOCFRAME IOVERLAY, 0, STATIC
        LOCFRAME DOVERLAY, 0, STATIC
        ARGFRAME ISTACK, 0, STACK
        ARGFRAME PSTACK, 0, STACK
        ARGFRAME XSTACK, 91, STACK
        ARGFRAME IOVERLAY, 0, STATIC
        ARGFRAME DOVERLAY, 0, STATIC
        FUNCALL zll_EncryptNwkKey, SSP_ReadNwkActiveKey
        LOCFRAME ISTACK, 0, STACK
        LOCFRAME PSTACK, 0, STACK
        LOCFRAME XSTACK, 91, STACK
        LOCFRAME IOVERLAY, 0, STATIC
        LOCFRAME DOVERLAY, 0, STATIC
        ARGFRAME ISTACK, 0, STACK
        ARGFRAME PSTACK, 0, STACK
        ARGFRAME XSTACK, 91, STACK
        ARGFRAME IOVERLAY, 0, STATIC
        ARGFRAME DOVERLAY, 0, STATIC
        FUNCALL zll_EncryptNwkKey, osal_memcpy
        LOCFRAME ISTACK, 0, STACK
        LOCFRAME PSTACK, 0, STACK
        LOCFRAME XSTACK, 94, STACK
        LOCFRAME IOVERLAY, 0, STATIC
        LOCFRAME DOVERLAY, 0, STATIC
        ARGFRAME ISTACK, 0, STACK
        ARGFRAME PSTACK, 0, STACK
        ARGFRAME XSTACK, 94, STACK
        ARGFRAME IOVERLAY, 0, STATIC
        ARGFRAME DOVERLAY, 0, STATIC
        FUNCALL zll_EncryptNwkKey, zll_BuildAesKey
        LOCFRAME ISTACK, 0, STACK
        LOCFRAME PSTACK, 0, STACK
        LOCFRAME XSTACK, 99, STACK
        LOCFRAME IOVERLAY, 0, STATIC
        LOCFRAME DOVERLAY, 0, STATIC
        ARGFRAME ISTACK, 0, STACK
        ARGFRAME PSTACK, 0, STACK
        ARGFRAME XSTACK, 99, STACK
        ARGFRAME IOVERLAY, 0, STATIC
        ARGFRAME DOVERLAY, 0, STATIC
        FUNCALL zll_EncryptNwkKey, sspAesEncrypt
        LOCFRAME ISTACK, 0, STACK
        LOCFRAME PSTACK, 0, STACK
        LOCFRAME XSTACK, 91, STACK
        LOCFRAME IOVERLAY, 0, STATIC
        LOCFRAME DOVERLAY, 0, STATIC
        ARGFRAME ISTACK, 0, STACK
        ARGFRAME PSTACK, 0, STACK
        ARGFRAME XSTACK, 91, STACK
        ARGFRAME IOVERLAY, 0, STATIC
        ARGFRAME DOVERLAY, 0, STATIC
        FUNCALL zll_EncryptNwkKey, sspAesEncrypt
        LOCFRAME ISTACK, 0, STACK
        LOCFRAME PSTACK, 0, STACK
        LOCFRAME XSTACK, 91, STACK
        LOCFRAME IOVERLAY, 0, STATIC
        LOCFRAME DOVERLAY, 0, STATIC
        ARGFRAME ISTACK, 0, STACK
        ARGFRAME PSTACK, 0, STACK
        ARGFRAME XSTACK, 91, STACK
        ARGFRAME IOVERLAY, 0, STATIC
        ARGFRAME DOVERLAY, 0, STATIC
        FUNCALL zll_EncryptNwkKey, osal_memcpy
        LOCFRAME ISTACK, 0, STACK
        LOCFRAME PSTACK, 0, STACK
        LOCFRAME XSTACK, 94, STACK
        LOCFRAME IOVERLAY, 0, STATIC
        LOCFRAME DOVERLAY, 0, STATIC
        ARGFRAME ISTACK, 0, STACK
        ARGFRAME PSTACK, 0, STACK
        ARGFRAME XSTACK, 94, STACK
        ARGFRAME IOVERLAY, 0, STATIC
        ARGFRAME DOVERLAY, 0, STATIC
        MOV     A,#-0x16
        LCALL   ?BANKED_ENTER_XDATA
          CFI DPH0 load(1, XDATA, add(CFA_XSP16, literal(-1)))
          CFI DPL0 load(1, XDATA, add(CFA_XSP16, literal(-2)))
          CFI ?BRET_EXT load(1, XDATA, add(CFA_XSP16, literal(-3)))
          CFI ?RET_HIGH load(1, XDATA, add(CFA_XSP16, literal(-4)))
          CFI ?RET_LOW load(1, XDATA, add(CFA_XSP16, literal(-5)))
          CFI R7 load(1, XDATA, add(CFA_XSP16, literal(-6)))
          CFI V13 load(1, XDATA, add(CFA_XSP16, literal(-7)))
          CFI V12 load(1, XDATA, add(CFA_XSP16, literal(-8)))
          CFI V11 load(1, XDATA, add(CFA_XSP16, literal(-9)))
          CFI V10 load(1, XDATA, add(CFA_XSP16, literal(-10)))
          CFI V9 load(1, XDATA, add(CFA_XSP16, literal(-11)))
          CFI V8 load(1, XDATA, add(CFA_XSP16, literal(-12)))
          CFI V7 load(1, XDATA, add(CFA_XSP16, literal(-13)))
          CFI V6 load(1, XDATA, add(CFA_XSP16, literal(-14)))
          CFI V5 load(1, XDATA, add(CFA_XSP16, literal(-15)))
          CFI V4 load(1, XDATA, add(CFA_XSP16, literal(-16)))
          CFI V3 load(1, XDATA, add(CFA_XSP16, literal(-17)))
          CFI V2 load(1, XDATA, add(CFA_XSP16, literal(-18)))
          CFI V1 load(1, XDATA, add(CFA_XSP16, literal(-19)))
          CFI V0 load(1, XDATA, add(CFA_XSP16, literal(-20)))
          CFI VB load(1, XDATA, add(CFA_XSP16, literal(-21)))
          CFI R6 load(1, XDATA, add(CFA_XSP16, literal(-22)))
          CFI CFA_SP SP+0
          CFI CFA_XSP16 add(XSP16, 22)
        ; Saved register size: 22
        ; Auto size: 69
        MOV     A,#-0x45
        LCALL   ?ALLOC_XSTACK8
          CFI CFA_XSP16 add(XSP16, 91)
        MOV     ?V0 + 12,R2
        MOV     ?V0 + 13,R3
        MOV     A,R1
        MOV     R6,A
        MOV     A,#0x5b
        LCALL   ?XSTACK_DISP0_8
        MOV     R0,#?V0 + 0
        LCALL   ?L_MOV_X
        MOV     A,#0x5f
        LCALL   ?XSTACK_DISP0_8
        MOV     R0,#?V0 + 4
        LCALL   ?L_MOV_X
//  608   uint8 aesKeyKey[SEC_KEY_LEN] = ZLL_DEFAULT_AES_KEY;
        MOV     A,#0x10
        LCALL   ?XSTACK_DISP0_8
        MOV     R4,DPL
        MOV     R5,DPH
        MOV     DPH,#(`?<Constant {80, 104, 76, 105, 234, 156, 209, 5` >> 8) & 0xff
        MOV     DPL,#`?<Constant {80, 104, 76, 105, 234, 156, 209, 5` & 0xff
        MOV     A,#0x10
        LCALL   ?MOVE_LONG8_XDATA_XDATA
//  609   uint8 masterKey[SEC_KEY_LEN] = ZLL_ENC_KEY;
        MOV     A,#0x35
        LCALL   ?XSTACK_DISP0_8
        MOV     R4,DPL
        MOV     R5,DPH
        MOV     DPH,#(`?<Constant {192, 193, 194, 195, 196, 197, 198,` >> 8) & 0xff
        MOV     DPL,#`?<Constant {192, 193, 194, 195, 196, 197, 198,` & 0xff
        MOV     A,#0x10
        LCALL   ?MOVE_LONG8_XDATA_XDATA
//  610 #ifdef ZLL_DEV_FIXED_NWK_KEY
//  611 uint8 nwkKey[SEC_KEY_LEN] = ZLL_DEV_FIXED_NWK_KEY;
//  612 #else
//  613   uint8 nwkKey[SEC_KEY_LEN];
//  614   if ( zll_IsFactoryNew() )
        ; Setup parameters for call to function zll_IsFactoryNew
        LCALL   ??zll_IsFactoryNew?relay
        MOV     A,R1
        JZ      ??zll_EncryptNwkKey_0
//  615   {
//  616     zll_GenerateRandNum( nwkKey, SEC_KEY_LEN );
        ; Setup parameters for call to function zll_GenerateRandNum
        MOV     R1,#0x10
        MOV     DPL,?XSP + 0
        MOV     DPH,?XSP + 1
        MOV     R2,DPL
        MOV     R3,DPH
        LCALL   ??zll_GenerateRandNum?relay
        SJMP    ??zll_EncryptNwkKey_1
//  617   }
//  618   else
//  619   {
//  620     nwkActiveKeyItems keyItems;
//  621     SSP_ReadNwkActiveKey( &keyItems );
??zll_EncryptNwkKey_0:
        ; Setup parameters for call to function SSP_ReadNwkActiveKey
        MOV     A,#0x20
        LCALL   ?XSTACK_DISP0_8
        MOV     R2,DPL
        MOV     R3,DPH
        LCALL   ??SSP_ReadNwkActiveKey?relay
//  622     osal_memcpy( nwkKey, keyItems.active.key , SEC_KEY_LEN);
        ; Setup parameters for call to function osal_memcpy
        MOV     A,#0x21
        LCALL   ?XSTACK_DISP0_8
        MOV     R1,DPL
        MOV     R2,DPH
        MOV     ?V0 + 8,R1
        MOV     ?V0 + 9,R2
        MOV     ?V0 + 10,#0x0
        MOV     R0,#?V0 + 8
        LCALL   ?PUSH_XSTACK_I_THREE
          CFI CFA_XSP16 add(XSP16, 94)
        MOV     R4,#0x10
        MOV     R5,#0x0
        MOV     A,#0x3
        LCALL   ?XSTACK_DISP0_8
        MOV     R2,DPL
        MOV     R3,DPH
        LCALL   ??osal_memcpy?relay
        MOV     A,#0x3
        LCALL   ?DEALLOC_XSTACK8
          CFI CFA_XSP16 add(XSP16, 91)
//  623   }
//  624 #endif
//  625   // Build the AES key
//  626   zll_BuildAesKey( aesKeyKey, transID, responseID, keyIndex );
??zll_EncryptNwkKey_1:
        ; Setup parameters for call to function zll_BuildAesKey
        MOV     R0,#?V0 + 4
        LCALL   ?PUSH_XSTACK_I_FOUR
          CFI CFA_XSP16 add(XSP16, 95)
        MOV     R0,#?V0 + 0
        LCALL   ?PUSH_XSTACK_I_FOUR
          CFI CFA_XSP16 add(XSP16, 99)
        MOV     A,R6
        MOV     R1,A
        MOV     A,#0x18
        LCALL   ?XSTACK_DISP0_8
        MOV     R2,DPL
        MOV     R3,DPH
        LCALL   ??zll_BuildAesKey?relay
        MOV     A,#0x8
        LCALL   ?DEALLOC_XSTACK8
          CFI CFA_XSP16 add(XSP16, 91)
//  627 
//  628   if ( ( keyIndex == ZLL_KEY_INDEX_MASTER ) || ( keyIndex == ZLL_KEY_INDEX_CERT ) )
        MOV     A,#0x4
        XRL     A,R6
        JZ      ??zll_EncryptNwkKey_2
        MOV     A,#0xf
        XRL     A,R6
        JNZ     ??zll_EncryptNwkKey_3
//  629   {
//  630     // Encypt with the master key
//  631     sspAesEncrypt( masterKey, aesKeyKey );
??zll_EncryptNwkKey_2:
        ; Setup parameters for call to function sspAesEncrypt
        MOV     A,#0x10
        LCALL   ?XSTACK_DISP0_8
        MOV     R4,DPL
        MOV     R5,DPH
        MOV     A,#0x35
        LCALL   ?XSTACK_DISP0_8
        MOV     R2,DPL
        MOV     R3,DPH
        LCALL   ??sspAesEncrypt?relay
//  632   }
//  633   // Encrypt the network key with the AES key
//  634   sspAesEncrypt( aesKeyKey, nwkKey );
??zll_EncryptNwkKey_3:
        ; Setup parameters for call to function sspAesEncrypt
        MOV     DPL,?XSP + 0
        MOV     DPH,?XSP + 1
        MOV     R4,DPL
        MOV     R5,DPH
        MOV     A,#0x10
        LCALL   ?XSTACK_DISP0_8
        MOV     R2,DPL
        MOV     R3,DPH
        LCALL   ??sspAesEncrypt?relay
//  635 
//  636   // Copy in the encrypted network key
//  637   osal_memcpy( pNwkKey, nwkKey, SEC_KEY_LEN );
        ; Setup parameters for call to function osal_memcpy
        MOV     DPL,?XSP + 0
        MOV     DPH,?XSP + 1
        MOV     R1,DPL
        MOV     R2,DPH
        MOV     ?V0 + 0,R1
        MOV     ?V0 + 1,R2
        MOV     ?V0 + 2,#0x0
        MOV     R0,#?V0 + 0
        LCALL   ?PUSH_XSTACK_I_THREE
          CFI CFA_XSP16 add(XSP16, 94)
        MOV     R4,#0x10
        MOV     R5,#0x0
        MOV     R2,?V0 + 12
        MOV     R3,?V0 + 13
        LCALL   ??osal_memcpy?relay
        MOV     A,#0x3
        LCALL   ?DEALLOC_XSTACK8
          CFI CFA_XSP16 add(XSP16, 91)
//  638 }
        MOV     A,#0x45
        LCALL   ?DEALLOC_XSTACK8
          CFI EndBlock cfiBlock81
        REQUIRE ?Subroutine2
        ; // Fall through to label ?Subroutine2

        RSEG BANKED_CODE:CODE:NOROOT(0)
?Subroutine2:
          CFI Block cfiBlock82 Using cfiCommon0
          CFI NoFunction
          CFI CFA_SP SP+0
          CFI CFA_XSP16 add(XSP16, 22)
          CFI VB load(1, XDATA, add(CFA_XSP16, literal(-21)))
          CFI DPL0 load(1, XDATA, add(CFA_XSP16, literal(-2)))
          CFI DPH0 load(1, XDATA, add(CFA_XSP16, literal(-1)))
          CFI R6 load(1, XDATA, add(CFA_XSP16, literal(-22)))
          CFI R7 load(1, XDATA, add(CFA_XSP16, literal(-6)))
          CFI V0 load(1, XDATA, add(CFA_XSP16, literal(-20)))
          CFI V1 load(1, XDATA, add(CFA_XSP16, literal(-19)))
          CFI V2 load(1, XDATA, add(CFA_XSP16, literal(-18)))
          CFI V3 load(1, XDATA, add(CFA_XSP16, literal(-17)))
          CFI V4 load(1, XDATA, add(CFA_XSP16, literal(-16)))
          CFI V5 load(1, XDATA, add(CFA_XSP16, literal(-15)))
          CFI V6 load(1, XDATA, add(CFA_XSP16, literal(-14)))
          CFI V7 load(1, XDATA, add(CFA_XSP16, literal(-13)))
          CFI V8 load(1, XDATA, add(CFA_XSP16, literal(-12)))
          CFI V9 load(1, XDATA, add(CFA_XSP16, literal(-11)))
          CFI V10 load(1, XDATA, add(CFA_XSP16, literal(-10)))
          CFI V11 load(1, XDATA, add(CFA_XSP16, literal(-9)))
          CFI V12 load(1, XDATA, add(CFA_XSP16, literal(-8)))
          CFI V13 load(1, XDATA, add(CFA_XSP16, literal(-7)))
          CFI ?BRET_EXT load(1, XDATA, add(CFA_XSP16, literal(-3)))
          CFI ?RET_HIGH load(1, XDATA, add(CFA_XSP16, literal(-4)))
          CFI ?RET_LOW load(1, XDATA, add(CFA_XSP16, literal(-5)))
        MOV     R7,#0xe
        LJMP    ?BANKED_LEAVE_XDATA
          CFI EndBlock cfiBlock82
//  639 
//  640 /*********************************************************************
//  641  * @fn      zll_DecryptNwkKey
//  642  *
//  643  * @brief   Decrypt the received network key and update.
//  644  *
//  645  * @param   pNwkKey - pointer to the encrypted network key
//  646  * @param   keyIndex - key index
//  647  * @param   transID - transaction id
//  648  * @param   responseID - response id
//  649  *
//  650  * @return  none
//  651  */

        RSEG BANKED_CODE:CODE:NOROOT(0)
//  652 void zll_DecryptNwkKey( uint8 *pNwkKey, uint8 keyIndex, uint32 transID, uint32 responseID )
zll_DecryptNwkKey:
          CFI Block cfiBlock83 Using cfiCommon0
          CFI Function zll_DecryptNwkKey
        CODE
//  653 {
        FUNCALL zll_DecryptNwkKey, osal_memcpy
        LOCFRAME ISTACK, 0, STACK
        LOCFRAME PSTACK, 0, STACK
        LOCFRAME XSTACK, 70, STACK
        LOCFRAME IOVERLAY, 0, STATIC
        LOCFRAME DOVERLAY, 0, STATIC
        ARGFRAME ISTACK, 0, STACK
        ARGFRAME PSTACK, 0, STACK
        ARGFRAME XSTACK, 70, STACK
        ARGFRAME IOVERLAY, 0, STATIC
        ARGFRAME DOVERLAY, 0, STATIC
        FUNCALL zll_DecryptNwkKey, zll_BuildAesKey
        LOCFRAME ISTACK, 0, STACK
        LOCFRAME PSTACK, 0, STACK
        LOCFRAME XSTACK, 75, STACK
        LOCFRAME IOVERLAY, 0, STATIC
        LOCFRAME DOVERLAY, 0, STATIC
        ARGFRAME ISTACK, 0, STACK
        ARGFRAME PSTACK, 0, STACK
        ARGFRAME XSTACK, 75, STACK
        ARGFRAME IOVERLAY, 0, STATIC
        ARGFRAME DOVERLAY, 0, STATIC
        FUNCALL zll_DecryptNwkKey, sspAesEncrypt
        LOCFRAME ISTACK, 0, STACK
        LOCFRAME PSTACK, 0, STACK
        LOCFRAME XSTACK, 67, STACK
        LOCFRAME IOVERLAY, 0, STATIC
        LOCFRAME DOVERLAY, 0, STATIC
        ARGFRAME ISTACK, 0, STACK
        ARGFRAME PSTACK, 0, STACK
        ARGFRAME XSTACK, 67, STACK
        ARGFRAME IOVERLAY, 0, STATIC
        ARGFRAME DOVERLAY, 0, STATIC
        FUNCALL zll_DecryptNwkKey, sspAesDecrypt
        LOCFRAME ISTACK, 0, STACK
        LOCFRAME PSTACK, 0, STACK
        LOCFRAME XSTACK, 67, STACK
        LOCFRAME IOVERLAY, 0, STATIC
        LOCFRAME DOVERLAY, 0, STATIC
        ARGFRAME ISTACK, 0, STACK
        ARGFRAME PSTACK, 0, STACK
        ARGFRAME XSTACK, 67, STACK
        ARGFRAME IOVERLAY, 0, STATIC
        ARGFRAME DOVERLAY, 0, STATIC
        FUNCALL zll_DecryptNwkKey, zll_UpdateNwkKey
        LOCFRAME ISTACK, 0, STACK
        LOCFRAME PSTACK, 0, STACK
        LOCFRAME XSTACK, 67, STACK
        LOCFRAME IOVERLAY, 0, STATIC
        LOCFRAME DOVERLAY, 0, STATIC
        ARGFRAME ISTACK, 0, STACK
        ARGFRAME PSTACK, 0, STACK
        ARGFRAME XSTACK, 67, STACK
        ARGFRAME IOVERLAY, 0, STATIC
        ARGFRAME DOVERLAY, 0, STATIC
        MOV     A,#-0x13
        LCALL   ?BANKED_ENTER_XDATA
          CFI DPH0 load(1, XDATA, add(CFA_XSP16, literal(-1)))
          CFI DPL0 load(1, XDATA, add(CFA_XSP16, literal(-2)))
          CFI ?BRET_EXT load(1, XDATA, add(CFA_XSP16, literal(-3)))
          CFI ?RET_HIGH load(1, XDATA, add(CFA_XSP16, literal(-4)))
          CFI ?RET_LOW load(1, XDATA, add(CFA_XSP16, literal(-5)))
          CFI R7 load(1, XDATA, add(CFA_XSP16, literal(-6)))
          CFI V10 load(1, XDATA, add(CFA_XSP16, literal(-7)))
          CFI V9 load(1, XDATA, add(CFA_XSP16, literal(-8)))
          CFI V8 load(1, XDATA, add(CFA_XSP16, literal(-9)))
          CFI V7 load(1, XDATA, add(CFA_XSP16, literal(-10)))
          CFI V6 load(1, XDATA, add(CFA_XSP16, literal(-11)))
          CFI V5 load(1, XDATA, add(CFA_XSP16, literal(-12)))
          CFI V4 load(1, XDATA, add(CFA_XSP16, literal(-13)))
          CFI V3 load(1, XDATA, add(CFA_XSP16, literal(-14)))
          CFI V2 load(1, XDATA, add(CFA_XSP16, literal(-15)))
          CFI V1 load(1, XDATA, add(CFA_XSP16, literal(-16)))
          CFI V0 load(1, XDATA, add(CFA_XSP16, literal(-17)))
          CFI VB load(1, XDATA, add(CFA_XSP16, literal(-18)))
          CFI R6 load(1, XDATA, add(CFA_XSP16, literal(-19)))
          CFI CFA_SP SP+0
          CFI CFA_XSP16 add(XSP16, 19)
        ; Saved register size: 19
        ; Auto size: 48
        MOV     A,#-0x30
        LCALL   ?ALLOC_XSTACK8
          CFI CFA_XSP16 add(XSP16, 67)
        MOV     A,R1
        MOV     R6,A
        MOV     A,#0x43
        LCALL   ?XSTACK_DISP0_8
        MOV     R0,#?V0 + 0
        LCALL   ?L_MOV_X
        MOV     A,#0x47
        LCALL   ?XSTACK_DISP0_8
        MOV     R0,#?V0 + 4
        LCALL   ?L_MOV_X
//  654   uint8 aesKeyKey[SEC_KEY_LEN] = ZLL_DEFAULT_AES_KEY;
        MOV     A,#0x10
        LCALL   ?XSTACK_DISP0_8
        MOV     R4,DPL
        MOV     R5,DPH
        MOV     DPH,#(`?<Constant {80, 104, 76, 105, 234, 156, 209, 5_1` >> 8) & 0xff
        MOV     DPL,#`?<Constant {80, 104, 76, 105, 234, 156, 209, 5_1` & 0xff
        MOV     A,#0x10
        LCALL   ?MOVE_LONG8_XDATA_XDATA
//  655 
//  656   uint8 nwkKey[SEC_KEY_LEN];
//  657 
//  658   uint8 masterKey[SEC_KEY_LEN] = ZLL_ENC_KEY;
        MOV     DPH,#(`?<Constant {192, 193, 194, 195, 196, 197, 198,_1` >> 8) & 0xff
        MOV     DPL,#`?<Constant {192, 193, 194, 195, 196, 197, 198,_1` & 0xff
        MOV     A,#0x10
        LCALL   ?MOVE_LONG8_XDATA_XDATA
//  659 
//  660   // Copy in the encrypted network key
//  661   osal_memcpy( nwkKey, pNwkKey, SEC_KEY_LEN );
        ; Setup parameters for call to function osal_memcpy
        MOV     ?V0 + 8,R2
        MOV     ?V0 + 9,R3
        MOV     ?V0 + 10,A
        MOV     R0,#?V0 + 8
        LCALL   ?PUSH_XSTACK_I_THREE
          CFI CFA_XSP16 add(XSP16, 70)
        MOV     R4,#0x10
        MOV     R5,#0x0
        MOV     A,#0x3
        LCALL   ?XSTACK_DISP0_8
        MOV     R2,DPL
        MOV     R3,DPH
        LCALL   ??osal_memcpy?relay
        MOV     A,#0x3
        LCALL   ?DEALLOC_XSTACK8
          CFI CFA_XSP16 add(XSP16, 67)
//  662 
//  663   zll_BuildAesKey( aesKeyKey, transID, responseID, keyIndex );
        ; Setup parameters for call to function zll_BuildAesKey
        MOV     R0,#?V0 + 4
        LCALL   ?PUSH_XSTACK_I_FOUR
          CFI CFA_XSP16 add(XSP16, 71)
        MOV     R0,#?V0 + 0
        LCALL   ?PUSH_XSTACK_I_FOUR
          CFI CFA_XSP16 add(XSP16, 75)
        MOV     A,R6
        MOV     R1,A
        MOV     A,#0x18
        LCALL   ?XSTACK_DISP0_8
        MOV     R2,DPL
        MOV     R3,DPH
        LCALL   ??zll_BuildAesKey?relay
        MOV     A,#0x8
        LCALL   ?DEALLOC_XSTACK8
          CFI CFA_XSP16 add(XSP16, 67)
//  664 
//  665   if ( ( keyIndex == ZLL_KEY_INDEX_MASTER ) || ( keyIndex == ZLL_KEY_INDEX_CERT ) )
        MOV     A,#0x4
        XRL     A,R6
        JZ      ??zll_DecryptNwkKey_0
        MOV     A,#0xf
        XRL     A,R6
        JNZ     ??zll_DecryptNwkKey_1
//  666   {
//  667     //encypt with the master key
//  668     sspAesEncrypt( masterKey, aesKeyKey );
??zll_DecryptNwkKey_0:
        ; Setup parameters for call to function sspAesEncrypt
        MOV     A,#0x10
        LCALL   ?XSTACK_DISP0_8
        MOV     R4,DPL
        MOV     R5,DPH
        MOV     A,#0x20
        LCALL   ?XSTACK_DISP0_8
        MOV     R2,DPL
        MOV     R3,DPH
        LCALL   ??sspAesEncrypt?relay
//  669   }
//  670   // Decrypt the network key with the AES key
//  671   sspAesDecrypt( aesKeyKey, nwkKey );
??zll_DecryptNwkKey_1:
        ; Setup parameters for call to function sspAesDecrypt
        MOV     DPL,?XSP + 0
        MOV     DPH,?XSP + 1
        MOV     R4,DPL
        MOV     R5,DPH
        MOV     A,#0x10
        LCALL   ?XSTACK_DISP0_8
        MOV     R2,DPL
        MOV     R3,DPH
        LCALL   ??sspAesDecrypt?relay
//  672 
//  673   zll_UpdateNwkKey( nwkKey, keyIndex );
        ; Setup parameters for call to function zll_UpdateNwkKey
        MOV     A,R6
        MOV     R1,A
        MOV     DPL,?XSP + 0
        MOV     DPH,?XSP + 1
        MOV     R2,DPL
        MOV     R3,DPH
        LCALL   ??zll_UpdateNwkKey?relay
//  674 }
        MOV     A,#0x30
        LCALL   ?DEALLOC_XSTACK8
          CFI CFA_XSP16 add(XSP16, 19)
        MOV     R7,#0xb
        LJMP    ?BANKED_LEAVE_XDATA
          CFI EndBlock cfiBlock83
//  675 
//  676 /*********************************************************************
//  677  * @fn      zll_BuildAesKey
//  678  *
//  679  * @brief   Build an AES key using Transaction ID and Response ID.
//  680  *
//  681  * @param   pAesKey - pointer to AES to be built
//  682  * @param   transID - transaction id
//  683  * @param   responseID - response id
//  684  *
//  685  * @return  none
//  686  */

        RSEG BANKED_CODE:CODE:NOROOT(0)
//  687 static void zll_BuildAesKey( uint8 *pAesKey, uint32 transID, uint32 responseID, uint8 keyIndex )
zll_BuildAesKey:
          CFI Block cfiBlock84 Using cfiCommon0
          CFI Function zll_BuildAesKey
        CODE
//  688 {
        MOV     A,#-0x15
        LCALL   ?BANKED_ENTER_XDATA
          CFI DPH0 load(1, XDATA, add(CFA_XSP16, literal(-1)))
          CFI DPL0 load(1, XDATA, add(CFA_XSP16, literal(-2)))
          CFI ?BRET_EXT load(1, XDATA, add(CFA_XSP16, literal(-3)))
          CFI ?RET_HIGH load(1, XDATA, add(CFA_XSP16, literal(-4)))
          CFI ?RET_LOW load(1, XDATA, add(CFA_XSP16, literal(-5)))
          CFI R7 load(1, XDATA, add(CFA_XSP16, literal(-6)))
          CFI V12 load(1, XDATA, add(CFA_XSP16, literal(-7)))
          CFI V11 load(1, XDATA, add(CFA_XSP16, literal(-8)))
          CFI V10 load(1, XDATA, add(CFA_XSP16, literal(-9)))
          CFI V9 load(1, XDATA, add(CFA_XSP16, literal(-10)))
          CFI V8 load(1, XDATA, add(CFA_XSP16, literal(-11)))
          CFI V7 load(1, XDATA, add(CFA_XSP16, literal(-12)))
          CFI V6 load(1, XDATA, add(CFA_XSP16, literal(-13)))
          CFI V5 load(1, XDATA, add(CFA_XSP16, literal(-14)))
          CFI V4 load(1, XDATA, add(CFA_XSP16, literal(-15)))
          CFI V3 load(1, XDATA, add(CFA_XSP16, literal(-16)))
          CFI V2 load(1, XDATA, add(CFA_XSP16, literal(-17)))
          CFI V1 load(1, XDATA, add(CFA_XSP16, literal(-18)))
          CFI V0 load(1, XDATA, add(CFA_XSP16, literal(-19)))
          CFI VB load(1, XDATA, add(CFA_XSP16, literal(-20)))
          CFI R6 load(1, XDATA, add(CFA_XSP16, literal(-21)))
          CFI CFA_SP SP+0
          CFI CFA_XSP16 add(XSP16, 21)
        ; Saved register size: 21
        ; Auto size: 0
        MOV     ?V0 + 12,R1
        MOV     A,#0x19
        LCALL   ?XSTACK_DISP0_8
        MOV     R0,#?V0 + 0
        LCALL   ?L_MOV_X
//  689 
//  690   if ( ( keyIndex == ZLL_KEY_INDEX_MASTER ) || ( keyIndex == ZLL_KEY_INDEX_CERT ) )
        MOV     R7,?V0 + 1
        MOV     A,#0x15
        LCALL   ?XSTACK_DISP0_8
        MOV     R0,#?V0 + 4
        LCALL   ?L_MOV_X
        MOV     R5,?V0 + 5
        MOV     ?V0 + 8,?V0 + 0
        MOV     ?V0 + 9,R7
        MOV     ?V0 + 10,?V0 + 2
        MOV     ?V0 + 11,?V0 + 3
        MOV     A,#0x10
        MOV     R0,#?V0 + 8
        LCALL   ?UL_SHR
        MOV     R6,?V0 + 8
        MOV     ?V0 + 8,?V0 + 0
        MOV     ?V0 + 9,R7
        MOV     ?V0 + 10,R6
        MOV     ?V0 + 11,?V0 + 3
        MOV     A,#0x18
        MOV     R0,#?V0 + 8
        LCALL   ?UL_SHR
        MOV     R4,?V0 + 8
        MOV     ?V0 + 8,?V0 + 4
        MOV     ?V0 + 9,R5
        MOV     ?V0 + 10,?V0 + 6
        MOV     ?V0 + 11,?V0 + 7
        MOV     A,#0x10
        MOV     R0,#?V0 + 8
        LCALL   ?UL_SHR
        MOV     R1,?V0 + 8
        MOV     ?V0 + 8,?V0 + 4
        MOV     ?V0 + 9,R5
        MOV     ?V0 + 10,R1
        MOV     ?V0 + 11,?V0 + 7
        MOV     A,#0x18
        MOV     R0,#?V0 + 8
        LCALL   ?UL_SHR
        MOV     R0,?V0 + 8
        MOV     A,#0x4
        XRL     A,?V0 + 12
        JZ      ??zll_BuildAesKey_0
        MOV     A,#0xf
        XRL     A,?V0 + 12
        JNZ     ??zll_BuildAesKey_1
//  691   {
//  692     // Copy transaction identifier to 1st byte
//  693     pAesKey[0] = BREAK_UINT32( transID, 3 );
??zll_BuildAesKey_0:
        MOV     A,R0
        MOV     DPL,R2
        MOV     DPH,R3
        MOVX    @DPTR,A
//  694     pAesKey[1] = BREAK_UINT32( transID, 2 );
        MOV     A,R1
        LCALL   ?Subroutine27 & 0xFFFF
//  695     pAesKey[2] = BREAK_UINT32( transID, 1 );
??CrossCallReturnLabel_34:
        MOVX    @DPTR,A
//  696     pAesKey[3] = BREAK_UINT32( transID, 0 );
        MOV     ?V0 + 8,?V0 + 4
        MOV     DPL,R2
        MOV     DPH,R3
        INC     DPTR
        INC     DPTR
        INC     DPTR
        MOV     A,?V0 + 8
        MOVX    @DPTR,A
//  697 
//  698     // Copy response identifier 3rd bute
//  699     pAesKey[8] = BREAK_UINT32( responseID, 3 );
        MOV     A,R4
        MOV     DPL,R2
        MOV     DPH,R3
        INC     DPTR
        INC     DPTR
        INC     DPTR
        INC     DPTR
        INC     DPTR
        INC     DPTR
        INC     DPTR
        INC     DPTR
        MOVX    @DPTR,A
//  700     pAesKey[9] = BREAK_UINT32( responseID, 2 );
        MOV     A,R6
        MOV     DPL,R2
        MOV     DPH,R3
        INC     DPTR
        INC     DPTR
        INC     DPTR
        INC     DPTR
        INC     DPTR
        INC     DPTR
        INC     DPTR
        INC     DPTR
        INC     DPTR
        MOVX    @DPTR,A
//  701     pAesKey[10] = BREAK_UINT32( responseID, 1 );
        MOV     A,R7
        MOV     DPL,R2
        MOV     DPH,R3
        INC     DPTR
        INC     DPTR
        INC     DPTR
        INC     DPTR
        INC     DPTR
        INC     DPTR
        INC     DPTR
        INC     DPTR
        INC     DPTR
        INC     DPTR
        MOVX    @DPTR,A
//  702     pAesKey[11] = BREAK_UINT32( responseID, 0 );
        MOV     ?V0 + 8,?V0 + 0
        MOV     A,R2
        ADD     A,#0xb
        MOV     DPL,A
        MOV     A,R3
        LCALL   ??Subroutine41_0 & 0xFFFF
//  703   }
??CrossCallReturnLabel_71:
        MOV     A,?V0 + 8
        MOVX    @DPTR,A
//  704 
//  705   // Copy in the transaction identifier
//  706   pAesKey[4] = BREAK_UINT32( transID, 3 );
??zll_BuildAesKey_1:
        MOV     A,R0
        MOV     DPL,R2
        MOV     DPH,R3
        INC     DPTR
        INC     DPTR
        INC     DPTR
        INC     DPTR
        MOVX    @DPTR,A
//  707   pAesKey[5] = BREAK_UINT32( transID, 2 );
        MOV     A,R1
        MOV     DPL,R2
        MOV     DPH,R3
        INC     DPTR
        INC     DPTR
        INC     DPTR
        INC     DPTR
        LCALL   ?Subroutine27 & 0xFFFF
//  708   pAesKey[6] = BREAK_UINT32( transID, 1 );
??CrossCallReturnLabel_35:
        INC     DPTR
        INC     DPTR
        INC     DPTR
        INC     DPTR
        LCALL   ?Subroutine22 & 0xFFFF
//  709   pAesKey[7] = BREAK_UINT32( transID, 0 );
??CrossCallReturnLabel_27:
        INC     DPTR
        INC     DPTR
        MOV     A,?V0 + 4
        MOVX    @DPTR,A
//  710 
//  711   // Copy in the response identifier
//  712   pAesKey[12] = BREAK_UINT32( responseID, 3 );
        MOV     A,R2
        ADD     A,#0xc
        MOV     DPL,A
        MOV     A,R3
        LCALL   ??Subroutine41_0 & 0xFFFF
??CrossCallReturnLabel_72:
        MOV     A,R4
        MOVX    @DPTR,A
//  713   pAesKey[13] = BREAK_UINT32( responseID, 2 );
        MOV     A,R2
        ADD     A,#0xd
        MOV     DPL,A
        MOV     A,R3
        LCALL   ??Subroutine41_0 & 0xFFFF
??CrossCallReturnLabel_73:
        MOV     A,R6
        MOVX    @DPTR,A
//  714   pAesKey[14] = BREAK_UINT32( responseID, 1 );
        MOV     A,R2
        ADD     A,#0xe
        MOV     DPL,A
        MOV     A,R3
        LCALL   ??Subroutine41_0 & 0xFFFF
??CrossCallReturnLabel_74:
        MOV     A,R7
        MOVX    @DPTR,A
//  715   pAesKey[15] = BREAK_UINT32( responseID, 0 );
        MOV     A,R2
        ADD     A,#0xf
        MOV     DPL,A
        MOV     A,R3
        LCALL   ??Subroutine41_0 & 0xFFFF
??CrossCallReturnLabel_75:
        MOV     A,?V0 + 0
        MOVX    @DPTR,A
//  716 }
        MOV     R7,#0xd
        LJMP    ?BANKED_LEAVE_XDATA
          CFI EndBlock cfiBlock84

        RSEG BANKED_CODE:CODE:NOROOT(0)
?Subroutine27:
          CFI Block cfiCond85 Using cfiCommon0
          CFI Function zll_BuildAesKey
          CFI Conditional ??CrossCallReturnLabel_34
          CFI R6 load(1, XDATA, add(CFA_XSP16, literal(-21)))
          CFI VB load(1, XDATA, add(CFA_XSP16, literal(-20)))
          CFI V0 load(1, XDATA, add(CFA_XSP16, literal(-19)))
          CFI V1 load(1, XDATA, add(CFA_XSP16, literal(-18)))
          CFI V2 load(1, XDATA, add(CFA_XSP16, literal(-17)))
          CFI V3 load(1, XDATA, add(CFA_XSP16, literal(-16)))
          CFI V4 load(1, XDATA, add(CFA_XSP16, literal(-15)))
          CFI V5 load(1, XDATA, add(CFA_XSP16, literal(-14)))
          CFI V6 load(1, XDATA, add(CFA_XSP16, literal(-13)))
          CFI V7 load(1, XDATA, add(CFA_XSP16, literal(-12)))
          CFI V8 load(1, XDATA, add(CFA_XSP16, literal(-11)))
          CFI V9 load(1, XDATA, add(CFA_XSP16, literal(-10)))
          CFI V10 load(1, XDATA, add(CFA_XSP16, literal(-9)))
          CFI V11 load(1, XDATA, add(CFA_XSP16, literal(-8)))
          CFI V12 load(1, XDATA, add(CFA_XSP16, literal(-7)))
          CFI R7 load(1, XDATA, add(CFA_XSP16, literal(-6)))
          CFI ?RET_LOW load(1, XDATA, add(CFA_XSP16, literal(-5)))
          CFI ?RET_HIGH load(1, XDATA, add(CFA_XSP16, literal(-4)))
          CFI ?BRET_EXT load(1, XDATA, add(CFA_XSP16, literal(-3)))
          CFI DPL0 load(1, XDATA, add(CFA_XSP16, literal(-2)))
          CFI DPH0 load(1, XDATA, add(CFA_XSP16, literal(-1)))
          CFI CFA_SP SP+0
          CFI CFA_XSP16 add(XSP16, 21)
          CFI Block cfiCond86 Using cfiCommon0
          CFI (cfiCond86) Function zll_BuildAesKey
          CFI (cfiCond86) Conditional ??CrossCallReturnLabel_35
          CFI (cfiCond86) R6 load(1, XDATA, add(CFA_XSP16, literal(-21)))
          CFI (cfiCond86) VB load(1, XDATA, add(CFA_XSP16, literal(-20)))
          CFI (cfiCond86) V0 load(1, XDATA, add(CFA_XSP16, literal(-19)))
          CFI (cfiCond86) V1 load(1, XDATA, add(CFA_XSP16, literal(-18)))
          CFI (cfiCond86) V2 load(1, XDATA, add(CFA_XSP16, literal(-17)))
          CFI (cfiCond86) V3 load(1, XDATA, add(CFA_XSP16, literal(-16)))
          CFI (cfiCond86) V4 load(1, XDATA, add(CFA_XSP16, literal(-15)))
          CFI (cfiCond86) V5 load(1, XDATA, add(CFA_XSP16, literal(-14)))
          CFI (cfiCond86) V6 load(1, XDATA, add(CFA_XSP16, literal(-13)))
          CFI (cfiCond86) V7 load(1, XDATA, add(CFA_XSP16, literal(-12)))
          CFI (cfiCond86) V8 load(1, XDATA, add(CFA_XSP16, literal(-11)))
          CFI (cfiCond86) V9 load(1, XDATA, add(CFA_XSP16, literal(-10)))
          CFI (cfiCond86) V10 load(1, XDATA, add(CFA_XSP16, literal(-9)))
          CFI (cfiCond86) V11 load(1, XDATA, add(CFA_XSP16, literal(-8)))
          CFI (cfiCond86) V12 load(1, XDATA, add(CFA_XSP16, literal(-7)))
          CFI (cfiCond86) R7 load(1, XDATA, add(CFA_XSP16, literal(-6)))
          CFI (cfiCond86) ?RET_LOW load(1, XDATA, add(CFA_XSP16, literal(-5)))
          CFI (cfiCond86) ?RET_HIGH load(1, XDATA, add(CFA_XSP16, literal(-4)))
          CFI (cfiCond86) ?BRET_EXT load(1, XDATA, add(CFA_XSP16, literal(-3)))
          CFI (cfiCond86) DPL0 load(1, XDATA, add(CFA_XSP16, literal(-2)))
          CFI (cfiCond86) DPH0 load(1, XDATA, add(CFA_XSP16, literal(-1)))
          CFI (cfiCond86) CFA_SP SP+0
          CFI (cfiCond86) CFA_XSP16 add(XSP16, 21)
          CFI Block cfiPicker87 Using cfiCommon1
          CFI (cfiPicker87) NoFunction
          CFI (cfiPicker87) Picker
        INC     DPTR
        MOVX    @DPTR,A
        MOV     A,R5
        MOV     DPL,R2
        MOV     DPH,R3
        INC     DPTR
        INC     DPTR
        RET
          CFI EndBlock cfiCond85
          CFI EndBlock cfiCond86
          CFI EndBlock cfiPicker87

        RSEG BANKED_CODE:CODE:NOROOT(0)
?Subroutine22:
          CFI Block cfiCond88 Using cfiCommon0
          CFI Function zll_RegisterSimpleDesc
          CFI Conditional ??CrossCallReturnLabel_26
          CFI R6 load(1, XDATA, add(CFA_XSP16, literal(-10)))
          CFI VB load(1, XDATA, add(CFA_XSP16, literal(-9)))
          CFI V0 load(1, XDATA, add(CFA_XSP16, literal(-8)))
          CFI V1 load(1, XDATA, add(CFA_XSP16, literal(-7)))
          CFI R7 load(1, XDATA, add(CFA_XSP16, literal(-6)))
          CFI ?RET_LOW load(1, XDATA, add(CFA_XSP16, literal(-5)))
          CFI ?RET_HIGH load(1, XDATA, add(CFA_XSP16, literal(-4)))
          CFI ?BRET_EXT load(1, XDATA, add(CFA_XSP16, literal(-3)))
          CFI DPL0 load(1, XDATA, add(CFA_XSP16, literal(-2)))
          CFI DPH0 load(1, XDATA, add(CFA_XSP16, literal(-1)))
          CFI CFA_SP SP+0
          CFI CFA_XSP16 add(XSP16, 10)
          CFI Block cfiCond89 Using cfiCommon0
          CFI (cfiCond89) Function zll_BuildAesKey
          CFI (cfiCond89) Conditional ??CrossCallReturnLabel_27
          CFI (cfiCond89) R6 load(1, XDATA, add(CFA_XSP16, literal(-21)))
          CFI (cfiCond89) VB load(1, XDATA, add(CFA_XSP16, literal(-20)))
          CFI (cfiCond89) V0 load(1, XDATA, add(CFA_XSP16, literal(-19)))
          CFI (cfiCond89) V1 load(1, XDATA, add(CFA_XSP16, literal(-18)))
          CFI (cfiCond89) V2 load(1, XDATA, add(CFA_XSP16, literal(-17)))
          CFI (cfiCond89) V3 load(1, XDATA, add(CFA_XSP16, literal(-16)))
          CFI (cfiCond89) V4 load(1, XDATA, add(CFA_XSP16, literal(-15)))
          CFI (cfiCond89) V5 load(1, XDATA, add(CFA_XSP16, literal(-14)))
          CFI (cfiCond89) V6 load(1, XDATA, add(CFA_XSP16, literal(-13)))
          CFI (cfiCond89) V7 load(1, XDATA, add(CFA_XSP16, literal(-12)))
          CFI (cfiCond89) V8 load(1, XDATA, add(CFA_XSP16, literal(-11)))
          CFI (cfiCond89) V9 load(1, XDATA, add(CFA_XSP16, literal(-10)))
          CFI (cfiCond89) V10 load(1, XDATA, add(CFA_XSP16, literal(-9)))
          CFI (cfiCond89) V11 load(1, XDATA, add(CFA_XSP16, literal(-8)))
          CFI (cfiCond89) V12 load(1, XDATA, add(CFA_XSP16, literal(-7)))
          CFI (cfiCond89) R7 load(1, XDATA, add(CFA_XSP16, literal(-6)))
          CFI (cfiCond89) ?RET_LOW load(1, XDATA, add(CFA_XSP16, literal(-5)))
          CFI (cfiCond89) ?RET_HIGH load(1, XDATA, add(CFA_XSP16, literal(-4)))
          CFI (cfiCond89) ?BRET_EXT load(1, XDATA, add(CFA_XSP16, literal(-3)))
          CFI (cfiCond89) DPL0 load(1, XDATA, add(CFA_XSP16, literal(-2)))
          CFI (cfiCond89) DPH0 load(1, XDATA, add(CFA_XSP16, literal(-1)))
          CFI (cfiCond89) CFA_SP SP+0
          CFI (cfiCond89) CFA_XSP16 add(XSP16, 21)
          CFI Block cfiPicker90 Using cfiCommon1
          CFI (cfiPicker90) NoFunction
          CFI (cfiPicker90) Picker
        LCALL   ?Subroutine34 & 0xFFFF
??CrossCallReturnLabel_46:
        INC     DPTR
        INC     DPTR
        RET
          CFI EndBlock cfiCond88
          CFI EndBlock cfiCond89
          CFI EndBlock cfiPicker90

        RSEG BANKED_CODE:CODE:NOROOT(0)
?Subroutine34:
          CFI Block cfiCond91 Using cfiCommon0
          CFI Function zll_RegisterSimpleDesc
          CFI Conditional ??CrossCallReturnLabel_45
          CFI R6 load(1, XDATA, add(CFA_XSP16, literal(-10)))
          CFI VB load(1, XDATA, add(CFA_XSP16, literal(-9)))
          CFI V0 load(1, XDATA, add(CFA_XSP16, literal(-8)))
          CFI V1 load(1, XDATA, add(CFA_XSP16, literal(-7)))
          CFI R7 load(1, XDATA, add(CFA_XSP16, literal(-6)))
          CFI ?RET_LOW load(1, XDATA, add(CFA_XSP16, literal(-5)))
          CFI ?RET_HIGH load(1, XDATA, add(CFA_XSP16, literal(-4)))
          CFI ?BRET_EXT load(1, XDATA, add(CFA_XSP16, literal(-3)))
          CFI DPL0 load(1, XDATA, add(CFA_XSP16, literal(-2)))
          CFI DPH0 load(1, XDATA, add(CFA_XSP16, literal(-1)))
          CFI CFA_SP SP+0
          CFI CFA_XSP16 add(XSP16, 10)
          CFI Block cfiCond92 Using cfiCommon0
          CFI (cfiCond92) Function zll_RegisterSimpleDesc
          CFI (cfiCond92) Conditional ??CrossCallReturnLabel_46, ??CrossCallReturnLabel_26
          CFI (cfiCond92) R6 load(1, XDATA, add(CFA_XSP16, literal(-10)))
          CFI (cfiCond92) VB load(1, XDATA, add(CFA_XSP16, literal(-9)))
          CFI (cfiCond92) V0 load(1, XDATA, add(CFA_XSP16, literal(-8)))
          CFI (cfiCond92) V1 load(1, XDATA, add(CFA_XSP16, literal(-7)))
          CFI (cfiCond92) R7 load(1, XDATA, add(CFA_XSP16, literal(-6)))
          CFI (cfiCond92) ?RET_LOW load(1, XDATA, add(CFA_XSP16, literal(-5)))
          CFI (cfiCond92) ?RET_HIGH load(1, XDATA, add(CFA_XSP16, literal(-4)))
          CFI (cfiCond92) ?BRET_EXT load(1, XDATA, add(CFA_XSP16, literal(-3)))
          CFI (cfiCond92) DPL0 load(1, XDATA, add(CFA_XSP16, literal(-2)))
          CFI (cfiCond92) DPH0 load(1, XDATA, add(CFA_XSP16, literal(-1)))
          CFI (cfiCond92) CFA_SP SP+0
          CFI (cfiCond92) CFA_XSP16 add(XSP16, 10)
          CFI Block cfiCond93 Using cfiCommon0
          CFI (cfiCond93) Function zll_BuildAesKey
          CFI (cfiCond93) Conditional ??CrossCallReturnLabel_46, ??CrossCallReturnLabel_27
          CFI (cfiCond93) R6 load(1, XDATA, add(CFA_XSP16, literal(-21)))
          CFI (cfiCond93) VB load(1, XDATA, add(CFA_XSP16, literal(-20)))
          CFI (cfiCond93) V0 load(1, XDATA, add(CFA_XSP16, literal(-19)))
          CFI (cfiCond93) V1 load(1, XDATA, add(CFA_XSP16, literal(-18)))
          CFI (cfiCond93) V2 load(1, XDATA, add(CFA_XSP16, literal(-17)))
          CFI (cfiCond93) V3 load(1, XDATA, add(CFA_XSP16, literal(-16)))
          CFI (cfiCond93) V4 load(1, XDATA, add(CFA_XSP16, literal(-15)))
          CFI (cfiCond93) V5 load(1, XDATA, add(CFA_XSP16, literal(-14)))
          CFI (cfiCond93) V6 load(1, XDATA, add(CFA_XSP16, literal(-13)))
          CFI (cfiCond93) V7 load(1, XDATA, add(CFA_XSP16, literal(-12)))
          CFI (cfiCond93) V8 load(1, XDATA, add(CFA_XSP16, literal(-11)))
          CFI (cfiCond93) V9 load(1, XDATA, add(CFA_XSP16, literal(-10)))
          CFI (cfiCond93) V10 load(1, XDATA, add(CFA_XSP16, literal(-9)))
          CFI (cfiCond93) V11 load(1, XDATA, add(CFA_XSP16, literal(-8)))
          CFI (cfiCond93) V12 load(1, XDATA, add(CFA_XSP16, literal(-7)))
          CFI (cfiCond93) R7 load(1, XDATA, add(CFA_XSP16, literal(-6)))
          CFI (cfiCond93) ?RET_LOW load(1, XDATA, add(CFA_XSP16, literal(-5)))
          CFI (cfiCond93) ?RET_HIGH load(1, XDATA, add(CFA_XSP16, literal(-4)))
          CFI (cfiCond93) ?BRET_EXT load(1, XDATA, add(CFA_XSP16, literal(-3)))
          CFI (cfiCond93) DPL0 load(1, XDATA, add(CFA_XSP16, literal(-2)))
          CFI (cfiCond93) DPH0 load(1, XDATA, add(CFA_XSP16, literal(-1)))
          CFI (cfiCond93) CFA_SP SP+0
          CFI (cfiCond93) CFA_XSP16 add(XSP16, 21)
          CFI Block cfiPicker94 Using cfiCommon1
          CFI (cfiPicker94) NoFunction
          CFI (cfiPicker94) Picker
        MOVX    @DPTR,A
        MOV     DPL,R2
        MOV     DPH,R3
        INC     DPTR
        INC     DPTR
        INC     DPTR
        RET
          CFI EndBlock cfiCond91
          CFI EndBlock cfiCond92
          CFI EndBlock cfiCond93
          CFI EndBlock cfiPicker94
//  717 
//  718 /*********************************************************************
//  719  * @fn      zll_UpdateNwkKey
//  720  *
//  721  * @brief   Update the network key.
//  722  *
//  723  * @param   pNwkParams - pointer to new network key
//  724  * @param   keyIndex - key index
//  725  *
//  726  * @return  none
//  727  */

        RSEG BANKED_CODE:CODE:NOROOT(0)
//  728 void zll_UpdateNwkKey( uint8 *pNwkKey, uint8 keyIndex )
zll_UpdateNwkKey:
          CFI Block cfiBlock95 Using cfiCommon0
          CFI Function zll_UpdateNwkKey
        CODE
//  729 {
        FUNCALL zll_UpdateNwkKey, SSP_UpdateNwkKey
        LOCFRAME ISTACK, 0, STACK
        LOCFRAME PSTACK, 0, STACK
        LOCFRAME XSTACK, 12, STACK
        LOCFRAME IOVERLAY, 0, STATIC
        LOCFRAME DOVERLAY, 0, STATIC
        ARGFRAME ISTACK, 0, STACK
        ARGFRAME PSTACK, 0, STACK
        ARGFRAME XSTACK, 12, STACK
        ARGFRAME IOVERLAY, 0, STATIC
        ARGFRAME DOVERLAY, 0, STATIC
        FUNCALL zll_UpdateNwkKey, SSP_SwitchNwkKey
        LOCFRAME ISTACK, 0, STACK
        LOCFRAME PSTACK, 0, STACK
        LOCFRAME XSTACK, 12, STACK
        LOCFRAME IOVERLAY, 0, STATIC
        LOCFRAME DOVERLAY, 0, STATIC
        ARGFRAME ISTACK, 0, STACK
        ARGFRAME PSTACK, 0, STACK
        ARGFRAME XSTACK, 12, STACK
        ARGFRAME IOVERLAY, 0, STATIC
        ARGFRAME DOVERLAY, 0, STATIC
        FUNCALL zll_UpdateNwkKey, ZDApp_SaveNwkKey
        LOCFRAME ISTACK, 0, STACK
        LOCFRAME PSTACK, 0, STACK
        LOCFRAME XSTACK, 12, STACK
        LOCFRAME IOVERLAY, 0, STATIC
        LOCFRAME DOVERLAY, 0, STATIC
        ARGFRAME ISTACK, 0, STACK
        ARGFRAME PSTACK, 0, STACK
        ARGFRAME XSTACK, 12, STACK
        ARGFRAME IOVERLAY, 0, STATIC
        ARGFRAME DOVERLAY, 0, STATIC
        MOV     A,#-0xc
        LCALL   ?BANKED_ENTER_XDATA
          CFI DPH0 load(1, XDATA, add(CFA_XSP16, literal(-1)))
          CFI DPL0 load(1, XDATA, add(CFA_XSP16, literal(-2)))
          CFI ?BRET_EXT load(1, XDATA, add(CFA_XSP16, literal(-3)))
          CFI ?RET_HIGH load(1, XDATA, add(CFA_XSP16, literal(-4)))
          CFI ?RET_LOW load(1, XDATA, add(CFA_XSP16, literal(-5)))
          CFI R7 load(1, XDATA, add(CFA_XSP16, literal(-6)))
          CFI V3 load(1, XDATA, add(CFA_XSP16, literal(-7)))
          CFI V2 load(1, XDATA, add(CFA_XSP16, literal(-8)))
          CFI V1 load(1, XDATA, add(CFA_XSP16, literal(-9)))
          CFI V0 load(1, XDATA, add(CFA_XSP16, literal(-10)))
          CFI VB load(1, XDATA, add(CFA_XSP16, literal(-11)))
          CFI R6 load(1, XDATA, add(CFA_XSP16, literal(-12)))
          CFI CFA_SP SP+0
          CFI CFA_XSP16 add(XSP16, 12)
        ; Saved register size: 12
        ; Auto size: 0
//  730   uint32 nwkFrameCounterTmp;
//  731   (void)keyIndex;
//  732 
//  733   // To prevent Framecounter out of sync issues, store the lastkey
//  734   nwkFrameCounterTmp = nwkFrameCounter;  // (Global in SSP).
        MOV     DPTR,#nwkFrameCounter
        MOV     R0,#?V0 + 0
        LCALL   ?L_MOV_X
//  735 
//  736   // Update the network key
//  737   SSP_UpdateNwkKey( pNwkKey, 0 );
        ; Setup parameters for call to function SSP_UpdateNwkKey
        MOV     R1,#0x0
        LCALL   ??SSP_UpdateNwkKey?relay
//  738 
//  739   SSP_SwitchNwkKey( 0 );
        ; Setup parameters for call to function SSP_SwitchNwkKey
        MOV     R1,#0x0
        LCALL   ??SSP_SwitchNwkKey?relay
//  740 
//  741   nwkFrameCounter  = nwkFrameCounterTmp; // restore
        MOV     DPTR,#nwkFrameCounter
        MOV     R0,#?V0 + 0
        LCALL   ?L_MOV_TO_X
//  742 
//  743   // Save off the security
//  744   ZDApp_SaveNwkKey();
        ; Setup parameters for call to function ZDApp_SaveNwkKey
        LCALL   ??ZDApp_SaveNwkKey?relay
//  745 }
        LJMP    ?Subroutine3 & 0xFFFF
          CFI EndBlock cfiBlock95
//  746 
//  747 /*********************************************************************
//  748  * @fn      zll_GetNwkKeyBitmask
//  749  *
//  750  * @brief   Get the supported network key bitmask.
//  751  *
//  752  * @param   none
//  753  *
//  754  * @return  network key bitmask
//  755  */

        RSEG BANKED_CODE:CODE:NOROOT(0)
//  756 uint16 zll_GetNwkKeyBitmask( void )
zll_GetNwkKeyBitmask:
          CFI Block cfiBlock96 Using cfiCommon0
          CFI Function zll_GetNwkKeyBitmask
        CODE
//  757 {
        ; Saved register size: 0
        ; Auto size: 0
//  758   return ( (uint16)1 << ZLL_KEY_INDEX );
        MOV     R2,#0x0
        MOV     R3,#-0x80
        LJMP    ?BRET
          CFI EndBlock cfiBlock96
//  759 }
//  760 
//  761 /*********************************************************************
//  762  * @fn      zll_GenerateRandNum
//  763  *
//  764  * @brief   Fill buffer with random bytes.
//  765  *
//  766  * input parameter
//  767  *
//  768  * @param   numSize - size of buffer in bytes
//  769  *
//  770  * output parameter
//  771  *
//  772  * @param   pNum - pointer to buffer to be filled with random values
//  773  *
//  774  * @return  none
//  775  */

        RSEG BANKED_CODE:CODE:NOROOT(0)
//  776 void zll_GenerateRandNum( uint8 *pNum, uint8 numSize )
zll_GenerateRandNum:
          CFI Block cfiBlock97 Using cfiCommon0
          CFI Function zll_GenerateRandNum
        CODE
//  777 {
        FUNCALL zll_GenerateRandNum, osal_rand
        LOCFRAME ISTACK, 0, STACK
        LOCFRAME PSTACK, 0, STACK
        LOCFRAME XSTACK, 13, STACK
        LOCFRAME IOVERLAY, 0, STATIC
        LOCFRAME DOVERLAY, 0, STATIC
        ARGFRAME ISTACK, 0, STACK
        ARGFRAME PSTACK, 0, STACK
        ARGFRAME XSTACK, 13, STACK
        ARGFRAME IOVERLAY, 0, STATIC
        ARGFRAME DOVERLAY, 0, STATIC
        FUNCALL zll_GenerateRandNum, osal_rand
        LOCFRAME ISTACK, 0, STACK
        LOCFRAME PSTACK, 0, STACK
        LOCFRAME XSTACK, 13, STACK
        LOCFRAME IOVERLAY, 0, STATIC
        LOCFRAME DOVERLAY, 0, STATIC
        ARGFRAME ISTACK, 0, STACK
        ARGFRAME PSTACK, 0, STACK
        ARGFRAME XSTACK, 13, STACK
        ARGFRAME IOVERLAY, 0, STATIC
        ARGFRAME DOVERLAY, 0, STATIC
        MOV     A,#-0xd
        LCALL   ?BANKED_ENTER_XDATA
          CFI DPH0 load(1, XDATA, add(CFA_XSP16, literal(-1)))
          CFI DPL0 load(1, XDATA, add(CFA_XSP16, literal(-2)))
          CFI ?BRET_EXT load(1, XDATA, add(CFA_XSP16, literal(-3)))
          CFI ?RET_HIGH load(1, XDATA, add(CFA_XSP16, literal(-4)))
          CFI ?RET_LOW load(1, XDATA, add(CFA_XSP16, literal(-5)))
          CFI R7 load(1, XDATA, add(CFA_XSP16, literal(-6)))
          CFI V4 load(1, XDATA, add(CFA_XSP16, literal(-7)))
          CFI V3 load(1, XDATA, add(CFA_XSP16, literal(-8)))
          CFI V2 load(1, XDATA, add(CFA_XSP16, literal(-9)))
          CFI V1 load(1, XDATA, add(CFA_XSP16, literal(-10)))
          CFI V0 load(1, XDATA, add(CFA_XSP16, literal(-11)))
          CFI VB load(1, XDATA, add(CFA_XSP16, literal(-12)))
          CFI R6 load(1, XDATA, add(CFA_XSP16, literal(-13)))
          CFI CFA_SP SP+0
          CFI CFA_XSP16 add(XSP16, 13)
        ; Saved register size: 13
        ; Auto size: 0
        MOV     A,R2
        MOV     R6,A
        MOV     A,R3
        MOV     R7,A
        MOV     ?V0 + 4,R1
//  778   if ( pNum && numSize )
        MOV     A,R6
        ORL     A,R7
        JZ      ??zll_GenerateRandNum_0
        MOV     A,R1
        JZ      ??zll_GenerateRandNum_0
//  779   {
//  780     uint8 lastByte = ( numSize - 1 );
        MOV     A,#-0x1
        ADD     A,?V0 + 4
        MOV     ?V0 + 2,A
//  781     for ( uint8 i = 0; i < lastByte; i += 2 )
        MOV     ?V0 + 3,#0x0
        SJMP    ??zll_GenerateRandNum_1
//  782     {
//  783       uint16 rand = osal_rand();
??zll_GenerateRandNum_2:
        ; Setup parameters for call to function osal_rand
        LCALL   ??osal_rand?relay
        MOV     ?V0 + 0,R2
        MOV     R0,?V0 + 0
//  784       pNum[i]   = LO_UINT16( rand );
        MOV     ?V0 + 0,?V0 + 3
        LCALL   ?Subroutine29 & 0xFFFF
??CrossCallReturnLabel_90:
        MOV     A,R0
        MOVX    @DPTR,A
//  785       pNum[i+1] = HI_UINT16( rand );
        MOV     A,R3
        INC     DPTR
        MOVX    @DPTR,A
//  786     }
        INC     ?V0 + 3
        INC     ?V0 + 3
??zll_GenerateRandNum_1:
        MOV     A,?V0 + 3
        CLR     C
        SUBB    A,?V0 + 2
        JC      ??zll_GenerateRandNum_2
//  787 
//  788     // In case the number is odd
//  789     if ( numSize % 2 )
        MOV     A,?V0 + 4
        MOV     C,0xE0 /* A   */.0
        JNC     ??zll_GenerateRandNum_0
//  790     {
//  791       pNum[lastByte] = LO_UINT16( osal_rand() );
        ; Setup parameters for call to function osal_rand
        LCALL   ??osal_rand?relay
        MOV     ?V0 + 0,?V0 + 2
        LCALL   ?Subroutine29 & 0xFFFF
//  792     }
//  793   }
??CrossCallReturnLabel_91:
        MOV     A,R2
        MOVX    @DPTR,A
          CFI EndBlock cfiBlock97
//  794 }
??zll_GenerateRandNum_0:
        REQUIRE ?Subroutine4
        ; // Fall through to label ?Subroutine4

        RSEG BANKED_CODE:CODE:NOROOT(0)
?Subroutine4:
          CFI Block cfiBlock98 Using cfiCommon0
          CFI NoFunction
          CFI CFA_SP SP+0
          CFI CFA_XSP16 add(XSP16, 13)
          CFI VB load(1, XDATA, add(CFA_XSP16, literal(-12)))
          CFI DPL0 load(1, XDATA, add(CFA_XSP16, literal(-2)))
          CFI DPH0 load(1, XDATA, add(CFA_XSP16, literal(-1)))
          CFI R6 load(1, XDATA, add(CFA_XSP16, literal(-13)))
          CFI R7 load(1, XDATA, add(CFA_XSP16, literal(-6)))
          CFI V0 load(1, XDATA, add(CFA_XSP16, literal(-11)))
          CFI V1 load(1, XDATA, add(CFA_XSP16, literal(-10)))
          CFI V2 load(1, XDATA, add(CFA_XSP16, literal(-9)))
          CFI V3 load(1, XDATA, add(CFA_XSP16, literal(-8)))
          CFI V4 load(1, XDATA, add(CFA_XSP16, literal(-7)))
          CFI ?BRET_EXT load(1, XDATA, add(CFA_XSP16, literal(-3)))
          CFI ?RET_HIGH load(1, XDATA, add(CFA_XSP16, literal(-4)))
          CFI ?RET_LOW load(1, XDATA, add(CFA_XSP16, literal(-5)))
        MOV     R7,#0x5
        LJMP    ?BANKED_LEAVE_XDATA
          CFI EndBlock cfiBlock98
//  795 
//  796 /*********************************************************************
//  797  * @fn      zll_GetRandPrimaryChannel
//  798  *
//  799  * @brief   Get randomly chosen ZLL primary channel.
//  800  *
//  801  * @return  channel
//  802  */

        RSEG BANKED_CODE:CODE:NOROOT(0)
//  803 uint8 zll_GetRandPrimaryChannel()
zll_GetRandPrimaryChannel:
          CFI Block cfiBlock99 Using cfiCommon0
          CFI Function zll_GetRandPrimaryChannel
        CODE
//  804 {
        FUNCALL zll_GetRandPrimaryChannel, osal_rand
        LOCFRAME ISTACK, 2, STACK
        LOCFRAME PSTACK, 0, STACK
        LOCFRAME XSTACK, 0, STACK
        LOCFRAME IOVERLAY, 0, STATIC
        LOCFRAME DOVERLAY, 0, STATIC
        ARGFRAME ISTACK, 2, STACK
        ARGFRAME PSTACK, 0, STACK
        ARGFRAME XSTACK, 0, STACK
        ARGFRAME IOVERLAY, 0, STATIC
        ARGFRAME DOVERLAY, 0, STATIC
        PUSH    DPL
          CFI DPL0 Frame(CFA_SP, 4)
          CFI CFA_SP SP+-4
        PUSH    DPH
          CFI DPH0 Frame(CFA_SP, 5)
          CFI CFA_SP SP+-5
        ; Saved register size: 2
        ; Auto size: 0
//  805   uint8 channel = osal_rand() & 0x1F;
        ; Setup parameters for call to function osal_rand
        LCALL   ??osal_rand?relay
        MOV     A,R2
        ANL     A,#0x1f
        MOV     R1,A
//  806   if ( channel <= ZLL_FIRST_CHANNEL )
        CLR     C
        SUBB    A,#0xc
        JNC     ??zll_GetRandPrimaryChannel_0
//  807   {
//  808     channel = ZLL_FIRST_CHANNEL;
        MOV     R1,#0xb
        SJMP    ??zll_GetRandPrimaryChannel_1
//  809   }
//  810   else if ( channel <= ZLL_SECOND_CHANNEL )
??zll_GetRandPrimaryChannel_0:
        MOV     A,R1
        CLR     C
        SUBB    A,#0x10
        JNC     ??zll_GetRandPrimaryChannel_2
//  811   {
//  812     channel = ZLL_SECOND_CHANNEL;
        MOV     R1,#0xf
        SJMP    ??zll_GetRandPrimaryChannel_1
//  813   }
//  814   else if ( channel <= ZLL_THIRD_CHANNEL )
??zll_GetRandPrimaryChannel_2:
        MOV     A,R1
        CLR     C
        SUBB    A,#0x15
        JNC     ??zll_GetRandPrimaryChannel_3
//  815   {
//  816     channel = ZLL_THIRD_CHANNEL;
        MOV     R1,#0x14
        SJMP    ??zll_GetRandPrimaryChannel_1
//  817   }
//  818   else
//  819   {
//  820     channel = ZLL_FOURTH_CHANNEL;
??zll_GetRandPrimaryChannel_3:
        MOV     R1,#0x19
//  821   }
//  822 #ifdef ZLL_DEV_SELECT_FIRST_CHANNEL
//  823 #warning The device will always select the first primary channel
//  824   channel = ZLL_FIRST_CHANNEL;
//  825 #endif
//  826   return channel;
??zll_GetRandPrimaryChannel_1:
        LJMP    ??Subroutine39_0 & 0xFFFF
          CFI EndBlock cfiBlock99
//  827 }
//  828 
//  829 /*********************************************************************
//  830  * @fn      zll_SetNIB
//  831  *
//  832  * @brief   Copy new Network Parameters to the NIB.
//  833  *
//  834  * @param   nwkState - network state
//  835  * @param   nwkAddr - short address
//  836  * @param   pExtendedPANID - pointer to extended PAN ID
//  837  * @param   logicalChannel - channel
//  838  * @param   panId - PAN identifier
//  839  * @param   nwkUpdateId - nwtwork update identifier
//  840  *
//  841  * @return      void
//  842  */

        RSEG BANKED_CODE:CODE:NOROOT(0)
//  843 void zll_SetNIB( nwk_states_t nwkState, uint16 nwkAddr, uint8 *pExtendedPANID,
zll_SetNIB:
          CFI Block cfiBlock100 Using cfiCommon0
          CFI Function zll_SetNIB
        CODE
//  844                  uint8 logicalChannel, uint16 panId, uint8 nwkUpdateId )
//  845 {
        FUNCALL zll_SetNIB, NLME_SetUpdateID
        LOCFRAME ISTACK, 0, STACK
        LOCFRAME PSTACK, 0, STACK
        LOCFRAME XSTACK, 13, STACK
        LOCFRAME IOVERLAY, 0, STATIC
        LOCFRAME DOVERLAY, 0, STATIC
        ARGFRAME ISTACK, 0, STACK
        ARGFRAME PSTACK, 0, STACK
        ARGFRAME XSTACK, 13, STACK
        ARGFRAME IOVERLAY, 0, STATIC
        ARGFRAME DOVERLAY, 0, STATIC
        FUNCALL zll_SetNIB, sAddrExtCpy
        LOCFRAME ISTACK, 0, STACK
        LOCFRAME PSTACK, 0, STACK
        LOCFRAME XSTACK, 13, STACK
        LOCFRAME IOVERLAY, 0, STATIC
        LOCFRAME DOVERLAY, 0, STATIC
        ARGFRAME ISTACK, 0, STACK
        ARGFRAME PSTACK, 0, STACK
        ARGFRAME XSTACK, 13, STACK
        ARGFRAME IOVERLAY, 0, STATIC
        ARGFRAME DOVERLAY, 0, STATIC
        FUNCALL zll_SetNIB, zll_UpdateNV
        LOCFRAME ISTACK, 0, STACK
        LOCFRAME PSTACK, 0, STACK
        LOCFRAME XSTACK, 13, STACK
        LOCFRAME IOVERLAY, 0, STATIC
        LOCFRAME DOVERLAY, 0, STATIC
        ARGFRAME ISTACK, 0, STACK
        ARGFRAME PSTACK, 0, STACK
        ARGFRAME XSTACK, 13, STACK
        ARGFRAME IOVERLAY, 0, STATIC
        ARGFRAME DOVERLAY, 0, STATIC
        MOV     A,#-0xd
        LCALL   ?BANKED_ENTER_XDATA
          CFI DPH0 load(1, XDATA, add(CFA_XSP16, literal(-1)))
          CFI DPL0 load(1, XDATA, add(CFA_XSP16, literal(-2)))
          CFI ?BRET_EXT load(1, XDATA, add(CFA_XSP16, literal(-3)))
          CFI ?RET_HIGH load(1, XDATA, add(CFA_XSP16, literal(-4)))
          CFI ?RET_LOW load(1, XDATA, add(CFA_XSP16, literal(-5)))
          CFI R7 load(1, XDATA, add(CFA_XSP16, literal(-6)))
          CFI V4 load(1, XDATA, add(CFA_XSP16, literal(-7)))
          CFI V3 load(1, XDATA, add(CFA_XSP16, literal(-8)))
          CFI V2 load(1, XDATA, add(CFA_XSP16, literal(-9)))
          CFI V1 load(1, XDATA, add(CFA_XSP16, literal(-10)))
          CFI V0 load(1, XDATA, add(CFA_XSP16, literal(-11)))
          CFI VB load(1, XDATA, add(CFA_XSP16, literal(-12)))
          CFI R6 load(1, XDATA, add(CFA_XSP16, literal(-13)))
          CFI CFA_SP SP+0
          CFI CFA_XSP16 add(XSP16, 13)
        ; Saved register size: 13
        ; Auto size: 0
        MOV     ?V0 + 4,R1
        MOV     A,R4
        MOV     R6,A
        MOV     A,R5
        MOV     R7,A
        MOV     A,#0xe
        LCALL   ?XSTACK_DISP0_8
        LCALL   ??Subroutine44_0 & 0xFFFF
//  846   // Copy the new network parameters to NIB
//  847   _NIB.nwkState = nwkState;
??CrossCallReturnLabel_107:
        MOV     A,R1
        MOV     DPTR,#_NIB + 35
        MOVX    @DPTR,A
//  848   _NIB.nwkDevAddress = nwkAddr;
        MOV     DPTR,#_NIB + 20
        MOV     A,R2
        MOVX    @DPTR,A
        INC     DPTR
        MOV     A,R3
        MOVX    @DPTR,A
        MOV     A,#0xd
        LCALL   ?XSTACK_DISP0_8
        MOVX    A,@DPTR
        MOV     R0,A
//  849   _NIB.nwkLogicalChannel = logicalChannel;
        MOV     DPTR,#_NIB + 22
        MOVX    @DPTR,A
//  850   _NIB.nwkCoordAddress = INVALID_NODE_ADDR;
        INC     DPTR
        LCALL   ?Subroutine26 & 0xFFFF
//  851   _NIB.channelList = (uint32)1 << logicalChannel;
??CrossCallReturnLabel_50:
        MOV     ?V0 + 0,#0x1
        MOV     ?V0 + 1,#0x0
        MOV     ?V0 + 2,#0x0
        MOV     ?V0 + 3,#0x0
        MOV     A,R0
        MOV     R0,#?V0 + 0
        LCALL   ?L_SHL
        MOV     DPTR,#_NIB + 36
        MOV     R0,#?V0 + 0
        LCALL   ?L_MOV_TO_X
//  852   _NIB.nwkPanId = panId;
        MOV     DPTR,#_NIB + 33
        MOV     A,R4
        MOVX    @DPTR,A
        INC     DPTR
        MOV     A,R5
        MOVX    @DPTR,A
//  853   _NIB.nodeDepth = 1;
        MOV     DPTR,#_NIB + 52
        MOV     A,#0x1
        MOVX    @DPTR,A
//  854   _NIB.MaxRouters = (uint8)gNWK_MAX_DEVICE_LIST;
        MOV     DPTR,#gNWK_MAX_DEVICE_LIST
        CLR     A
        MOVC    A,@A+DPTR
        MOV     DPTR,#_NIB + 5
        MOVX    @DPTR,A
//  855   _NIB.MaxChildren = (uint8)gNWK_MAX_DEVICE_LIST;
        MOV     DPTR,#gNWK_MAX_DEVICE_LIST
        CLR     A
        MOVC    A,@A+DPTR
        MOV     DPTR,#_NIB + 3
        MOVX    @DPTR,A
//  856   _NIB.allocatedRouterAddresses = 1;
        MOV     DPTR,#_NIB + 44
        MOV     A,#0x1
        MOVX    @DPTR,A
        INC     DPTR
        CLR     A
        MOVX    @DPTR,A
        INC     DPTR
        MOVX    @DPTR,A
        INC     DPTR
        LCALL   ??Subroutine35_0 & 0xFFFF
//  857   _NIB.allocatedEndDeviceAddresses = 1;
??CrossCallReturnLabel_47:
        INC     DPTR
        CLR     A
        MOVX    @DPTR,A
        INC     DPTR
        MOVX    @DPTR,A
        INC     DPTR
        MOVX    @DPTR,A
        MOV     A,#0x10
        LCALL   ?XSTACK_DISP0_8
        MOVX    A,@DPTR
        MOV     R1,A
//  858 
//  859   if ( _NIB.nwkUpdateId != nwkUpdateId )
        MOV     DPTR,#_NIB + 109
        MOVX    A,@DPTR
        XRL     A,R1
        JZ      ??zll_SetNIB_0
//  860   {
//  861     NLME_SetUpdateID( nwkUpdateId );
        ; Setup parameters for call to function NLME_SetUpdateID
        LCALL   ??NLME_SetUpdateID?relay
//  862   }
//  863 
//  864   osal_cpyExtAddr( _NIB.extendedPANID, pExtendedPANID );
??zll_SetNIB_0:
        ; Setup parameters for call to function sAddrExtCpy
        MOV     A,R6
        MOV     R4,A
        MOV     A,R7
        MOV     R5,A
        MOV     R2,#(_NIB + 53) & 0xff
        MOV     R3,#((_NIB + 53) >> 8) & 0xff
        LCALL   ??sAddrExtCpy?relay
//  865 
//  866   // Save the NIB
//  867   if ( nwkState == NWK_ROUTER )
        MOV     A,#0x8
        XRL     A,?V0 + 4
        JNZ     ??zll_SetNIB_1
//  868   {
//  869     zll_UpdateNV( ZLL_UPDATE_NV_NIB );
        ; Setup parameters for call to function zll_UpdateNV
        MOV     R1,#0x1
        LCALL   ??zll_UpdateNV?relay
//  870   }
//  871   // else will be updated when ED joins its parent
//  872 }
??zll_SetNIB_1:
        LJMP    ?Subroutine4 & 0xFFFF
          CFI EndBlock cfiBlock100
//  873 
//  874 /*********************************************************************
//  875  * @fn      zll_ProcessNwkUpdate
//  876  *
//  877  * @brief   Update our local network update id and logical channel.
//  878  *
//  879  * @param   nwkUpdateId - new network update id
//  880  * @param   logicalChannel - new logical channel
//  881  *
//  882  * @return  void
//  883  */

        RSEG BANKED_CODE:CODE:NOROOT(0)
//  884 void zll_ProcessNwkUpdate( uint8 nwkUpdateId, uint8 logicalChannel )
zll_ProcessNwkUpdate:
          CFI Block cfiBlock101 Using cfiCommon0
          CFI Function zll_ProcessNwkUpdate
        CODE
//  885 {
        FUNCALL zll_ProcessNwkUpdate, NLME_SetUpdateID
        LOCFRAME ISTACK, 0, STACK
        LOCFRAME PSTACK, 0, STACK
        LOCFRAME XSTACK, 12, STACK
        LOCFRAME IOVERLAY, 0, STATIC
        LOCFRAME DOVERLAY, 0, STATIC
        ARGFRAME ISTACK, 0, STACK
        ARGFRAME PSTACK, 0, STACK
        ARGFRAME XSTACK, 12, STACK
        ARGFRAME IOVERLAY, 0, STATIC
        ARGFRAME DOVERLAY, 0, STATIC
        FUNCALL zll_ProcessNwkUpdate, zll_SetChannel
        LOCFRAME ISTACK, 0, STACK
        LOCFRAME PSTACK, 0, STACK
        LOCFRAME XSTACK, 12, STACK
        LOCFRAME IOVERLAY, 0, STATIC
        LOCFRAME DOVERLAY, 0, STATIC
        ARGFRAME ISTACK, 0, STACK
        ARGFRAME PSTACK, 0, STACK
        ARGFRAME XSTACK, 12, STACK
        ARGFRAME IOVERLAY, 0, STATIC
        ARGFRAME DOVERLAY, 0, STATIC
        FUNCALL zll_ProcessNwkUpdate, ZDApp_NwkStateUpdateCB
        LOCFRAME ISTACK, 0, STACK
        LOCFRAME PSTACK, 0, STACK
        LOCFRAME XSTACK, 12, STACK
        LOCFRAME IOVERLAY, 0, STATIC
        LOCFRAME DOVERLAY, 0, STATIC
        ARGFRAME ISTACK, 0, STACK
        ARGFRAME PSTACK, 0, STACK
        ARGFRAME XSTACK, 12, STACK
        ARGFRAME IOVERLAY, 0, STATIC
        ARGFRAME DOVERLAY, 0, STATIC
        FUNCALL zll_ProcessNwkUpdate, nwkTransmissionFailures
        LOCFRAME ISTACK, 0, STACK
        LOCFRAME PSTACK, 0, STACK
        LOCFRAME XSTACK, 12, STACK
        LOCFRAME IOVERLAY, 0, STATIC
        LOCFRAME DOVERLAY, 0, STATIC
        ARGFRAME ISTACK, 0, STACK
        ARGFRAME PSTACK, 0, STACK
        ARGFRAME XSTACK, 12, STACK
        ARGFRAME IOVERLAY, 0, STATIC
        ARGFRAME DOVERLAY, 0, STATIC
        MOV     A,#-0xc
        LCALL   ?BANKED_ENTER_XDATA
          CFI DPH0 load(1, XDATA, add(CFA_XSP16, literal(-1)))
          CFI DPL0 load(1, XDATA, add(CFA_XSP16, literal(-2)))
          CFI ?BRET_EXT load(1, XDATA, add(CFA_XSP16, literal(-3)))
          CFI ?RET_HIGH load(1, XDATA, add(CFA_XSP16, literal(-4)))
          CFI ?RET_LOW load(1, XDATA, add(CFA_XSP16, literal(-5)))
          CFI R7 load(1, XDATA, add(CFA_XSP16, literal(-6)))
          CFI V3 load(1, XDATA, add(CFA_XSP16, literal(-7)))
          CFI V2 load(1, XDATA, add(CFA_XSP16, literal(-8)))
          CFI V1 load(1, XDATA, add(CFA_XSP16, literal(-9)))
          CFI V0 load(1, XDATA, add(CFA_XSP16, literal(-10)))
          CFI VB load(1, XDATA, add(CFA_XSP16, literal(-11)))
          CFI R6 load(1, XDATA, add(CFA_XSP16, literal(-12)))
          CFI CFA_SP SP+0
          CFI CFA_XSP16 add(XSP16, 12)
        ; Saved register size: 12
        ; Auto size: 0
        MOV     A,R2
        MOV     R6,A
//  886   // Update the network update id
//  887   NLME_SetUpdateID( nwkUpdateId );
        ; Setup parameters for call to function NLME_SetUpdateID
        LCALL   ??NLME_SetUpdateID?relay
//  888 
//  889   // Switch channel
//  890   if ( _NIB.nwkLogicalChannel != logicalChannel )
        MOV     DPTR,#_NIB + 22
        MOVX    A,@DPTR
        XRL     A,R6
        JZ      ??zll_ProcessNwkUpdate_0
//  891   {
//  892     _NIB.nwkLogicalChannel = logicalChannel;
        MOV     A,R6
        MOVX    @DPTR,A
//  893     zll_SetChannel( logicalChannel );
        ; Setup parameters for call to function zll_SetChannel
        MOV     R1,A
        LCALL   ??zll_SetChannel?relay
//  894   }
//  895 
//  896   // Update channel list
//  897   _NIB.channelList = (uint32)1 << logicalChannel;
??zll_ProcessNwkUpdate_0:
        MOV     ?V0 + 0,#0x1
        MOV     ?V0 + 1,#0x0
        MOV     ?V0 + 2,#0x0
        MOV     ?V0 + 3,#0x0
        MOV     A,R6
        MOV     R0,#?V0 + 0
        LCALL   ?L_SHL
        MOV     DPTR,#_NIB + 36
        MOV     R0,#?V0 + 0
        LCALL   ?L_MOV_TO_X
//  898 
//  899   // Our Channel has been changed -- notify to save info into NV
//  900   ZDApp_NwkStateUpdateCB();
        ; Setup parameters for call to function ZDApp_NwkStateUpdateCB
        LCALL   ??ZDApp_NwkStateUpdateCB?relay
//  901   //zll_UpdateNV();
//  902 
//  903   // Reset the total transmit count and the transmit failure counters
//  904   _NIB.nwkTotalTransmissions = 0;
        MOV     DPTR,#_NIB + 107
        CLR     A
        MOVX    @DPTR,A
        INC     DPTR
        MOVX    @DPTR,A
//  905   nwkTransmissionFailures( TRUE );
        ; Setup parameters for call to function nwkTransmissionFailures
        MOV     R1,#0x1
        LCALL   ??nwkTransmissionFailures?relay
//  906 }
        LJMP    ?Subroutine3 & 0xFFFF
          CFI EndBlock cfiBlock101
//  907 
//  908 /*********************************************************************
//  909  * @fn      zll_UpdateNV
//  910  *
//  911  * @brief   Updates NV with NIB and free ranges items
//  912  *
//  913  * @param   enables - specifies what to update
//  914  *
//  915  * @return  none
//  916  */

        RSEG BANKED_CODE:CODE:NOROOT(0)
//  917 void zll_UpdateNV( uint8 enables )
zll_UpdateNV:
          CFI Block cfiBlock102 Using cfiCommon0
          CFI Function zll_UpdateNV
        CODE
//  918 {
        FUNCALL zll_UpdateNV, osal_nv_write
        LOCFRAME ISTACK, 0, STACK
        LOCFRAME PSTACK, 0, STACK
        LOCFRAME XSTACK, 14, STACK
        LOCFRAME IOVERLAY, 0, STATIC
        LOCFRAME DOVERLAY, 0, STATIC
        ARGFRAME ISTACK, 0, STACK
        ARGFRAME PSTACK, 0, STACK
        ARGFRAME XSTACK, 14, STACK
        ARGFRAME IOVERLAY, 0, STATIC
        ARGFRAME DOVERLAY, 0, STATIC
        FUNCALL zll_UpdateNV, zgWriteStartupOptions
        LOCFRAME ISTACK, 0, STACK
        LOCFRAME PSTACK, 0, STACK
        LOCFRAME XSTACK, 10, STACK
        LOCFRAME IOVERLAY, 0, STATIC
        LOCFRAME DOVERLAY, 0, STATIC
        ARGFRAME ISTACK, 0, STACK
        ARGFRAME PSTACK, 0, STACK
        ARGFRAME XSTACK, 10, STACK
        ARGFRAME IOVERLAY, 0, STATIC
        ARGFRAME DOVERLAY, 0, STATIC
        FUNCALL zll_UpdateNV, osal_nv_write
        LOCFRAME ISTACK, 0, STACK
        LOCFRAME PSTACK, 0, STACK
        LOCFRAME XSTACK, 14, STACK
        LOCFRAME IOVERLAY, 0, STATIC
        LOCFRAME DOVERLAY, 0, STATIC
        ARGFRAME ISTACK, 0, STACK
        ARGFRAME PSTACK, 0, STACK
        ARGFRAME XSTACK, 14, STACK
        ARGFRAME IOVERLAY, 0, STATIC
        ARGFRAME DOVERLAY, 0, STATIC
        FUNCALL zll_UpdateNV, osal_nv_write
        LOCFRAME ISTACK, 0, STACK
        LOCFRAME PSTACK, 0, STACK
        LOCFRAME XSTACK, 14, STACK
        LOCFRAME IOVERLAY, 0, STATIC
        LOCFRAME DOVERLAY, 0, STATIC
        ARGFRAME ISTACK, 0, STACK
        ARGFRAME PSTACK, 0, STACK
        ARGFRAME XSTACK, 14, STACK
        ARGFRAME IOVERLAY, 0, STATIC
        ARGFRAME DOVERLAY, 0, STATIC
        FUNCALL zll_UpdateNV, osal_nv_write
        LOCFRAME ISTACK, 0, STACK
        LOCFRAME PSTACK, 0, STACK
        LOCFRAME XSTACK, 14, STACK
        LOCFRAME IOVERLAY, 0, STATIC
        LOCFRAME DOVERLAY, 0, STATIC
        ARGFRAME ISTACK, 0, STACK
        ARGFRAME PSTACK, 0, STACK
        ARGFRAME XSTACK, 14, STACK
        ARGFRAME IOVERLAY, 0, STATIC
        ARGFRAME DOVERLAY, 0, STATIC
        FUNCALL zll_UpdateNV, osal_nv_write
        LOCFRAME ISTACK, 0, STACK
        LOCFRAME PSTACK, 0, STACK
        LOCFRAME XSTACK, 14, STACK
        LOCFRAME IOVERLAY, 0, STATIC
        LOCFRAME DOVERLAY, 0, STATIC
        ARGFRAME ISTACK, 0, STACK
        ARGFRAME PSTACK, 0, STACK
        ARGFRAME XSTACK, 14, STACK
        ARGFRAME IOVERLAY, 0, STATIC
        ARGFRAME DOVERLAY, 0, STATIC
        FUNCALL zll_UpdateNV, osal_nv_write
        LOCFRAME ISTACK, 0, STACK
        LOCFRAME PSTACK, 0, STACK
        LOCFRAME XSTACK, 14, STACK
        LOCFRAME IOVERLAY, 0, STATIC
        LOCFRAME DOVERLAY, 0, STATIC
        ARGFRAME ISTACK, 0, STACK
        ARGFRAME PSTACK, 0, STACK
        ARGFRAME XSTACK, 14, STACK
        ARGFRAME IOVERLAY, 0, STATIC
        ARGFRAME DOVERLAY, 0, STATIC
        FUNCALL zll_UpdateNV, osal_nv_write
        LOCFRAME ISTACK, 0, STACK
        LOCFRAME PSTACK, 0, STACK
        LOCFRAME XSTACK, 14, STACK
        LOCFRAME IOVERLAY, 0, STATIC
        LOCFRAME DOVERLAY, 0, STATIC
        ARGFRAME ISTACK, 0, STACK
        ARGFRAME PSTACK, 0, STACK
        ARGFRAME XSTACK, 14, STACK
        ARGFRAME IOVERLAY, 0, STATIC
        ARGFRAME DOVERLAY, 0, STATIC
        MOV     A,#-0xa
        LCALL   ?BANKED_ENTER_XDATA
          CFI DPH0 load(1, XDATA, add(CFA_XSP16, literal(-1)))
          CFI DPL0 load(1, XDATA, add(CFA_XSP16, literal(-2)))
          CFI ?BRET_EXT load(1, XDATA, add(CFA_XSP16, literal(-3)))
          CFI ?RET_HIGH load(1, XDATA, add(CFA_XSP16, literal(-4)))
          CFI ?RET_LOW load(1, XDATA, add(CFA_XSP16, literal(-5)))
          CFI R7 load(1, XDATA, add(CFA_XSP16, literal(-6)))
          CFI V1 load(1, XDATA, add(CFA_XSP16, literal(-7)))
          CFI V0 load(1, XDATA, add(CFA_XSP16, literal(-8)))
          CFI VB load(1, XDATA, add(CFA_XSP16, literal(-9)))
          CFI R6 load(1, XDATA, add(CFA_XSP16, literal(-10)))
          CFI CFA_SP SP+0
          CFI CFA_XSP16 add(XSP16, 10)
        ; Saved register size: 10
        ; Auto size: 0
        MOV     A,R1
        MOV     R6,A
//  919 #if defined ( NV_RESTORE )
//  920 
//  921  #if defined ( NV_TURN_OFF_RADIO )
//  922   // Turn off the radio's receiver during an NV update
//  923   uint8 RxOnIdle;
//  924   uint8 x = FALSE;
//  925   ZMacGetReq( ZMacRxOnIdle, &RxOnIdle );
//  926   ZMacSetReq( ZMacRxOnIdle, &x );
//  927  #endif
//  928 
//  929   if ( enables & ZLL_UPDATE_NV_NIB )
        MOV     C,0xE0 /* A   */.0
        JNC     ??zll_UpdateNV_0
//  930   {
//  931     // Update NIB in NV
//  932     osal_nv_write( ZCD_NV_NIB, 0, sizeof( nwkIB_t ), &_NIB );
        ; Setup parameters for call to function osal_nv_write
        MOV     ?V0 + 0,#_NIB & 0xff
        MOV     ?V0 + 1,#(_NIB >> 8) & 0xff
        MOV     R0,#?V0 + 0
        LCALL   ?PUSH_XSTACK_I_TWO
          CFI CFA_XSP16 add(XSP16, 12)
        MOV     ?V0 + 0,#0x6e
        MOV     ?V0 + 1,#0x0
        MOV     R0,#?V0 + 0
        LCALL   ?PUSH_XSTACK_I_TWO
          CFI CFA_XSP16 add(XSP16, 14)
        MOV     R4,#0x0
        MOV     R5,#0x0
        MOV     R2,#0x21
        MOV     R3,#0x0
        LCALL   ??osal_nv_write?relay
        MOV     A,#0x4
        LCALL   ?DEALLOC_XSTACK8
          CFI CFA_XSP16 add(XSP16, 10)
//  933 
//  934     // Reset the NV startup option to resume from NV by clearing
//  935     // the "New" join option.
//  936     zgWriteStartupOptions( ZG_STARTUP_CLEAR, ZCD_STARTOPT_DEFAULT_NETWORK_STATE );
        ; Setup parameters for call to function zgWriteStartupOptions
        MOV     R2,#0x2
        MOV     R1,#0x0
        LCALL   ??zgWriteStartupOptions?relay
//  937   }
//  938 
//  939   if ( enables & ZLL_UPDATE_NV_RANGES )
??zll_UpdateNV_0:
        MOV     A,R6
        MOV     C,0xE0 /* A   */.1
        JC      $+5
        LJMP    ??zll_UpdateNV_1 & 0xFFFF
//  940   {
//  941     // Store our free network address and group ID ranges
//  942     osal_nv_write( ZCD_NV_MIN_FREE_NWK_ADDR, 0, sizeof( zllFreeNwkAddrBegin ), &zllFreeNwkAddrBegin );
        ; Setup parameters for call to function osal_nv_write
        MOV     ?V0 + 0,#zllFreeNwkAddrBegin & 0xff
        MOV     ?V0 + 1,#(zllFreeNwkAddrBegin >> 8) & 0xff
        MOV     R0,#?V0 + 0
        LCALL   ?PUSH_XSTACK_I_TWO
          CFI CFA_XSP16 add(XSP16, 12)
        MOV     ?V0 + 0,#0x2
        MOV     ?V0 + 1,#0x0
        MOV     R0,#?V0 + 0
        LCALL   ?PUSH_XSTACK_I_TWO
          CFI CFA_XSP16 add(XSP16, 14)
        MOV     R4,#0x0
        MOV     R5,#0x0
        MOV     R2,#-0x6e
        MOV     R3,#0x0
        LCALL   ??osal_nv_write?relay
        MOV     A,#0x4
        LCALL   ?DEALLOC_XSTACK8
          CFI CFA_XSP16 add(XSP16, 10)
//  943     osal_nv_write( ZCD_NV_MAX_FREE_NWK_ADDR, 0, sizeof( zllFreeNwkAddrEnd ), &zllFreeNwkAddrEnd );
        ; Setup parameters for call to function osal_nv_write
        MOV     ?V0 + 0,#zllFreeNwkAddrEnd & 0xff
        MOV     ?V0 + 1,#(zllFreeNwkAddrEnd >> 8) & 0xff
        MOV     R0,#?V0 + 0
        LCALL   ?PUSH_XSTACK_I_TWO
          CFI CFA_XSP16 add(XSP16, 12)
        MOV     ?V0 + 0,#0x2
        MOV     ?V0 + 1,#0x0
        MOV     R0,#?V0 + 0
        LCALL   ?PUSH_XSTACK_I_TWO
          CFI CFA_XSP16 add(XSP16, 14)
        MOV     R4,#0x0
        MOV     R5,#0x0
        MOV     R2,#-0x6d
        MOV     R3,#0x0
        LCALL   ??osal_nv_write?relay
        MOV     A,#0x4
        LCALL   ?DEALLOC_XSTACK8
          CFI CFA_XSP16 add(XSP16, 10)
//  944     osal_nv_write( ZCD_NV_MIN_FREE_GRP_ID, 0, sizeof( zllFreeGrpIdBegin ), &zllFreeGrpIdBegin );
        ; Setup parameters for call to function osal_nv_write
        MOV     ?V0 + 0,#zllFreeGrpIdBegin & 0xff
        MOV     ?V0 + 1,#(zllFreeGrpIdBegin >> 8) & 0xff
        MOV     R0,#?V0 + 0
        LCALL   ?PUSH_XSTACK_I_TWO
          CFI CFA_XSP16 add(XSP16, 12)
        MOV     ?V0 + 0,#0x2
        MOV     ?V0 + 1,#0x0
        MOV     R0,#?V0 + 0
        LCALL   ?PUSH_XSTACK_I_TWO
          CFI CFA_XSP16 add(XSP16, 14)
        MOV     R4,#0x0
        MOV     R5,#0x0
        MOV     R2,#-0x6c
        MOV     R3,#0x0
        LCALL   ??osal_nv_write?relay
        MOV     A,#0x4
        LCALL   ?DEALLOC_XSTACK8
          CFI CFA_XSP16 add(XSP16, 10)
//  945     osal_nv_write( ZCD_NV_MAX_FREE_GRP_ID, 0, sizeof( zllFreeGrpIdEnd ), &zllFreeGrpIdEnd );
        ; Setup parameters for call to function osal_nv_write
        MOV     ?V0 + 0,#zllFreeGrpIdEnd & 0xff
        MOV     ?V0 + 1,#(zllFreeGrpIdEnd >> 8) & 0xff
        MOV     R0,#?V0 + 0
        LCALL   ?PUSH_XSTACK_I_TWO
          CFI CFA_XSP16 add(XSP16, 12)
        MOV     ?V0 + 0,#0x2
        MOV     ?V0 + 1,#0x0
        MOV     R0,#?V0 + 0
        LCALL   ?PUSH_XSTACK_I_TWO
          CFI CFA_XSP16 add(XSP16, 14)
        MOV     R4,#0x0
        MOV     R5,#0x0
        MOV     R2,#-0x6b
        MOV     R3,#0x0
        LCALL   ??osal_nv_write?relay
        MOV     A,#0x4
        LCALL   ?DEALLOC_XSTACK8
          CFI CFA_XSP16 add(XSP16, 10)
//  946 
//  947     // Store our group ID range
//  948     osal_nv_write( ZCD_NV_MIN_GRP_IDS, 0, sizeof( zllGrpIDsBegin ), &zllGrpIDsBegin );
        ; Setup parameters for call to function osal_nv_write
        MOV     ?V0 + 0,#zllGrpIDsBegin & 0xff
        MOV     ?V0 + 1,#(zllGrpIDsBegin >> 8) & 0xff
        MOV     R0,#?V0 + 0
        LCALL   ?PUSH_XSTACK_I_TWO
          CFI CFA_XSP16 add(XSP16, 12)
        MOV     ?V0 + 0,#0x2
        MOV     ?V0 + 1,#0x0
        MOV     R0,#?V0 + 0
        LCALL   ?PUSH_XSTACK_I_TWO
          CFI CFA_XSP16 add(XSP16, 14)
        MOV     R4,#0x0
        MOV     R5,#0x0
        MOV     R2,#-0x6a
        MOV     R3,#0x0
        LCALL   ??osal_nv_write?relay
        MOV     A,#0x4
        LCALL   ?DEALLOC_XSTACK8
          CFI CFA_XSP16 add(XSP16, 10)
//  949     osal_nv_write( ZCD_NV_MAX_GRP_IDS, 0, sizeof( zllGrpIDsEnd ), &zllGrpIDsEnd );
        ; Setup parameters for call to function osal_nv_write
        MOV     ?V0 + 0,#zllGrpIDsEnd & 0xff
        MOV     ?V0 + 1,#(zllGrpIDsEnd >> 8) & 0xff
        MOV     R0,#?V0 + 0
        LCALL   ?PUSH_XSTACK_I_TWO
          CFI CFA_XSP16 add(XSP16, 12)
        MOV     ?V0 + 0,#0x2
        MOV     ?V0 + 1,#0x0
        MOV     R0,#?V0 + 0
        LCALL   ?PUSH_XSTACK_I_TWO
          CFI CFA_XSP16 add(XSP16, 14)
        MOV     R4,#0x0
        MOV     R5,#0x0
        MOV     R2,#-0x69
        MOV     R3,#0x0
        LCALL   ??osal_nv_write?relay
        MOV     A,#0x4
        LCALL   ?DEALLOC_XSTACK8
          CFI CFA_XSP16 add(XSP16, 10)
//  950   }
//  951 
//  952  #if defined ( NV_TURN_OFF_RADIO )
//  953   ZMacSetReq( ZMacRxOnIdle, &RxOnIdle );
//  954  #endif
//  955 
//  956 #endif // NV_RESTORE
//  957 }
??zll_UpdateNV_1:
        LJMP    ??Subroutine36_0 & 0xFFFF
          CFI EndBlock cfiBlock102
//  958 
//  959 /*********************************************************************
//  960  * @fn          zll_InitNV
//  961  *
//  962  * @brief       Initialize free range RAM variables from NV. If NV items
//  963  *              don't exist, then the NV is initialize with what is in
//  964  *              RAM variables.
//  965  *
//  966  * @param       none
//  967  *
//  968  * @return      none
//  969  */
//  970 static void zll_InitNV( void )
//  971 {
//  972   // Initialize our free network address and group ID ranges
//  973   zll_ItemInit( ZCD_NV_MIN_FREE_NWK_ADDR, sizeof( zllFreeNwkAddrBegin ), &zllFreeNwkAddrBegin );
//  974   zll_ItemInit( ZCD_NV_MAX_FREE_NWK_ADDR, sizeof( zllFreeNwkAddrEnd ), &zllFreeNwkAddrEnd );
//  975   zll_ItemInit( ZCD_NV_MIN_FREE_GRP_ID, sizeof( zllFreeGrpIdBegin ), &zllFreeGrpIdBegin );
//  976   zll_ItemInit( ZCD_NV_MAX_FREE_GRP_ID, sizeof( zllFreeGrpIdEnd ), &zllFreeGrpIdEnd );
//  977 
//  978   // Initialize our group ID range
//  979   zll_ItemInit( ZCD_NV_MIN_GRP_IDS, sizeof( zllGrpIDsBegin ), &zllGrpIDsBegin );
//  980   zll_ItemInit( ZCD_NV_MAX_GRP_IDS, sizeof( zllGrpIDsEnd ), &zllGrpIDsEnd );
//  981 }
//  982 
//  983 /*********************************************************************
//  984  * @fn      zll_ItemInit
//  985  *
//  986  * @brief   Initialize an NV item. If the item doesn't exist in NV memory,
//  987  *          write the default (value passed in) into NV memory. But if
//  988  *          it exists, set the item to the value stored in NV memory.
//  989  *
//  990  * @param   id - item id
//  991  * @param   len - item len
//  992  * @param   buf - pointer to the item
//  993  *
//  994  * @return  none
//  995  */

        RSEG BANKED_CODE:CODE:NOROOT(0)
//  996 void zll_ItemInit( uint16 id, uint16 len, void *pBuf )
zll_ItemInit:
          CFI Block cfiBlock103 Using cfiCommon0
          CFI Function zll_ItemInit
        CODE
//  997 {
        FUNCALL zll_ItemInit, osal_nv_item_init
        LOCFRAME ISTACK, 0, STACK
        LOCFRAME PSTACK, 0, STACK
        LOCFRAME XSTACK, 14, STACK
        LOCFRAME IOVERLAY, 0, STATIC
        LOCFRAME DOVERLAY, 0, STATIC
        ARGFRAME ISTACK, 0, STACK
        ARGFRAME PSTACK, 0, STACK
        ARGFRAME XSTACK, 14, STACK
        ARGFRAME IOVERLAY, 0, STATIC
        ARGFRAME DOVERLAY, 0, STATIC
        FUNCALL zll_ItemInit, osal_nv_read
        LOCFRAME ISTACK, 0, STACK
        LOCFRAME PSTACK, 0, STACK
        LOCFRAME XSTACK, 16, STACK
        LOCFRAME IOVERLAY, 0, STATIC
        LOCFRAME DOVERLAY, 0, STATIC
        ARGFRAME ISTACK, 0, STACK
        ARGFRAME PSTACK, 0, STACK
        ARGFRAME XSTACK, 16, STACK
        ARGFRAME IOVERLAY, 0, STATIC
        ARGFRAME DOVERLAY, 0, STATIC
        MOV     A,#-0xc
        LCALL   ?BANKED_ENTER_XDATA
          CFI DPH0 load(1, XDATA, add(CFA_XSP16, literal(-1)))
          CFI DPL0 load(1, XDATA, add(CFA_XSP16, literal(-2)))
          CFI ?BRET_EXT load(1, XDATA, add(CFA_XSP16, literal(-3)))
          CFI ?RET_HIGH load(1, XDATA, add(CFA_XSP16, literal(-4)))
          CFI ?RET_LOW load(1, XDATA, add(CFA_XSP16, literal(-5)))
          CFI R7 load(1, XDATA, add(CFA_XSP16, literal(-6)))
          CFI V3 load(1, XDATA, add(CFA_XSP16, literal(-7)))
          CFI V2 load(1, XDATA, add(CFA_XSP16, literal(-8)))
          CFI V1 load(1, XDATA, add(CFA_XSP16, literal(-9)))
          CFI V0 load(1, XDATA, add(CFA_XSP16, literal(-10)))
          CFI VB load(1, XDATA, add(CFA_XSP16, literal(-11)))
          CFI R6 load(1, XDATA, add(CFA_XSP16, literal(-12)))
          CFI CFA_SP SP+0
          CFI CFA_XSP16 add(XSP16, 12)
        ; Saved register size: 12
        ; Auto size: 0
        MOV     A,R2
        MOV     R6,A
        MOV     A,R3
        MOV     R7,A
        MOV     ?V0 + 2,R4
        MOV     ?V0 + 3,R5
        MOV     A,#0xc
        LCALL   ?XSTACK_DISP0_8
        LCALL   ?Subroutine15 & 0xFFFF
//  998 #if defined ( NV_RESTORE )
//  999   // If the item doesn't exist in NV memory, create and initialize
// 1000   // it with the value passed in.
// 1001   if ( osal_nv_item_init( id, len, pBuf ) == ZSuccess )
??CrossCallReturnLabel_11:
        LCALL   ?PUSH_XSTACK_I_TWO
          CFI CFA_XSP16 add(XSP16, 14)
        LCALL   ??osal_nv_item_init?relay
        MOV     A,#0x2
        LCALL   ?DEALLOC_XSTACK8
          CFI CFA_XSP16 add(XSP16, 12)
        MOV     A,R1
        JNZ     ??zll_ItemInit_0
// 1002   {
// 1003     // The item already exists in NV memory, read it from NV memory
// 1004     osal_nv_read( id, 0, len, pBuf );
        ; Setup parameters for call to function osal_nv_read
        MOV     R0,#?V0 + 0
        LCALL   ?PUSH_XSTACK_I_TWO
          CFI CFA_XSP16 add(XSP16, 14)
        MOV     R0,#?V0 + 2
        LCALL   ?PUSH_XSTACK_I_TWO
          CFI CFA_XSP16 add(XSP16, 16)
        MOV     R4,#0x0
        MOV     R5,#0x0
        MOV     A,R6
        MOV     R2,A
        MOV     A,R7
        MOV     R3,A
        LCALL   ??osal_nv_read?relay
        MOV     A,#0x4
        LCALL   ?DEALLOC_XSTACK8
          CFI CFA_XSP16 add(XSP16, 12)
          CFI EndBlock cfiBlock103
// 1005   }
// 1006 #endif // NV_RESTORE
// 1007 }
??zll_ItemInit_0:
        REQUIRE ?Subroutine3
        ; // Fall through to label ?Subroutine3

        RSEG BANKED_CODE:CODE:NOROOT(0)
?Subroutine3:
          CFI Block cfiBlock104 Using cfiCommon0
          CFI NoFunction
          CFI CFA_SP SP+0
          CFI CFA_XSP16 add(XSP16, 12)
          CFI VB load(1, XDATA, add(CFA_XSP16, literal(-11)))
          CFI DPL0 load(1, XDATA, add(CFA_XSP16, literal(-2)))
          CFI DPH0 load(1, XDATA, add(CFA_XSP16, literal(-1)))
          CFI R6 load(1, XDATA, add(CFA_XSP16, literal(-12)))
          CFI R7 load(1, XDATA, add(CFA_XSP16, literal(-6)))
          CFI V0 load(1, XDATA, add(CFA_XSP16, literal(-10)))
          CFI V1 load(1, XDATA, add(CFA_XSP16, literal(-9)))
          CFI V2 load(1, XDATA, add(CFA_XSP16, literal(-8)))
          CFI V3 load(1, XDATA, add(CFA_XSP16, literal(-7)))
          CFI ?BRET_EXT load(1, XDATA, add(CFA_XSP16, literal(-3)))
          CFI ?RET_HIGH load(1, XDATA, add(CFA_XSP16, literal(-4)))
          CFI ?RET_LOW load(1, XDATA, add(CFA_XSP16, literal(-5)))
        MOV     R7,#0x4
        LJMP    ?BANKED_LEAVE_XDATA
          CFI EndBlock cfiBlock104
// 1008 
// 1009 /*********************************************************************
// 1010  * @fn      zll_SetMacNwkParams
// 1011  *
// 1012  * @brief   Configure MAC with our Network Parameters.
// 1013  *
// 1014  * @param   nwkAddr - network address
// 1015  * @param   panId - PAN identifier
// 1016  * @param   channel
// 1017  *
// 1018  * @return  void
// 1019  */

        RSEG BANKED_CODE:CODE:NOROOT(0)
// 1020 void zll_SetMacNwkParams( uint16 nwkAddr, uint16 panId, uint8 channel )
zll_SetMacNwkParams:
          CFI Block cfiBlock105 Using cfiCommon0
          CFI Function zll_SetMacNwkParams
        CODE
// 1021 {
        FUNCALL zll_SetMacNwkParams, ZMacSetReq
        LOCFRAME ISTACK, 0, STACK
        LOCFRAME PSTACK, 0, STACK
        LOCFRAME XSTACK, 13, STACK
        LOCFRAME IOVERLAY, 0, STATIC
        LOCFRAME DOVERLAY, 0, STATIC
        ARGFRAME ISTACK, 0, STACK
        ARGFRAME PSTACK, 0, STACK
        ARGFRAME XSTACK, 13, STACK
        ARGFRAME IOVERLAY, 0, STATIC
        ARGFRAME DOVERLAY, 0, STATIC
        FUNCALL zll_SetMacNwkParams, ZMacSetReq
        LOCFRAME ISTACK, 0, STACK
        LOCFRAME PSTACK, 0, STACK
        LOCFRAME XSTACK, 13, STACK
        LOCFRAME IOVERLAY, 0, STATIC
        LOCFRAME DOVERLAY, 0, STATIC
        ARGFRAME ISTACK, 0, STACK
        ARGFRAME PSTACK, 0, STACK
        ARGFRAME XSTACK, 13, STACK
        ARGFRAME IOVERLAY, 0, STATIC
        ARGFRAME DOVERLAY, 0, STATIC
        FUNCALL zll_SetMacNwkParams, zll_SetChannel
        LOCFRAME ISTACK, 0, STACK
        LOCFRAME PSTACK, 0, STACK
        LOCFRAME XSTACK, 13, STACK
        LOCFRAME IOVERLAY, 0, STATIC
        LOCFRAME DOVERLAY, 0, STATIC
        ARGFRAME ISTACK, 0, STACK
        ARGFRAME PSTACK, 0, STACK
        ARGFRAME XSTACK, 13, STACK
        ARGFRAME IOVERLAY, 0, STATIC
        ARGFRAME DOVERLAY, 0, STATIC
        MOV     A,#-0x9
        LCALL   ?BANKED_ENTER_XDATA
          CFI DPH0 load(1, XDATA, add(CFA_XSP16, literal(-1)))
          CFI DPL0 load(1, XDATA, add(CFA_XSP16, literal(-2)))
          CFI ?BRET_EXT load(1, XDATA, add(CFA_XSP16, literal(-3)))
          CFI ?RET_HIGH load(1, XDATA, add(CFA_XSP16, literal(-4)))
          CFI ?RET_LOW load(1, XDATA, add(CFA_XSP16, literal(-5)))
          CFI R7 load(1, XDATA, add(CFA_XSP16, literal(-6)))
          CFI V0 load(1, XDATA, add(CFA_XSP16, literal(-7)))
          CFI VB load(1, XDATA, add(CFA_XSP16, literal(-8)))
          CFI R6 load(1, XDATA, add(CFA_XSP16, literal(-9)))
          CFI CFA_SP SP+0
          CFI CFA_XSP16 add(XSP16, 9)
        ; Saved register size: 9
        ; Auto size: 4
        MOV     A,#-0x4
        LCALL   ?ALLOC_XSTACK8
          CFI CFA_XSP16 add(XSP16, 13)
        MOV     A,#0x2
        LCALL   ?XSTACK_DISP0_8
        MOV     A,R2
        MOVX    @DPTR,A
        INC     DPTR
        MOV     A,R3
        MOVX    @DPTR,A
        MOV     DPL,?XSP + 0
        MOV     DPH,?XSP + 1
        MOV     A,R4
        MOVX    @DPTR,A
        INC     DPTR
        MOV     A,R5
        MOVX    @DPTR,A
        MOV     A,R1
        MOV     R6,A
// 1022   // Set our short address
// 1023   ZMacSetReq( ZMacShortAddress, (byte*)&nwkAddr );
        ; Setup parameters for call to function ZMacSetReq
        MOV     A,#0x2
        LCALL   ?XSTACK_DISP0_8
        MOV     R2,DPL
        MOV     R3,DPH
        MOV     R1,#0x53
        LCALL   ??ZMacSetReq?relay
// 1024 
// 1025   // Set our PAN ID
// 1026   ZMacSetReq( ZMacPanId, (byte*)&panId );
        ; Setup parameters for call to function ZMacSetReq
        MOV     DPL,?XSP + 0
        MOV     DPH,?XSP + 1
        MOV     R2,DPL
        MOV     R3,DPH
        MOV     R1,#0x50
        LCALL   ??ZMacSetReq?relay
// 1027 
// 1028   // Tune to the selected logical channel
// 1029   zll_SetChannel( channel );
        ; Setup parameters for call to function zll_SetChannel
        MOV     A,R6
        MOV     R1,A
        LCALL   ??zll_SetChannel?relay
// 1030 }
        MOV     A,#0x4
        LCALL   ?DEALLOC_XSTACK8
          CFI CFA_XSP16 add(XSP16, 9)
        LJMP    ?Subroutine5 & 0xFFFF
          CFI EndBlock cfiBlock105
// 1031 
// 1032 /*********************************************************************
// 1033  * @fn      zll_SetChannel
// 1034  *
// 1035  * @brief   Set our channel.
// 1036  *
// 1037  * @param   channel - new channel to change to
// 1038  *
// 1039  * @return  void
// 1040  */

        RSEG BANKED_CODE:CODE:NOROOT(0)
// 1041 void zll_SetChannel( uint8 channel )
zll_SetChannel:
          CFI Block cfiBlock106 Using cfiCommon0
          CFI Function zll_SetChannel
        CODE
// 1042 {
        FUNCALL zll_SetChannel, ZMacGetReq
        LOCFRAME ISTACK, 2, STACK
        LOCFRAME PSTACK, 0, STACK
        LOCFRAME XSTACK, 2, STACK
        LOCFRAME IOVERLAY, 0, STATIC
        LOCFRAME DOVERLAY, 0, STATIC
        ARGFRAME ISTACK, 2, STACK
        ARGFRAME PSTACK, 0, STACK
        ARGFRAME XSTACK, 2, STACK
        ARGFRAME IOVERLAY, 0, STATIC
        ARGFRAME DOVERLAY, 0, STATIC
        FUNCALL zll_SetChannel, ZMacSetReq
        LOCFRAME ISTACK, 2, STACK
        LOCFRAME PSTACK, 0, STACK
        LOCFRAME XSTACK, 2, STACK
        LOCFRAME IOVERLAY, 0, STATIC
        LOCFRAME DOVERLAY, 0, STATIC
        ARGFRAME ISTACK, 2, STACK
        ARGFRAME PSTACK, 0, STACK
        ARGFRAME XSTACK, 2, STACK
        ARGFRAME IOVERLAY, 0, STATIC
        ARGFRAME DOVERLAY, 0, STATIC
        PUSH    DPL
          CFI DPL0 Frame(CFA_SP, 4)
          CFI CFA_SP SP+-4
        PUSH    DPH
          CFI DPH0 Frame(CFA_SP, 5)
          CFI CFA_SP SP+-5
        ; Saved register size: 2
        ; Auto size: 2
        MOV     A,#-0x2
        LCALL   ?ALLOC_XSTACK8
          CFI CFA_XSP16 add(XSP16, 2)
        MOV     A,#0x1
        LCALL   ?XSTACK_DISP0_8
        MOV     A,R1
        LCALL   ?Subroutine20 & 0xFFFF
// 1043   uint8 curChannel;
// 1044 
// 1045   // Try to change channel
// 1046   ZMacGetReq( ZMacChannel, &curChannel );
??CrossCallReturnLabel_22:
        MOV     R1,#-0x1f
        LCALL   ??ZMacGetReq?relay
// 1047 
// 1048   if ( curChannel != channel )
        MOV     DPL,?XSP + 0
        MOV     DPH,?XSP + 1
        MOVX    A,@DPTR
        MOV     R0,A
        MOV     A,#0x1
        LCALL   ?XSTACK_DISP0_8
        MOVX    A,@DPTR
        XRL     A,R0
        JZ      ??zll_SetChannel_0
// 1049   {
// 1050     // Set the new channel
// 1051     ZMacSetReq( ZMacChannel, &channel );
        ; Setup parameters for call to function ZMacSetReq
        MOV     R2,DPL
        MOV     R3,DPH
        MOV     R1,#-0x1f
        LCALL   ??ZMacSetReq?relay
// 1052 
// 1053     // NOTE - When operating on channel 26, the transmission power may be
// 1054     //        reduced in order to comply with FCC regulations.
// 1055   }
// 1056 }
??zll_SetChannel_0:
        MOV     A,#0x2
        LJMP    ?Subroutine1 & 0xFFFF
          CFI EndBlock cfiBlock106
// 1057 
// 1058 /*********************************************************************
// 1059  * @fn      zll_SendScanRsp
// 1060  *
// 1061  * @brief   Send out a Scan Response command.
// 1062  *
// 1063  * @param   srcEP - sender's endpoint
// 1064  * @param   dstAddr - pointer to destination address struct
// 1065  * @param   transID - received transaction id
// 1066  * @param   seqNum - received sequence number
// 1067  *
// 1068  * @return  ZStatus_t
// 1069  */

        RSEG BANKED_CODE:CODE:NOROOT(0)
// 1070 ZStatus_t zll_SendScanRsp( uint8 srcEP, afAddrType_t *dstAddr, uint32 transID, uint8 seqNum )
zll_SendScanRsp:
          CFI Block cfiBlock107 Using cfiCommon0
          CFI Function zll_SendScanRsp
        CODE
// 1071 {
        FUNCALL zll_SendScanRsp, osal_mem_alloc
        LOCFRAME ISTACK, 0, STACK
        LOCFRAME PSTACK, 0, STACK
        LOCFRAME XSTACK, 22, STACK
        LOCFRAME IOVERLAY, 0, STATIC
        LOCFRAME DOVERLAY, 0, STATIC
        ARGFRAME ISTACK, 0, STACK
        ARGFRAME PSTACK, 0, STACK
        ARGFRAME XSTACK, 22, STACK
        ARGFRAME IOVERLAY, 0, STATIC
        ARGFRAME DOVERLAY, 0, STATIC
        FUNCALL zll_SendScanRsp, osal_memset
        LOCFRAME ISTACK, 0, STACK
        LOCFRAME PSTACK, 0, STACK
        LOCFRAME XSTACK, 22, STACK
        LOCFRAME IOVERLAY, 0, STATIC
        LOCFRAME DOVERLAY, 0, STATIC
        ARGFRAME ISTACK, 0, STACK
        ARGFRAME PSTACK, 0, STACK
        ARGFRAME XSTACK, 22, STACK
        ARGFRAME IOVERLAY, 0, STATIC
        ARGFRAME DOVERLAY, 0, STATIC
        FUNCALL zll_SendScanRsp, osal_start_timerEx
        LOCFRAME ISTACK, 0, STACK
        LOCFRAME PSTACK, 0, STACK
        LOCFRAME XSTACK, 26, STACK
        LOCFRAME IOVERLAY, 0, STATIC
        LOCFRAME DOVERLAY, 0, STATIC
        ARGFRAME ISTACK, 0, STACK
        ARGFRAME PSTACK, 0, STACK
        ARGFRAME XSTACK, 26, STACK
        ARGFRAME IOVERLAY, 0, STATIC
        ARGFRAME DOVERLAY, 0, STATIC
        FUNCALL zll_SendScanRsp, zll_IsValidSplitFreeRanges
        LOCFRAME ISTACK, 0, STACK
        LOCFRAME PSTACK, 0, STACK
        LOCFRAME XSTACK, 22, STACK
        LOCFRAME IOVERLAY, 0, STATIC
        LOCFRAME DOVERLAY, 0, STATIC
        ARGFRAME ISTACK, 0, STACK
        ARGFRAME PSTACK, 0, STACK
        ARGFRAME XSTACK, 22, STACK
        ARGFRAME IOVERLAY, 0, STATIC
        ARGFRAME DOVERLAY, 0, STATIC
        FUNCALL zll_SendScanRsp, osal_rand
        LOCFRAME ISTACK, 0, STACK
        LOCFRAME PSTACK, 0, STACK
        LOCFRAME XSTACK, 22, STACK
        LOCFRAME IOVERLAY, 0, STATIC
        LOCFRAME DOVERLAY, 0, STATIC
        ARGFRAME ISTACK, 0, STACK
        ARGFRAME PSTACK, 0, STACK
        ARGFRAME XSTACK, 22, STACK
        ARGFRAME IOVERLAY, 0, STATIC
        ARGFRAME DOVERLAY, 0, STATIC
        FUNCALL zll_SendScanRsp, osal_rand
        LOCFRAME ISTACK, 0, STACK
        LOCFRAME PSTACK, 0, STACK
        LOCFRAME XSTACK, 22, STACK
        LOCFRAME IOVERLAY, 0, STATIC
        LOCFRAME DOVERLAY, 0, STATIC
        ARGFRAME ISTACK, 0, STACK
        ARGFRAME PSTACK, 0, STACK
        ARGFRAME XSTACK, 22, STACK
        ARGFRAME IOVERLAY, 0, STATIC
        ARGFRAME DOVERLAY, 0, STATIC
        FUNCALL zll_SendScanRsp, zll_IsFactoryNew
        LOCFRAME ISTACK, 0, STACK
        LOCFRAME PSTACK, 0, STACK
        LOCFRAME XSTACK, 22, STACK
        LOCFRAME IOVERLAY, 0, STATIC
        LOCFRAME DOVERLAY, 0, STATIC
        ARGFRAME ISTACK, 0, STACK
        ARGFRAME PSTACK, 0, STACK
        ARGFRAME XSTACK, 22, STACK
        ARGFRAME IOVERLAY, 0, STATIC
        ARGFRAME DOVERLAY, 0, STATIC
        FUNCALL zll_SendScanRsp, sAddrExtCpy
        LOCFRAME ISTACK, 0, STACK
        LOCFRAME PSTACK, 0, STACK
        LOCFRAME XSTACK, 22, STACK
        LOCFRAME IOVERLAY, 0, STATIC
        LOCFRAME DOVERLAY, 0, STATIC
        ARGFRAME ISTACK, 0, STACK
        ARGFRAME PSTACK, 0, STACK
        ARGFRAME XSTACK, 22, STACK
        ARGFRAME IOVERLAY, 0, STATIC
        ARGFRAME DOVERLAY, 0, STATIC
        FUNCALL zll_SendScanRsp, zll_GetNumSubDevices
        LOCFRAME ISTACK, 0, STACK
        LOCFRAME PSTACK, 0, STACK
        LOCFRAME XSTACK, 22, STACK
        LOCFRAME IOVERLAY, 0, STATIC
        LOCFRAME DOVERLAY, 0, STATIC
        ARGFRAME ISTACK, 0, STACK
        ARGFRAME PSTACK, 0, STACK
        ARGFRAME XSTACK, 22, STACK
        ARGFRAME IOVERLAY, 0, STATIC
        ARGFRAME DOVERLAY, 0, STATIC
        FUNCALL zll_SendScanRsp, zll_GetSubDeviceInfo
        LOCFRAME ISTACK, 0, STACK
        LOCFRAME PSTACK, 0, STACK
        LOCFRAME XSTACK, 22, STACK
        LOCFRAME IOVERLAY, 0, STATIC
        LOCFRAME DOVERLAY, 0, STATIC
        ARGFRAME ISTACK, 0, STACK
        ARGFRAME PSTACK, 0, STACK
        ARGFRAME XSTACK, 22, STACK
        ARGFRAME IOVERLAY, 0, STATIC
        ARGFRAME DOVERLAY, 0, STATIC
        FUNCALL zll_SendScanRsp, zll_GetNumGrpIDs
        LOCFRAME ISTACK, 0, STACK
        LOCFRAME PSTACK, 0, STACK
        LOCFRAME XSTACK, 22, STACK
        LOCFRAME IOVERLAY, 0, STATIC
        LOCFRAME DOVERLAY, 0, STATIC
        ARGFRAME ISTACK, 0, STACK
        ARGFRAME PSTACK, 0, STACK
        ARGFRAME XSTACK, 22, STACK
        ARGFRAME IOVERLAY, 0, STATIC
        ARGFRAME DOVERLAY, 0, STATIC
        FUNCALL zll_SendScanRsp, zclLL_Send_ScanRsp
        LOCFRAME ISTACK, 0, STACK
        LOCFRAME PSTACK, 0, STACK
        LOCFRAME XSTACK, 23, STACK
        LOCFRAME IOVERLAY, 0, STATIC
        LOCFRAME DOVERLAY, 0, STATIC
        ARGFRAME ISTACK, 0, STACK
        ARGFRAME PSTACK, 0, STACK
        ARGFRAME XSTACK, 23, STACK
        ARGFRAME IOVERLAY, 0, STATIC
        ARGFRAME DOVERLAY, 0, STATIC
        FUNCALL zll_SendScanRsp, osal_mem_free
        LOCFRAME ISTACK, 0, STACK
        LOCFRAME PSTACK, 0, STACK
        LOCFRAME XSTACK, 22, STACK
        LOCFRAME IOVERLAY, 0, STATIC
        LOCFRAME DOVERLAY, 0, STATIC
        ARGFRAME ISTACK, 0, STACK
        ARGFRAME PSTACK, 0, STACK
        ARGFRAME XSTACK, 22, STACK
        ARGFRAME IOVERLAY, 0, STATIC
        ARGFRAME DOVERLAY, 0, STATIC
        MOV     A,#-0x16
        LCALL   ?BANKED_ENTER_XDATA
          CFI DPH0 load(1, XDATA, add(CFA_XSP16, literal(-1)))
          CFI DPL0 load(1, XDATA, add(CFA_XSP16, literal(-2)))
          CFI ?BRET_EXT load(1, XDATA, add(CFA_XSP16, literal(-3)))
          CFI ?RET_HIGH load(1, XDATA, add(CFA_XSP16, literal(-4)))
          CFI ?RET_LOW load(1, XDATA, add(CFA_XSP16, literal(-5)))
          CFI R7 load(1, XDATA, add(CFA_XSP16, literal(-6)))
          CFI V13 load(1, XDATA, add(CFA_XSP16, literal(-7)))
          CFI V12 load(1, XDATA, add(CFA_XSP16, literal(-8)))
          CFI V11 load(1, XDATA, add(CFA_XSP16, literal(-9)))
          CFI V10 load(1, XDATA, add(CFA_XSP16, literal(-10)))
          CFI V9 load(1, XDATA, add(CFA_XSP16, literal(-11)))
          CFI V8 load(1, XDATA, add(CFA_XSP16, literal(-12)))
          CFI V7 load(1, XDATA, add(CFA_XSP16, literal(-13)))
          CFI V6 load(1, XDATA, add(CFA_XSP16, literal(-14)))
          CFI V5 load(1, XDATA, add(CFA_XSP16, literal(-15)))
          CFI V4 load(1, XDATA, add(CFA_XSP16, literal(-16)))
          CFI V3 load(1, XDATA, add(CFA_XSP16, literal(-17)))
          CFI V2 load(1, XDATA, add(CFA_XSP16, literal(-18)))
          CFI V1 load(1, XDATA, add(CFA_XSP16, literal(-19)))
          CFI V0 load(1, XDATA, add(CFA_XSP16, literal(-20)))
          CFI VB load(1, XDATA, add(CFA_XSP16, literal(-21)))
          CFI R6 load(1, XDATA, add(CFA_XSP16, literal(-22)))
          CFI CFA_SP SP+0
          CFI CFA_XSP16 add(XSP16, 22)
        ; Saved register size: 22
        ; Auto size: 0
        MOV     ?V0 + 2,R1
        MOV     ?V0 + 12,R2
        MOV     ?V0 + 13,R3
        MOV     ?V0 + 3,R4
// 1072   ZStatus_t status = ZSuccess;
        MOV     ?V0 + 0,#0x0
        MOV     A,#0x16
        LCALL   ?XSTACK_DISP0_8
        MOV     R0,#?V0 + 4
        LCALL   ?L_MOV_X
// 1073 
// 1074   // Make sure we respond only once during a Device Discovery
// 1075   if ( zllLastAcceptedTransID != transID )
        MOV     DPTR,#zllLastAcceptedTransID
        MOV     R0,#?V0 + 4
        LCALL   ?L_EQ_X
        JNZ     $+5
        LJMP    ??zll_SendScanRsp_0 & 0xFFFF
// 1076   {
// 1077     zclLLScanRsp_t *pRsp;
// 1078 
// 1079     pRsp = (zclLLScanRsp_t *)osal_mem_alloc( sizeof( zclLLScanRsp_t ) );
        ; Setup parameters for call to function osal_mem_alloc
        MOV     R2,#0x26
        MOV     R3,#0x0
        LCALL   ??osal_mem_alloc?relay
        MOV     ?V0 + 0,R2
        MOV     ?V0 + 1,R3
        MOV     R6,?V0 + 0
        MOV     R7,?V0 + 1
// 1080     if ( pRsp )
        MOV     A,R6
        ORL     A,R7
        JNZ     $+5
        LJMP    ??zll_SendScanRsp_1 & 0xFFFF
// 1081     {
// 1082       osal_memset( pRsp, 0, sizeof( zclLLScanRsp_t ) );
        ; Setup parameters for call to function osal_memset
        MOV     R4,#0x26
        MOV     R5,#0x0
        MOV     R1,#0x0
        LCALL   ??osal_memset?relay
// 1083 
// 1084       // Save transaction id
// 1085       zllLastAcceptedTransID = transID;
        MOV     DPTR,#zllLastAcceptedTransID
        MOV     R0,#?V0 + 4
        LCALL   ?L_MOV_TO_X
// 1086       osal_start_timerEx( zllTaskId, ZLL_TRANS_LIFETIME_EXPIRED_EVT,
// 1087                           ZLL_APLC_INTER_PAN_TRANS_ID_LIFETIME );
        ; Setup parameters for call to function osal_start_timerEx
        MOV     DPTR,#__Constant_1f40
        LCALL   ?PUSH_XSTACK8_X_FOUR
          CFI CFA_XSP16 add(XSP16, 26)
        MOV     R2,#0x20
        MOV     R3,#0x0
        MOV     DPTR,#zllTaskId
        MOVX    A,@DPTR
        MOV     R1,A
        LCALL   ??osal_start_timerEx?relay
        MOV     A,#0x4
        LCALL   ?DEALLOC_XSTACK8
          CFI CFA_XSP16 add(XSP16, 22)
// 1088 
// 1089       pRsp->transID = transID;
        MOV     DPL,R6
        MOV     DPH,R7
        MOV     R0,#?V0 + 4
        LCALL   ?L_MOV_TO_X
// 1090       pRsp->rssiCorrection = ZLL_RSSI_CORRECTION;
        MOV     DPL,R6
        MOV     DPH,R7
        INC     DPTR
        INC     DPTR
        INC     DPTR
        INC     DPTR
        CLR     A
        MOVX    @DPTR,A
// 1091       pRsp->zLogicalType = zgDeviceLogicalType;
        MOV     A,R6
        ADD     A,#0x5
        MOV     ?V0 + 4,A
        MOV     A,R7
        ADDC    A,#0x0
        MOV     ?V0 + 5,A
        MOV     DPL,?V0 + 4
        MOV     DPH,A
        MOVX    A,@DPTR
        ANL     A,#0xfc
        MOV     R0,A
        INC     DPTR
        MOVX    A,@DPTR
        MOV     R1,A
        MOV     DPTR,#zgDeviceLogicalType
        MOVX    A,@DPTR
        ANL     A,#0x3
        MOV     R2,A
        MOV     A,R0
        ORL     A,R2
        MOV     DPL,?V0 + 4
        MOV     DPH,?V0 + 5
        LCALL   ??Subroutine37_0 & 0xFFFF
// 1092       pRsp->zllAddressAssignment = zll_IsValidSplitFreeRanges(0);
??CrossCallReturnLabel_53:
        ; Setup parameters for call to function zll_IsValidSplitFreeRanges
        MOV     R1,#0x0
        LCALL   ??zll_IsValidSplitFreeRanges?relay
        MOV     A,R1
        MOV     R0,A
        MOV     A,R6
        ADD     A,#0x7
        MOV     ?V0 + 0,A
        MOV     A,R7
        ADDC    A,#0x0
        MOV     ?V0 + 1,A
        MOV     DPL,?V0 + 0
        MOV     DPH,A
        MOVX    A,@DPTR
        ANL     A,#0xfd
        MOV     R2,A
        INC     DPTR
        MOVX    A,@DPTR
        MOV     R3,A
        MOV     A,R0
        MOV     C,0xE0 /* A   */.0
        CLR     A
        RLC     A
        RLC     A
        MOV     R0,A
        MOV     A,R2
        ORL     A,R0
        MOV     R0,A
        MOV     A,R3
        MOV     R1,A
        MOV     DPL,?V0 + 0
        MOV     DPH,?V0 + 1
        LCALL   ?Subroutine19 & 0xFFFF
// 1093       pRsp->zllLinkInitiator = zllIsInitiator;
??CrossCallReturnLabel_62:
        MOV     A,R0
        ANL     A,#0xef
        MOV     R2,A
        MOV     DPTR,#zllIsInitiator
        MOVX    A,@DPTR
        MOV     C,0xE0 /* A   */.0
        CLR     A
        RLC     A
        MOV     ?V0 + 6,A
        MOV     ?V0 + 7,#0x0
        MOV     A,#0x4
        MOV     R0,#?V0 + 6
        LCALL   ?S_SHL
        MOV     R0,?V0 + 6
        MOV     A,R2
        ORL     A,R0
        MOV     DPL,?V0 + 0
        MOV     DPH,?V0 + 1
        LCALL   ??Subroutine37_0 & 0xFFFF
// 1094 
// 1095       if ( ZDO_Config_Node_Descriptor.CapabilityFlags & CAPINFO_RCVR_ON_IDLE )
??CrossCallReturnLabel_54:
        MOV     DPTR,#ZDO_Config_Node_Descriptor + 2
        MOVX    A,@DPTR
        MOV     C,0xE0 /* A   */.3
        JNC     ??zll_SendScanRsp_2
// 1096       {
// 1097         pRsp->zRxOnWhenIdle = TRUE;
        MOV     DPL,?V0 + 4
        MOV     DPH,?V0 + 5
        MOVX    A,@DPTR
        ORL     A,#0x4
        MOVX    @DPTR,A
// 1098       }
// 1099 
// 1100       pRsp->zllLinklinkPriority = FALSE;
??zll_SendScanRsp_2:
        MOV     DPL,?V0 + 0
        MOV     DPH,?V0 + 1
        MOVX    A,@DPTR
        ANL     A,#0xdf
        LCALL   ?Subroutine21 & 0xFFFF
// 1101       pRsp->keyBitmask = zll_GetNwkKeyBitmask();
??CrossCallReturnLabel_24:
        INC     DPTR
        INC     DPTR
        INC     DPTR
        CLR     A
        MOVX    @DPTR,A
        INC     DPTR
        MOV     A,#-0x80
        MOVX    @DPTR,A
// 1102 
// 1103       // Generate a new Response ID
// 1104       zllResponseID = ( ((uint32)osal_rand()) << 16 ) + osal_rand();
        ; Setup parameters for call to function osal_rand
        LCALL   ??osal_rand?relay
        MOV     ?V0 + 8,R2
        MOV     ?V0 + 9,R3
        CLR     A
        MOV     ?V0 + 10,A
        MOV     ?V0 + 11,A
        MOV     A,#0x10
        MOV     R0,#?V0 + 8
        LCALL   ?L_SHL
        ; Setup parameters for call to function osal_rand
        LCALL   ??osal_rand?relay
        MOV     ?V0 + 4,R2
        MOV     ?V0 + 5,R3
        CLR     A
        MOV     ?V0 + 6,A
        MOV     R0,#?V0 + 8
        MOV     R1,#?V0 + 4
        LCALL   ?L_ADD
        MOV     DPTR,#zllResponseID
        MOV     A,?V0 + 8
        MOVX    @DPTR,A
        INC     DPTR
        MOV     A,?V0 + 9
        MOVX    @DPTR,A
        INC     DPTR
        MOV     A,?V0 + 10
        MOVX    @DPTR,A
        INC     DPTR
        MOV     A,?V0 + 11
        MOVX    @DPTR,A
// 1105       pRsp->responseID = zllResponseID;
        MOV     DPTR,#zllResponseID
        LCALL   ?XLOAD_R2345
        MOV     A,R6
        ADD     A,#0xb
        LCALL   ??Subroutine40_0 & 0xFFFF
??CrossCallReturnLabel_78:
        LCALL   ?XSTORE_R2345
// 1106 
// 1107       pRsp->zllFactoryNew = zll_IsFactoryNew();
        ; Setup parameters for call to function zll_IsFactoryNew
        LCALL   ??zll_IsFactoryNew?relay
        MOV     A,R1
        MOV     R2,A
        MOV     DPL,?V0 + 0
        MOV     DPH,?V0 + 1
        MOVX    A,@DPTR
        ANL     A,#0xfe
        MOV     R0,A
        INC     DPTR
        MOVX    A,@DPTR
        MOV     R1,A
        MOV     A,R2
        MOV     C,0xE0 /* A   */.0
        CLR     A
        RLC     A
        MOV     R2,A
        MOV     A,R0
        ORL     A,R2
        MOV     DPL,?V0 + 0
        MOV     DPH,?V0 + 1
        LCALL   ??Subroutine37_0 & 0xFFFF
// 1108       if ( pRsp->zllFactoryNew )
??CrossCallReturnLabel_55:
        MOV     A,R6
        ADD     A,#0x17
        MOV     R0,A
        MOV     A,R7
        ADDC    A,#0x0
        MOV     R1,A
        MOV     A,R6
        ADD     A,#0x1b
        LCALL   ?Subroutine30 & 0xFFFF
??CrossCallReturnLabel_36:
        MOVX    A,@DPTR
        MOV     C,0xE0 /* A   */.0
        JNC     ??zll_SendScanRsp_3
// 1109       {
// 1110         pRsp->nwkAddr = 0xFFFF;
        MOV     DPL,R2
        MOV     DPH,R3
        MOV     A,#-0x1
        MOVX    @DPTR,A
        INC     DPTR
        MOVX    @DPTR,A
// 1111         pRsp->nwkUpdateId = 0;
        MOV     DPL,R0
        MOV     DPH,R1
        CLR     A
        SJMP    ??zll_SendScanRsp_4
// 1112       }
// 1113       else
// 1114       {
// 1115         pRsp->nwkAddr = _NIB.nwkDevAddress;
??zll_SendScanRsp_3:
        MOV     DPTR,#_NIB + 20
        LCALL   ??Subroutine44_0 & 0xFFFF
??CrossCallReturnLabel_108:
        MOV     DPL,R2
        MOV     DPH,R3
        MOV     A,R4
        MOVX    @DPTR,A
        INC     DPTR
        MOV     A,R5
        MOVX    @DPTR,A
// 1116         pRsp->nwkUpdateId = _NIB.nwkUpdateId;
        MOV     DPTR,#_NIB + 109
        MOVX    A,@DPTR
        MOV     DPL,R0
        MOV     DPH,R1
??zll_SendScanRsp_4:
        MOVX    @DPTR,A
// 1117       }
// 1118       pRsp->PANID = _NIB.nwkPanId;
        MOV     DPTR,#_NIB + 33
        LCALL   ??Subroutine43_0 & 0xFFFF
??CrossCallReturnLabel_96:
        MOV     A,R6
        ADD     A,#0x19
        LCALL   ??Subroutine40_0 & 0xFFFF
??CrossCallReturnLabel_79:
        LCALL   ?Subroutine19 & 0xFFFF
// 1119       pRsp->logicalChannel = _NIB.nwkLogicalChannel;
??CrossCallReturnLabel_63:
        MOV     DPTR,#_NIB + 22
        MOVX    A,@DPTR
        PUSH    A
          CFI CFA_SP SP+-1
        MOV     A,R6
        ADD     A,#0x18
        LCALL   ??Subroutine40_0 & 0xFFFF
??CrossCallReturnLabel_80:
        POP     A
          CFI CFA_SP SP+0
        MOVX    @DPTR,A
// 1120       osal_cpyExtAddr( pRsp->extendedPANID, _NIB.extendedPANID );
        ; Setup parameters for call to function sAddrExtCpy
        MOV     R4,#(_NIB + 53) & 0xff
        MOV     R5,#((_NIB + 53) >> 8) & 0xff
        MOV     A,R6
        ADD     A,#0xf
        MOV     R2,A
        MOV     A,R7
        ADDC    A,#0x0
        MOV     R3,A
        LCALL   ??sAddrExtCpy?relay
// 1121 
// 1122       pRsp->numSubDevices = zll_GetNumSubDevices( 0 );
        ; Setup parameters for call to function zll_GetNumSubDevices
        MOV     R1,#0x0
        LCALL   ??zll_GetNumSubDevices?relay
        MOV     A,R1
        MOV     R0,A
        MOV     A,R6
        ADD     A,#0x1d
        LCALL   ??Subroutine40_0 & 0xFFFF
??CrossCallReturnLabel_81:
        MOV     A,R0
        MOVX    @DPTR,A
// 1123       if ( pRsp->numSubDevices == 1 )
        MOV     A,#0x1
        XRL     A,R0
        JNZ     ??zll_SendScanRsp_5
// 1124       {
// 1125         zll_GetSubDeviceInfo( 0, &(pRsp->deviceInfo) );
        ; Setup parameters for call to function zll_GetSubDeviceInfo
        MOV     A,R6
        ADD     A,#0x1f
        MOV     R2,A
        MOV     A,R7
        ADDC    A,#0x0
        MOV     R3,A
        MOV     R1,#0x0
        LCALL   ??zll_GetSubDeviceInfo?relay
// 1126       }
// 1127 
// 1128       pRsp->totalGrpIDs = zll_GetNumGrpIDs();
??zll_SendScanRsp_5:
        ; Setup parameters for call to function zll_GetNumGrpIDs
        LCALL   ??zll_GetNumGrpIDs?relay
        MOV     A,R6
        ADD     A,#0x1e
        LCALL   ??Subroutine40_0 & 0xFFFF
??CrossCallReturnLabel_82:
        MOV     A,R1
        MOVX    @DPTR,A
// 1129 
// 1130       // Send a response back
// 1131       status = zclLL_Send_ScanRsp( srcEP, dstAddr, pRsp, seqNum );
        ; Setup parameters for call to function zclLL_Send_ScanRsp
        MOV     A,?V0 + 3
        MOV     ?V0 + 0,A
        MOV     R0,#?V0 + 0
        LCALL   ?PUSH_XSTACK_I_ONE
          CFI CFA_XSP16 add(XSP16, 23)
        MOV     A,R6
        MOV     R4,A
        MOV     A,R7
        MOV     R5,A
        MOV     R2,?V0 + 12
        MOV     R3,?V0 + 13
        MOV     R1,?V0 + 2
        LCALL   ??zclLL_Send_ScanRsp?relay
        MOV     A,#0x1
        LCALL   ?DEALLOC_XSTACK8
          CFI CFA_XSP16 add(XSP16, 22)
        MOV     A,R1
        MOV     ?V0 + 0,A
// 1132 
// 1133       osal_mem_free( pRsp );
        ; Setup parameters for call to function osal_mem_free
        MOV     A,R6
        MOV     R2,A
        MOV     A,R7
        MOV     R3,A
        LCALL   ??osal_mem_free?relay
        SJMP    ??zll_SendScanRsp_0
// 1134     }
// 1135     else
// 1136     {
// 1137       status = ZMemError;
??zll_SendScanRsp_1:
        MOV     ?V0 + 0,#0x10
// 1138     }
// 1139   }
// 1140 
// 1141   return ( status );
??zll_SendScanRsp_0:
        MOV     R1,?V0 + 0
        LJMP    ?Subroutine2 & 0xFFFF
          CFI EndBlock cfiBlock107
// 1142 }

        RSEG BANKED_CODE:CODE:NOROOT(0)
?Subroutine29:
          CFI Block cfiCond108 Using cfiCommon0
          CFI Function zll_GenerateRandNum
          CFI Conditional ??CrossCallReturnLabel_90
          CFI R6 load(1, XDATA, add(CFA_XSP16, literal(-13)))
          CFI VB load(1, XDATA, add(CFA_XSP16, literal(-12)))
          CFI V0 load(1, XDATA, add(CFA_XSP16, literal(-11)))
          CFI V1 load(1, XDATA, add(CFA_XSP16, literal(-10)))
          CFI V2 load(1, XDATA, add(CFA_XSP16, literal(-9)))
          CFI V3 load(1, XDATA, add(CFA_XSP16, literal(-8)))
          CFI V4 load(1, XDATA, add(CFA_XSP16, literal(-7)))
          CFI R7 load(1, XDATA, add(CFA_XSP16, literal(-6)))
          CFI ?RET_LOW load(1, XDATA, add(CFA_XSP16, literal(-5)))
          CFI ?RET_HIGH load(1, XDATA, add(CFA_XSP16, literal(-4)))
          CFI ?BRET_EXT load(1, XDATA, add(CFA_XSP16, literal(-3)))
          CFI DPL0 load(1, XDATA, add(CFA_XSP16, literal(-2)))
          CFI DPH0 load(1, XDATA, add(CFA_XSP16, literal(-1)))
          CFI CFA_SP SP+0
          CFI CFA_XSP16 add(XSP16, 13)
          CFI Block cfiCond109 Using cfiCommon0
          CFI (cfiCond109) Function zll_GenerateRandNum
          CFI (cfiCond109) Conditional ??CrossCallReturnLabel_91
          CFI (cfiCond109) R6 load(1, XDATA, add(CFA_XSP16, literal(-13)))
          CFI (cfiCond109) VB load(1, XDATA, add(CFA_XSP16, literal(-12)))
          CFI (cfiCond109) V0 load(1, XDATA, add(CFA_XSP16, literal(-11)))
          CFI (cfiCond109) V1 load(1, XDATA, add(CFA_XSP16, literal(-10)))
          CFI (cfiCond109) V2 load(1, XDATA, add(CFA_XSP16, literal(-9)))
          CFI (cfiCond109) V3 load(1, XDATA, add(CFA_XSP16, literal(-8)))
          CFI (cfiCond109) V4 load(1, XDATA, add(CFA_XSP16, literal(-7)))
          CFI (cfiCond109) R7 load(1, XDATA, add(CFA_XSP16, literal(-6)))
          CFI (cfiCond109) ?RET_LOW load(1, XDATA, add(CFA_XSP16, literal(-5)))
          CFI (cfiCond109) ?RET_HIGH load(1, XDATA, add(CFA_XSP16, literal(-4)))
          CFI (cfiCond109) ?BRET_EXT load(1, XDATA, add(CFA_XSP16, literal(-3)))
          CFI (cfiCond109) DPL0 load(1, XDATA, add(CFA_XSP16, literal(-2)))
          CFI (cfiCond109) DPH0 load(1, XDATA, add(CFA_XSP16, literal(-1)))
          CFI (cfiCond109) CFA_SP SP+0
          CFI (cfiCond109) CFA_XSP16 add(XSP16, 13)
          CFI Block cfiPicker110 Using cfiCommon1
          CFI (cfiPicker110) NoFunction
          CFI (cfiPicker110) Picker
        MOV     A,R6
        ADD     A,?V0 + 0
          CFI EndBlock cfiCond108
          CFI EndBlock cfiCond109
          CFI EndBlock cfiPicker110
        REQUIRE ??Subroutine40_0
        ; // Fall through to label ??Subroutine40_0

        RSEG BANKED_CODE:CODE:NOROOT(0)
??Subroutine40_0:
          CFI Block cfiCond111 Using cfiCommon0
          CFI Function zll_SendScanRsp
          CFI Conditional ??CrossCallReturnLabel_78
          CFI R6 load(1, XDATA, add(CFA_XSP16, literal(-22)))
          CFI VB load(1, XDATA, add(CFA_XSP16, literal(-21)))
          CFI V0 load(1, XDATA, add(CFA_XSP16, literal(-20)))
          CFI V1 load(1, XDATA, add(CFA_XSP16, literal(-19)))
          CFI V2 load(1, XDATA, add(CFA_XSP16, literal(-18)))
          CFI V3 load(1, XDATA, add(CFA_XSP16, literal(-17)))
          CFI V4 load(1, XDATA, add(CFA_XSP16, literal(-16)))
          CFI V5 load(1, XDATA, add(CFA_XSP16, literal(-15)))
          CFI V6 load(1, XDATA, add(CFA_XSP16, literal(-14)))
          CFI V7 load(1, XDATA, add(CFA_XSP16, literal(-13)))
          CFI V8 load(1, XDATA, add(CFA_XSP16, literal(-12)))
          CFI V9 load(1, XDATA, add(CFA_XSP16, literal(-11)))
          CFI V10 load(1, XDATA, add(CFA_XSP16, literal(-10)))
          CFI V11 load(1, XDATA, add(CFA_XSP16, literal(-9)))
          CFI V12 load(1, XDATA, add(CFA_XSP16, literal(-8)))
          CFI V13 load(1, XDATA, add(CFA_XSP16, literal(-7)))
          CFI R7 load(1, XDATA, add(CFA_XSP16, literal(-6)))
          CFI ?RET_LOW load(1, XDATA, add(CFA_XSP16, literal(-5)))
          CFI ?RET_HIGH load(1, XDATA, add(CFA_XSP16, literal(-4)))
          CFI ?BRET_EXT load(1, XDATA, add(CFA_XSP16, literal(-3)))
          CFI DPL0 load(1, XDATA, add(CFA_XSP16, literal(-2)))
          CFI DPH0 load(1, XDATA, add(CFA_XSP16, literal(-1)))
          CFI CFA_SP SP+0
          CFI CFA_XSP16 add(XSP16, 22)
          CFI Block cfiCond112 Using cfiCommon0
          CFI (cfiCond112) Function zll_SendScanRsp
          CFI (cfiCond112) Conditional ??CrossCallReturnLabel_79
          CFI (cfiCond112) R6 load(1, XDATA, add(CFA_XSP16, literal(-22)))
          CFI (cfiCond112) VB load(1, XDATA, add(CFA_XSP16, literal(-21)))
          CFI (cfiCond112) V0 load(1, XDATA, add(CFA_XSP16, literal(-20)))
          CFI (cfiCond112) V1 load(1, XDATA, add(CFA_XSP16, literal(-19)))
          CFI (cfiCond112) V2 load(1, XDATA, add(CFA_XSP16, literal(-18)))
          CFI (cfiCond112) V3 load(1, XDATA, add(CFA_XSP16, literal(-17)))
          CFI (cfiCond112) V4 load(1, XDATA, add(CFA_XSP16, literal(-16)))
          CFI (cfiCond112) V5 load(1, XDATA, add(CFA_XSP16, literal(-15)))
          CFI (cfiCond112) V6 load(1, XDATA, add(CFA_XSP16, literal(-14)))
          CFI (cfiCond112) V7 load(1, XDATA, add(CFA_XSP16, literal(-13)))
          CFI (cfiCond112) V8 load(1, XDATA, add(CFA_XSP16, literal(-12)))
          CFI (cfiCond112) V9 load(1, XDATA, add(CFA_XSP16, literal(-11)))
          CFI (cfiCond112) V10 load(1, XDATA, add(CFA_XSP16, literal(-10)))
          CFI (cfiCond112) V11 load(1, XDATA, add(CFA_XSP16, literal(-9)))
          CFI (cfiCond112) V12 load(1, XDATA, add(CFA_XSP16, literal(-8)))
          CFI (cfiCond112) V13 load(1, XDATA, add(CFA_XSP16, literal(-7)))
          CFI (cfiCond112) R7 load(1, XDATA, add(CFA_XSP16, literal(-6)))
          CFI (cfiCond112) ?RET_LOW load(1, XDATA, add(CFA_XSP16, literal(-5)))
          CFI (cfiCond112) ?RET_HIGH load(1, XDATA, add(CFA_XSP16, literal(-4)))
          CFI (cfiCond112) ?BRET_EXT load(1, XDATA, add(CFA_XSP16, literal(-3)))
          CFI (cfiCond112) DPL0 load(1, XDATA, add(CFA_XSP16, literal(-2)))
          CFI (cfiCond112) DPH0 load(1, XDATA, add(CFA_XSP16, literal(-1)))
          CFI (cfiCond112) CFA_SP SP+0
          CFI (cfiCond112) CFA_XSP16 add(XSP16, 22)
          CFI Block cfiCond113 Using cfiCommon0
          CFI (cfiCond113) Function zll_SendScanRsp
          CFI (cfiCond113) Conditional ??CrossCallReturnLabel_80
          CFI (cfiCond113) R6 load(1, XDATA, add(CFA_XSP16, literal(-22)))
          CFI (cfiCond113) VB load(1, XDATA, add(CFA_XSP16, literal(-21)))
          CFI (cfiCond113) V0 load(1, XDATA, add(CFA_XSP16, literal(-20)))
          CFI (cfiCond113) V1 load(1, XDATA, add(CFA_XSP16, literal(-19)))
          CFI (cfiCond113) V2 load(1, XDATA, add(CFA_XSP16, literal(-18)))
          CFI (cfiCond113) V3 load(1, XDATA, add(CFA_XSP16, literal(-17)))
          CFI (cfiCond113) V4 load(1, XDATA, add(CFA_XSP16, literal(-16)))
          CFI (cfiCond113) V5 load(1, XDATA, add(CFA_XSP16, literal(-15)))
          CFI (cfiCond113) V6 load(1, XDATA, add(CFA_XSP16, literal(-14)))
          CFI (cfiCond113) V7 load(1, XDATA, add(CFA_XSP16, literal(-13)))
          CFI (cfiCond113) V8 load(1, XDATA, add(CFA_XSP16, literal(-12)))
          CFI (cfiCond113) V9 load(1, XDATA, add(CFA_XSP16, literal(-11)))
          CFI (cfiCond113) V10 load(1, XDATA, add(CFA_XSP16, literal(-10)))
          CFI (cfiCond113) V11 load(1, XDATA, add(CFA_XSP16, literal(-9)))
          CFI (cfiCond113) V12 load(1, XDATA, add(CFA_XSP16, literal(-8)))
          CFI (cfiCond113) V13 load(1, XDATA, add(CFA_XSP16, literal(-7)))
          CFI (cfiCond113) R7 load(1, XDATA, add(CFA_XSP16, literal(-6)))
          CFI (cfiCond113) ?RET_LOW load(1, XDATA, add(CFA_XSP16, literal(-5)))
          CFI (cfiCond113) ?RET_HIGH load(1, XDATA, add(CFA_XSP16, literal(-4)))
          CFI (cfiCond113) ?BRET_EXT load(1, XDATA, add(CFA_XSP16, literal(-3)))
          CFI (cfiCond113) DPL0 load(1, XDATA, add(CFA_XSP16, literal(-2)))
          CFI (cfiCond113) DPH0 load(1, XDATA, add(CFA_XSP16, literal(-1)))
          CFI (cfiCond113) CFA_SP SP+-1
          CFI (cfiCond113) CFA_XSP16 add(XSP16, 22)
          CFI Block cfiCond114 Using cfiCommon0
          CFI (cfiCond114) Function zll_SendScanRsp
          CFI (cfiCond114) Conditional ??CrossCallReturnLabel_81
          CFI (cfiCond114) R6 load(1, XDATA, add(CFA_XSP16, literal(-22)))
          CFI (cfiCond114) VB load(1, XDATA, add(CFA_XSP16, literal(-21)))
          CFI (cfiCond114) V0 load(1, XDATA, add(CFA_XSP16, literal(-20)))
          CFI (cfiCond114) V1 load(1, XDATA, add(CFA_XSP16, literal(-19)))
          CFI (cfiCond114) V2 load(1, XDATA, add(CFA_XSP16, literal(-18)))
          CFI (cfiCond114) V3 load(1, XDATA, add(CFA_XSP16, literal(-17)))
          CFI (cfiCond114) V4 load(1, XDATA, add(CFA_XSP16, literal(-16)))
          CFI (cfiCond114) V5 load(1, XDATA, add(CFA_XSP16, literal(-15)))
          CFI (cfiCond114) V6 load(1, XDATA, add(CFA_XSP16, literal(-14)))
          CFI (cfiCond114) V7 load(1, XDATA, add(CFA_XSP16, literal(-13)))
          CFI (cfiCond114) V8 load(1, XDATA, add(CFA_XSP16, literal(-12)))
          CFI (cfiCond114) V9 load(1, XDATA, add(CFA_XSP16, literal(-11)))
          CFI (cfiCond114) V10 load(1, XDATA, add(CFA_XSP16, literal(-10)))
          CFI (cfiCond114) V11 load(1, XDATA, add(CFA_XSP16, literal(-9)))
          CFI (cfiCond114) V12 load(1, XDATA, add(CFA_XSP16, literal(-8)))
          CFI (cfiCond114) V13 load(1, XDATA, add(CFA_XSP16, literal(-7)))
          CFI (cfiCond114) R7 load(1, XDATA, add(CFA_XSP16, literal(-6)))
          CFI (cfiCond114) ?RET_LOW load(1, XDATA, add(CFA_XSP16, literal(-5)))
          CFI (cfiCond114) ?RET_HIGH load(1, XDATA, add(CFA_XSP16, literal(-4)))
          CFI (cfiCond114) ?BRET_EXT load(1, XDATA, add(CFA_XSP16, literal(-3)))
          CFI (cfiCond114) DPL0 load(1, XDATA, add(CFA_XSP16, literal(-2)))
          CFI (cfiCond114) DPH0 load(1, XDATA, add(CFA_XSP16, literal(-1)))
          CFI (cfiCond114) CFA_SP SP+0
          CFI (cfiCond114) CFA_XSP16 add(XSP16, 22)
          CFI Block cfiCond115 Using cfiCommon0
          CFI (cfiCond115) Function zll_SendScanRsp
          CFI (cfiCond115) Conditional ??CrossCallReturnLabel_82
          CFI (cfiCond115) R6 load(1, XDATA, add(CFA_XSP16, literal(-22)))
          CFI (cfiCond115) VB load(1, XDATA, add(CFA_XSP16, literal(-21)))
          CFI (cfiCond115) V0 load(1, XDATA, add(CFA_XSP16, literal(-20)))
          CFI (cfiCond115) V1 load(1, XDATA, add(CFA_XSP16, literal(-19)))
          CFI (cfiCond115) V2 load(1, XDATA, add(CFA_XSP16, literal(-18)))
          CFI (cfiCond115) V3 load(1, XDATA, add(CFA_XSP16, literal(-17)))
          CFI (cfiCond115) V4 load(1, XDATA, add(CFA_XSP16, literal(-16)))
          CFI (cfiCond115) V5 load(1, XDATA, add(CFA_XSP16, literal(-15)))
          CFI (cfiCond115) V6 load(1, XDATA, add(CFA_XSP16, literal(-14)))
          CFI (cfiCond115) V7 load(1, XDATA, add(CFA_XSP16, literal(-13)))
          CFI (cfiCond115) V8 load(1, XDATA, add(CFA_XSP16, literal(-12)))
          CFI (cfiCond115) V9 load(1, XDATA, add(CFA_XSP16, literal(-11)))
          CFI (cfiCond115) V10 load(1, XDATA, add(CFA_XSP16, literal(-10)))
          CFI (cfiCond115) V11 load(1, XDATA, add(CFA_XSP16, literal(-9)))
          CFI (cfiCond115) V12 load(1, XDATA, add(CFA_XSP16, literal(-8)))
          CFI (cfiCond115) V13 load(1, XDATA, add(CFA_XSP16, literal(-7)))
          CFI (cfiCond115) R7 load(1, XDATA, add(CFA_XSP16, literal(-6)))
          CFI (cfiCond115) ?RET_LOW load(1, XDATA, add(CFA_XSP16, literal(-5)))
          CFI (cfiCond115) ?RET_HIGH load(1, XDATA, add(CFA_XSP16, literal(-4)))
          CFI (cfiCond115) ?BRET_EXT load(1, XDATA, add(CFA_XSP16, literal(-3)))
          CFI (cfiCond115) DPL0 load(1, XDATA, add(CFA_XSP16, literal(-2)))
          CFI (cfiCond115) DPH0 load(1, XDATA, add(CFA_XSP16, literal(-1)))
          CFI (cfiCond115) CFA_SP SP+0
          CFI (cfiCond115) CFA_XSP16 add(XSP16, 22)
          CFI Block cfiCond116 Using cfiCommon0
          CFI (cfiCond116) Function zll_BeaconIndCB
          CFI (cfiCond116) Conditional ??CrossCallReturnLabel_83
          CFI (cfiCond116) R6 load(1, XDATA, add(CFA_XSP16, literal(-20)))
          CFI (cfiCond116) VB load(1, XDATA, add(CFA_XSP16, literal(-19)))
          CFI (cfiCond116) V0 load(1, XDATA, add(CFA_XSP16, literal(-18)))
          CFI (cfiCond116) V1 load(1, XDATA, add(CFA_XSP16, literal(-17)))
          CFI (cfiCond116) V2 load(1, XDATA, add(CFA_XSP16, literal(-16)))
          CFI (cfiCond116) V3 load(1, XDATA, add(CFA_XSP16, literal(-15)))
          CFI (cfiCond116) V4 load(1, XDATA, add(CFA_XSP16, literal(-14)))
          CFI (cfiCond116) V5 load(1, XDATA, add(CFA_XSP16, literal(-13)))
          CFI (cfiCond116) V6 load(1, XDATA, add(CFA_XSP16, literal(-12)))
          CFI (cfiCond116) V7 load(1, XDATA, add(CFA_XSP16, literal(-11)))
          CFI (cfiCond116) V8 load(1, XDATA, add(CFA_XSP16, literal(-10)))
          CFI (cfiCond116) V9 load(1, XDATA, add(CFA_XSP16, literal(-9)))
          CFI (cfiCond116) V10 load(1, XDATA, add(CFA_XSP16, literal(-8)))
          CFI (cfiCond116) V11 load(1, XDATA, add(CFA_XSP16, literal(-7)))
          CFI (cfiCond116) R7 load(1, XDATA, add(CFA_XSP16, literal(-6)))
          CFI (cfiCond116) ?RET_LOW load(1, XDATA, add(CFA_XSP16, literal(-5)))
          CFI (cfiCond116) ?RET_HIGH load(1, XDATA, add(CFA_XSP16, literal(-4)))
          CFI (cfiCond116) ?BRET_EXT load(1, XDATA, add(CFA_XSP16, literal(-3)))
          CFI (cfiCond116) DPL0 load(1, XDATA, add(CFA_XSP16, literal(-2)))
          CFI (cfiCond116) DPH0 load(1, XDATA, add(CFA_XSP16, literal(-1)))
          CFI (cfiCond116) CFA_SP SP+0
          CFI (cfiCond116) CFA_XSP16 add(XSP16, 20)
          CFI Block cfiCond117 Using cfiCommon0
          CFI (cfiCond117) Function zll_BeaconIndCB
          CFI (cfiCond117) Conditional ??CrossCallReturnLabel_84
          CFI (cfiCond117) R6 load(1, XDATA, add(CFA_XSP16, literal(-20)))
          CFI (cfiCond117) VB load(1, XDATA, add(CFA_XSP16, literal(-19)))
          CFI (cfiCond117) V0 load(1, XDATA, add(CFA_XSP16, literal(-18)))
          CFI (cfiCond117) V1 load(1, XDATA, add(CFA_XSP16, literal(-17)))
          CFI (cfiCond117) V2 load(1, XDATA, add(CFA_XSP16, literal(-16)))
          CFI (cfiCond117) V3 load(1, XDATA, add(CFA_XSP16, literal(-15)))
          CFI (cfiCond117) V4 load(1, XDATA, add(CFA_XSP16, literal(-14)))
          CFI (cfiCond117) V5 load(1, XDATA, add(CFA_XSP16, literal(-13)))
          CFI (cfiCond117) V6 load(1, XDATA, add(CFA_XSP16, literal(-12)))
          CFI (cfiCond117) V7 load(1, XDATA, add(CFA_XSP16, literal(-11)))
          CFI (cfiCond117) V8 load(1, XDATA, add(CFA_XSP16, literal(-10)))
          CFI (cfiCond117) V9 load(1, XDATA, add(CFA_XSP16, literal(-9)))
          CFI (cfiCond117) V10 load(1, XDATA, add(CFA_XSP16, literal(-8)))
          CFI (cfiCond117) V11 load(1, XDATA, add(CFA_XSP16, literal(-7)))
          CFI (cfiCond117) R7 load(1, XDATA, add(CFA_XSP16, literal(-6)))
          CFI (cfiCond117) ?RET_LOW load(1, XDATA, add(CFA_XSP16, literal(-5)))
          CFI (cfiCond117) ?RET_HIGH load(1, XDATA, add(CFA_XSP16, literal(-4)))
          CFI (cfiCond117) ?BRET_EXT load(1, XDATA, add(CFA_XSP16, literal(-3)))
          CFI (cfiCond117) DPL0 load(1, XDATA, add(CFA_XSP16, literal(-2)))
          CFI (cfiCond117) DPH0 load(1, XDATA, add(CFA_XSP16, literal(-1)))
          CFI (cfiCond117) CFA_SP SP+0
          CFI (cfiCond117) CFA_XSP16 add(XSP16, 20)
          CFI Block cfiCond118 Using cfiCommon0
          CFI (cfiCond118) Function zll_BeaconIndCB
          CFI (cfiCond118) Conditional ??CrossCallReturnLabel_85
          CFI (cfiCond118) R6 load(1, XDATA, add(CFA_XSP16, literal(-20)))
          CFI (cfiCond118) VB load(1, XDATA, add(CFA_XSP16, literal(-19)))
          CFI (cfiCond118) V0 load(1, XDATA, add(CFA_XSP16, literal(-18)))
          CFI (cfiCond118) V1 load(1, XDATA, add(CFA_XSP16, literal(-17)))
          CFI (cfiCond118) V2 load(1, XDATA, add(CFA_XSP16, literal(-16)))
          CFI (cfiCond118) V3 load(1, XDATA, add(CFA_XSP16, literal(-15)))
          CFI (cfiCond118) V4 load(1, XDATA, add(CFA_XSP16, literal(-14)))
          CFI (cfiCond118) V5 load(1, XDATA, add(CFA_XSP16, literal(-13)))
          CFI (cfiCond118) V6 load(1, XDATA, add(CFA_XSP16, literal(-12)))
          CFI (cfiCond118) V7 load(1, XDATA, add(CFA_XSP16, literal(-11)))
          CFI (cfiCond118) V8 load(1, XDATA, add(CFA_XSP16, literal(-10)))
          CFI (cfiCond118) V9 load(1, XDATA, add(CFA_XSP16, literal(-9)))
          CFI (cfiCond118) V10 load(1, XDATA, add(CFA_XSP16, literal(-8)))
          CFI (cfiCond118) V11 load(1, XDATA, add(CFA_XSP16, literal(-7)))
          CFI (cfiCond118) R7 load(1, XDATA, add(CFA_XSP16, literal(-6)))
          CFI (cfiCond118) ?RET_LOW load(1, XDATA, add(CFA_XSP16, literal(-5)))
          CFI (cfiCond118) ?RET_HIGH load(1, XDATA, add(CFA_XSP16, literal(-4)))
          CFI (cfiCond118) ?BRET_EXT load(1, XDATA, add(CFA_XSP16, literal(-3)))
          CFI (cfiCond118) DPL0 load(1, XDATA, add(CFA_XSP16, literal(-2)))
          CFI (cfiCond118) DPH0 load(1, XDATA, add(CFA_XSP16, literal(-1)))
          CFI (cfiCond118) CFA_SP SP+0
          CFI (cfiCond118) CFA_XSP16 add(XSP16, 20)
          CFI Block cfiCond119 Using cfiCommon0
          CFI (cfiCond119) Function zll_BeaconIndCB
          CFI (cfiCond119) Conditional ??CrossCallReturnLabel_86
          CFI (cfiCond119) R6 load(1, XDATA, add(CFA_XSP16, literal(-20)))
          CFI (cfiCond119) VB load(1, XDATA, add(CFA_XSP16, literal(-19)))
          CFI (cfiCond119) V0 load(1, XDATA, add(CFA_XSP16, literal(-18)))
          CFI (cfiCond119) V1 load(1, XDATA, add(CFA_XSP16, literal(-17)))
          CFI (cfiCond119) V2 load(1, XDATA, add(CFA_XSP16, literal(-16)))
          CFI (cfiCond119) V3 load(1, XDATA, add(CFA_XSP16, literal(-15)))
          CFI (cfiCond119) V4 load(1, XDATA, add(CFA_XSP16, literal(-14)))
          CFI (cfiCond119) V5 load(1, XDATA, add(CFA_XSP16, literal(-13)))
          CFI (cfiCond119) V6 load(1, XDATA, add(CFA_XSP16, literal(-12)))
          CFI (cfiCond119) V7 load(1, XDATA, add(CFA_XSP16, literal(-11)))
          CFI (cfiCond119) V8 load(1, XDATA, add(CFA_XSP16, literal(-10)))
          CFI (cfiCond119) V9 load(1, XDATA, add(CFA_XSP16, literal(-9)))
          CFI (cfiCond119) V10 load(1, XDATA, add(CFA_XSP16, literal(-8)))
          CFI (cfiCond119) V11 load(1, XDATA, add(CFA_XSP16, literal(-7)))
          CFI (cfiCond119) R7 load(1, XDATA, add(CFA_XSP16, literal(-6)))
          CFI (cfiCond119) ?RET_LOW load(1, XDATA, add(CFA_XSP16, literal(-5)))
          CFI (cfiCond119) ?RET_HIGH load(1, XDATA, add(CFA_XSP16, literal(-4)))
          CFI (cfiCond119) ?BRET_EXT load(1, XDATA, add(CFA_XSP16, literal(-3)))
          CFI (cfiCond119) DPL0 load(1, XDATA, add(CFA_XSP16, literal(-2)))
          CFI (cfiCond119) DPH0 load(1, XDATA, add(CFA_XSP16, literal(-1)))
          CFI (cfiCond119) CFA_SP SP+0
          CFI (cfiCond119) CFA_XSP16 add(XSP16, 20)
          CFI Block cfiCond120 Using cfiCommon0
          CFI (cfiCond120) Function zll_BeaconIndCB
          CFI (cfiCond120) Conditional ??CrossCallReturnLabel_87
          CFI (cfiCond120) R6 load(1, XDATA, add(CFA_XSP16, literal(-20)))
          CFI (cfiCond120) VB load(1, XDATA, add(CFA_XSP16, literal(-19)))
          CFI (cfiCond120) V0 load(1, XDATA, add(CFA_XSP16, literal(-18)))
          CFI (cfiCond120) V1 load(1, XDATA, add(CFA_XSP16, literal(-17)))
          CFI (cfiCond120) V2 load(1, XDATA, add(CFA_XSP16, literal(-16)))
          CFI (cfiCond120) V3 load(1, XDATA, add(CFA_XSP16, literal(-15)))
          CFI (cfiCond120) V4 load(1, XDATA, add(CFA_XSP16, literal(-14)))
          CFI (cfiCond120) V5 load(1, XDATA, add(CFA_XSP16, literal(-13)))
          CFI (cfiCond120) V6 load(1, XDATA, add(CFA_XSP16, literal(-12)))
          CFI (cfiCond120) V7 load(1, XDATA, add(CFA_XSP16, literal(-11)))
          CFI (cfiCond120) V8 load(1, XDATA, add(CFA_XSP16, literal(-10)))
          CFI (cfiCond120) V9 load(1, XDATA, add(CFA_XSP16, literal(-9)))
          CFI (cfiCond120) V10 load(1, XDATA, add(CFA_XSP16, literal(-8)))
          CFI (cfiCond120) V11 load(1, XDATA, add(CFA_XSP16, literal(-7)))
          CFI (cfiCond120) R7 load(1, XDATA, add(CFA_XSP16, literal(-6)))
          CFI (cfiCond120) ?RET_LOW load(1, XDATA, add(CFA_XSP16, literal(-5)))
          CFI (cfiCond120) ?RET_HIGH load(1, XDATA, add(CFA_XSP16, literal(-4)))
          CFI (cfiCond120) ?BRET_EXT load(1, XDATA, add(CFA_XSP16, literal(-3)))
          CFI (cfiCond120) DPL0 load(1, XDATA, add(CFA_XSP16, literal(-2)))
          CFI (cfiCond120) DPH0 load(1, XDATA, add(CFA_XSP16, literal(-1)))
          CFI (cfiCond120) CFA_SP SP+0
          CFI (cfiCond120) CFA_XSP16 add(XSP16, 20)
          CFI Block cfiCond121 Using cfiCommon0
          CFI (cfiCond121) Function zll_RouterProcessZDOMsg
          CFI (cfiCond121) Conditional ??CrossCallReturnLabel_88
          CFI (cfiCond121) R6 load(1, XDATA, add(CFA_XSP16, literal(-10)))
          CFI (cfiCond121) VB load(1, XDATA, add(CFA_XSP16, literal(-9)))
          CFI (cfiCond121) V0 load(1, XDATA, add(CFA_XSP16, literal(-8)))
          CFI (cfiCond121) V1 load(1, XDATA, add(CFA_XSP16, literal(-7)))
          CFI (cfiCond121) R7 load(1, XDATA, add(CFA_XSP16, literal(-6)))
          CFI (cfiCond121) ?RET_LOW load(1, XDATA, add(CFA_XSP16, literal(-5)))
          CFI (cfiCond121) ?RET_HIGH load(1, XDATA, add(CFA_XSP16, literal(-4)))
          CFI (cfiCond121) ?BRET_EXT load(1, XDATA, add(CFA_XSP16, literal(-3)))
          CFI (cfiCond121) DPL0 load(1, XDATA, add(CFA_XSP16, literal(-2)))
          CFI (cfiCond121) DPH0 load(1, XDATA, add(CFA_XSP16, literal(-1)))
          CFI (cfiCond121) CFA_SP SP+0
          CFI (cfiCond121) CFA_XSP16 add(XSP16, 22)
          CFI Block cfiCond122 Using cfiCommon0
          CFI (cfiCond122) Function zll_RouterProcessZDOMsg
          CFI (cfiCond122) Conditional ??CrossCallReturnLabel_89
          CFI (cfiCond122) R6 load(1, XDATA, add(CFA_XSP16, literal(-10)))
          CFI (cfiCond122) VB load(1, XDATA, add(CFA_XSP16, literal(-9)))
          CFI (cfiCond122) V0 load(1, XDATA, add(CFA_XSP16, literal(-8)))
          CFI (cfiCond122) V1 load(1, XDATA, add(CFA_XSP16, literal(-7)))
          CFI (cfiCond122) R7 load(1, XDATA, add(CFA_XSP16, literal(-6)))
          CFI (cfiCond122) ?RET_LOW load(1, XDATA, add(CFA_XSP16, literal(-5)))
          CFI (cfiCond122) ?RET_HIGH load(1, XDATA, add(CFA_XSP16, literal(-4)))
          CFI (cfiCond122) ?BRET_EXT load(1, XDATA, add(CFA_XSP16, literal(-3)))
          CFI (cfiCond122) DPL0 load(1, XDATA, add(CFA_XSP16, literal(-2)))
          CFI (cfiCond122) DPH0 load(1, XDATA, add(CFA_XSP16, literal(-1)))
          CFI (cfiCond122) CFA_SP SP+0
          CFI (cfiCond122) CFA_XSP16 add(XSP16, 22)
          CFI Block cfiCond123 Using cfiCommon0
          CFI (cfiCond123) Function zll_GenerateRandNum
          CFI (cfiCond123) Conditional ??CrossCallReturnLabel_90
          CFI (cfiCond123) R6 load(1, XDATA, add(CFA_XSP16, literal(-13)))
          CFI (cfiCond123) VB load(1, XDATA, add(CFA_XSP16, literal(-12)))
          CFI (cfiCond123) V0 load(1, XDATA, add(CFA_XSP16, literal(-11)))
          CFI (cfiCond123) V1 load(1, XDATA, add(CFA_XSP16, literal(-10)))
          CFI (cfiCond123) V2 load(1, XDATA, add(CFA_XSP16, literal(-9)))
          CFI (cfiCond123) V3 load(1, XDATA, add(CFA_XSP16, literal(-8)))
          CFI (cfiCond123) V4 load(1, XDATA, add(CFA_XSP16, literal(-7)))
          CFI (cfiCond123) R7 load(1, XDATA, add(CFA_XSP16, literal(-6)))
          CFI (cfiCond123) ?RET_LOW load(1, XDATA, add(CFA_XSP16, literal(-5)))
          CFI (cfiCond123) ?RET_HIGH load(1, XDATA, add(CFA_XSP16, literal(-4)))
          CFI (cfiCond123) ?BRET_EXT load(1, XDATA, add(CFA_XSP16, literal(-3)))
          CFI (cfiCond123) DPL0 load(1, XDATA, add(CFA_XSP16, literal(-2)))
          CFI (cfiCond123) DPH0 load(1, XDATA, add(CFA_XSP16, literal(-1)))
          CFI (cfiCond123) CFA_SP SP+0
          CFI (cfiCond123) CFA_XSP16 add(XSP16, 13)
          CFI Block cfiCond124 Using cfiCommon0
          CFI (cfiCond124) Function zll_GenerateRandNum
          CFI (cfiCond124) Conditional ??CrossCallReturnLabel_91
          CFI (cfiCond124) R6 load(1, XDATA, add(CFA_XSP16, literal(-13)))
          CFI (cfiCond124) VB load(1, XDATA, add(CFA_XSP16, literal(-12)))
          CFI (cfiCond124) V0 load(1, XDATA, add(CFA_XSP16, literal(-11)))
          CFI (cfiCond124) V1 load(1, XDATA, add(CFA_XSP16, literal(-10)))
          CFI (cfiCond124) V2 load(1, XDATA, add(CFA_XSP16, literal(-9)))
          CFI (cfiCond124) V3 load(1, XDATA, add(CFA_XSP16, literal(-8)))
          CFI (cfiCond124) V4 load(1, XDATA, add(CFA_XSP16, literal(-7)))
          CFI (cfiCond124) R7 load(1, XDATA, add(CFA_XSP16, literal(-6)))
          CFI (cfiCond124) ?RET_LOW load(1, XDATA, add(CFA_XSP16, literal(-5)))
          CFI (cfiCond124) ?RET_HIGH load(1, XDATA, add(CFA_XSP16, literal(-4)))
          CFI (cfiCond124) ?BRET_EXT load(1, XDATA, add(CFA_XSP16, literal(-3)))
          CFI (cfiCond124) DPL0 load(1, XDATA, add(CFA_XSP16, literal(-2)))
          CFI (cfiCond124) DPH0 load(1, XDATA, add(CFA_XSP16, literal(-1)))
          CFI (cfiCond124) CFA_SP SP+0
          CFI (cfiCond124) CFA_XSP16 add(XSP16, 13)
          CFI Block cfiPicker125 Using cfiCommon1
          CFI (cfiPicker125) NoFunction
          CFI (cfiPicker125) Picker
        MOV     DPL,A
        MOV     A,R7
          CFI EndBlock cfiCond111
          CFI EndBlock cfiCond112
          CFI EndBlock cfiCond113
          CFI EndBlock cfiCond114
          CFI EndBlock cfiCond115
          CFI EndBlock cfiCond116
          CFI EndBlock cfiCond117
          CFI EndBlock cfiCond118
          CFI EndBlock cfiCond119
          CFI EndBlock cfiCond120
          CFI EndBlock cfiCond121
          CFI EndBlock cfiCond122
          CFI EndBlock cfiCond123
          CFI EndBlock cfiCond124
          CFI EndBlock cfiPicker125
        REQUIRE ??Subroutine41_0
        ; // Fall through to label ??Subroutine41_0

        RSEG BANKED_CODE:CODE:NOROOT(0)
??Subroutine41_0:
          CFI Block cfiCond126 Using cfiCommon0
          CFI Function zll_BuildAesKey
          CFI Conditional ??CrossCallReturnLabel_71
          CFI R6 load(1, XDATA, add(CFA_XSP16, literal(-21)))
          CFI VB load(1, XDATA, add(CFA_XSP16, literal(-20)))
          CFI V0 load(1, XDATA, add(CFA_XSP16, literal(-19)))
          CFI V1 load(1, XDATA, add(CFA_XSP16, literal(-18)))
          CFI V2 load(1, XDATA, add(CFA_XSP16, literal(-17)))
          CFI V3 load(1, XDATA, add(CFA_XSP16, literal(-16)))
          CFI V4 load(1, XDATA, add(CFA_XSP16, literal(-15)))
          CFI V5 load(1, XDATA, add(CFA_XSP16, literal(-14)))
          CFI V6 load(1, XDATA, add(CFA_XSP16, literal(-13)))
          CFI V7 load(1, XDATA, add(CFA_XSP16, literal(-12)))
          CFI V8 load(1, XDATA, add(CFA_XSP16, literal(-11)))
          CFI V9 load(1, XDATA, add(CFA_XSP16, literal(-10)))
          CFI V10 load(1, XDATA, add(CFA_XSP16, literal(-9)))
          CFI V11 load(1, XDATA, add(CFA_XSP16, literal(-8)))
          CFI V12 load(1, XDATA, add(CFA_XSP16, literal(-7)))
          CFI R7 load(1, XDATA, add(CFA_XSP16, literal(-6)))
          CFI ?RET_LOW load(1, XDATA, add(CFA_XSP16, literal(-5)))
          CFI ?RET_HIGH load(1, XDATA, add(CFA_XSP16, literal(-4)))
          CFI ?BRET_EXT load(1, XDATA, add(CFA_XSP16, literal(-3)))
          CFI DPL0 load(1, XDATA, add(CFA_XSP16, literal(-2)))
          CFI DPH0 load(1, XDATA, add(CFA_XSP16, literal(-1)))
          CFI CFA_SP SP+0
          CFI CFA_XSP16 add(XSP16, 21)
          CFI Block cfiCond127 Using cfiCommon0
          CFI (cfiCond127) Function zll_BuildAesKey
          CFI (cfiCond127) Conditional ??CrossCallReturnLabel_72
          CFI (cfiCond127) R6 load(1, XDATA, add(CFA_XSP16, literal(-21)))
          CFI (cfiCond127) VB load(1, XDATA, add(CFA_XSP16, literal(-20)))
          CFI (cfiCond127) V0 load(1, XDATA, add(CFA_XSP16, literal(-19)))
          CFI (cfiCond127) V1 load(1, XDATA, add(CFA_XSP16, literal(-18)))
          CFI (cfiCond127) V2 load(1, XDATA, add(CFA_XSP16, literal(-17)))
          CFI (cfiCond127) V3 load(1, XDATA, add(CFA_XSP16, literal(-16)))
          CFI (cfiCond127) V4 load(1, XDATA, add(CFA_XSP16, literal(-15)))
          CFI (cfiCond127) V5 load(1, XDATA, add(CFA_XSP16, literal(-14)))
          CFI (cfiCond127) V6 load(1, XDATA, add(CFA_XSP16, literal(-13)))
          CFI (cfiCond127) V7 load(1, XDATA, add(CFA_XSP16, literal(-12)))
          CFI (cfiCond127) V8 load(1, XDATA, add(CFA_XSP16, literal(-11)))
          CFI (cfiCond127) V9 load(1, XDATA, add(CFA_XSP16, literal(-10)))
          CFI (cfiCond127) V10 load(1, XDATA, add(CFA_XSP16, literal(-9)))
          CFI (cfiCond127) V11 load(1, XDATA, add(CFA_XSP16, literal(-8)))
          CFI (cfiCond127) V12 load(1, XDATA, add(CFA_XSP16, literal(-7)))
          CFI (cfiCond127) R7 load(1, XDATA, add(CFA_XSP16, literal(-6)))
          CFI (cfiCond127) ?RET_LOW load(1, XDATA, add(CFA_XSP16, literal(-5)))
          CFI (cfiCond127) ?RET_HIGH load(1, XDATA, add(CFA_XSP16, literal(-4)))
          CFI (cfiCond127) ?BRET_EXT load(1, XDATA, add(CFA_XSP16, literal(-3)))
          CFI (cfiCond127) DPL0 load(1, XDATA, add(CFA_XSP16, literal(-2)))
          CFI (cfiCond127) DPH0 load(1, XDATA, add(CFA_XSP16, literal(-1)))
          CFI (cfiCond127) CFA_SP SP+0
          CFI (cfiCond127) CFA_XSP16 add(XSP16, 21)
          CFI Block cfiCond128 Using cfiCommon0
          CFI (cfiCond128) Function zll_BuildAesKey
          CFI (cfiCond128) Conditional ??CrossCallReturnLabel_73
          CFI (cfiCond128) R6 load(1, XDATA, add(CFA_XSP16, literal(-21)))
          CFI (cfiCond128) VB load(1, XDATA, add(CFA_XSP16, literal(-20)))
          CFI (cfiCond128) V0 load(1, XDATA, add(CFA_XSP16, literal(-19)))
          CFI (cfiCond128) V1 load(1, XDATA, add(CFA_XSP16, literal(-18)))
          CFI (cfiCond128) V2 load(1, XDATA, add(CFA_XSP16, literal(-17)))
          CFI (cfiCond128) V3 load(1, XDATA, add(CFA_XSP16, literal(-16)))
          CFI (cfiCond128) V4 load(1, XDATA, add(CFA_XSP16, literal(-15)))
          CFI (cfiCond128) V5 load(1, XDATA, add(CFA_XSP16, literal(-14)))
          CFI (cfiCond128) V6 load(1, XDATA, add(CFA_XSP16, literal(-13)))
          CFI (cfiCond128) V7 load(1, XDATA, add(CFA_XSP16, literal(-12)))
          CFI (cfiCond128) V8 load(1, XDATA, add(CFA_XSP16, literal(-11)))
          CFI (cfiCond128) V9 load(1, XDATA, add(CFA_XSP16, literal(-10)))
          CFI (cfiCond128) V10 load(1, XDATA, add(CFA_XSP16, literal(-9)))
          CFI (cfiCond128) V11 load(1, XDATA, add(CFA_XSP16, literal(-8)))
          CFI (cfiCond128) V12 load(1, XDATA, add(CFA_XSP16, literal(-7)))
          CFI (cfiCond128) R7 load(1, XDATA, add(CFA_XSP16, literal(-6)))
          CFI (cfiCond128) ?RET_LOW load(1, XDATA, add(CFA_XSP16, literal(-5)))
          CFI (cfiCond128) ?RET_HIGH load(1, XDATA, add(CFA_XSP16, literal(-4)))
          CFI (cfiCond128) ?BRET_EXT load(1, XDATA, add(CFA_XSP16, literal(-3)))
          CFI (cfiCond128) DPL0 load(1, XDATA, add(CFA_XSP16, literal(-2)))
          CFI (cfiCond128) DPH0 load(1, XDATA, add(CFA_XSP16, literal(-1)))
          CFI (cfiCond128) CFA_SP SP+0
          CFI (cfiCond128) CFA_XSP16 add(XSP16, 21)
          CFI Block cfiCond129 Using cfiCommon0
          CFI (cfiCond129) Function zll_BuildAesKey
          CFI (cfiCond129) Conditional ??CrossCallReturnLabel_74
          CFI (cfiCond129) R6 load(1, XDATA, add(CFA_XSP16, literal(-21)))
          CFI (cfiCond129) VB load(1, XDATA, add(CFA_XSP16, literal(-20)))
          CFI (cfiCond129) V0 load(1, XDATA, add(CFA_XSP16, literal(-19)))
          CFI (cfiCond129) V1 load(1, XDATA, add(CFA_XSP16, literal(-18)))
          CFI (cfiCond129) V2 load(1, XDATA, add(CFA_XSP16, literal(-17)))
          CFI (cfiCond129) V3 load(1, XDATA, add(CFA_XSP16, literal(-16)))
          CFI (cfiCond129) V4 load(1, XDATA, add(CFA_XSP16, literal(-15)))
          CFI (cfiCond129) V5 load(1, XDATA, add(CFA_XSP16, literal(-14)))
          CFI (cfiCond129) V6 load(1, XDATA, add(CFA_XSP16, literal(-13)))
          CFI (cfiCond129) V7 load(1, XDATA, add(CFA_XSP16, literal(-12)))
          CFI (cfiCond129) V8 load(1, XDATA, add(CFA_XSP16, literal(-11)))
          CFI (cfiCond129) V9 load(1, XDATA, add(CFA_XSP16, literal(-10)))
          CFI (cfiCond129) V10 load(1, XDATA, add(CFA_XSP16, literal(-9)))
          CFI (cfiCond129) V11 load(1, XDATA, add(CFA_XSP16, literal(-8)))
          CFI (cfiCond129) V12 load(1, XDATA, add(CFA_XSP16, literal(-7)))
          CFI (cfiCond129) R7 load(1, XDATA, add(CFA_XSP16, literal(-6)))
          CFI (cfiCond129) ?RET_LOW load(1, XDATA, add(CFA_XSP16, literal(-5)))
          CFI (cfiCond129) ?RET_HIGH load(1, XDATA, add(CFA_XSP16, literal(-4)))
          CFI (cfiCond129) ?BRET_EXT load(1, XDATA, add(CFA_XSP16, literal(-3)))
          CFI (cfiCond129) DPL0 load(1, XDATA, add(CFA_XSP16, literal(-2)))
          CFI (cfiCond129) DPH0 load(1, XDATA, add(CFA_XSP16, literal(-1)))
          CFI (cfiCond129) CFA_SP SP+0
          CFI (cfiCond129) CFA_XSP16 add(XSP16, 21)
          CFI Block cfiCond130 Using cfiCommon0
          CFI (cfiCond130) Function zll_BuildAesKey
          CFI (cfiCond130) Conditional ??CrossCallReturnLabel_75
          CFI (cfiCond130) R6 load(1, XDATA, add(CFA_XSP16, literal(-21)))
          CFI (cfiCond130) VB load(1, XDATA, add(CFA_XSP16, literal(-20)))
          CFI (cfiCond130) V0 load(1, XDATA, add(CFA_XSP16, literal(-19)))
          CFI (cfiCond130) V1 load(1, XDATA, add(CFA_XSP16, literal(-18)))
          CFI (cfiCond130) V2 load(1, XDATA, add(CFA_XSP16, literal(-17)))
          CFI (cfiCond130) V3 load(1, XDATA, add(CFA_XSP16, literal(-16)))
          CFI (cfiCond130) V4 load(1, XDATA, add(CFA_XSP16, literal(-15)))
          CFI (cfiCond130) V5 load(1, XDATA, add(CFA_XSP16, literal(-14)))
          CFI (cfiCond130) V6 load(1, XDATA, add(CFA_XSP16, literal(-13)))
          CFI (cfiCond130) V7 load(1, XDATA, add(CFA_XSP16, literal(-12)))
          CFI (cfiCond130) V8 load(1, XDATA, add(CFA_XSP16, literal(-11)))
          CFI (cfiCond130) V9 load(1, XDATA, add(CFA_XSP16, literal(-10)))
          CFI (cfiCond130) V10 load(1, XDATA, add(CFA_XSP16, literal(-9)))
          CFI (cfiCond130) V11 load(1, XDATA, add(CFA_XSP16, literal(-8)))
          CFI (cfiCond130) V12 load(1, XDATA, add(CFA_XSP16, literal(-7)))
          CFI (cfiCond130) R7 load(1, XDATA, add(CFA_XSP16, literal(-6)))
          CFI (cfiCond130) ?RET_LOW load(1, XDATA, add(CFA_XSP16, literal(-5)))
          CFI (cfiCond130) ?RET_HIGH load(1, XDATA, add(CFA_XSP16, literal(-4)))
          CFI (cfiCond130) ?BRET_EXT load(1, XDATA, add(CFA_XSP16, literal(-3)))
          CFI (cfiCond130) DPL0 load(1, XDATA, add(CFA_XSP16, literal(-2)))
          CFI (cfiCond130) DPH0 load(1, XDATA, add(CFA_XSP16, literal(-1)))
          CFI (cfiCond130) CFA_SP SP+0
          CFI (cfiCond130) CFA_XSP16 add(XSP16, 21)
          CFI Block cfiCond131 Using cfiCommon0
          CFI (cfiCond131) Function zll_SendDeviceInfoRsp
          CFI (cfiCond131) Conditional ??CrossCallReturnLabel_76
          CFI (cfiCond131) R6 load(1, XDATA, add(CFA_XSP16, literal(-20)))
          CFI (cfiCond131) VB load(1, XDATA, add(CFA_XSP16, literal(-19)))
          CFI (cfiCond131) V0 load(1, XDATA, add(CFA_XSP16, literal(-18)))
          CFI (cfiCond131) V1 load(1, XDATA, add(CFA_XSP16, literal(-17)))
          CFI (cfiCond131) V2 load(1, XDATA, add(CFA_XSP16, literal(-16)))
          CFI (cfiCond131) V3 load(1, XDATA, add(CFA_XSP16, literal(-15)))
          CFI (cfiCond131) V4 load(1, XDATA, add(CFA_XSP16, literal(-14)))
          CFI (cfiCond131) V5 load(1, XDATA, add(CFA_XSP16, literal(-13)))
          CFI (cfiCond131) V6 load(1, XDATA, add(CFA_XSP16, literal(-12)))
          CFI (cfiCond131) V7 load(1, XDATA, add(CFA_XSP16, literal(-11)))
          CFI (cfiCond131) V8 load(1, XDATA, add(CFA_XSP16, literal(-10)))
          CFI (cfiCond131) V9 load(1, XDATA, add(CFA_XSP16, literal(-9)))
          CFI (cfiCond131) V10 load(1, XDATA, add(CFA_XSP16, literal(-8)))
          CFI (cfiCond131) V11 load(1, XDATA, add(CFA_XSP16, literal(-7)))
          CFI (cfiCond131) R7 load(1, XDATA, add(CFA_XSP16, literal(-6)))
          CFI (cfiCond131) ?RET_LOW load(1, XDATA, add(CFA_XSP16, literal(-5)))
          CFI (cfiCond131) ?RET_HIGH load(1, XDATA, add(CFA_XSP16, literal(-4)))
          CFI (cfiCond131) ?BRET_EXT load(1, XDATA, add(CFA_XSP16, literal(-3)))
          CFI (cfiCond131) DPL0 load(1, XDATA, add(CFA_XSP16, literal(-2)))
          CFI (cfiCond131) DPH0 load(1, XDATA, add(CFA_XSP16, literal(-1)))
          CFI (cfiCond131) CFA_SP SP+0
          CFI (cfiCond131) CFA_XSP16 add(XSP16, 20)
          CFI Block cfiCond132 Using cfiCommon0
          CFI (cfiCond132) Function zll_ClassicalCommissioningJoinDiscoveredNwk
          CFI (cfiCond132) Conditional ??CrossCallReturnLabel_77
          CFI (cfiCond132) R6 load(1, XDATA, add(CFA_XSP16, literal(-9)))
          CFI (cfiCond132) VB load(1, XDATA, add(CFA_XSP16, literal(-8)))
          CFI (cfiCond132) V0 load(1, XDATA, add(CFA_XSP16, literal(-7)))
          CFI (cfiCond132) R7 load(1, XDATA, add(CFA_XSP16, literal(-6)))
          CFI (cfiCond132) ?RET_LOW load(1, XDATA, add(CFA_XSP16, literal(-5)))
          CFI (cfiCond132) ?RET_HIGH load(1, XDATA, add(CFA_XSP16, literal(-4)))
          CFI (cfiCond132) ?BRET_EXT load(1, XDATA, add(CFA_XSP16, literal(-3)))
          CFI (cfiCond132) DPL0 load(1, XDATA, add(CFA_XSP16, literal(-2)))
          CFI (cfiCond132) DPH0 load(1, XDATA, add(CFA_XSP16, literal(-1)))
          CFI (cfiCond132) CFA_SP SP+0
          CFI (cfiCond132) CFA_XSP16 add(XSP16, 10)
          CFI Block cfiCond133 Using cfiCommon0
          CFI (cfiCond133) Function zll_SendScanRsp
          CFI (cfiCond133) Conditional ??CrossCallReturnLabel_78
          CFI (cfiCond133) R6 load(1, XDATA, add(CFA_XSP16, literal(-22)))
          CFI (cfiCond133) VB load(1, XDATA, add(CFA_XSP16, literal(-21)))
          CFI (cfiCond133) V0 load(1, XDATA, add(CFA_XSP16, literal(-20)))
          CFI (cfiCond133) V1 load(1, XDATA, add(CFA_XSP16, literal(-19)))
          CFI (cfiCond133) V2 load(1, XDATA, add(CFA_XSP16, literal(-18)))
          CFI (cfiCond133) V3 load(1, XDATA, add(CFA_XSP16, literal(-17)))
          CFI (cfiCond133) V4 load(1, XDATA, add(CFA_XSP16, literal(-16)))
          CFI (cfiCond133) V5 load(1, XDATA, add(CFA_XSP16, literal(-15)))
          CFI (cfiCond133) V6 load(1, XDATA, add(CFA_XSP16, literal(-14)))
          CFI (cfiCond133) V7 load(1, XDATA, add(CFA_XSP16, literal(-13)))
          CFI (cfiCond133) V8 load(1, XDATA, add(CFA_XSP16, literal(-12)))
          CFI (cfiCond133) V9 load(1, XDATA, add(CFA_XSP16, literal(-11)))
          CFI (cfiCond133) V10 load(1, XDATA, add(CFA_XSP16, literal(-10)))
          CFI (cfiCond133) V11 load(1, XDATA, add(CFA_XSP16, literal(-9)))
          CFI (cfiCond133) V12 load(1, XDATA, add(CFA_XSP16, literal(-8)))
          CFI (cfiCond133) V13 load(1, XDATA, add(CFA_XSP16, literal(-7)))
          CFI (cfiCond133) R7 load(1, XDATA, add(CFA_XSP16, literal(-6)))
          CFI (cfiCond133) ?RET_LOW load(1, XDATA, add(CFA_XSP16, literal(-5)))
          CFI (cfiCond133) ?RET_HIGH load(1, XDATA, add(CFA_XSP16, literal(-4)))
          CFI (cfiCond133) ?BRET_EXT load(1, XDATA, add(CFA_XSP16, literal(-3)))
          CFI (cfiCond133) DPL0 load(1, XDATA, add(CFA_XSP16, literal(-2)))
          CFI (cfiCond133) DPH0 load(1, XDATA, add(CFA_XSP16, literal(-1)))
          CFI (cfiCond133) CFA_SP SP+0
          CFI (cfiCond133) CFA_XSP16 add(XSP16, 22)
          CFI Block cfiCond134 Using cfiCommon0
          CFI (cfiCond134) Function zll_SendScanRsp
          CFI (cfiCond134) Conditional ??CrossCallReturnLabel_79
          CFI (cfiCond134) R6 load(1, XDATA, add(CFA_XSP16, literal(-22)))
          CFI (cfiCond134) VB load(1, XDATA, add(CFA_XSP16, literal(-21)))
          CFI (cfiCond134) V0 load(1, XDATA, add(CFA_XSP16, literal(-20)))
          CFI (cfiCond134) V1 load(1, XDATA, add(CFA_XSP16, literal(-19)))
          CFI (cfiCond134) V2 load(1, XDATA, add(CFA_XSP16, literal(-18)))
          CFI (cfiCond134) V3 load(1, XDATA, add(CFA_XSP16, literal(-17)))
          CFI (cfiCond134) V4 load(1, XDATA, add(CFA_XSP16, literal(-16)))
          CFI (cfiCond134) V5 load(1, XDATA, add(CFA_XSP16, literal(-15)))
          CFI (cfiCond134) V6 load(1, XDATA, add(CFA_XSP16, literal(-14)))
          CFI (cfiCond134) V7 load(1, XDATA, add(CFA_XSP16, literal(-13)))
          CFI (cfiCond134) V8 load(1, XDATA, add(CFA_XSP16, literal(-12)))
          CFI (cfiCond134) V9 load(1, XDATA, add(CFA_XSP16, literal(-11)))
          CFI (cfiCond134) V10 load(1, XDATA, add(CFA_XSP16, literal(-10)))
          CFI (cfiCond134) V11 load(1, XDATA, add(CFA_XSP16, literal(-9)))
          CFI (cfiCond134) V12 load(1, XDATA, add(CFA_XSP16, literal(-8)))
          CFI (cfiCond134) V13 load(1, XDATA, add(CFA_XSP16, literal(-7)))
          CFI (cfiCond134) R7 load(1, XDATA, add(CFA_XSP16, literal(-6)))
          CFI (cfiCond134) ?RET_LOW load(1, XDATA, add(CFA_XSP16, literal(-5)))
          CFI (cfiCond134) ?RET_HIGH load(1, XDATA, add(CFA_XSP16, literal(-4)))
          CFI (cfiCond134) ?BRET_EXT load(1, XDATA, add(CFA_XSP16, literal(-3)))
          CFI (cfiCond134) DPL0 load(1, XDATA, add(CFA_XSP16, literal(-2)))
          CFI (cfiCond134) DPH0 load(1, XDATA, add(CFA_XSP16, literal(-1)))
          CFI (cfiCond134) CFA_SP SP+0
          CFI (cfiCond134) CFA_XSP16 add(XSP16, 22)
          CFI Block cfiCond135 Using cfiCommon0
          CFI (cfiCond135) Function zll_SendScanRsp
          CFI (cfiCond135) Conditional ??CrossCallReturnLabel_80
          CFI (cfiCond135) R6 load(1, XDATA, add(CFA_XSP16, literal(-22)))
          CFI (cfiCond135) VB load(1, XDATA, add(CFA_XSP16, literal(-21)))
          CFI (cfiCond135) V0 load(1, XDATA, add(CFA_XSP16, literal(-20)))
          CFI (cfiCond135) V1 load(1, XDATA, add(CFA_XSP16, literal(-19)))
          CFI (cfiCond135) V2 load(1, XDATA, add(CFA_XSP16, literal(-18)))
          CFI (cfiCond135) V3 load(1, XDATA, add(CFA_XSP16, literal(-17)))
          CFI (cfiCond135) V4 load(1, XDATA, add(CFA_XSP16, literal(-16)))
          CFI (cfiCond135) V5 load(1, XDATA, add(CFA_XSP16, literal(-15)))
          CFI (cfiCond135) V6 load(1, XDATA, add(CFA_XSP16, literal(-14)))
          CFI (cfiCond135) V7 load(1, XDATA, add(CFA_XSP16, literal(-13)))
          CFI (cfiCond135) V8 load(1, XDATA, add(CFA_XSP16, literal(-12)))
          CFI (cfiCond135) V9 load(1, XDATA, add(CFA_XSP16, literal(-11)))
          CFI (cfiCond135) V10 load(1, XDATA, add(CFA_XSP16, literal(-10)))
          CFI (cfiCond135) V11 load(1, XDATA, add(CFA_XSP16, literal(-9)))
          CFI (cfiCond135) V12 load(1, XDATA, add(CFA_XSP16, literal(-8)))
          CFI (cfiCond135) V13 load(1, XDATA, add(CFA_XSP16, literal(-7)))
          CFI (cfiCond135) R7 load(1, XDATA, add(CFA_XSP16, literal(-6)))
          CFI (cfiCond135) ?RET_LOW load(1, XDATA, add(CFA_XSP16, literal(-5)))
          CFI (cfiCond135) ?RET_HIGH load(1, XDATA, add(CFA_XSP16, literal(-4)))
          CFI (cfiCond135) ?BRET_EXT load(1, XDATA, add(CFA_XSP16, literal(-3)))
          CFI (cfiCond135) DPL0 load(1, XDATA, add(CFA_XSP16, literal(-2)))
          CFI (cfiCond135) DPH0 load(1, XDATA, add(CFA_XSP16, literal(-1)))
          CFI (cfiCond135) CFA_SP SP+-1
          CFI (cfiCond135) CFA_XSP16 add(XSP16, 22)
          CFI Block cfiCond136 Using cfiCommon0
          CFI (cfiCond136) Function zll_SendScanRsp
          CFI (cfiCond136) Conditional ??CrossCallReturnLabel_81
          CFI (cfiCond136) R6 load(1, XDATA, add(CFA_XSP16, literal(-22)))
          CFI (cfiCond136) VB load(1, XDATA, add(CFA_XSP16, literal(-21)))
          CFI (cfiCond136) V0 load(1, XDATA, add(CFA_XSP16, literal(-20)))
          CFI (cfiCond136) V1 load(1, XDATA, add(CFA_XSP16, literal(-19)))
          CFI (cfiCond136) V2 load(1, XDATA, add(CFA_XSP16, literal(-18)))
          CFI (cfiCond136) V3 load(1, XDATA, add(CFA_XSP16, literal(-17)))
          CFI (cfiCond136) V4 load(1, XDATA, add(CFA_XSP16, literal(-16)))
          CFI (cfiCond136) V5 load(1, XDATA, add(CFA_XSP16, literal(-15)))
          CFI (cfiCond136) V6 load(1, XDATA, add(CFA_XSP16, literal(-14)))
          CFI (cfiCond136) V7 load(1, XDATA, add(CFA_XSP16, literal(-13)))
          CFI (cfiCond136) V8 load(1, XDATA, add(CFA_XSP16, literal(-12)))
          CFI (cfiCond136) V9 load(1, XDATA, add(CFA_XSP16, literal(-11)))
          CFI (cfiCond136) V10 load(1, XDATA, add(CFA_XSP16, literal(-10)))
          CFI (cfiCond136) V11 load(1, XDATA, add(CFA_XSP16, literal(-9)))
          CFI (cfiCond136) V12 load(1, XDATA, add(CFA_XSP16, literal(-8)))
          CFI (cfiCond136) V13 load(1, XDATA, add(CFA_XSP16, literal(-7)))
          CFI (cfiCond136) R7 load(1, XDATA, add(CFA_XSP16, literal(-6)))
          CFI (cfiCond136) ?RET_LOW load(1, XDATA, add(CFA_XSP16, literal(-5)))
          CFI (cfiCond136) ?RET_HIGH load(1, XDATA, add(CFA_XSP16, literal(-4)))
          CFI (cfiCond136) ?BRET_EXT load(1, XDATA, add(CFA_XSP16, literal(-3)))
          CFI (cfiCond136) DPL0 load(1, XDATA, add(CFA_XSP16, literal(-2)))
          CFI (cfiCond136) DPH0 load(1, XDATA, add(CFA_XSP16, literal(-1)))
          CFI (cfiCond136) CFA_SP SP+0
          CFI (cfiCond136) CFA_XSP16 add(XSP16, 22)
          CFI Block cfiCond137 Using cfiCommon0
          CFI (cfiCond137) Function zll_SendScanRsp
          CFI (cfiCond137) Conditional ??CrossCallReturnLabel_82
          CFI (cfiCond137) R6 load(1, XDATA, add(CFA_XSP16, literal(-22)))
          CFI (cfiCond137) VB load(1, XDATA, add(CFA_XSP16, literal(-21)))
          CFI (cfiCond137) V0 load(1, XDATA, add(CFA_XSP16, literal(-20)))
          CFI (cfiCond137) V1 load(1, XDATA, add(CFA_XSP16, literal(-19)))
          CFI (cfiCond137) V2 load(1, XDATA, add(CFA_XSP16, literal(-18)))
          CFI (cfiCond137) V3 load(1, XDATA, add(CFA_XSP16, literal(-17)))
          CFI (cfiCond137) V4 load(1, XDATA, add(CFA_XSP16, literal(-16)))
          CFI (cfiCond137) V5 load(1, XDATA, add(CFA_XSP16, literal(-15)))
          CFI (cfiCond137) V6 load(1, XDATA, add(CFA_XSP16, literal(-14)))
          CFI (cfiCond137) V7 load(1, XDATA, add(CFA_XSP16, literal(-13)))
          CFI (cfiCond137) V8 load(1, XDATA, add(CFA_XSP16, literal(-12)))
          CFI (cfiCond137) V9 load(1, XDATA, add(CFA_XSP16, literal(-11)))
          CFI (cfiCond137) V10 load(1, XDATA, add(CFA_XSP16, literal(-10)))
          CFI (cfiCond137) V11 load(1, XDATA, add(CFA_XSP16, literal(-9)))
          CFI (cfiCond137) V12 load(1, XDATA, add(CFA_XSP16, literal(-8)))
          CFI (cfiCond137) V13 load(1, XDATA, add(CFA_XSP16, literal(-7)))
          CFI (cfiCond137) R7 load(1, XDATA, add(CFA_XSP16, literal(-6)))
          CFI (cfiCond137) ?RET_LOW load(1, XDATA, add(CFA_XSP16, literal(-5)))
          CFI (cfiCond137) ?RET_HIGH load(1, XDATA, add(CFA_XSP16, literal(-4)))
          CFI (cfiCond137) ?BRET_EXT load(1, XDATA, add(CFA_XSP16, literal(-3)))
          CFI (cfiCond137) DPL0 load(1, XDATA, add(CFA_XSP16, literal(-2)))
          CFI (cfiCond137) DPH0 load(1, XDATA, add(CFA_XSP16, literal(-1)))
          CFI (cfiCond137) CFA_SP SP+0
          CFI (cfiCond137) CFA_XSP16 add(XSP16, 22)
          CFI Block cfiCond138 Using cfiCommon0
          CFI (cfiCond138) Function zll_BeaconIndCB
          CFI (cfiCond138) Conditional ??CrossCallReturnLabel_83
          CFI (cfiCond138) R6 load(1, XDATA, add(CFA_XSP16, literal(-20)))
          CFI (cfiCond138) VB load(1, XDATA, add(CFA_XSP16, literal(-19)))
          CFI (cfiCond138) V0 load(1, XDATA, add(CFA_XSP16, literal(-18)))
          CFI (cfiCond138) V1 load(1, XDATA, add(CFA_XSP16, literal(-17)))
          CFI (cfiCond138) V2 load(1, XDATA, add(CFA_XSP16, literal(-16)))
          CFI (cfiCond138) V3 load(1, XDATA, add(CFA_XSP16, literal(-15)))
          CFI (cfiCond138) V4 load(1, XDATA, add(CFA_XSP16, literal(-14)))
          CFI (cfiCond138) V5 load(1, XDATA, add(CFA_XSP16, literal(-13)))
          CFI (cfiCond138) V6 load(1, XDATA, add(CFA_XSP16, literal(-12)))
          CFI (cfiCond138) V7 load(1, XDATA, add(CFA_XSP16, literal(-11)))
          CFI (cfiCond138) V8 load(1, XDATA, add(CFA_XSP16, literal(-10)))
          CFI (cfiCond138) V9 load(1, XDATA, add(CFA_XSP16, literal(-9)))
          CFI (cfiCond138) V10 load(1, XDATA, add(CFA_XSP16, literal(-8)))
          CFI (cfiCond138) V11 load(1, XDATA, add(CFA_XSP16, literal(-7)))
          CFI (cfiCond138) R7 load(1, XDATA, add(CFA_XSP16, literal(-6)))
          CFI (cfiCond138) ?RET_LOW load(1, XDATA, add(CFA_XSP16, literal(-5)))
          CFI (cfiCond138) ?RET_HIGH load(1, XDATA, add(CFA_XSP16, literal(-4)))
          CFI (cfiCond138) ?BRET_EXT load(1, XDATA, add(CFA_XSP16, literal(-3)))
          CFI (cfiCond138) DPL0 load(1, XDATA, add(CFA_XSP16, literal(-2)))
          CFI (cfiCond138) DPH0 load(1, XDATA, add(CFA_XSP16, literal(-1)))
          CFI (cfiCond138) CFA_SP SP+0
          CFI (cfiCond138) CFA_XSP16 add(XSP16, 20)
          CFI Block cfiCond139 Using cfiCommon0
          CFI (cfiCond139) Function zll_BeaconIndCB
          CFI (cfiCond139) Conditional ??CrossCallReturnLabel_84
          CFI (cfiCond139) R6 load(1, XDATA, add(CFA_XSP16, literal(-20)))
          CFI (cfiCond139) VB load(1, XDATA, add(CFA_XSP16, literal(-19)))
          CFI (cfiCond139) V0 load(1, XDATA, add(CFA_XSP16, literal(-18)))
          CFI (cfiCond139) V1 load(1, XDATA, add(CFA_XSP16, literal(-17)))
          CFI (cfiCond139) V2 load(1, XDATA, add(CFA_XSP16, literal(-16)))
          CFI (cfiCond139) V3 load(1, XDATA, add(CFA_XSP16, literal(-15)))
          CFI (cfiCond139) V4 load(1, XDATA, add(CFA_XSP16, literal(-14)))
          CFI (cfiCond139) V5 load(1, XDATA, add(CFA_XSP16, literal(-13)))
          CFI (cfiCond139) V6 load(1, XDATA, add(CFA_XSP16, literal(-12)))
          CFI (cfiCond139) V7 load(1, XDATA, add(CFA_XSP16, literal(-11)))
          CFI (cfiCond139) V8 load(1, XDATA, add(CFA_XSP16, literal(-10)))
          CFI (cfiCond139) V9 load(1, XDATA, add(CFA_XSP16, literal(-9)))
          CFI (cfiCond139) V10 load(1, XDATA, add(CFA_XSP16, literal(-8)))
          CFI (cfiCond139) V11 load(1, XDATA, add(CFA_XSP16, literal(-7)))
          CFI (cfiCond139) R7 load(1, XDATA, add(CFA_XSP16, literal(-6)))
          CFI (cfiCond139) ?RET_LOW load(1, XDATA, add(CFA_XSP16, literal(-5)))
          CFI (cfiCond139) ?RET_HIGH load(1, XDATA, add(CFA_XSP16, literal(-4)))
          CFI (cfiCond139) ?BRET_EXT load(1, XDATA, add(CFA_XSP16, literal(-3)))
          CFI (cfiCond139) DPL0 load(1, XDATA, add(CFA_XSP16, literal(-2)))
          CFI (cfiCond139) DPH0 load(1, XDATA, add(CFA_XSP16, literal(-1)))
          CFI (cfiCond139) CFA_SP SP+0
          CFI (cfiCond139) CFA_XSP16 add(XSP16, 20)
          CFI Block cfiCond140 Using cfiCommon0
          CFI (cfiCond140) Function zll_BeaconIndCB
          CFI (cfiCond140) Conditional ??CrossCallReturnLabel_85
          CFI (cfiCond140) R6 load(1, XDATA, add(CFA_XSP16, literal(-20)))
          CFI (cfiCond140) VB load(1, XDATA, add(CFA_XSP16, literal(-19)))
          CFI (cfiCond140) V0 load(1, XDATA, add(CFA_XSP16, literal(-18)))
          CFI (cfiCond140) V1 load(1, XDATA, add(CFA_XSP16, literal(-17)))
          CFI (cfiCond140) V2 load(1, XDATA, add(CFA_XSP16, literal(-16)))
          CFI (cfiCond140) V3 load(1, XDATA, add(CFA_XSP16, literal(-15)))
          CFI (cfiCond140) V4 load(1, XDATA, add(CFA_XSP16, literal(-14)))
          CFI (cfiCond140) V5 load(1, XDATA, add(CFA_XSP16, literal(-13)))
          CFI (cfiCond140) V6 load(1, XDATA, add(CFA_XSP16, literal(-12)))
          CFI (cfiCond140) V7 load(1, XDATA, add(CFA_XSP16, literal(-11)))
          CFI (cfiCond140) V8 load(1, XDATA, add(CFA_XSP16, literal(-10)))
          CFI (cfiCond140) V9 load(1, XDATA, add(CFA_XSP16, literal(-9)))
          CFI (cfiCond140) V10 load(1, XDATA, add(CFA_XSP16, literal(-8)))
          CFI (cfiCond140) V11 load(1, XDATA, add(CFA_XSP16, literal(-7)))
          CFI (cfiCond140) R7 load(1, XDATA, add(CFA_XSP16, literal(-6)))
          CFI (cfiCond140) ?RET_LOW load(1, XDATA, add(CFA_XSP16, literal(-5)))
          CFI (cfiCond140) ?RET_HIGH load(1, XDATA, add(CFA_XSP16, literal(-4)))
          CFI (cfiCond140) ?BRET_EXT load(1, XDATA, add(CFA_XSP16, literal(-3)))
          CFI (cfiCond140) DPL0 load(1, XDATA, add(CFA_XSP16, literal(-2)))
          CFI (cfiCond140) DPH0 load(1, XDATA, add(CFA_XSP16, literal(-1)))
          CFI (cfiCond140) CFA_SP SP+0
          CFI (cfiCond140) CFA_XSP16 add(XSP16, 20)
          CFI Block cfiCond141 Using cfiCommon0
          CFI (cfiCond141) Function zll_BeaconIndCB
          CFI (cfiCond141) Conditional ??CrossCallReturnLabel_86
          CFI (cfiCond141) R6 load(1, XDATA, add(CFA_XSP16, literal(-20)))
          CFI (cfiCond141) VB load(1, XDATA, add(CFA_XSP16, literal(-19)))
          CFI (cfiCond141) V0 load(1, XDATA, add(CFA_XSP16, literal(-18)))
          CFI (cfiCond141) V1 load(1, XDATA, add(CFA_XSP16, literal(-17)))
          CFI (cfiCond141) V2 load(1, XDATA, add(CFA_XSP16, literal(-16)))
          CFI (cfiCond141) V3 load(1, XDATA, add(CFA_XSP16, literal(-15)))
          CFI (cfiCond141) V4 load(1, XDATA, add(CFA_XSP16, literal(-14)))
          CFI (cfiCond141) V5 load(1, XDATA, add(CFA_XSP16, literal(-13)))
          CFI (cfiCond141) V6 load(1, XDATA, add(CFA_XSP16, literal(-12)))
          CFI (cfiCond141) V7 load(1, XDATA, add(CFA_XSP16, literal(-11)))
          CFI (cfiCond141) V8 load(1, XDATA, add(CFA_XSP16, literal(-10)))
          CFI (cfiCond141) V9 load(1, XDATA, add(CFA_XSP16, literal(-9)))
          CFI (cfiCond141) V10 load(1, XDATA, add(CFA_XSP16, literal(-8)))
          CFI (cfiCond141) V11 load(1, XDATA, add(CFA_XSP16, literal(-7)))
          CFI (cfiCond141) R7 load(1, XDATA, add(CFA_XSP16, literal(-6)))
          CFI (cfiCond141) ?RET_LOW load(1, XDATA, add(CFA_XSP16, literal(-5)))
          CFI (cfiCond141) ?RET_HIGH load(1, XDATA, add(CFA_XSP16, literal(-4)))
          CFI (cfiCond141) ?BRET_EXT load(1, XDATA, add(CFA_XSP16, literal(-3)))
          CFI (cfiCond141) DPL0 load(1, XDATA, add(CFA_XSP16, literal(-2)))
          CFI (cfiCond141) DPH0 load(1, XDATA, add(CFA_XSP16, literal(-1)))
          CFI (cfiCond141) CFA_SP SP+0
          CFI (cfiCond141) CFA_XSP16 add(XSP16, 20)
          CFI Block cfiCond142 Using cfiCommon0
          CFI (cfiCond142) Function zll_BeaconIndCB
          CFI (cfiCond142) Conditional ??CrossCallReturnLabel_87
          CFI (cfiCond142) R6 load(1, XDATA, add(CFA_XSP16, literal(-20)))
          CFI (cfiCond142) VB load(1, XDATA, add(CFA_XSP16, literal(-19)))
          CFI (cfiCond142) V0 load(1, XDATA, add(CFA_XSP16, literal(-18)))
          CFI (cfiCond142) V1 load(1, XDATA, add(CFA_XSP16, literal(-17)))
          CFI (cfiCond142) V2 load(1, XDATA, add(CFA_XSP16, literal(-16)))
          CFI (cfiCond142) V3 load(1, XDATA, add(CFA_XSP16, literal(-15)))
          CFI (cfiCond142) V4 load(1, XDATA, add(CFA_XSP16, literal(-14)))
          CFI (cfiCond142) V5 load(1, XDATA, add(CFA_XSP16, literal(-13)))
          CFI (cfiCond142) V6 load(1, XDATA, add(CFA_XSP16, literal(-12)))
          CFI (cfiCond142) V7 load(1, XDATA, add(CFA_XSP16, literal(-11)))
          CFI (cfiCond142) V8 load(1, XDATA, add(CFA_XSP16, literal(-10)))
          CFI (cfiCond142) V9 load(1, XDATA, add(CFA_XSP16, literal(-9)))
          CFI (cfiCond142) V10 load(1, XDATA, add(CFA_XSP16, literal(-8)))
          CFI (cfiCond142) V11 load(1, XDATA, add(CFA_XSP16, literal(-7)))
          CFI (cfiCond142) R7 load(1, XDATA, add(CFA_XSP16, literal(-6)))
          CFI (cfiCond142) ?RET_LOW load(1, XDATA, add(CFA_XSP16, literal(-5)))
          CFI (cfiCond142) ?RET_HIGH load(1, XDATA, add(CFA_XSP16, literal(-4)))
          CFI (cfiCond142) ?BRET_EXT load(1, XDATA, add(CFA_XSP16, literal(-3)))
          CFI (cfiCond142) DPL0 load(1, XDATA, add(CFA_XSP16, literal(-2)))
          CFI (cfiCond142) DPH0 load(1, XDATA, add(CFA_XSP16, literal(-1)))
          CFI (cfiCond142) CFA_SP SP+0
          CFI (cfiCond142) CFA_XSP16 add(XSP16, 20)
          CFI Block cfiCond143 Using cfiCommon0
          CFI (cfiCond143) Function zll_RouterProcessZDOMsg
          CFI (cfiCond143) Conditional ??CrossCallReturnLabel_88
          CFI (cfiCond143) R6 load(1, XDATA, add(CFA_XSP16, literal(-10)))
          CFI (cfiCond143) VB load(1, XDATA, add(CFA_XSP16, literal(-9)))
          CFI (cfiCond143) V0 load(1, XDATA, add(CFA_XSP16, literal(-8)))
          CFI (cfiCond143) V1 load(1, XDATA, add(CFA_XSP16, literal(-7)))
          CFI (cfiCond143) R7 load(1, XDATA, add(CFA_XSP16, literal(-6)))
          CFI (cfiCond143) ?RET_LOW load(1, XDATA, add(CFA_XSP16, literal(-5)))
          CFI (cfiCond143) ?RET_HIGH load(1, XDATA, add(CFA_XSP16, literal(-4)))
          CFI (cfiCond143) ?BRET_EXT load(1, XDATA, add(CFA_XSP16, literal(-3)))
          CFI (cfiCond143) DPL0 load(1, XDATA, add(CFA_XSP16, literal(-2)))
          CFI (cfiCond143) DPH0 load(1, XDATA, add(CFA_XSP16, literal(-1)))
          CFI (cfiCond143) CFA_SP SP+0
          CFI (cfiCond143) CFA_XSP16 add(XSP16, 22)
          CFI Block cfiCond144 Using cfiCommon0
          CFI (cfiCond144) Function zll_RouterProcessZDOMsg
          CFI (cfiCond144) Conditional ??CrossCallReturnLabel_89
          CFI (cfiCond144) R6 load(1, XDATA, add(CFA_XSP16, literal(-10)))
          CFI (cfiCond144) VB load(1, XDATA, add(CFA_XSP16, literal(-9)))
          CFI (cfiCond144) V0 load(1, XDATA, add(CFA_XSP16, literal(-8)))
          CFI (cfiCond144) V1 load(1, XDATA, add(CFA_XSP16, literal(-7)))
          CFI (cfiCond144) R7 load(1, XDATA, add(CFA_XSP16, literal(-6)))
          CFI (cfiCond144) ?RET_LOW load(1, XDATA, add(CFA_XSP16, literal(-5)))
          CFI (cfiCond144) ?RET_HIGH load(1, XDATA, add(CFA_XSP16, literal(-4)))
          CFI (cfiCond144) ?BRET_EXT load(1, XDATA, add(CFA_XSP16, literal(-3)))
          CFI (cfiCond144) DPL0 load(1, XDATA, add(CFA_XSP16, literal(-2)))
          CFI (cfiCond144) DPH0 load(1, XDATA, add(CFA_XSP16, literal(-1)))
          CFI (cfiCond144) CFA_SP SP+0
          CFI (cfiCond144) CFA_XSP16 add(XSP16, 22)
          CFI Block cfiCond145 Using cfiCommon0
          CFI (cfiCond145) Function zll_GenerateRandNum
          CFI (cfiCond145) Conditional ??CrossCallReturnLabel_90
          CFI (cfiCond145) R6 load(1, XDATA, add(CFA_XSP16, literal(-13)))
          CFI (cfiCond145) VB load(1, XDATA, add(CFA_XSP16, literal(-12)))
          CFI (cfiCond145) V0 load(1, XDATA, add(CFA_XSP16, literal(-11)))
          CFI (cfiCond145) V1 load(1, XDATA, add(CFA_XSP16, literal(-10)))
          CFI (cfiCond145) V2 load(1, XDATA, add(CFA_XSP16, literal(-9)))
          CFI (cfiCond145) V3 load(1, XDATA, add(CFA_XSP16, literal(-8)))
          CFI (cfiCond145) V4 load(1, XDATA, add(CFA_XSP16, literal(-7)))
          CFI (cfiCond145) R7 load(1, XDATA, add(CFA_XSP16, literal(-6)))
          CFI (cfiCond145) ?RET_LOW load(1, XDATA, add(CFA_XSP16, literal(-5)))
          CFI (cfiCond145) ?RET_HIGH load(1, XDATA, add(CFA_XSP16, literal(-4)))
          CFI (cfiCond145) ?BRET_EXT load(1, XDATA, add(CFA_XSP16, literal(-3)))
          CFI (cfiCond145) DPL0 load(1, XDATA, add(CFA_XSP16, literal(-2)))
          CFI (cfiCond145) DPH0 load(1, XDATA, add(CFA_XSP16, literal(-1)))
          CFI (cfiCond145) CFA_SP SP+0
          CFI (cfiCond145) CFA_XSP16 add(XSP16, 13)
          CFI Block cfiCond146 Using cfiCommon0
          CFI (cfiCond146) Function zll_GenerateRandNum
          CFI (cfiCond146) Conditional ??CrossCallReturnLabel_91
          CFI (cfiCond146) R6 load(1, XDATA, add(CFA_XSP16, literal(-13)))
          CFI (cfiCond146) VB load(1, XDATA, add(CFA_XSP16, literal(-12)))
          CFI (cfiCond146) V0 load(1, XDATA, add(CFA_XSP16, literal(-11)))
          CFI (cfiCond146) V1 load(1, XDATA, add(CFA_XSP16, literal(-10)))
          CFI (cfiCond146) V2 load(1, XDATA, add(CFA_XSP16, literal(-9)))
          CFI (cfiCond146) V3 load(1, XDATA, add(CFA_XSP16, literal(-8)))
          CFI (cfiCond146) V4 load(1, XDATA, add(CFA_XSP16, literal(-7)))
          CFI (cfiCond146) R7 load(1, XDATA, add(CFA_XSP16, literal(-6)))
          CFI (cfiCond146) ?RET_LOW load(1, XDATA, add(CFA_XSP16, literal(-5)))
          CFI (cfiCond146) ?RET_HIGH load(1, XDATA, add(CFA_XSP16, literal(-4)))
          CFI (cfiCond146) ?BRET_EXT load(1, XDATA, add(CFA_XSP16, literal(-3)))
          CFI (cfiCond146) DPL0 load(1, XDATA, add(CFA_XSP16, literal(-2)))
          CFI (cfiCond146) DPH0 load(1, XDATA, add(CFA_XSP16, literal(-1)))
          CFI (cfiCond146) CFA_SP SP+0
          CFI (cfiCond146) CFA_XSP16 add(XSP16, 13)
          CFI Block cfiPicker147 Using cfiCommon1
          CFI (cfiPicker147) NoFunction
          CFI (cfiPicker147) Picker
        ADDC    A,#0x0
        MOV     DPH,A
        RET
          CFI EndBlock cfiCond126
          CFI EndBlock cfiCond127
          CFI EndBlock cfiCond128
          CFI EndBlock cfiCond129
          CFI EndBlock cfiCond130
          CFI EndBlock cfiCond131
          CFI EndBlock cfiCond132
          CFI EndBlock cfiCond133
          CFI EndBlock cfiCond134
          CFI EndBlock cfiCond135
          CFI EndBlock cfiCond136
          CFI EndBlock cfiCond137
          CFI EndBlock cfiCond138
          CFI EndBlock cfiCond139
          CFI EndBlock cfiCond140
          CFI EndBlock cfiCond141
          CFI EndBlock cfiCond142
          CFI EndBlock cfiCond143
          CFI EndBlock cfiCond144
          CFI EndBlock cfiCond145
          CFI EndBlock cfiCond146
          CFI EndBlock cfiPicker147

        RSEG BANKED_CODE:CODE:NOROOT(0)
?Subroutine13:
          CFI Block cfiCond148 Using cfiCommon0
          CFI Function zll_UpdateFreeRanges
          CFI Conditional ??CrossCallReturnLabel_99
          CFI DPL0 Frame(CFA_SP, 4)
          CFI DPH0 Frame(CFA_SP, 5)
          CFI CFA_SP SP+-5
          CFI Block cfiCond149 Using cfiCommon0
          CFI (cfiCond149) Function zll_UpdateFreeRanges
          CFI (cfiCond149) Conditional ??CrossCallReturnLabel_100
          CFI (cfiCond149) DPL0 Frame(CFA_SP, 4)
          CFI (cfiCond149) DPH0 Frame(CFA_SP, 5)
          CFI (cfiCond149) CFA_SP SP+-5
          CFI Block cfiCond150 Using cfiCommon0
          CFI (cfiCond150) Function zll_UpdateFreeRanges
          CFI (cfiCond150) Conditional ??CrossCallReturnLabel_101
          CFI (cfiCond150) DPL0 Frame(CFA_SP, 4)
          CFI (cfiCond150) DPH0 Frame(CFA_SP, 5)
          CFI (cfiCond150) CFA_SP SP+-5
          CFI Block cfiCond151 Using cfiCommon0
          CFI (cfiCond151) Function zll_UpdateFreeRanges
          CFI (cfiCond151) Conditional ??CrossCallReturnLabel_102
          CFI (cfiCond151) DPL0 Frame(CFA_SP, 4)
          CFI (cfiCond151) DPH0 Frame(CFA_SP, 5)
          CFI (cfiCond151) CFA_SP SP+-5
          CFI Block cfiCond152 Using cfiCommon0
          CFI (cfiCond152) Function zll_UpdateFreeRanges
          CFI (cfiCond152) Conditional ??CrossCallReturnLabel_103
          CFI (cfiCond152) DPL0 Frame(CFA_SP, 4)
          CFI (cfiCond152) DPH0 Frame(CFA_SP, 5)
          CFI (cfiCond152) CFA_SP SP+-5
          CFI Block cfiCond153 Using cfiCommon0
          CFI (cfiCond153) Function zll_UpdateFreeRanges
          CFI (cfiCond153) Conditional ??CrossCallReturnLabel_104
          CFI (cfiCond153) DPL0 Frame(CFA_SP, 4)
          CFI (cfiCond153) DPH0 Frame(CFA_SP, 5)
          CFI (cfiCond153) CFA_SP SP+-5
          CFI Block cfiPicker154 Using cfiCommon1
          CFI (cfiPicker154) NoFunction
          CFI (cfiPicker154) Picker
        MOV     DPL,A
        MOV     A,R3
        ADDC    A,#0x0
          CFI EndBlock cfiCond148
          CFI EndBlock cfiCond149
          CFI EndBlock cfiCond150
          CFI EndBlock cfiCond151
          CFI EndBlock cfiCond152
          CFI EndBlock cfiCond153
          CFI EndBlock cfiPicker154
        REQUIRE ??Subroutine42_0
        ; // Fall through to label ??Subroutine42_0

        RSEG BANKED_CODE:CODE:NOROOT(0)
??Subroutine42_0:
          CFI Block cfiCond155 Using cfiCommon0
          CFI Function zll_GetSubDeviceInfo
          CFI Conditional ??CrossCallReturnLabel_98
          CFI R6 load(1, XDATA, add(CFA_XSP16, literal(-14)))
          CFI VB load(1, XDATA, add(CFA_XSP16, literal(-13)))
          CFI V0 load(1, XDATA, add(CFA_XSP16, literal(-12)))
          CFI V1 load(1, XDATA, add(CFA_XSP16, literal(-11)))
          CFI V2 load(1, XDATA, add(CFA_XSP16, literal(-10)))
          CFI V3 load(1, XDATA, add(CFA_XSP16, literal(-9)))
          CFI V4 load(1, XDATA, add(CFA_XSP16, literal(-8)))
          CFI V5 load(1, XDATA, add(CFA_XSP16, literal(-7)))
          CFI R7 load(1, XDATA, add(CFA_XSP16, literal(-6)))
          CFI ?RET_LOW load(1, XDATA, add(CFA_XSP16, literal(-5)))
          CFI ?RET_HIGH load(1, XDATA, add(CFA_XSP16, literal(-4)))
          CFI ?BRET_EXT load(1, XDATA, add(CFA_XSP16, literal(-3)))
          CFI DPL0 load(1, XDATA, add(CFA_XSP16, literal(-2)))
          CFI DPH0 load(1, XDATA, add(CFA_XSP16, literal(-1)))
          CFI CFA_SP SP+0
          CFI CFA_XSP16 add(XSP16, 14)
          CFI Block cfiCond156 Using cfiCommon0
          CFI (cfiCond156) Function zll_UpdateFreeRanges
          CFI (cfiCond156) Conditional ??CrossCallReturnLabel_99
          CFI (cfiCond156) DPL0 Frame(CFA_SP, 4)
          CFI (cfiCond156) DPH0 Frame(CFA_SP, 5)
          CFI (cfiCond156) CFA_SP SP+-5
          CFI Block cfiCond157 Using cfiCommon0
          CFI (cfiCond157) Function zll_UpdateFreeRanges
          CFI (cfiCond157) Conditional ??CrossCallReturnLabel_100
          CFI (cfiCond157) DPL0 Frame(CFA_SP, 4)
          CFI (cfiCond157) DPH0 Frame(CFA_SP, 5)
          CFI (cfiCond157) CFA_SP SP+-5
          CFI Block cfiCond158 Using cfiCommon0
          CFI (cfiCond158) Function zll_UpdateFreeRanges
          CFI (cfiCond158) Conditional ??CrossCallReturnLabel_101
          CFI (cfiCond158) DPL0 Frame(CFA_SP, 4)
          CFI (cfiCond158) DPH0 Frame(CFA_SP, 5)
          CFI (cfiCond158) CFA_SP SP+-5
          CFI Block cfiCond159 Using cfiCommon0
          CFI (cfiCond159) Function zll_UpdateFreeRanges
          CFI (cfiCond159) Conditional ??CrossCallReturnLabel_102
          CFI (cfiCond159) DPL0 Frame(CFA_SP, 4)
          CFI (cfiCond159) DPH0 Frame(CFA_SP, 5)
          CFI (cfiCond159) CFA_SP SP+-5
          CFI Block cfiCond160 Using cfiCommon0
          CFI (cfiCond160) Function zll_UpdateFreeRanges
          CFI (cfiCond160) Conditional ??CrossCallReturnLabel_103
          CFI (cfiCond160) DPL0 Frame(CFA_SP, 4)
          CFI (cfiCond160) DPH0 Frame(CFA_SP, 5)
          CFI (cfiCond160) CFA_SP SP+-5
          CFI Block cfiCond161 Using cfiCommon0
          CFI (cfiCond161) Function zll_UpdateFreeRanges
          CFI (cfiCond161) Conditional ??CrossCallReturnLabel_104
          CFI (cfiCond161) DPL0 Frame(CFA_SP, 4)
          CFI (cfiCond161) DPH0 Frame(CFA_SP, 5)
          CFI (cfiCond161) CFA_SP SP+-5
          CFI Block cfiPicker162 Using cfiCommon1
          CFI (cfiPicker162) NoFunction
          CFI (cfiPicker162) Picker
        MOV     DPH,A
          CFI EndBlock cfiCond155
          CFI EndBlock cfiCond156
          CFI EndBlock cfiCond157
          CFI EndBlock cfiCond158
          CFI EndBlock cfiCond159
          CFI EndBlock cfiCond160
          CFI EndBlock cfiCond161
          CFI EndBlock cfiPicker162
        REQUIRE ??Subroutine43_0
        ; // Fall through to label ??Subroutine43_0

        RSEG BANKED_CODE:CODE:NOROOT(0)
??Subroutine43_0:
          CFI Block cfiCond163 Using cfiCommon0
          CFI Function zll_IsValidSplitFreeRanges
          CFI Conditional ??CrossCallReturnLabel_92
          CFI R6 load(1, XDATA, add(CFA_XSP16, literal(-10)))
          CFI VB load(1, XDATA, add(CFA_XSP16, literal(-9)))
          CFI V0 load(1, XDATA, add(CFA_XSP16, literal(-8)))
          CFI V1 load(1, XDATA, add(CFA_XSP16, literal(-7)))
          CFI R7 load(1, XDATA, add(CFA_XSP16, literal(-6)))
          CFI ?RET_LOW load(1, XDATA, add(CFA_XSP16, literal(-5)))
          CFI ?RET_HIGH load(1, XDATA, add(CFA_XSP16, literal(-4)))
          CFI ?BRET_EXT load(1, XDATA, add(CFA_XSP16, literal(-3)))
          CFI DPL0 load(1, XDATA, add(CFA_XSP16, literal(-2)))
          CFI DPH0 load(1, XDATA, add(CFA_XSP16, literal(-1)))
          CFI CFA_SP SP+0
          CFI CFA_XSP16 add(XSP16, 10)
          CFI Block cfiCond164 Using cfiCommon0
          CFI (cfiCond164) Function zll_IsValidSplitFreeRanges
          CFI (cfiCond164) Conditional ??CrossCallReturnLabel_93
          CFI (cfiCond164) R6 load(1, XDATA, add(CFA_XSP16, literal(-10)))
          CFI (cfiCond164) VB load(1, XDATA, add(CFA_XSP16, literal(-9)))
          CFI (cfiCond164) V0 load(1, XDATA, add(CFA_XSP16, literal(-8)))
          CFI (cfiCond164) V1 load(1, XDATA, add(CFA_XSP16, literal(-7)))
          CFI (cfiCond164) R7 load(1, XDATA, add(CFA_XSP16, literal(-6)))
          CFI (cfiCond164) ?RET_LOW load(1, XDATA, add(CFA_XSP16, literal(-5)))
          CFI (cfiCond164) ?RET_HIGH load(1, XDATA, add(CFA_XSP16, literal(-4)))
          CFI (cfiCond164) ?BRET_EXT load(1, XDATA, add(CFA_XSP16, literal(-3)))
          CFI (cfiCond164) DPL0 load(1, XDATA, add(CFA_XSP16, literal(-2)))
          CFI (cfiCond164) DPH0 load(1, XDATA, add(CFA_XSP16, literal(-1)))
          CFI (cfiCond164) CFA_SP SP+0
          CFI (cfiCond164) CFA_XSP16 add(XSP16, 10)
          CFI Block cfiCond165 Using cfiCommon0
          CFI (cfiCond165) Function zll_SplitFreeRanges
          CFI (cfiCond165) Conditional ??CrossCallReturnLabel_94
          CFI (cfiCond165) R6 load(1, XDATA, add(CFA_XSP16, literal(-18)))
          CFI (cfiCond165) VB load(1, XDATA, add(CFA_XSP16, literal(-17)))
          CFI (cfiCond165) V0 load(1, XDATA, add(CFA_XSP16, literal(-16)))
          CFI (cfiCond165) V1 load(1, XDATA, add(CFA_XSP16, literal(-15)))
          CFI (cfiCond165) V2 load(1, XDATA, add(CFA_XSP16, literal(-14)))
          CFI (cfiCond165) V3 load(1, XDATA, add(CFA_XSP16, literal(-13)))
          CFI (cfiCond165) V4 load(1, XDATA, add(CFA_XSP16, literal(-12)))
          CFI (cfiCond165) V5 load(1, XDATA, add(CFA_XSP16, literal(-11)))
          CFI (cfiCond165) V6 load(1, XDATA, add(CFA_XSP16, literal(-10)))
          CFI (cfiCond165) V7 load(1, XDATA, add(CFA_XSP16, literal(-9)))
          CFI (cfiCond165) V8 load(1, XDATA, add(CFA_XSP16, literal(-8)))
          CFI (cfiCond165) V9 load(1, XDATA, add(CFA_XSP16, literal(-7)))
          CFI (cfiCond165) R7 load(1, XDATA, add(CFA_XSP16, literal(-6)))
          CFI (cfiCond165) ?RET_LOW load(1, XDATA, add(CFA_XSP16, literal(-5)))
          CFI (cfiCond165) ?RET_HIGH load(1, XDATA, add(CFA_XSP16, literal(-4)))
          CFI (cfiCond165) ?BRET_EXT load(1, XDATA, add(CFA_XSP16, literal(-3)))
          CFI (cfiCond165) DPL0 load(1, XDATA, add(CFA_XSP16, literal(-2)))
          CFI (cfiCond165) DPH0 load(1, XDATA, add(CFA_XSP16, literal(-1)))
          CFI (cfiCond165) CFA_SP SP+0
          CFI (cfiCond165) CFA_XSP16 add(XSP16, 18)
          CFI Block cfiCond166 Using cfiCommon0
          CFI (cfiCond166) Function zll_PopGrpIDRange
          CFI (cfiCond166) Conditional ??CrossCallReturnLabel_95
          CFI (cfiCond166) R6 load(1, XDATA, add(CFA_XSP16, literal(-10)))
          CFI (cfiCond166) VB load(1, XDATA, add(CFA_XSP16, literal(-9)))
          CFI (cfiCond166) V0 load(1, XDATA, add(CFA_XSP16, literal(-8)))
          CFI (cfiCond166) V1 load(1, XDATA, add(CFA_XSP16, literal(-7)))
          CFI (cfiCond166) R7 load(1, XDATA, add(CFA_XSP16, literal(-6)))
          CFI (cfiCond166) ?RET_LOW load(1, XDATA, add(CFA_XSP16, literal(-5)))
          CFI (cfiCond166) ?RET_HIGH load(1, XDATA, add(CFA_XSP16, literal(-4)))
          CFI (cfiCond166) ?BRET_EXT load(1, XDATA, add(CFA_XSP16, literal(-3)))
          CFI (cfiCond166) DPL0 load(1, XDATA, add(CFA_XSP16, literal(-2)))
          CFI (cfiCond166) DPH0 load(1, XDATA, add(CFA_XSP16, literal(-1)))
          CFI (cfiCond166) CFA_SP SP+0
          CFI (cfiCond166) CFA_XSP16 add(XSP16, 10)
          CFI Block cfiCond167 Using cfiCommon0
          CFI (cfiCond167) Function zll_SendScanRsp
          CFI (cfiCond167) Conditional ??CrossCallReturnLabel_96
          CFI (cfiCond167) R6 load(1, XDATA, add(CFA_XSP16, literal(-22)))
          CFI (cfiCond167) VB load(1, XDATA, add(CFA_XSP16, literal(-21)))
          CFI (cfiCond167) V0 load(1, XDATA, add(CFA_XSP16, literal(-20)))
          CFI (cfiCond167) V1 load(1, XDATA, add(CFA_XSP16, literal(-19)))
          CFI (cfiCond167) V2 load(1, XDATA, add(CFA_XSP16, literal(-18)))
          CFI (cfiCond167) V3 load(1, XDATA, add(CFA_XSP16, literal(-17)))
          CFI (cfiCond167) V4 load(1, XDATA, add(CFA_XSP16, literal(-16)))
          CFI (cfiCond167) V5 load(1, XDATA, add(CFA_XSP16, literal(-15)))
          CFI (cfiCond167) V6 load(1, XDATA, add(CFA_XSP16, literal(-14)))
          CFI (cfiCond167) V7 load(1, XDATA, add(CFA_XSP16, literal(-13)))
          CFI (cfiCond167) V8 load(1, XDATA, add(CFA_XSP16, literal(-12)))
          CFI (cfiCond167) V9 load(1, XDATA, add(CFA_XSP16, literal(-11)))
          CFI (cfiCond167) V10 load(1, XDATA, add(CFA_XSP16, literal(-10)))
          CFI (cfiCond167) V11 load(1, XDATA, add(CFA_XSP16, literal(-9)))
          CFI (cfiCond167) V12 load(1, XDATA, add(CFA_XSP16, literal(-8)))
          CFI (cfiCond167) V13 load(1, XDATA, add(CFA_XSP16, literal(-7)))
          CFI (cfiCond167) R7 load(1, XDATA, add(CFA_XSP16, literal(-6)))
          CFI (cfiCond167) ?RET_LOW load(1, XDATA, add(CFA_XSP16, literal(-5)))
          CFI (cfiCond167) ?RET_HIGH load(1, XDATA, add(CFA_XSP16, literal(-4)))
          CFI (cfiCond167) ?BRET_EXT load(1, XDATA, add(CFA_XSP16, literal(-3)))
          CFI (cfiCond167) DPL0 load(1, XDATA, add(CFA_XSP16, literal(-2)))
          CFI (cfiCond167) DPH0 load(1, XDATA, add(CFA_XSP16, literal(-1)))
          CFI (cfiCond167) CFA_SP SP+0
          CFI (cfiCond167) CFA_XSP16 add(XSP16, 22)
          CFI Block cfiCond168 Using cfiCommon0
          CFI (cfiCond168) Function zll_BeaconIndCB
          CFI (cfiCond168) Conditional ??CrossCallReturnLabel_97
          CFI (cfiCond168) R6 load(1, XDATA, add(CFA_XSP16, literal(-20)))
          CFI (cfiCond168) VB load(1, XDATA, add(CFA_XSP16, literal(-19)))
          CFI (cfiCond168) V0 load(1, XDATA, add(CFA_XSP16, literal(-18)))
          CFI (cfiCond168) V1 load(1, XDATA, add(CFA_XSP16, literal(-17)))
          CFI (cfiCond168) V2 load(1, XDATA, add(CFA_XSP16, literal(-16)))
          CFI (cfiCond168) V3 load(1, XDATA, add(CFA_XSP16, literal(-15)))
          CFI (cfiCond168) V4 load(1, XDATA, add(CFA_XSP16, literal(-14)))
          CFI (cfiCond168) V5 load(1, XDATA, add(CFA_XSP16, literal(-13)))
          CFI (cfiCond168) V6 load(1, XDATA, add(CFA_XSP16, literal(-12)))
          CFI (cfiCond168) V7 load(1, XDATA, add(CFA_XSP16, literal(-11)))
          CFI (cfiCond168) V8 load(1, XDATA, add(CFA_XSP16, literal(-10)))
          CFI (cfiCond168) V9 load(1, XDATA, add(CFA_XSP16, literal(-9)))
          CFI (cfiCond168) V10 load(1, XDATA, add(CFA_XSP16, literal(-8)))
          CFI (cfiCond168) V11 load(1, XDATA, add(CFA_XSP16, literal(-7)))
          CFI (cfiCond168) R7 load(1, XDATA, add(CFA_XSP16, literal(-6)))
          CFI (cfiCond168) ?RET_LOW load(1, XDATA, add(CFA_XSP16, literal(-5)))
          CFI (cfiCond168) ?RET_HIGH load(1, XDATA, add(CFA_XSP16, literal(-4)))
          CFI (cfiCond168) ?BRET_EXT load(1, XDATA, add(CFA_XSP16, literal(-3)))
          CFI (cfiCond168) DPL0 load(1, XDATA, add(CFA_XSP16, literal(-2)))
          CFI (cfiCond168) DPH0 load(1, XDATA, add(CFA_XSP16, literal(-1)))
          CFI (cfiCond168) CFA_SP SP+0
          CFI (cfiCond168) CFA_XSP16 add(XSP16, 20)
          CFI Block cfiCond169 Using cfiCommon0
          CFI (cfiCond169) Function zll_GetSubDeviceInfo
          CFI (cfiCond169) Conditional ??CrossCallReturnLabel_98
          CFI (cfiCond169) R6 load(1, XDATA, add(CFA_XSP16, literal(-14)))
          CFI (cfiCond169) VB load(1, XDATA, add(CFA_XSP16, literal(-13)))
          CFI (cfiCond169) V0 load(1, XDATA, add(CFA_XSP16, literal(-12)))
          CFI (cfiCond169) V1 load(1, XDATA, add(CFA_XSP16, literal(-11)))
          CFI (cfiCond169) V2 load(1, XDATA, add(CFA_XSP16, literal(-10)))
          CFI (cfiCond169) V3 load(1, XDATA, add(CFA_XSP16, literal(-9)))
          CFI (cfiCond169) V4 load(1, XDATA, add(CFA_XSP16, literal(-8)))
          CFI (cfiCond169) V5 load(1, XDATA, add(CFA_XSP16, literal(-7)))
          CFI (cfiCond169) R7 load(1, XDATA, add(CFA_XSP16, literal(-6)))
          CFI (cfiCond169) ?RET_LOW load(1, XDATA, add(CFA_XSP16, literal(-5)))
          CFI (cfiCond169) ?RET_HIGH load(1, XDATA, add(CFA_XSP16, literal(-4)))
          CFI (cfiCond169) ?BRET_EXT load(1, XDATA, add(CFA_XSP16, literal(-3)))
          CFI (cfiCond169) DPL0 load(1, XDATA, add(CFA_XSP16, literal(-2)))
          CFI (cfiCond169) DPH0 load(1, XDATA, add(CFA_XSP16, literal(-1)))
          CFI (cfiCond169) CFA_SP SP+0
          CFI (cfiCond169) CFA_XSP16 add(XSP16, 14)
          CFI Block cfiCond170 Using cfiCommon0
          CFI (cfiCond170) Function zll_UpdateFreeRanges
          CFI (cfiCond170) Conditional ??CrossCallReturnLabel_99
          CFI (cfiCond170) DPL0 Frame(CFA_SP, 4)
          CFI (cfiCond170) DPH0 Frame(CFA_SP, 5)
          CFI (cfiCond170) CFA_SP SP+-5
          CFI Block cfiCond171 Using cfiCommon0
          CFI (cfiCond171) Function zll_UpdateFreeRanges
          CFI (cfiCond171) Conditional ??CrossCallReturnLabel_100
          CFI (cfiCond171) DPL0 Frame(CFA_SP, 4)
          CFI (cfiCond171) DPH0 Frame(CFA_SP, 5)
          CFI (cfiCond171) CFA_SP SP+-5
          CFI Block cfiCond172 Using cfiCommon0
          CFI (cfiCond172) Function zll_UpdateFreeRanges
          CFI (cfiCond172) Conditional ??CrossCallReturnLabel_101
          CFI (cfiCond172) DPL0 Frame(CFA_SP, 4)
          CFI (cfiCond172) DPH0 Frame(CFA_SP, 5)
          CFI (cfiCond172) CFA_SP SP+-5
          CFI Block cfiCond173 Using cfiCommon0
          CFI (cfiCond173) Function zll_UpdateFreeRanges
          CFI (cfiCond173) Conditional ??CrossCallReturnLabel_102
          CFI (cfiCond173) DPL0 Frame(CFA_SP, 4)
          CFI (cfiCond173) DPH0 Frame(CFA_SP, 5)
          CFI (cfiCond173) CFA_SP SP+-5
          CFI Block cfiCond174 Using cfiCommon0
          CFI (cfiCond174) Function zll_UpdateFreeRanges
          CFI (cfiCond174) Conditional ??CrossCallReturnLabel_103
          CFI (cfiCond174) DPL0 Frame(CFA_SP, 4)
          CFI (cfiCond174) DPH0 Frame(CFA_SP, 5)
          CFI (cfiCond174) CFA_SP SP+-5
          CFI Block cfiCond175 Using cfiCommon0
          CFI (cfiCond175) Function zll_UpdateFreeRanges
          CFI (cfiCond175) Conditional ??CrossCallReturnLabel_104
          CFI (cfiCond175) DPL0 Frame(CFA_SP, 4)
          CFI (cfiCond175) DPH0 Frame(CFA_SP, 5)
          CFI (cfiCond175) CFA_SP SP+-5
          CFI Block cfiPicker176 Using cfiCommon1
          CFI (cfiPicker176) NoFunction
          CFI (cfiPicker176) Picker
        MOVX    A,@DPTR
        MOV     R0,A
        INC     DPTR
        MOVX    A,@DPTR
        MOV     R1,A
        RET
          CFI EndBlock cfiCond163
          CFI EndBlock cfiCond164
          CFI EndBlock cfiCond165
          CFI EndBlock cfiCond166
          CFI EndBlock cfiCond167
          CFI EndBlock cfiCond168
          CFI EndBlock cfiCond169
          CFI EndBlock cfiCond170
          CFI EndBlock cfiCond171
          CFI EndBlock cfiCond172
          CFI EndBlock cfiCond173
          CFI EndBlock cfiCond174
          CFI EndBlock cfiCond175
          CFI EndBlock cfiPicker176

        RSEG BANKED_CODE:CODE:NOROOT(0)
?Subroutine8:
          CFI Block cfiCond177 Using cfiCommon0
          CFI Function zll_RouterProcessZDOMsg
          CFI Conditional ??CrossCallReturnLabel_110
          CFI R6 load(1, XDATA, add(CFA_XSP16, literal(-10)))
          CFI VB load(1, XDATA, add(CFA_XSP16, literal(-9)))
          CFI V0 load(1, XDATA, add(CFA_XSP16, literal(-8)))
          CFI V1 load(1, XDATA, add(CFA_XSP16, literal(-7)))
          CFI R7 load(1, XDATA, add(CFA_XSP16, literal(-6)))
          CFI ?RET_LOW load(1, XDATA, add(CFA_XSP16, literal(-5)))
          CFI ?RET_HIGH load(1, XDATA, add(CFA_XSP16, literal(-4)))
          CFI ?BRET_EXT load(1, XDATA, add(CFA_XSP16, literal(-3)))
          CFI DPL0 load(1, XDATA, add(CFA_XSP16, literal(-2)))
          CFI DPH0 load(1, XDATA, add(CFA_XSP16, literal(-1)))
          CFI CFA_SP SP+0
          CFI CFA_XSP16 add(XSP16, 22)
          CFI Block cfiCond178 Using cfiCommon0
          CFI (cfiCond178) Function zll_RouterProcessZDOMsg
          CFI (cfiCond178) Conditional ??CrossCallReturnLabel_111
          CFI (cfiCond178) R6 load(1, XDATA, add(CFA_XSP16, literal(-10)))
          CFI (cfiCond178) VB load(1, XDATA, add(CFA_XSP16, literal(-9)))
          CFI (cfiCond178) V0 load(1, XDATA, add(CFA_XSP16, literal(-8)))
          CFI (cfiCond178) V1 load(1, XDATA, add(CFA_XSP16, literal(-7)))
          CFI (cfiCond178) R7 load(1, XDATA, add(CFA_XSP16, literal(-6)))
          CFI (cfiCond178) ?RET_LOW load(1, XDATA, add(CFA_XSP16, literal(-5)))
          CFI (cfiCond178) ?RET_HIGH load(1, XDATA, add(CFA_XSP16, literal(-4)))
          CFI (cfiCond178) ?BRET_EXT load(1, XDATA, add(CFA_XSP16, literal(-3)))
          CFI (cfiCond178) DPL0 load(1, XDATA, add(CFA_XSP16, literal(-2)))
          CFI (cfiCond178) DPH0 load(1, XDATA, add(CFA_XSP16, literal(-1)))
          CFI (cfiCond178) CFA_SP SP+0
          CFI (cfiCond178) CFA_XSP16 add(XSP16, 22)
          CFI Block cfiCond179 Using cfiCommon0
          CFI (cfiCond179) Function zll_RouterProcessZDOMsg
          CFI (cfiCond179) Conditional ??CrossCallReturnLabel_112
          CFI (cfiCond179) R6 load(1, XDATA, add(CFA_XSP16, literal(-10)))
          CFI (cfiCond179) VB load(1, XDATA, add(CFA_XSP16, literal(-9)))
          CFI (cfiCond179) V0 load(1, XDATA, add(CFA_XSP16, literal(-8)))
          CFI (cfiCond179) V1 load(1, XDATA, add(CFA_XSP16, literal(-7)))
          CFI (cfiCond179) R7 load(1, XDATA, add(CFA_XSP16, literal(-6)))
          CFI (cfiCond179) ?RET_LOW load(1, XDATA, add(CFA_XSP16, literal(-5)))
          CFI (cfiCond179) ?RET_HIGH load(1, XDATA, add(CFA_XSP16, literal(-4)))
          CFI (cfiCond179) ?BRET_EXT load(1, XDATA, add(CFA_XSP16, literal(-3)))
          CFI (cfiCond179) DPL0 load(1, XDATA, add(CFA_XSP16, literal(-2)))
          CFI (cfiCond179) DPH0 load(1, XDATA, add(CFA_XSP16, literal(-1)))
          CFI (cfiCond179) CFA_SP SP+0
          CFI (cfiCond179) CFA_XSP16 add(XSP16, 22)
          CFI Block cfiPicker180 Using cfiCommon1
          CFI (cfiPicker180) NoFunction
          CFI (cfiPicker180) Picker
        MOV     DPTR,#_NIB + 33
          CFI EndBlock cfiCond177
          CFI EndBlock cfiCond178
          CFI EndBlock cfiCond179
          CFI EndBlock cfiPicker180
        REQUIRE ??Subroutine44_0
        ; // Fall through to label ??Subroutine44_0

        RSEG BANKED_CODE:CODE:NOROOT(0)
??Subroutine44_0:
          CFI Block cfiCond181 Using cfiCommon0
          CFI Function zll_RegisterApp
          CFI Conditional ??CrossCallReturnLabel_105
          CFI R6 load(1, XDATA, add(CFA_XSP16, literal(-10)))
          CFI VB load(1, XDATA, add(CFA_XSP16, literal(-9)))
          CFI V0 load(1, XDATA, add(CFA_XSP16, literal(-8)))
          CFI V1 load(1, XDATA, add(CFA_XSP16, literal(-7)))
          CFI R7 load(1, XDATA, add(CFA_XSP16, literal(-6)))
          CFI ?RET_LOW load(1, XDATA, add(CFA_XSP16, literal(-5)))
          CFI ?RET_HIGH load(1, XDATA, add(CFA_XSP16, literal(-4)))
          CFI ?BRET_EXT load(1, XDATA, add(CFA_XSP16, literal(-3)))
          CFI DPL0 load(1, XDATA, add(CFA_XSP16, literal(-2)))
          CFI DPH0 load(1, XDATA, add(CFA_XSP16, literal(-1)))
          CFI CFA_SP SP+0
          CFI CFA_XSP16 add(XSP16, 10)
          CFI Block cfiCond182 Using cfiCommon0
          CFI (cfiCond182) Function zll_SplitFreeRanges
          CFI (cfiCond182) Conditional ??CrossCallReturnLabel_106
          CFI (cfiCond182) R6 load(1, XDATA, add(CFA_XSP16, literal(-18)))
          CFI (cfiCond182) VB load(1, XDATA, add(CFA_XSP16, literal(-17)))
          CFI (cfiCond182) V0 load(1, XDATA, add(CFA_XSP16, literal(-16)))
          CFI (cfiCond182) V1 load(1, XDATA, add(CFA_XSP16, literal(-15)))
          CFI (cfiCond182) V2 load(1, XDATA, add(CFA_XSP16, literal(-14)))
          CFI (cfiCond182) V3 load(1, XDATA, add(CFA_XSP16, literal(-13)))
          CFI (cfiCond182) V4 load(1, XDATA, add(CFA_XSP16, literal(-12)))
          CFI (cfiCond182) V5 load(1, XDATA, add(CFA_XSP16, literal(-11)))
          CFI (cfiCond182) V6 load(1, XDATA, add(CFA_XSP16, literal(-10)))
          CFI (cfiCond182) V7 load(1, XDATA, add(CFA_XSP16, literal(-9)))
          CFI (cfiCond182) V8 load(1, XDATA, add(CFA_XSP16, literal(-8)))
          CFI (cfiCond182) V9 load(1, XDATA, add(CFA_XSP16, literal(-7)))
          CFI (cfiCond182) R7 load(1, XDATA, add(CFA_XSP16, literal(-6)))
          CFI (cfiCond182) ?RET_LOW load(1, XDATA, add(CFA_XSP16, literal(-5)))
          CFI (cfiCond182) ?RET_HIGH load(1, XDATA, add(CFA_XSP16, literal(-4)))
          CFI (cfiCond182) ?BRET_EXT load(1, XDATA, add(CFA_XSP16, literal(-3)))
          CFI (cfiCond182) DPL0 load(1, XDATA, add(CFA_XSP16, literal(-2)))
          CFI (cfiCond182) DPH0 load(1, XDATA, add(CFA_XSP16, literal(-1)))
          CFI (cfiCond182) CFA_SP SP+0
          CFI (cfiCond182) CFA_XSP16 add(XSP16, 18)
          CFI Block cfiCond183 Using cfiCommon0
          CFI (cfiCond183) Function zll_SetNIB
          CFI (cfiCond183) Conditional ??CrossCallReturnLabel_107
          CFI (cfiCond183) R6 load(1, XDATA, add(CFA_XSP16, literal(-13)))
          CFI (cfiCond183) VB load(1, XDATA, add(CFA_XSP16, literal(-12)))
          CFI (cfiCond183) V0 load(1, XDATA, add(CFA_XSP16, literal(-11)))
          CFI (cfiCond183) V1 load(1, XDATA, add(CFA_XSP16, literal(-10)))
          CFI (cfiCond183) V2 load(1, XDATA, add(CFA_XSP16, literal(-9)))
          CFI (cfiCond183) V3 load(1, XDATA, add(CFA_XSP16, literal(-8)))
          CFI (cfiCond183) V4 load(1, XDATA, add(CFA_XSP16, literal(-7)))
          CFI (cfiCond183) R7 load(1, XDATA, add(CFA_XSP16, literal(-6)))
          CFI (cfiCond183) ?RET_LOW load(1, XDATA, add(CFA_XSP16, literal(-5)))
          CFI (cfiCond183) ?RET_HIGH load(1, XDATA, add(CFA_XSP16, literal(-4)))
          CFI (cfiCond183) ?BRET_EXT load(1, XDATA, add(CFA_XSP16, literal(-3)))
          CFI (cfiCond183) DPL0 load(1, XDATA, add(CFA_XSP16, literal(-2)))
          CFI (cfiCond183) DPH0 load(1, XDATA, add(CFA_XSP16, literal(-1)))
          CFI (cfiCond183) CFA_SP SP+0
          CFI (cfiCond183) CFA_XSP16 add(XSP16, 13)
          CFI Block cfiCond184 Using cfiCommon0
          CFI (cfiCond184) Function zll_SendScanRsp
          CFI (cfiCond184) Conditional ??CrossCallReturnLabel_108
          CFI (cfiCond184) R6 load(1, XDATA, add(CFA_XSP16, literal(-22)))
          CFI (cfiCond184) VB load(1, XDATA, add(CFA_XSP16, literal(-21)))
          CFI (cfiCond184) V0 load(1, XDATA, add(CFA_XSP16, literal(-20)))
          CFI (cfiCond184) V1 load(1, XDATA, add(CFA_XSP16, literal(-19)))
          CFI (cfiCond184) V2 load(1, XDATA, add(CFA_XSP16, literal(-18)))
          CFI (cfiCond184) V3 load(1, XDATA, add(CFA_XSP16, literal(-17)))
          CFI (cfiCond184) V4 load(1, XDATA, add(CFA_XSP16, literal(-16)))
          CFI (cfiCond184) V5 load(1, XDATA, add(CFA_XSP16, literal(-15)))
          CFI (cfiCond184) V6 load(1, XDATA, add(CFA_XSP16, literal(-14)))
          CFI (cfiCond184) V7 load(1, XDATA, add(CFA_XSP16, literal(-13)))
          CFI (cfiCond184) V8 load(1, XDATA, add(CFA_XSP16, literal(-12)))
          CFI (cfiCond184) V9 load(1, XDATA, add(CFA_XSP16, literal(-11)))
          CFI (cfiCond184) V10 load(1, XDATA, add(CFA_XSP16, literal(-10)))
          CFI (cfiCond184) V11 load(1, XDATA, add(CFA_XSP16, literal(-9)))
          CFI (cfiCond184) V12 load(1, XDATA, add(CFA_XSP16, literal(-8)))
          CFI (cfiCond184) V13 load(1, XDATA, add(CFA_XSP16, literal(-7)))
          CFI (cfiCond184) R7 load(1, XDATA, add(CFA_XSP16, literal(-6)))
          CFI (cfiCond184) ?RET_LOW load(1, XDATA, add(CFA_XSP16, literal(-5)))
          CFI (cfiCond184) ?RET_HIGH load(1, XDATA, add(CFA_XSP16, literal(-4)))
          CFI (cfiCond184) ?BRET_EXT load(1, XDATA, add(CFA_XSP16, literal(-3)))
          CFI (cfiCond184) DPL0 load(1, XDATA, add(CFA_XSP16, literal(-2)))
          CFI (cfiCond184) DPH0 load(1, XDATA, add(CFA_XSP16, literal(-1)))
          CFI (cfiCond184) CFA_SP SP+0
          CFI (cfiCond184) CFA_XSP16 add(XSP16, 22)
          CFI Block cfiCond185 Using cfiCommon0
          CFI (cfiCond185) Function zll_ClassicalCommissioningJoinDiscoveredNwk
          CFI (cfiCond185) Conditional ??CrossCallReturnLabel_109
          CFI (cfiCond185) R6 load(1, XDATA, add(CFA_XSP16, literal(-9)))
          CFI (cfiCond185) VB load(1, XDATA, add(CFA_XSP16, literal(-8)))
          CFI (cfiCond185) V0 load(1, XDATA, add(CFA_XSP16, literal(-7)))
          CFI (cfiCond185) R7 load(1, XDATA, add(CFA_XSP16, literal(-6)))
          CFI (cfiCond185) ?RET_LOW load(1, XDATA, add(CFA_XSP16, literal(-5)))
          CFI (cfiCond185) ?RET_HIGH load(1, XDATA, add(CFA_XSP16, literal(-4)))
          CFI (cfiCond185) ?BRET_EXT load(1, XDATA, add(CFA_XSP16, literal(-3)))
          CFI (cfiCond185) DPL0 load(1, XDATA, add(CFA_XSP16, literal(-2)))
          CFI (cfiCond185) DPH0 load(1, XDATA, add(CFA_XSP16, literal(-1)))
          CFI (cfiCond185) CFA_SP SP+0
          CFI (cfiCond185) CFA_XSP16 add(XSP16, 13)
          CFI Block cfiCond186 Using cfiCommon0
          CFI (cfiCond186) Function zll_RouterProcessZDOMsg
          CFI (cfiCond186) Conditional ??CrossCallReturnLabel_110
          CFI (cfiCond186) R6 load(1, XDATA, add(CFA_XSP16, literal(-10)))
          CFI (cfiCond186) VB load(1, XDATA, add(CFA_XSP16, literal(-9)))
          CFI (cfiCond186) V0 load(1, XDATA, add(CFA_XSP16, literal(-8)))
          CFI (cfiCond186) V1 load(1, XDATA, add(CFA_XSP16, literal(-7)))
          CFI (cfiCond186) R7 load(1, XDATA, add(CFA_XSP16, literal(-6)))
          CFI (cfiCond186) ?RET_LOW load(1, XDATA, add(CFA_XSP16, literal(-5)))
          CFI (cfiCond186) ?RET_HIGH load(1, XDATA, add(CFA_XSP16, literal(-4)))
          CFI (cfiCond186) ?BRET_EXT load(1, XDATA, add(CFA_XSP16, literal(-3)))
          CFI (cfiCond186) DPL0 load(1, XDATA, add(CFA_XSP16, literal(-2)))
          CFI (cfiCond186) DPH0 load(1, XDATA, add(CFA_XSP16, literal(-1)))
          CFI (cfiCond186) CFA_SP SP+0
          CFI (cfiCond186) CFA_XSP16 add(XSP16, 22)
          CFI Block cfiCond187 Using cfiCommon0
          CFI (cfiCond187) Function zll_RouterProcessZDOMsg
          CFI (cfiCond187) Conditional ??CrossCallReturnLabel_111
          CFI (cfiCond187) R6 load(1, XDATA, add(CFA_XSP16, literal(-10)))
          CFI (cfiCond187) VB load(1, XDATA, add(CFA_XSP16, literal(-9)))
          CFI (cfiCond187) V0 load(1, XDATA, add(CFA_XSP16, literal(-8)))
          CFI (cfiCond187) V1 load(1, XDATA, add(CFA_XSP16, literal(-7)))
          CFI (cfiCond187) R7 load(1, XDATA, add(CFA_XSP16, literal(-6)))
          CFI (cfiCond187) ?RET_LOW load(1, XDATA, add(CFA_XSP16, literal(-5)))
          CFI (cfiCond187) ?RET_HIGH load(1, XDATA, add(CFA_XSP16, literal(-4)))
          CFI (cfiCond187) ?BRET_EXT load(1, XDATA, add(CFA_XSP16, literal(-3)))
          CFI (cfiCond187) DPL0 load(1, XDATA, add(CFA_XSP16, literal(-2)))
          CFI (cfiCond187) DPH0 load(1, XDATA, add(CFA_XSP16, literal(-1)))
          CFI (cfiCond187) CFA_SP SP+0
          CFI (cfiCond187) CFA_XSP16 add(XSP16, 22)
          CFI Block cfiCond188 Using cfiCommon0
          CFI (cfiCond188) Function zll_RouterProcessZDOMsg
          CFI (cfiCond188) Conditional ??CrossCallReturnLabel_112
          CFI (cfiCond188) R6 load(1, XDATA, add(CFA_XSP16, literal(-10)))
          CFI (cfiCond188) VB load(1, XDATA, add(CFA_XSP16, literal(-9)))
          CFI (cfiCond188) V0 load(1, XDATA, add(CFA_XSP16, literal(-8)))
          CFI (cfiCond188) V1 load(1, XDATA, add(CFA_XSP16, literal(-7)))
          CFI (cfiCond188) R7 load(1, XDATA, add(CFA_XSP16, literal(-6)))
          CFI (cfiCond188) ?RET_LOW load(1, XDATA, add(CFA_XSP16, literal(-5)))
          CFI (cfiCond188) ?RET_HIGH load(1, XDATA, add(CFA_XSP16, literal(-4)))
          CFI (cfiCond188) ?BRET_EXT load(1, XDATA, add(CFA_XSP16, literal(-3)))
          CFI (cfiCond188) DPL0 load(1, XDATA, add(CFA_XSP16, literal(-2)))
          CFI (cfiCond188) DPH0 load(1, XDATA, add(CFA_XSP16, literal(-1)))
          CFI (cfiCond188) CFA_SP SP+0
          CFI (cfiCond188) CFA_XSP16 add(XSP16, 22)
          CFI Block cfiPicker189 Using cfiCommon1
          CFI (cfiPicker189) NoFunction
          CFI (cfiPicker189) Picker
        MOVX    A,@DPTR
        MOV     R4,A
        INC     DPTR
        MOVX    A,@DPTR
        MOV     R5,A
        RET
          CFI EndBlock cfiCond181
          CFI EndBlock cfiCond182
          CFI EndBlock cfiCond183
          CFI EndBlock cfiCond184
          CFI EndBlock cfiCond185
          CFI EndBlock cfiCond186
          CFI EndBlock cfiCond187
          CFI EndBlock cfiCond188
          CFI EndBlock cfiPicker189
// 1143 
// 1144 /*********************************************************************
// 1145  * @fn      zll_SendDeviceInfoRsp
// 1146  *
// 1147  * @brief   Send out a Device Information Response command.
// 1148  *
// 1149  * @param   srcEP - sender's endpoint
// 1150  * @param   dstAddr - destination address
// 1151  * @param   startIndex - start index
// 1152  * @param   transID - received transaction id
// 1153  * @param   seqNum - received sequence number
// 1154  *
// 1155  * @return  ZStatus_t
// 1156  */

        RSEG BANKED_CODE:CODE:NOROOT(0)
// 1157 uint8 zll_SendDeviceInfoRsp( uint8 srcEP, afAddrType_t *dstAddr, uint8 startIndex,
zll_SendDeviceInfoRsp:
          CFI Block cfiBlock190 Using cfiCommon0
          CFI Function zll_SendDeviceInfoRsp
        CODE
// 1158                              uint32 transID, uint8 seqNum )
// 1159 {
        FUNCALL zll_SendDeviceInfoRsp, zll_GetNumSubDevices
        LOCFRAME ISTACK, 0, STACK
        LOCFRAME PSTACK, 0, STACK
        LOCFRAME XSTACK, 20, STACK
        LOCFRAME IOVERLAY, 0, STATIC
        LOCFRAME DOVERLAY, 0, STATIC
        ARGFRAME ISTACK, 0, STACK
        ARGFRAME PSTACK, 0, STACK
        ARGFRAME XSTACK, 20, STACK
        ARGFRAME IOVERLAY, 0, STATIC
        ARGFRAME DOVERLAY, 0, STATIC
        FUNCALL zll_SendDeviceInfoRsp, osal_mem_alloc
        LOCFRAME ISTACK, 0, STACK
        LOCFRAME PSTACK, 0, STACK
        LOCFRAME XSTACK, 20, STACK
        LOCFRAME IOVERLAY, 0, STATIC
        LOCFRAME DOVERLAY, 0, STATIC
        ARGFRAME ISTACK, 0, STACK
        ARGFRAME PSTACK, 0, STACK
        ARGFRAME XSTACK, 20, STACK
        ARGFRAME IOVERLAY, 0, STATIC
        ARGFRAME DOVERLAY, 0, STATIC
        FUNCALL zll_SendDeviceInfoRsp, zll_GetNumSubDevices
        LOCFRAME ISTACK, 0, STACK
        LOCFRAME PSTACK, 0, STACK
        LOCFRAME XSTACK, 20, STACK
        LOCFRAME IOVERLAY, 0, STATIC
        LOCFRAME DOVERLAY, 0, STATIC
        ARGFRAME ISTACK, 0, STACK
        ARGFRAME PSTACK, 0, STACK
        ARGFRAME XSTACK, 20, STACK
        ARGFRAME IOVERLAY, 0, STATIC
        ARGFRAME DOVERLAY, 0, STATIC
        FUNCALL zll_SendDeviceInfoRsp, NLME_GetExtAddr
        LOCFRAME ISTACK, 0, STACK
        LOCFRAME PSTACK, 0, STACK
        LOCFRAME XSTACK, 20, STACK
        LOCFRAME IOVERLAY, 0, STATIC
        LOCFRAME DOVERLAY, 0, STATIC
        ARGFRAME ISTACK, 0, STACK
        ARGFRAME PSTACK, 0, STACK
        ARGFRAME XSTACK, 20, STACK
        ARGFRAME IOVERLAY, 0, STATIC
        ARGFRAME DOVERLAY, 0, STATIC
        FUNCALL zll_SendDeviceInfoRsp, sAddrExtCpy
        LOCFRAME ISTACK, 0, STACK
        LOCFRAME PSTACK, 0, STACK
        LOCFRAME XSTACK, 20, STACK
        LOCFRAME IOVERLAY, 0, STATIC
        LOCFRAME DOVERLAY, 0, STATIC
        ARGFRAME ISTACK, 0, STACK
        ARGFRAME PSTACK, 0, STACK
        ARGFRAME XSTACK, 20, STACK
        ARGFRAME IOVERLAY, 0, STATIC
        ARGFRAME DOVERLAY, 0, STATIC
        FUNCALL zll_SendDeviceInfoRsp, zll_GetSubDeviceInfo
        LOCFRAME ISTACK, 0, STACK
        LOCFRAME PSTACK, 0, STACK
        LOCFRAME XSTACK, 20, STACK
        LOCFRAME IOVERLAY, 0, STATIC
        LOCFRAME DOVERLAY, 0, STATIC
        ARGFRAME ISTACK, 0, STACK
        ARGFRAME PSTACK, 0, STACK
        ARGFRAME XSTACK, 20, STACK
        ARGFRAME IOVERLAY, 0, STATIC
        ARGFRAME DOVERLAY, 0, STATIC
        FUNCALL zll_SendDeviceInfoRsp, zclLL_Send_DeviceInfoRsp
        LOCFRAME ISTACK, 0, STACK
        LOCFRAME PSTACK, 0, STACK
        LOCFRAME XSTACK, 21, STACK
        LOCFRAME IOVERLAY, 0, STATIC
        LOCFRAME DOVERLAY, 0, STATIC
        ARGFRAME ISTACK, 0, STACK
        ARGFRAME PSTACK, 0, STACK
        ARGFRAME XSTACK, 21, STACK
        ARGFRAME IOVERLAY, 0, STATIC
        ARGFRAME DOVERLAY, 0, STATIC
        FUNCALL zll_SendDeviceInfoRsp, osal_mem_free
        LOCFRAME ISTACK, 0, STACK
        LOCFRAME PSTACK, 0, STACK
        LOCFRAME XSTACK, 20, STACK
        LOCFRAME IOVERLAY, 0, STATIC
        LOCFRAME DOVERLAY, 0, STATIC
        ARGFRAME ISTACK, 0, STACK
        ARGFRAME PSTACK, 0, STACK
        ARGFRAME XSTACK, 20, STACK
        ARGFRAME IOVERLAY, 0, STATIC
        ARGFRAME DOVERLAY, 0, STATIC
        MOV     A,#-0x14
        LCALL   ?BANKED_ENTER_XDATA
          CFI DPH0 load(1, XDATA, add(CFA_XSP16, literal(-1)))
          CFI DPL0 load(1, XDATA, add(CFA_XSP16, literal(-2)))
          CFI ?BRET_EXT load(1, XDATA, add(CFA_XSP16, literal(-3)))
          CFI ?RET_HIGH load(1, XDATA, add(CFA_XSP16, literal(-4)))
          CFI ?RET_LOW load(1, XDATA, add(CFA_XSP16, literal(-5)))
          CFI R7 load(1, XDATA, add(CFA_XSP16, literal(-6)))
          CFI V11 load(1, XDATA, add(CFA_XSP16, literal(-7)))
          CFI V10 load(1, XDATA, add(CFA_XSP16, literal(-8)))
          CFI V9 load(1, XDATA, add(CFA_XSP16, literal(-9)))
          CFI V8 load(1, XDATA, add(CFA_XSP16, literal(-10)))
          CFI V7 load(1, XDATA, add(CFA_XSP16, literal(-11)))
          CFI V6 load(1, XDATA, add(CFA_XSP16, literal(-12)))
          CFI V5 load(1, XDATA, add(CFA_XSP16, literal(-13)))
          CFI V4 load(1, XDATA, add(CFA_XSP16, literal(-14)))
          CFI V3 load(1, XDATA, add(CFA_XSP16, literal(-15)))
          CFI V2 load(1, XDATA, add(CFA_XSP16, literal(-16)))
          CFI V1 load(1, XDATA, add(CFA_XSP16, literal(-17)))
          CFI V0 load(1, XDATA, add(CFA_XSP16, literal(-18)))
          CFI VB load(1, XDATA, add(CFA_XSP16, literal(-19)))
          CFI R6 load(1, XDATA, add(CFA_XSP16, literal(-20)))
          CFI CFA_SP SP+0
          CFI CFA_XSP16 add(XSP16, 20)
        ; Saved register size: 20
        ; Auto size: 0
        MOV     ?V0 + 8,R1
        MOV     ?V0 + 10,R2
        MOV     ?V0 + 11,R3
        MOV     ?V0 + 2,R4
        MOV     ?V0 + 9,R5
        MOV     A,#0x14
        LCALL   ?XSTACK_DISP0_8
        MOV     R0,#?V0 + 4
        LCALL   ?L_MOV_X
// 1160   zclLLDeviceInfoRsp_t *pRsp;
// 1161   uint8 cnt;
// 1162   uint8 rspLen;
// 1163   uint8 status = ZSuccess;
// 1164 
// 1165   cnt = zll_GetNumSubDevices( startIndex );
        ; Setup parameters for call to function zll_GetNumSubDevices
        MOV     R1,?V0 + 2
        LCALL   ??zll_GetNumSubDevices?relay
        MOV     A,R1
        MOV     ?V0 + 3,A
// 1166   if ( cnt > ZLL_DEVICE_INFO_RSP_REC_COUNT_MAX )
        CLR     C
        SUBB    A,#0x6
        JC      ??zll_SendDeviceInfoRsp_0
// 1167   {
// 1168     cnt = ZLL_DEVICE_INFO_RSP_REC_COUNT_MAX; // should be between 0x00-0x05
        MOV     ?V0 + 3,#0x5
// 1169   }
// 1170 
// 1171   rspLen = sizeof( zclLLDeviceInfoRsp_t ) + ( cnt * sizeof( devInfoRec_t ) );
// 1172 
// 1173   pRsp = (zclLLDeviceInfoRsp_t *)osal_mem_alloc( rspLen );
??zll_SendDeviceInfoRsp_0:
        ; Setup parameters for call to function osal_mem_alloc
        MOV     A,?V0 + 3
        SWAP    A
        ANL     A,#0xf0
        ADD     A,#0x9
        MOV     R2,A
        MOV     R3,#0x0
        LCALL   ??osal_mem_alloc?relay
        MOV     ?V0 + 0,R2
        MOV     ?V0 + 1,R3
        MOV     R6,?V0 + 0
        MOV     R7,?V0 + 1
// 1174   if ( pRsp )
        MOV     A,R6
        ORL     A,R7
        JNZ     $+5
        LJMP    ??zll_SendDeviceInfoRsp_1 & 0xFFFF
// 1175   {
// 1176     pRsp->transID = transID;
        MOV     DPL,R6
        MOV     DPH,R7
        MOV     R0,#?V0 + 4
        LCALL   ?L_MOV_TO_X
// 1177 
// 1178     pRsp->numSubDevices = zll_GetNumSubDevices( 0 );
        ; Setup parameters for call to function zll_GetNumSubDevices
        MOV     R1,#0x0
        LCALL   ??zll_GetNumSubDevices?relay
        MOV     A,R1
        MOV     DPL,R6
        MOV     DPH,R7
        INC     DPTR
        INC     DPTR
        INC     DPTR
        INC     DPTR
        LCALL   ?Subroutine33 & 0xFFFF
// 1179     pRsp->startIndex = startIndex;
??CrossCallReturnLabel_43:
        MOV     A,?V0 + 2
        LCALL   ?Subroutine21 & 0xFFFF
// 1180     pRsp->cnt = cnt;
??CrossCallReturnLabel_25:
        MOV     A,?V0 + 3
        MOVX    @DPTR,A
// 1181 
// 1182     for ( uint8 i = 0; i < cnt; i++ )
        MOV     ?V0 + 4,#0x0
        SJMP    ??zll_SendDeviceInfoRsp_2
// 1183     {
// 1184       devInfoRec_t *pRec = &(pRsp->devInfoRec[i]);
??zll_SendDeviceInfoRsp_3:
        MOV     ?V0 + 0,?V0 + 4
        MOV     ?V0 + 1,#0x0
        MOV     A,#0x4
        MOV     R0,#?V0 + 0
        LCALL   ?S_SHL
        MOV     DPL,R6
        MOV     DPH,R7
        INC     DPTR
        INC     DPTR
        INC     DPTR
        INC     DPTR
        INC     DPTR
        INC     DPTR
        INC     DPTR
        MOVX    A,@DPTR
        ADD     A,?V0 + 0
        MOV     ?V0 + 0,A
        INC     DPTR
        MOVX    A,@DPTR
        ADDC    A,?V0 + 1
        MOV     ?V0 + 1,A
// 1185 
// 1186       osal_cpyExtAddr( pRec->ieeeAddr, NLME_GetExtAddr() );
        ; Setup parameters for call to function sAddrExtCpy
        ; Setup parameters for call to function NLME_GetExtAddr
        LCALL   ??NLME_GetExtAddr?relay
        MOV     A,R2
        MOV     R4,A
        MOV     A,R3
        MOV     R5,A
        MOV     R2,?V0 + 0
        MOV     R3,?V0 + 1
        LCALL   ??sAddrExtCpy?relay
// 1187 
// 1188       zll_GetSubDeviceInfo( startIndex + i, &(pRec->deviceInfo) );
        ; Setup parameters for call to function zll_GetSubDeviceInfo
        MOV     A,?V0 + 0
        ADD     A,#0x8
        MOV     R2,A
        MOV     A,?V0 + 1
        ADDC    A,#0x0
        MOV     R3,A
        MOV     A,?V0 + 2
        ADD     A,?V0 + 4
        MOV     R1,A
        LCALL   ??zll_GetSubDeviceInfo?relay
// 1189 
// 1190       pRec->sort = 0;
        MOV     A,?V0 + 0
        ADD     A,#0xf
        MOV     DPL,A
        MOV     A,?V0 + 1
        LCALL   ??Subroutine41_0 & 0xFFFF
// 1191     }
??CrossCallReturnLabel_76:
        CLR     A
        MOVX    @DPTR,A
        INC     ?V0 + 4
??zll_SendDeviceInfoRsp_2:
        MOV     A,?V0 + 4
        CLR     C
        SUBB    A,?V0 + 3
        JC      ??zll_SendDeviceInfoRsp_3
// 1192 
// 1193     // Send a response back
// 1194     status = zclLL_Send_DeviceInfoRsp( srcEP, dstAddr, pRsp, seqNum );
        ; Setup parameters for call to function zclLL_Send_DeviceInfoRsp
        MOV     A,?V0 + 9
        MOV     ?V0 + 0,A
        MOV     R0,#?V0 + 0
        LCALL   ?PUSH_XSTACK_I_ONE
          CFI CFA_XSP16 add(XSP16, 21)
        MOV     A,R6
        MOV     R4,A
        MOV     A,R7
        MOV     R5,A
        MOV     R2,?V0 + 10
        MOV     R3,?V0 + 11
        MOV     R1,?V0 + 8
        LCALL   ??zclLL_Send_DeviceInfoRsp?relay
        MOV     A,#0x1
        LCALL   ?DEALLOC_XSTACK8
          CFI CFA_XSP16 add(XSP16, 20)
        MOV     A,R1
        MOV     ?V0 + 0,A
// 1195 
// 1196     osal_mem_free( pRsp );
        ; Setup parameters for call to function osal_mem_free
        MOV     A,R6
        MOV     R2,A
        MOV     A,R7
        MOV     R3,A
        LCALL   ??osal_mem_free?relay
        SJMP    ??zll_SendDeviceInfoRsp_4
// 1197   }
// 1198   else
// 1199   {
// 1200     status = ZMemError;
??zll_SendDeviceInfoRsp_1:
        MOV     ?V0 + 0,#0x10
// 1201   }
// 1202 
// 1203   return ( status );
??zll_SendDeviceInfoRsp_4:
        MOV     R1,?V0 + 0
          CFI EndBlock cfiBlock190
        REQUIRE ?Subroutine6
        ; // Fall through to label ?Subroutine6
// 1204 }

        RSEG BANKED_CODE:CODE:NOROOT(0)
?Subroutine6:
          CFI Block cfiBlock191 Using cfiCommon0
          CFI NoFunction
          CFI CFA_SP SP+0
          CFI CFA_XSP16 add(XSP16, 20)
          CFI VB load(1, XDATA, add(CFA_XSP16, literal(-19)))
          CFI DPL0 load(1, XDATA, add(CFA_XSP16, literal(-2)))
          CFI DPH0 load(1, XDATA, add(CFA_XSP16, literal(-1)))
          CFI R6 load(1, XDATA, add(CFA_XSP16, literal(-20)))
          CFI R7 load(1, XDATA, add(CFA_XSP16, literal(-6)))
          CFI V0 load(1, XDATA, add(CFA_XSP16, literal(-18)))
          CFI V1 load(1, XDATA, add(CFA_XSP16, literal(-17)))
          CFI V2 load(1, XDATA, add(CFA_XSP16, literal(-16)))
          CFI V3 load(1, XDATA, add(CFA_XSP16, literal(-15)))
          CFI V4 load(1, XDATA, add(CFA_XSP16, literal(-14)))
          CFI V5 load(1, XDATA, add(CFA_XSP16, literal(-13)))
          CFI V6 load(1, XDATA, add(CFA_XSP16, literal(-12)))
          CFI V7 load(1, XDATA, add(CFA_XSP16, literal(-11)))
          CFI V8 load(1, XDATA, add(CFA_XSP16, literal(-10)))
          CFI V9 load(1, XDATA, add(CFA_XSP16, literal(-9)))
          CFI V10 load(1, XDATA, add(CFA_XSP16, literal(-8)))
          CFI V11 load(1, XDATA, add(CFA_XSP16, literal(-7)))
          CFI ?BRET_EXT load(1, XDATA, add(CFA_XSP16, literal(-3)))
          CFI ?RET_HIGH load(1, XDATA, add(CFA_XSP16, literal(-4)))
          CFI ?RET_LOW load(1, XDATA, add(CFA_XSP16, literal(-5)))
        MOV     R7,#0xc
        LJMP    ?BANKED_LEAVE_XDATA
          CFI EndBlock cfiBlock191

        RSEG BANKED_CODE:CODE:NOROOT(0)
?Subroutine21:
          CFI Block cfiCond192 Using cfiCommon0
          CFI Function zll_SendScanRsp
          CFI Conditional ??CrossCallReturnLabel_24
          CFI R6 load(1, XDATA, add(CFA_XSP16, literal(-22)))
          CFI VB load(1, XDATA, add(CFA_XSP16, literal(-21)))
          CFI V0 load(1, XDATA, add(CFA_XSP16, literal(-20)))
          CFI V1 load(1, XDATA, add(CFA_XSP16, literal(-19)))
          CFI V2 load(1, XDATA, add(CFA_XSP16, literal(-18)))
          CFI V3 load(1, XDATA, add(CFA_XSP16, literal(-17)))
          CFI V4 load(1, XDATA, add(CFA_XSP16, literal(-16)))
          CFI V5 load(1, XDATA, add(CFA_XSP16, literal(-15)))
          CFI V6 load(1, XDATA, add(CFA_XSP16, literal(-14)))
          CFI V7 load(1, XDATA, add(CFA_XSP16, literal(-13)))
          CFI V8 load(1, XDATA, add(CFA_XSP16, literal(-12)))
          CFI V9 load(1, XDATA, add(CFA_XSP16, literal(-11)))
          CFI V10 load(1, XDATA, add(CFA_XSP16, literal(-10)))
          CFI V11 load(1, XDATA, add(CFA_XSP16, literal(-9)))
          CFI V12 load(1, XDATA, add(CFA_XSP16, literal(-8)))
          CFI V13 load(1, XDATA, add(CFA_XSP16, literal(-7)))
          CFI R7 load(1, XDATA, add(CFA_XSP16, literal(-6)))
          CFI ?RET_LOW load(1, XDATA, add(CFA_XSP16, literal(-5)))
          CFI ?RET_HIGH load(1, XDATA, add(CFA_XSP16, literal(-4)))
          CFI ?BRET_EXT load(1, XDATA, add(CFA_XSP16, literal(-3)))
          CFI DPL0 load(1, XDATA, add(CFA_XSP16, literal(-2)))
          CFI DPH0 load(1, XDATA, add(CFA_XSP16, literal(-1)))
          CFI CFA_SP SP+0
          CFI CFA_XSP16 add(XSP16, 22)
          CFI Block cfiCond193 Using cfiCommon0
          CFI (cfiCond193) Function zll_SendDeviceInfoRsp
          CFI (cfiCond193) Conditional ??CrossCallReturnLabel_25
          CFI (cfiCond193) R6 load(1, XDATA, add(CFA_XSP16, literal(-20)))
          CFI (cfiCond193) VB load(1, XDATA, add(CFA_XSP16, literal(-19)))
          CFI (cfiCond193) V0 load(1, XDATA, add(CFA_XSP16, literal(-18)))
          CFI (cfiCond193) V1 load(1, XDATA, add(CFA_XSP16, literal(-17)))
          CFI (cfiCond193) V2 load(1, XDATA, add(CFA_XSP16, literal(-16)))
          CFI (cfiCond193) V3 load(1, XDATA, add(CFA_XSP16, literal(-15)))
          CFI (cfiCond193) V4 load(1, XDATA, add(CFA_XSP16, literal(-14)))
          CFI (cfiCond193) V5 load(1, XDATA, add(CFA_XSP16, literal(-13)))
          CFI (cfiCond193) V6 load(1, XDATA, add(CFA_XSP16, literal(-12)))
          CFI (cfiCond193) V7 load(1, XDATA, add(CFA_XSP16, literal(-11)))
          CFI (cfiCond193) V8 load(1, XDATA, add(CFA_XSP16, literal(-10)))
          CFI (cfiCond193) V9 load(1, XDATA, add(CFA_XSP16, literal(-9)))
          CFI (cfiCond193) V10 load(1, XDATA, add(CFA_XSP16, literal(-8)))
          CFI (cfiCond193) V11 load(1, XDATA, add(CFA_XSP16, literal(-7)))
          CFI (cfiCond193) R7 load(1, XDATA, add(CFA_XSP16, literal(-6)))
          CFI (cfiCond193) ?RET_LOW load(1, XDATA, add(CFA_XSP16, literal(-5)))
          CFI (cfiCond193) ?RET_HIGH load(1, XDATA, add(CFA_XSP16, literal(-4)))
          CFI (cfiCond193) ?BRET_EXT load(1, XDATA, add(CFA_XSP16, literal(-3)))
          CFI (cfiCond193) DPL0 load(1, XDATA, add(CFA_XSP16, literal(-2)))
          CFI (cfiCond193) DPH0 load(1, XDATA, add(CFA_XSP16, literal(-1)))
          CFI (cfiCond193) CFA_SP SP+0
          CFI (cfiCond193) CFA_XSP16 add(XSP16, 20)
          CFI Block cfiPicker194 Using cfiCommon1
          CFI (cfiPicker194) NoFunction
          CFI (cfiPicker194) Picker
        LCALL   ?Subroutine33 & 0xFFFF
??CrossCallReturnLabel_44:
        INC     DPTR
        RET
          CFI EndBlock cfiCond192
          CFI EndBlock cfiCond193
          CFI EndBlock cfiPicker194

        RSEG BANKED_CODE:CODE:NOROOT(0)
?Subroutine33:
          CFI Block cfiCond195 Using cfiCommon0
          CFI Function zll_SendDeviceInfoRsp
          CFI Conditional ??CrossCallReturnLabel_43
          CFI R6 load(1, XDATA, add(CFA_XSP16, literal(-20)))
          CFI VB load(1, XDATA, add(CFA_XSP16, literal(-19)))
          CFI V0 load(1, XDATA, add(CFA_XSP16, literal(-18)))
          CFI V1 load(1, XDATA, add(CFA_XSP16, literal(-17)))
          CFI V2 load(1, XDATA, add(CFA_XSP16, literal(-16)))
          CFI V3 load(1, XDATA, add(CFA_XSP16, literal(-15)))
          CFI V4 load(1, XDATA, add(CFA_XSP16, literal(-14)))
          CFI V5 load(1, XDATA, add(CFA_XSP16, literal(-13)))
          CFI V6 load(1, XDATA, add(CFA_XSP16, literal(-12)))
          CFI V7 load(1, XDATA, add(CFA_XSP16, literal(-11)))
          CFI V8 load(1, XDATA, add(CFA_XSP16, literal(-10)))
          CFI V9 load(1, XDATA, add(CFA_XSP16, literal(-9)))
          CFI V10 load(1, XDATA, add(CFA_XSP16, literal(-8)))
          CFI V11 load(1, XDATA, add(CFA_XSP16, literal(-7)))
          CFI R7 load(1, XDATA, add(CFA_XSP16, literal(-6)))
          CFI ?RET_LOW load(1, XDATA, add(CFA_XSP16, literal(-5)))
          CFI ?RET_HIGH load(1, XDATA, add(CFA_XSP16, literal(-4)))
          CFI ?BRET_EXT load(1, XDATA, add(CFA_XSP16, literal(-3)))
          CFI DPL0 load(1, XDATA, add(CFA_XSP16, literal(-2)))
          CFI DPH0 load(1, XDATA, add(CFA_XSP16, literal(-1)))
          CFI CFA_SP SP+0
          CFI CFA_XSP16 add(XSP16, 20)
          CFI Block cfiCond196 Using cfiCommon0
          CFI (cfiCond196) Function zll_SendScanRsp
          CFI (cfiCond196) Conditional ??CrossCallReturnLabel_44, ??CrossCallReturnLabel_24
          CFI (cfiCond196) R6 load(1, XDATA, add(CFA_XSP16, literal(-22)))
          CFI (cfiCond196) VB load(1, XDATA, add(CFA_XSP16, literal(-21)))
          CFI (cfiCond196) V0 load(1, XDATA, add(CFA_XSP16, literal(-20)))
          CFI (cfiCond196) V1 load(1, XDATA, add(CFA_XSP16, literal(-19)))
          CFI (cfiCond196) V2 load(1, XDATA, add(CFA_XSP16, literal(-18)))
          CFI (cfiCond196) V3 load(1, XDATA, add(CFA_XSP16, literal(-17)))
          CFI (cfiCond196) V4 load(1, XDATA, add(CFA_XSP16, literal(-16)))
          CFI (cfiCond196) V5 load(1, XDATA, add(CFA_XSP16, literal(-15)))
          CFI (cfiCond196) V6 load(1, XDATA, add(CFA_XSP16, literal(-14)))
          CFI (cfiCond196) V7 load(1, XDATA, add(CFA_XSP16, literal(-13)))
          CFI (cfiCond196) V8 load(1, XDATA, add(CFA_XSP16, literal(-12)))
          CFI (cfiCond196) V9 load(1, XDATA, add(CFA_XSP16, literal(-11)))
          CFI (cfiCond196) V10 load(1, XDATA, add(CFA_XSP16, literal(-10)))
          CFI (cfiCond196) V11 load(1, XDATA, add(CFA_XSP16, literal(-9)))
          CFI (cfiCond196) V12 load(1, XDATA, add(CFA_XSP16, literal(-8)))
          CFI (cfiCond196) V13 load(1, XDATA, add(CFA_XSP16, literal(-7)))
          CFI (cfiCond196) R7 load(1, XDATA, add(CFA_XSP16, literal(-6)))
          CFI (cfiCond196) ?RET_LOW load(1, XDATA, add(CFA_XSP16, literal(-5)))
          CFI (cfiCond196) ?RET_HIGH load(1, XDATA, add(CFA_XSP16, literal(-4)))
          CFI (cfiCond196) ?BRET_EXT load(1, XDATA, add(CFA_XSP16, literal(-3)))
          CFI (cfiCond196) DPL0 load(1, XDATA, add(CFA_XSP16, literal(-2)))
          CFI (cfiCond196) DPH0 load(1, XDATA, add(CFA_XSP16, literal(-1)))
          CFI (cfiCond196) CFA_SP SP+0
          CFI (cfiCond196) CFA_XSP16 add(XSP16, 22)
          CFI Block cfiCond197 Using cfiCommon0
          CFI (cfiCond197) Function zll_SendDeviceInfoRsp
          CFI (cfiCond197) Conditional ??CrossCallReturnLabel_44, ??CrossCallReturnLabel_25
          CFI (cfiCond197) R6 load(1, XDATA, add(CFA_XSP16, literal(-20)))
          CFI (cfiCond197) VB load(1, XDATA, add(CFA_XSP16, literal(-19)))
          CFI (cfiCond197) V0 load(1, XDATA, add(CFA_XSP16, literal(-18)))
          CFI (cfiCond197) V1 load(1, XDATA, add(CFA_XSP16, literal(-17)))
          CFI (cfiCond197) V2 load(1, XDATA, add(CFA_XSP16, literal(-16)))
          CFI (cfiCond197) V3 load(1, XDATA, add(CFA_XSP16, literal(-15)))
          CFI (cfiCond197) V4 load(1, XDATA, add(CFA_XSP16, literal(-14)))
          CFI (cfiCond197) V5 load(1, XDATA, add(CFA_XSP16, literal(-13)))
          CFI (cfiCond197) V6 load(1, XDATA, add(CFA_XSP16, literal(-12)))
          CFI (cfiCond197) V7 load(1, XDATA, add(CFA_XSP16, literal(-11)))
          CFI (cfiCond197) V8 load(1, XDATA, add(CFA_XSP16, literal(-10)))
          CFI (cfiCond197) V9 load(1, XDATA, add(CFA_XSP16, literal(-9)))
          CFI (cfiCond197) V10 load(1, XDATA, add(CFA_XSP16, literal(-8)))
          CFI (cfiCond197) V11 load(1, XDATA, add(CFA_XSP16, literal(-7)))
          CFI (cfiCond197) R7 load(1, XDATA, add(CFA_XSP16, literal(-6)))
          CFI (cfiCond197) ?RET_LOW load(1, XDATA, add(CFA_XSP16, literal(-5)))
          CFI (cfiCond197) ?RET_HIGH load(1, XDATA, add(CFA_XSP16, literal(-4)))
          CFI (cfiCond197) ?BRET_EXT load(1, XDATA, add(CFA_XSP16, literal(-3)))
          CFI (cfiCond197) DPL0 load(1, XDATA, add(CFA_XSP16, literal(-2)))
          CFI (cfiCond197) DPH0 load(1, XDATA, add(CFA_XSP16, literal(-1)))
          CFI (cfiCond197) CFA_SP SP+0
          CFI (cfiCond197) CFA_XSP16 add(XSP16, 20)
          CFI Block cfiPicker198 Using cfiCommon1
          CFI (cfiPicker198) NoFunction
          CFI (cfiPicker198) Picker
        MOVX    @DPTR,A
        MOV     DPL,R6
        MOV     DPH,R7
        INC     DPTR
        INC     DPTR
        INC     DPTR
        INC     DPTR
        INC     DPTR
        RET
          CFI EndBlock cfiCond195
          CFI EndBlock cfiCond196
          CFI EndBlock cfiCond197
          CFI EndBlock cfiPicker198
// 1205 
// 1206 /*********************************************************************
// 1207  * @fn      zll_SendLeaveReq
// 1208  *
// 1209  * @brief   Send out a Leave Request command.
// 1210  *
// 1211  * @param   void
// 1212  *
// 1213  * @return  ZStatus_t
// 1214  */

        RSEG BANKED_CODE:CODE:NOROOT(0)
// 1215 ZStatus_t zll_SendLeaveReq( void )
zll_SendLeaveReq:
          CFI Block cfiBlock199 Using cfiCommon0
          CFI Function zll_SendLeaveReq
        CODE
// 1216 {
        FUNCALL zll_SendLeaveReq, osal_memset
        LOCFRAME ISTACK, 2, STACK
        LOCFRAME PSTACK, 0, STACK
        LOCFRAME XSTACK, 5, STACK
        LOCFRAME IOVERLAY, 0, STATIC
        LOCFRAME DOVERLAY, 0, STATIC
        ARGFRAME ISTACK, 2, STACK
        ARGFRAME PSTACK, 0, STACK
        ARGFRAME XSTACK, 5, STACK
        ARGFRAME IOVERLAY, 0, STATIC
        ARGFRAME DOVERLAY, 0, STATIC
        FUNCALL zll_SendLeaveReq, NLME_LeaveReq
        LOCFRAME ISTACK, 2, STACK
        LOCFRAME PSTACK, 0, STACK
        LOCFRAME XSTACK, 5, STACK
        LOCFRAME IOVERLAY, 0, STATIC
        LOCFRAME DOVERLAY, 0, STATIC
        ARGFRAME ISTACK, 2, STACK
        ARGFRAME PSTACK, 0, STACK
        ARGFRAME XSTACK, 5, STACK
        ARGFRAME IOVERLAY, 0, STATIC
        ARGFRAME DOVERLAY, 0, STATIC
        PUSH    DPL
          CFI DPL0 Frame(CFA_SP, 4)
          CFI CFA_SP SP+-4
        PUSH    DPH
          CFI DPH0 Frame(CFA_SP, 5)
          CFI CFA_SP SP+-5
        ; Saved register size: 2
        ; Auto size: 5
        MOV     A,#-0x5
        LCALL   ?ALLOC_XSTACK8
          CFI CFA_XSP16 add(XSP16, 5)
// 1217   NLME_LeaveReq_t leaveReq;
// 1218 
// 1219   // Set every field to 0
// 1220   osal_memset( &leaveReq, 0, sizeof( NLME_LeaveReq_t ) );
        ; Setup parameters for call to function osal_memset
        MOV     R4,#0x5
        MOV     R5,#0x0
        MOV     R1,#0x0
        MOV     DPL,?XSP + 0
        MOV     DPH,?XSP + 1
        MOV     R2,DPL
        MOV     R3,DPH
        LCALL   ??osal_memset?relay
// 1221 
// 1222   // Send out our leave
// 1223   return ( NLME_LeaveReq( &leaveReq ) );
        ; Setup parameters for call to function NLME_LeaveReq
        MOV     DPL,?XSP + 0
        MOV     DPH,?XSP + 1
        MOV     R2,DPL
        MOV     R3,DPH
        LCALL   ??NLME_LeaveReq?relay
        MOV     A,#0x5
        LJMP    ?Subroutine1 & 0xFFFF
          CFI EndBlock cfiBlock199
// 1224 }
// 1225 
// 1226 /*********************************************************************
// 1227  * @fn      zll_ResetToFactoryNew
// 1228  *
// 1229  * @brief   Reset to factory new.
// 1230  *
// 1231  * @param   initiator - initialize initiator
// 1232  *
// 1233  * @return  none
// 1234  */

        RSEG BANKED_CODE:CODE:NOROOT(0)
// 1235 void zll_ResetToFactoryNew( bool initiator )
zll_ResetToFactoryNew:
          CFI Block cfiBlock200 Using cfiCommon0
          CFI Function zll_ResetToFactoryNew
        CODE
// 1236 {
        FUNCALL zll_ResetToFactoryNew, zgWriteStartupOptions
        LOCFRAME ISTACK, 0, STACK
        LOCFRAME PSTACK, 0, STACK
        LOCFRAME XSTACK, 9, STACK
        LOCFRAME IOVERLAY, 0, STATIC
        LOCFRAME DOVERLAY, 0, STATIC
        ARGFRAME ISTACK, 0, STACK
        ARGFRAME PSTACK, 0, STACK
        ARGFRAME XSTACK, 9, STACK
        ARGFRAME IOVERLAY, 0, STATIC
        ARGFRAME DOVERLAY, 0, STATIC
        FUNCALL zll_ResetToFactoryNew, zll_SendLeaveReq
        LOCFRAME ISTACK, 0, STACK
        LOCFRAME PSTACK, 0, STACK
        LOCFRAME XSTACK, 9, STACK
        LOCFRAME IOVERLAY, 0, STATIC
        LOCFRAME DOVERLAY, 0, STATIC
        ARGFRAME ISTACK, 0, STACK
        ARGFRAME PSTACK, 0, STACK
        ARGFRAME XSTACK, 9, STACK
        ARGFRAME IOVERLAY, 0, STATIC
        ARGFRAME DOVERLAY, 0, STATIC
        FUNCALL zll_ResetToFactoryNew, ZDApp_LeaveReset
        LOCFRAME ISTACK, 0, STACK
        LOCFRAME PSTACK, 0, STACK
        LOCFRAME XSTACK, 9, STACK
        LOCFRAME IOVERLAY, 0, STATIC
        LOCFRAME DOVERLAY, 0, STATIC
        ARGFRAME ISTACK, 0, STACK
        ARGFRAME PSTACK, 0, STACK
        ARGFRAME XSTACK, 9, STACK
        ARGFRAME IOVERLAY, 0, STATIC
        ARGFRAME DOVERLAY, 0, STATIC
        FUNCALL zll_ResetToFactoryNew, zll_InitFreeRanges
        LOCFRAME ISTACK, 0, STACK
        LOCFRAME PSTACK, 0, STACK
        LOCFRAME XSTACK, 9, STACK
        LOCFRAME IOVERLAY, 0, STATIC
        LOCFRAME DOVERLAY, 0, STATIC
        ARGFRAME ISTACK, 0, STACK
        ARGFRAME PSTACK, 0, STACK
        ARGFRAME XSTACK, 9, STACK
        ARGFRAME IOVERLAY, 0, STATIC
        ARGFRAME DOVERLAY, 0, STATIC
        FUNCALL zll_ResetToFactoryNew, osal_memset
        LOCFRAME ISTACK, 0, STACK
        LOCFRAME PSTACK, 0, STACK
        LOCFRAME XSTACK, 9, STACK
        LOCFRAME IOVERLAY, 0, STATIC
        LOCFRAME DOVERLAY, 0, STATIC
        ARGFRAME ISTACK, 0, STACK
        ARGFRAME PSTACK, 0, STACK
        ARGFRAME XSTACK, 9, STACK
        ARGFRAME IOVERLAY, 0, STATIC
        ARGFRAME DOVERLAY, 0, STATIC
        FUNCALL zll_ResetToFactoryNew, ZDSecMgrUpdateTCAddress
        LOCFRAME ISTACK, 0, STACK
        LOCFRAME PSTACK, 0, STACK
        LOCFRAME XSTACK, 9, STACK
        LOCFRAME IOVERLAY, 0, STATIC
        LOCFRAME DOVERLAY, 0, STATIC
        ARGFRAME ISTACK, 0, STACK
        ARGFRAME PSTACK, 0, STACK
        ARGFRAME XSTACK, 9, STACK
        ARGFRAME IOVERLAY, 0, STATIC
        ARGFRAME DOVERLAY, 0, STATIC
        FUNCALL zll_ResetToFactoryNew, zll_UpdateNV
        LOCFRAME ISTACK, 0, STACK
        LOCFRAME PSTACK, 0, STACK
        LOCFRAME XSTACK, 9, STACK
        LOCFRAME IOVERLAY, 0, STATIC
        LOCFRAME DOVERLAY, 0, STATIC
        ARGFRAME ISTACK, 0, STACK
        ARGFRAME PSTACK, 0, STACK
        ARGFRAME XSTACK, 9, STACK
        ARGFRAME IOVERLAY, 0, STATIC
        ARGFRAME DOVERLAY, 0, STATIC
        MOV     A,#-0x9
        LCALL   ?BANKED_ENTER_XDATA
          CFI DPH0 load(1, XDATA, add(CFA_XSP16, literal(-1)))
          CFI DPL0 load(1, XDATA, add(CFA_XSP16, literal(-2)))
          CFI ?BRET_EXT load(1, XDATA, add(CFA_XSP16, literal(-3)))
          CFI ?RET_HIGH load(1, XDATA, add(CFA_XSP16, literal(-4)))
          CFI ?RET_LOW load(1, XDATA, add(CFA_XSP16, literal(-5)))
          CFI R7 load(1, XDATA, add(CFA_XSP16, literal(-6)))
          CFI V0 load(1, XDATA, add(CFA_XSP16, literal(-7)))
          CFI VB load(1, XDATA, add(CFA_XSP16, literal(-8)))
          CFI R6 load(1, XDATA, add(CFA_XSP16, literal(-9)))
          CFI CFA_SP SP+0
          CFI CFA_XSP16 add(XSP16, 9)
        ; Saved register size: 9
        ; Auto size: 0
        MOV     A,R1
        MOV     R6,A
// 1237   // Set the NV startup option to force a "new" join.
// 1238   zgWriteStartupOptions( ZG_STARTUP_SET, ZCD_STARTOPT_DEFAULT_NETWORK_STATE );
        ; Setup parameters for call to function zgWriteStartupOptions
        MOV     R2,#0x2
        MOV     R1,#-0x1
        LCALL   ??zgWriteStartupOptions?relay
// 1239 
// 1240   // Leave the network, and reset afterwards
// 1241   if ( zll_SendLeaveReq() != ZSuccess )
        ; Setup parameters for call to function zll_SendLeaveReq
        LCALL   ??zll_SendLeaveReq?relay
        MOV     A,R1
        JZ      ??zll_ResetToFactoryNew_0
// 1242   {
// 1243     // Couldn't send out leave; prepare to reset anyway
// 1244     ZDApp_LeaveReset( FALSE );
        ; Setup parameters for call to function ZDApp_LeaveReset
        MOV     R1,#0x0
        LCALL   ??ZDApp_LeaveReset?relay
// 1245   }
// 1246 
// 1247   // Reset our free ranges
// 1248   zll_InitFreeRanges( initiator );
??zll_ResetToFactoryNew_0:
        ; Setup parameters for call to function zll_InitFreeRanges
        MOV     A,R6
        MOV     R1,A
        LCALL   ??zll_InitFreeRanges?relay
// 1249 
// 1250   _NIB.nwkDevAddress = INVALID_NODE_ADDR;
        MOV     DPTR,#_NIB + 20
        LCALL   ?Subroutine26 & 0xFFFF
// 1251   _NIB.nwkCoordAddress = INVALID_NODE_ADDR;
??CrossCallReturnLabel_51:
        MOV     DPTR,#_NIB + 23
        DEC     A
        LCALL   ??Subroutine35_0 & 0xFFFF
// 1252   _NIB.nwkPanId = 0xFFFF;
??CrossCallReturnLabel_48:
        MOV     DPTR,#_NIB + 33
        MOVX    @DPTR,A
        INC     DPTR
        MOVX    @DPTR,A
// 1253   osal_memset(_NIB.extendedPANID, 0, Z_EXTADDR_LEN);
        ; Setup parameters for call to function osal_memset
        MOV     R4,#0x8
        MOV     R5,#0x0
        MOV     R1,#0x0
        MOV     R2,#(_NIB + 53) & 0xff
        MOV     R3,#((_NIB + 53) >> 8) & 0xff
        LCALL   ??osal_memset?relay
// 1254   _NIB.nwkUpdateId = 0;
        MOV     DPTR,#_NIB + 109
        CLR     A
        MOVX    @DPTR,A
// 1255   ZDSecMgrUpdateTCAddress( NULL );
        ; Setup parameters for call to function ZDSecMgrUpdateTCAddress
        MOV     R2,A
        MOV     R3,A
        LCALL   ??ZDSecMgrUpdateTCAddress?relay
// 1256 
// 1257   // Save free ranges in NV
// 1258   zll_UpdateNV( ZLL_UPDATE_NV_RANGES | ZLL_UPDATE_NV_NIB );
        ; Setup parameters for call to function zll_UpdateNV
        MOV     R1,#0x3
        LCALL   ??zll_UpdateNV?relay
// 1259 }
        LJMP    ?Subroutine5 & 0xFFFF
          CFI EndBlock cfiBlock200
// 1260 
// 1261 /*********************************************************************
// 1262  * @fn      zll_GetMsgRssi
// 1263  *
// 1264  * @brief   Get the RSSI of the message just received through a ZCL callback.
// 1265  *
// 1266  * @param   none
// 1267  *
// 1268  * @return  RSSI if AF message was received, ZLL_TL_WORST_RSSI otherwise.
// 1269  */

        RSEG BANKED_CODE:CODE:NOROOT(0)
// 1270 int8 zll_GetMsgRssi( void )
zll_GetMsgRssi:
          CFI Block cfiBlock201 Using cfiCommon0
          CFI Function zll_GetMsgRssi
        CODE
// 1271 {
        FUNCALL zll_GetMsgRssi, zcl_getRawAFMsg
        LOCFRAME ISTACK, 0, STACK
        LOCFRAME PSTACK, 0, STACK
        LOCFRAME XSTACK, 10, STACK
        LOCFRAME IOVERLAY, 0, STATIC
        LOCFRAME DOVERLAY, 0, STATIC
        ARGFRAME ISTACK, 0, STACK
        ARGFRAME PSTACK, 0, STACK
        ARGFRAME XSTACK, 10, STACK
        ARGFRAME IOVERLAY, 0, STATIC
        ARGFRAME DOVERLAY, 0, STATIC
        MOV     A,#-0xa
        LCALL   ?BANKED_ENTER_XDATA
          CFI DPH0 load(1, XDATA, add(CFA_XSP16, literal(-1)))
          CFI DPL0 load(1, XDATA, add(CFA_XSP16, literal(-2)))
          CFI ?BRET_EXT load(1, XDATA, add(CFA_XSP16, literal(-3)))
          CFI ?RET_HIGH load(1, XDATA, add(CFA_XSP16, literal(-4)))
          CFI ?RET_LOW load(1, XDATA, add(CFA_XSP16, literal(-5)))
          CFI R7 load(1, XDATA, add(CFA_XSP16, literal(-6)))
          CFI V1 load(1, XDATA, add(CFA_XSP16, literal(-7)))
          CFI V0 load(1, XDATA, add(CFA_XSP16, literal(-8)))
          CFI VB load(1, XDATA, add(CFA_XSP16, literal(-9)))
          CFI R6 load(1, XDATA, add(CFA_XSP16, literal(-10)))
          CFI CFA_SP SP+0
          CFI CFA_XSP16 add(XSP16, 10)
        ; Saved register size: 10
        ; Auto size: 0
// 1272   afIncomingMSGPacket_t *pAF = zcl_getRawAFMsg();
        ; Setup parameters for call to function zcl_getRawAFMsg
        LCALL   ??zcl_getRawAFMsg?relay
        MOV     ?V0 + 0,R2
        MOV     ?V0 + 1,R3
        MOV     R0,?V0 + 0
        MOV     R1,?V0 + 1
// 1273 
// 1274   if ( pAF != NULL )
        MOV     A,R0
        ORL     A,R1
        JZ      ??zll_GetMsgRssi_0
// 1275   {
// 1276     return ( pAF->rssi );
        MOV     A,R0
        ADD     A,#0x18
        LCALL   ??Subroutine47_0 & 0xFFFF
// 1277   }
??CrossCallReturnLabel_128:
        MOV     R1,A
        SJMP    ??zll_GetMsgRssi_1
// 1278 
// 1279   return ( ZLL_TL_WORST_RSSI );
??zll_GetMsgRssi_0:
        MOV     R1,#-0x28
??zll_GetMsgRssi_1:
        LJMP    ??Subroutine36_0 & 0xFFFF
          CFI EndBlock cfiBlock201
// 1280 }
// 1281 
// 1282 /*********************************************************************
// 1283  * @fn      zll_NewNwkUpdateId
// 1284  *
// 1285  * @brief   Determine the new network update id. The nwkUpdateId attribute
// 1286  *          can take the value of 0x00 - 0xff and may wrap around so care
// 1287  *          must be taken when comparing for newness.
// 1288  *
// 1289  * @param   ID1 - first nwk update id
// 1290  * @param   ID2 - second nwk update id
// 1291  *
// 1292  * @return  new nwk update ID
// 1293  */

        RSEG BANKED_CODE:CODE:NOROOT(0)
// 1294 uint8 zll_NewNwkUpdateId( uint8 ID1, uint8 ID2 )
zll_NewNwkUpdateId:
          CFI Block cfiBlock202 Using cfiCommon0
          CFI Function zll_NewNwkUpdateId
        CODE
// 1295 {
        MOV     A,#-0x9
        LCALL   ?BANKED_ENTER_XDATA
          CFI DPH0 load(1, XDATA, add(CFA_XSP16, literal(-1)))
          CFI DPL0 load(1, XDATA, add(CFA_XSP16, literal(-2)))
          CFI ?BRET_EXT load(1, XDATA, add(CFA_XSP16, literal(-3)))
          CFI ?RET_HIGH load(1, XDATA, add(CFA_XSP16, literal(-4)))
          CFI ?RET_LOW load(1, XDATA, add(CFA_XSP16, literal(-5)))
          CFI R7 load(1, XDATA, add(CFA_XSP16, literal(-6)))
          CFI V0 load(1, XDATA, add(CFA_XSP16, literal(-7)))
          CFI VB load(1, XDATA, add(CFA_XSP16, literal(-8)))
          CFI R6 load(1, XDATA, add(CFA_XSP16, literal(-9)))
          CFI CFA_SP SP+0
          CFI CFA_XSP16 add(XSP16, 9)
        ; Saved register size: 9
        ; Auto size: 0
        MOV     A,R1
        MOV     R6,A
// 1296   if ( ( (ID1 >= ID2) && ((ID1 - ID2) > 200) )
// 1297       || ( (ID1 < ID2) && ((ID2 - ID1) > 200) ) )
        MOV     DPL,R2
        MOV     R4,DPL
        MOV     DPL,R6
        MOV     R0,DPL
        CLR     C
        SUBB    A,R2
        JC      ??zll_NewNwkUpdateId_0
        MOV     A,R0
        CLR     C
        SUBB    A,R4
        LCALL   ?Subroutine31 & 0xFFFF
??CrossCallReturnLabel_38:
        JNC     ??zll_NewNwkUpdateId_1
        MOV     A,R6
??zll_NewNwkUpdateId_2:
        MOV     R3,A
        MOV     A,R3
??zll_NewNwkUpdateId_3:
        MOV     R1,A
        LJMP    ?Subroutine5 & 0xFFFF
??zll_NewNwkUpdateId_0:
        MOV     A,R4
        CLR     C
        SUBB    A,R0
        LCALL   ?Subroutine31 & 0xFFFF
??CrossCallReturnLabel_39:
        JC      ??zll_NewNwkUpdateId_4
        MOV     A,R6
        SJMP    ??zll_NewNwkUpdateId_3
??zll_NewNwkUpdateId_1:
        MOV     A,R2
        SJMP    ??zll_NewNwkUpdateId_3
??zll_NewNwkUpdateId_4:
        MOV     A,R2
        SJMP    ??zll_NewNwkUpdateId_2
          CFI EndBlock cfiBlock202
// 1298   {
// 1299     return ( MIN( ID1, ID2 ) );
// 1300   }
// 1301 
// 1302   return ( MAX( ID1, ID2 ) );
// 1303 }

        RSEG BANKED_CODE:CODE:NOROOT(0)
?Subroutine31:
          CFI Block cfiCond203 Using cfiCommon0
          CFI Function zll_NewNwkUpdateId
          CFI Conditional ??CrossCallReturnLabel_38
          CFI R6 load(1, XDATA, add(CFA_XSP16, literal(-9)))
          CFI VB load(1, XDATA, add(CFA_XSP16, literal(-8)))
          CFI V0 load(1, XDATA, add(CFA_XSP16, literal(-7)))
          CFI R7 load(1, XDATA, add(CFA_XSP16, literal(-6)))
          CFI ?RET_LOW load(1, XDATA, add(CFA_XSP16, literal(-5)))
          CFI ?RET_HIGH load(1, XDATA, add(CFA_XSP16, literal(-4)))
          CFI ?BRET_EXT load(1, XDATA, add(CFA_XSP16, literal(-3)))
          CFI DPL0 load(1, XDATA, add(CFA_XSP16, literal(-2)))
          CFI DPH0 load(1, XDATA, add(CFA_XSP16, literal(-1)))
          CFI CFA_SP SP+0
          CFI CFA_XSP16 add(XSP16, 9)
          CFI Block cfiCond204 Using cfiCommon0
          CFI (cfiCond204) Function zll_NewNwkUpdateId
          CFI (cfiCond204) Conditional ??CrossCallReturnLabel_39
          CFI (cfiCond204) R6 load(1, XDATA, add(CFA_XSP16, literal(-9)))
          CFI (cfiCond204) VB load(1, XDATA, add(CFA_XSP16, literal(-8)))
          CFI (cfiCond204) V0 load(1, XDATA, add(CFA_XSP16, literal(-7)))
          CFI (cfiCond204) R7 load(1, XDATA, add(CFA_XSP16, literal(-6)))
          CFI (cfiCond204) ?RET_LOW load(1, XDATA, add(CFA_XSP16, literal(-5)))
          CFI (cfiCond204) ?RET_HIGH load(1, XDATA, add(CFA_XSP16, literal(-4)))
          CFI (cfiCond204) ?BRET_EXT load(1, XDATA, add(CFA_XSP16, literal(-3)))
          CFI (cfiCond204) DPL0 load(1, XDATA, add(CFA_XSP16, literal(-2)))
          CFI (cfiCond204) DPH0 load(1, XDATA, add(CFA_XSP16, literal(-1)))
          CFI (cfiCond204) CFA_SP SP+0
          CFI (cfiCond204) CFA_XSP16 add(XSP16, 9)
          CFI Block cfiPicker205 Using cfiCommon1
          CFI (cfiPicker205) NoFunction
          CFI (cfiPicker205) Picker
        MOV     R0,A
        SUBB    A,0xE0 /* A   */
        MOV     R1,A
        CLR     C
        MOV     A,R0
        SUBB    A,#-0x37
        MOV     A,R1
        SUBB    A,#0x0
        MOV     C,0xD0 /* PSW */.2
        XRL     A,PSW
        RLC     A
        RET
          CFI EndBlock cfiCond203
          CFI EndBlock cfiCond204
          CFI EndBlock cfiPicker205
// 1304 
// 1305 /*********************************************************************
// 1306  * @fn      zll_SetZllTaskId
// 1307  *
// 1308  * @brief   Register Target/Initiator taskID for commissioning events
// 1309  *
// 1310  * @param   taskID
// 1311  *
// 1312  * @return  none
// 1313  */

        RSEG BANKED_CODE:CODE:NOROOT(0)
// 1314 void zll_SetZllTaskId( uint8 taskID )
zll_SetZllTaskId:
          CFI Block cfiBlock206 Using cfiCommon0
          CFI Function zll_SetZllTaskId
        CODE
// 1315 {
        FUNCALL zll_SetZllTaskId, zll_RegisterSimpleDesc
        LOCFRAME ISTACK, 0, STACK
        LOCFRAME PSTACK, 0, STACK
        LOCFRAME XSTACK, 9, STACK
        LOCFRAME IOVERLAY, 0, STATIC
        LOCFRAME DOVERLAY, 0, STATIC
        ARGFRAME ISTACK, 0, STACK
        ARGFRAME PSTACK, 0, STACK
        ARGFRAME XSTACK, 9, STACK
        ARGFRAME IOVERLAY, 0, STATIC
        ARGFRAME DOVERLAY, 0, STATIC
        FUNCALL zll_SetZllTaskId, StubAPS_RegisterApp
        LOCFRAME ISTACK, 0, STACK
        LOCFRAME PSTACK, 0, STACK
        LOCFRAME XSTACK, 9, STACK
        LOCFRAME IOVERLAY, 0, STATIC
        LOCFRAME DOVERLAY, 0, STATIC
        ARGFRAME ISTACK, 0, STACK
        ARGFRAME PSTACK, 0, STACK
        ARGFRAME XSTACK, 9, STACK
        ARGFRAME IOVERLAY, 0, STATIC
        ARGFRAME DOVERLAY, 0, STATIC
        MOV     A,#-0x9
        LCALL   ?BANKED_ENTER_XDATA
          CFI DPH0 load(1, XDATA, add(CFA_XSP16, literal(-1)))
          CFI DPL0 load(1, XDATA, add(CFA_XSP16, literal(-2)))
          CFI ?BRET_EXT load(1, XDATA, add(CFA_XSP16, literal(-3)))
          CFI ?RET_HIGH load(1, XDATA, add(CFA_XSP16, literal(-4)))
          CFI ?RET_LOW load(1, XDATA, add(CFA_XSP16, literal(-5)))
          CFI R7 load(1, XDATA, add(CFA_XSP16, literal(-6)))
          CFI V0 load(1, XDATA, add(CFA_XSP16, literal(-7)))
          CFI VB load(1, XDATA, add(CFA_XSP16, literal(-8)))
          CFI R6 load(1, XDATA, add(CFA_XSP16, literal(-9)))
          CFI CFA_SP SP+0
          CFI CFA_XSP16 add(XSP16, 9)
        ; Saved register size: 9
        ; Auto size: 0
        MOV     A,R1
// 1316   zllTaskId = taskID;
        MOV     DPTR,#zllTaskId
        MOVX    @DPTR,A
// 1317 
// 1318   // register internal EP for ZLL messages
// 1319   zll_RegisterSimpleDesc( &zll_EP_SimpleDesc );
        ; Setup parameters for call to function zll_RegisterSimpleDesc
        MOV     R2,#zll_EP_SimpleDesc & 0xff
        MOV     R3,#(zll_EP_SimpleDesc >> 8) & 0xff
        LCALL   ??zll_RegisterSimpleDesc?relay
// 1320 
// 1321 #if defined( INTER_PAN )
// 1322   // Register with Stub APS
// 1323   StubAPS_RegisterApp( &zll_EP );
        ; Setup parameters for call to function StubAPS_RegisterApp
        MOV     R2,#zll_EP & 0xff
        MOV     R3,#(zll_EP >> 8) & 0xff
        LCALL   ??StubAPS_RegisterApp?relay
// 1324 #endif // INTER_PAN
// 1325 }
        LJMP    ?Subroutine5 & 0xFFFF
          CFI EndBlock cfiBlock206
// 1326 
// 1327 /*********************************************************************
// 1328  * @fn      zll_ClassicalCommissioningInit
// 1329  *
// 1330  * @brief   Initiate Classical ZigBee commissioning of ZLL device
// 1331  *
// 1332  * @param   none
// 1333  *
// 1334  * @return  status
// 1335  */

        RSEG BANKED_CODE:CODE:NOROOT(0)
// 1336 ZStatus_t zll_ClassicalCommissioningInit()
zll_ClassicalCommissioningInit:
          CFI Block cfiBlock207 Using cfiCommon0
          CFI Function zll_ClassicalCommissioningInit
        CODE
// 1337 {
        FUNCALL zll_ClassicalCommissioningInit, NLME_NwkDiscTerm
        LOCFRAME ISTACK, 2, STACK
        LOCFRAME PSTACK, 0, STACK
        LOCFRAME XSTACK, 0, STACK
        LOCFRAME IOVERLAY, 0, STATIC
        LOCFRAME DOVERLAY, 0, STATIC
        ARGFRAME ISTACK, 2, STACK
        ARGFRAME PSTACK, 0, STACK
        ARGFRAME XSTACK, 0, STACK
        ARGFRAME IOVERLAY, 0, STATIC
        ARGFRAME DOVERLAY, 0, STATIC
        FUNCALL zll_ClassicalCommissioningInit, osal_stop_timerEx
        LOCFRAME ISTACK, 2, STACK
        LOCFRAME PSTACK, 0, STACK
        LOCFRAME XSTACK, 0, STACK
        LOCFRAME IOVERLAY, 0, STATIC
        LOCFRAME DOVERLAY, 0, STATIC
        ARGFRAME ISTACK, 2, STACK
        ARGFRAME PSTACK, 0, STACK
        ARGFRAME XSTACK, 0, STACK
        ARGFRAME IOVERLAY, 0, STATIC
        ARGFRAME DOVERLAY, 0, STATIC
        FUNCALL zll_ClassicalCommissioningInit, zll_ClassicalCommissioningNetworkDisc
        LOCFRAME ISTACK, 2, STACK
        LOCFRAME PSTACK, 0, STACK
        LOCFRAME XSTACK, 0, STACK
        LOCFRAME IOVERLAY, 0, STATIC
        LOCFRAME DOVERLAY, 0, STATIC
        ARGFRAME ISTACK, 2, STACK
        ARGFRAME PSTACK, 0, STACK
        ARGFRAME XSTACK, 0, STACK
        ARGFRAME IOVERLAY, 0, STATIC
        ARGFRAME DOVERLAY, 0, STATIC
        PUSH    DPL
          CFI DPL0 Frame(CFA_SP, 4)
          CFI CFA_SP SP+-4
        PUSH    DPH
          CFI DPH0 Frame(CFA_SP, 5)
          CFI CFA_SP SP+-5
        ; Saved register size: 2
        ; Auto size: 0
// 1338   zllHAScanInitiated = ZLL_SCAN_PRIMARY_CHANNELS;
        MOV     DPTR,#zllHAScanInitiated
        MOV     A,#0x1
        MOVX    @DPTR,A
// 1339   NLME_NwkDiscTerm();
        ; Setup parameters for call to function NLME_NwkDiscTerm
        LCALL   ??NLME_NwkDiscTerm?relay
// 1340   osal_stop_timerEx( ZDAppTaskID, ZDO_NETWORK_INIT );
        ; Setup parameters for call to function osal_stop_timerEx
        MOV     R2,#0x1
        MOV     R3,#0x0
        MOV     DPTR,#ZDAppTaskID
        MOVX    A,@DPTR
        MOV     R1,A
        LCALL   ??osal_stop_timerEx?relay
// 1341   _NIB.nwkState = NWK_INIT;
        MOV     DPTR,#_NIB + 35
        CLR     A
        MOVX    @DPTR,A
// 1342   return ( zll_ClassicalCommissioningNetworkDisc() );
        ; Setup parameters for call to function zll_ClassicalCommissioningNetworkDisc
        LCALL   ??zll_ClassicalCommissioningNetworkDisc?relay
        LJMP    ??Subroutine39_0 & 0xFFFF
          CFI EndBlock cfiBlock207
// 1343 }
// 1344 
// 1345 /*********************************************************************
// 1346  * @fn      zll_ClassicalCommissioningNetworkDisc
// 1347  *
// 1348  * @brief   Initiate Network Discovery on Primary or Seconday channels
// 1349  *          to allow choosing network to join.
// 1350  *
// 1351  * @param   none
// 1352  *
// 1353  * @return  status
// 1354  */

        RSEG BANKED_CODE:CODE:NOROOT(0)
// 1355 static ZStatus_t zll_ClassicalCommissioningNetworkDisc( void )
zll_ClassicalCommissioningNetworkDisc:
          CFI Block cfiBlock208 Using cfiCommon0
          CFI Function zll_ClassicalCommissioningNetworkDisc
        CODE
// 1356 {
        FUNCALL zll_ClassicalCommissioningNetworkDisc, zll_PerformNetworkDisc
        LOCFRAME ISTACK, 2, STACK
        LOCFRAME PSTACK, 0, STACK
        LOCFRAME XSTACK, 0, STACK
        LOCFRAME IOVERLAY, 0, STATIC
        LOCFRAME DOVERLAY, 0, STATIC
        ARGFRAME ISTACK, 2, STACK
        ARGFRAME PSTACK, 0, STACK
        ARGFRAME XSTACK, 0, STACK
        ARGFRAME IOVERLAY, 0, STATIC
        ARGFRAME DOVERLAY, 0, STATIC
        FUNCALL zll_ClassicalCommissioningNetworkDisc, zll_PerformNetworkDisc
        LOCFRAME ISTACK, 2, STACK
        LOCFRAME PSTACK, 0, STACK
        LOCFRAME XSTACK, 0, STACK
        LOCFRAME IOVERLAY, 0, STATIC
        LOCFRAME DOVERLAY, 0, STATIC
        ARGFRAME ISTACK, 2, STACK
        ARGFRAME PSTACK, 0, STACK
        ARGFRAME XSTACK, 0, STACK
        ARGFRAME IOVERLAY, 0, STATIC
        ARGFRAME DOVERLAY, 0, STATIC
        PUSH    DPL
          CFI DPL0 Frame(CFA_SP, 4)
          CFI CFA_SP SP+-4
        PUSH    DPH
          CFI DPH0 Frame(CFA_SP, 5)
          CFI CFA_SP SP+-5
        ; Saved register size: 2
        ; Auto size: 0
// 1357   if ( pDiscoveredNwkParamList == NULL )
        LCALL   ??Subroutine45_0 & 0xFFFF
??CrossCallReturnLabel_122:
        JNZ     ??zll_ClassicalCommissioningNetworkDisc_0
// 1358   {
// 1359     if ( zllHAScanInitiated == ZLL_SCAN_PRIMARY_CHANNELS )
        MOV     DPTR,#zllHAScanInitiated
        MOVX    A,@DPTR
        XRL     A,#0x1
        JNZ     ??zll_ClassicalCommissioningNetworkDisc_1
// 1360     {
// 1361       // Use the primary ZLL channel list
// 1362       zll_PerformNetworkDisc(ZLL_PRIMARY_CHANNEL_LIST);
        ; Setup parameters for call to function zll_PerformNetworkDisc
        MOV     DPTR,#__Constant_2108800
        SJMP    ??zll_ClassicalCommissioningNetworkDisc_2
// 1363       return ( ZSuccess );
// 1364     }
// 1365     else if ( zllHAScanInitiated == ZLL_SCAN_SECONDARY_CHANNELS )
??zll_ClassicalCommissioningNetworkDisc_1:
        MOVX    A,@DPTR
        XRL     A,#0x2
        JNZ     ??zll_ClassicalCommissioningNetworkDisc_0
// 1366     {
// 1367       // Use the secondary ZLL channel list
// 1368       zll_PerformNetworkDisc(ZLL_SECONDARY_CHANNEL_LIST);
        ; Setup parameters for call to function zll_PerformNetworkDisc
        MOV     DPTR,#__Constant_5ef7000
??zll_ClassicalCommissioningNetworkDisc_2:
        LCALL   ?XLOAD_R2345
        LCALL   ??zll_PerformNetworkDisc?relay
// 1369       return ( ZSuccess );
        MOV     R1,#0x0
        SJMP    ??zll_ClassicalCommissioningNetworkDisc_3
// 1370     }
// 1371   }
// 1372 
// 1373   return ( ZFailure );
??zll_ClassicalCommissioningNetworkDisc_0:
        MOV     R1,#0x1
??zll_ClassicalCommissioningNetworkDisc_3:
        LJMP    ??Subroutine39_0 & 0xFFFF
          CFI EndBlock cfiBlock208
// 1374 }
// 1375 
// 1376 /*********************************************************************
// 1377  * @fn      zll_ClassicalCommissioningJoinDiscoveredNwk
// 1378  *
// 1379  * @brief   Join best network discovered by classical commissioning
// 1380  *
// 1381  * @param   void
// 1382  *
// 1383  * @return  ZStatus
// 1384  */

        RSEG BANKED_CODE:CODE:NOROOT(0)
// 1385 ZStatus_t zll_ClassicalCommissioningJoinDiscoveredNwk( void )
zll_ClassicalCommissioningJoinDiscoveredNwk:
          CFI Block cfiBlock209 Using cfiCommon0
          CFI Function zll_ClassicalCommissioningJoinDiscoveredNwk
        CODE
// 1386 {
        FUNCALL zll_ClassicalCommissioningJoinDiscoveredNwk, NLME_JoinRequest
        LOCFRAME ISTACK, 0, STACK
        LOCFRAME PSTACK, 0, STACK
        LOCFRAME XSTACK, 13, STACK
        LOCFRAME IOVERLAY, 0, STATIC
        LOCFRAME DOVERLAY, 0, STATIC
        ARGFRAME ISTACK, 0, STACK
        ARGFRAME PSTACK, 0, STACK
        ARGFRAME XSTACK, 13, STACK
        ARGFRAME IOVERLAY, 0, STATIC
        ARGFRAME DOVERLAY, 0, STATIC
        FUNCALL zll_ClassicalCommissioningJoinDiscoveredNwk, zll_FreeNwkParamList
        LOCFRAME ISTACK, 0, STACK
        LOCFRAME PSTACK, 0, STACK
        LOCFRAME XSTACK, 9, STACK
        LOCFRAME IOVERLAY, 0, STATIC
        LOCFRAME DOVERLAY, 0, STATIC
        ARGFRAME ISTACK, 0, STACK
        ARGFRAME PSTACK, 0, STACK
        ARGFRAME XSTACK, 9, STACK
        ARGFRAME IOVERLAY, 0, STATIC
        ARGFRAME DOVERLAY, 0, STATIC
        FUNCALL zll_ClassicalCommissioningJoinDiscoveredNwk, zll_FreeNwkParamList
        LOCFRAME ISTACK, 0, STACK
        LOCFRAME PSTACK, 0, STACK
        LOCFRAME XSTACK, 9, STACK
        LOCFRAME IOVERLAY, 0, STATIC
        LOCFRAME DOVERLAY, 0, STATIC
        ARGFRAME ISTACK, 0, STACK
        ARGFRAME PSTACK, 0, STACK
        ARGFRAME XSTACK, 9, STACK
        ARGFRAME IOVERLAY, 0, STATIC
        ARGFRAME DOVERLAY, 0, STATIC
        FUNCALL zll_ClassicalCommissioningJoinDiscoveredNwk, ZDApp_ResetNwkKey
        LOCFRAME ISTACK, 0, STACK
        LOCFRAME PSTACK, 0, STACK
        LOCFRAME XSTACK, 9, STACK
        LOCFRAME IOVERLAY, 0, STATIC
        LOCFRAME DOVERLAY, 0, STATIC
        ARGFRAME ISTACK, 0, STACK
        ARGFRAME PSTACK, 0, STACK
        ARGFRAME XSTACK, 9, STACK
        ARGFRAME IOVERLAY, 0, STATIC
        ARGFRAME DOVERLAY, 0, STATIC
        FUNCALL zll_ClassicalCommissioningJoinDiscoveredNwk, zll_UpdateNV
        LOCFRAME ISTACK, 0, STACK
        LOCFRAME PSTACK, 0, STACK
        LOCFRAME XSTACK, 9, STACK
        LOCFRAME IOVERLAY, 0, STATIC
        LOCFRAME DOVERLAY, 0, STATIC
        ARGFRAME ISTACK, 0, STACK
        ARGFRAME PSTACK, 0, STACK
        ARGFRAME XSTACK, 9, STACK
        ARGFRAME IOVERLAY, 0, STATIC
        ARGFRAME DOVERLAY, 0, STATIC
        FUNCALL zll_ClassicalCommissioningJoinDiscoveredNwk, ZDApp_LeaveCtrlReset
        LOCFRAME ISTACK, 0, STACK
        LOCFRAME PSTACK, 0, STACK
        LOCFRAME XSTACK, 9, STACK
        LOCFRAME IOVERLAY, 0, STATIC
        LOCFRAME DOVERLAY, 0, STATIC
        ARGFRAME ISTACK, 0, STACK
        ARGFRAME PSTACK, 0, STACK
        ARGFRAME XSTACK, 9, STACK
        ARGFRAME IOVERLAY, 0, STATIC
        ARGFRAME DOVERLAY, 0, STATIC
        MOV     A,#-0x9
        LCALL   ?BANKED_ENTER_XDATA
          CFI DPH0 load(1, XDATA, add(CFA_XSP16, literal(-1)))
          CFI DPL0 load(1, XDATA, add(CFA_XSP16, literal(-2)))
          CFI ?BRET_EXT load(1, XDATA, add(CFA_XSP16, literal(-3)))
          CFI ?RET_HIGH load(1, XDATA, add(CFA_XSP16, literal(-4)))
          CFI ?RET_LOW load(1, XDATA, add(CFA_XSP16, literal(-5)))
          CFI R7 load(1, XDATA, add(CFA_XSP16, literal(-6)))
          CFI V0 load(1, XDATA, add(CFA_XSP16, literal(-7)))
          CFI VB load(1, XDATA, add(CFA_XSP16, literal(-8)))
          CFI R6 load(1, XDATA, add(CFA_XSP16, literal(-9)))
          CFI CFA_SP SP+0
          CFI CFA_XSP16 add(XSP16, 9)
        ; Saved register size: 9
        ; Auto size: 0
// 1387   zllHAScanInitiated = FALSE;
        MOV     DPTR,#zllHAScanInitiated
        CLR     A
        LCALL   ?Subroutine7 & 0xFFFF
// 1388   // it will try to scan primary and secondary channel list
// 1389   if ( pDiscoveredNwkParamList == NULL )
??CrossCallReturnLabel_113:
        JZ      ??zll_ClassicalCommissioningJoinDiscoveredNwk_0
// 1390   {
// 1391     return ( ZFailure );
// 1392   }
// 1393   zllDiscoveredNwkParam_t *pParam = pDiscoveredNwkParamList;
        MOVX    A,@DPTR
        MOV     R1,A
// 1394   zllDiscoveredNwkParam_t *pChosenNwk = NULL;
        SJMP    ??zll_ClassicalCommissioningJoinDiscoveredNwk_1
// 1395 
// 1396   // Add the network parameter to the Network Parameter List
// 1397   while ( pParam != NULL )
// 1398   {
// 1399     if ( pChosenNwk == NULL )
??zll_ClassicalCommissioningJoinDiscoveredNwk_2:
        MOV     A,R2
        ORL     A,R3
        JNZ     ??zll_ClassicalCommissioningJoinDiscoveredNwk_3
// 1400     {
// 1401       // set it to the first element of the list
// 1402       pChosenNwk = pParam;
??zll_ClassicalCommissioningJoinDiscoveredNwk_1:
        MOV     A,R0
        MOV     R2,A
        MOV     A,R1
        MOV     R3,A
// 1403     }
// 1404     else
// 1405     {
// 1406       if ( ((pParam->chosenRouterLinkQuality > pChosenNwk->chosenRouterLinkQuality) &&
// 1407             (pParam->chosenRouterDepth < MAX_NODE_DEPTH)) ||
// 1408           ((pParam->chosenRouterLinkQuality == pChosenNwk->chosenRouterLinkQuality) &&
// 1409            (pParam->chosenRouterDepth < pChosenNwk->chosenRouterDepth)) )
// 1410       {
// 1411         pChosenNwk = pParam;  // found the better network to join
// 1412         break;
// 1413       }
// 1414     }
// 1415 
// 1416     pParam = pParam->nextParam;
??zll_ClassicalCommissioningJoinDiscoveredNwk_4:
        MOV     DPL,R0
        MOV     DPH,R1
        LCALL   ??Subroutine46_0 & 0xFFFF
??CrossCallReturnLabel_115:
        JNZ     ??zll_ClassicalCommissioningJoinDiscoveredNwk_2
// 1417   }
// 1418 
// 1419   if ( pChosenNwk != NULL )
        MOV     A,R2
        ORL     A,R3
        JNZ     $+5
        LJMP    ??zll_ClassicalCommissioningJoinDiscoveredNwk_5 & 0xFFFF
// 1420   {
// 1421     // join that network
// 1422     if ( NLME_JoinRequest( pChosenNwk->extendedPANID, pChosenNwk->PANID,
// 1423                           pChosenNwk->logicalChannel,
// 1424                           ZDO_Config_Node_Descriptor.CapabilityFlags,
// 1425                           pChosenNwk->chosenRouter, pChosenNwk->chosenRouterDepth ) != ZSuccess )
??zll_ClassicalCommissioningJoinDiscoveredNwk_6:
        ; Setup parameters for call to function NLME_JoinRequest
        MOV     A,R2
        ADD     A,#0x10
        MOV     DPL,A
        MOV     A,R3
        LCALL   ??Subroutine48_0 & 0xFFFF
??CrossCallReturnLabel_124:
        MOV     ?V0 + 0,A
        MOV     R0,#?V0 + 0
        LCALL   ?PUSH_XSTACK_I_ONE
          CFI CFA_XSP16 add(XSP16, 10)
        MOV     A,R2
        ADD     A,#0xd
        MOV     DPL,A
        MOV     A,R3
        LCALL   ??Subroutine41_0 & 0xFFFF
??CrossCallReturnLabel_77:
        LCALL   ?PUSH_XSTACK8_X_TWO
          CFI CFA_XSP16 add(XSP16, 12)
        MOV     DPTR,#ZDO_Config_Node_Descriptor + 2
        MOVX    A,@DPTR
        MOV     ?V0 + 0,A
        MOV     R0,#?V0 + 0
        LCALL   ?PUSH_XSTACK_I_ONE
          CFI CFA_XSP16 add(XSP16, 13)
        MOV     DPL,R2
        MOV     DPH,R3
        INC     DPTR
        INC     DPTR
        INC     DPTR
        INC     DPTR
        MOVX    A,@DPTR
        MOV     R1,A
        MOV     DPL,R2
        MOV     DPH,R3
        INC     DPTR
        INC     DPTR
        LCALL   ??Subroutine44_0 & 0xFFFF
??CrossCallReturnLabel_109:
        MOV     A,R2
        ADD     A,#0x5
        MOV     R2,A
        MOV     A,R3
        ADDC    A,#0x0
        MOV     R3,A
        LCALL   ??NLME_JoinRequest?relay
        MOV     A,#0x4
        LCALL   ?DEALLOC_XSTACK8
          CFI CFA_XSP16 add(XSP16, 9)
        MOV     A,R1
        JZ      ??zll_ClassicalCommissioningJoinDiscoveredNwk_5
// 1426     {
// 1427       // do something if it fails to join
// 1428       zll_FreeNwkParamList();
        ; Setup parameters for call to function zll_FreeNwkParamList
        LCALL   ??zll_FreeNwkParamList?relay
// 1429       return ( ZFailure );
??zll_ClassicalCommissioningJoinDiscoveredNwk_0:
        MOV     R1,#0x1
        SJMP    ??zll_ClassicalCommissioningJoinDiscoveredNwk_7
// 1430     }
// 1431   }
??zll_ClassicalCommissioningJoinDiscoveredNwk_3:
        MOV     A,R0
        ADD     A,#0xf
        LCALL   ??Subroutine47_0 & 0xFFFF
??CrossCallReturnLabel_129:
        MOV     R4,A
        MOV     A,R2
        ADD     A,#0xf
        MOV     DPL,A
        MOV     A,R3
        LCALL   ??Subroutine48_0 & 0xFFFF
??CrossCallReturnLabel_125:
        MOV     R5,A
        CLR     C
        SUBB    A,R4
        JNC     ??zll_ClassicalCommissioningJoinDiscoveredNwk_8
        LCALL   ?Subroutine28 & 0xFFFF
??CrossCallReturnLabel_130:
        CLR     C
        SUBB    A,#0x14
        JC      ??zll_ClassicalCommissioningJoinDiscoveredNwk_9
        LJMP    ??zll_ClassicalCommissioningJoinDiscoveredNwk_4 & 0xFFFF
??zll_ClassicalCommissioningJoinDiscoveredNwk_8:
        MOV     A,R5
        XRL     A,R4
        JZ      $+5
        LJMP    ??zll_ClassicalCommissioningJoinDiscoveredNwk_4 & 0xFFFF
        MOV     A,R2
        ADD     A,#0x10
        MOV     DPL,A
        MOV     A,R3
        LCALL   ??Subroutine48_0 & 0xFFFF
??CrossCallReturnLabel_126:
        MOV     R4,A
        LCALL   ?Subroutine28 & 0xFFFF
??CrossCallReturnLabel_131:
        CLR     C
        SUBB    A,R4
        JC      $+5
        LJMP    ??zll_ClassicalCommissioningJoinDiscoveredNwk_4 & 0xFFFF
??zll_ClassicalCommissioningJoinDiscoveredNwk_9:
        MOV     A,R0
        MOV     R2,A
        MOV     A,R1
        MOV     R3,A
        LJMP    ??zll_ClassicalCommissioningJoinDiscoveredNwk_6 & 0xFFFF
// 1432 
// 1433   zll_FreeNwkParamList();
??zll_ClassicalCommissioningJoinDiscoveredNwk_5:
        ; Setup parameters for call to function zll_FreeNwkParamList
        LCALL   ??zll_FreeNwkParamList?relay
// 1434   zllJoinedHANetwork = TRUE;
        MOV     DPTR,#zllJoinedHANetwork
        MOV     A,#0x1
        MOVX    @DPTR,A
// 1435   zllFreeNwkAddrBegin = zllFreeNwkAddrEnd = zllFreeGrpIdBegin = zllFreeGrpIdEnd = 0;
        MOV     DPTR,#zllFreeGrpIdEnd
        CLR     A
        LCALL   ?Subroutine25 & 0xFFFF
??CrossCallReturnLabel_33:
        MOVX    @DPTR,A
        MOV     DPTR,#zllFreeNwkAddrEnd
        LCALL   ?Subroutine23 & 0xFFFF
// 1436   devState = DEV_HOLD;
??CrossCallReturnLabel_29:
        MOV     DPTR,#devState
        MOVX    @DPTR,A
// 1437   ZDApp_ResetNwkKey();
        ; Setup parameters for call to function ZDApp_ResetNwkKey
        LCALL   ??ZDApp_ResetNwkKey?relay
// 1438   _NIB.nwkKeyLoaded = FALSE;
        MOV     DPTR,#_NIB + 61
        CLR     A
        MOVX    @DPTR,A
// 1439   zll_UpdateNV( ZLL_UPDATE_NV_NIB | ZLL_UPDATE_NV_RANGES );
        ; Setup parameters for call to function zll_UpdateNV
        MOV     R1,#0x3
        LCALL   ??zll_UpdateNV?relay
// 1440   ZDApp_LeaveCtrlReset();
        ; Setup parameters for call to function ZDApp_LeaveCtrlReset
        LCALL   ??ZDApp_LeaveCtrlReset?relay
// 1441   return ( ZSuccess );
        MOV     R1,#0x0
          CFI EndBlock cfiBlock209
??zll_ClassicalCommissioningJoinDiscoveredNwk_7:
        REQUIRE ?Subroutine5
        ; // Fall through to label ?Subroutine5
// 1442 }

        RSEG BANKED_CODE:CODE:NOROOT(0)
?Subroutine5:
          CFI Block cfiBlock210 Using cfiCommon0
          CFI NoFunction
          CFI CFA_SP SP+0
          CFI CFA_XSP16 add(XSP16, 9)
          CFI VB load(1, XDATA, add(CFA_XSP16, literal(-8)))
          CFI DPL0 load(1, XDATA, add(CFA_XSP16, literal(-2)))
          CFI DPH0 load(1, XDATA, add(CFA_XSP16, literal(-1)))
          CFI R6 load(1, XDATA, add(CFA_XSP16, literal(-9)))
          CFI R7 load(1, XDATA, add(CFA_XSP16, literal(-6)))
          CFI V0 load(1, XDATA, add(CFA_XSP16, literal(-7)))
          CFI ?BRET_EXT load(1, XDATA, add(CFA_XSP16, literal(-3)))
          CFI ?RET_HIGH load(1, XDATA, add(CFA_XSP16, literal(-4)))
          CFI ?RET_LOW load(1, XDATA, add(CFA_XSP16, literal(-5)))
        MOV     R7,#0x1
        LJMP    ?BANKED_LEAVE_XDATA
          CFI EndBlock cfiBlock210

        RSEG BANKED_CODE:CODE:NOROOT(0)
?Subroutine25:
          CFI Block cfiCond211 Using cfiCommon0
          CFI Function zll_InitFreeRanges
          CFI Conditional ??CrossCallReturnLabel_32
          CFI DPL0 Frame(CFA_SP, 4)
          CFI DPH0 Frame(CFA_SP, 5)
          CFI CFA_SP SP+-5
          CFI Block cfiCond212 Using cfiCommon0
          CFI (cfiCond212) Function zll_ClassicalCommissioningJoinDiscoveredNwk
          CFI (cfiCond212) Conditional ??CrossCallReturnLabel_33
          CFI (cfiCond212) R6 load(1, XDATA, add(CFA_XSP16, literal(-9)))
          CFI (cfiCond212) VB load(1, XDATA, add(CFA_XSP16, literal(-8)))
          CFI (cfiCond212) V0 load(1, XDATA, add(CFA_XSP16, literal(-7)))
          CFI (cfiCond212) R7 load(1, XDATA, add(CFA_XSP16, literal(-6)))
          CFI (cfiCond212) ?RET_LOW load(1, XDATA, add(CFA_XSP16, literal(-5)))
          CFI (cfiCond212) ?RET_HIGH load(1, XDATA, add(CFA_XSP16, literal(-4)))
          CFI (cfiCond212) ?BRET_EXT load(1, XDATA, add(CFA_XSP16, literal(-3)))
          CFI (cfiCond212) DPL0 load(1, XDATA, add(CFA_XSP16, literal(-2)))
          CFI (cfiCond212) DPH0 load(1, XDATA, add(CFA_XSP16, literal(-1)))
          CFI (cfiCond212) CFA_SP SP+0
          CFI (cfiCond212) CFA_XSP16 add(XSP16, 9)
          CFI Block cfiPicker213 Using cfiCommon1
          CFI (cfiPicker213) NoFunction
          CFI (cfiPicker213) Picker
        MOVX    @DPTR,A
        INC     DPTR
        MOVX    @DPTR,A
        MOV     DPTR,#zllFreeGrpIdBegin
        MOVX    @DPTR,A
        INC     DPTR
        RET
          CFI EndBlock cfiCond211
          CFI EndBlock cfiCond212
          CFI EndBlock cfiPicker213

        RSEG BANKED_CODE:CODE:NOROOT(0)
?Subroutine23:
          CFI Block cfiCond214 Using cfiCommon0
          CFI Function zll_InitFreeRanges
          CFI Conditional ??CrossCallReturnLabel_28
          CFI DPL0 Frame(CFA_SP, 4)
          CFI DPH0 Frame(CFA_SP, 5)
          CFI CFA_SP SP+-5
          CFI Block cfiCond215 Using cfiCommon0
          CFI (cfiCond215) Function zll_ClassicalCommissioningJoinDiscoveredNwk
          CFI (cfiCond215) Conditional ??CrossCallReturnLabel_29
          CFI (cfiCond215) R6 load(1, XDATA, add(CFA_XSP16, literal(-9)))
          CFI (cfiCond215) VB load(1, XDATA, add(CFA_XSP16, literal(-8)))
          CFI (cfiCond215) V0 load(1, XDATA, add(CFA_XSP16, literal(-7)))
          CFI (cfiCond215) R7 load(1, XDATA, add(CFA_XSP16, literal(-6)))
          CFI (cfiCond215) ?RET_LOW load(1, XDATA, add(CFA_XSP16, literal(-5)))
          CFI (cfiCond215) ?RET_HIGH load(1, XDATA, add(CFA_XSP16, literal(-4)))
          CFI (cfiCond215) ?BRET_EXT load(1, XDATA, add(CFA_XSP16, literal(-3)))
          CFI (cfiCond215) DPL0 load(1, XDATA, add(CFA_XSP16, literal(-2)))
          CFI (cfiCond215) DPH0 load(1, XDATA, add(CFA_XSP16, literal(-1)))
          CFI (cfiCond215) CFA_SP SP+0
          CFI (cfiCond215) CFA_XSP16 add(XSP16, 9)
          CFI Block cfiPicker216 Using cfiCommon1
          CFI (cfiPicker216) NoFunction
          CFI (cfiPicker216) Picker
        MOVX    @DPTR,A
        INC     DPTR
        MOVX    @DPTR,A
        MOV     DPTR,#zllFreeNwkAddrBegin
        MOVX    @DPTR,A
        INC     DPTR
        MOVX    @DPTR,A
        RET
          CFI EndBlock cfiCond214
          CFI EndBlock cfiCond215
          CFI EndBlock cfiPicker216

        RSEG BANKED_CODE:CODE:NOROOT(0)
?Subroutine7:
          CFI Block cfiCond217 Using cfiCommon0
          CFI Function zll_ClassicalCommissioningJoinDiscoveredNwk
          CFI Conditional ??CrossCallReturnLabel_113
          CFI R6 load(1, XDATA, add(CFA_XSP16, literal(-9)))
          CFI VB load(1, XDATA, add(CFA_XSP16, literal(-8)))
          CFI V0 load(1, XDATA, add(CFA_XSP16, literal(-7)))
          CFI R7 load(1, XDATA, add(CFA_XSP16, literal(-6)))
          CFI ?RET_LOW load(1, XDATA, add(CFA_XSP16, literal(-5)))
          CFI ?RET_HIGH load(1, XDATA, add(CFA_XSP16, literal(-4)))
          CFI ?BRET_EXT load(1, XDATA, add(CFA_XSP16, literal(-3)))
          CFI DPL0 load(1, XDATA, add(CFA_XSP16, literal(-2)))
          CFI DPH0 load(1, XDATA, add(CFA_XSP16, literal(-1)))
          CFI CFA_SP SP+0
          CFI CFA_XSP16 add(XSP16, 9)
          CFI Block cfiCond218 Using cfiCommon0
          CFI (cfiCond218) Function zll_BeaconIndCB
          CFI (cfiCond218) Conditional ??CrossCallReturnLabel_114
          CFI (cfiCond218) R6 load(1, XDATA, add(CFA_XSP16, literal(-20)))
          CFI (cfiCond218) VB load(1, XDATA, add(CFA_XSP16, literal(-19)))
          CFI (cfiCond218) V0 load(1, XDATA, add(CFA_XSP16, literal(-18)))
          CFI (cfiCond218) V1 load(1, XDATA, add(CFA_XSP16, literal(-17)))
          CFI (cfiCond218) V2 load(1, XDATA, add(CFA_XSP16, literal(-16)))
          CFI (cfiCond218) V3 load(1, XDATA, add(CFA_XSP16, literal(-15)))
          CFI (cfiCond218) V4 load(1, XDATA, add(CFA_XSP16, literal(-14)))
          CFI (cfiCond218) V5 load(1, XDATA, add(CFA_XSP16, literal(-13)))
          CFI (cfiCond218) V6 load(1, XDATA, add(CFA_XSP16, literal(-12)))
          CFI (cfiCond218) V7 load(1, XDATA, add(CFA_XSP16, literal(-11)))
          CFI (cfiCond218) V8 load(1, XDATA, add(CFA_XSP16, literal(-10)))
          CFI (cfiCond218) V9 load(1, XDATA, add(CFA_XSP16, literal(-9)))
          CFI (cfiCond218) V10 load(1, XDATA, add(CFA_XSP16, literal(-8)))
          CFI (cfiCond218) V11 load(1, XDATA, add(CFA_XSP16, literal(-7)))
          CFI (cfiCond218) R7 load(1, XDATA, add(CFA_XSP16, literal(-6)))
          CFI (cfiCond218) ?RET_LOW load(1, XDATA, add(CFA_XSP16, literal(-5)))
          CFI (cfiCond218) ?RET_HIGH load(1, XDATA, add(CFA_XSP16, literal(-4)))
          CFI (cfiCond218) ?BRET_EXT load(1, XDATA, add(CFA_XSP16, literal(-3)))
          CFI (cfiCond218) DPL0 load(1, XDATA, add(CFA_XSP16, literal(-2)))
          CFI (cfiCond218) DPH0 load(1, XDATA, add(CFA_XSP16, literal(-1)))
          CFI (cfiCond218) CFA_SP SP+0
          CFI (cfiCond218) CFA_XSP16 add(XSP16, 20)
          CFI Block cfiPicker219 Using cfiCommon1
          CFI (cfiPicker219) NoFunction
          CFI (cfiPicker219) Picker
        MOVX    @DPTR,A
          CFI EndBlock cfiCond217
          CFI EndBlock cfiCond218
          CFI EndBlock cfiPicker219
        REQUIRE ??Subroutine45_0
        ; // Fall through to label ??Subroutine45_0

        RSEG BANKED_CODE:CODE:NOROOT(0)
??Subroutine45_0:
          CFI Block cfiCond220 Using cfiCommon0
          CFI Function zll_ClassicalCommissioningNetworkDisc
          CFI Conditional ??CrossCallReturnLabel_122
          CFI DPL0 Frame(CFA_SP, 4)
          CFI DPH0 Frame(CFA_SP, 5)
          CFI CFA_SP SP+-5
          CFI Block cfiCond221 Using cfiCommon0
          CFI (cfiCond221) Function zll_NwkDiscoveryCnfCB
          CFI (cfiCond221) Conditional ??CrossCallReturnLabel_123
          CFI (cfiCond221) DPL0 Frame(CFA_SP, 4)
          CFI (cfiCond221) DPH0 Frame(CFA_SP, 5)
          CFI (cfiCond221) CFA_SP SP+-5
          CFI Block cfiCond222 Using cfiCommon0
          CFI (cfiCond222) Function zll_ClassicalCommissioningJoinDiscoveredNwk
          CFI (cfiCond222) Conditional ??CrossCallReturnLabel_113
          CFI (cfiCond222) R6 load(1, XDATA, add(CFA_XSP16, literal(-9)))
          CFI (cfiCond222) VB load(1, XDATA, add(CFA_XSP16, literal(-8)))
          CFI (cfiCond222) V0 load(1, XDATA, add(CFA_XSP16, literal(-7)))
          CFI (cfiCond222) R7 load(1, XDATA, add(CFA_XSP16, literal(-6)))
          CFI (cfiCond222) ?RET_LOW load(1, XDATA, add(CFA_XSP16, literal(-5)))
          CFI (cfiCond222) ?RET_HIGH load(1, XDATA, add(CFA_XSP16, literal(-4)))
          CFI (cfiCond222) ?BRET_EXT load(1, XDATA, add(CFA_XSP16, literal(-3)))
          CFI (cfiCond222) DPL0 load(1, XDATA, add(CFA_XSP16, literal(-2)))
          CFI (cfiCond222) DPH0 load(1, XDATA, add(CFA_XSP16, literal(-1)))
          CFI (cfiCond222) CFA_SP SP+0
          CFI (cfiCond222) CFA_XSP16 add(XSP16, 9)
          CFI Block cfiCond223 Using cfiCommon0
          CFI (cfiCond223) Function zll_BeaconIndCB
          CFI (cfiCond223) Conditional ??CrossCallReturnLabel_114
          CFI (cfiCond223) R6 load(1, XDATA, add(CFA_XSP16, literal(-20)))
          CFI (cfiCond223) VB load(1, XDATA, add(CFA_XSP16, literal(-19)))
          CFI (cfiCond223) V0 load(1, XDATA, add(CFA_XSP16, literal(-18)))
          CFI (cfiCond223) V1 load(1, XDATA, add(CFA_XSP16, literal(-17)))
          CFI (cfiCond223) V2 load(1, XDATA, add(CFA_XSP16, literal(-16)))
          CFI (cfiCond223) V3 load(1, XDATA, add(CFA_XSP16, literal(-15)))
          CFI (cfiCond223) V4 load(1, XDATA, add(CFA_XSP16, literal(-14)))
          CFI (cfiCond223) V5 load(1, XDATA, add(CFA_XSP16, literal(-13)))
          CFI (cfiCond223) V6 load(1, XDATA, add(CFA_XSP16, literal(-12)))
          CFI (cfiCond223) V7 load(1, XDATA, add(CFA_XSP16, literal(-11)))
          CFI (cfiCond223) V8 load(1, XDATA, add(CFA_XSP16, literal(-10)))
          CFI (cfiCond223) V9 load(1, XDATA, add(CFA_XSP16, literal(-9)))
          CFI (cfiCond223) V10 load(1, XDATA, add(CFA_XSP16, literal(-8)))
          CFI (cfiCond223) V11 load(1, XDATA, add(CFA_XSP16, literal(-7)))
          CFI (cfiCond223) R7 load(1, XDATA, add(CFA_XSP16, literal(-6)))
          CFI (cfiCond223) ?RET_LOW load(1, XDATA, add(CFA_XSP16, literal(-5)))
          CFI (cfiCond223) ?RET_HIGH load(1, XDATA, add(CFA_XSP16, literal(-4)))
          CFI (cfiCond223) ?BRET_EXT load(1, XDATA, add(CFA_XSP16, literal(-3)))
          CFI (cfiCond223) DPL0 load(1, XDATA, add(CFA_XSP16, literal(-2)))
          CFI (cfiCond223) DPH0 load(1, XDATA, add(CFA_XSP16, literal(-1)))
          CFI (cfiCond223) CFA_SP SP+0
          CFI (cfiCond223) CFA_XSP16 add(XSP16, 20)
          CFI Block cfiPicker224 Using cfiCommon1
          CFI (cfiPicker224) NoFunction
          CFI (cfiPicker224) Picker
        MOV     DPTR,#pDiscoveredNwkParamList
          CFI EndBlock cfiCond220
          CFI EndBlock cfiCond221
          CFI EndBlock cfiCond222
          CFI EndBlock cfiCond223
          CFI EndBlock cfiPicker224
        REQUIRE ??Subroutine46_0
        ; // Fall through to label ??Subroutine46_0

        RSEG BANKED_CODE:CODE:NOROOT(0)
??Subroutine46_0:
          CFI Block cfiCond225 Using cfiCommon0
          CFI Function zll_IsValidSplitFreeRanges
          CFI Conditional ??CrossCallReturnLabel_116
          CFI R6 load(1, XDATA, add(CFA_XSP16, literal(-10)))
          CFI VB load(1, XDATA, add(CFA_XSP16, literal(-9)))
          CFI V0 load(1, XDATA, add(CFA_XSP16, literal(-8)))
          CFI V1 load(1, XDATA, add(CFA_XSP16, literal(-7)))
          CFI R7 load(1, XDATA, add(CFA_XSP16, literal(-6)))
          CFI ?RET_LOW load(1, XDATA, add(CFA_XSP16, literal(-5)))
          CFI ?RET_HIGH load(1, XDATA, add(CFA_XSP16, literal(-4)))
          CFI ?BRET_EXT load(1, XDATA, add(CFA_XSP16, literal(-3)))
          CFI DPL0 load(1, XDATA, add(CFA_XSP16, literal(-2)))
          CFI DPH0 load(1, XDATA, add(CFA_XSP16, literal(-1)))
          CFI CFA_SP SP+0
          CFI CFA_XSP16 add(XSP16, 10)
          CFI Block cfiCond226 Using cfiCommon0
          CFI (cfiCond226) Function zll_IsValidSplitFreeRanges
          CFI (cfiCond226) Conditional ??CrossCallReturnLabel_117
          CFI (cfiCond226) R6 load(1, XDATA, add(CFA_XSP16, literal(-10)))
          CFI (cfiCond226) VB load(1, XDATA, add(CFA_XSP16, literal(-9)))
          CFI (cfiCond226) V0 load(1, XDATA, add(CFA_XSP16, literal(-8)))
          CFI (cfiCond226) V1 load(1, XDATA, add(CFA_XSP16, literal(-7)))
          CFI (cfiCond226) R7 load(1, XDATA, add(CFA_XSP16, literal(-6)))
          CFI (cfiCond226) ?RET_LOW load(1, XDATA, add(CFA_XSP16, literal(-5)))
          CFI (cfiCond226) ?RET_HIGH load(1, XDATA, add(CFA_XSP16, literal(-4)))
          CFI (cfiCond226) ?BRET_EXT load(1, XDATA, add(CFA_XSP16, literal(-3)))
          CFI (cfiCond226) DPL0 load(1, XDATA, add(CFA_XSP16, literal(-2)))
          CFI (cfiCond226) DPH0 load(1, XDATA, add(CFA_XSP16, literal(-1)))
          CFI (cfiCond226) CFA_SP SP+0
          CFI (cfiCond226) CFA_XSP16 add(XSP16, 10)
          CFI Block cfiCond227 Using cfiCommon0
          CFI (cfiCond227) Function zll_SplitFreeRanges
          CFI (cfiCond227) Conditional ??CrossCallReturnLabel_118
          CFI (cfiCond227) R6 load(1, XDATA, add(CFA_XSP16, literal(-18)))
          CFI (cfiCond227) VB load(1, XDATA, add(CFA_XSP16, literal(-17)))
          CFI (cfiCond227) V0 load(1, XDATA, add(CFA_XSP16, literal(-16)))
          CFI (cfiCond227) V1 load(1, XDATA, add(CFA_XSP16, literal(-15)))
          CFI (cfiCond227) V2 load(1, XDATA, add(CFA_XSP16, literal(-14)))
          CFI (cfiCond227) V3 load(1, XDATA, add(CFA_XSP16, literal(-13)))
          CFI (cfiCond227) V4 load(1, XDATA, add(CFA_XSP16, literal(-12)))
          CFI (cfiCond227) V5 load(1, XDATA, add(CFA_XSP16, literal(-11)))
          CFI (cfiCond227) V6 load(1, XDATA, add(CFA_XSP16, literal(-10)))
          CFI (cfiCond227) V7 load(1, XDATA, add(CFA_XSP16, literal(-9)))
          CFI (cfiCond227) V8 load(1, XDATA, add(CFA_XSP16, literal(-8)))
          CFI (cfiCond227) V9 load(1, XDATA, add(CFA_XSP16, literal(-7)))
          CFI (cfiCond227) R7 load(1, XDATA, add(CFA_XSP16, literal(-6)))
          CFI (cfiCond227) ?RET_LOW load(1, XDATA, add(CFA_XSP16, literal(-5)))
          CFI (cfiCond227) ?RET_HIGH load(1, XDATA, add(CFA_XSP16, literal(-4)))
          CFI (cfiCond227) ?BRET_EXT load(1, XDATA, add(CFA_XSP16, literal(-3)))
          CFI (cfiCond227) DPL0 load(1, XDATA, add(CFA_XSP16, literal(-2)))
          CFI (cfiCond227) DPH0 load(1, XDATA, add(CFA_XSP16, literal(-1)))
          CFI (cfiCond227) CFA_SP SP+0
          CFI (cfiCond227) CFA_XSP16 add(XSP16, 18)
          CFI Block cfiCond228 Using cfiCommon0
          CFI (cfiCond228) Function zll_SplitFreeRanges
          CFI (cfiCond228) Conditional ??CrossCallReturnLabel_119
          CFI (cfiCond228) R6 load(1, XDATA, add(CFA_XSP16, literal(-18)))
          CFI (cfiCond228) VB load(1, XDATA, add(CFA_XSP16, literal(-17)))
          CFI (cfiCond228) V0 load(1, XDATA, add(CFA_XSP16, literal(-16)))
          CFI (cfiCond228) V1 load(1, XDATA, add(CFA_XSP16, literal(-15)))
          CFI (cfiCond228) V2 load(1, XDATA, add(CFA_XSP16, literal(-14)))
          CFI (cfiCond228) V3 load(1, XDATA, add(CFA_XSP16, literal(-13)))
          CFI (cfiCond228) V4 load(1, XDATA, add(CFA_XSP16, literal(-12)))
          CFI (cfiCond228) V5 load(1, XDATA, add(CFA_XSP16, literal(-11)))
          CFI (cfiCond228) V6 load(1, XDATA, add(CFA_XSP16, literal(-10)))
          CFI (cfiCond228) V7 load(1, XDATA, add(CFA_XSP16, literal(-9)))
          CFI (cfiCond228) V8 load(1, XDATA, add(CFA_XSP16, literal(-8)))
          CFI (cfiCond228) V9 load(1, XDATA, add(CFA_XSP16, literal(-7)))
          CFI (cfiCond228) R7 load(1, XDATA, add(CFA_XSP16, literal(-6)))
          CFI (cfiCond228) ?RET_LOW load(1, XDATA, add(CFA_XSP16, literal(-5)))
          CFI (cfiCond228) ?RET_HIGH load(1, XDATA, add(CFA_XSP16, literal(-4)))
          CFI (cfiCond228) ?BRET_EXT load(1, XDATA, add(CFA_XSP16, literal(-3)))
          CFI (cfiCond228) DPL0 load(1, XDATA, add(CFA_XSP16, literal(-2)))
          CFI (cfiCond228) DPH0 load(1, XDATA, add(CFA_XSP16, literal(-1)))
          CFI (cfiCond228) CFA_SP SP+0
          CFI (cfiCond228) CFA_XSP16 add(XSP16, 18)
          CFI Block cfiCond229 Using cfiCommon0
          CFI (cfiCond229) Function zll_PopGrpIDRange
          CFI (cfiCond229) Conditional ??CrossCallReturnLabel_120
          CFI (cfiCond229) R6 load(1, XDATA, add(CFA_XSP16, literal(-10)))
          CFI (cfiCond229) VB load(1, XDATA, add(CFA_XSP16, literal(-9)))
          CFI (cfiCond229) V0 load(1, XDATA, add(CFA_XSP16, literal(-8)))
          CFI (cfiCond229) V1 load(1, XDATA, add(CFA_XSP16, literal(-7)))
          CFI (cfiCond229) R7 load(1, XDATA, add(CFA_XSP16, literal(-6)))
          CFI (cfiCond229) ?RET_LOW load(1, XDATA, add(CFA_XSP16, literal(-5)))
          CFI (cfiCond229) ?RET_HIGH load(1, XDATA, add(CFA_XSP16, literal(-4)))
          CFI (cfiCond229) ?BRET_EXT load(1, XDATA, add(CFA_XSP16, literal(-3)))
          CFI (cfiCond229) DPL0 load(1, XDATA, add(CFA_XSP16, literal(-2)))
          CFI (cfiCond229) DPH0 load(1, XDATA, add(CFA_XSP16, literal(-1)))
          CFI (cfiCond229) CFA_SP SP+0
          CFI (cfiCond229) CFA_XSP16 add(XSP16, 10)
          CFI Block cfiCond230 Using cfiCommon0
          CFI (cfiCond230) Function zll_PopNwkAddress
          CFI (cfiCond230) Conditional ??CrossCallReturnLabel_121
          CFI (cfiCond230) DPL0 Frame(CFA_SP, 4)
          CFI (cfiCond230) DPH0 Frame(CFA_SP, 5)
          CFI (cfiCond230) CFA_SP SP+-5
          CFI Block cfiCond231 Using cfiCommon0
          CFI (cfiCond231) Function zll_ClassicalCommissioningJoinDiscoveredNwk
          CFI (cfiCond231) Conditional ??CrossCallReturnLabel_115
          CFI (cfiCond231) R6 load(1, XDATA, add(CFA_XSP16, literal(-9)))
          CFI (cfiCond231) VB load(1, XDATA, add(CFA_XSP16, literal(-8)))
          CFI (cfiCond231) V0 load(1, XDATA, add(CFA_XSP16, literal(-7)))
          CFI (cfiCond231) R7 load(1, XDATA, add(CFA_XSP16, literal(-6)))
          CFI (cfiCond231) ?RET_LOW load(1, XDATA, add(CFA_XSP16, literal(-5)))
          CFI (cfiCond231) ?RET_HIGH load(1, XDATA, add(CFA_XSP16, literal(-4)))
          CFI (cfiCond231) ?BRET_EXT load(1, XDATA, add(CFA_XSP16, literal(-3)))
          CFI (cfiCond231) DPL0 load(1, XDATA, add(CFA_XSP16, literal(-2)))
          CFI (cfiCond231) DPH0 load(1, XDATA, add(CFA_XSP16, literal(-1)))
          CFI (cfiCond231) CFA_SP SP+0
          CFI (cfiCond231) CFA_XSP16 add(XSP16, 9)
          CFI Block cfiCond232 Using cfiCommon0
          CFI (cfiCond232) Function zll_ClassicalCommissioningNetworkDisc
          CFI (cfiCond232) Conditional ??CrossCallReturnLabel_122
          CFI (cfiCond232) DPL0 Frame(CFA_SP, 4)
          CFI (cfiCond232) DPH0 Frame(CFA_SP, 5)
          CFI (cfiCond232) CFA_SP SP+-5
          CFI Block cfiCond233 Using cfiCommon0
          CFI (cfiCond233) Function zll_NwkDiscoveryCnfCB
          CFI (cfiCond233) Conditional ??CrossCallReturnLabel_123
          CFI (cfiCond233) DPL0 Frame(CFA_SP, 4)
          CFI (cfiCond233) DPH0 Frame(CFA_SP, 5)
          CFI (cfiCond233) CFA_SP SP+-5
          CFI Block cfiCond234 Using cfiCommon0
          CFI (cfiCond234) Function zll_ClassicalCommissioningJoinDiscoveredNwk
          CFI (cfiCond234) Conditional ??CrossCallReturnLabel_113
          CFI (cfiCond234) R6 load(1, XDATA, add(CFA_XSP16, literal(-9)))
          CFI (cfiCond234) VB load(1, XDATA, add(CFA_XSP16, literal(-8)))
          CFI (cfiCond234) V0 load(1, XDATA, add(CFA_XSP16, literal(-7)))
          CFI (cfiCond234) R7 load(1, XDATA, add(CFA_XSP16, literal(-6)))
          CFI (cfiCond234) ?RET_LOW load(1, XDATA, add(CFA_XSP16, literal(-5)))
          CFI (cfiCond234) ?RET_HIGH load(1, XDATA, add(CFA_XSP16, literal(-4)))
          CFI (cfiCond234) ?BRET_EXT load(1, XDATA, add(CFA_XSP16, literal(-3)))
          CFI (cfiCond234) DPL0 load(1, XDATA, add(CFA_XSP16, literal(-2)))
          CFI (cfiCond234) DPH0 load(1, XDATA, add(CFA_XSP16, literal(-1)))
          CFI (cfiCond234) CFA_SP SP+0
          CFI (cfiCond234) CFA_XSP16 add(XSP16, 9)
          CFI Block cfiCond235 Using cfiCommon0
          CFI (cfiCond235) Function zll_BeaconIndCB
          CFI (cfiCond235) Conditional ??CrossCallReturnLabel_114
          CFI (cfiCond235) R6 load(1, XDATA, add(CFA_XSP16, literal(-20)))
          CFI (cfiCond235) VB load(1, XDATA, add(CFA_XSP16, literal(-19)))
          CFI (cfiCond235) V0 load(1, XDATA, add(CFA_XSP16, literal(-18)))
          CFI (cfiCond235) V1 load(1, XDATA, add(CFA_XSP16, literal(-17)))
          CFI (cfiCond235) V2 load(1, XDATA, add(CFA_XSP16, literal(-16)))
          CFI (cfiCond235) V3 load(1, XDATA, add(CFA_XSP16, literal(-15)))
          CFI (cfiCond235) V4 load(1, XDATA, add(CFA_XSP16, literal(-14)))
          CFI (cfiCond235) V5 load(1, XDATA, add(CFA_XSP16, literal(-13)))
          CFI (cfiCond235) V6 load(1, XDATA, add(CFA_XSP16, literal(-12)))
          CFI (cfiCond235) V7 load(1, XDATA, add(CFA_XSP16, literal(-11)))
          CFI (cfiCond235) V8 load(1, XDATA, add(CFA_XSP16, literal(-10)))
          CFI (cfiCond235) V9 load(1, XDATA, add(CFA_XSP16, literal(-9)))
          CFI (cfiCond235) V10 load(1, XDATA, add(CFA_XSP16, literal(-8)))
          CFI (cfiCond235) V11 load(1, XDATA, add(CFA_XSP16, literal(-7)))
          CFI (cfiCond235) R7 load(1, XDATA, add(CFA_XSP16, literal(-6)))
          CFI (cfiCond235) ?RET_LOW load(1, XDATA, add(CFA_XSP16, literal(-5)))
          CFI (cfiCond235) ?RET_HIGH load(1, XDATA, add(CFA_XSP16, literal(-4)))
          CFI (cfiCond235) ?BRET_EXT load(1, XDATA, add(CFA_XSP16, literal(-3)))
          CFI (cfiCond235) DPL0 load(1, XDATA, add(CFA_XSP16, literal(-2)))
          CFI (cfiCond235) DPH0 load(1, XDATA, add(CFA_XSP16, literal(-1)))
          CFI (cfiCond235) CFA_SP SP+0
          CFI (cfiCond235) CFA_XSP16 add(XSP16, 20)
          CFI Block cfiPicker236 Using cfiCommon1
          CFI (cfiPicker236) NoFunction
          CFI (cfiPicker236) Picker
        MOVX    A,@DPTR
        MOV     R0,A
        INC     DPTR
        MOVX    A,@DPTR
        MOV     R1,A
        MOV     A,R0
        ORL     A,R1
        RET
          CFI EndBlock cfiCond225
          CFI EndBlock cfiCond226
          CFI EndBlock cfiCond227
          CFI EndBlock cfiCond228
          CFI EndBlock cfiCond229
          CFI EndBlock cfiCond230
          CFI EndBlock cfiCond231
          CFI EndBlock cfiCond232
          CFI EndBlock cfiCond233
          CFI EndBlock cfiCond234
          CFI EndBlock cfiCond235
          CFI EndBlock cfiPicker236
// 1443 
// 1444 
// 1445 /*********************************************************************
// 1446  * @fn      zll_PerformNetworkDisc
// 1447  *
// 1448  * @brief   Perform a Network Discovery scan.
// 1449  *          Scan results will be stored locally to analyze.
// 1450  *
// 1451  * @param   scanChannelList - channels to perform discovery scan
// 1452  *
// 1453  * @return  void
// 1454  */

        RSEG BANKED_CODE:CODE:NOROOT(0)
// 1455 void zll_PerformNetworkDisc( uint32 scanChannelList )
zll_PerformNetworkDisc:
          CFI Block cfiBlock237 Using cfiCommon0
          CFI Function zll_PerformNetworkDisc
        CODE
// 1456 {
        FUNCALL zll_PerformNetworkDisc, NLME_NwkDiscReq2
        LOCFRAME ISTACK, 0, STACK
        LOCFRAME PSTACK, 0, STACK
        LOCFRAME XSTACK, 19, STACK
        LOCFRAME IOVERLAY, 0, STATIC
        LOCFRAME DOVERLAY, 0, STATIC
        ARGFRAME ISTACK, 0, STACK
        ARGFRAME PSTACK, 0, STACK
        ARGFRAME XSTACK, 19, STACK
        ARGFRAME IOVERLAY, 0, STATIC
        ARGFRAME DOVERLAY, 0, STATIC
        FUNCALL zll_PerformNetworkDisc, ZDO_RegisterForZdoCB
        LOCFRAME ISTACK, 0, STACK
        LOCFRAME PSTACK, 0, STACK
        LOCFRAME XSTACK, 19, STACK
        LOCFRAME IOVERLAY, 0, STATIC
        LOCFRAME DOVERLAY, 0, STATIC
        ARGFRAME ISTACK, 0, STACK
        ARGFRAME PSTACK, 0, STACK
        ARGFRAME XSTACK, 19, STACK
        ARGFRAME IOVERLAY, 0, STATIC
        ARGFRAME DOVERLAY, 0, STATIC
        FUNCALL zll_PerformNetworkDisc, ZDO_RegisterForZdoCB
        LOCFRAME ISTACK, 0, STACK
        LOCFRAME PSTACK, 0, STACK
        LOCFRAME XSTACK, 19, STACK
        LOCFRAME IOVERLAY, 0, STATIC
        LOCFRAME DOVERLAY, 0, STATIC
        ARGFRAME ISTACK, 0, STACK
        ARGFRAME PSTACK, 0, STACK
        ARGFRAME XSTACK, 19, STACK
        ARGFRAME IOVERLAY, 0, STATIC
        ARGFRAME DOVERLAY, 0, STATIC
        FUNCALL zll_PerformNetworkDisc, NLME_NwkDiscTerm
        LOCFRAME ISTACK, 0, STACK
        LOCFRAME PSTACK, 0, STACK
        LOCFRAME XSTACK, 19, STACK
        LOCFRAME IOVERLAY, 0, STATIC
        LOCFRAME DOVERLAY, 0, STATIC
        ARGFRAME ISTACK, 0, STACK
        ARGFRAME PSTACK, 0, STACK
        ARGFRAME XSTACK, 19, STACK
        ARGFRAME IOVERLAY, 0, STATIC
        ARGFRAME DOVERLAY, 0, STATIC
        MOV     A,#-0xc
        LCALL   ?BANKED_ENTER_XDATA
          CFI DPH0 load(1, XDATA, add(CFA_XSP16, literal(-1)))
          CFI DPL0 load(1, XDATA, add(CFA_XSP16, literal(-2)))
          CFI ?BRET_EXT load(1, XDATA, add(CFA_XSP16, literal(-3)))
          CFI ?RET_HIGH load(1, XDATA, add(CFA_XSP16, literal(-4)))
          CFI ?RET_LOW load(1, XDATA, add(CFA_XSP16, literal(-5)))
          CFI R7 load(1, XDATA, add(CFA_XSP16, literal(-6)))
          CFI V3 load(1, XDATA, add(CFA_XSP16, literal(-7)))
          CFI V2 load(1, XDATA, add(CFA_XSP16, literal(-8)))
          CFI V1 load(1, XDATA, add(CFA_XSP16, literal(-9)))
          CFI V0 load(1, XDATA, add(CFA_XSP16, literal(-10)))
          CFI VB load(1, XDATA, add(CFA_XSP16, literal(-11)))
          CFI R6 load(1, XDATA, add(CFA_XSP16, literal(-12)))
          CFI CFA_SP SP+0
          CFI CFA_XSP16 add(XSP16, 12)
        ; Saved register size: 12
        ; Auto size: 7
        MOV     A,#-0x7
        LCALL   ?ALLOC_XSTACK8
          CFI CFA_XSP16 add(XSP16, 19)
        MOV     ?V0 + 0,R2
        MOV     ?V0 + 1,R3
        MOV     ?V0 + 2,R4
        MOV     ?V0 + 3,R5
// 1457   NLME_ScanFields_t scan;
// 1458 
// 1459   scan.channels = scanChannelList;
        MOV     DPL,?XSP + 0
        MOV     DPH,?XSP + 1
        MOV     R0,#?V0 + 0
        LCALL   ?L_MOV_TO_X
// 1460   scan.duration = BEACON_ORDER_240_MSEC;
        MOV     A,#0x4
        LCALL   ?XSTACK_DISP0_8
        MOV     A,#0x4
        MOVX    @DPTR,A
// 1461   scan.scanType = ZMAC_ACTIVE_SCAN;
        INC     A
        LCALL   ?XSTACK_DISP0_8
        MOV     A,#0x1
        MOVX    @DPTR,A
// 1462   scan.scanApp  = NLME_DISC_SCAN;
        MOV     A,#0x6
        LCALL   ?XSTACK_DISP0_8
        MOV     A,#0x1
        LCALL   ?Subroutine20 & 0xFFFF
// 1463 
// 1464   if ( NLME_NwkDiscReq2( &scan ) == ZSuccess )
??CrossCallReturnLabel_23:
        LCALL   ??NLME_NwkDiscReq2?relay
        MOV     A,R1
        JNZ     ??zll_PerformNetworkDisc_0
// 1465   {
// 1466     // Register ZDO callback to handle the network discovery confirm and
// 1467     // beacon notification confirm
// 1468     ZDO_RegisterForZdoCB( ZDO_NWK_DISCOVERY_CNF_CBID, zll_NwkDiscoveryCnfCB );
        ; Setup parameters for call to function ZDO_RegisterForZdoCB
        MOV     R2,#??zll_NwkDiscoveryCnfCB?relay & 0xff
        MOV     R3,#(??zll_NwkDiscoveryCnfCB?relay >> 8) & 0xff
        MOV     R1,#0x2
        LCALL   ??ZDO_RegisterForZdoCB?relay
// 1469     ZDO_RegisterForZdoCB( ZDO_BEACON_NOTIFY_IND_CBID, zll_BeaconIndCB );
        ; Setup parameters for call to function ZDO_RegisterForZdoCB
        MOV     R2,#??zll_BeaconIndCB?relay & 0xff
        MOV     R3,#(??zll_BeaconIndCB?relay >> 8) & 0xff
        MOV     R1,#0x3
        LCALL   ??ZDO_RegisterForZdoCB?relay
        SJMP    ??zll_PerformNetworkDisc_1
// 1470   }
// 1471   else
// 1472   {
// 1473     NLME_NwkDiscTerm();
??zll_PerformNetworkDisc_0:
        ; Setup parameters for call to function NLME_NwkDiscTerm
        LCALL   ??NLME_NwkDiscTerm?relay
// 1474   }
// 1475 }
??zll_PerformNetworkDisc_1:
        MOV     A,#0x7
        LCALL   ?DEALLOC_XSTACK8
          CFI CFA_XSP16 add(XSP16, 12)
        LJMP    ?Subroutine3 & 0xFFFF
          CFI EndBlock cfiBlock237

        RSEG BANKED_CODE:CODE:NOROOT(0)
?Subroutine20:
          CFI Block cfiCond238 Using cfiCommon0
          CFI Function zll_SetChannel
          CFI Conditional ??CrossCallReturnLabel_22
          CFI DPL0 Frame(CFA_SP, 4)
          CFI DPH0 Frame(CFA_SP, 5)
          CFI CFA_SP SP+-5
          CFI CFA_XSP16 add(XSP16, 2)
          CFI Block cfiCond239 Using cfiCommon0
          CFI (cfiCond239) Function zll_PerformNetworkDisc
          CFI (cfiCond239) Conditional ??CrossCallReturnLabel_23
          CFI (cfiCond239) R6 load(1, XDATA, add(CFA_XSP16, literal(-12)))
          CFI (cfiCond239) VB load(1, XDATA, add(CFA_XSP16, literal(-11)))
          CFI (cfiCond239) V0 load(1, XDATA, add(CFA_XSP16, literal(-10)))
          CFI (cfiCond239) V1 load(1, XDATA, add(CFA_XSP16, literal(-9)))
          CFI (cfiCond239) V2 load(1, XDATA, add(CFA_XSP16, literal(-8)))
          CFI (cfiCond239) V3 load(1, XDATA, add(CFA_XSP16, literal(-7)))
          CFI (cfiCond239) R7 load(1, XDATA, add(CFA_XSP16, literal(-6)))
          CFI (cfiCond239) ?RET_LOW load(1, XDATA, add(CFA_XSP16, literal(-5)))
          CFI (cfiCond239) ?RET_HIGH load(1, XDATA, add(CFA_XSP16, literal(-4)))
          CFI (cfiCond239) ?BRET_EXT load(1, XDATA, add(CFA_XSP16, literal(-3)))
          CFI (cfiCond239) DPL0 load(1, XDATA, add(CFA_XSP16, literal(-2)))
          CFI (cfiCond239) DPH0 load(1, XDATA, add(CFA_XSP16, literal(-1)))
          CFI (cfiCond239) CFA_SP SP+0
          CFI (cfiCond239) CFA_XSP16 add(XSP16, 19)
          CFI Block cfiPicker240 Using cfiCommon1
          CFI (cfiPicker240) NoFunction
          CFI (cfiPicker240) Picker
        MOVX    @DPTR,A
        ; Setup parameters for call to function ZMacGetReq
        ; Setup parameters for call to function NLME_NwkDiscReq2
        MOV     DPL,?XSP + 0
        MOV     DPH,?XSP + 1
        MOV     R2,DPL
        MOV     R3,DPH
        RET
          CFI EndBlock cfiCond238
          CFI EndBlock cfiCond239
          CFI EndBlock cfiPicker240
// 1476 
// 1477 
// 1478 /*********************************************************************
// 1479  * @fn      zll_BeaconIndCB
// 1480  *
// 1481  * @brief   Process the incoming beacon indication.
// 1482  *
// 1483  * @param   param -  pointer to a parameter and a structure of parameters
// 1484  *
// 1485  * @return  void
// 1486  */

        RSEG BANKED_CODE:CODE:NOROOT(0)
// 1487 static void *zll_BeaconIndCB ( void *param )
zll_BeaconIndCB:
          CFI Block cfiBlock241 Using cfiCommon0
          CFI Function zll_BeaconIndCB
        CODE
// 1488 {
        FUNCALL zll_BeaconIndCB, osal_mem_alloc
        LOCFRAME ISTACK, 0, STACK
        LOCFRAME PSTACK, 0, STACK
        LOCFRAME XSTACK, 20, STACK
        LOCFRAME IOVERLAY, 0, STATIC
        LOCFRAME DOVERLAY, 0, STATIC
        ARGFRAME ISTACK, 0, STACK
        ARGFRAME PSTACK, 0, STACK
        ARGFRAME XSTACK, 20, STACK
        ARGFRAME IOVERLAY, 0, STATIC
        ARGFRAME DOVERLAY, 0, STATIC
        FUNCALL zll_BeaconIndCB, osal_memset
        LOCFRAME ISTACK, 0, STACK
        LOCFRAME PSTACK, 0, STACK
        LOCFRAME XSTACK, 20, STACK
        LOCFRAME IOVERLAY, 0, STATIC
        LOCFRAME DOVERLAY, 0, STATIC
        ARGFRAME ISTACK, 0, STACK
        ARGFRAME PSTACK, 0, STACK
        ARGFRAME XSTACK, 20, STACK
        ARGFRAME IOVERLAY, 0, STATIC
        ARGFRAME DOVERLAY, 0, STATIC
        FUNCALL zll_BeaconIndCB, sAddrExtCpy
        LOCFRAME ISTACK, 0, STACK
        LOCFRAME PSTACK, 0, STACK
        LOCFRAME XSTACK, 20, STACK
        LOCFRAME IOVERLAY, 0, STATIC
        LOCFRAME DOVERLAY, 0, STATIC
        ARGFRAME ISTACK, 0, STACK
        ARGFRAME PSTACK, 0, STACK
        ARGFRAME XSTACK, 20, STACK
        ARGFRAME IOVERLAY, 0, STATIC
        ARGFRAME DOVERLAY, 0, STATIC
        FUNCALL zll_BeaconIndCB, osal_memset
        LOCFRAME ISTACK, 0, STACK
        LOCFRAME PSTACK, 0, STACK
        LOCFRAME XSTACK, 20, STACK
        LOCFRAME IOVERLAY, 0, STATIC
        LOCFRAME DOVERLAY, 0, STATIC
        ARGFRAME ISTACK, 0, STACK
        ARGFRAME PSTACK, 0, STACK
        ARGFRAME XSTACK, 20, STACK
        ARGFRAME IOVERLAY, 0, STATIC
        ARGFRAME DOVERLAY, 0, STATIC
        MOV     A,#-0x14
        LCALL   ?BANKED_ENTER_XDATA
          CFI DPH0 load(1, XDATA, add(CFA_XSP16, literal(-1)))
          CFI DPL0 load(1, XDATA, add(CFA_XSP16, literal(-2)))
          CFI ?BRET_EXT load(1, XDATA, add(CFA_XSP16, literal(-3)))
          CFI ?RET_HIGH load(1, XDATA, add(CFA_XSP16, literal(-4)))
          CFI ?RET_LOW load(1, XDATA, add(CFA_XSP16, literal(-5)))
          CFI R7 load(1, XDATA, add(CFA_XSP16, literal(-6)))
          CFI V11 load(1, XDATA, add(CFA_XSP16, literal(-7)))
          CFI V10 load(1, XDATA, add(CFA_XSP16, literal(-8)))
          CFI V9 load(1, XDATA, add(CFA_XSP16, literal(-9)))
          CFI V8 load(1, XDATA, add(CFA_XSP16, literal(-10)))
          CFI V7 load(1, XDATA, add(CFA_XSP16, literal(-11)))
          CFI V6 load(1, XDATA, add(CFA_XSP16, literal(-12)))
          CFI V5 load(1, XDATA, add(CFA_XSP16, literal(-13)))
          CFI V4 load(1, XDATA, add(CFA_XSP16, literal(-14)))
          CFI V3 load(1, XDATA, add(CFA_XSP16, literal(-15)))
          CFI V2 load(1, XDATA, add(CFA_XSP16, literal(-16)))
          CFI V1 load(1, XDATA, add(CFA_XSP16, literal(-17)))
          CFI V0 load(1, XDATA, add(CFA_XSP16, literal(-18)))
          CFI VB load(1, XDATA, add(CFA_XSP16, literal(-19)))
          CFI R6 load(1, XDATA, add(CFA_XSP16, literal(-20)))
          CFI CFA_SP SP+0
          CFI CFA_XSP16 add(XSP16, 20)
        ; Saved register size: 20
        ; Auto size: 0
        MOV     ?V0 + 0,R2
        MOV     ?V0 + 1,R3
// 1489   NLME_beaconInd_t *pBeacon = param;
// 1490   zllDiscoveredNwkParam_t *pParam = pDiscoveredNwkParamList;
        MOV     DPTR,#pDiscoveredNwkParamList
        LCALL   ?Subroutine14 & 0xFFFF
// 1491   zllDiscoveredNwkParam_t *pLastParam;
// 1492   uint8 found = FALSE;
// 1493 
// 1494   if ( pBeacon->permitJoining == TRUE )
??CrossCallReturnLabel_8:
        MOV     A,R2
        ADD     A,#0x5
        MOV     ?V0 + 6,A
        MOV     A,R3
        ADDC    A,#0x0
        MOV     ?V0 + 7,A
        MOV     DPL,?V0 + 6
        MOV     DPH,A
        MOVX    A,@DPTR
        XRL     A,#0x1
        JZ      $+5
        LJMP    ??zll_BeaconIndCB_0 & 0xFFFF
        SJMP    ??CrossCallReturnLabel_9
// 1495   {
// 1496     // Add the network parameter to the Network Parameter List
// 1497     while ( pParam != NULL )
// 1498     {
// 1499       if ( ( pParam->PANID == pBeacon->panID ) &&
// 1500           ( pParam->logicalChannel == pBeacon->logicalChannel ) )
??zll_BeaconIndCB_1:
        MOV     DPL,R6
        MOV     DPH,R7
        INC     DPTR
        INC     DPTR
        LCALL   ??Subroutine43_0 & 0xFFFF
??CrossCallReturnLabel_97:
        MOV     DPL,?V0 + 4
        MOV     DPH,?V0 + 5
        MOVX    A,@DPTR
        XRL     A,R0
        JNZ     ??zll_BeaconIndCB_2
        INC     DPTR
        MOVX    A,@DPTR
        XRL     A,R1
??zll_BeaconIndCB_2:
        JNZ     ??zll_BeaconIndCB_3
        MOV     DPL,R6
        MOV     DPH,R7
        INC     DPTR
        INC     DPTR
        INC     DPTR
        INC     DPTR
        MOVX    A,@DPTR
        MOV     R0,A
        MOV     DPL,?V0 + 2
        MOV     DPH,?V0 + 3
        MOVX    A,@DPTR
        XRL     A,R0
        JZ      ??zll_BeaconIndCB_4
// 1501       {
// 1502         found = TRUE;
// 1503         break;
// 1504       }
// 1505 
// 1506       pLastParam = pParam;
??zll_BeaconIndCB_3:
        MOV     ?V0 + 8,R6
        MOV     ?V0 + 9,R7
// 1507       pParam = pParam->nextParam;
        MOV     DPL,R6
        MOV     DPH,R7
        LCALL   ?Subroutine14 & 0xFFFF
// 1508     }
??CrossCallReturnLabel_9:
        MOV     A,R2
        ADD     A,#0x4
        MOV     ?V0 + 2,A
        MOV     A,R3
        ADDC    A,#0x0
        MOV     ?V0 + 3,A
        MOV     A,R2
        ADD     A,#0x2
        MOV     ?V0 + 4,A
        MOV     A,R3
        ADDC    A,#0x0
        MOV     ?V0 + 5,A
        MOV     A,R6
        ORL     A,R7
        JNZ     ??zll_BeaconIndCB_1
// 1509 
// 1510     // If no existing parameter found, make a new one and add to the list
// 1511     if ( found == FALSE )
// 1512     {
// 1513       pParam = osal_mem_alloc( sizeof( zllDiscoveredNwkParam_t ) );
        ; Setup parameters for call to function osal_mem_alloc
        MOV     R2,#0x13
        MOV     R3,#0x0
        LCALL   ??osal_mem_alloc?relay
        MOV     ?V0 + 10,R2
        MOV     ?V0 + 11,R3
        MOV     R6,?V0 + 10
        MOV     R7,?V0 + 11
// 1514       if ( pParam == NULL )
        MOV     A,R6
        ORL     A,R7
        JNZ     $+5
        LJMP    ??zll_BeaconIndCB_0 & 0xFFFF
// 1515       {
// 1516         // Memory alloc failed, discard this beacon
// 1517         return ( NULL );
// 1518       }
// 1519 
// 1520       // Clear the network descriptor
// 1521       osal_memset( pParam, 0, sizeof( zllDiscoveredNwkParam_t )  );
        ; Setup parameters for call to function osal_memset
        MOV     R4,#0x13
        MOV     R5,#0x0
        MOV     R1,#0x0
        LCALL   ??osal_memset?relay
// 1522 
// 1523       // Initialize the descriptor
// 1524       pParam->chosenRouter = INVALID_NODE_ADDR;
        MOV     A,R6
        ADD     A,#0xd
        LCALL   ??Subroutine40_0 & 0xFFFF
??CrossCallReturnLabel_83:
        LCALL   ?Subroutine26 & 0xFFFF
// 1525       pParam->chosenRouterDepth = 0xFF;
??CrossCallReturnLabel_52:
        MOV     A,R6
        ADD     A,#0x10
        LCALL   ??Subroutine40_0 & 0xFFFF
??CrossCallReturnLabel_84:
        MOV     A,#-0x1
        LCALL   ?Subroutine7 & 0xFFFF
// 1526 
// 1527       // Save new entry into the descriptor list
// 1528       if ( pDiscoveredNwkParamList == NULL )
??CrossCallReturnLabel_114:
        JNZ     ??zll_BeaconIndCB_5
// 1529       {
// 1530         // First element in the list
// 1531         pDiscoveredNwkParamList = pParam;
        MOV     DPTR,#pDiscoveredNwkParamList
        SJMP    ??zll_BeaconIndCB_6
// 1532       }
// 1533       else
// 1534       {
// 1535         // Last element in the list
// 1536         pLastParam->nextParam = pParam;
??zll_BeaconIndCB_5:
        MOV     DPL,?V0 + 8
        MOV     DPH,?V0 + 9
??zll_BeaconIndCB_6:
        MOV     A,R6
        MOVX    @DPTR,A
        INC     DPTR
        MOV     A,R7
        MOVX    @DPTR,A
// 1537       }
// 1538     }
// 1539 
// 1540     // Update the descriptor with the incoming beacon
// 1541     pParam->logicalChannel = pBeacon->logicalChannel;
??zll_BeaconIndCB_4:
        MOV     DPL,?V0 + 2
        MOV     DPH,?V0 + 3
        MOVX    A,@DPTR
        MOV     DPL,R6
        MOV     DPH,R7
        INC     DPTR
        INC     DPTR
        INC     DPTR
        INC     DPTR
        MOVX    @DPTR,A
// 1542     pParam->PANID          = pBeacon->panID;
        MOV     DPL,?V0 + 4
        MOV     DPH,?V0 + 5
        LCALL   ?Subroutine12 & 0xFFFF
??CrossCallReturnLabel_6:
        INC     DPTR
        INC     DPTR
        LCALL   ?Subroutine19 & 0xFFFF
// 1543 
// 1544     // Save the extended PAN ID from the beacon payload only if 1.1 version network
// 1545     if ( pBeacon->protocolVersion != ZB_PROT_V1_0 )
??CrossCallReturnLabel_64:
        MOV     A,R6
        ADD     A,#0x5
        LCALL   ?Subroutine30 & 0xFFFF
??CrossCallReturnLabel_37:
        INC     DPTR
        INC     DPTR
        INC     DPTR
        INC     DPTR
        INC     DPTR
        INC     DPTR
        INC     DPTR
        INC     DPTR
        MOVX    A,@DPTR
        XRL     A,#0x1
        JZ      ??zll_BeaconIndCB_7
// 1546     {
// 1547       osal_cpyExtAddr( pParam->extendedPANID, pBeacon->extendedPanID );
        ; Setup parameters for call to function sAddrExtCpy
        MOV     A,?V0 + 0
        ADD     A,#0xd
        MOV     R4,A
        MOV     A,?V0 + 1
        ADDC    A,#0x0
        MOV     R5,A
        LCALL   ??sAddrExtCpy?relay
        SJMP    ??zll_BeaconIndCB_8
// 1548     }
// 1549     else
// 1550     {
// 1551       osal_memset( pParam->extendedPANID, 0xFF, Z_EXTADDR_LEN );
??zll_BeaconIndCB_7:
        ; Setup parameters for call to function osal_memset
        MOV     R4,#0x8
        MOV     R5,#0x0
        MOV     R1,#-0x1
        LCALL   ??osal_memset?relay
// 1552     }
// 1553 
// 1554     // check if this device is a better choice to join...
// 1555     // ...dont bother checking assocPermit flag is doing a rejoin
// 1556     if ( ( pBeacon->LQI > gMIN_TREE_LINK_COST ) &&
// 1557         (  pBeacon->permitJoining == TRUE   ) )
??zll_BeaconIndCB_8:
        MOV     A,?V0 + 0
        ADD     A,#0xa
        MOV     R0,A
        MOV     A,?V0 + 1
        ADDC    A,#0x0
        MOV     R1,A
        MOV     DPL,R0
        MOV     DPH,R1
        MOVX    A,@DPTR
        MOV     R2,A
        MOV     DPTR,#gMIN_TREE_LINK_COST
        MOVX    A,@DPTR
        CLR     C
        SUBB    A,R2
        JC      $+5
        LJMP    ??zll_BeaconIndCB_0 & 0xFFFF
        MOV     DPL,?V0 + 6
        MOV     DPH,?V0 + 7
        MOVX    A,@DPTR
        XRL     A,#0x1
        JZ      $+5
        LJMP    ??zll_BeaconIndCB_0 & 0xFFFF
// 1558     {
// 1559       uint8 selected = FALSE;
// 1560       uint8 capacity = FALSE;
// 1561 
// 1562       if ( _NIB.nwkAddrAlloc == NWK_ADDRESSING_STOCHASTIC )
        MOV     A,?V0 + 0
        ADD     A,#0x6
        MOV     R2,A
        MOV     A,?V0 + 1
        ADDC    A,#0x0
        MOV     R3,A
        MOV     A,R6
        ADD     A,#0x10
        MOV     R4,A
        MOV     A,R7
        ADDC    A,#0x0
        MOV     R5,A
        MOV     A,?V0 + 0
        ADD     A,#0xb
        MOV     ?V0 + 2,A
        MOV     A,?V0 + 1
        ADDC    A,#0x0
        MOV     ?V0 + 3,A
        MOV     A,R6
        ADD     A,#0xf
        MOV     ?V0 + 4,A
        MOV     A,R7
        ADDC    A,#0x0
        MOV     ?V0 + 5,A
        MOV     DPTR,#_NIB + 96
        MOVX    A,@DPTR
        XRL     A,#0x2
        JNZ     ??zll_BeaconIndCB_9
// 1563       {
// 1564         if ( ((pBeacon->LQI   > pParam->chosenRouterLinkQuality) &&
// 1565               (pBeacon->depth < MAX_NODE_DEPTH)) ||
// 1566             ((pBeacon->LQI   == pParam->chosenRouterLinkQuality) &&
// 1567              (pBeacon->depth < pParam->chosenRouterDepth)) )
        MOV     DPL,R0
        MOV     DPH,R1
        MOVX    A,@DPTR
        MOV     ?V0 + 6,A
        MOV     DPL,?V0 + 4
        MOV     DPH,?V0 + 5
        MOVX    A,@DPTR
        MOV     ?V0 + 7,A
        CLR     C
        SUBB    A,?V0 + 6
        JNC     ??zll_BeaconIndCB_10
        MOV     DPL,?V0 + 2
        MOV     DPH,?V0 + 3
        MOVX    A,@DPTR
        CLR     C
        SUBB    A,#0x14
        JC      ??zll_BeaconIndCB_11
??zll_BeaconIndCB_10:
        MOV     A,?V0 + 7
        XRL     A,?V0 + 6
        JNZ     ??zll_BeaconIndCB_12
// 1568         {
// 1569           selected = TRUE;
// 1570         }
// 1571       }
// 1572       else
// 1573       {
// 1574         if ( pBeacon->depth < pParam->chosenRouterDepth )
??zll_BeaconIndCB_9:
        MOV     DPL,R4
        MOV     DPH,R5
        MOVX    A,@DPTR
        MOV     ?V0 + 6,A
        MOV     DPL,?V0 + 2
        MOV     DPH,?V0 + 3
        MOVX    A,@DPTR
        CLR     C
        SUBB    A,?V0 + 6
        JNC     ??zll_BeaconIndCB_12
// 1575         {
// 1576           selected = TRUE;
// 1577         }
// 1578       }
// 1579 
// 1580       capacity = pBeacon->routerCapacity;
// 1581 
// 1582       if ( (capacity) && (selected) )
??zll_BeaconIndCB_11:
        MOV     DPL,R2
        MOV     DPH,R3
        MOVX    A,@DPTR
        JZ      ??zll_BeaconIndCB_12
// 1583       {
// 1584         // this is the new chosen router for joining...
// 1585         pParam->chosenRouter            = pBeacon->sourceAddr;
        MOV     DPL,?V0 + 0
        MOV     DPH,?V0 + 1
        MOVX    A,@DPTR
        MOV     ?V0 + 6,A
        INC     DPTR
        MOVX    A,@DPTR
        MOV     ?V0 + 7,A
        MOV     A,R6
        ADD     A,#0xd
        LCALL   ??Subroutine40_0 & 0xFFFF
??CrossCallReturnLabel_85:
        MOV     A,?V0 + 6
        MOVX    @DPTR,A
        INC     DPTR
        MOV     A,?V0 + 7
        MOVX    @DPTR,A
// 1586         pParam->chosenRouterLinkQuality = pBeacon->LQI;
        MOV     DPL,R0
        MOV     DPH,R1
        MOVX    A,@DPTR
        MOV     DPL,?V0 + 4
        MOV     DPH,?V0 + 5
        MOVX    @DPTR,A
// 1587         pParam->chosenRouterDepth       = pBeacon->depth;
        MOV     DPL,?V0 + 2
        MOV     DPH,?V0 + 3
        MOVX    A,@DPTR
        MOV     DPL,R4
        MOV     DPH,R5
        MOVX    @DPTR,A
// 1588       }
// 1589 
// 1590       if ( pBeacon->deviceCapacity )
??zll_BeaconIndCB_12:
        MOV     DPL,?V0 + 0
        MOV     DPH,?V0 + 1
        INC     DPTR
        INC     DPTR
        INC     DPTR
        INC     DPTR
        INC     DPTR
        INC     DPTR
        INC     DPTR
        MOVX    A,@DPTR
        JZ      ??zll_BeaconIndCB_13
// 1591         pParam->deviceCapacity = 1;
        MOV     A,R6
        ADD     A,#0x12
        LCALL   ??Subroutine40_0 & 0xFFFF
??CrossCallReturnLabel_86:
        MOV     A,#0x1
        MOVX    @DPTR,A
// 1592 
// 1593       if ( pBeacon->routerCapacity )
??zll_BeaconIndCB_13:
        MOV     DPL,R2
        MOV     DPH,R3
        MOVX    A,@DPTR
        JZ      ??zll_BeaconIndCB_0
// 1594         pParam->routerCapacity = 1;
        MOV     A,R6
        ADD     A,#0x11
        LCALL   ??Subroutine40_0 & 0xFFFF
// 1595     }
// 1596   }
??CrossCallReturnLabel_87:
        MOV     A,#0x1
        MOVX    @DPTR,A
// 1597   return ( NULL );
??zll_BeaconIndCB_0:
        MOV     R2,#0x0
        MOV     R3,#0x0
        LJMP    ?Subroutine6 & 0xFFFF
          CFI EndBlock cfiBlock241
// 1598 }

        RSEG BANKED_CODE:CODE:NOROOT(0)
?Subroutine30:
          CFI Block cfiCond242 Using cfiCommon0
          CFI Function zll_SendScanRsp
          CFI Conditional ??CrossCallReturnLabel_36
          CFI R6 load(1, XDATA, add(CFA_XSP16, literal(-22)))
          CFI VB load(1, XDATA, add(CFA_XSP16, literal(-21)))
          CFI V0 load(1, XDATA, add(CFA_XSP16, literal(-20)))
          CFI V1 load(1, XDATA, add(CFA_XSP16, literal(-19)))
          CFI V2 load(1, XDATA, add(CFA_XSP16, literal(-18)))
          CFI V3 load(1, XDATA, add(CFA_XSP16, literal(-17)))
          CFI V4 load(1, XDATA, add(CFA_XSP16, literal(-16)))
          CFI V5 load(1, XDATA, add(CFA_XSP16, literal(-15)))
          CFI V6 load(1, XDATA, add(CFA_XSP16, literal(-14)))
          CFI V7 load(1, XDATA, add(CFA_XSP16, literal(-13)))
          CFI V8 load(1, XDATA, add(CFA_XSP16, literal(-12)))
          CFI V9 load(1, XDATA, add(CFA_XSP16, literal(-11)))
          CFI V10 load(1, XDATA, add(CFA_XSP16, literal(-10)))
          CFI V11 load(1, XDATA, add(CFA_XSP16, literal(-9)))
          CFI V12 load(1, XDATA, add(CFA_XSP16, literal(-8)))
          CFI V13 load(1, XDATA, add(CFA_XSP16, literal(-7)))
          CFI R7 load(1, XDATA, add(CFA_XSP16, literal(-6)))
          CFI ?RET_LOW load(1, XDATA, add(CFA_XSP16, literal(-5)))
          CFI ?RET_HIGH load(1, XDATA, add(CFA_XSP16, literal(-4)))
          CFI ?BRET_EXT load(1, XDATA, add(CFA_XSP16, literal(-3)))
          CFI DPL0 load(1, XDATA, add(CFA_XSP16, literal(-2)))
          CFI DPH0 load(1, XDATA, add(CFA_XSP16, literal(-1)))
          CFI CFA_SP SP+0
          CFI CFA_XSP16 add(XSP16, 22)
          CFI Block cfiCond243 Using cfiCommon0
          CFI (cfiCond243) Function zll_BeaconIndCB
          CFI (cfiCond243) Conditional ??CrossCallReturnLabel_37
          CFI (cfiCond243) R6 load(1, XDATA, add(CFA_XSP16, literal(-20)))
          CFI (cfiCond243) VB load(1, XDATA, add(CFA_XSP16, literal(-19)))
          CFI (cfiCond243) V0 load(1, XDATA, add(CFA_XSP16, literal(-18)))
          CFI (cfiCond243) V1 load(1, XDATA, add(CFA_XSP16, literal(-17)))
          CFI (cfiCond243) V2 load(1, XDATA, add(CFA_XSP16, literal(-16)))
          CFI (cfiCond243) V3 load(1, XDATA, add(CFA_XSP16, literal(-15)))
          CFI (cfiCond243) V4 load(1, XDATA, add(CFA_XSP16, literal(-14)))
          CFI (cfiCond243) V5 load(1, XDATA, add(CFA_XSP16, literal(-13)))
          CFI (cfiCond243) V6 load(1, XDATA, add(CFA_XSP16, literal(-12)))
          CFI (cfiCond243) V7 load(1, XDATA, add(CFA_XSP16, literal(-11)))
          CFI (cfiCond243) V8 load(1, XDATA, add(CFA_XSP16, literal(-10)))
          CFI (cfiCond243) V9 load(1, XDATA, add(CFA_XSP16, literal(-9)))
          CFI (cfiCond243) V10 load(1, XDATA, add(CFA_XSP16, literal(-8)))
          CFI (cfiCond243) V11 load(1, XDATA, add(CFA_XSP16, literal(-7)))
          CFI (cfiCond243) R7 load(1, XDATA, add(CFA_XSP16, literal(-6)))
          CFI (cfiCond243) ?RET_LOW load(1, XDATA, add(CFA_XSP16, literal(-5)))
          CFI (cfiCond243) ?RET_HIGH load(1, XDATA, add(CFA_XSP16, literal(-4)))
          CFI (cfiCond243) ?BRET_EXT load(1, XDATA, add(CFA_XSP16, literal(-3)))
          CFI (cfiCond243) DPL0 load(1, XDATA, add(CFA_XSP16, literal(-2)))
          CFI (cfiCond243) DPH0 load(1, XDATA, add(CFA_XSP16, literal(-1)))
          CFI (cfiCond243) CFA_SP SP+0
          CFI (cfiCond243) CFA_XSP16 add(XSP16, 20)
          CFI Block cfiPicker244 Using cfiCommon1
          CFI (cfiPicker244) NoFunction
          CFI (cfiPicker244) Picker
        MOV     R2,A
        MOV     A,R7
        ADDC    A,#0x0
        MOV     R3,A
        MOV     DPL,?V0 + 0
        MOV     DPH,?V0 + 1
        RET
          CFI EndBlock cfiCond242
          CFI EndBlock cfiCond243
          CFI EndBlock cfiPicker244

        RSEG BANKED_CODE:CODE:NOROOT(0)
?Subroutine14:
          CFI Block cfiCond245 Using cfiCommon0
          CFI Function zll_SplitFreeRanges
          CFI Conditional ??CrossCallReturnLabel_7
          CFI R6 load(1, XDATA, add(CFA_XSP16, literal(-18)))
          CFI VB load(1, XDATA, add(CFA_XSP16, literal(-17)))
          CFI V0 load(1, XDATA, add(CFA_XSP16, literal(-16)))
          CFI V1 load(1, XDATA, add(CFA_XSP16, literal(-15)))
          CFI V2 load(1, XDATA, add(CFA_XSP16, literal(-14)))
          CFI V3 load(1, XDATA, add(CFA_XSP16, literal(-13)))
          CFI V4 load(1, XDATA, add(CFA_XSP16, literal(-12)))
          CFI V5 load(1, XDATA, add(CFA_XSP16, literal(-11)))
          CFI V6 load(1, XDATA, add(CFA_XSP16, literal(-10)))
          CFI V7 load(1, XDATA, add(CFA_XSP16, literal(-9)))
          CFI V8 load(1, XDATA, add(CFA_XSP16, literal(-8)))
          CFI V9 load(1, XDATA, add(CFA_XSP16, literal(-7)))
          CFI R7 load(1, XDATA, add(CFA_XSP16, literal(-6)))
          CFI ?RET_LOW load(1, XDATA, add(CFA_XSP16, literal(-5)))
          CFI ?RET_HIGH load(1, XDATA, add(CFA_XSP16, literal(-4)))
          CFI ?BRET_EXT load(1, XDATA, add(CFA_XSP16, literal(-3)))
          CFI DPL0 load(1, XDATA, add(CFA_XSP16, literal(-2)))
          CFI DPH0 load(1, XDATA, add(CFA_XSP16, literal(-1)))
          CFI CFA_SP SP+0
          CFI CFA_XSP16 add(XSP16, 18)
          CFI Block cfiCond246 Using cfiCommon0
          CFI (cfiCond246) Function zll_BeaconIndCB
          CFI (cfiCond246) Conditional ??CrossCallReturnLabel_8
          CFI (cfiCond246) R6 load(1, XDATA, add(CFA_XSP16, literal(-20)))
          CFI (cfiCond246) VB load(1, XDATA, add(CFA_XSP16, literal(-19)))
          CFI (cfiCond246) V0 load(1, XDATA, add(CFA_XSP16, literal(-18)))
          CFI (cfiCond246) V1 load(1, XDATA, add(CFA_XSP16, literal(-17)))
          CFI (cfiCond246) V2 load(1, XDATA, add(CFA_XSP16, literal(-16)))
          CFI (cfiCond246) V3 load(1, XDATA, add(CFA_XSP16, literal(-15)))
          CFI (cfiCond246) V4 load(1, XDATA, add(CFA_XSP16, literal(-14)))
          CFI (cfiCond246) V5 load(1, XDATA, add(CFA_XSP16, literal(-13)))
          CFI (cfiCond246) V6 load(1, XDATA, add(CFA_XSP16, literal(-12)))
          CFI (cfiCond246) V7 load(1, XDATA, add(CFA_XSP16, literal(-11)))
          CFI (cfiCond246) V8 load(1, XDATA, add(CFA_XSP16, literal(-10)))
          CFI (cfiCond246) V9 load(1, XDATA, add(CFA_XSP16, literal(-9)))
          CFI (cfiCond246) V10 load(1, XDATA, add(CFA_XSP16, literal(-8)))
          CFI (cfiCond246) V11 load(1, XDATA, add(CFA_XSP16, literal(-7)))
          CFI (cfiCond246) R7 load(1, XDATA, add(CFA_XSP16, literal(-6)))
          CFI (cfiCond246) ?RET_LOW load(1, XDATA, add(CFA_XSP16, literal(-5)))
          CFI (cfiCond246) ?RET_HIGH load(1, XDATA, add(CFA_XSP16, literal(-4)))
          CFI (cfiCond246) ?BRET_EXT load(1, XDATA, add(CFA_XSP16, literal(-3)))
          CFI (cfiCond246) DPL0 load(1, XDATA, add(CFA_XSP16, literal(-2)))
          CFI (cfiCond246) DPH0 load(1, XDATA, add(CFA_XSP16, literal(-1)))
          CFI (cfiCond246) CFA_SP SP+0
          CFI (cfiCond246) CFA_XSP16 add(XSP16, 20)
          CFI Block cfiCond247 Using cfiCommon0
          CFI (cfiCond247) Function zll_BeaconIndCB
          CFI (cfiCond247) Conditional ??CrossCallReturnLabel_9
          CFI (cfiCond247) R6 load(1, XDATA, add(CFA_XSP16, literal(-20)))
          CFI (cfiCond247) VB load(1, XDATA, add(CFA_XSP16, literal(-19)))
          CFI (cfiCond247) V0 load(1, XDATA, add(CFA_XSP16, literal(-18)))
          CFI (cfiCond247) V1 load(1, XDATA, add(CFA_XSP16, literal(-17)))
          CFI (cfiCond247) V2 load(1, XDATA, add(CFA_XSP16, literal(-16)))
          CFI (cfiCond247) V3 load(1, XDATA, add(CFA_XSP16, literal(-15)))
          CFI (cfiCond247) V4 load(1, XDATA, add(CFA_XSP16, literal(-14)))
          CFI (cfiCond247) V5 load(1, XDATA, add(CFA_XSP16, literal(-13)))
          CFI (cfiCond247) V6 load(1, XDATA, add(CFA_XSP16, literal(-12)))
          CFI (cfiCond247) V7 load(1, XDATA, add(CFA_XSP16, literal(-11)))
          CFI (cfiCond247) V8 load(1, XDATA, add(CFA_XSP16, literal(-10)))
          CFI (cfiCond247) V9 load(1, XDATA, add(CFA_XSP16, literal(-9)))
          CFI (cfiCond247) V10 load(1, XDATA, add(CFA_XSP16, literal(-8)))
          CFI (cfiCond247) V11 load(1, XDATA, add(CFA_XSP16, literal(-7)))
          CFI (cfiCond247) R7 load(1, XDATA, add(CFA_XSP16, literal(-6)))
          CFI (cfiCond247) ?RET_LOW load(1, XDATA, add(CFA_XSP16, literal(-5)))
          CFI (cfiCond247) ?RET_HIGH load(1, XDATA, add(CFA_XSP16, literal(-4)))
          CFI (cfiCond247) ?BRET_EXT load(1, XDATA, add(CFA_XSP16, literal(-3)))
          CFI (cfiCond247) DPL0 load(1, XDATA, add(CFA_XSP16, literal(-2)))
          CFI (cfiCond247) DPH0 load(1, XDATA, add(CFA_XSP16, literal(-1)))
          CFI (cfiCond247) CFA_SP SP+0
          CFI (cfiCond247) CFA_XSP16 add(XSP16, 20)
          CFI Block cfiCond248 Using cfiCommon0
          CFI (cfiCond248) Function zll_FreeNwkParamList
          CFI (cfiCond248) Conditional ??CrossCallReturnLabel_10
          CFI (cfiCond248) R6 load(1, XDATA, add(CFA_XSP16, literal(-9)))
          CFI (cfiCond248) VB load(1, XDATA, add(CFA_XSP16, literal(-8)))
          CFI (cfiCond248) V0 load(1, XDATA, add(CFA_XSP16, literal(-7)))
          CFI (cfiCond248) R7 load(1, XDATA, add(CFA_XSP16, literal(-6)))
          CFI (cfiCond248) ?RET_LOW load(1, XDATA, add(CFA_XSP16, literal(-5)))
          CFI (cfiCond248) ?RET_HIGH load(1, XDATA, add(CFA_XSP16, literal(-4)))
          CFI (cfiCond248) ?BRET_EXT load(1, XDATA, add(CFA_XSP16, literal(-3)))
          CFI (cfiCond248) DPL0 load(1, XDATA, add(CFA_XSP16, literal(-2)))
          CFI (cfiCond248) DPH0 load(1, XDATA, add(CFA_XSP16, literal(-1)))
          CFI (cfiCond248) CFA_SP SP+0
          CFI (cfiCond248) CFA_XSP16 add(XSP16, 9)
          CFI Block cfiPicker249 Using cfiCommon1
          CFI (cfiPicker249) NoFunction
          CFI (cfiPicker249) Picker
        MOVX    A,@DPTR
        MOV     R6,A
        INC     DPTR
        MOVX    A,@DPTR
        MOV     R7,A
        RET
          CFI EndBlock cfiCond245
          CFI EndBlock cfiCond246
          CFI EndBlock cfiCond247
          CFI EndBlock cfiCond248
          CFI EndBlock cfiPicker249

        RSEG BANKED_CODE:CODE:NOROOT(0)
?Subroutine12:
          CFI Block cfiCond250 Using cfiCommon0
          CFI Function zll_SplitFreeRanges
          CFI Conditional ??CrossCallReturnLabel_5
          CFI R6 load(1, XDATA, add(CFA_XSP16, literal(-18)))
          CFI VB load(1, XDATA, add(CFA_XSP16, literal(-17)))
          CFI V0 load(1, XDATA, add(CFA_XSP16, literal(-16)))
          CFI V1 load(1, XDATA, add(CFA_XSP16, literal(-15)))
          CFI V2 load(1, XDATA, add(CFA_XSP16, literal(-14)))
          CFI V3 load(1, XDATA, add(CFA_XSP16, literal(-13)))
          CFI V4 load(1, XDATA, add(CFA_XSP16, literal(-12)))
          CFI V5 load(1, XDATA, add(CFA_XSP16, literal(-11)))
          CFI V6 load(1, XDATA, add(CFA_XSP16, literal(-10)))
          CFI V7 load(1, XDATA, add(CFA_XSP16, literal(-9)))
          CFI V8 load(1, XDATA, add(CFA_XSP16, literal(-8)))
          CFI V9 load(1, XDATA, add(CFA_XSP16, literal(-7)))
          CFI R7 load(1, XDATA, add(CFA_XSP16, literal(-6)))
          CFI ?RET_LOW load(1, XDATA, add(CFA_XSP16, literal(-5)))
          CFI ?RET_HIGH load(1, XDATA, add(CFA_XSP16, literal(-4)))
          CFI ?BRET_EXT load(1, XDATA, add(CFA_XSP16, literal(-3)))
          CFI DPL0 load(1, XDATA, add(CFA_XSP16, literal(-2)))
          CFI DPH0 load(1, XDATA, add(CFA_XSP16, literal(-1)))
          CFI CFA_SP SP+0
          CFI CFA_XSP16 add(XSP16, 18)
          CFI Block cfiCond251 Using cfiCommon0
          CFI (cfiCond251) Function zll_BeaconIndCB
          CFI (cfiCond251) Conditional ??CrossCallReturnLabel_6
          CFI (cfiCond251) R6 load(1, XDATA, add(CFA_XSP16, literal(-20)))
          CFI (cfiCond251) VB load(1, XDATA, add(CFA_XSP16, literal(-19)))
          CFI (cfiCond251) V0 load(1, XDATA, add(CFA_XSP16, literal(-18)))
          CFI (cfiCond251) V1 load(1, XDATA, add(CFA_XSP16, literal(-17)))
          CFI (cfiCond251) V2 load(1, XDATA, add(CFA_XSP16, literal(-16)))
          CFI (cfiCond251) V3 load(1, XDATA, add(CFA_XSP16, literal(-15)))
          CFI (cfiCond251) V4 load(1, XDATA, add(CFA_XSP16, literal(-14)))
          CFI (cfiCond251) V5 load(1, XDATA, add(CFA_XSP16, literal(-13)))
          CFI (cfiCond251) V6 load(1, XDATA, add(CFA_XSP16, literal(-12)))
          CFI (cfiCond251) V7 load(1, XDATA, add(CFA_XSP16, literal(-11)))
          CFI (cfiCond251) V8 load(1, XDATA, add(CFA_XSP16, literal(-10)))
          CFI (cfiCond251) V9 load(1, XDATA, add(CFA_XSP16, literal(-9)))
          CFI (cfiCond251) V10 load(1, XDATA, add(CFA_XSP16, literal(-8)))
          CFI (cfiCond251) V11 load(1, XDATA, add(CFA_XSP16, literal(-7)))
          CFI (cfiCond251) R7 load(1, XDATA, add(CFA_XSP16, literal(-6)))
          CFI (cfiCond251) ?RET_LOW load(1, XDATA, add(CFA_XSP16, literal(-5)))
          CFI (cfiCond251) ?RET_HIGH load(1, XDATA, add(CFA_XSP16, literal(-4)))
          CFI (cfiCond251) ?BRET_EXT load(1, XDATA, add(CFA_XSP16, literal(-3)))
          CFI (cfiCond251) DPL0 load(1, XDATA, add(CFA_XSP16, literal(-2)))
          CFI (cfiCond251) DPH0 load(1, XDATA, add(CFA_XSP16, literal(-1)))
          CFI (cfiCond251) CFA_SP SP+0
          CFI (cfiCond251) CFA_XSP16 add(XSP16, 20)
          CFI Block cfiPicker252 Using cfiCommon1
          CFI (cfiPicker252) NoFunction
          CFI (cfiPicker252) Picker
        MOVX    A,@DPTR
        MOV     R0,A
        INC     DPTR
        MOVX    A,@DPTR
        MOV     R1,A
        MOV     DPL,R6
        MOV     DPH,R7
        RET
          CFI EndBlock cfiCond250
          CFI EndBlock cfiCond251
          CFI EndBlock cfiPicker252
// 1599 
// 1600 /*********************************************************************
// 1601  * @fn      zll_NwkDiscoveryCnfCB
// 1602  *
// 1603  * @brief   Send an event to inform the target the completion of
// 1604  *          network discovery scan
// 1605  *
// 1606  * @param   param - pointer to a parameter and a structure of parameters
// 1607  *
// 1608  * @return  void
// 1609  */

        RSEG BANKED_CODE:CODE:NOROOT(0)
// 1610 static void *zll_NwkDiscoveryCnfCB ( void *param )
zll_NwkDiscoveryCnfCB:
          CFI Block cfiBlock253 Using cfiCommon0
          CFI Function zll_NwkDiscoveryCnfCB
        CODE
// 1611 {
        FUNCALL zll_NwkDiscoveryCnfCB, ZDO_DeregisterForZdoCB
        LOCFRAME ISTACK, 2, STACK
        LOCFRAME PSTACK, 0, STACK
        LOCFRAME XSTACK, 0, STACK
        LOCFRAME IOVERLAY, 0, STATIC
        LOCFRAME DOVERLAY, 0, STATIC
        ARGFRAME ISTACK, 2, STACK
        ARGFRAME PSTACK, 0, STACK
        ARGFRAME XSTACK, 0, STACK
        ARGFRAME IOVERLAY, 0, STATIC
        ARGFRAME DOVERLAY, 0, STATIC
        FUNCALL zll_NwkDiscoveryCnfCB, ZDO_DeregisterForZdoCB
        LOCFRAME ISTACK, 2, STACK
        LOCFRAME PSTACK, 0, STACK
        LOCFRAME XSTACK, 0, STACK
        LOCFRAME IOVERLAY, 0, STATIC
        LOCFRAME DOVERLAY, 0, STATIC
        ARGFRAME ISTACK, 2, STACK
        ARGFRAME PSTACK, 0, STACK
        ARGFRAME XSTACK, 0, STACK
        ARGFRAME IOVERLAY, 0, STATIC
        ARGFRAME DOVERLAY, 0, STATIC
        FUNCALL zll_NwkDiscoveryCnfCB, NLME_NwkDiscTerm
        LOCFRAME ISTACK, 2, STACK
        LOCFRAME PSTACK, 0, STACK
        LOCFRAME XSTACK, 0, STACK
        LOCFRAME IOVERLAY, 0, STATIC
        LOCFRAME DOVERLAY, 0, STATIC
        ARGFRAME ISTACK, 2, STACK
        ARGFRAME PSTACK, 0, STACK
        ARGFRAME XSTACK, 0, STACK
        ARGFRAME IOVERLAY, 0, STATIC
        ARGFRAME DOVERLAY, 0, STATIC
        FUNCALL zll_NwkDiscoveryCnfCB, osal_set_event
        LOCFRAME ISTACK, 2, STACK
        LOCFRAME PSTACK, 0, STACK
        LOCFRAME XSTACK, 0, STACK
        LOCFRAME IOVERLAY, 0, STATIC
        LOCFRAME DOVERLAY, 0, STATIC
        ARGFRAME ISTACK, 2, STACK
        ARGFRAME PSTACK, 0, STACK
        ARGFRAME XSTACK, 0, STACK
        ARGFRAME IOVERLAY, 0, STATIC
        ARGFRAME DOVERLAY, 0, STATIC
        FUNCALL zll_NwkDiscoveryCnfCB, zll_ClassicalCommissioningNetworkDisc
        LOCFRAME ISTACK, 2, STACK
        LOCFRAME PSTACK, 0, STACK
        LOCFRAME XSTACK, 0, STACK
        LOCFRAME IOVERLAY, 0, STATIC
        LOCFRAME DOVERLAY, 0, STATIC
        ARGFRAME ISTACK, 2, STACK
        ARGFRAME PSTACK, 0, STACK
        ARGFRAME XSTACK, 0, STACK
        ARGFRAME IOVERLAY, 0, STATIC
        ARGFRAME DOVERLAY, 0, STATIC
        FUNCALL zll_NwkDiscoveryCnfCB, osal_set_event
        LOCFRAME ISTACK, 2, STACK
        LOCFRAME PSTACK, 0, STACK
        LOCFRAME XSTACK, 0, STACK
        LOCFRAME IOVERLAY, 0, STATIC
        LOCFRAME DOVERLAY, 0, STATIC
        ARGFRAME ISTACK, 2, STACK
        ARGFRAME PSTACK, 0, STACK
        ARGFRAME XSTACK, 0, STACK
        ARGFRAME IOVERLAY, 0, STATIC
        ARGFRAME DOVERLAY, 0, STATIC
        PUSH    DPL
          CFI DPL0 Frame(CFA_SP, 4)
          CFI CFA_SP SP+-4
        PUSH    DPH
          CFI DPH0 Frame(CFA_SP, 5)
          CFI CFA_SP SP+-5
        ; Saved register size: 2
        ; Auto size: 0
// 1612   // Scan completed. De-register the callbacks with ZDO
// 1613   ZDO_DeregisterForZdoCB( ZDO_NWK_DISCOVERY_CNF_CBID );
        ; Setup parameters for call to function ZDO_DeregisterForZdoCB
        MOV     R1,#0x2
        LCALL   ??ZDO_DeregisterForZdoCB?relay
// 1614   ZDO_DeregisterForZdoCB( ZDO_BEACON_NOTIFY_IND_CBID );
        ; Setup parameters for call to function ZDO_DeregisterForZdoCB
        MOV     R1,#0x3
        LCALL   ??ZDO_DeregisterForZdoCB?relay
// 1615 
// 1616   NLME_NwkDiscTerm();
        ; Setup parameters for call to function NLME_NwkDiscTerm
        LCALL   ??NLME_NwkDiscTerm?relay
// 1617 
// 1618   if ( pDiscoveredNwkParamList != NULL )
        LCALL   ??Subroutine45_0 & 0xFFFF
??CrossCallReturnLabel_123:
        JZ      ??zll_NwkDiscoveryCnfCB_0
// 1619   {
// 1620     // proceed to join the network, otherwise
// 1621     // Notify our task
// 1622     osal_set_event( zllTaskId, ZLL_NWK_DISC_CNF_EVT );
        ; Setup parameters for call to function osal_set_event
        MOV     R2,#0x1
        MOV     R3,#0x0
        SJMP    ??zll_NwkDiscoveryCnfCB_1
// 1623   }
// 1624   else
// 1625   {
// 1626     if ( zllHAScanInitiated == ZLL_SCAN_PRIMARY_CHANNELS )
??zll_NwkDiscoveryCnfCB_0:
        MOV     DPTR,#zllHAScanInitiated
        MOVX    A,@DPTR
        XRL     A,#0x1
        JNZ     ??zll_NwkDiscoveryCnfCB_2
// 1627     {
// 1628       // try discovery in secondary ZLL channel list
// 1629       zllHAScanInitiated = ZLL_SCAN_SECONDARY_CHANNELS;
        MOV     A,#0x2
        MOVX    @DPTR,A
// 1630 
// 1631       zll_ClassicalCommissioningNetworkDisc();
        ; Setup parameters for call to function zll_ClassicalCommissioningNetworkDisc
        LCALL   ??zll_ClassicalCommissioningNetworkDisc?relay
        SJMP    ??zll_NwkDiscoveryCnfCB_3
// 1632     }
// 1633     else
// 1634     {
// 1635       if ( zllHAScanInitiated != FALSE )
??zll_NwkDiscoveryCnfCB_2:
        MOVX    A,@DPTR
        JZ      ??zll_NwkDiscoveryCnfCB_4
// 1636       {
// 1637         zllHAScanInitiated = ZLL_SCAN_FOUND_NOTHING;
        MOV     A,#0x3
        MOVX    @DPTR,A
// 1638       }
// 1639       zllJoinedHANetwork = FALSE;
??zll_NwkDiscoveryCnfCB_4:
        MOV     DPTR,#zllJoinedHANetwork
        CLR     A
        MOVX    @DPTR,A
// 1640 
// 1641       // no suitable network in secondary channel list, then just wait for touchlink
// 1642       // Notify our task
// 1643       osal_set_event( zllTaskId, ZLL_NWK_DISC_CNF_EVT );
        ; Setup parameters for call to function osal_set_event
        MOV     R2,#0x1
        MOV     R3,A
??zll_NwkDiscoveryCnfCB_1:
        MOV     DPTR,#zllTaskId
        MOVX    A,@DPTR
        MOV     R1,A
        LCALL   ??osal_set_event?relay
// 1644     }
// 1645   }
// 1646 
// 1647   return ( NULL );
??zll_NwkDiscoveryCnfCB_3:
        MOV     R2,#0x0
        MOV     R3,#0x0
        LJMP    ??Subroutine39_0 & 0xFFFF
          CFI EndBlock cfiBlock253
// 1648 }
// 1649 
// 1650 /****************************************************************************
// 1651  * @fn      zll_FreeNwkParamList
// 1652  *
// 1653  * @brief   This function frees any network discovery data.
// 1654  *
// 1655  * @param   none
// 1656  *
// 1657  * @return  none
// 1658  */

        RSEG BANKED_CODE:CODE:NOROOT(0)
// 1659 void zll_FreeNwkParamList( void )
zll_FreeNwkParamList:
          CFI Block cfiBlock254 Using cfiCommon0
          CFI Function zll_FreeNwkParamList
        CODE
// 1660 {
        FUNCALL zll_FreeNwkParamList, osal_mem_free
        LOCFRAME ISTACK, 0, STACK
        LOCFRAME PSTACK, 0, STACK
        LOCFRAME XSTACK, 9, STACK
        LOCFRAME IOVERLAY, 0, STATIC
        LOCFRAME DOVERLAY, 0, STATIC
        ARGFRAME ISTACK, 0, STACK
        ARGFRAME PSTACK, 0, STACK
        ARGFRAME XSTACK, 9, STACK
        ARGFRAME IOVERLAY, 0, STATIC
        ARGFRAME DOVERLAY, 0, STATIC
        MOV     A,#-0x9
        LCALL   ?BANKED_ENTER_XDATA
          CFI DPH0 load(1, XDATA, add(CFA_XSP16, literal(-1)))
          CFI DPL0 load(1, XDATA, add(CFA_XSP16, literal(-2)))
          CFI ?BRET_EXT load(1, XDATA, add(CFA_XSP16, literal(-3)))
          CFI ?RET_HIGH load(1, XDATA, add(CFA_XSP16, literal(-4)))
          CFI ?RET_LOW load(1, XDATA, add(CFA_XSP16, literal(-5)))
          CFI R7 load(1, XDATA, add(CFA_XSP16, literal(-6)))
          CFI V0 load(1, XDATA, add(CFA_XSP16, literal(-7)))
          CFI VB load(1, XDATA, add(CFA_XSP16, literal(-8)))
          CFI R6 load(1, XDATA, add(CFA_XSP16, literal(-9)))
          CFI CFA_SP SP+0
          CFI CFA_XSP16 add(XSP16, 9)
        ; Saved register size: 9
        ; Auto size: 0
// 1661   zllDiscoveredNwkParam_t *pParam = pDiscoveredNwkParamList;
        MOV     DPTR,#pDiscoveredNwkParamList
        MOVX    A,@DPTR
        MOV     R2,A
        INC     DPTR
        MOVX    A,@DPTR
        SJMP    ??zll_FreeNwkParamList_0
// 1662   zllDiscoveredNwkParam_t *pNextParam;
// 1663 
// 1664   // deallocate the pDiscoveredNwkParamList memory
// 1665   while ( pParam != NULL )
// 1666   {
// 1667     pNextParam = pParam->nextParam;
??zll_FreeNwkParamList_1:
        MOV     DPL,R2
        MOV     DPH,R3
        LCALL   ?Subroutine14 & 0xFFFF
// 1668 
// 1669     osal_mem_free( pParam );
??CrossCallReturnLabel_10:
        ; Setup parameters for call to function osal_mem_free
        LCALL   ??osal_mem_free?relay
// 1670 
// 1671     pParam = pNextParam;
        MOV     A,R6
        MOV     R2,A
        MOV     A,R7
??zll_FreeNwkParamList_0:
        MOV     R3,A
// 1672   }
        MOV     A,R2
        ORL     A,R3
        JNZ     ??zll_FreeNwkParamList_1
// 1673 
// 1674   pDiscoveredNwkParamList = NULL;
        MOV     DPTR,#pDiscoveredNwkParamList
        CLR     A
        MOVX    @DPTR,A
        INC     DPTR
        MOVX    @DPTR,A
// 1675 }
        LJMP    ?Subroutine5 & 0xFFFF
          CFI EndBlock cfiBlock254
// 1676 
// 1677 /****************************************************************************
// 1678  * @fn      zll_SetTCLK
// 1679  *
// 1680  * @brief   This function sets the default ZLL link key in the TC Link Key table,
// 1681  *          in the last entry.
// 1682  *
// 1683  * @param   none
// 1684  *
// 1685  * @return  none
// 1686  */

        RSEG BANKED_CODE:CODE:NOROOT(0)
// 1687 static void zll_SetTCLK()
zll_SetTCLK:
          CFI Block cfiBlock255 Using cfiCommon0
          CFI Function zll_SetTCLK
        CODE
// 1688 {
        FUNCALL zll_SetTCLK, osal_memset
        LOCFRAME ISTACK, 0, STACK
        LOCFRAME PSTACK, 0, STACK
        LOCFRAME XSTACK, 59, STACK
        LOCFRAME IOVERLAY, 0, STATIC
        LOCFRAME DOVERLAY, 0, STATIC
        ARGFRAME ISTACK, 0, STACK
        ARGFRAME PSTACK, 0, STACK
        ARGFRAME XSTACK, 59, STACK
        ARGFRAME IOVERLAY, 0, STATIC
        ARGFRAME DOVERLAY, 0, STATIC
        FUNCALL zll_SetTCLK, osal_memcpy
        LOCFRAME ISTACK, 0, STACK
        LOCFRAME PSTACK, 0, STACK
        LOCFRAME XSTACK, 62, STACK
        LOCFRAME IOVERLAY, 0, STATIC
        LOCFRAME DOVERLAY, 0, STATIC
        ARGFRAME ISTACK, 0, STACK
        ARGFRAME PSTACK, 0, STACK
        ARGFRAME XSTACK, 62, STACK
        ARGFRAME IOVERLAY, 0, STATIC
        ARGFRAME DOVERLAY, 0, STATIC
        FUNCALL zll_SetTCLK, osal_nv_write
        LOCFRAME ISTACK, 0, STACK
        LOCFRAME PSTACK, 0, STACK
        LOCFRAME XSTACK, 63, STACK
        LOCFRAME IOVERLAY, 0, STATIC
        LOCFRAME DOVERLAY, 0, STATIC
        ARGFRAME ISTACK, 0, STACK
        ARGFRAME PSTACK, 0, STACK
        ARGFRAME XSTACK, 63, STACK
        ARGFRAME IOVERLAY, 0, STATIC
        ARGFRAME DOVERLAY, 0, STATIC
        MOV     A,#-0xb
        LCALL   ?BANKED_ENTER_XDATA
          CFI DPH0 load(1, XDATA, add(CFA_XSP16, literal(-1)))
          CFI DPL0 load(1, XDATA, add(CFA_XSP16, literal(-2)))
          CFI ?BRET_EXT load(1, XDATA, add(CFA_XSP16, literal(-3)))
          CFI ?RET_HIGH load(1, XDATA, add(CFA_XSP16, literal(-4)))
          CFI ?RET_LOW load(1, XDATA, add(CFA_XSP16, literal(-5)))
          CFI R7 load(1, XDATA, add(CFA_XSP16, literal(-6)))
          CFI V2 load(1, XDATA, add(CFA_XSP16, literal(-7)))
          CFI V1 load(1, XDATA, add(CFA_XSP16, literal(-8)))
          CFI V0 load(1, XDATA, add(CFA_XSP16, literal(-9)))
          CFI VB load(1, XDATA, add(CFA_XSP16, literal(-10)))
          CFI R6 load(1, XDATA, add(CFA_XSP16, literal(-11)))
          CFI CFA_SP SP+0
          CFI CFA_XSP16 add(XSP16, 11)
        ; Saved register size: 11
        ; Auto size: 48
        MOV     A,#-0x30
        LCALL   ?ALLOC_XSTACK8
          CFI CFA_XSP16 add(XSP16, 59)
// 1689   uint8 defaultZllTCLinkKey[SEC_KEY_LEN] = ZLL_LINK_KEY;
        MOV     A,#0x20
        LCALL   ?XSTACK_DISP0_8
        MOV     R4,DPL
        MOV     R5,DPH
        MOV     DPH,#(`?<Constant {208, 209, 210, 211, 212, 213, 214,` >> 8) & 0xff
        MOV     DPL,#`?<Constant {208, 209, 210, 211, 212, 213, 214,` & 0xff
        MOV     A,#0x10
        LCALL   ?MOVE_LONG8_XDATA_XDATA
// 1690   APSME_TCLinkKey_t zllTCLKentry = {0};
        MOV     DPL,?XSP + 0
        MOV     DPH,?XSP + 1
        MOV     R4,DPL
        MOV     R5,DPH
        MOV     DPH,#(`?<Constant {{0}}>` >> 8) & 0xff
        MOV     DPL,#`?<Constant {{0}}>` & 0xff
        MOV     A,#0x20
        LCALL   ?MOVE_LONG8_XDATA_XDATA
// 1691   osal_memset( zllTCLKentry.extAddr, 0xFF, Z_EXTADDR_LEN );
        ; Setup parameters for call to function osal_memset
        MOV     R4,#0x8
        MOV     R5,A
        MOV     R1,#-0x1
        MOV     DPL,?XSP + 0
        MOV     DPH,?XSP + 1
        MOV     R2,DPL
        MOV     R3,DPH
        LCALL   ??osal_memset?relay
// 1692   osal_memcpy( zllTCLKentry.key, defaultZllTCLinkKey, SEC_KEY_LEN);
        ; Setup parameters for call to function osal_memcpy
        MOV     A,#0x20
        LCALL   ?XSTACK_DISP0_8
        MOV     R1,DPL
        MOV     R2,DPH
        MOV     ?V0 + 0,R1
        MOV     ?V0 + 1,R2
        MOV     ?V0 + 2,#0x0
        MOV     R0,#?V0 + 0
        LCALL   ?PUSH_XSTACK_I_THREE
          CFI CFA_XSP16 add(XSP16, 62)
        MOV     R4,#0x10
        MOV     R5,#0x0
        MOV     A,#0xb
        LCALL   ?XSTACK_DISP0_8
        MOV     R2,DPL
        MOV     R3,DPH
        LCALL   ??osal_memcpy?relay
        MOV     A,#0x3
        LCALL   ?DEALLOC_XSTACK8
          CFI CFA_XSP16 add(XSP16, 59)
// 1693 #if ( ZDSECMGR_TC_DEVICE_MAX > 1 )
// 1694   osal_nv_write( ZCD_NV_TCLK_TABLE_START + (ZDSECMGR_TC_DEVICE_MAX-1), 0,
// 1695                  sizeof(zllTCLKentry), &zllTCLKentry);
        ; Setup parameters for call to function osal_nv_write
        MOV     DPL,?XSP + 0
        MOV     DPH,?XSP + 1
        MOV     ?V0 + 0,DPL
        MOV     ?V0 + 1,DPH
        MOV     R0,#?V0 + 0
        LCALL   ?PUSH_XSTACK_I_TWO
          CFI CFA_XSP16 add(XSP16, 61)
        MOV     ?V0 + 0,#0x20
        MOV     ?V0 + 1,#0x0
        MOV     R0,#?V0 + 0
        LCALL   ?PUSH_XSTACK_I_TWO
          CFI CFA_XSP16 add(XSP16, 63)
        MOV     R4,#0x0
        MOV     R5,#0x0
        MOV     R2,#0x2
        MOV     R3,#0x1
        LCALL   ??osal_nv_write?relay
        MOV     A,#0x4
        LCALL   ?DEALLOC_XSTACK8
          CFI CFA_XSP16 add(XSP16, 59)
// 1696 #else
// 1697 #error ZDSECMGR_TC_DEVICE_MAX should be defined to be 2 or more
// 1698 #endif
// 1699 }
        MOV     A,#0x30
        LCALL   ?DEALLOC_XSTACK8
          CFI CFA_XSP16 add(XSP16, 11)
        MOV     R7,#0x3
        LJMP    ?BANKED_LEAVE_XDATA
          CFI EndBlock cfiBlock255
// 1700 
// 1701 /****************************************************************************
// 1702  * @fn      zll_IsValidTransID
// 1703  *
// 1704  * @brief   Transaction ID Filter for Touch-Link received commands.
// 1705  *
// 1706  * @param   transID - received transaction ID
// 1707  *
// 1708  * @return  FALSE if not matching current or transaction expired
// 1709  */

        RSEG BANKED_CODE:CODE:NOROOT(0)
// 1710 bool zll_IsValidTransID( uint32 transID )
zll_IsValidTransID:
          CFI Block cfiBlock256 Using cfiCommon0
          CFI Function zll_IsValidTransID
        CODE
// 1711 {
        MOV     A,#-0x10
        LCALL   ?BANKED_ENTER_XDATA
          CFI DPH0 load(1, XDATA, add(CFA_XSP16, literal(-1)))
          CFI DPL0 load(1, XDATA, add(CFA_XSP16, literal(-2)))
          CFI ?BRET_EXT load(1, XDATA, add(CFA_XSP16, literal(-3)))
          CFI ?RET_HIGH load(1, XDATA, add(CFA_XSP16, literal(-4)))
          CFI ?RET_LOW load(1, XDATA, add(CFA_XSP16, literal(-5)))
          CFI R7 load(1, XDATA, add(CFA_XSP16, literal(-6)))
          CFI V7 load(1, XDATA, add(CFA_XSP16, literal(-7)))
          CFI V6 load(1, XDATA, add(CFA_XSP16, literal(-8)))
          CFI V5 load(1, XDATA, add(CFA_XSP16, literal(-9)))
          CFI V4 load(1, XDATA, add(CFA_XSP16, literal(-10)))
          CFI V3 load(1, XDATA, add(CFA_XSP16, literal(-11)))
          CFI V2 load(1, XDATA, add(CFA_XSP16, literal(-12)))
          CFI V1 load(1, XDATA, add(CFA_XSP16, literal(-13)))
          CFI V0 load(1, XDATA, add(CFA_XSP16, literal(-14)))
          CFI VB load(1, XDATA, add(CFA_XSP16, literal(-15)))
          CFI R6 load(1, XDATA, add(CFA_XSP16, literal(-16)))
          CFI CFA_SP SP+0
          CFI CFA_XSP16 add(XSP16, 16)
        ; Saved register size: 16
        ; Auto size: 0
        MOV     ?V0 + 0,R2
        MOV     ?V0 + 1,R3
        MOV     ?V0 + 2,R4
        MOV     ?V0 + 3,R5
// 1712   if ( ( zllTransID == 0 ) || ( ( zllTransID != transID ) && ( zllLastAcceptedTransID != transID ) ) )
        MOV     DPTR,#zllTransID
        MOV     R0,#?V0 + 4
        LCALL   ?L_MOV_X
        MOV     A,?V0 + 4
        ORL     A,?V0 + 5
        ORL     A,?V0 + 6
        ORL     A,?V0 + 7
        JZ      ??zll_IsValidTransID_0
        MOV     DPTR,#zllTransID
        MOV     R0,#?V0 + 0
        LCALL   ?L_EQ_X
        JZ      ??zll_IsValidTransID_1
        MOV     DPTR,#zllLastAcceptedTransID
        MOV     R0,#?V0 + 0
        LCALL   ?L_EQ_X
        JZ      ??zll_IsValidTransID_1
// 1713   {
// 1714     return ( FALSE );
??zll_IsValidTransID_0:
        MOV     R1,#0x0
        SJMP    ??zll_IsValidTransID_2
// 1715   }
// 1716   return ( TRUE );
??zll_IsValidTransID_1:
        MOV     R1,#0x1
??zll_IsValidTransID_2:
        MOV     R7,#0x8
        LJMP    ?BANKED_LEAVE_XDATA
          CFI EndBlock cfiBlock256
// 1717 }
// 1718 
// 1719 /*********************************************************************
// 1720  * @fn      zll_RouterProcessZDOMsg
// 1721  *
// 1722  * @brief   Process incoming ZDO messages (for routers)
// 1723  *
// 1724  * @param   inMsg - message to process
// 1725  *
// 1726  * @return  none
// 1727  */

        RSEG BANKED_CODE:CODE:NOROOT(0)
// 1728 void zll_RouterProcessZDOMsg( zdoIncomingMsg_t *inMsg )
zll_RouterProcessZDOMsg:
          CFI Block cfiBlock257 Using cfiCommon0
          CFI Function zll_RouterProcessZDOMsg
        CODE
// 1729 {
        FUNCALL zll_RouterProcessZDOMsg, ZDO_ParseDeviceAnnce
        LOCFRAME ISTACK, 0, STACK
        LOCFRAME PSTACK, 0, STACK
        LOCFRAME XSTACK, 22, STACK
        LOCFRAME IOVERLAY, 0, STATIC
        LOCFRAME DOVERLAY, 0, STATIC
        ARGFRAME ISTACK, 0, STACK
        ARGFRAME PSTACK, 0, STACK
        ARGFRAME XSTACK, 22, STACK
        ARGFRAME IOVERLAY, 0, STATIC
        ARGFRAME DOVERLAY, 0, STATIC
        FUNCALL zll_RouterProcessZDOMsg, nwkNeighborGetLinkInfo
        LOCFRAME ISTACK, 0, STACK
        LOCFRAME PSTACK, 0, STACK
        LOCFRAME XSTACK, 22, STACK
        LOCFRAME IOVERLAY, 0, STATIC
        LOCFRAME DOVERLAY, 0, STATIC
        ARGFRAME ISTACK, 0, STACK
        ARGFRAME PSTACK, 0, STACK
        ARGFRAME XSTACK, 22, STACK
        ARGFRAME IOVERLAY, 0, STATIC
        ARGFRAME DOVERLAY, 0, STATIC
        FUNCALL zll_RouterProcessZDOMsg, nwkNeighborAdd
        LOCFRAME ISTACK, 0, STACK
        LOCFRAME PSTACK, 0, STACK
        LOCFRAME XSTACK, 22, STACK
        LOCFRAME IOVERLAY, 0, STATIC
        LOCFRAME DOVERLAY, 0, STATIC
        ARGFRAME ISTACK, 0, STACK
        ARGFRAME PSTACK, 0, STACK
        ARGFRAME XSTACK, 22, STACK
        ARGFRAME IOVERLAY, 0, STATIC
        ARGFRAME DOVERLAY, 0, STATIC
        FUNCALL zll_RouterProcessZDOMsg, AssocCount
        LOCFRAME ISTACK, 0, STACK
        LOCFRAME PSTACK, 0, STACK
        LOCFRAME XSTACK, 22, STACK
        LOCFRAME IOVERLAY, 0, STATIC
        LOCFRAME DOVERLAY, 0, STATIC
        ARGFRAME ISTACK, 0, STACK
        ARGFRAME PSTACK, 0, STACK
        ARGFRAME XSTACK, 22, STACK
        ARGFRAME IOVERLAY, 0, STATIC
        ARGFRAME DOVERLAY, 0, STATIC
        FUNCALL zll_RouterProcessZDOMsg, nwkNeighborGetLinkInfo
        LOCFRAME ISTACK, 0, STACK
        LOCFRAME PSTACK, 0, STACK
        LOCFRAME XSTACK, 22, STACK
        LOCFRAME IOVERLAY, 0, STATIC
        LOCFRAME DOVERLAY, 0, STATIC
        ARGFRAME ISTACK, 0, STACK
        ARGFRAME PSTACK, 0, STACK
        ARGFRAME XSTACK, 22, STACK
        ARGFRAME IOVERLAY, 0, STATIC
        ARGFRAME DOVERLAY, 0, STATIC
        FUNCALL zll_RouterProcessZDOMsg, NLME_UpdateLinkStatus
        LOCFRAME ISTACK, 0, STACK
        LOCFRAME PSTACK, 0, STACK
        LOCFRAME XSTACK, 22, STACK
        LOCFRAME IOVERLAY, 0, STATIC
        LOCFRAME DOVERLAY, 0, STATIC
        ARGFRAME ISTACK, 0, STACK
        ARGFRAME PSTACK, 0, STACK
        ARGFRAME XSTACK, 22, STACK
        ARGFRAME IOVERLAY, 0, STATIC
        ARGFRAME DOVERLAY, 0, STATIC
        FUNCALL zll_RouterProcessZDOMsg, NLME_PermitJoiningRequest
        LOCFRAME ISTACK, 0, STACK
        LOCFRAME PSTACK, 0, STACK
        LOCFRAME XSTACK, 22, STACK
        LOCFRAME IOVERLAY, 0, STATIC
        LOCFRAME DOVERLAY, 0, STATIC
        ARGFRAME ISTACK, 0, STACK
        ARGFRAME PSTACK, 0, STACK
        ARGFRAME XSTACK, 22, STACK
        ARGFRAME IOVERLAY, 0, STATIC
        ARGFRAME DOVERLAY, 0, STATIC
        FUNCALL zll_RouterProcessZDOMsg, ZDP_SendData
        LOCFRAME ISTACK, 0, STACK
        LOCFRAME PSTACK, 0, STACK
        LOCFRAME XSTACK, 27, STACK
        LOCFRAME IOVERLAY, 0, STATIC
        LOCFRAME DOVERLAY, 0, STATIC
        ARGFRAME ISTACK, 0, STACK
        ARGFRAME PSTACK, 0, STACK
        ARGFRAME XSTACK, 27, STACK
        ARGFRAME IOVERLAY, 0, STATIC
        ARGFRAME DOVERLAY, 0, STATIC
        MOV     A,#-0xa
        LCALL   ?BANKED_ENTER_XDATA
          CFI DPH0 load(1, XDATA, add(CFA_XSP16, literal(-1)))
          CFI DPL0 load(1, XDATA, add(CFA_XSP16, literal(-2)))
          CFI ?BRET_EXT load(1, XDATA, add(CFA_XSP16, literal(-3)))
          CFI ?RET_HIGH load(1, XDATA, add(CFA_XSP16, literal(-4)))
          CFI ?RET_LOW load(1, XDATA, add(CFA_XSP16, literal(-5)))
          CFI R7 load(1, XDATA, add(CFA_XSP16, literal(-6)))
          CFI V1 load(1, XDATA, add(CFA_XSP16, literal(-7)))
          CFI V0 load(1, XDATA, add(CFA_XSP16, literal(-8)))
          CFI VB load(1, XDATA, add(CFA_XSP16, literal(-9)))
          CFI R6 load(1, XDATA, add(CFA_XSP16, literal(-10)))
          CFI CFA_SP SP+0
          CFI CFA_XSP16 add(XSP16, 10)
        ; Saved register size: 10
        ; Auto size: 12
        MOV     A,#-0xc
        LCALL   ?ALLOC_XSTACK8
          CFI CFA_XSP16 add(XSP16, 22)
        MOV     A,R2
        MOV     R6,A
        MOV     A,R3
        MOV     R7,A
// 1730   ZDO_DeviceAnnce_t devAnnce;
// 1731 
// 1732   switch ( inMsg->clusterID )
        MOV     A,R6
        ADD     A,#0xc
        LCALL   ??Subroutine40_0 & 0xFFFF
??CrossCallReturnLabel_88:
        LCALL   ?Subroutine15 & 0xFFFF
??CrossCallReturnLabel_12:
        LCALL   ?US_SWITCH_SPARSE
`?<Jumptable for zll_RouterProcessZDOMsg>_0`:
        DATA
        DATA16
        DATA
        DATA16
        DATA
        DATA16
        DW        0
        DATA
        DATA16
        DATA
        DATA16
        DATA
        DATA16
        DW        2
        DATA
        DATA16
        DATA
        DATA16
        DATA
        DATA16
        DW        19
        DATA
        DATA16
        DATA
        DATA16
        DATA
        DATA16
        DW        ??zll_RouterProcessZDOMsg_0
        DATA
        DATA16
        DATA
        DATA16
        DATA
        DATA16
        DW        54
        DATA
        DATA16
        DATA
        DATA16
        DATA
        DATA16
        DW        ??zll_RouterProcessZDOMsg_1
        DATA
        DATA16
        DATA
        DATA16
        DW        ??zll_RouterProcessZDOMsg_2
        CODE
// 1733   {
// 1734     case Device_annce:
// 1735       {
// 1736         // all devices should send link status, including the one sending it
// 1737         ZDO_ParseDeviceAnnce( inMsg, &devAnnce );
??zll_RouterProcessZDOMsg_0:
        ; Setup parameters for call to function ZDO_ParseDeviceAnnce
        MOV     A,#0x1
        LCALL   ?XSTACK_DISP0_8
        MOV     R4,DPL
        MOV     R5,DPH
        LCALL   ??ZDO_ParseDeviceAnnce?relay
// 1738 
// 1739         linkInfo_t *linkInfo;
// 1740 
// 1741         // check if entry exists
// 1742         linkInfo = nwkNeighborGetLinkInfo( devAnnce.nwkAddr, _NIB.nwkPanId );
        ; Setup parameters for call to function nwkNeighborGetLinkInfo
        LCALL   ?Subroutine8 & 0xFFFF
??CrossCallReturnLabel_110:
        MOV     A,#0x1
        LCALL   ?XSTACK_DISP0_8
        LCALL   ??Subroutine38_0 & 0xFFFF
??CrossCallReturnLabel_66:
        LCALL   ??nwkNeighborGetLinkInfo?relay
        MOV     DPL,R2
        MOV     DPH,R3
// 1743 
// 1744         // if not, look for a vacant entry to add this node...
// 1745         if ( linkInfo == NULL )
        MOV     A,DPL
        ORL     A,DPH
        JNZ     ??zll_RouterProcessZDOMsg_3
// 1746         {
// 1747           nwkNeighborAdd( devAnnce.nwkAddr, _NIB.nwkPanId, 1 );
        ; Setup parameters for call to function nwkNeighborAdd
        MOV     R1,#0x1
        LCALL   ?Subroutine8 & 0xFFFF
??CrossCallReturnLabel_111:
        MOV     A,R1
        LCALL   ?XSTACK_DISP0_8
        LCALL   ??Subroutine38_0 & 0xFFFF
??CrossCallReturnLabel_67:
        LCALL   ??nwkNeighborAdd?relay
// 1748           // if we have end device childs, send link status
// 1749           if ( AssocCount(CHILD_RFD, CHILD_RFD_RX_IDLE) > 0 )
        ; Setup parameters for call to function AssocCount
        MOV     R2,#0x2
        MOV     R1,#0x1
        LCALL   ??AssocCount?relay
        MOV     ?V0 + 1,R3
        MOV     A,R2
        ORL     A,?V0 + 1
        JNZ     $+5
        LJMP    ??zll_RouterProcessZDOMsg_2 & 0xFFFF
// 1750           {
// 1751             linkInfo = nwkNeighborGetLinkInfo( devAnnce.nwkAddr, _NIB.nwkPanId );
        ; Setup parameters for call to function nwkNeighborGetLinkInfo
        LCALL   ?Subroutine8 & 0xFFFF
??CrossCallReturnLabel_112:
        MOV     A,#0x1
        LCALL   ?XSTACK_DISP0_8
        LCALL   ??Subroutine38_0 & 0xFFFF
??CrossCallReturnLabel_68:
        LCALL   ??nwkNeighborGetLinkInfo?relay
        MOV     DPL,R2
        MOV     DPH,R3
// 1752             if ( (linkInfo != NULL) && (linkInfo->txCost == 0) )
        MOV     A,DPL
        ORL     A,DPH
        JZ      ??zll_RouterProcessZDOMsg_4
        INC     DPTR
        MOVX    A,@DPTR
        JNZ     ??zll_RouterProcessZDOMsg_4
// 1753             {
// 1754               linkInfo->txCost = MAX_LINK_COST;
        MOV     A,#0x7
        MOVX    @DPTR,A
// 1755             }
// 1756             NLME_UpdateLinkStatus();
??zll_RouterProcessZDOMsg_4:
        ; Setup parameters for call to function NLME_UpdateLinkStatus
        LCALL   ??NLME_UpdateLinkStatus?relay
        SJMP    ??zll_RouterProcessZDOMsg_2
// 1757           }
// 1758         }
// 1759         else
// 1760         {
// 1761           // only update the TxCost, so the Link Status can be sent properly
// 1762           if (linkInfo->txCost == 0)
??zll_RouterProcessZDOMsg_3:
        INC     DPTR
        MOVX    A,@DPTR
        JNZ     ??zll_RouterProcessZDOMsg_2
// 1763           {
// 1764             linkInfo->txCost = MAX_LINK_COST;
        MOV     A,#0x7
        MOVX    @DPTR,A
        SJMP    ??zll_RouterProcessZDOMsg_2
// 1765           }
// 1766         }
// 1767       }
// 1768       break;
// 1769 
// 1770     case Mgmt_Permit_Join_req:
// 1771       {
// 1772         uint8 duration = inMsg->asdu[ZDP_MGMT_PERMIT_JOIN_REQ_DURATION];
// 1773         ZStatus_t stat = NLME_PermitJoiningRequest( duration );
??zll_RouterProcessZDOMsg_1:
        ; Setup parameters for call to function NLME_PermitJoiningRequest
        MOV     A,R6
        ADD     A,#0x13
        LCALL   ??Subroutine40_0 & 0xFFFF
??CrossCallReturnLabel_89:
        LCALL   ?Subroutine16 & 0xFFFF
??CrossCallReturnLabel_14:
        MOVX    A,@DPTR
        MOV     R1,A
        LCALL   ??NLME_PermitJoiningRequest?relay
        MOV     A,R1
        MOV     DPL,?XSP + 0
        MOV     DPH,?XSP + 1
        MOVX    @DPTR,A
// 1774         // Send a response if unicast
// 1775         if ( !inMsg->wasBroadcast )
        MOV     A,R6
        ADD     A,#0xb
        MOV     DPL,A
        MOV     A,R7
        LCALL   ??Subroutine48_0 & 0xFFFF
??CrossCallReturnLabel_127:
        JNZ     ??zll_RouterProcessZDOMsg_2
// 1776         {
// 1777           ZDP_MgmtPermitJoinRsp( inMsg->TransSeq, &(inMsg->srcAddr), stat, false );
        ; Setup parameters for call to function ZDP_SendData
        MOV     ?V0 + 0,#0x0
        MOV     R0,#?V0 + 0
        LCALL   ?PUSH_XSTACK_I_ONE
          CFI CFA_XSP16 add(XSP16, 23)
        MOV     A,#0x1
        LCALL   ?XSTACK_DISP0_8
        MOV     ?V0 + 0,DPL
        MOV     ?V0 + 1,DPH
        MOV     R0,#?V0 + 0
        LCALL   ?PUSH_XSTACK_I_TWO
          CFI CFA_XSP16 add(XSP16, 25)
        MOV     ?V0 + 0,#0x36
        MOV     ?V0 + 1,#-0x80
        MOV     R0,#?V0 + 0
        LCALL   ?PUSH_XSTACK_I_TWO
          CFI CFA_XSP16 add(XSP16, 27)
        MOV     R1,#0x1
        MOV     A,R6
        ADD     A,#0x2
        MOV     R4,A
        MOV     A,R7
        ADDC    A,#0x0
        MOV     R5,A
        MOV     A,R6
        ADD     A,#0xf
        MOV     R2,A
        MOV     A,R7
        ADDC    A,#0x0
        MOV     R3,A
        LCALL   ??ZDP_SendData?relay
        MOV     A,#0x5
        LCALL   ?DEALLOC_XSTACK8
          CFI CFA_XSP16 add(XSP16, 22)
// 1778         }
// 1779       }
// 1780       break;
// 1781 
// 1782     default:
// 1783       break;
// 1784   }
// 1785 }
??zll_RouterProcessZDOMsg_2:
        MOV     A,#0xc
        LJMP    ?Subroutine0 & 0xFFFF
          CFI EndBlock cfiBlock257

        RSEG BANKED_CODE:CODE:NOROOT(0)
?Subroutine28:
          CFI Block cfiCond258 Using cfiCommon0
          CFI Function zll_ClassicalCommissioningJoinDiscoveredNwk
          CFI Conditional ??CrossCallReturnLabel_130
          CFI R6 load(1, XDATA, add(CFA_XSP16, literal(-9)))
          CFI VB load(1, XDATA, add(CFA_XSP16, literal(-8)))
          CFI V0 load(1, XDATA, add(CFA_XSP16, literal(-7)))
          CFI R7 load(1, XDATA, add(CFA_XSP16, literal(-6)))
          CFI ?RET_LOW load(1, XDATA, add(CFA_XSP16, literal(-5)))
          CFI ?RET_HIGH load(1, XDATA, add(CFA_XSP16, literal(-4)))
          CFI ?BRET_EXT load(1, XDATA, add(CFA_XSP16, literal(-3)))
          CFI DPL0 load(1, XDATA, add(CFA_XSP16, literal(-2)))
          CFI DPH0 load(1, XDATA, add(CFA_XSP16, literal(-1)))
          CFI CFA_SP SP+0
          CFI CFA_XSP16 add(XSP16, 9)
          CFI Block cfiCond259 Using cfiCommon0
          CFI (cfiCond259) Function zll_ClassicalCommissioningJoinDiscoveredNwk
          CFI (cfiCond259) Conditional ??CrossCallReturnLabel_131
          CFI (cfiCond259) R6 load(1, XDATA, add(CFA_XSP16, literal(-9)))
          CFI (cfiCond259) VB load(1, XDATA, add(CFA_XSP16, literal(-8)))
          CFI (cfiCond259) V0 load(1, XDATA, add(CFA_XSP16, literal(-7)))
          CFI (cfiCond259) R7 load(1, XDATA, add(CFA_XSP16, literal(-6)))
          CFI (cfiCond259) ?RET_LOW load(1, XDATA, add(CFA_XSP16, literal(-5)))
          CFI (cfiCond259) ?RET_HIGH load(1, XDATA, add(CFA_XSP16, literal(-4)))
          CFI (cfiCond259) ?BRET_EXT load(1, XDATA, add(CFA_XSP16, literal(-3)))
          CFI (cfiCond259) DPL0 load(1, XDATA, add(CFA_XSP16, literal(-2)))
          CFI (cfiCond259) DPH0 load(1, XDATA, add(CFA_XSP16, literal(-1)))
          CFI (cfiCond259) CFA_SP SP+0
          CFI (cfiCond259) CFA_XSP16 add(XSP16, 9)
          CFI Block cfiPicker260 Using cfiCommon1
          CFI (cfiPicker260) NoFunction
          CFI (cfiPicker260) Picker
        MOV     A,R0
        ADD     A,#0x10
          CFI EndBlock cfiCond258
          CFI EndBlock cfiCond259
          CFI EndBlock cfiPicker260
        REQUIRE ??Subroutine47_0
        ; // Fall through to label ??Subroutine47_0

        RSEG BANKED_CODE:CODE:NOROOT(0)
??Subroutine47_0:
          CFI Block cfiCond261 Using cfiCommon0
          CFI Function zll_GetMsgRssi
          CFI Conditional ??CrossCallReturnLabel_128
          CFI R6 load(1, XDATA, add(CFA_XSP16, literal(-10)))
          CFI VB load(1, XDATA, add(CFA_XSP16, literal(-9)))
          CFI V0 load(1, XDATA, add(CFA_XSP16, literal(-8)))
          CFI V1 load(1, XDATA, add(CFA_XSP16, literal(-7)))
          CFI R7 load(1, XDATA, add(CFA_XSP16, literal(-6)))
          CFI ?RET_LOW load(1, XDATA, add(CFA_XSP16, literal(-5)))
          CFI ?RET_HIGH load(1, XDATA, add(CFA_XSP16, literal(-4)))
          CFI ?BRET_EXT load(1, XDATA, add(CFA_XSP16, literal(-3)))
          CFI DPL0 load(1, XDATA, add(CFA_XSP16, literal(-2)))
          CFI DPH0 load(1, XDATA, add(CFA_XSP16, literal(-1)))
          CFI CFA_SP SP+0
          CFI CFA_XSP16 add(XSP16, 10)
          CFI Block cfiCond262 Using cfiCommon0
          CFI (cfiCond262) Function zll_ClassicalCommissioningJoinDiscoveredNwk
          CFI (cfiCond262) Conditional ??CrossCallReturnLabel_129
          CFI (cfiCond262) R6 load(1, XDATA, add(CFA_XSP16, literal(-9)))
          CFI (cfiCond262) VB load(1, XDATA, add(CFA_XSP16, literal(-8)))
          CFI (cfiCond262) V0 load(1, XDATA, add(CFA_XSP16, literal(-7)))
          CFI (cfiCond262) R7 load(1, XDATA, add(CFA_XSP16, literal(-6)))
          CFI (cfiCond262) ?RET_LOW load(1, XDATA, add(CFA_XSP16, literal(-5)))
          CFI (cfiCond262) ?RET_HIGH load(1, XDATA, add(CFA_XSP16, literal(-4)))
          CFI (cfiCond262) ?BRET_EXT load(1, XDATA, add(CFA_XSP16, literal(-3)))
          CFI (cfiCond262) DPL0 load(1, XDATA, add(CFA_XSP16, literal(-2)))
          CFI (cfiCond262) DPH0 load(1, XDATA, add(CFA_XSP16, literal(-1)))
          CFI (cfiCond262) CFA_SP SP+0
          CFI (cfiCond262) CFA_XSP16 add(XSP16, 9)
          CFI Block cfiCond263 Using cfiCommon0
          CFI (cfiCond263) Function zll_ClassicalCommissioningJoinDiscoveredNwk
          CFI (cfiCond263) Conditional ??CrossCallReturnLabel_130
          CFI (cfiCond263) R6 load(1, XDATA, add(CFA_XSP16, literal(-9)))
          CFI (cfiCond263) VB load(1, XDATA, add(CFA_XSP16, literal(-8)))
          CFI (cfiCond263) V0 load(1, XDATA, add(CFA_XSP16, literal(-7)))
          CFI (cfiCond263) R7 load(1, XDATA, add(CFA_XSP16, literal(-6)))
          CFI (cfiCond263) ?RET_LOW load(1, XDATA, add(CFA_XSP16, literal(-5)))
          CFI (cfiCond263) ?RET_HIGH load(1, XDATA, add(CFA_XSP16, literal(-4)))
          CFI (cfiCond263) ?BRET_EXT load(1, XDATA, add(CFA_XSP16, literal(-3)))
          CFI (cfiCond263) DPL0 load(1, XDATA, add(CFA_XSP16, literal(-2)))
          CFI (cfiCond263) DPH0 load(1, XDATA, add(CFA_XSP16, literal(-1)))
          CFI (cfiCond263) CFA_SP SP+0
          CFI (cfiCond263) CFA_XSP16 add(XSP16, 9)
          CFI Block cfiCond264 Using cfiCommon0
          CFI (cfiCond264) Function zll_ClassicalCommissioningJoinDiscoveredNwk
          CFI (cfiCond264) Conditional ??CrossCallReturnLabel_131
          CFI (cfiCond264) R6 load(1, XDATA, add(CFA_XSP16, literal(-9)))
          CFI (cfiCond264) VB load(1, XDATA, add(CFA_XSP16, literal(-8)))
          CFI (cfiCond264) V0 load(1, XDATA, add(CFA_XSP16, literal(-7)))
          CFI (cfiCond264) R7 load(1, XDATA, add(CFA_XSP16, literal(-6)))
          CFI (cfiCond264) ?RET_LOW load(1, XDATA, add(CFA_XSP16, literal(-5)))
          CFI (cfiCond264) ?RET_HIGH load(1, XDATA, add(CFA_XSP16, literal(-4)))
          CFI (cfiCond264) ?BRET_EXT load(1, XDATA, add(CFA_XSP16, literal(-3)))
          CFI (cfiCond264) DPL0 load(1, XDATA, add(CFA_XSP16, literal(-2)))
          CFI (cfiCond264) DPH0 load(1, XDATA, add(CFA_XSP16, literal(-1)))
          CFI (cfiCond264) CFA_SP SP+0
          CFI (cfiCond264) CFA_XSP16 add(XSP16, 9)
          CFI Block cfiPicker265 Using cfiCommon1
          CFI (cfiPicker265) NoFunction
          CFI (cfiPicker265) Picker
        MOV     DPL,A
        MOV     A,R1
          CFI EndBlock cfiCond261
          CFI EndBlock cfiCond262
          CFI EndBlock cfiCond263
          CFI EndBlock cfiCond264
          CFI EndBlock cfiPicker265
        REQUIRE ??Subroutine48_0
        ; // Fall through to label ??Subroutine48_0

        RSEG BANKED_CODE:CODE:NOROOT(0)
??Subroutine48_0:
          CFI Block cfiCond266 Using cfiCommon0
          CFI Function zll_ClassicalCommissioningJoinDiscoveredNwk
          CFI Conditional ??CrossCallReturnLabel_124
          CFI R6 load(1, XDATA, add(CFA_XSP16, literal(-9)))
          CFI VB load(1, XDATA, add(CFA_XSP16, literal(-8)))
          CFI V0 load(1, XDATA, add(CFA_XSP16, literal(-7)))
          CFI R7 load(1, XDATA, add(CFA_XSP16, literal(-6)))
          CFI ?RET_LOW load(1, XDATA, add(CFA_XSP16, literal(-5)))
          CFI ?RET_HIGH load(1, XDATA, add(CFA_XSP16, literal(-4)))
          CFI ?BRET_EXT load(1, XDATA, add(CFA_XSP16, literal(-3)))
          CFI DPL0 load(1, XDATA, add(CFA_XSP16, literal(-2)))
          CFI DPH0 load(1, XDATA, add(CFA_XSP16, literal(-1)))
          CFI CFA_SP SP+0
          CFI CFA_XSP16 add(XSP16, 9)
          CFI Block cfiCond267 Using cfiCommon0
          CFI (cfiCond267) Function zll_ClassicalCommissioningJoinDiscoveredNwk
          CFI (cfiCond267) Conditional ??CrossCallReturnLabel_125
          CFI (cfiCond267) R6 load(1, XDATA, add(CFA_XSP16, literal(-9)))
          CFI (cfiCond267) VB load(1, XDATA, add(CFA_XSP16, literal(-8)))
          CFI (cfiCond267) V0 load(1, XDATA, add(CFA_XSP16, literal(-7)))
          CFI (cfiCond267) R7 load(1, XDATA, add(CFA_XSP16, literal(-6)))
          CFI (cfiCond267) ?RET_LOW load(1, XDATA, add(CFA_XSP16, literal(-5)))
          CFI (cfiCond267) ?RET_HIGH load(1, XDATA, add(CFA_XSP16, literal(-4)))
          CFI (cfiCond267) ?BRET_EXT load(1, XDATA, add(CFA_XSP16, literal(-3)))
          CFI (cfiCond267) DPL0 load(1, XDATA, add(CFA_XSP16, literal(-2)))
          CFI (cfiCond267) DPH0 load(1, XDATA, add(CFA_XSP16, literal(-1)))
          CFI (cfiCond267) CFA_SP SP+0
          CFI (cfiCond267) CFA_XSP16 add(XSP16, 9)
          CFI Block cfiCond268 Using cfiCommon0
          CFI (cfiCond268) Function zll_ClassicalCommissioningJoinDiscoveredNwk
          CFI (cfiCond268) Conditional ??CrossCallReturnLabel_126
          CFI (cfiCond268) R6 load(1, XDATA, add(CFA_XSP16, literal(-9)))
          CFI (cfiCond268) VB load(1, XDATA, add(CFA_XSP16, literal(-8)))
          CFI (cfiCond268) V0 load(1, XDATA, add(CFA_XSP16, literal(-7)))
          CFI (cfiCond268) R7 load(1, XDATA, add(CFA_XSP16, literal(-6)))
          CFI (cfiCond268) ?RET_LOW load(1, XDATA, add(CFA_XSP16, literal(-5)))
          CFI (cfiCond268) ?RET_HIGH load(1, XDATA, add(CFA_XSP16, literal(-4)))
          CFI (cfiCond268) ?BRET_EXT load(1, XDATA, add(CFA_XSP16, literal(-3)))
          CFI (cfiCond268) DPL0 load(1, XDATA, add(CFA_XSP16, literal(-2)))
          CFI (cfiCond268) DPH0 load(1, XDATA, add(CFA_XSP16, literal(-1)))
          CFI (cfiCond268) CFA_SP SP+0
          CFI (cfiCond268) CFA_XSP16 add(XSP16, 9)
          CFI Block cfiCond269 Using cfiCommon0
          CFI (cfiCond269) Function zll_RouterProcessZDOMsg
          CFI (cfiCond269) Conditional ??CrossCallReturnLabel_127
          CFI (cfiCond269) R6 load(1, XDATA, add(CFA_XSP16, literal(-10)))
          CFI (cfiCond269) VB load(1, XDATA, add(CFA_XSP16, literal(-9)))
          CFI (cfiCond269) V0 load(1, XDATA, add(CFA_XSP16, literal(-8)))
          CFI (cfiCond269) V1 load(1, XDATA, add(CFA_XSP16, literal(-7)))
          CFI (cfiCond269) R7 load(1, XDATA, add(CFA_XSP16, literal(-6)))
          CFI (cfiCond269) ?RET_LOW load(1, XDATA, add(CFA_XSP16, literal(-5)))
          CFI (cfiCond269) ?RET_HIGH load(1, XDATA, add(CFA_XSP16, literal(-4)))
          CFI (cfiCond269) ?BRET_EXT load(1, XDATA, add(CFA_XSP16, literal(-3)))
          CFI (cfiCond269) DPL0 load(1, XDATA, add(CFA_XSP16, literal(-2)))
          CFI (cfiCond269) DPH0 load(1, XDATA, add(CFA_XSP16, literal(-1)))
          CFI (cfiCond269) CFA_SP SP+0
          CFI (cfiCond269) CFA_XSP16 add(XSP16, 22)
          CFI Block cfiCond270 Using cfiCommon0
          CFI (cfiCond270) Function zll_GetMsgRssi
          CFI (cfiCond270) Conditional ??CrossCallReturnLabel_128
          CFI (cfiCond270) R6 load(1, XDATA, add(CFA_XSP16, literal(-10)))
          CFI (cfiCond270) VB load(1, XDATA, add(CFA_XSP16, literal(-9)))
          CFI (cfiCond270) V0 load(1, XDATA, add(CFA_XSP16, literal(-8)))
          CFI (cfiCond270) V1 load(1, XDATA, add(CFA_XSP16, literal(-7)))
          CFI (cfiCond270) R7 load(1, XDATA, add(CFA_XSP16, literal(-6)))
          CFI (cfiCond270) ?RET_LOW load(1, XDATA, add(CFA_XSP16, literal(-5)))
          CFI (cfiCond270) ?RET_HIGH load(1, XDATA, add(CFA_XSP16, literal(-4)))
          CFI (cfiCond270) ?BRET_EXT load(1, XDATA, add(CFA_XSP16, literal(-3)))
          CFI (cfiCond270) DPL0 load(1, XDATA, add(CFA_XSP16, literal(-2)))
          CFI (cfiCond270) DPH0 load(1, XDATA, add(CFA_XSP16, literal(-1)))
          CFI (cfiCond270) CFA_SP SP+0
          CFI (cfiCond270) CFA_XSP16 add(XSP16, 10)
          CFI Block cfiCond271 Using cfiCommon0
          CFI (cfiCond271) Function zll_ClassicalCommissioningJoinDiscoveredNwk
          CFI (cfiCond271) Conditional ??CrossCallReturnLabel_129
          CFI (cfiCond271) R6 load(1, XDATA, add(CFA_XSP16, literal(-9)))
          CFI (cfiCond271) VB load(1, XDATA, add(CFA_XSP16, literal(-8)))
          CFI (cfiCond271) V0 load(1, XDATA, add(CFA_XSP16, literal(-7)))
          CFI (cfiCond271) R7 load(1, XDATA, add(CFA_XSP16, literal(-6)))
          CFI (cfiCond271) ?RET_LOW load(1, XDATA, add(CFA_XSP16, literal(-5)))
          CFI (cfiCond271) ?RET_HIGH load(1, XDATA, add(CFA_XSP16, literal(-4)))
          CFI (cfiCond271) ?BRET_EXT load(1, XDATA, add(CFA_XSP16, literal(-3)))
          CFI (cfiCond271) DPL0 load(1, XDATA, add(CFA_XSP16, literal(-2)))
          CFI (cfiCond271) DPH0 load(1, XDATA, add(CFA_XSP16, literal(-1)))
          CFI (cfiCond271) CFA_SP SP+0
          CFI (cfiCond271) CFA_XSP16 add(XSP16, 9)
          CFI Block cfiCond272 Using cfiCommon0
          CFI (cfiCond272) Function zll_ClassicalCommissioningJoinDiscoveredNwk
          CFI (cfiCond272) Conditional ??CrossCallReturnLabel_130
          CFI (cfiCond272) R6 load(1, XDATA, add(CFA_XSP16, literal(-9)))
          CFI (cfiCond272) VB load(1, XDATA, add(CFA_XSP16, literal(-8)))
          CFI (cfiCond272) V0 load(1, XDATA, add(CFA_XSP16, literal(-7)))
          CFI (cfiCond272) R7 load(1, XDATA, add(CFA_XSP16, literal(-6)))
          CFI (cfiCond272) ?RET_LOW load(1, XDATA, add(CFA_XSP16, literal(-5)))
          CFI (cfiCond272) ?RET_HIGH load(1, XDATA, add(CFA_XSP16, literal(-4)))
          CFI (cfiCond272) ?BRET_EXT load(1, XDATA, add(CFA_XSP16, literal(-3)))
          CFI (cfiCond272) DPL0 load(1, XDATA, add(CFA_XSP16, literal(-2)))
          CFI (cfiCond272) DPH0 load(1, XDATA, add(CFA_XSP16, literal(-1)))
          CFI (cfiCond272) CFA_SP SP+0
          CFI (cfiCond272) CFA_XSP16 add(XSP16, 9)
          CFI Block cfiCond273 Using cfiCommon0
          CFI (cfiCond273) Function zll_ClassicalCommissioningJoinDiscoveredNwk
          CFI (cfiCond273) Conditional ??CrossCallReturnLabel_131
          CFI (cfiCond273) R6 load(1, XDATA, add(CFA_XSP16, literal(-9)))
          CFI (cfiCond273) VB load(1, XDATA, add(CFA_XSP16, literal(-8)))
          CFI (cfiCond273) V0 load(1, XDATA, add(CFA_XSP16, literal(-7)))
          CFI (cfiCond273) R7 load(1, XDATA, add(CFA_XSP16, literal(-6)))
          CFI (cfiCond273) ?RET_LOW load(1, XDATA, add(CFA_XSP16, literal(-5)))
          CFI (cfiCond273) ?RET_HIGH load(1, XDATA, add(CFA_XSP16, literal(-4)))
          CFI (cfiCond273) ?BRET_EXT load(1, XDATA, add(CFA_XSP16, literal(-3)))
          CFI (cfiCond273) DPL0 load(1, XDATA, add(CFA_XSP16, literal(-2)))
          CFI (cfiCond273) DPH0 load(1, XDATA, add(CFA_XSP16, literal(-1)))
          CFI (cfiCond273) CFA_SP SP+0
          CFI (cfiCond273) CFA_XSP16 add(XSP16, 9)
          CFI Block cfiPicker274 Using cfiCommon1
          CFI (cfiPicker274) NoFunction
          CFI (cfiPicker274) Picker
        ADDC    A,#0x0
        MOV     DPH,A
        MOVX    A,@DPTR
        RET
          CFI EndBlock cfiCond266
          CFI EndBlock cfiCond267
          CFI EndBlock cfiCond268
          CFI EndBlock cfiCond269
          CFI EndBlock cfiCond270
          CFI EndBlock cfiCond271
          CFI EndBlock cfiCond272
          CFI EndBlock cfiCond273
          CFI EndBlock cfiPicker274

        RSEG BANKED_CODE:CODE:NOROOT(0)
?Subroutine16:
          CFI Block cfiCond275 Using cfiCommon0
          CFI Function zll_GetSubDeviceInfo
          CFI Conditional ??CrossCallReturnLabel_13
          CFI R6 load(1, XDATA, add(CFA_XSP16, literal(-14)))
          CFI VB load(1, XDATA, add(CFA_XSP16, literal(-13)))
          CFI V0 load(1, XDATA, add(CFA_XSP16, literal(-12)))
          CFI V1 load(1, XDATA, add(CFA_XSP16, literal(-11)))
          CFI V2 load(1, XDATA, add(CFA_XSP16, literal(-10)))
          CFI V3 load(1, XDATA, add(CFA_XSP16, literal(-9)))
          CFI V4 load(1, XDATA, add(CFA_XSP16, literal(-8)))
          CFI V5 load(1, XDATA, add(CFA_XSP16, literal(-7)))
          CFI R7 load(1, XDATA, add(CFA_XSP16, literal(-6)))
          CFI ?RET_LOW load(1, XDATA, add(CFA_XSP16, literal(-5)))
          CFI ?RET_HIGH load(1, XDATA, add(CFA_XSP16, literal(-4)))
          CFI ?BRET_EXT load(1, XDATA, add(CFA_XSP16, literal(-3)))
          CFI DPL0 load(1, XDATA, add(CFA_XSP16, literal(-2)))
          CFI DPH0 load(1, XDATA, add(CFA_XSP16, literal(-1)))
          CFI CFA_SP SP+0
          CFI CFA_XSP16 add(XSP16, 14)
          CFI Block cfiCond276 Using cfiCommon0
          CFI (cfiCond276) Function zll_RouterProcessZDOMsg
          CFI (cfiCond276) Conditional ??CrossCallReturnLabel_14
          CFI (cfiCond276) R6 load(1, XDATA, add(CFA_XSP16, literal(-10)))
          CFI (cfiCond276) VB load(1, XDATA, add(CFA_XSP16, literal(-9)))
          CFI (cfiCond276) V0 load(1, XDATA, add(CFA_XSP16, literal(-8)))
          CFI (cfiCond276) V1 load(1, XDATA, add(CFA_XSP16, literal(-7)))
          CFI (cfiCond276) R7 load(1, XDATA, add(CFA_XSP16, literal(-6)))
          CFI (cfiCond276) ?RET_LOW load(1, XDATA, add(CFA_XSP16, literal(-5)))
          CFI (cfiCond276) ?RET_HIGH load(1, XDATA, add(CFA_XSP16, literal(-4)))
          CFI (cfiCond276) ?BRET_EXT load(1, XDATA, add(CFA_XSP16, literal(-3)))
          CFI (cfiCond276) DPL0 load(1, XDATA, add(CFA_XSP16, literal(-2)))
          CFI (cfiCond276) DPH0 load(1, XDATA, add(CFA_XSP16, literal(-1)))
          CFI (cfiCond276) CFA_SP SP+0
          CFI (cfiCond276) CFA_XSP16 add(XSP16, 22)
          CFI Block cfiPicker277 Using cfiCommon1
          CFI (cfiPicker277) NoFunction
          CFI (cfiPicker277) Picker
        MOVX    A,@DPTR
        MOV     R0,A
        INC     DPTR
        MOVX    A,@DPTR
        MOV     DPH,A
        MOV     DPL,R0
        RET
          CFI EndBlock cfiCond275
          CFI EndBlock cfiCond276
          CFI EndBlock cfiPicker277

        RSEG BANKED_CODE:CODE:NOROOT(0)
?Subroutine15:
          CFI Block cfiCond278 Using cfiCommon0
          CFI Function zll_ItemInit
          CFI Conditional ??CrossCallReturnLabel_11
          CFI R6 load(1, XDATA, add(CFA_XSP16, literal(-12)))
          CFI VB load(1, XDATA, add(CFA_XSP16, literal(-11)))
          CFI V0 load(1, XDATA, add(CFA_XSP16, literal(-10)))
          CFI V1 load(1, XDATA, add(CFA_XSP16, literal(-9)))
          CFI V2 load(1, XDATA, add(CFA_XSP16, literal(-8)))
          CFI V3 load(1, XDATA, add(CFA_XSP16, literal(-7)))
          CFI R7 load(1, XDATA, add(CFA_XSP16, literal(-6)))
          CFI ?RET_LOW load(1, XDATA, add(CFA_XSP16, literal(-5)))
          CFI ?RET_HIGH load(1, XDATA, add(CFA_XSP16, literal(-4)))
          CFI ?BRET_EXT load(1, XDATA, add(CFA_XSP16, literal(-3)))
          CFI DPL0 load(1, XDATA, add(CFA_XSP16, literal(-2)))
          CFI DPH0 load(1, XDATA, add(CFA_XSP16, literal(-1)))
          CFI CFA_SP SP+0
          CFI CFA_XSP16 add(XSP16, 12)
          CFI Block cfiCond279 Using cfiCommon0
          CFI (cfiCond279) Function zll_RouterProcessZDOMsg
          CFI (cfiCond279) Conditional ??CrossCallReturnLabel_12
          CFI (cfiCond279) R6 load(1, XDATA, add(CFA_XSP16, literal(-10)))
          CFI (cfiCond279) VB load(1, XDATA, add(CFA_XSP16, literal(-9)))
          CFI (cfiCond279) V0 load(1, XDATA, add(CFA_XSP16, literal(-8)))
          CFI (cfiCond279) V1 load(1, XDATA, add(CFA_XSP16, literal(-7)))
          CFI (cfiCond279) R7 load(1, XDATA, add(CFA_XSP16, literal(-6)))
          CFI (cfiCond279) ?RET_LOW load(1, XDATA, add(CFA_XSP16, literal(-5)))
          CFI (cfiCond279) ?RET_HIGH load(1, XDATA, add(CFA_XSP16, literal(-4)))
          CFI (cfiCond279) ?BRET_EXT load(1, XDATA, add(CFA_XSP16, literal(-3)))
          CFI (cfiCond279) DPL0 load(1, XDATA, add(CFA_XSP16, literal(-2)))
          CFI (cfiCond279) DPH0 load(1, XDATA, add(CFA_XSP16, literal(-1)))
          CFI (cfiCond279) CFA_SP SP+0
          CFI (cfiCond279) CFA_XSP16 add(XSP16, 22)
          CFI Block cfiPicker280 Using cfiCommon1
          CFI (cfiPicker280) NoFunction
          CFI (cfiPicker280) Picker
        LCALL   ?Subroutine32 & 0xFFFF
??CrossCallReturnLabel_42:
        ; Setup parameters for call to function osal_nv_item_init
        MOV     R0,#?V0 + 0
        RET
          CFI EndBlock cfiCond278
          CFI EndBlock cfiCond279
          CFI EndBlock cfiPicker280

        RSEG BANKED_CODE:CODE:NOROOT(0)
?Subroutine32:
          CFI Block cfiCond281 Using cfiCommon0
          CFI Function zll_SplitFreeRanges
          CFI Conditional ??CrossCallReturnLabel_40
          CFI R6 load(1, XDATA, add(CFA_XSP16, literal(-18)))
          CFI VB load(1, XDATA, add(CFA_XSP16, literal(-17)))
          CFI V0 load(1, XDATA, add(CFA_XSP16, literal(-16)))
          CFI V1 load(1, XDATA, add(CFA_XSP16, literal(-15)))
          CFI V2 load(1, XDATA, add(CFA_XSP16, literal(-14)))
          CFI V3 load(1, XDATA, add(CFA_XSP16, literal(-13)))
          CFI V4 load(1, XDATA, add(CFA_XSP16, literal(-12)))
          CFI V5 load(1, XDATA, add(CFA_XSP16, literal(-11)))
          CFI V6 load(1, XDATA, add(CFA_XSP16, literal(-10)))
          CFI V7 load(1, XDATA, add(CFA_XSP16, literal(-9)))
          CFI V8 load(1, XDATA, add(CFA_XSP16, literal(-8)))
          CFI V9 load(1, XDATA, add(CFA_XSP16, literal(-7)))
          CFI R7 load(1, XDATA, add(CFA_XSP16, literal(-6)))
          CFI ?RET_LOW load(1, XDATA, add(CFA_XSP16, literal(-5)))
          CFI ?RET_HIGH load(1, XDATA, add(CFA_XSP16, literal(-4)))
          CFI ?BRET_EXT load(1, XDATA, add(CFA_XSP16, literal(-3)))
          CFI DPL0 load(1, XDATA, add(CFA_XSP16, literal(-2)))
          CFI DPH0 load(1, XDATA, add(CFA_XSP16, literal(-1)))
          CFI CFA_SP SP+0
          CFI CFA_XSP16 add(XSP16, 18)
          CFI Block cfiCond282 Using cfiCommon0
          CFI (cfiCond282) Function zll_SplitFreeRanges
          CFI (cfiCond282) Conditional ??CrossCallReturnLabel_41
          CFI (cfiCond282) R6 load(1, XDATA, add(CFA_XSP16, literal(-18)))
          CFI (cfiCond282) VB load(1, XDATA, add(CFA_XSP16, literal(-17)))
          CFI (cfiCond282) V0 load(1, XDATA, add(CFA_XSP16, literal(-16)))
          CFI (cfiCond282) V1 load(1, XDATA, add(CFA_XSP16, literal(-15)))
          CFI (cfiCond282) V2 load(1, XDATA, add(CFA_XSP16, literal(-14)))
          CFI (cfiCond282) V3 load(1, XDATA, add(CFA_XSP16, literal(-13)))
          CFI (cfiCond282) V4 load(1, XDATA, add(CFA_XSP16, literal(-12)))
          CFI (cfiCond282) V5 load(1, XDATA, add(CFA_XSP16, literal(-11)))
          CFI (cfiCond282) V6 load(1, XDATA, add(CFA_XSP16, literal(-10)))
          CFI (cfiCond282) V7 load(1, XDATA, add(CFA_XSP16, literal(-9)))
          CFI (cfiCond282) V8 load(1, XDATA, add(CFA_XSP16, literal(-8)))
          CFI (cfiCond282) V9 load(1, XDATA, add(CFA_XSP16, literal(-7)))
          CFI (cfiCond282) R7 load(1, XDATA, add(CFA_XSP16, literal(-6)))
          CFI (cfiCond282) ?RET_LOW load(1, XDATA, add(CFA_XSP16, literal(-5)))
          CFI (cfiCond282) ?RET_HIGH load(1, XDATA, add(CFA_XSP16, literal(-4)))
          CFI (cfiCond282) ?BRET_EXT load(1, XDATA, add(CFA_XSP16, literal(-3)))
          CFI (cfiCond282) DPL0 load(1, XDATA, add(CFA_XSP16, literal(-2)))
          CFI (cfiCond282) DPH0 load(1, XDATA, add(CFA_XSP16, literal(-1)))
          CFI (cfiCond282) CFA_SP SP+0
          CFI (cfiCond282) CFA_XSP16 add(XSP16, 18)
          CFI Block cfiCond283 Using cfiCommon0
          CFI (cfiCond283) Function zll_ItemInit
          CFI (cfiCond283) Conditional ??CrossCallReturnLabel_42, ??CrossCallReturnLabel_11
          CFI (cfiCond283) R6 load(1, XDATA, add(CFA_XSP16, literal(-12)))
          CFI (cfiCond283) VB load(1, XDATA, add(CFA_XSP16, literal(-11)))
          CFI (cfiCond283) V0 load(1, XDATA, add(CFA_XSP16, literal(-10)))
          CFI (cfiCond283) V1 load(1, XDATA, add(CFA_XSP16, literal(-9)))
          CFI (cfiCond283) V2 load(1, XDATA, add(CFA_XSP16, literal(-8)))
          CFI (cfiCond283) V3 load(1, XDATA, add(CFA_XSP16, literal(-7)))
          CFI (cfiCond283) R7 load(1, XDATA, add(CFA_XSP16, literal(-6)))
          CFI (cfiCond283) ?RET_LOW load(1, XDATA, add(CFA_XSP16, literal(-5)))
          CFI (cfiCond283) ?RET_HIGH load(1, XDATA, add(CFA_XSP16, literal(-4)))
          CFI (cfiCond283) ?BRET_EXT load(1, XDATA, add(CFA_XSP16, literal(-3)))
          CFI (cfiCond283) DPL0 load(1, XDATA, add(CFA_XSP16, literal(-2)))
          CFI (cfiCond283) DPH0 load(1, XDATA, add(CFA_XSP16, literal(-1)))
          CFI (cfiCond283) CFA_SP SP+0
          CFI (cfiCond283) CFA_XSP16 add(XSP16, 12)
          CFI Block cfiCond284 Using cfiCommon0
          CFI (cfiCond284) Function zll_RouterProcessZDOMsg
          CFI (cfiCond284) Conditional ??CrossCallReturnLabel_42, ??CrossCallReturnLabel_12
          CFI (cfiCond284) R6 load(1, XDATA, add(CFA_XSP16, literal(-10)))
          CFI (cfiCond284) VB load(1, XDATA, add(CFA_XSP16, literal(-9)))
          CFI (cfiCond284) V0 load(1, XDATA, add(CFA_XSP16, literal(-8)))
          CFI (cfiCond284) V1 load(1, XDATA, add(CFA_XSP16, literal(-7)))
          CFI (cfiCond284) R7 load(1, XDATA, add(CFA_XSP16, literal(-6)))
          CFI (cfiCond284) ?RET_LOW load(1, XDATA, add(CFA_XSP16, literal(-5)))
          CFI (cfiCond284) ?RET_HIGH load(1, XDATA, add(CFA_XSP16, literal(-4)))
          CFI (cfiCond284) ?BRET_EXT load(1, XDATA, add(CFA_XSP16, literal(-3)))
          CFI (cfiCond284) DPL0 load(1, XDATA, add(CFA_XSP16, literal(-2)))
          CFI (cfiCond284) DPH0 load(1, XDATA, add(CFA_XSP16, literal(-1)))
          CFI (cfiCond284) CFA_SP SP+0
          CFI (cfiCond284) CFA_XSP16 add(XSP16, 22)
          CFI Block cfiPicker285 Using cfiCommon1
          CFI (cfiPicker285) NoFunction
          CFI (cfiPicker285) Picker
        MOVX    A,@DPTR
        MOV     ?V0 + 0,A
        INC     DPTR
        MOVX    A,@DPTR
        MOV     ?V0 + 1,A
        RET
          CFI EndBlock cfiCond281
          CFI EndBlock cfiCond282
          CFI EndBlock cfiCond283
          CFI EndBlock cfiCond284
          CFI EndBlock cfiPicker285
// 1786 
// 1787 /*********************************************************************
// 1788  * @fn      zll_PermitJoin
// 1789  *
// 1790  * @brief   Set the router permit join flag, to allow or deny classical
// 1791  *          commissioning by other ZigBee devices.
// 1792  *
// 1793  * @param   duration - enable up to aplcMaxPermitJoinDuration seconds,
// 1794  *                     0 to disable
// 1795  *
// 1796  * @return  status
// 1797  */

        RSEG BANKED_CODE:CODE:NOROOT(0)
// 1798 ZStatus_t zll_PermitJoin( uint8 duration )
zll_PermitJoin:
          CFI Block cfiBlock286 Using cfiCommon0
          CFI Function zll_PermitJoin
        CODE
// 1799 {
        FUNCALL zll_PermitJoin, NLME_PermitJoiningRequest
        LOCFRAME ISTACK, 0, STACK
        LOCFRAME PSTACK, 0, STACK
        LOCFRAME XSTACK, 9, STACK
        LOCFRAME IOVERLAY, 0, STATIC
        LOCFRAME DOVERLAY, 0, STATIC
        ARGFRAME ISTACK, 0, STACK
        ARGFRAME PSTACK, 0, STACK
        ARGFRAME XSTACK, 9, STACK
        ARGFRAME IOVERLAY, 0, STATIC
        ARGFRAME DOVERLAY, 0, STATIC
        MOV     A,#-0x9
        LCALL   ?BANKED_ENTER_XDATA
          CFI DPH0 load(1, XDATA, add(CFA_XSP16, literal(-1)))
          CFI DPL0 load(1, XDATA, add(CFA_XSP16, literal(-2)))
          CFI ?BRET_EXT load(1, XDATA, add(CFA_XSP16, literal(-3)))
          CFI ?RET_HIGH load(1, XDATA, add(CFA_XSP16, literal(-4)))
          CFI ?RET_LOW load(1, XDATA, add(CFA_XSP16, literal(-5)))
          CFI R7 load(1, XDATA, add(CFA_XSP16, literal(-6)))
          CFI V0 load(1, XDATA, add(CFA_XSP16, literal(-7)))
          CFI VB load(1, XDATA, add(CFA_XSP16, literal(-8)))
          CFI R6 load(1, XDATA, add(CFA_XSP16, literal(-9)))
          CFI CFA_SP SP+0
          CFI CFA_XSP16 add(XSP16, 9)
        ; Saved register size: 9
        ; Auto size: 0
        MOV     A,R1
        MOV     R6,A
// 1800   if ( duration > ZLL_APLC_MAX_PERMIT_JOIN_DURATION )
        CLR     C
        SUBB    A,#0x3d
        JC      ??zll_PermitJoin_0
// 1801   {
// 1802     duration = ZLL_APLC_MAX_PERMIT_JOIN_DURATION;
        MOV     R6,#0x3c
// 1803   }
// 1804   return NLME_PermitJoiningRequest( duration );
??zll_PermitJoin_0:
        ; Setup parameters for call to function NLME_PermitJoiningRequest
        MOV     A,R6
        MOV     R1,A
        LCALL   ??NLME_PermitJoiningRequest?relay
        LJMP    ?Subroutine5 & 0xFFFF
          CFI EndBlock cfiBlock286
// 1805 }

        RSEG XDATA_ID:CODE:NOROOT(0)
`?<Initializer for zll_EP_SimpleDesc>`:
        DATA8
        DB 13
        DATA16
        DW 49246
        DW 57694
        DATA8
        DB 2
        DB 1
        DATA16
        DW zll_EP_InClusterList
        DATA8
        DB 1
        DATA16
        DW zll_EP_OutClusterList

        RSEG XDATA_ID:CODE:NOROOT(0)
`?<Initializer for zll_EP>`:
        DATA8
        DB 13
        DATA16
        DW zllTaskId
        DW 0H
        DATA8
        DB 0

        RSEG BANK_RELAYS:CODE:REORDER:NOROOT(0)
??zll_RegisterSimpleDesc?relay:
        CODE
        LCALL   ?BDISPATCH
        DATA24
        DC24    zll_RegisterSimpleDesc

        RSEG BANK_RELAYS:CODE:REORDER:NOROOT(0)
??zll_InitVariables?relay:
        CODE
        LCALL   ?BDISPATCH
        DATA24
        DC24    zll_InitVariables

        RSEG BANK_RELAYS:CODE:REORDER:NOROOT(0)
??zll_InitFreeRanges?relay:
        CODE
        LCALL   ?BDISPATCH
        DATA24
        DC24    zll_InitFreeRanges

        RSEG BANK_RELAYS:CODE:REORDER:NOROOT(0)
??zll_RegisterApp?relay:
        CODE
        LCALL   ?BDISPATCH
        DATA24
        DC24    zll_RegisterApp

        RSEG BANK_RELAYS:CODE:REORDER:NOROOT(0)
??zll_IsFactoryNew?relay:
        CODE
        LCALL   ?BDISPATCH
        DATA24
        DC24    zll_IsFactoryNew

        RSEG BANK_RELAYS:CODE:REORDER:NOROOT(0)
??zll_UpdateFreeRanges?relay:
        CODE
        LCALL   ?BDISPATCH
        DATA24
        DC24    zll_UpdateFreeRanges

        RSEG BANK_RELAYS:CODE:REORDER:NOROOT(0)
??zll_IsValidSplitFreeRanges?relay:
        CODE
        LCALL   ?BDISPATCH
        DATA24
        DC24    zll_IsValidSplitFreeRanges

        RSEG BANK_RELAYS:CODE:REORDER:NOROOT(0)
??zll_SplitFreeRanges?relay:
        CODE
        LCALL   ?BDISPATCH
        DATA24
        DC24    zll_SplitFreeRanges

        RSEG BANK_RELAYS:CODE:REORDER:NOROOT(0)
??zll_PopGrpIDRange?relay:
        CODE
        LCALL   ?BDISPATCH
        DATA24
        DC24    zll_PopGrpIDRange

        RSEG BANK_RELAYS:CODE:REORDER:NOROOT(0)
??zll_PopNwkAddress?relay:
        CODE
        LCALL   ?BDISPATCH
        DATA24
        DC24    zll_PopNwkAddress

        RSEG BANK_RELAYS:CODE:REORDER:NOROOT(0)
??zll_GetNumSubDevices?relay:
        CODE
        LCALL   ?BDISPATCH
        DATA24
        DC24    zll_GetNumSubDevices

        RSEG BANK_RELAYS:CODE:REORDER:NOROOT(0)
??zll_GetNumGrpIDs?relay:
        CODE
        LCALL   ?BDISPATCH
        DATA24
        DC24    zll_GetNumGrpIDs

        RSEG BANK_RELAYS:CODE:REORDER:NOROOT(0)
??zll_GetSubDeviceInfo?relay:
        CODE
        LCALL   ?BDISPATCH
        DATA24
        DC24    zll_GetSubDeviceInfo

        RSEG BANK_RELAYS:CODE:REORDER:NOROOT(0)
??zll_EncryptNwkKey?relay:
        CODE
        LCALL   ?BDISPATCH
        DATA24
        DC24    zll_EncryptNwkKey

        RSEG BANK_RELAYS:CODE:REORDER:NOROOT(0)
??zll_DecryptNwkKey?relay:
        CODE
        LCALL   ?BDISPATCH
        DATA24
        DC24    zll_DecryptNwkKey

        RSEG BANK_RELAYS:CODE:REORDER:NOROOT(0)
??zll_BuildAesKey?relay:
        CODE
        LCALL   ?BDISPATCH
        DATA24
        DC24    zll_BuildAesKey

        RSEG BANK_RELAYS:CODE:REORDER:NOROOT(0)
??zll_UpdateNwkKey?relay:
        CODE
        LCALL   ?BDISPATCH
        DATA24
        DC24    zll_UpdateNwkKey

        RSEG BANK_RELAYS:CODE:REORDER:NOROOT(0)
??zll_GetNwkKeyBitmask?relay:
        CODE
        LCALL   ?BDISPATCH
        DATA24
        DC24    zll_GetNwkKeyBitmask

        RSEG BANK_RELAYS:CODE:REORDER:NOROOT(0)
??zll_GenerateRandNum?relay:
        CODE
        LCALL   ?BDISPATCH
        DATA24
        DC24    zll_GenerateRandNum

        RSEG BANK_RELAYS:CODE:REORDER:NOROOT(0)
??zll_GetRandPrimaryChannel?relay:
        CODE
        LCALL   ?BDISPATCH
        DATA24
        DC24    zll_GetRandPrimaryChannel

        RSEG BANK_RELAYS:CODE:REORDER:NOROOT(0)
??zll_SetNIB?relay:
        CODE
        LCALL   ?BDISPATCH
        DATA24
        DC24    zll_SetNIB

        RSEG BANK_RELAYS:CODE:REORDER:NOROOT(0)
??zll_ProcessNwkUpdate?relay:
        CODE
        LCALL   ?BDISPATCH
        DATA24
        DC24    zll_ProcessNwkUpdate

        RSEG BANK_RELAYS:CODE:REORDER:NOROOT(0)
??zll_UpdateNV?relay:
        CODE
        LCALL   ?BDISPATCH
        DATA24
        DC24    zll_UpdateNV

        RSEG BANK_RELAYS:CODE:REORDER:NOROOT(0)
??zll_ItemInit?relay:
        CODE
        LCALL   ?BDISPATCH
        DATA24
        DC24    zll_ItemInit

        RSEG BANK_RELAYS:CODE:REORDER:NOROOT(0)
??zll_SetMacNwkParams?relay:
        CODE
        LCALL   ?BDISPATCH
        DATA24
        DC24    zll_SetMacNwkParams

        RSEG BANK_RELAYS:CODE:REORDER:NOROOT(0)
??zll_SetChannel?relay:
        CODE
        LCALL   ?BDISPATCH
        DATA24
        DC24    zll_SetChannel

        RSEG BANK_RELAYS:CODE:REORDER:NOROOT(0)
??zll_SendScanRsp?relay:
        CODE
        LCALL   ?BDISPATCH
        DATA24
        DC24    zll_SendScanRsp

        RSEG BANK_RELAYS:CODE:REORDER:NOROOT(0)
??zll_SendDeviceInfoRsp?relay:
        CODE
        LCALL   ?BDISPATCH
        DATA24
        DC24    zll_SendDeviceInfoRsp

        RSEG BANK_RELAYS:CODE:REORDER:NOROOT(0)
??zll_SendLeaveReq?relay:
        CODE
        LCALL   ?BDISPATCH
        DATA24
        DC24    zll_SendLeaveReq

        RSEG BANK_RELAYS:CODE:REORDER:NOROOT(0)
??zll_ResetToFactoryNew?relay:
        CODE
        LCALL   ?BDISPATCH
        DATA24
        DC24    zll_ResetToFactoryNew

        RSEG BANK_RELAYS:CODE:REORDER:NOROOT(0)
??zll_GetMsgRssi?relay:
        CODE
        LCALL   ?BDISPATCH
        DATA24
        DC24    zll_GetMsgRssi

        RSEG BANK_RELAYS:CODE:REORDER:NOROOT(0)
??zll_NewNwkUpdateId?relay:
        CODE
        LCALL   ?BDISPATCH
        DATA24
        DC24    zll_NewNwkUpdateId

        RSEG BANK_RELAYS:CODE:REORDER:NOROOT(0)
??zll_SetZllTaskId?relay:
        CODE
        LCALL   ?BDISPATCH
        DATA24
        DC24    zll_SetZllTaskId

        RSEG BANK_RELAYS:CODE:REORDER:NOROOT(0)
??zll_ClassicalCommissioningInit?relay:
        CODE
        LCALL   ?BDISPATCH
        DATA24
        DC24    zll_ClassicalCommissioningInit

        RSEG BANK_RELAYS:CODE:REORDER:NOROOT(0)
??zll_ClassicalCommissioningNetworkDisc?relay:
        CODE
        LCALL   ?BDISPATCH
        DATA24
        DC24    zll_ClassicalCommissioningNetworkDisc

        RSEG BANK_RELAYS:CODE:REORDER:NOROOT(0)
??zll_ClassicalCommissioningJoinDiscoveredNwk?r:
        CODE
        LCALL   ?BDISPATCH
        DATA24
        DC24    zll_ClassicalCommissioningJoinDiscoveredNwk

        RSEG BANK_RELAYS:CODE:REORDER:NOROOT(0)
??zll_PerformNetworkDisc?relay:
        CODE
        LCALL   ?BDISPATCH
        DATA24
        DC24    zll_PerformNetworkDisc

        RSEG BANK_RELAYS:CODE:REORDER:NOROOT(0)
??zll_BeaconIndCB?relay:
        CODE
        LCALL   ?BDISPATCH
        DATA24
        DC24    zll_BeaconIndCB

        RSEG BANK_RELAYS:CODE:REORDER:NOROOT(0)
??zll_NwkDiscoveryCnfCB?relay:
        CODE
        LCALL   ?BDISPATCH
        DATA24
        DC24    zll_NwkDiscoveryCnfCB

        RSEG BANK_RELAYS:CODE:REORDER:NOROOT(0)
??zll_FreeNwkParamList?relay:
        CODE
        LCALL   ?BDISPATCH
        DATA24
        DC24    zll_FreeNwkParamList

        RSEG BANK_RELAYS:CODE:REORDER:NOROOT(0)
??zll_SetTCLK?relay:
        CODE
        LCALL   ?BDISPATCH
        DATA24
        DC24    zll_SetTCLK

        RSEG BANK_RELAYS:CODE:REORDER:NOROOT(0)
??zll_IsValidTransID?relay:
        CODE
        LCALL   ?BDISPATCH
        DATA24
        DC24    zll_IsValidTransID

        RSEG BANK_RELAYS:CODE:REORDER:NOROOT(0)
??zll_RouterProcessZDOMsg?relay:
        CODE
        LCALL   ?BDISPATCH
        DATA24
        DC24    zll_RouterProcessZDOMsg

        RSEG BANK_RELAYS:CODE:REORDER:NOROOT(0)
??zll_PermitJoin?relay:
        CODE
        LCALL   ?BDISPATCH
        DATA24
        DC24    zll_PermitJoin

        RSEG XDATA_ROM_C:CONST:REORDER:NOROOT(0)
        DATA8
`?<Constant {80, 104, 76, 105, 234, 156, 209, 5`:
        DB 80
        DB 104
        DB 76
        DB 105
        DB 234
        DB 156
        DB 209
        DB 56
        DB 67
        DB 76
        DB 83
        DB 78
        DB 143
        DB 141
        DB 186
        DB 180

        RSEG XDATA_ROM_C:CONST:REORDER:NOROOT(0)
        DATA8
`?<Constant {192, 193, 194, 195, 196, 197, 198,`:
        DB 192
        DB 193
        DB 194
        DB 195
        DB 196
        DB 197
        DB 198
        DB 199
        DB 200
        DB 201
        DB 202
        DB 203
        DB 204
        DB 205
        DB 206
        DB 207

        RSEG XDATA_ROM_C:CONST:REORDER:NOROOT(0)
        DATA8
`?<Constant {80, 104, 76, 105, 234, 156, 209, 5_1`:
        DB 80
        DB 104
        DB 76
        DB 105
        DB 234
        DB 156
        DB 209
        DB 56
        DB 67
        DB 76
        DB 83
        DB 78
        DB 143
        DB 141
        DB 186
        DB 180

        RSEG XDATA_ROM_C:CONST:REORDER:NOROOT(0)
        DATA8
`?<Constant {192, 193, 194, 195, 196, 197, 198,_1`:
        DB 192
        DB 193
        DB 194
        DB 195
        DB 196
        DB 197
        DB 198
        DB 199
        DB 200
        DB 201
        DB 202
        DB 203
        DB 204
        DB 205
        DB 206
        DB 207

        RSEG XDATA_ROM_C:CONST:REORDER:NOROOT(0)
        DATA8
`?<Constant {208, 209, 210, 211, 212, 213, 214,`:
        DB 208
        DB 209
        DB 210
        DB 211
        DB 212
        DB 213
        DB 214
        DB 215
        DB 216
        DB 217
        DB 218
        DB 219
        DB 220
        DB 221
        DB 222
        DB 223

        RSEG XDATA_ROM_C:CONST:REORDER:NOROOT(0)
        DATA8
`?<Constant {{0}}>`:
        DB 0
        DB 0, 0, 0, 0, 0, 0, 0
        DB 0, 0, 0, 0, 0, 0, 0, 0
        DB 0, 0, 0, 0, 0, 0, 0, 0
        DB 0, 0, 0, 0, 0, 0, 0, 0

        RSEG XDATA_ROM_C:CONST:REORDER:NOROOT(0)
        DATA32
__Constant_1:
        DD 1

        RSEG XDATA_ROM_C:CONST:REORDER:NOROOT(0)
        DATA32
__Constant_1f40:
        DD 8000

        RSEG XDATA_ROM_C:CONST:REORDER:NOROOT(0)
        DATA32
__Constant_2108800:
        DD 34637824

        RSEG XDATA_ROM_C:CONST:REORDER:NOROOT(0)
        DATA32
__Constant_5ef7000:
        DD 99577856

        END
// 1806 
// 1807 
// 1808 /*********************************************************************
// 1809 *********************************************************************/
// 
// 5 938 bytes in segment BANKED_CODE
//   264 bytes in segment BANK_RELAYS
//    18 bytes in segment XDATA_I
//    18 bytes in segment XDATA_ID
//   132 bytes in segment XDATA_ROM_C
//    41 bytes in segment XDATA_Z
// 
// 6 220 bytes of CODE  memory
//   116 bytes of CONST memory (+ 16 bytes shared)
//    59 bytes of XDATA memory
//
//Errors: none
//Warnings: none
