///////////////////////////////////////////////////////////////////////////////
//                                                                            /
// IAR C/C++ Compiler V8.20.2.41139 for 8051            07/May/2014  17:02:24 /
// Copyright 2004-2013 IAR Systems AB.                                        /
//                                                                            /
//    Core               =  plain                                             /
//    Code model         =  banked                                            /
//    Data model         =  large                                             /
//    Calling convention =  xdata reentrant                                   /
//    Constant location  =  data_rom                                          /
//    Dptr setup         =  1,16                                              /
//                                                                            /
//    Source file        =  D:\Texas Instruments\Z-Stack Lighting             /
//                          1.0.2\Projects\zstack\ZLL\Source\zll.c            /
//    Command line       =  -f "D:\Texas Instruments\Z-Stack Lighting         /
//                          1.0.2\Projects\zstack\ZLL\SampleApp\CC253x\..\..\ /
//                          ..\Tools\CC2530DB\f8wRouter.cfg" (-DCPU32MHZ      /
//                          -DROOT=__near_func -DMAC_CFG_APP_PENDING_QUEUE=TR /
//                          UE -DMAC_CFG_TX_DATA_MAX=5 -DMAC_CFG_TX_MAX=8     /
//                          -DMAC_CFG_RX_MAX=5 -DRTR_NWK) -f "D:\Texas        /
//                          Instruments\Z-Stack Lighting                      /
//                          1.0.2\Projects\zstack\ZLL\SampleApp\CC253x\..\..\ /
//                          ..\Tools\CC2530DB\f8wConfig.cfg" (-DZIGBEEPRO     /
//                          -DSECURE=1 -DZG_SECURE_DYNAMIC=0 -DREFLECTOR      /
//                          -DDEFAULT_CHANLIST=0x00000800                     /
//                          -DZDAPP_CONFIG_PAN_ID=0xFFFF                      /
//                          -DNWK_START_DELAY=100 -DEXTENDED_JOINING_RANDOM_M /
//                          ASK=0x007F -DBEACON_REQUEST_DELAY=100             /
//                          -DBEACON_REQ_DELAY_MASK=0x00FF                    /
//                          -DLINK_STATUS_JITTER_MASK=0x007F                  /
//                          -DROUTE_EXPIRY_TIME=30 -DAPSC_ACK_WAIT_DURATION_P /
//                          OLLED=3000 -DNWK_INDIRECT_MSG_TIMEOUT=7           /
//                          -DMAX_RREQ_ENTRIES=8 -DAPSC_MAX_FRAME_RETRIES=3   /
//                          -DNWK_MAX_DATA_RETRIES=2                          /
//                          -DMAX_POLL_FAILURE_RETRIES=2 -DMAX_BCAST=9        /
//                          -DAPS_MAX_GROUPS=16 -DMAX_RTG_ENTRIES=40          /
//                          -DNWK_MAX_BINDING_ENTRIES=4                       /
//                          -DMAX_BINDING_CLUSTER_IDS=4                       /
//                          "-DDEFAULT_KEY={0x01, 0x03, 0x05, 0x07, 0x09,     /
//                          0x0B, 0x0D, 0x0F, 0x00, 0x02, 0x04, 0x06, 0x08,   /
//                          0x0A, 0x0C, 0x0D}" -DMAC_MAX_FRAME_SIZE=116       /
//                          -DZDNWKMGR_MIN_TRANSMISSIONS=20 "-DCONST=const    /
//                          __code" -DGENERIC=__generic                       /
//                          -DRFD_RCVC_ALWAYS_ON=FALSE -DPOLL_RATE=1000       /
//                          -DQUEUED_POLL_RATE=100 -DRESPONSE_POLL_RATE=100   /
//                          -DREJOIN_POLL_RATE=440) -f "D:\Texas              /
//                          Instruments\Z-Stack Lighting                      /
//                          1.0.2\Projects\zstack\ZLL\SampleApp\CC253x\..\..\ /
//                          ..\Tools\CC2530DB\f8wZCL.cfg" "D:\Texas           /
//                          Instruments\Z-Stack Lighting                      /
//                          1.0.2\Projects\zstack\ZLL\Source\zll.c" -D        /
//                          FEATURE_GREEN_POWER -D SECURE=1 -D                /
//                          TC_LINKKEY_JOIN -D ZDSECMGR_TC_DEVICE_MAX=2 -D    /
//                          NV_RESTORE -D HOLD_AUTO_START -D INTER_PAN -D     /
//                          ZTOOL_P1 -D MT_TASK -D MT_APP_FUNC -D             /
//                          MT_SYS_FUNC -D MT_ZDO_FUNC -D MT_ZDO_CB_FUNC -D   /
//                          MT_UTIL_FUNC -D MT_ZDO_MGMT -D LCD_SUPPORTED -D   /
//                          HAL_LCD=FALSE -D HAL_KEY=FALSE -D ZCL_BASIC -D    /
//                          ZCL_READ -D ZCL_WRITE -D ZCL_IDENTIFY -D          /
//                          ZCL_ON_OFF -D ZCL_SCENES -D ZCL_GROUPS -D         /
//                          ZCL_LIGHT_LINK_ENHANCE -D ZCL_LEVEL_CTRL -D       /
//                          ZCL_COLOR_CTRL -D xMAX_CHANNELS_24GHZ=0x02108800  /
//                          -lC "D:\Texas Instruments\Z-Stack Lighting        /
//                          1.0.2\Projects\zstack\ZLL\SampleApp\CC253x\Bridge /
//                          EB-Pro\List\" -lA "D:\Texas Instruments\Z-Stack   /
//                          Lighting 1.0.2\Projects\zstack\ZLL\SampleApp\CC25 /
//                          3x\BridgeEB-Pro\List\" --diag_suppress            /
//                          Pe001,Pa010 -o "D:\Texas Instruments\Z-Stack      /
//                          Lighting 1.0.2\Projects\zstack\ZLL\SampleApp\CC25 /
//                          3x\BridgeEB-Pro\Obj\" -e --debug --core=plain     /
//                          --dptr=16,1 --data_model=large                    /
//                          --code_model=banked --calling_convention=xdata_re /
//                          entrant --place_constants=data_rom                /
//                          --nr_virtual_regs 16 -I "D:\Texas                 /
//                          Instruments\Z-Stack Lighting                      /
//                          1.0.2\Projects\zstack\ZLL\SampleApp\CC253x\" -I   /
//                          "D:\Texas Instruments\Z-Stack Lighting            /
//                          1.0.2\Projects\zstack\ZLL\SampleApp\CC253x\..\Sou /
//                          rce\" -I "D:\Texas Instruments\Z-Stack Lighting   /
//                          1.0.2\Projects\zstack\ZLL\SampleApp\CC253x\..\..\ /
//                          Source\" -I "D:\Texas Instruments\Z-Stack         /
//                          Lighting 1.0.2\Projects\zstack\ZLL\SampleApp\CC25 /
//                          3x\..\..\..\HomeAutomation\Source\" -I "D:\Texas  /
//                          Instruments\Z-Stack Lighting                      /
//                          1.0.2\Projects\zstack\ZLL\SampleApp\CC253x\..\..\ /
//                          ..\HomeAutomation\SampleLight\Source\" -I         /
//                          "D:\Texas Instruments\Z-Stack Lighting            /
//                          1.0.2\Projects\zstack\ZLL\SampleApp\CC253x\..\..\ /
//                          ..\ZMain\TI2530DB\" -I "D:\Texas                  /
//                          Instruments\Z-Stack Lighting                      /
//                          1.0.2\Projects\zstack\ZLL\SampleApp\CC253x\..\..\ /
//                          ..\..\..\Components\hal\include\" -I "D:\Texas    /
//                          Instruments\Z-Stack Lighting                      /
//                          1.0.2\Projects\zstack\ZLL\SampleApp\CC253x\..\..\ /
//                          ..\..\..\Components\hal\target\CC2530EB\" -I      /
//                          "D:\Texas Instruments\Z-Stack Lighting            /
//                          1.0.2\Projects\zstack\ZLL\SampleApp\CC253x\..\..\ /
//                          ..\..\..\Components\mac\include\" -I "D:\Texas    /
//                          Instruments\Z-Stack Lighting                      /
//                          1.0.2\Projects\zstack\ZLL\SampleApp\CC253x\..\..\ /
//                          ..\..\..\Components\mac\high_level\" -I           /
//                          "D:\Texas Instruments\Z-Stack Lighting            /
//                          1.0.2\Projects\zstack\ZLL\SampleApp\CC253x\..\..\ /
//                          ..\..\..\Components\mac\low_level\srf04\" -I      /
//                          "D:\Texas Instruments\Z-Stack Lighting            /
//                          1.0.2\Projects\zstack\ZLL\SampleApp\CC253x\..\..\ /
//                          ..\..\..\Components\mac\low_level\srf04\single_ch /
//                          ip\" -I "D:\Texas Instruments\Z-Stack Lighting    /
//                          1.0.2\Projects\zstack\ZLL\SampleApp\CC253x\..\..\ /
//                          ..\..\..\Components\mt\" -I "D:\Texas             /
//                          Instruments\Z-Stack Lighting                      /
//                          1.0.2\Projects\zstack\ZLL\SampleApp\CC253x\..\..\ /
//                          ..\..\..\Components\osal\include\" -I "D:\Texas   /
//                          Instruments\Z-Stack Lighting                      /
//                          1.0.2\Projects\zstack\ZLL\SampleApp\CC253x\..\..\ /
//                          ..\..\..\Components\services\saddr\" -I           /
//                          "D:\Texas Instruments\Z-Stack Lighting            /
//                          1.0.2\Projects\zstack\ZLL\SampleApp\CC253x\..\..\ /
//                          ..\..\..\Components\services\sdata\" -I           /
//                          "D:\Texas Instruments\Z-Stack Lighting            /
//                          1.0.2\Projects\zstack\ZLL\SampleApp\CC253x\..\..\ /
//                          ..\..\..\Components\stack\af\" -I "D:\Texas       /
//                          Instruments\Z-Stack Lighting                      /
//                          1.0.2\Projects\zstack\ZLL\SampleApp\CC253x\..\..\ /
//                          ..\..\..\Components\stack\nwk\" -I "D:\Texas      /
//                          Instruments\Z-Stack Lighting                      /
//                          1.0.2\Projects\zstack\ZLL\SampleApp\CC253x\..\..\ /
//                          ..\..\..\Components\stack\sapi\" -I "D:\Texas     /
//                          Instruments\Z-Stack Lighting                      /
//                          1.0.2\Projects\zstack\ZLL\SampleApp\CC253x\..\..\ /
//                          ..\..\..\Components\stack\sec\" -I "D:\Texas      /
//                          Instruments\Z-Stack Lighting                      /
//                          1.0.2\Projects\zstack\ZLL\SampleApp\CC253x\..\..\ /
//                          ..\..\..\Components\stack\sys\" -I "D:\Texas      /
//                          Instruments\Z-Stack Lighting                      /
//                          1.0.2\Projects\zstack\ZLL\SampleApp\CC253x\..\..\ /
//                          ..\..\..\Components\stack\zcl\" -I "D:\Texas      /
//                          Instruments\Z-Stack Lighting                      /
//                          1.0.2\Projects\zstack\ZLL\SampleApp\CC253x\..\..\ /
//                          ..\..\..\Components\stack\zdo\" -I "D:\Texas      /
//                          Instruments\Z-Stack Lighting                      /
//                          1.0.2\Projects\zstack\ZLL\SampleApp\CC253x\..\..\ /
//                          ..\..\..\Components\zmac\" -I "D:\Texas           /
//                          Instruments\Z-Stack Lighting                      /
//                          1.0.2\Projects\zstack\ZLL\SampleApp\CC253x\..\..\ /
//                          ..\..\..\Components\zmac\f8w\" -Ohz               /
//                          --require_prototypes                              /
//    List file          =  D:\Texas Instruments\Z-Stack Lighting             /
//                          1.0.2\Projects\zstack\ZLL\SampleApp\CC253x\Bridge /
//                          EB-Pro\List\zll.s51                               /
//                                                                            /
//                                                                            /
///////////////////////////////////////////////////////////////////////////////

        NAME zll

        RTMODEL "__SystemLibrary", "CLib"
        RTMODEL "__calling_convention", "xdata_reentrant"
        RTMODEL "__code_model", "banked"
        RTMODEL "__core", "plain"
        RTMODEL "__data_model", "large"
        RTMODEL "__dptr_size", "16"
        RTMODEL "__extended_stack", "disabled"
        RTMODEL "__location_for_constants", "data"
        RTMODEL "__number_of_dptrs", "1"
        RTMODEL "__rt_version", "1"

        RSEG DOVERLAY:DATA:NOROOT(0)
        RSEG IOVERLAY:IDATA:NOROOT(0)
        RSEG ISTACK:IDATA:NOROOT(0)
        RSEG PSTACK:XDATA:NOROOT(0)
        RSEG XSTACK:XDATA:NOROOT(0)

        EXTERN ?ALLOC_XSTACK8
        EXTERN ?BANKED_ENTER_XDATA
        EXTERN ?BANKED_LEAVE_XDATA
        EXTERN ?BDISPATCH
        EXTERN ?BRET
        EXTERN ?DEALLOC_XSTACK8
        EXTERN ?L_ADD
        EXTERN ?L_ADD_X
        EXTERN ?L_EQ_X
        EXTERN ?L_MOV_TO_X
        EXTERN ?L_MOV_X
        EXTERN ?L_SHL
        EXTERN ?MOVE_LONG8_XDATA_XDATA
        EXTERN ?PUSH_XSTACK8_X_FOUR
        EXTERN ?PUSH_XSTACK8_X_TWO
        EXTERN ?PUSH_XSTACK_I_FOUR
        EXTERN ?PUSH_XSTACK_I_ONE
        EXTERN ?PUSH_XSTACK_I_THREE
        EXTERN ?PUSH_XSTACK_I_TWO
        EXTERN ?S_SHL
        EXTERN ?UL_SHR
        EXTERN ?US_SWITCH_SPARSE
        EXTERN ?V0
        EXTERN ?XLOAD_R2345
        EXTERN ?XSP
        EXTERN ?XSTACK_DISP0_8
        EXTERN ?XSTORE_R2345
        EXTERN __INIT_XDATA_I
        EXTERN __INIT_XDATA_Z

        FUNCTION ??zll_BeaconIndCB?relay,0203H
        FUNCTION ??zll_BuildAesKey?relay,0203H
        PUBLIC ??zll_ClassicalCommissioningInit?relay
        FUNCTION ??zll_ClassicalCommissioningInit?relay,0203H
        PUBLIC ??zll_ClassicalCommissioningJoinDiscoveredNwk?r
        FUNCTION ??zll_ClassicalCommissioningJoinDiscoveredNwk?r,0203H
        FUNCTION ??zll_ClassicalCommissioningNetworkDisc?relay,0203H
        PUBLIC ??zll_DecryptNwkKey?relay
        FUNCTION ??zll_DecryptNwkKey?relay,0203H
        PUBLIC ??zll_EncryptNwkKey?relay
        FUNCTION ??zll_EncryptNwkKey?relay,0203H
        PUBLIC ??zll_FreeNwkParamList?relay
        FUNCTION ??zll_FreeNwkParamList?relay,0203H
        PUBLIC ??zll_GenerateRandNum?relay
        FUNCTION ??zll_GenerateRandNum?relay,0203H
        PUBLIC ??zll_GetMsgRssi?relay
        FUNCTION ??zll_GetMsgRssi?relay,0203H
        PUBLIC ??zll_GetNumGrpIDs?relay
        FUNCTION ??zll_GetNumGrpIDs?relay,0203H
        PUBLIC ??zll_GetNumSubDevices?relay
        FUNCTION ??zll_GetNumSubDevices?relay,0203H
        PUBLIC ??zll_GetNwkKeyBitmask?relay
        FUNCTION ??zll_GetNwkKeyBitmask?relay,0203H
        PUBLIC ??zll_GetRandPrimaryChannel?relay
        FUNCTION ??zll_GetRandPrimaryChannel?relay,0203H
        PUBLIC ??zll_GetSubDeviceInfo?relay
        FUNCTION ??zll_GetSubDeviceInfo?relay,0203H
        FUNCTION ??zll_InitFreeRanges?relay,0203H
        PUBLIC ??zll_InitVariables?relay
        FUNCTION ??zll_InitVariables?relay,0203H
        PUBLIC ??zll_IsFactoryNew?relay
        FUNCTION ??zll_IsFactoryNew?relay,0203H
        PUBLIC ??zll_IsValidSplitFreeRanges?relay
        FUNCTION ??zll_IsValidSplitFreeRanges?relay,0203H
        PUBLIC ??zll_IsValidTransID?relay
        FUNCTION ??zll_IsValidTransID?relay,0203H
        PUBLIC ??zll_ItemInit?relay
        FUNCTION ??zll_ItemInit?relay,0203H
        PUBLIC ??zll_NewNwkUpdateId?relay
        FUNCTION ??zll_NewNwkUpdateId?relay,0203H
        FUNCTION ??zll_NwkDiscoveryCnfCB?relay,0203H
        PUBLIC ??zll_PerformNetworkDisc?relay
        FUNCTION ??zll_PerformNetworkDisc?relay,0203H
        PUBLIC ??zll_PermitJoin?relay
        FUNCTION ??zll_PermitJoin?relay,0203H
        PUBLIC ??zll_PopGrpIDRange?relay
        FUNCTION ??zll_PopGrpIDRange?relay,0203H
        PUBLIC ??zll_PopNwkAddress?relay
        FUNCTION ??zll_PopNwkAddress?relay,0203H
        PUBLIC ??zll_ProcessNwkUpdate?relay
        FUNCTION ??zll_ProcessNwkUpdate?relay,0203H
        PUBLIC ??zll_RegisterApp?relay
        FUNCTION ??zll_RegisterApp?relay,0203H
        PUBLIC ??zll_RegisterSimpleDesc?relay
        FUNCTION ??zll_RegisterSimpleDesc?relay,0203H
        PUBLIC ??zll_ResetToFactoryNew?relay
        FUNCTION ??zll_ResetToFactoryNew?relay,0203H
        PUBLIC ??zll_RouterProcessZDOMsg?relay
        FUNCTION ??zll_RouterProcessZDOMsg?relay,0203H
        PUBLIC ??zll_SendDeviceInfoRsp?relay
        FUNCTION ??zll_SendDeviceInfoRsp?relay,0203H
        PUBLIC ??zll_SendLeaveReq?relay
        FUNCTION ??zll_SendLeaveReq?relay,0203H
        PUBLIC ??zll_SendScanRsp?relay
        FUNCTION ??zll_SendScanRsp?relay,0203H
        PUBLIC ??zll_SetChannel?relay
        FUNCTION ??zll_SetChannel?relay,0203H
        PUBLIC ??zll_SetMacNwkParams?relay
        FUNCTION ??zll_SetMacNwkParams?relay,0203H
        PUBLIC ??zll_SetNIB?relay
        FUNCTION ??zll_SetNIB?relay,0203H
        FUNCTION ??zll_SetTCLK?relay,0203H
        PUBLIC ??zll_SetZllTaskId?relay
        FUNCTION ??zll_SetZllTaskId?relay,0203H
        PUBLIC ??zll_SplitFreeRanges?relay
        FUNCTION ??zll_SplitFreeRanges?relay,0203H
        PUBLIC ??zll_UpdateFreeRanges?relay
        FUNCTION ??zll_UpdateFreeRanges?relay,0203H
        PUBLIC ??zll_UpdateNV?relay
        FUNCTION ??zll_UpdateNV?relay,0203H
        PUBLIC ??zll_UpdateNwkKey?relay
        FUNCTION ??zll_UpdateNwkKey?relay,0203H
        PUBWEAK __Constant_1
        PUBWEAK __Constant_1f40
        PUBWEAK __Constant_2108800
        PUBWEAK __Constant_5ef7000
        PUBLIC pDiscoveredNwkParamList
        PUBLIC zllGrpIDsBegin
        PUBLIC zllGrpIDsEnd
        PUBLIC zllHAScanInitiated
        PUBLIC zllJoinedHANetwork
        PUBLIC zllLeaveInitiated
        PUBLIC zllResponseID
        PUBLIC zllTransID
        FUNCTION zll_BeaconIndCB,021603H
        ARGFRAME XSTACK, 0, STACK
        LOCFRAME ISTACK, 1, STACK
        LOCFRAME XSTACK, 20, STACK
        FUNCTION zll_BuildAesKey,0203H
        ARGFRAME XSTACK, 99, STACK
        ARGFRAME IOVERLAY, 0, STATIC
        ARGFRAME DOVERLAY, 0, STATIC
        LOCFRAME ISTACK, 1, STACK
        LOCFRAME XSTACK, 21, STACK
        PUBLIC zll_ClassicalCommissioningInit
        FUNCTION zll_ClassicalCommissioningInit,021203H
        ARGFRAME XSTACK, 0, STACK
        LOCFRAME ISTACK, 2, STACK
        PUBLIC zll_ClassicalCommissioningJoinDiscoveredNwk
        FUNCTION zll_ClassicalCommissioningJoinDiscoveredNwk,021203H
        ARGFRAME XSTACK, 0, STACK
        LOCFRAME XSTACK, 13, STACK
        FUNCTION zll_ClassicalCommissioningNetworkDisc,021203H
        ARGFRAME XSTACK, 0, STACK
        ARGFRAME IOVERLAY, 0, STATIC
        ARGFRAME DOVERLAY, 0, STATIC
        LOCFRAME ISTACK, 2, STACK
        PUBLIC zll_DecryptNwkKey
        FUNCTION zll_DecryptNwkKey,021203H
        ARGFRAME XSTACK, 8, STACK
        LOCFRAME ISTACK, 2, STACK
        LOCFRAME XSTACK, 75, STACK
        PUBLIC zll_EncryptNwkKey
        FUNCTION zll_EncryptNwkKey,021203H
        ARGFRAME XSTACK, 8, STACK
        LOCFRAME ISTACK, 2, STACK
        LOCFRAME XSTACK, 99, STACK
        PUBLIC zll_FreeNwkParamList
        FUNCTION zll_FreeNwkParamList,021203H
        ARGFRAME XSTACK, 9, STACK
        ARGFRAME IOVERLAY, 0, STATIC
        ARGFRAME DOVERLAY, 0, STATIC
        LOCFRAME XSTACK, 9, STACK
        PUBLIC zll_GenerateRandNum
        FUNCTION zll_GenerateRandNum,021203H
        ARGFRAME XSTACK, 91, STACK
        ARGFRAME IOVERLAY, 0, STATIC
        ARGFRAME DOVERLAY, 0, STATIC
        LOCFRAME ISTACK, 1, STACK
        LOCFRAME XSTACK, 13, STACK
        PUBLIC zll_GetMsgRssi
        FUNCTION zll_GetMsgRssi,021203H
        ARGFRAME XSTACK, 0, STACK
        LOCFRAME XSTACK, 10, STACK
        PUBLIC zll_GetNumGrpIDs
        FUNCTION zll_GetNumGrpIDs,0203H
        ARGFRAME XSTACK, 22, STACK
        ARGFRAME IOVERLAY, 0, STATIC
        ARGFRAME DOVERLAY, 0, STATIC
        LOCFRAME ISTACK, 2, STACK
        PUBLIC zll_GetNumSubDevices
        FUNCTION zll_GetNumSubDevices,0203H
        ARGFRAME XSTACK, 22, STACK
        ARGFRAME IOVERLAY, 0, STATIC
        ARGFRAME DOVERLAY, 0, STATIC
        LOCFRAME ISTACK, 2, STACK
        PUBLIC zll_GetNwkKeyBitmask
        FUNCTION zll_GetNwkKeyBitmask,0203H
        ARGFRAME XSTACK, 0, STACK
        PUBLIC zll_GetRandPrimaryChannel
        FUNCTION zll_GetRandPrimaryChannel,021203H
        ARGFRAME XSTACK, 0, STACK
        LOCFRAME ISTACK, 2, STACK
        PUBLIC zll_GetSubDeviceInfo
        FUNCTION zll_GetSubDeviceInfo,021203H
        ARGFRAME XSTACK, 22, STACK
        ARGFRAME IOVERLAY, 0, STATIC
        ARGFRAME DOVERLAY, 0, STATIC
        LOCFRAME XSTACK, 14, STACK
        FUNCTION zll_InitFreeRanges,0203H
        ARGFRAME XSTACK, 10, STACK
        ARGFRAME IOVERLAY, 0, STATIC
        ARGFRAME DOVERLAY, 0, STATIC
        LOCFRAME ISTACK, 2, STACK
        PUBLIC zll_InitVariables
        FUNCTION zll_InitVariables,021203H
        ARGFRAME XSTACK, 0, STACK
        LOCFRAME XSTACK, 14, STACK
        PUBLIC zll_IsFactoryNew
        FUNCTION zll_IsFactoryNew,021203H
        ARGFRAME XSTACK, 91, STACK
        ARGFRAME IOVERLAY, 0, STATIC
        ARGFRAME DOVERLAY, 0, STATIC
        LOCFRAME XSTACK, 16, STACK
        PUBLIC zll_IsValidSplitFreeRanges
        FUNCTION zll_IsValidSplitFreeRanges,0203H
        ARGFRAME XSTACK, 22, STACK
        ARGFRAME IOVERLAY, 0, STATIC
        ARGFRAME DOVERLAY, 0, STATIC
        LOCFRAME ISTACK, 2, STACK
        LOCFRAME XSTACK, 10, STACK
        PUBLIC zll_IsValidTransID
        FUNCTION zll_IsValidTransID,0203H
        ARGFRAME XSTACK, 0, STACK
        LOCFRAME XSTACK, 16, STACK
        PUBLIC zll_ItemInit
        FUNCTION zll_ItemInit,021203H
        ARGFRAME XSTACK, 12, STACK
        ARGFRAME IOVERLAY, 0, STATIC
        ARGFRAME DOVERLAY, 0, STATIC
        LOCFRAME XSTACK, 16, STACK
        PUBLIC zll_NewNwkUpdateId
        FUNCTION zll_NewNwkUpdateId,0203H
        ARGFRAME XSTACK, 0, STACK
        LOCFRAME XSTACK, 9, STACK
        FUNCTION zll_NwkDiscoveryCnfCB,021603H
        ARGFRAME XSTACK, 0, STACK
        LOCFRAME ISTACK, 2, STACK
        PUBLIC zll_PerformNetworkDisc
        FUNCTION zll_PerformNetworkDisc,021203H
        ARGFRAME XSTACK, 0, STACK
        ARGFRAME IOVERLAY, 0, STATIC
        ARGFRAME DOVERLAY, 0, STATIC
        LOCFRAME XSTACK, 19, STACK
        PUBLIC zll_PermitJoin
        FUNCTION zll_PermitJoin,021203H
        ARGFRAME XSTACK, 0, STACK
        LOCFRAME XSTACK, 9, STACK
        PUBLIC zll_PopGrpIDRange
        FUNCTION zll_PopGrpIDRange,0203H
        ARGFRAME XSTACK, 0, STACK
        LOCFRAME ISTACK, 2, STACK
        LOCFRAME XSTACK, 10, STACK
        PUBLIC zll_PopNwkAddress
        FUNCTION zll_PopNwkAddress,0203H
        ARGFRAME XSTACK, 0, STACK
        LOCFRAME ISTACK, 4, STACK
        PUBLIC zll_ProcessNwkUpdate
        FUNCTION zll_ProcessNwkUpdate,021203H
        ARGFRAME XSTACK, 0, STACK
        LOCFRAME XSTACK, 12, STACK
        PUBLIC zll_RegisterApp
        FUNCTION zll_RegisterApp,021203H
        ARGFRAME XSTACK, 0, STACK
        LOCFRAME XSTACK, 10, STACK
        PUBLIC zll_RegisterSimpleDesc
        FUNCTION zll_RegisterSimpleDesc,021203H
        ARGFRAME XSTACK, 10, STACK
        ARGFRAME IOVERLAY, 0, STATIC
        ARGFRAME DOVERLAY, 0, STATIC
        LOCFRAME ISTACK, 1, STACK
        LOCFRAME XSTACK, 10, STACK
        PUBLIC zll_ResetToFactoryNew
        FUNCTION zll_ResetToFactoryNew,021203H
        ARGFRAME XSTACK, 0, STACK
        LOCFRAME XSTACK, 9, STACK
        PUBLIC zll_RouterProcessZDOMsg
        FUNCTION zll_RouterProcessZDOMsg,0a1203H
        ARGFRAME XSTACK, 0, STACK
        LOCFRAME ISTACK, 1, STACK
        LOCFRAME XSTACK, 27, STACK
        PUBLIC zll_SendDeviceInfoRsp
        FUNCTION zll_SendDeviceInfoRsp,021203H
        ARGFRAME XSTACK, 4, STACK
        LOCFRAME ISTACK, 1, STACK
        LOCFRAME XSTACK, 21, STACK
        PUBLIC zll_SendLeaveReq
        FUNCTION zll_SendLeaveReq,021203H
        ARGFRAME XSTACK, 9, STACK
        ARGFRAME IOVERLAY, 0, STATIC
        ARGFRAME DOVERLAY, 0, STATIC
        LOCFRAME ISTACK, 2, STACK
        LOCFRAME XSTACK, 5, STACK
        PUBLIC zll_SendScanRsp
        FUNCTION zll_SendScanRsp,021203H
        ARGFRAME XSTACK, 4, STACK
        LOCFRAME ISTACK, 1, STACK
        LOCFRAME XSTACK, 26, STACK
        PUBLIC zll_SetChannel
        FUNCTION zll_SetChannel,021203H
        ARGFRAME XSTACK, 13, STACK
        ARGFRAME IOVERLAY, 0, STATIC
        ARGFRAME DOVERLAY, 0, STATIC
        LOCFRAME ISTACK, 3, STACK
        LOCFRAME XSTACK, 2, STACK
        PUBLIC zll_SetMacNwkParams
        FUNCTION zll_SetMacNwkParams,021203H
        ARGFRAME XSTACK, 0, STACK
        LOCFRAME XSTACK, 13, STACK
        PUBLIC zll_SetNIB
        FUNCTION zll_SetNIB,021203H
        ARGFRAME XSTACK, 4, STACK
        LOCFRAME XSTACK, 13, STACK
        FUNCTION zll_SetTCLK,021203H
        ARGFRAME XSTACK, 10, STACK
        ARGFRAME IOVERLAY, 0, STATIC
        ARGFRAME DOVERLAY, 0, STATIC
        LOCFRAME ISTACK, 2, STACK
        LOCFRAME XSTACK, 63, STACK
        PUBLIC zll_SetZllTaskId
        FUNCTION zll_SetZllTaskId,021203H
        ARGFRAME XSTACK, 0, STACK
        LOCFRAME XSTACK, 9, STACK
        PUBLIC zll_SplitFreeRanges
        FUNCTION zll_SplitFreeRanges,0203H
        ARGFRAME XSTACK, 4, STACK
        LOCFRAME XSTACK, 18, STACK
        PUBLIC zll_UpdateFreeRanges
        FUNCTION zll_UpdateFreeRanges,0203H
        ARGFRAME XSTACK, 0, STACK
        LOCFRAME ISTACK, 2, STACK
        PUBLIC zll_UpdateNV
        FUNCTION zll_UpdateNV,021203H
        ARGFRAME XSTACK, 13, STACK
        ARGFRAME IOVERLAY, 0, STATIC
        ARGFRAME DOVERLAY, 0, STATIC
        LOCFRAME XSTACK, 14, STACK
        PUBLIC zll_UpdateNwkKey
        FUNCTION zll_UpdateNwkKey,021203H
        ARGFRAME XSTACK, 67, STACK
        ARGFRAME IOVERLAY, 0, STATIC
        ARGFRAME DOVERLAY, 0, STATIC
        LOCFRAME XSTACK, 12, STACK
        
          CFI Names cfiNames0
          CFI StackFrame CFA_SP SP IDATA
          CFI StackFrame CFA_PSP16 PSP16 XDATA
          CFI StackFrame CFA_XSP16 XSP16 XDATA
          CFI StaticOverlayFrame CFA_IOVERLAY IOVERLAY
          CFI StaticOverlayFrame CFA_DOVERLAY DOVERLAY
          CFI Resource `PSW.CY`:1, `B.BR0`:1, `B.BR1`:1, `B.BR2`:1, `B.BR3`:1
          CFI Resource `B.BR4`:1, `B.BR5`:1, `B.BR6`:1, `B.BR7`:1, `VB.BR8`:1
          CFI Resource `VB.BR9`:1, `VB.BR10`:1, `VB.BR11`:1, `VB.BR12`:1
          CFI Resource `VB.BR13`:1, `VB.BR14`:1, `VB.BR15`:1, VB:8, B:8, A:8
          CFI Resource PSW:8, DPL0:8, DPH0:8, R0:8, R1:8, R2:8, R3:8, R4:8, R5:8
          CFI Resource R6:8, R7:8, V0:8, V1:8, V2:8, V3:8, V4:8, V5:8, V6:8, V7:8
          CFI Resource V8:8, V9:8, V10:8, V11:8, V12:8, V13:8, V14:8, V15:8, SP:8
          CFI Resource PSPH:8, PSPL:8, PSP16:16, XSPH:8, XSPL:8, XSP16:16
          CFI VirtualResource ?RET:24
          CFI Resource ?BRET_EXT:8
          CFI VirtualResource ?RET_HIGH:8, ?RET_LOW:8
          CFI ResourceParts PSP16 PSPH, PSPL
          CFI ResourceParts XSP16 XSPH, XSPL
          CFI ResourceParts ?RET ?BRET_EXT, ?RET_HIGH, ?RET_LOW
          CFI EndNames cfiNames0
        
          CFI Common cfiCommon0 Using cfiNames0
          CFI CodeAlign 1
          CFI DataAlign -1
          CFI ReturnAddress ?RET CODE
          CFI CFA_DOVERLAY Used
          CFI CFA_IOVERLAY Used
          CFI CFA_SP SP+-3
          CFI CFA_PSP16 PSP16+0
          CFI CFA_XSP16 XSP16+0
          CFI `PSW.CY` SameValue
          CFI `B.BR0` SameValue
          CFI `B.BR1` SameValue
          CFI `B.BR2` SameValue
          CFI `B.BR3` SameValue
          CFI `B.BR4` SameValue
          CFI `B.BR5` SameValue
          CFI `B.BR6` SameValue
          CFI `B.BR7` SameValue
          CFI `VB.BR8` SameValue
          CFI `VB.BR9` SameValue
          CFI `VB.BR10` SameValue
          CFI `VB.BR11` SameValue
          CFI `VB.BR12` SameValue
          CFI `VB.BR13` SameValue
          CFI `VB.BR14` SameValue
          CFI `VB.BR15` SameValue
          CFI VB SameValue
          CFI B Undefined
          CFI A Undefined
          CFI PSW SameValue
          CFI DPL0 SameValue
          CFI DPH0 SameValue
          CFI R0 Undefined
          CFI R1 Undefined
          CFI R2 Undefined
          CFI R3 Undefined
          CFI R4 Undefined
          CFI R5 Undefined
          CFI R6 SameValue
          CFI R7 SameValue
          CFI V0 SameValue
          CFI V1 SameValue
          CFI V2 SameValue
          CFI V3 SameValue
          CFI V4 SameValue
          CFI V5 SameValue
          CFI V6 SameValue
          CFI V7 SameValue
          CFI V8 SameValue
          CFI V9 SameValue
          CFI V10 SameValue
          CFI V11 SameValue
          CFI V12 SameValue
          CFI V13 SameValue
          CFI V14 SameValue
          CFI V15 SameValue
          CFI PSPH Undefined
          CFI PSPL Undefined
          CFI XSPH Undefined
          CFI XSPL Undefined
          CFI ?RET Concat
          CFI ?BRET_EXT Frame(CFA_SP, 3)
          CFI ?RET_HIGH Frame(CFA_SP, 2)
          CFI ?RET_LOW Frame(CFA_SP, 1)
          CFI EndCommon cfiCommon0
        
        
          CFI Common cfiCommon1 Using cfiNames0
          CFI CodeAlign 1
          CFI DataAlign -1
          CFI ReturnAddress ?RET CODE
          CFI CFA_DOVERLAY Used
          CFI CFA_IOVERLAY Used
          CFI CFA_SP SP+-2
          CFI CFA_PSP16 PSP16+0
          CFI CFA_XSP16 XSP16+0
          CFI `PSW.CY` SameValue
          CFI `B.BR0` SameValue
          CFI `B.BR1` SameValue
          CFI `B.BR2` SameValue
          CFI `B.BR3` SameValue
          CFI `B.BR4` SameValue
          CFI `B.BR5` SameValue
          CFI `B.BR6` SameValue
          CFI `B.BR7` SameValue
          CFI `VB.BR8` SameValue
          CFI `VB.BR9` SameValue
          CFI `VB.BR10` SameValue
          CFI `VB.BR11` SameValue
          CFI `VB.BR12` SameValue
          CFI `VB.BR13` SameValue
          CFI `VB.BR14` SameValue
          CFI `VB.BR15` SameValue
          CFI VB SameValue
          CFI B SameValue
          CFI A SameValue
          CFI PSW SameValue
          CFI DPL0 SameValue
          CFI DPH0 SameValue
          CFI R0 SameValue
          CFI R1 SameValue
          CFI R2 SameValue
          CFI R3 SameValue
          CFI R4 SameValue
          CFI R5 SameValue
          CFI R6 SameValue
          CFI R7 SameValue
          CFI V0 SameValue
          CFI V1 SameValue
          CFI V2 SameValue
          CFI V3 SameValue
          CFI V4 SameValue
          CFI V5 SameValue
          CFI V6 SameValue
          CFI V7 SameValue
          CFI V8 SameValue
          CFI V9 SameValue
          CFI V10 SameValue
          CFI V11 SameValue
          CFI V12 SameValue
          CFI V13 SameValue
          CFI V14 SameValue
          CFI V15 SameValue
          CFI PSPH Undefined
          CFI PSPL Undefined
          CFI XSPH Undefined
          CFI XSPL Undefined
          CFI ?RET Concat
          CFI ?BRET_EXT SameValue
          CFI ?RET_HIGH Frame(CFA_SP, 2)
          CFI ?RET_LOW Frame(CFA_SP, 1)
          CFI EndCommon cfiCommon1
        
APSME_IsDistributedSecurity SYMBOL "APSME_IsDistributedSecurity"
??APSME_IsDistributedSecurity?relay SYMBOL "?relay", APSME_IsDistributedSecurity
AssocCount          SYMBOL "AssocCount"
??AssocCount?relay  SYMBOL "?relay", AssocCount
NLME_GetExtAddr     SYMBOL "NLME_GetExtAddr"
??NLME_GetExtAddr?relay SYMBOL "?relay", NLME_GetExtAddr
NLME_JoinRequest    SYMBOL "NLME_JoinRequest"
??NLME_JoinRequest?relay SYMBOL "?relay", NLME_JoinRequest
NLME_LeaveReq       SYMBOL "NLME_LeaveReq"
??NLME_LeaveReq?relay SYMBOL "?relay", NLME_LeaveReq
NLME_NwkDiscReq2    SYMBOL "NLME_NwkDiscReq2"
??NLME_NwkDiscReq2?relay SYMBOL "?relay", NLME_NwkDiscReq2
NLME_NwkDiscTerm    SYMBOL "NLME_NwkDiscTerm"
??NLME_NwkDiscTerm?relay SYMBOL "?relay", NLME_NwkDiscTerm
NLME_PermitJoiningRequest SYMBOL "NLME_PermitJoiningRequest"
??NLME_PermitJoiningRequest?relay SYMBOL "?relay", NLME_PermitJoiningRequest
NLME_SetBroadcastFilter SYMBOL "NLME_SetBroadcastFilter"
??NLME_SetBroadcastFilter?relay SYMBOL "?relay", NLME_SetBroadcastFilter
NLME_SetUpdateID    SYMBOL "NLME_SetUpdateID"
??NLME_SetUpdateID?relay SYMBOL "?relay", NLME_SetUpdateID
NLME_UpdateLinkStatus SYMBOL "NLME_UpdateLinkStatus"
??NLME_UpdateLinkStatus?relay SYMBOL "?relay", NLME_UpdateLinkStatus
SSP_ReadNwkActiveKey SYMBOL "SSP_ReadNwkActiveKey"
??SSP_ReadNwkActiveKey?relay SYMBOL "?relay", SSP_ReadNwkActiveKey
SSP_SwitchNwkKey    SYMBOL "SSP_SwitchNwkKey"
??SSP_SwitchNwkKey?relay SYMBOL "?relay", SSP_SwitchNwkKey
SSP_UpdateNwkKey    SYMBOL "SSP_UpdateNwkKey"
??SSP_UpdateNwkKey?relay SYMBOL "?relay", SSP_UpdateNwkKey
StubAPS_RegisterApp SYMBOL "StubAPS_RegisterApp"
??StubAPS_RegisterApp?relay SYMBOL "?relay", StubAPS_RegisterApp
ZDApp_LeaveCtrlReset SYMBOL "ZDApp_LeaveCtrlReset"
??ZDApp_LeaveCtrlReset?relay SYMBOL "?relay", ZDApp_LeaveCtrlReset
ZDApp_LeaveReset    SYMBOL "ZDApp_LeaveReset"
??ZDApp_LeaveReset?relay SYMBOL "?relay", ZDApp_LeaveReset
ZDApp_NwkStateUpdateCB SYMBOL "ZDApp_NwkStateUpdateCB"
??ZDApp_NwkStateUpdateCB?relay SYMBOL "?relay", ZDApp_NwkStateUpdateCB
ZDApp_ResetNwkKey   SYMBOL "ZDApp_ResetNwkKey"
??ZDApp_ResetNwkKey?relay SYMBOL "?relay", ZDApp_ResetNwkKey
ZDApp_SaveNwkKey    SYMBOL "ZDApp_SaveNwkKey"
??ZDApp_SaveNwkKey?relay SYMBOL "?relay", ZDApp_SaveNwkKey
ZDO_DeregisterForZdoCB SYMBOL "ZDO_DeregisterForZdoCB"
??ZDO_DeregisterForZdoCB?relay SYMBOL "?relay", ZDO_DeregisterForZdoCB
ZDO_ParseDeviceAnnce SYMBOL "ZDO_ParseDeviceAnnce"
??ZDO_ParseDeviceAnnce?relay SYMBOL "?relay", ZDO_ParseDeviceAnnce
ZDO_RegisterForZdoCB SYMBOL "ZDO_RegisterForZdoCB"
??ZDO_RegisterForZdoCB?relay SYMBOL "?relay", ZDO_RegisterForZdoCB
ZDP_SendData        SYMBOL "ZDP_SendData"
??ZDP_SendData?relay SYMBOL "?relay", ZDP_SendData
ZDSecMgrUpdateTCAddress SYMBOL "ZDSecMgrUpdateTCAddress"
??ZDSecMgrUpdateTCAddress?relay SYMBOL "?relay", ZDSecMgrUpdateTCAddress
ZMacGetReq          SYMBOL "ZMacGetReq"
??ZMacGetReq?relay  SYMBOL "?relay", ZMacGetReq
ZMacSetReq          SYMBOL "ZMacSetReq"
??ZMacSetReq?relay  SYMBOL "?relay", ZMacSetReq
afFindEndPointDesc  SYMBOL "afFindEndPointDesc"
??afFindEndPointDesc?relay SYMBOL "?relay", afFindEndPointDesc
afRegister          SYMBOL "afRegister"
??afRegister?relay  SYMBOL "?relay", afRegister
nwkNeighborAdd      SYMBOL "nwkNeighborAdd"
??nwkNeighborAdd?relay SYMBOL "?relay", nwkNeighborAdd
nwkNeighborGetLinkInfo SYMBOL "nwkNeighborGetLinkInfo"
??nwkNeighborGetLinkInfo?relay SYMBOL "?relay", nwkNeighborGetLinkInfo
nwkTransmissionFailures SYMBOL "nwkTransmissionFailures"
??nwkTransmissionFailures?relay SYMBOL "?relay", nwkTransmissionFailures
osal_mem_alloc      SYMBOL "osal_mem_alloc"
??osal_mem_alloc?relay SYMBOL "?relay", osal_mem_alloc
osal_mem_free       SYMBOL "osal_mem_free"
??osal_mem_free?relay SYMBOL "?relay", osal_mem_free
osal_memcpy         SYMBOL "osal_memcpy"
??osal_memcpy?relay SYMBOL "?relay", osal_memcpy
osal_memset         SYMBOL "osal_memset"
??osal_memset?relay SYMBOL "?relay", osal_memset
osal_nv_item_init   SYMBOL "osal_nv_item_init"
??osal_nv_item_init?relay SYMBOL "?relay", osal_nv_item_init
osal_nv_read        SYMBOL "osal_nv_read"
??osal_nv_read?relay SYMBOL "?relay", osal_nv_read
osal_nv_write       SYMBOL "osal_nv_write"
??osal_nv_write?relay SYMBOL "?relay", osal_nv_write
osal_rand           SYMBOL "osal_rand"
??osal_rand?relay   SYMBOL "?relay", osal_rand
osal_set_event      SYMBOL "osal_set_event"
??osal_set_event?relay SYMBOL "?relay", osal_set_event
osal_start_timerEx  SYMBOL "osal_start_timerEx"
??osal_start_timerEx?relay SYMBOL "?relay", osal_start_timerEx
osal_stop_timerEx   SYMBOL "osal_stop_timerEx"
??osal_stop_timerEx?relay SYMBOL "?relay", osal_stop_timerEx
sAddrExtCpy         SYMBOL "sAddrExtCpy"
??sAddrExtCpy?relay SYMBOL "?relay", sAddrExtCpy
sspAesDecrypt       SYMBOL "sspAesDecrypt"
??sspAesDecrypt?relay SYMBOL "?relay", sspAesDecrypt
sspAesEncrypt       SYMBOL "sspAesEncrypt"
??sspAesEncrypt?relay SYMBOL "?relay", sspAesEncrypt
zclLL_Send_DeviceInfoRsp SYMBOL "zclLL_Send_DeviceInfoRsp"
??zclLL_Send_DeviceInfoRsp?relay SYMBOL "?relay", zclLL_Send_DeviceInfoRsp
zclLL_Send_ScanRsp  SYMBOL "zclLL_Send_ScanRsp"
??zclLL_Send_ScanRsp?relay SYMBOL "?relay", zclLL_Send_ScanRsp
zcl_getRawAFMsg     SYMBOL "zcl_getRawAFMsg"
??zcl_getRawAFMsg?relay SYMBOL "?relay", zcl_getRawAFMsg
zgWriteStartupOptions SYMBOL "zgWriteStartupOptions"
??zgWriteStartupOptions?relay SYMBOL "?relay", zgWriteStartupOptions
zll_ClassicalCommissioningInit SYMBOL "zll_ClassicalCommissioningInit"
??zll_ClassicalCommissioningInit?relay SYMBOL "?relay", zll_ClassicalCommissioningInit
zll_ClassicalCommissioningJoinDiscoveredNwk SYMBOL "zll_ClassicalCommissioningJoinDiscoveredNwk"
??zll_ClassicalCommissioningJoinDiscoveredNwk?r SYMBOL "?relay", zll_ClassicalCommissioningJoinDiscoveredNwk
zll_DecryptNwkKey   SYMBOL "zll_DecryptNwkKey"
??zll_DecryptNwkKey?relay SYMBOL "?relay", zll_DecryptNwkKey
zll_EncryptNwkKey   SYMBOL "zll_EncryptNwkKey"
??zll_EncryptNwkKey?relay SYMBOL "?relay", zll_EncryptNwkKey
zll_FreeNwkParamList SYMBOL "zll_FreeNwkParamList"
??zll_FreeNwkParamList?relay SYMBOL "?relay", zll_FreeNwkParamList
zll_GenerateRandNum SYMBOL "zll_GenerateRandNum"
??zll_GenerateRandNum?relay SYMBOL "?relay", zll_GenerateRandNum
zll_GetMsgRssi      SYMBOL "zll_GetMsgRssi"
??zll_GetMsgRssi?relay SYMBOL "?relay", zll_GetMsgRssi
zll_GetNumGrpIDs    SYMBOL "zll_GetNumGrpIDs"
??zll_GetNumGrpIDs?relay SYMBOL "?relay", zll_GetNumGrpIDs
zll_GetNumSubDevices SYMBOL "zll_GetNumSubDevices"
??zll_GetNumSubDevices?relay SYMBOL "?relay", zll_GetNumSubDevices
zll_GetNwkKeyBitmask SYMBOL "zll_GetNwkKeyBitmask"
??zll_GetNwkKeyBitmask?relay SYMBOL "?relay", zll_GetNwkKeyBitmask
zll_GetRandPrimaryChannel SYMBOL "zll_GetRandPrimaryChannel"
??zll_GetRandPrimaryChannel?relay SYMBOL "?relay", zll_GetRandPrimaryChannel
zll_GetSubDeviceInfo SYMBOL "zll_GetSubDeviceInfo"
??zll_GetSubDeviceInfo?relay SYMBOL "?relay", zll_GetSubDeviceInfo
zll_InitVariables   SYMBOL "zll_InitVariables"
??zll_InitVariables?relay SYMBOL "?relay", zll_InitVariables
zll_IsFactoryNew    SYMBOL "zll_IsFactoryNew"
??zll_IsFactoryNew?relay SYMBOL "?relay", zll_IsFactoryNew
zll_IsValidSplitFreeRanges SYMBOL "zll_IsValidSplitFreeRanges"
??zll_IsValidSplitFreeRanges?relay SYMBOL "?relay", zll_IsValidSplitFreeRanges
zll_IsValidTransID  SYMBOL "zll_IsValidTransID"
??zll_IsValidTransID?relay SYMBOL "?relay", zll_IsValidTransID
zll_ItemInit        SYMBOL "zll_ItemInit"
??zll_ItemInit?relay SYMBOL "?relay", zll_ItemInit
zll_NewNwkUpdateId  SYMBOL "zll_NewNwkUpdateId"
??zll_NewNwkUpdateId?relay SYMBOL "?relay", zll_NewNwkUpdateId
zll_PerformNetworkDisc SYMBOL "zll_PerformNetworkDisc"
??zll_PerformNetworkDisc?relay SYMBOL "?relay", zll_PerformNetworkDisc
zll_PermitJoin      SYMBOL "zll_PermitJoin"
??zll_PermitJoin?relay SYMBOL "?relay", zll_PermitJoin
zll_PopGrpIDRange   SYMBOL "zll_PopGrpIDRange"
??zll_PopGrpIDRange?relay SYMBOL "?relay", zll_PopGrpIDRange
zll_PopNwkAddress   SYMBOL "zll_PopNwkAddress"
??zll_PopNwkAddress?relay SYMBOL "?relay", zll_PopNwkAddress
zll_ProcessNwkUpdate SYMBOL "zll_ProcessNwkUpdate"
??zll_ProcessNwkUpdate?relay SYMBOL "?relay", zll_ProcessNwkUpdate
zll_RegisterApp     SYMBOL "zll_RegisterApp"
??zll_RegisterApp?relay SYMBOL "?relay", zll_RegisterApp
zll_RegisterSimpleDesc SYMBOL "zll_RegisterSimpleDesc"
??zll_RegisterSimpleDesc?relay SYMBOL "?relay", zll_RegisterSimpleDesc
zll_ResetToFactoryNew SYMBOL "zll_ResetToFactoryNew"
??zll_ResetToFactoryNew?relay SYMBOL "?relay", zll_ResetToFactoryNew
zll_RouterProcessZDOMsg SYMBOL "zll_RouterProcessZDOMsg"
??zll_RouterProcessZDOMsg?relay SYMBOL "?relay", zll_RouterProcessZDOMsg
zll_SendDeviceInfoRsp SYMBOL "zll_SendDeviceInfoRsp"
??zll_SendDeviceInfoRsp?relay SYMBOL "?relay", zll_SendDeviceInfoRsp
zll_SendLeaveReq    SYMBOL "zll_SendLeaveReq"
??zll_SendLeaveReq?relay SYMBOL "?relay", zll_SendLeaveReq
zll_SendScanRsp     SYMBOL "zll_SendScanRsp"
??zll_SendScanRsp?relay SYMBOL "?relay", zll_SendScanRsp
zll_SetChannel      SYMBOL "zll_SetChannel"
??zll_SetChannel?relay SYMBOL "?relay", zll_SetChannel
zll_SetMacNwkParams SYMBOL "zll_SetMacNwkParams"
??zll_SetMacNwkParams?relay SYMBOL "?relay", zll_SetMacNwkParams
zll_SetNIB          SYMBOL "zll_SetNIB"
??zll_SetNIB?relay  SYMBOL "?relay", zll_SetNIB
zll_SetZllTaskId    SYMBOL "zll_SetZllTaskId"
??zll_SetZllTaskId?relay SYMBOL "?relay", zll_SetZllTaskId
zll_SplitFreeRanges SYMBOL "zll_SplitFreeRanges"
??zll_SplitFreeRanges?relay SYMBOL "?relay", zll_SplitFreeRanges
zll_UpdateFreeRanges SYMBOL "zll_UpdateFreeRanges"
??zll_UpdateFreeRanges?relay SYMBOL "?relay", zll_UpdateFreeRanges
zll_UpdateNV        SYMBOL "zll_UpdateNV"
??zll_UpdateNV?relay SYMBOL "?relay", zll_UpdateNV
zll_UpdateNwkKey    SYMBOL "zll_UpdateNwkKey"
??zll_UpdateNwkKey?relay SYMBOL "?relay", zll_UpdateNwkKey

        EXTERN ??APSME_IsDistributedSecurity?relay
        FUNCTION ??APSME_IsDistributedSecurity?relay,00H
        EXTERN ??AssocCount?relay
        FUNCTION ??AssocCount?relay,00H
        EXTERN ??NLME_GetExtAddr?relay
        FUNCTION ??NLME_GetExtAddr?relay,00H
        EXTERN ??NLME_JoinRequest?relay
        FUNCTION ??NLME_JoinRequest?relay,00H
        EXTERN ??NLME_LeaveReq?relay
        FUNCTION ??NLME_LeaveReq?relay,00H
        EXTERN ??NLME_NwkDiscReq2?relay
        FUNCTION ??NLME_NwkDiscReq2?relay,00H
        EXTERN ??NLME_NwkDiscTerm?relay
        FUNCTION ??NLME_NwkDiscTerm?relay,00H
        EXTERN ??NLME_PermitJoiningRequest?relay
        FUNCTION ??NLME_PermitJoiningRequest?relay,00H
        EXTERN ??NLME_SetBroadcastFilter?relay
        FUNCTION ??NLME_SetBroadcastFilter?relay,00H
        EXTERN ??NLME_SetUpdateID?relay
        FUNCTION ??NLME_SetUpdateID?relay,00H
        EXTERN ??NLME_UpdateLinkStatus?relay
        FUNCTION ??NLME_UpdateLinkStatus?relay,00H
        EXTERN ??SSP_ReadNwkActiveKey?relay
        FUNCTION ??SSP_ReadNwkActiveKey?relay,00H
        EXTERN ??SSP_SwitchNwkKey?relay
        FUNCTION ??SSP_SwitchNwkKey?relay,00H
        EXTERN ??SSP_UpdateNwkKey?relay
        FUNCTION ??SSP_UpdateNwkKey?relay,00H
        EXTERN ??StubAPS_RegisterApp?relay
        FUNCTION ??StubAPS_RegisterApp?relay,00H
        EXTERN ??ZDApp_LeaveCtrlReset?relay
        FUNCTION ??ZDApp_LeaveCtrlReset?relay,00H
        EXTERN ??ZDApp_LeaveReset?relay
        FUNCTION ??ZDApp_LeaveReset?relay,00H
        EXTERN ??ZDApp_NwkStateUpdateCB?relay
        FUNCTION ??ZDApp_NwkStateUpdateCB?relay,00H
        EXTERN ??ZDApp_ResetNwkKey?relay
        FUNCTION ??ZDApp_ResetNwkKey?relay,00H
        EXTERN ??ZDApp_SaveNwkKey?relay
        FUNCTION ??ZDApp_SaveNwkKey?relay,00H
        EXTERN ??ZDO_DeregisterForZdoCB?relay
        FUNCTION ??ZDO_DeregisterForZdoCB?relay,00H
        EXTERN ??ZDO_ParseDeviceAnnce?relay
        FUNCTION ??ZDO_ParseDeviceAnnce?relay,00H
        EXTERN ??ZDO_RegisterForZdoCB?relay
        FUNCTION ??ZDO_RegisterForZdoCB?relay,00H
        EXTERN ??ZDP_SendData?relay
        FUNCTION ??ZDP_SendData?relay,00H
        EXTERN ??ZDSecMgrUpdateTCAddress?relay
        FUNCTION ??ZDSecMgrUpdateTCAddress?relay,00H
        EXTERN ??ZMacGetReq?relay
        FUNCTION ??ZMacGetReq?relay,00H
        EXTERN ??ZMacSetReq?relay
        FUNCTION ??ZMacSetReq?relay,00H
        EXTERN ??afFindEndPointDesc?relay
        FUNCTION ??afFindEndPointDesc?relay,00H
        EXTERN ??afRegister?relay
        FUNCTION ??afRegister?relay,00H
        EXTERN ??nwkNeighborAdd?relay
        FUNCTION ??nwkNeighborAdd?relay,00H
        EXTERN ??nwkNeighborGetLinkInfo?relay
        FUNCTION ??nwkNeighborGetLinkInfo?relay,00H
        EXTERN ??nwkTransmissionFailures?relay
        FUNCTION ??nwkTransmissionFailures?relay,00H
        EXTERN ??osal_mem_alloc?relay
        FUNCTION ??osal_mem_alloc?relay,00H
        EXTERN ??osal_mem_free?relay
        FUNCTION ??osal_mem_free?relay,00H
        EXTERN ??osal_memcpy?relay
        FUNCTION ??osal_memcpy?relay,00H
        EXTERN ??osal_memset?relay
        FUNCTION ??osal_memset?relay,00H
        EXTERN ??osal_nv_item_init?relay
        FUNCTION ??osal_nv_item_init?relay,00H
        EXTERN ??osal_nv_read?relay
        FUNCTION ??osal_nv_read?relay,00H
        EXTERN ??osal_nv_write?relay
        FUNCTION ??osal_nv_write?relay,00H
        EXTERN ??osal_rand?relay
        FUNCTION ??osal_rand?relay,00H
        EXTERN ??osal_set_event?relay
        FUNCTION ??osal_set_event?relay,00H
        EXTERN ??osal_start_timerEx?relay
        FUNCTION ??osal_start_timerEx?relay,00H
        EXTERN ??osal_stop_timerEx?relay
        FUNCTION ??osal_stop_timerEx?relay,00H
        EXTERN ??sAddrExtCpy?relay
        FUNCTION ??sAddrExtCpy?relay,00H
        EXTERN ??sspAesDecrypt?relay
        FUNCTION ??sspAesDecrypt?relay,00H
        EXTERN ??sspAesEncrypt?relay
        FUNCTION ??sspAesEncrypt?relay,00H
        EXTERN ??zclLL_Send_DeviceInfoRsp?relay
        FUNCTION ??zclLL_Send_DeviceInfoRsp?relay,00H
        EXTERN ??zclLL_Send_ScanRsp?relay
        FUNCTION ??zclLL_Send_ScanRsp?relay,00H
        EXTERN ??zcl_getRawAFMsg?relay
        FUNCTION ??zcl_getRawAFMsg?relay,00H
        EXTERN ??zgWriteStartupOptions?relay
        FUNCTION ??zgWriteStartupOptions?relay,00H
        EXTERN APSME_IsDistributedSecurity
        FUNCTION APSME_IsDistributedSecurity,0202H
        ARGFRAME ISTACK, 0, STACK
        ARGFRAME PSTACK, 0, STACK
        ARGFRAME XSTACK, 10, STACK
        ARGFRAME IOVERLAY, 0, STATIC
        ARGFRAME DOVERLAY, 0, STATIC
        EXTERN AssocCount
        FUNCTION AssocCount,0202H
        ARGFRAME ISTACK, 0, STACK
        ARGFRAME PSTACK, 0, STACK
        ARGFRAME XSTACK, 22, STACK
        ARGFRAME IOVERLAY, 0, STATIC
        ARGFRAME DOVERLAY, 0, STATIC
        EXTERN NLME_GetExtAddr
        FUNCTION NLME_GetExtAddr,0202H
        ARGFRAME ISTACK, 0, STACK
        ARGFRAME PSTACK, 0, STACK
        ARGFRAME XSTACK, 20, STACK
        ARGFRAME IOVERLAY, 0, STATIC
        ARGFRAME DOVERLAY, 0, STATIC
        EXTERN NLME_JoinRequest
        FUNCTION NLME_JoinRequest,0202H
        ARGFRAME ISTACK, 0, STACK
        ARGFRAME PSTACK, 0, STACK
        ARGFRAME XSTACK, 13, STACK
        ARGFRAME IOVERLAY, 0, STATIC
        ARGFRAME DOVERLAY, 0, STATIC
        EXTERN NLME_LeaveReq
        FUNCTION NLME_LeaveReq,0202H
        ARGFRAME ISTACK, 2, STACK
        ARGFRAME PSTACK, 0, STACK
        ARGFRAME XSTACK, 5, STACK
        ARGFRAME IOVERLAY, 0, STATIC
        ARGFRAME DOVERLAY, 0, STATIC
        EXTERN NLME_NwkDiscReq2
        FUNCTION NLME_NwkDiscReq2,0202H
        ARGFRAME ISTACK, 0, STACK
        ARGFRAME PSTACK, 0, STACK
        ARGFRAME XSTACK, 19, STACK
        ARGFRAME IOVERLAY, 0, STATIC
        ARGFRAME DOVERLAY, 0, STATIC
        EXTERN NLME_NwkDiscTerm
        FUNCTION NLME_NwkDiscTerm,0202H
        ARGFRAME ISTACK, 2, STACK
        ARGFRAME PSTACK, 0, STACK
        ARGFRAME XSTACK, 19, STACK
        ARGFRAME IOVERLAY, 0, STATIC
        ARGFRAME DOVERLAY, 0, STATIC
        EXTERN NLME_PermitJoiningRequest
        FUNCTION NLME_PermitJoiningRequest,0202H
        ARGFRAME ISTACK, 0, STACK
        ARGFRAME PSTACK, 0, STACK
        ARGFRAME XSTACK, 22, STACK
        ARGFRAME IOVERLAY, 0, STATIC
        ARGFRAME DOVERLAY, 0, STATIC
        EXTERN NLME_SetBroadcastFilter
        FUNCTION NLME_SetBroadcastFilter,0202H
        ARGFRAME ISTACK, 0, STACK
        ARGFRAME PSTACK, 0, STACK
        ARGFRAME XSTACK, 10, STACK
        ARGFRAME IOVERLAY, 0, STATIC
        ARGFRAME DOVERLAY, 0, STATIC
        EXTERN NLME_SetUpdateID
        FUNCTION NLME_SetUpdateID,0202H
        ARGFRAME ISTACK, 0, STACK
        ARGFRAME PSTACK, 0, STACK
        ARGFRAME XSTACK, 13, STACK
        ARGFRAME IOVERLAY, 0, STATIC
        ARGFRAME DOVERLAY, 0, STATIC
        EXTERN NLME_UpdateLinkStatus
        FUNCTION NLME_UpdateLinkStatus,0202H
        ARGFRAME ISTACK, 0, STACK
        ARGFRAME PSTACK, 0, STACK
        ARGFRAME XSTACK, 22, STACK
        ARGFRAME IOVERLAY, 0, STATIC
        ARGFRAME DOVERLAY, 0, STATIC
        EXTERN SSP_ReadNwkActiveKey
        FUNCTION SSP_ReadNwkActiveKey,0202H
        ARGFRAME ISTACK, 0, STACK
        ARGFRAME PSTACK, 0, STACK
        ARGFRAME XSTACK, 91, STACK
        ARGFRAME IOVERLAY, 0, STATIC
        ARGFRAME DOVERLAY, 0, STATIC
        EXTERN SSP_SwitchNwkKey
        FUNCTION SSP_SwitchNwkKey,0202H
        ARGFRAME ISTACK, 0, STACK
        ARGFRAME PSTACK, 0, STACK
        ARGFRAME XSTACK, 12, STACK
        ARGFRAME IOVERLAY, 0, STATIC
        ARGFRAME DOVERLAY, 0, STATIC
        EXTERN SSP_UpdateNwkKey
        FUNCTION SSP_UpdateNwkKey,0202H
        ARGFRAME ISTACK, 0, STACK
        ARGFRAME PSTACK, 0, STACK
        ARGFRAME XSTACK, 12, STACK
        ARGFRAME IOVERLAY, 0, STATIC
        ARGFRAME DOVERLAY, 0, STATIC
        EXTERN StubAPS_RegisterApp
        FUNCTION StubAPS_RegisterApp,0202H
        ARGFRAME ISTACK, 0, STACK
        ARGFRAME PSTACK, 0, STACK
        ARGFRAME XSTACK, 9, STACK
        ARGFRAME IOVERLAY, 0, STATIC
        ARGFRAME DOVERLAY, 0, STATIC
        EXTERN ZDAppTaskID
        EXTERN ZDApp_LeaveCtrlReset
        FUNCTION ZDApp_LeaveCtrlReset,0202H
        ARGFRAME ISTACK, 0, STACK
        ARGFRAME PSTACK, 0, STACK
        ARGFRAME XSTACK, 9, STACK
        ARGFRAME IOVERLAY, 0, STATIC
        ARGFRAME DOVERLAY, 0, STATIC
        EXTERN ZDApp_LeaveReset
        FUNCTION ZDApp_LeaveReset,0202H
        ARGFRAME ISTACK, 0, STACK
        ARGFRAME PSTACK, 0, STACK
        ARGFRAME XSTACK, 9, STACK
        ARGFRAME IOVERLAY, 0, STATIC
        ARGFRAME DOVERLAY, 0, STATIC
        EXTERN ZDApp_NwkStateUpdateCB
        FUNCTION ZDApp_NwkStateUpdateCB,0202H
        ARGFRAME ISTACK, 0, STACK
        ARGFRAME PSTACK, 0, STACK
        ARGFRAME XSTACK, 12, STACK
        ARGFRAME IOVERLAY, 0, STATIC
        ARGFRAME DOVERLAY, 0, STATIC
        EXTERN ZDApp_ResetNwkKey
        FUNCTION ZDApp_ResetNwkKey,0202H
        ARGFRAME ISTACK, 0, STACK
        ARGFRAME PSTACK, 0, STACK
        ARGFRAME XSTACK, 9, STACK
        ARGFRAME IOVERLAY, 0, STATIC
        ARGFRAME DOVERLAY, 0, STATIC
        EXTERN ZDApp_SaveNwkKey
        FUNCTION ZDApp_SaveNwkKey,0202H
        ARGFRAME ISTACK, 0, STACK
        ARGFRAME PSTACK, 0, STACK
        ARGFRAME XSTACK, 12, STACK
        ARGFRAME IOVERLAY, 0, STATIC
        ARGFRAME DOVERLAY, 0, STATIC
        EXTERN ZDO_Config_Node_Descriptor
        EXTERN ZDO_DeregisterForZdoCB
        FUNCTION ZDO_DeregisterForZdoCB,0202H
        ARGFRAME ISTACK, 2, STACK
        ARGFRAME PSTACK, 0, STACK
        ARGFRAME XSTACK, 0, STACK
        ARGFRAME IOVERLAY, 0, STATIC
        ARGFRAME DOVERLAY, 0, STATIC
        EXTERN ZDO_ParseDeviceAnnce
        FUNCTION ZDO_ParseDeviceAnnce,0202H
        ARGFRAME ISTACK, 0, STACK
        ARGFRAME PSTACK, 0, STACK
        ARGFRAME XSTACK, 22, STACK
        ARGFRAME IOVERLAY, 0, STATIC
        ARGFRAME DOVERLAY, 0, STATIC
        EXTERN ZDO_RegisterForZdoCB
        FUNCTION ZDO_RegisterForZdoCB,0202H
        ARGFRAME ISTACK, 0, STACK
        ARGFRAME PSTACK, 0, STACK
        ARGFRAME XSTACK, 19, STACK
        ARGFRAME IOVERLAY, 0, STATIC
        ARGFRAME DOVERLAY, 0, STATIC
        EXTERN ZDP_SendData
        FUNCTION ZDP_SendData,0202H
        ARGFRAME ISTACK, 0, STACK
        ARGFRAME PSTACK, 0, STACK
        ARGFRAME XSTACK, 27, STACK
        ARGFRAME IOVERLAY, 0, STATIC
        ARGFRAME DOVERLAY, 0, STATIC
        EXTERN ZDSecMgrUpdateTCAddress
        FUNCTION ZDSecMgrUpdateTCAddress,0202H
        ARGFRAME ISTACK, 0, STACK
        ARGFRAME PSTACK, 0, STACK
        ARGFRAME XSTACK, 9, STACK
        ARGFRAME IOVERLAY, 0, STATIC
        ARGFRAME DOVERLAY, 0, STATIC
        EXTERN ZMacGetReq
        FUNCTION ZMacGetReq,0202H
        ARGFRAME ISTACK, 2, STACK
        ARGFRAME PSTACK, 0, STACK
        ARGFRAME XSTACK, 2, STACK
        ARGFRAME IOVERLAY, 0, STATIC
        ARGFRAME DOVERLAY, 0, STATIC
        EXTERN ZMacSetReq
        FUNCTION ZMacSetReq,0202H
        ARGFRAME ISTACK, 2, STACK
        ARGFRAME PSTACK, 0, STACK
        ARGFRAME XSTACK, 13, STACK
        ARGFRAME IOVERLAY, 0, STATIC
        ARGFRAME DOVERLAY, 0, STATIC
        EXTERN _NIB
        EXTERN afFindEndPointDesc
        FUNCTION afFindEndPointDesc,0202H
        ARGFRAME ISTACK, 0, STACK
        ARGFRAME PSTACK, 0, STACK
        ARGFRAME XSTACK, 14, STACK
        ARGFRAME IOVERLAY, 0, STATIC
        ARGFRAME DOVERLAY, 0, STATIC
        EXTERN afRegister
        FUNCTION afRegister,0202H
        ARGFRAME ISTACK, 0, STACK
        ARGFRAME PSTACK, 0, STACK
        ARGFRAME XSTACK, 10, STACK
        ARGFRAME IOVERLAY, 0, STATIC
        ARGFRAME DOVERLAY, 0, STATIC
        EXTERN devState
        EXTERN gMIN_TREE_LINK_COST
        EXTERN gNWK_MAX_DEVICE_LIST
        EXTERN nwkFrameCounter
        EXTERN nwkNeighborAdd
        FUNCTION nwkNeighborAdd,0202H
        ARGFRAME ISTACK, 0, STACK
        ARGFRAME PSTACK, 0, STACK
        ARGFRAME XSTACK, 22, STACK
        ARGFRAME IOVERLAY, 0, STATIC
        ARGFRAME DOVERLAY, 0, STATIC
        EXTERN nwkNeighborGetLinkInfo
        FUNCTION nwkNeighborGetLinkInfo,0202H
        ARGFRAME ISTACK, 0, STACK
        ARGFRAME PSTACK, 0, STACK
        ARGFRAME XSTACK, 22, STACK
        ARGFRAME IOVERLAY, 0, STATIC
        ARGFRAME DOVERLAY, 0, STATIC
        EXTERN nwkTransmissionFailures
        FUNCTION nwkTransmissionFailures,0202H
        ARGFRAME ISTACK, 0, STACK
        ARGFRAME PSTACK, 0, STACK
        ARGFRAME XSTACK, 12, STACK
        ARGFRAME IOVERLAY, 0, STATIC
        ARGFRAME DOVERLAY, 0, STATIC
        EXTERN osal_mem_alloc
        FUNCTION osal_mem_alloc,0202H
        ARGFRAME ISTACK, 0, STACK
        ARGFRAME PSTACK, 0, STACK
        ARGFRAME XSTACK, 22, STACK
        ARGFRAME IOVERLAY, 0, STATIC
        ARGFRAME DOVERLAY, 0, STATIC
        EXTERN osal_mem_free
        FUNCTION osal_mem_free,0202H
        ARGFRAME ISTACK, 0, STACK
        ARGFRAME PSTACK, 0, STACK
        ARGFRAME XSTACK, 22, STACK
        ARGFRAME IOVERLAY, 0, STATIC
        ARGFRAME DOVERLAY, 0, STATIC
        EXTERN osal_memcpy
        FUNCTION osal_memcpy,0202H
        ARGFRAME ISTACK, 0, STACK
        ARGFRAME PSTACK, 0, STACK
        ARGFRAME XSTACK, 94, STACK
        ARGFRAME IOVERLAY, 0, STATIC
        ARGFRAME DOVERLAY, 0, STATIC
        EXTERN osal_memset
        FUNCTION osal_memset,0202H
        ARGFRAME ISTACK, 2, STACK
        ARGFRAME PSTACK, 0, STACK
        ARGFRAME XSTACK, 59, STACK
        ARGFRAME IOVERLAY, 0, STATIC
        ARGFRAME DOVERLAY, 0, STATIC
        EXTERN osal_nv_item_init
        FUNCTION osal_nv_item_init,0202H
        ARGFRAME ISTACK, 0, STACK
        ARGFRAME PSTACK, 0, STACK
        ARGFRAME XSTACK, 14, STACK
        ARGFRAME IOVERLAY, 0, STATIC
        ARGFRAME DOVERLAY, 0, STATIC
        EXTERN osal_nv_read
        FUNCTION osal_nv_read,0202H
        ARGFRAME ISTACK, 0, STACK
        ARGFRAME PSTACK, 0, STACK
        ARGFRAME XSTACK, 16, STACK
        ARGFRAME IOVERLAY, 0, STATIC
        ARGFRAME DOVERLAY, 0, STATIC
        EXTERN osal_nv_write
        FUNCTION osal_nv_write,0202H
        ARGFRAME ISTACK, 0, STACK
        ARGFRAME PSTACK, 0, STACK
        ARGFRAME XSTACK, 63, STACK
        ARGFRAME IOVERLAY, 0, STATIC
        ARGFRAME DOVERLAY, 0, STATIC
        EXTERN osal_rand
        FUNCTION osal_rand,0202H
        ARGFRAME ISTACK, 2, STACK
        ARGFRAME PSTACK, 0, STACK
        ARGFRAME XSTACK, 22, STACK
        ARGFRAME IOVERLAY, 0, STATIC
        ARGFRAME DOVERLAY, 0, STATIC
        EXTERN osal_set_event
        FUNCTION osal_set_event,0202H
        ARGFRAME ISTACK, 2, STACK
        ARGFRAME PSTACK, 0, STACK
        ARGFRAME XSTACK, 0, STACK
        ARGFRAME IOVERLAY, 0, STATIC
        ARGFRAME DOVERLAY, 0, STATIC
        EXTERN osal_start_timerEx
        FUNCTION osal_start_timerEx,0202H
        ARGFRAME ISTACK, 0, STACK
        ARGFRAME PSTACK, 0, STACK
        ARGFRAME XSTACK, 26, STACK
        ARGFRAME IOVERLAY, 0, STATIC
        ARGFRAME DOVERLAY, 0, STATIC
        EXTERN osal_stop_timerEx
        FUNCTION osal_stop_timerEx,0202H
        ARGFRAME ISTACK, 2, STACK
        ARGFRAME PSTACK, 0, STACK
        ARGFRAME XSTACK, 0, STACK
        ARGFRAME IOVERLAY, 0, STATIC
        ARGFRAME DOVERLAY, 0, STATIC
        EXTERN sAddrExtCpy
        FUNCTION sAddrExtCpy,0202H
        ARGFRAME ISTACK, 0, STACK
        ARGFRAME PSTACK, 0, STACK
        ARGFRAME XSTACK, 22, STACK
        ARGFRAME IOVERLAY, 0, STATIC
        ARGFRAME DOVERLAY, 0, STATIC
        EXTERN sspAesDecrypt
        FUNCTION sspAesDecrypt,0202H
        ARGFRAME ISTACK, 0, STACK
        ARGFRAME PSTACK, 0, STACK
        ARGFRAME XSTACK, 67, STACK
        ARGFRAME IOVERLAY, 0, STATIC
        ARGFRAME DOVERLAY, 0, STATIC
        EXTERN sspAesEncrypt
        FUNCTION sspAesEncrypt,0202H
        ARGFRAME ISTACK, 0, STACK
        ARGFRAME PSTACK, 0, STACK
        ARGFRAME XSTACK, 91, STACK
        ARGFRAME IOVERLAY, 0, STATIC
        ARGFRAME DOVERLAY, 0, STATIC
        EXTERN zclLL_Send_DeviceInfoRsp
        FUNCTION zclLL_Send_DeviceInfoRsp,0202H
        ARGFRAME ISTACK, 0, STACK
        ARGFRAME PSTACK, 0, STACK
        ARGFRAME XSTACK, 21, STACK
        ARGFRAME IOVERLAY, 0, STATIC
        ARGFRAME DOVERLAY, 0, STATIC
        EXTERN zclLL_Send_ScanRsp
        FUNCTION zclLL_Send_ScanRsp,0202H
        ARGFRAME ISTACK, 0, STACK
        ARGFRAME PSTACK, 0, STACK
        ARGFRAME XSTACK, 23, STACK
        ARGFRAME IOVERLAY, 0, STATIC
        ARGFRAME DOVERLAY, 0, STATIC
        EXTERN zcl_TaskID
        EXTERN zcl_getRawAFMsg
        FUNCTION zcl_getRawAFMsg,0202H
        ARGFRAME ISTACK, 0, STACK
        ARGFRAME PSTACK, 0, STACK
        ARGFRAME XSTACK, 10, STACK
        ARGFRAME IOVERLAY, 0, STATIC
        ARGFRAME DOVERLAY, 0, STATIC
        EXTERN zgDeviceLogicalType
        EXTERN zgRouterOffAssocCleanup
        EXTERN zgWriteStartupOptions
        FUNCTION zgWriteStartupOptions,0202H
        ARGFRAME ISTACK, 0, STACK
        ARGFRAME PSTACK, 0, STACK
        ARGFRAME XSTACK, 10, STACK
        ARGFRAME IOVERLAY, 0, STATIC
        ARGFRAME DOVERLAY, 0, STATIC

// D:\Texas Instruments\Z-Stack Lighting 1.0.2\Projects\zstack\ZLL\Source\zll.c
//    1 /**************************************************************************************************
//    2   Filename:       zll.c
//    3   Revised:        $Date: 2013-12-06 15:53:38 -0800 (Fri, 06 Dec 2013) $
//    4   Revision:       $Revision: 36460 $
//    5 
//    6   Description:    Zigbee Cluster Library - Light Link Profile.
//    7 
//    8 
//    9   Copyright 2011-2013 Texas Instruments Incorporated. All rights reserved.
//   10 
//   11   IMPORTANT: Your use of this Software is limited to those specific rights
//   12   granted under the terms of a software license agreement between the user
//   13   who downloaded the software, his/her employer (which must be your employer)
//   14   and Texas Instruments Incorporated (the "License").  You may not use this
//   15   Software unless you agree to abide by the terms of the License. The License
//   16   limits your use, and you acknowledge, that the Software may not be modified,
//   17   copied or distributed unless embedded on a Texas Instruments microcontroller
//   18   or used solely and exclusively in conjunction with a Texas Instruments radio
//   19   frequency transceiver, which is integrated into your product.  Other than for
//   20   the foregoing purpose, you may not use, reproduce, copy, prepare derivative
//   21   works of, modify, distribute, perform, display or sell this Software and/or
//   22   its documentation for any purpose.
//   23 
//   24   YOU FURTHER ACKNOWLEDGE AND AGREE THAT THE SOFTWARE AND DOCUMENTATION ARE
//   25   PROVIDED AS IS WITHOUT WARRANTY OF ANY KIND, EITHER EXPRESS OR IMPLIED,
//   26   INCLUDING WITHOUT LIMITATION, ANY WARRANTY OF MERCHANTABILITY, TITLE,
//   27   NON-INFRINGEMENT AND FITNESS FOR A PARTICULAR PURPOSE. IN NO EVENT SHALL
//   28   TEXAS INSTRUMENTS OR ITS LICENSORS BE LIABLE OR OBLIGATED UNDER CONTRACT,
//   29   NEGLIGENCE, STRICT LIABILITY, CONTRIBUTION, BREACH OF WARRANTY, OR OTHER
//   30   LEGAL EQUITABLE THEORY ANY DIRECT OR INDIRECT DAMAGES OR EXPENSES
//   31   INCLUDING BUT NOT LIMITED TO ANY INCIDENTAL, SPECIAL, INDIRECT, PUNITIVE
//   32   OR CONSEQUENTIAL DAMAGES, LOST PROFITS OR LOST DATA, COST OF PROCUREMENT
//   33   OF SUBSTITUTE GOODS, TECHNOLOGY, SERVICES, OR ANY CLAIMS BY THIRD PARTIES
//   34   (INCLUDING BUT NOT LIMITED TO ANY DEFENSE THEREOF), OR OTHER SIMILAR COSTS.
//   35 
//   36   Should you have any questions regarding your right to use this Software,
//   37   contact Texas Instruments Incorporated at www.TI.com.
//   38 **************************************************************************************************/
//   39 
//   40 /*********************************************************************
//   41  * INCLUDES
//   42  */
//   43 #include "OSAL_Nv.h"
//   44 #include "hal_aes.h"
//   45 #include "nwk_util.h"
//   46 #include "ZDSecMgr.h"
//   47 #include "ZDObject.h"
//   48 
//   49 #if defined( INTER_PAN )
//   50   #include "stub_aps.h"
//   51 #endif
//   52 
//   53 #include "zcl_ll.h"
//   54 #include "zll.h"
//   55 
//   56 /*********************************************************************
//   57  * MACROS
//   58  */
//   59 #define ZLL_NEW_MIN( min, max )                  ( ( (uint32)(max) + (uint32)(min) + 1 ) / 2 )
//   60 
//   61 /*********************************************************************
//   62  * CONSTANTS
//   63  */
//   64 
//   65 #define ZLL_NUM_DEVICE_INFO_ENTRIES              5
//   66 
//   67 
//   68 /*********************************************************************
//   69  * TYPEDEFS
//   70  */
//   71 
//   72 /*********************************************************************
//   73  * GLOBAL VARIABLES
//   74  */
//   75 
//   76 // Used for Network Discovery

        RSEG XDATA_Z:XDATA:NOROOT(0)
        DATA16
//   77 zllDiscoveredNwkParam_t *pDiscoveredNwkParamList = NULL;
pDiscoveredNwkParamList:
        DS 2
        REQUIRE __INIT_XDATA_Z
//   78 
//   79 // Current Touch Link Transaction ID

        RSEG XDATA_Z:XDATA:NOROOT(0)
        DATA32
//   80 uint32 zllTransID;
zllTransID:
        DS 4
        REQUIRE __INIT_XDATA_Z
//   81 
//   82 // Scan Response ID

        RSEG XDATA_Z:XDATA:NOROOT(0)
        DATA32
//   83 uint32 zllResponseID;
zllResponseID:
        DS 4
        REQUIRE __INIT_XDATA_Z
//   84 
//   85 // Our group ID range

        RSEG XDATA_Z:XDATA:NOROOT(0)
        DATA16
//   86 uint16 zllGrpIDsBegin;
zllGrpIDsBegin:
        DS 2
        REQUIRE __INIT_XDATA_Z

        RSEG XDATA_Z:XDATA:NOROOT(0)
        DATA16
//   87 uint16 zllGrpIDsEnd;
zllGrpIDsEnd:
        DS 2
        REQUIRE __INIT_XDATA_Z
//   88 
//   89 // Flag for leave

        RSEG XDATA_Z:XDATA:NOROOT(0)
        DATA8
//   90 uint8 zllLeaveInitiated;
zllLeaveInitiated:
        DS 1
        REQUIRE __INIT_XDATA_Z
//   91 
//   92 // Flags for Classical Commissioning

        RSEG XDATA_Z:XDATA:NOROOT(0)
        DATA8
//   93 uint8 zllHAScanInitiated;
zllHAScanInitiated:
        DS 1
        REQUIRE __INIT_XDATA_Z

        RSEG XDATA_Z:XDATA:NOROOT(0)
        DATA8
//   94 bool zllJoinedHANetwork;
zllJoinedHANetwork:
        DS 1
        REQUIRE __INIT_XDATA_Z
//   95 
//   96 /*********************************************************************
//   97  * EXTERNAL VARIABLES
//   98  */
//   99 
//  100 /*********************************************************************
//  101  * EXTERNAL FUNCTIONS
//  102  */
//  103 
//  104 /*********************************************************************
//  105  * LOCAL VARIABLES
//  106  */

        RSEG XDATA_Z:XDATA:NOROOT(0)
        DATA32
//  107 static uint32 zllLastAcceptedTransID;
zllLastAcceptedTransID:
        DS 4
        REQUIRE __INIT_XDATA_Z
//  108 
//  109 // ZLL Profile attributes - Our free network address and group ID ranges

        RSEG XDATA_Z:XDATA:NOROOT(0)
        DATA16
//  110 static uint16 zllFreeNwkAddrBegin;
zllFreeNwkAddrBegin:
        DS 2
        REQUIRE __INIT_XDATA_Z

        RSEG XDATA_Z:XDATA:NOROOT(0)
        DATA16
//  111 static uint16 zllFreeNwkAddrEnd;
zllFreeNwkAddrEnd:
        DS 2
        REQUIRE __INIT_XDATA_Z

        RSEG XDATA_Z:XDATA:NOROOT(0)
        DATA16
//  112 static uint16 zllFreeGrpIdBegin;
zllFreeGrpIdBegin:
        DS 2
        REQUIRE __INIT_XDATA_Z

        RSEG XDATA_Z:XDATA:NOROOT(0)
        DATA16
//  113 static uint16 zllFreeGrpIdEnd;
zllFreeGrpIdEnd:
        DS 2
        REQUIRE __INIT_XDATA_Z
//  114 
//  115 // Device Information Table

        RSEG XDATA_Z:XDATA:NOROOT(0)
        DATA8
//  116 static zclLLDeviceInfo_t *zllSubDevicesTbl[ZLL_NUM_DEVICE_INFO_ENTRIES];
zllSubDevicesTbl:
        DS 10
        REQUIRE __INIT_XDATA_Z

        RSEG XDATA_Z:XDATA:NOROOT(0)
        DATA8
//  117 static bool zllIsInitiator;
zllIsInitiator:
        DS 1
        REQUIRE __INIT_XDATA_Z

        RSEG XDATA_Z:XDATA:NOROOT(0)
        DATA8
//  118 static uint8 zllTaskId;
zllTaskId:
        DS 1
        REQUIRE __INIT_XDATA_Z
//  119 
//  120 // This is the Cluster ID List and should be filled with Application
//  121 // specific cluster IDs.
//  122 #define ZLL_EP_MAX_INCLUSTERS       1

        RSEG XDATA_ROM_C:CONST:REORDER:NOROOT(0)
        DATA16
//  123 static const cId_t zll_EP_InClusterList[ZLL_EP_MAX_INCLUSTERS] =
zll_EP_InClusterList:
        DW 4096
//  124 {
//  125   ZCL_CLUSTER_ID_LIGHT_LINK
//  126 };
//  127 
//  128 #define ZLL_EP_MAX_OUTCLUSTERS       1

        RSEG XDATA_ROM_C:CONST:REORDER:NOROOT(0)
        DATA16
//  129 static const cId_t zll_EP_OutClusterList[ZLL_EP_MAX_OUTCLUSTERS] =
zll_EP_OutClusterList:
        DW 4096
//  130 {
//  131   ZCL_CLUSTER_ID_LIGHT_LINK
//  132 };
//  133 

        RSEG XDATA_I:XDATA:NOROOT(0)
//  134 static SimpleDescriptionFormat_t zll_EP_SimpleDesc =
zll_EP_SimpleDesc:
        DATA8
        DS 12
        REQUIRE `?<Initializer for zll_EP_SimpleDesc>`
        REQUIRE __INIT_XDATA_I
//  135 {
//  136   ZLL_INTERNAL_ENDPOINT,         //  int Endpoint;
//  137   ZLL_PROFILE_ID,                //  uint16 AppProfId[2];
//  138   ZLL_INTERNAL_DEVICE_ID,        //  uint16 AppDeviceId[2];
//  139   ZLL_DEVICE_VERSION,            //  int   AppDevVer:4;
//  140   ZLL_INTERNAL_FLAGS,            //  int   AppFlags:4;
//  141   ZLL_EP_MAX_INCLUSTERS,         //  byte  AppNumInClusters;
//  142   (cId_t *)zll_EP_InClusterList, //  byte *pAppInClusterList;
//  143   ZLL_EP_MAX_OUTCLUSTERS,        //  byte  AppNumInClusters;
//  144   (cId_t *)zll_EP_OutClusterList //  byte *pAppInClusterList;
//  145 };
//  146 
//  147 #if defined( INTER_PAN )
//  148 // Define endpoint structure to register with STUB APS for INTER-PAN support

        RSEG XDATA_I:XDATA:NOROOT(0)
//  149 static endPointDesc_t zll_EP =
zll_EP:
        DATA8
        DS 6
        REQUIRE `?<Initializer for zll_EP>`
        REQUIRE __INIT_XDATA_I
//  150 {
//  151   ZLL_INTERNAL_ENDPOINT,
//  152   &zllTaskId,
//  153   (SimpleDescriptionFormat_t *)NULL,  // No Simple description for this endpoint
//  154   (afNetworkLatencyReq_t)0            // No Network Latency req
//  155 };
//  156 #endif
//  157 
//  158 
//  159 /*********************************************************************
//  160  * LOCAL FUNCTIONS
//  161  */
//  162 static void zll_BuildAesKey( uint8 *pAesKey, uint32 transID, uint32 responseID, uint8 keyIndex );
//  163 static void zll_InitFreeRanges( bool initiator );
//  164 void zll_ItemInit( uint16 id, uint16 len, void *pBuf );
//  165 static void *zll_BeaconIndCB ( void *param );
//  166 static void *zll_NwkDiscoveryCnfCB ( void *param );
//  167 static void zll_InitNV( void );
//  168 static void zll_SetTCLK( void );
//  169 static ZStatus_t zll_ClassicalCommissioningNetworkDisc( void );
//  170 
//  171 /*********************************************************************
//  172  * PUBLIC FUNCTIONS
//  173  */
//  174 
//  175 /*********************************************************************
//  176  * @fn      zll_RegisterSimpleDesc
//  177  *
//  178  * @brief   Register the Simple descriptor with the AF.
//  179  *
//  180  * @param   simpleDesc - a pointer to a valid SimpleDescriptionFormat_t, must not be NULL.
//  181  *
//  182  * @return  status
//  183  */

        RSEG BANKED_CODE:CODE:NOROOT(0)
//  184 ZStatus_t zll_RegisterSimpleDesc( SimpleDescriptionFormat_t *simpleDesc )
zll_RegisterSimpleDesc:
          CFI Block cfiBlock0 Using cfiCommon0
          CFI Function zll_RegisterSimpleDesc
        CODE
//  185 {
        FUNCALL zll_RegisterSimpleDesc, osal_mem_alloc
        LOCFRAME ISTACK, 0, STACK
        LOCFRAME PSTACK, 0, STACK
        LOCFRAME XSTACK, 10, STACK
        LOCFRAME IOVERLAY, 0, STATIC
        LOCFRAME DOVERLAY, 0, STATIC
        ARGFRAME ISTACK, 0, STACK
        ARGFRAME PSTACK, 0, STACK
        ARGFRAME XSTACK, 10, STACK
        ARGFRAME IOVERLAY, 0, STATIC
        ARGFRAME DOVERLAY, 0, STATIC
        FUNCALL zll_RegisterSimpleDesc, afRegister
        LOCFRAME ISTACK, 0, STACK
        LOCFRAME PSTACK, 0, STACK
        LOCFRAME XSTACK, 10, STACK
        LOCFRAME IOVERLAY, 0, STATIC
        LOCFRAME DOVERLAY, 0, STATIC
        ARGFRAME ISTACK, 0, STACK
        ARGFRAME PSTACK, 0, STACK
        ARGFRAME XSTACK, 10, STACK
        ARGFRAME IOVERLAY, 0, STATIC
        ARGFRAME DOVERLAY, 0, STATIC
        MOV     A,#-0xa
        LCALL   ?BANKED_ENTER_XDATA
          CFI DPH0 load(1, XDATA, add(CFA_XSP16, literal(-1)))
          CFI DPL0 load(1, XDATA, add(CFA_XSP16, literal(-2)))
          CFI ?BRET_EXT load(1, XDATA, add(CFA_XSP16, literal(-3)))
          CFI ?RET_HIGH load(1, XDATA, add(CFA_XSP16, literal(-4)))
          CFI ?RET_LOW load(1, XDATA, add(CFA_XSP16, literal(-5)))
          CFI R7 load(1, XDATA, add(CFA_XSP16, literal(-6)))
          CFI V1 load(1, XDATA, add(CFA_XSP16, literal(-7)))
          CFI V0 load(1, XDATA, add(CFA_XSP16, literal(-8)))
          CFI VB load(1, XDATA, add(CFA_XSP16, literal(-9)))
          CFI R6 load(1, XDATA, add(CFA_XSP16, literal(-10)))
          CFI CFA_SP SP+0
          CFI CFA_XSP16 add(XSP16, 10)
        ; Saved register size: 10
        ; Auto size: 0
        MOV     A,R2
        MOV     R6,A
        MOV     A,R3
        MOV     R7,A
//  186   endPointDesc_t *epDesc;
//  187 
//  188   // Register the application's endpoint descriptor
//  189   //  - This memory is allocated and never freed.
//  190   epDesc = osal_mem_alloc( sizeof ( endPointDesc_t ) );
        ; Setup parameters for call to function osal_mem_alloc
        MOV     R2,#0x6
        MOV     R3,#0x0
        LCALL   ??osal_mem_alloc?relay
//  191   if ( epDesc )
        MOV     A,R2
        ORL     A,R3
        JZ      ??zll_RegisterSimpleDesc_0
//  192   {
//  193     // Fill out the endpoint description.
//  194     epDesc->endPoint = simpleDesc->EndPoint;
        MOV     DPL,R6
        MOV     DPH,R7
        MOVX    A,@DPTR
        MOV     DPL,R2
        MOV     DPH,R3
        MOVX    @DPTR,A
//  195     epDesc->task_id = &zcl_TaskID;   // all messages get sent to ZCL first
        INC     DPTR
        MOV     A,#zcl_TaskID & 0xff
        MOVX    @DPTR,A
        INC     DPTR
        MOV     A,#(zcl_TaskID >> 8) & 0xff
        LCALL   ?Subroutine34 & 0xFFFF
//  196     epDesc->simpleDesc = simpleDesc;
??CrossCallReturnLabel_45:
        MOV     A,R6
        MOVX    @DPTR,A
        INC     DPTR
        MOV     A,R7
        LCALL   ?Subroutine22 & 0xFFFF
//  197     epDesc->latencyReq = noLatencyReqs;
??CrossCallReturnLabel_26:
        CLR     A
        MOVX    @DPTR,A
//  198 
//  199     // Register the endpoint description with the AF
//  200     return afRegister( epDesc );
        ; Setup parameters for call to function afRegister
        LCALL   ??afRegister?relay
        SJMP    ??zll_RegisterSimpleDesc_1
//  201   }
//  202   return ZMemError;
??zll_RegisterSimpleDesc_0:
        MOV     R1,#0x10
??zll_RegisterSimpleDesc_1:
        LJMP    ??Subroutine36_0 & 0xFFFF
          CFI EndBlock cfiBlock0
//  203 }
//  204 
//  205 /*********************************************************************
//  206  * @fn      zll_InitVariables
//  207  *
//  208  * @brief   Initialize the ZLL global and local variables.
//  209  *
//  210  * @param   initiator - if caller is Initiator
//  211  *
//  212  * @return  none
//  213  */

        RSEG BANKED_CODE:CODE:NOROOT(0)
//  214 void zll_InitVariables( bool initiator )
zll_InitVariables:
          CFI Block cfiBlock1 Using cfiCommon0
          CFI Function zll_InitVariables
        CODE
//  215 {
        FUNCALL zll_InitVariables, zll_IsFactoryNew
        LOCFRAME ISTACK, 0, STACK
        LOCFRAME PSTACK, 0, STACK
        LOCFRAME XSTACK, 10, STACK
        LOCFRAME IOVERLAY, 0, STATIC
        LOCFRAME DOVERLAY, 0, STATIC
        ARGFRAME ISTACK, 0, STACK
        ARGFRAME PSTACK, 0, STACK
        ARGFRAME XSTACK, 10, STACK
        ARGFRAME IOVERLAY, 0, STATIC
        ARGFRAME DOVERLAY, 0, STATIC
        FUNCALL zll_InitVariables, APSME_IsDistributedSecurity
        LOCFRAME ISTACK, 0, STACK
        LOCFRAME PSTACK, 0, STACK
        LOCFRAME XSTACK, 10, STACK
        LOCFRAME IOVERLAY, 0, STATIC
        LOCFRAME DOVERLAY, 0, STATIC
        ARGFRAME ISTACK, 0, STACK
        ARGFRAME PSTACK, 0, STACK
        ARGFRAME XSTACK, 10, STACK
        ARGFRAME IOVERLAY, 0, STATIC
        ARGFRAME DOVERLAY, 0, STATIC
        FUNCALL zll_InitVariables, osal_nv_write
        LOCFRAME ISTACK, 0, STACK
        LOCFRAME PSTACK, 0, STACK
        LOCFRAME XSTACK, 14, STACK
        LOCFRAME IOVERLAY, 0, STATIC
        LOCFRAME DOVERLAY, 0, STATIC
        ARGFRAME ISTACK, 0, STACK
        ARGFRAME PSTACK, 0, STACK
        ARGFRAME XSTACK, 14, STACK
        ARGFRAME IOVERLAY, 0, STATIC
        ARGFRAME DOVERLAY, 0, STATIC
        FUNCALL zll_InitVariables, zll_InitFreeRanges
        LOCFRAME ISTACK, 0, STACK
        LOCFRAME PSTACK, 0, STACK
        LOCFRAME XSTACK, 10, STACK
        LOCFRAME IOVERLAY, 0, STATIC
        LOCFRAME DOVERLAY, 0, STATIC
        ARGFRAME ISTACK, 0, STACK
        ARGFRAME PSTACK, 0, STACK
        ARGFRAME XSTACK, 10, STACK
        ARGFRAME IOVERLAY, 0, STATIC
        ARGFRAME DOVERLAY, 0, STATIC
        FUNCALL zll_InitVariables, zll_ItemInit
        LOCFRAME ISTACK, 0, STACK
        LOCFRAME PSTACK, 0, STACK
        LOCFRAME XSTACK, 12, STACK
        LOCFRAME IOVERLAY, 0, STATIC
        LOCFRAME DOVERLAY, 0, STATIC
        ARGFRAME ISTACK, 0, STACK
        ARGFRAME PSTACK, 0, STACK
        ARGFRAME XSTACK, 12, STACK
        ARGFRAME IOVERLAY, 0, STATIC
        ARGFRAME DOVERLAY, 0, STATIC
        FUNCALL zll_InitVariables, zll_ItemInit
        LOCFRAME ISTACK, 0, STACK
        LOCFRAME PSTACK, 0, STACK
        LOCFRAME XSTACK, 12, STACK
        LOCFRAME IOVERLAY, 0, STATIC
        LOCFRAME DOVERLAY, 0, STATIC
        ARGFRAME ISTACK, 0, STACK
        ARGFRAME PSTACK, 0, STACK
        ARGFRAME XSTACK, 12, STACK
        ARGFRAME IOVERLAY, 0, STATIC
        ARGFRAME DOVERLAY, 0, STATIC
        FUNCALL zll_InitVariables, zll_ItemInit
        LOCFRAME ISTACK, 0, STACK
        LOCFRAME PSTACK, 0, STACK
        LOCFRAME XSTACK, 12, STACK
        LOCFRAME IOVERLAY, 0, STATIC
        LOCFRAME DOVERLAY, 0, STATIC
        ARGFRAME ISTACK, 0, STACK
        ARGFRAME PSTACK, 0, STACK
        ARGFRAME XSTACK, 12, STACK
        ARGFRAME IOVERLAY, 0, STATIC
        ARGFRAME DOVERLAY, 0, STATIC
        FUNCALL zll_InitVariables, zll_ItemInit
        LOCFRAME ISTACK, 0, STACK
        LOCFRAME PSTACK, 0, STACK
        LOCFRAME XSTACK, 12, STACK
        LOCFRAME IOVERLAY, 0, STATIC
        LOCFRAME DOVERLAY, 0, STATIC
        ARGFRAME ISTACK, 0, STACK
        ARGFRAME PSTACK, 0, STACK
        ARGFRAME XSTACK, 12, STACK
        ARGFRAME IOVERLAY, 0, STATIC
        ARGFRAME DOVERLAY, 0, STATIC
        FUNCALL zll_InitVariables, zll_ItemInit
        LOCFRAME ISTACK, 0, STACK
        LOCFRAME PSTACK, 0, STACK
        LOCFRAME XSTACK, 12, STACK
        LOCFRAME IOVERLAY, 0, STATIC
        LOCFRAME DOVERLAY, 0, STATIC
        ARGFRAME ISTACK, 0, STACK
        ARGFRAME PSTACK, 0, STACK
        ARGFRAME XSTACK, 12, STACK
        ARGFRAME IOVERLAY, 0, STATIC
        ARGFRAME DOVERLAY, 0, STATIC
        FUNCALL zll_InitVariables, zll_ItemInit
        LOCFRAME ISTACK, 0, STACK
        LOCFRAME PSTACK, 0, STACK
        LOCFRAME XSTACK, 12, STACK
        LOCFRAME IOVERLAY, 0, STATIC
        LOCFRAME DOVERLAY, 0, STATIC
        ARGFRAME ISTACK, 0, STACK
        ARGFRAME PSTACK, 0, STACK
        ARGFRAME XSTACK, 12, STACK
        ARGFRAME IOVERLAY, 0, STATIC
        ARGFRAME DOVERLAY, 0, STATIC
        FUNCALL zll_InitVariables, osal_memset
        LOCFRAME ISTACK, 0, STACK
        LOCFRAME PSTACK, 0, STACK
        LOCFRAME XSTACK, 10, STACK
        LOCFRAME IOVERLAY, 0, STATIC
        LOCFRAME DOVERLAY, 0, STATIC
        ARGFRAME ISTACK, 0, STACK
        ARGFRAME PSTACK, 0, STACK
        ARGFRAME XSTACK, 10, STACK
        ARGFRAME IOVERLAY, 0, STATIC
        ARGFRAME DOVERLAY, 0, STATIC
        FUNCALL zll_InitVariables, zll_SetTCLK
        LOCFRAME ISTACK, 0, STACK
        LOCFRAME PSTACK, 0, STACK
        LOCFRAME XSTACK, 10, STACK
        LOCFRAME IOVERLAY, 0, STATIC
        LOCFRAME DOVERLAY, 0, STATIC
        ARGFRAME ISTACK, 0, STACK
        ARGFRAME PSTACK, 0, STACK
        ARGFRAME XSTACK, 10, STACK
        ARGFRAME IOVERLAY, 0, STATIC
        ARGFRAME DOVERLAY, 0, STATIC
        FUNCALL zll_InitVariables, NLME_SetBroadcastFilter
        LOCFRAME ISTACK, 0, STACK
        LOCFRAME PSTACK, 0, STACK
        LOCFRAME XSTACK, 10, STACK
        LOCFRAME IOVERLAY, 0, STATIC
        LOCFRAME DOVERLAY, 0, STATIC
        ARGFRAME ISTACK, 0, STACK
        ARGFRAME PSTACK, 0, STACK
        ARGFRAME XSTACK, 10, STACK
        ARGFRAME IOVERLAY, 0, STATIC
        ARGFRAME DOVERLAY, 0, STATIC
        MOV     A,#-0xa
        LCALL   ?BANKED_ENTER_XDATA
          CFI DPH0 load(1, XDATA, add(CFA_XSP16, literal(-1)))
          CFI DPL0 load(1, XDATA, add(CFA_XSP16, literal(-2)))
          CFI ?BRET_EXT load(1, XDATA, add(CFA_XSP16, literal(-3)))
          CFI ?RET_HIGH load(1, XDATA, add(CFA_XSP16, literal(-4)))
          CFI ?RET_LOW load(1, XDATA, add(CFA_XSP16, literal(-5)))
          CFI R7 load(1, XDATA, add(CFA_XSP16, literal(-6)))
          CFI V1 load(1, XDATA, add(CFA_XSP16, literal(-7)))
          CFI V0 load(1, XDATA, add(CFA_XSP16, literal(-8)))
          CFI VB load(1, XDATA, add(CFA_XSP16, literal(-9)))
          CFI R6 load(1, XDATA, add(CFA_XSP16, literal(-10)))
          CFI CFA_SP SP+0
          CFI CFA_XSP16 add(XSP16, 10)
        ; Saved register size: 10
        ; Auto size: 0
        MOV     A,R1
        MOV     R6,A
//  216   zllTransID = 0;
        MOV     DPTR,#zllTransID
        CLR     A
        MOVX    @DPTR,A
        INC     DPTR
        MOVX    @DPTR,A
        INC     DPTR
        MOVX    @DPTR,A
        INC     DPTR
        MOVX    @DPTR,A
//  217   zllJoinedHANetwork = FALSE;
        MOV     DPTR,#zllJoinedHANetwork
        MOVX    @DPTR,A
//  218   zllIsInitiator = initiator;
        MOV     A,R6
        MOV     DPTR,#zllIsInitiator
        MOVX    @DPTR,A
//  219 
//  220   if ( zll_IsFactoryNew() )
        ; Setup parameters for call to function zll_IsFactoryNew
        LCALL   ??zll_IsFactoryNew?relay
        MOV     A,R1
        JZ      ??zll_InitVariables_0
//  221   {
//  222     _NIB.nwkDevAddress = INVALID_NODE_ADDR;
        MOV     DPTR,#_NIB + 20
        MOV     A,#-0x2
        MOVX    @DPTR,A
        INC     DPTR
        INC     A
        SJMP    ??zll_InitVariables_1
//  223   }
//  224   else
//  225   {
//  226     if ( !APSME_IsDistributedSecurity() )
??zll_InitVariables_0:
        ; Setup parameters for call to function APSME_IsDistributedSecurity
        LCALL   ??APSME_IsDistributedSecurity?relay
        MOV     A,R1
        JNZ     ??zll_InitVariables_2
//  227     {
//  228       zllJoinedHANetwork = TRUE;
        MOV     DPTR,#zllJoinedHANetwork
        MOV     A,#0x1
??zll_InitVariables_1:
        MOVX    @DPTR,A
//  229     }
//  230   }
//  231 
//  232   // verify groups communication is initiated by broadcasts rather than multicasts
//  233   _NIB.nwkUseMultiCast = FALSE;
??zll_InitVariables_2:
        MOV     DPTR,#_NIB + 100
        CLR     A
        MOVX    @DPTR,A
//  234   // detect and remove stored deprecated end device children after power up
//  235   zgRouterOffAssocCleanup = TRUE;
        MOV     DPTR,#zgRouterOffAssocCleanup
        INC     A
        MOVX    @DPTR,A
//  236   osal_nv_write(ZCD_NV_ROUTER_OFF_ASSOC_CLEANUP, 0, sizeof(zgRouterOffAssocCleanup), &zgRouterOffAssocCleanup);
        ; Setup parameters for call to function osal_nv_write
        MOV     ?V0 + 0,#zgRouterOffAssocCleanup & 0xff
        MOV     ?V0 + 1,#(zgRouterOffAssocCleanup >> 8) & 0xff
        MOV     R0,#?V0 + 0
        LCALL   ?PUSH_XSTACK_I_TWO
          CFI CFA_XSP16 add(XSP16, 12)
        MOV     ?V0 + 0,#0x1
        MOV     ?V0 + 1,#0x0
        MOV     R0,#?V0 + 0
        LCALL   ?PUSH_XSTACK_I_TWO
          CFI CFA_XSP16 add(XSP16, 14)
        MOV     R4,#0x0
        MOV     R5,#0x0
        MOV     R2,#0x3c
        MOV     R3,#0x0
        LCALL   ??osal_nv_write?relay
        MOV     A,#0x4
        LCALL   ?DEALLOC_XSTACK8
          CFI CFA_XSP16 add(XSP16, 10)
//  237 
//  238   zll_InitFreeRanges( initiator );
        ; Setup parameters for call to function zll_InitFreeRanges
        MOV     A,R6
        MOV     R1,A
        LCALL   ??zll_InitFreeRanges?relay
//  239 
//  240   zll_InitNV();
        ; Setup parameters for call to function zll_ItemInit
        MOV     ?V0 + 0,#zllFreeNwkAddrBegin & 0xff
        MOV     ?V0 + 1,#(zllFreeNwkAddrBegin >> 8) & 0xff
        MOV     R0,#?V0 + 0
        LCALL   ?PUSH_XSTACK_I_TWO
          CFI CFA_XSP16 add(XSP16, 12)
        MOV     R4,#0x2
        MOV     R5,#0x0
        MOV     R2,#-0x6e
        MOV     R3,#0x0
        LCALL   ??zll_ItemInit?relay
        MOV     A,#0x2
        LCALL   ?DEALLOC_XSTACK8
          CFI CFA_XSP16 add(XSP16, 10)
        ; Setup parameters for call to function zll_ItemInit
        MOV     ?V0 + 0,#zllFreeNwkAddrEnd & 0xff
        MOV     ?V0 + 1,#(zllFreeNwkAddrEnd >> 8) & 0xff
        MOV     R0,#?V0 + 0
        LCALL   ?PUSH_XSTACK_I_TWO
          CFI CFA_XSP16 add(XSP16, 12)
        MOV     R4,#0x2
        MOV     R5,#0x0
        MOV     R2,#-0x6d
        MOV     R3,#0x0
        LCALL   ??zll_ItemInit?relay
        MOV     A,#0x2
        LCALL   ?DEALLOC_XSTACK8
          CFI CFA_XSP16 add(XSP16, 10)
        ; Setup parameters for call to function zll_ItemInit
        MOV     ?V0 + 0,#zllFreeGrpIdBegin & 0xff
        MOV     ?V0 + 1,#(zllFreeGrpIdBegin >> 8) & 0xff
        MOV     R0,#?V0 + 0
        LCALL   ?PUSH_XSTACK_I_TWO
          CFI CFA_XSP16 add(XSP16, 12)
        MOV     R4,#0x2
        MOV     R5,#0x0
        MOV     R2,#-0x6c
        MOV     R3,#0x0
        LCALL   ??zll_ItemInit?relay
        MOV     A,#0x2
        LCALL   ?DEALLOC_XSTACK8
          CFI CFA_XSP16 add(XSP16, 10)
        ; Setup parameters for call to function zll_ItemInit
        MOV     ?V0 + 0,#zllFreeGrpIdEnd & 0xff
        MOV     ?V0 + 1,#(zllFreeGrpIdEnd >> 8) & 0xff
        MOV     R0,#?V0 + 0
        LCALL   ?PUSH_XSTACK_I_TWO
          CFI CFA_XSP16 add(XSP16, 12)
        MOV     R4,#0x2
        MOV     R5,#0x0
        MOV     R2,#-0x6b
        MOV     R3,#0x0
        LCALL   ??zll_ItemInit?relay
        MOV     A,#0x2
        LCALL   ?DEALLOC_XSTACK8
          CFI CFA_XSP16 add(XSP16, 10)
        ; Setup parameters for call to function zll_ItemInit
        MOV     ?V0 + 0,#zllGrpIDsBegin & 0xff
        MOV     ?V0 + 1,#(zllGrpIDsBegin >> 8) & 0xff
        MOV     R0,#?V0 + 0
        LCALL   ?PUSH_XSTACK_I_TWO
          CFI CFA_XSP16 add(XSP16, 12)
        MOV     R4,#0x2
        MOV     R5,#0x0
        MOV     R2,#-0x6a
        MOV     R3,#0x0
        LCALL   ??zll_ItemInit?relay
        MOV     A,#0x2
        LCALL   ?DEALLOC_XSTACK8
          CFI CFA_XSP16 add(XSP16, 10)
        ; Setup parameters for call to function zll_ItemInit
        MOV     ?V0 + 0,#zllGrpIDsEnd & 0xff
        MOV     ?V0 + 1,#(zllGrpIDsEnd >> 8) & 0xff
        MOV     R0,#?V0 + 0
        LCALL   ?PUSH_XSTACK_I_TWO
          CFI CFA_XSP16 add(XSP16, 12)
        MOV     R4,#0x2
        MOV     R5,#0x0
        MOV     R2,#-0x69
        MOV     R3,#0x0
        LCALL   ??zll_ItemInit?relay
        MOV     A,#0x2
        LCALL   ?DEALLOC_XSTACK8
          CFI CFA_XSP16 add(XSP16, 10)
//  241 
//  242   zllLeaveInitiated = FALSE;
        MOV     DPTR,#zllLeaveInitiated
        CLR     A
        MOVX    @DPTR,A
//  243   zllHAScanInitiated = FALSE;
        MOV     DPTR,#zllHAScanInitiated
        MOVX    @DPTR,A
//  244 
//  245   // Initialize device info table
//  246   osal_memset( zllSubDevicesTbl, 0, sizeof( zllSubDevicesTbl ) );
        ; Setup parameters for call to function osal_memset
        MOV     R4,#0xa
        MOV     R5,A
        MOV     R1,A
        MOV     R2,#zllSubDevicesTbl & 0xff
        MOV     R3,#(zllSubDevicesTbl >> 8) & 0xff
        LCALL   ??osal_memset?relay
//  247 
//  248   //set ZLL default Link Key
//  249   zll_SetTCLK();
        ; Setup parameters for call to function zll_SetTCLK
        LCALL   ??zll_SetTCLK?relay
//  250 
//  251   // set broadcast address mask to support broadcast filtering
//  252   NLME_SetBroadcastFilter( ZDO_Config_Node_Descriptor.CapabilityFlags );
        ; Setup parameters for call to function NLME_SetBroadcastFilter
        MOV     DPTR,#ZDO_Config_Node_Descriptor + 2
        MOVX    A,@DPTR
        MOV     R1,A
        LCALL   ??NLME_SetBroadcastFilter?relay
//  253 }
        LJMP    ??Subroutine36_0 & 0xFFFF
          CFI EndBlock cfiBlock1
//  254 
//  255 /*********************************************************************
//  256  * @fn      zll_InitFreeRanges
//  257  *
//  258  * @brief   Initialize the ZLL free range global variables.
//  259  *
//  260  * @param   initiator - if caller is link initiator
//  261  *
//  262  * @return  none
//  263  */

        RSEG BANKED_CODE:CODE:NOROOT(0)
//  264 static void zll_InitFreeRanges( bool initiator )
zll_InitFreeRanges:
          CFI Block cfiBlock2 Using cfiCommon0
          CFI Function zll_InitFreeRanges
        CODE
//  265 {
        PUSH    DPL
          CFI DPL0 Frame(CFA_SP, 4)
          CFI CFA_SP SP+-4
        PUSH    DPH
          CFI DPH0 Frame(CFA_SP, 5)
          CFI CFA_SP SP+-5
        ; Saved register size: 2
        ; Auto size: 0
//  266   // Initialize our free network address and group ID ranges
//  267   if ( initiator )
        MOV     A,R1
        JZ      ??zll_InitFreeRanges_0
//  268   {
//  269     zllFreeNwkAddrBegin = ZLL_ADDR_MIN;
        MOV     DPTR,#zllFreeNwkAddrBegin
        MOV     A,#0x1
        MOVX    @DPTR,A
        INC     DPTR
        CLR     A
        MOVX    @DPTR,A
//  270     zllFreeNwkAddrEnd = ZLL_ADDR_MAX;
        MOV     DPTR,#zllFreeNwkAddrEnd
        MOV     A,#-0x9
        MOVX    @DPTR,A
        INC     DPTR
        MOV     A,#-0x1
        MOVX    @DPTR,A
//  271 
//  272     zllFreeGrpIdBegin = ZLL_GRP_ID_MIN;
        MOV     DPTR,#zllFreeGrpIdBegin
        MOV     A,#0x1
        MOVX    @DPTR,A
        INC     DPTR
        CLR     A
        MOVX    @DPTR,A
//  273     zllFreeGrpIdEnd = ZLL_GRP_ID_MAX;
        MOV     DPTR,#zllFreeGrpIdEnd
        MOV     A,#-0x1
        MOVX    @DPTR,A
        INC     DPTR
        DEC     A
        SJMP    ??CrossCallReturnLabel_32
//  274   }
//  275   else
//  276   {
//  277     zllFreeNwkAddrBegin = zllFreeNwkAddrEnd = 0;
??zll_InitFreeRanges_0:
        MOV     DPTR,#zllFreeNwkAddrEnd
        CLR     A
        LCALL   ?Subroutine23 & 0xFFFF
//  278     zllFreeGrpIdBegin = zllFreeGrpIdEnd = 0;
??CrossCallReturnLabel_28:
        MOV     DPTR,#zllFreeGrpIdEnd
        LCALL   ?Subroutine25 & 0xFFFF
//  279   }
??CrossCallReturnLabel_32:
        MOVX    @DPTR,A
//  280 
//  281   // Initialize our local group ID range
//  282   zllGrpIDsBegin = zllGrpIDsEnd = 0;
        MOV     DPTR,#zllGrpIDsEnd
        CLR     A
        MOVX    @DPTR,A
        INC     DPTR
        MOVX    @DPTR,A
        MOV     DPTR,#zllGrpIDsBegin
        MOVX    @DPTR,A
        INC     DPTR
        MOVX    @DPTR,A
//  283 }
        LJMP    ??Subroutine39_0 & 0xFFFF
          CFI EndBlock cfiBlock2
//  284 
//  285 /*********************************************************************
//  286  * @fn      zll_RegisterApp
//  287  *
//  288  * @brief   Register an Application's EndPoint with the ZLL.
//  289  *
//  290  * @param   simpleDesc - application simple description
//  291  * @param   numGrpIDs - number of unique group IDs required by application
//  292  *
//  293  * @return  ZSuccess - Registered
//  294  *          ZInvalidParameter - invalid or duplicate endpoint
//  295  *          ZMemError - not enough memory to add
//  296  */

        RSEG BANKED_CODE:CODE:NOROOT(0)
//  297 ZStatus_t zll_RegisterApp( SimpleDescriptionFormat_t *simpleDesc, zclLLDeviceInfo_t *pDeviceInfo )
zll_RegisterApp:
          CFI Block cfiBlock3 Using cfiCommon0
          CFI Function zll_RegisterApp
        CODE
//  298 {
        FUNCALL zll_RegisterApp, zll_RegisterSimpleDesc
        LOCFRAME ISTACK, 0, STACK
        LOCFRAME PSTACK, 0, STACK
        LOCFRAME XSTACK, 10, STACK
        LOCFRAME IOVERLAY, 0, STATIC
        LOCFRAME DOVERLAY, 0, STATIC
        ARGFRAME ISTACK, 0, STACK
        ARGFRAME PSTACK, 0, STACK
        ARGFRAME XSTACK, 10, STACK
        ARGFRAME IOVERLAY, 0, STATIC
        ARGFRAME DOVERLAY, 0, STATIC
        MOV     A,#-0xa
        LCALL   ?BANKED_ENTER_XDATA
          CFI DPH0 load(1, XDATA, add(CFA_XSP16, literal(-1)))
          CFI DPL0 load(1, XDATA, add(CFA_XSP16, literal(-2)))
          CFI ?BRET_EXT load(1, XDATA, add(CFA_XSP16, literal(-3)))
          CFI ?RET_HIGH load(1, XDATA, add(CFA_XSP16, literal(-4)))
          CFI ?RET_LOW load(1, XDATA, add(CFA_XSP16, literal(-5)))
          CFI R7 load(1, XDATA, add(CFA_XSP16, literal(-6)))
          CFI V1 load(1, XDATA, add(CFA_XSP16, literal(-7)))
          CFI V0 load(1, XDATA, add(CFA_XSP16, literal(-8)))
          CFI VB load(1, XDATA, add(CFA_XSP16, literal(-9)))
          CFI R6 load(1, XDATA, add(CFA_XSP16, literal(-10)))
          CFI CFA_SP SP+0
          CFI CFA_XSP16 add(XSP16, 10)
        ; Saved register size: 10
        ; Auto size: 0
        MOV     ?V0 + 0,R4
        MOV     ?V0 + 1,R5
//  299   zclLLDeviceInfo_t **pSubDevice = NULL;
//  300   ZStatus_t status;
//  301 
//  302   // Make sure the endpoint is valid
//  303   if ( ( simpleDesc->EndPoint != pDeviceInfo->endpoint ) || ( pDeviceInfo->profileID != ZLL_PROFILE_ID ) )
        MOV     DPL,R2
        MOV     DPH,R3
        MOVX    A,@DPTR
        MOV     R0,A
        MOV     DPL,R4
        MOV     DPH,R5
        MOVX    A,@DPTR
        XRL     A,R0
        JNZ     ??zll_RegisterApp_0
        INC     DPTR
        MOVX    A,@DPTR
        XRL     A,#0x5e
        JNZ     ??zll_RegisterApp_1
        INC     DPTR
        MOVX    A,@DPTR
        XRL     A,#0xc0
??zll_RegisterApp_1:
        JZ      ??zll_RegisterApp_2
//  304   {
//  305     return ( ZInvalidParameter ); // invalid endpoint
??zll_RegisterApp_0:
        MOV     R1,#0x2
        SJMP    ??zll_RegisterApp_3
//  306   }
//  307 
//  308   // find the first empty entry in the device info table
//  309   for ( uint8 i = 0; i < ZLL_NUM_DEVICE_INFO_ENTRIES; i++ )
??zll_RegisterApp_2:
        MOV     R6,#0x0
//  310   {
//  311     if ( zllSubDevicesTbl[i] == NULL )
??zll_RegisterApp_4:
        MOV     A,R6
        CLR     C
        RLC     A
        MOV     R0,A
        CLR     A
        RLC     A
        MOV     R1,A
        MOV     A,#zllSubDevicesTbl & 0xff
        ADD     A,R0
        MOV     R0,A
        MOV     A,#(zllSubDevicesTbl >> 8) & 0xff
        ADDC    A,R1
        MOV     R1,A
        MOV     DPL,R0
        MOV     DPH,R1
        LCALL   ??Subroutine44_0 & 0xFFFF
??CrossCallReturnLabel_105:
        MOV     A,R4
        ORL     A,R5
        JNZ     ??zll_RegisterApp_5
//  312     {
//  313        pSubDevice = zllSubDevicesTbl+i;
        MOV     A,R0
        MOV     R6,A
        MOV     A,R1
        MOV     R7,A
//  314        break;
//  315     }
//  316   }
//  317   if ( pSubDevice == NULL )
//  318   {
//  319     // Device info table is full
//  320     return ( ZMemError );
//  321   }
//  322 
//  323   status = zll_RegisterSimpleDesc( simpleDesc );
        ; Setup parameters for call to function zll_RegisterSimpleDesc
        LCALL   ??zll_RegisterSimpleDesc?relay
        MOV     A,R1
//  324   if ( status != ZSuccess )
        JNZ     ??zll_RegisterApp_3
//  325   {
//  326     return status;
//  327   }
//  328 
//  329   // Add the device info to the table
//  330   *pSubDevice = pDeviceInfo;
        MOV     DPL,R6
        MOV     DPH,R7
        MOV     A,?V0 + 0
        MOVX    @DPTR,A
        INC     DPTR
        MOV     A,?V0 + 1
        MOVX    @DPTR,A
//  331 
//  332   return ( ZSuccess );
        MOV     R1,#0x0
??zll_RegisterApp_3:
        LJMP    ??Subroutine36_0 & 0xFFFF
??zll_RegisterApp_5:
        INC     R6
        MOV     A,R6
        CLR     C
        SUBB    A,#0x5
        JC      ??zll_RegisterApp_4
        MOV     R1,#0x10
        SJMP    ??zll_RegisterApp_3
          CFI EndBlock cfiBlock3
//  333 }
//  334 
//  335 /*********************************************************************
//  336  * @fn      zll_IsFactoryNew
//  337  *
//  338  * @brief   Check to see if the device is factory new.
//  339  *
//  340  * @param   none
//  341  *
//  342  * @return  TRUE if factory new. FALSE, otherwise.
//  343  */

        RSEG BANKED_CODE:CODE:NOROOT(0)
//  344 bool zll_IsFactoryNew( void )
zll_IsFactoryNew:
          CFI Block cfiBlock4 Using cfiCommon0
          CFI Function zll_IsFactoryNew
        CODE
//  345 {
        FUNCALL zll_IsFactoryNew, osal_nv_read
        LOCFRAME ISTACK, 0, STACK
        LOCFRAME PSTACK, 0, STACK
        LOCFRAME XSTACK, 16, STACK
        LOCFRAME IOVERLAY, 0, STATIC
        LOCFRAME DOVERLAY, 0, STATIC
        ARGFRAME ISTACK, 0, STACK
        ARGFRAME PSTACK, 0, STACK
        ARGFRAME XSTACK, 16, STACK
        ARGFRAME IOVERLAY, 0, STATIC
        ARGFRAME DOVERLAY, 0, STATIC
        MOV     A,#-0xa
        LCALL   ?BANKED_ENTER_XDATA
          CFI DPH0 load(1, XDATA, add(CFA_XSP16, literal(-1)))
          CFI DPL0 load(1, XDATA, add(CFA_XSP16, literal(-2)))
          CFI ?BRET_EXT load(1, XDATA, add(CFA_XSP16, literal(-3)))
          CFI ?RET_HIGH load(1, XDATA, add(CFA_XSP16, literal(-4)))
          CFI ?RET_LOW load(1, XDATA, add(CFA_XSP16, literal(-5)))
          CFI R7 load(1, XDATA, add(CFA_XSP16, literal(-6)))
          CFI V1 load(1, XDATA, add(CFA_XSP16, literal(-7)))
          CFI V0 load(1, XDATA, add(CFA_XSP16, literal(-8)))
          CFI VB load(1, XDATA, add(CFA_XSP16, literal(-9)))
          CFI R6 load(1, XDATA, add(CFA_XSP16, literal(-10)))
          CFI CFA_SP SP+0
          CFI CFA_XSP16 add(XSP16, 10)
        ; Saved register size: 10
        ; Auto size: 2
        MOV     A,#-0x2
        LCALL   ?ALLOC_XSTACK8
          CFI CFA_XSP16 add(XSP16, 12)
//  346   uint16 nwkAddr = INVALID_NODE_ADDR;
        MOV     DPL,?XSP + 0
        MOV     DPH,?XSP + 1
        LCALL   ?Subroutine26 & 0xFFFF
//  347 
//  348   osal_nv_read( ZCD_NV_NIB, osal_offsetof( nwkIB_t, nwkDevAddress ),
//  349                 sizeof( uint16), &nwkAddr );
??CrossCallReturnLabel_49:
        ; Setup parameters for call to function osal_nv_read
        MOV     DPL,?XSP + 0
        MOV     DPH,?XSP + 1
        MOV     ?V0 + 0,DPL
        MOV     ?V0 + 1,DPH
        MOV     R0,#?V0 + 0
        LCALL   ?PUSH_XSTACK_I_TWO
          CFI CFA_XSP16 add(XSP16, 14)
        MOV     ?V0 + 0,#0x2
        MOV     ?V0 + 1,#0x0
        MOV     R0,#?V0 + 0
        LCALL   ?PUSH_XSTACK_I_TWO
          CFI CFA_XSP16 add(XSP16, 16)
        MOV     R4,#0x14
        MOV     R5,#0x0
        MOV     R2,#0x21
        MOV     R3,#0x0
        LCALL   ??osal_nv_read?relay
        MOV     A,#0x4
        LCALL   ?DEALLOC_XSTACK8
          CFI CFA_XSP16 add(XSP16, 12)
//  350 
//  351   // Does the NIB have anything more than default?
//  352   return ( nwkAddr == INVALID_NODE_ADDR ? TRUE : FALSE );
        MOV     DPL,?XSP + 0
        MOV     DPH,?XSP + 1
        MOVX    A,@DPTR
        XRL     A,#0xfe
        JNZ     ??zll_IsFactoryNew_0
        INC     DPTR
        MOVX    A,@DPTR
        CPL     A
??zll_IsFactoryNew_0:
        JNZ     ??zll_IsFactoryNew_1
        MOV     R1,#0x1
        SJMP    ??zll_IsFactoryNew_2
??zll_IsFactoryNew_1:
        MOV     R1,#0x0
??zll_IsFactoryNew_2:
        MOV     A,#0x2
        LJMP    ?Subroutine0 & 0xFFFF
          CFI EndBlock cfiBlock4
//  353 }

        RSEG BANKED_CODE:CODE:NOROOT(0)
?Subroutine26:
          CFI Block cfiCond5 Using cfiCommon0
          CFI Function zll_IsFactoryNew
          CFI Conditional ??CrossCallReturnLabel_49
          CFI R6 load(1, XDATA, add(CFA_XSP16, literal(-10)))
          CFI VB load(1, XDATA, add(CFA_XSP16, literal(-9)))
          CFI V0 load(1, XDATA, add(CFA_XSP16, literal(-8)))
          CFI V1 load(1, XDATA, add(CFA_XSP16, literal(-7)))
          CFI R7 load(1, XDATA, add(CFA_XSP16, literal(-6)))
          CFI ?RET_LOW load(1, XDATA, add(CFA_XSP16, literal(-5)))
          CFI ?RET_HIGH load(1, XDATA, add(CFA_XSP16, literal(-4)))
          CFI ?BRET_EXT load(1, XDATA, add(CFA_XSP16, literal(-3)))
          CFI DPL0 load(1, XDATA, add(CFA_XSP16, literal(-2)))
          CFI DPH0 load(1, XDATA, add(CFA_XSP16, literal(-1)))
          CFI CFA_SP SP+0
          CFI CFA_XSP16 add(XSP16, 12)
          CFI Block cfiCond6 Using cfiCommon0
          CFI (cfiCond6) Function zll_SetNIB
          CFI (cfiCond6) Conditional ??CrossCallReturnLabel_50
          CFI (cfiCond6) R6 load(1, XDATA, add(CFA_XSP16, literal(-13)))
          CFI (cfiCond6) VB load(1, XDATA, add(CFA_XSP16, literal(-12)))
          CFI (cfiCond6) V0 load(1, XDATA, add(CFA_XSP16, literal(-11)))
          CFI (cfiCond6) V1 load(1, XDATA, add(CFA_XSP16, literal(-10)))
          CFI (cfiCond6) V2 load(1, XDATA, add(CFA_XSP16, literal(-9)))
          CFI (cfiCond6) V3 load(1, XDATA, add(CFA_XSP16, literal(-8)))
          CFI (cfiCond6) V4 load(1, XDATA, add(CFA_XSP16, literal(-7)))
          CFI (cfiCond6) R7 load(1, XDATA, add(CFA_XSP16, literal(-6)))
          CFI (cfiCond6) ?RET_LOW load(1, XDATA, add(CFA_XSP16, literal(-5)))
          CFI (cfiCond6) ?RET_HIGH load(1, XDATA, add(CFA_XSP16, literal(-4)))
          CFI (cfiCond6) ?BRET_EXT load(1, XDATA, add(CFA_XSP16, literal(-3)))
          CFI (cfiCond6) DPL0 load(1, XDATA, add(CFA_XSP16, literal(-2)))
          CFI (cfiCond6) DPH0 load(1, XDATA, add(CFA_XSP16, literal(-1)))
          CFI (cfiCond6) CFA_SP SP+0
          CFI (cfiCond6) CFA_XSP16 add(XSP16, 13)
          CFI Block cfiCond7 Using cfiCommon0
          CFI (cfiCond7) Function zll_ResetToFactoryNew
          CFI (cfiCond7) Conditional ??CrossCallReturnLabel_51
          CFI (cfiCond7) R6 load(1, XDATA, add(CFA_XSP16, literal(-9)))
          CFI (cfiCond7) VB load(1, XDATA, add(CFA_XSP16, literal(-8)))
          CFI (cfiCond7) V0 load(1, XDATA, add(CFA_XSP16, literal(-7)))
          CFI (cfiCond7) R7 load(1, XDATA, add(CFA_XSP16, literal(-6)))
          CFI (cfiCond7) ?RET_LOW load(1, XDATA, add(CFA_XSP16, literal(-5)))
          CFI (cfiCond7) ?RET_HIGH load(1, XDATA, add(CFA_XSP16, literal(-4)))
          CFI (cfiCond7) ?BRET_EXT load(1, XDATA, add(CFA_XSP16, literal(-3)))
          CFI (cfiCond7) DPL0 load(1, XDATA, add(CFA_XSP16, literal(-2)))
          CFI (cfiCond7) DPH0 load(1, XDATA, add(CFA_XSP16, literal(-1)))
          CFI (cfiCond7) CFA_SP SP+0
          CFI (cfiCond7) CFA_XSP16 add(XSP16, 9)
          CFI Block cfiCond8 Using cfiCommon0
          CFI (cfiCond8) Function zll_BeaconIndCB
          CFI (cfiCond8) Conditional ??CrossCallReturnLabel_52
          CFI (cfiCond8) R6 load(1, XDATA, add(CFA_XSP16, literal(-20)))
          CFI (cfiCond8) VB load(1, XDATA, add(CFA_XSP16, literal(-19)))
          CFI (cfiCond8) V0 load(1, XDATA, add(CFA_XSP16, literal(-18)))
          CFI (cfiCond8) V1 load(1, XDATA, add(CFA_XSP16, literal(-17)))
          CFI (cfiCond8) V2 load(1, XDATA, add(CFA_XSP16, literal(-16)))
          CFI (cfiCond8) V3 load(1, XDATA, add(CFA_XSP16, literal(-15)))
          CFI (cfiCond8) V4 load(1, XDATA, add(CFA_XSP16, literal(-14)))
          CFI (cfiCond8) V5 load(1, XDATA, add(CFA_XSP16, literal(-13)))
          CFI (cfiCond8) V6 load(1, XDATA, add(CFA_XSP16, literal(-12)))
          CFI (cfiCond8) V7 load(1, XDATA, add(CFA_XSP16, literal(-11)))
          CFI (cfiCond8) V8 load(1, XDATA, add(CFA_XSP16, literal(-10)))
          CFI (cfiCond8) V9 load(1, XDATA, add(CFA_XSP16, literal(-9)))
          CFI (cfiCond8) V10 load(1, XDATA, add(CFA_XSP16, literal(-8)))
          CFI (cfiCond8) V11 load(1, XDATA, add(CFA_XSP16, literal(-7)))
          CFI (cfiCond8) R7 load(1, XDATA, add(CFA_XSP16, literal(-6)))
          CFI (cfiCond8) ?RET_LOW load(1, XDATA, add(CFA_XSP16, literal(-5)))
          CFI (cfiCond8) ?RET_HIGH load(1, XDATA, add(CFA_XSP16, literal(-4)))
          CFI (cfiCond8) ?BRET_EXT load(1, XDATA, add(CFA_XSP16, literal(-3)))
          CFI (cfiCond8) DPL0 load(1, XDATA, add(CFA_XSP16, literal(-2)))
          CFI (cfiCond8) DPH0 load(1, XDATA, add(CFA_XSP16, literal(-1)))
          CFI (cfiCond8) CFA_SP SP+0
          CFI (cfiCond8) CFA_XSP16 add(XSP16, 20)
          CFI Block cfiPicker9 Using cfiCommon1
          CFI (cfiPicker9) NoFunction
          CFI (cfiPicker9) Picker
        MOV     A,#-0x2
          CFI EndBlock cfiCond5
          CFI EndBlock cfiCond6
          CFI EndBlock cfiCond7
          CFI EndBlock cfiCond8
          CFI EndBlock cfiPicker9
        REQUIRE ??Subroutine35_0
        ; // Fall through to label ??Subroutine35_0

        RSEG BANKED_CODE:CODE:NOROOT(0)
??Subroutine35_0:
          CFI Block cfiCond10 Using cfiCommon0
          CFI Function zll_SetNIB
          CFI Conditional ??CrossCallReturnLabel_47
          CFI R6 load(1, XDATA, add(CFA_XSP16, literal(-13)))
          CFI VB load(1, XDATA, add(CFA_XSP16, literal(-12)))
          CFI V0 load(1, XDATA, add(CFA_XSP16, literal(-11)))
          CFI V1 load(1, XDATA, add(CFA_XSP16, literal(-10)))
          CFI V2 load(1, XDATA, add(CFA_XSP16, literal(-9)))
          CFI V3 load(1, XDATA, add(CFA_XSP16, literal(-8)))
          CFI V4 load(1, XDATA, add(CFA_XSP16, literal(-7)))
          CFI R7 load(1, XDATA, add(CFA_XSP16, literal(-6)))
          CFI ?RET_LOW load(1, XDATA, add(CFA_XSP16, literal(-5)))
          CFI ?RET_HIGH load(1, XDATA, add(CFA_XSP16, literal(-4)))
          CFI ?BRET_EXT load(1, XDATA, add(CFA_XSP16, literal(-3)))
          CFI DPL0 load(1, XDATA, add(CFA_XSP16, literal(-2)))
          CFI DPH0 load(1, XDATA, add(CFA_XSP16, literal(-1)))
          CFI CFA_SP SP+0
          CFI CFA_XSP16 add(XSP16, 13)
          CFI Block cfiCond11 Using cfiCommon0
          CFI (cfiCond11) Function zll_ResetToFactoryNew
          CFI (cfiCond11) Conditional ??CrossCallReturnLabel_48
          CFI (cfiCond11) R6 load(1, XDATA, add(CFA_XSP16, literal(-9)))
          CFI (cfiCond11) VB load(1, XDATA, add(CFA_XSP16, literal(-8)))
          CFI (cfiCond11) V0 load(1, XDATA, add(CFA_XSP16, literal(-7)))
          CFI (cfiCond11) R7 load(1, XDATA, add(CFA_XSP16, literal(-6)))
          CFI (cfiCond11) ?RET_LOW load(1, XDATA, add(CFA_XSP16, literal(-5)))
          CFI (cfiCond11) ?RET_HIGH load(1, XDATA, add(CFA_XSP16, literal(-4)))
          CFI (cfiCond11) ?BRET_EXT load(1, XDATA, add(CFA_XSP16, literal(-3)))
          CFI (cfiCond11) DPL0 load(1, XDATA, add(CFA_XSP16, literal(-2)))
          CFI (cfiCond11) DPH0 load(1, XDATA, add(CFA_XSP16, literal(-1)))
          CFI (cfiCond11) CFA_SP SP+0
          CFI (cfiCond11) CFA_XSP16 add(XSP16, 9)
          CFI Block cfiCond12 Using cfiCommon0
          CFI (cfiCond12) Function zll_IsFactoryNew
          CFI (cfiCond12) Conditional ??CrossCallReturnLabel_49
          CFI (cfiCond12) R6 load(1, XDATA, add(CFA_XSP16, literal(-10)))
          CFI (cfiCond12) VB load(1, XDATA, add(CFA_XSP16, literal(-9)))
          CFI (cfiCond12) V0 load(1, XDATA, add(CFA_XSP16, literal(-8)))
          CFI (cfiCond12) V1 load(1, XDATA, add(CFA_XSP16, literal(-7)))
          CFI (cfiCond12) R7 load(1, XDATA, add(CFA_XSP16, literal(-6)))
          CFI (cfiCond12) ?RET_LOW load(1, XDATA, add(CFA_XSP16, literal(-5)))
          CFI (cfiCond12) ?RET_HIGH load(1, XDATA, add(CFA_XSP16, literal(-4)))
          CFI (cfiCond12) ?BRET_EXT load(1, XDATA, add(CFA_XSP16, literal(-3)))
          CFI (cfiCond12) DPL0 load(1, XDATA, add(CFA_XSP16, literal(-2)))
          CFI (cfiCond12) DPH0 load(1, XDATA, add(CFA_XSP16, literal(-1)))
          CFI (cfiCond12) CFA_SP SP+0
          CFI (cfiCond12) CFA_XSP16 add(XSP16, 12)
          CFI Block cfiCond13 Using cfiCommon0
          CFI (cfiCond13) Function zll_SetNIB
          CFI (cfiCond13) Conditional ??CrossCallReturnLabel_50
          CFI (cfiCond13) R6 load(1, XDATA, add(CFA_XSP16, literal(-13)))
          CFI (cfiCond13) VB load(1, XDATA, add(CFA_XSP16, literal(-12)))
          CFI (cfiCond13) V0 load(1, XDATA, add(CFA_XSP16, literal(-11)))
          CFI (cfiCond13) V1 load(1, XDATA, add(CFA_XSP16, literal(-10)))
          CFI (cfiCond13) V2 load(1, XDATA, add(CFA_XSP16, literal(-9)))
          CFI (cfiCond13) V3 load(1, XDATA, add(CFA_XSP16, literal(-8)))
          CFI (cfiCond13) V4 load(1, XDATA, add(CFA_XSP16, literal(-7)))
          CFI (cfiCond13) R7 load(1, XDATA, add(CFA_XSP16, literal(-6)))
          CFI (cfiCond13) ?RET_LOW load(1, XDATA, add(CFA_XSP16, literal(-5)))
          CFI (cfiCond13) ?RET_HIGH load(1, XDATA, add(CFA_XSP16, literal(-4)))
          CFI (cfiCond13) ?BRET_EXT load(1, XDATA, add(CFA_XSP16, literal(-3)))
          CFI (cfiCond13) DPL0 load(1, XDATA, add(CFA_XSP16, literal(-2)))
          CFI (cfiCond13) DPH0 load(1, XDATA, add(CFA_XSP16, literal(-1)))
          CFI (cfiCond13) CFA_SP SP+0
          CFI (cfiCond13) CFA_XSP16 add(XSP16, 13)
          CFI Block cfiCond14 Using cfiCommon0
          CFI (cfiCond14) Function zll_ResetToFactoryNew
          CFI (cfiCond14) Conditional ??CrossCallReturnLabel_51
          CFI (cfiCond14) R6 load(1, XDATA, add(CFA_XSP16, literal(-9)))
          CFI (cfiCond14) VB load(1, XDATA, add(CFA_XSP16, literal(-8)))
          CFI (cfiCond14) V0 load(1, XDATA, add(CFA_XSP16, literal(-7)))
          CFI (cfiCond14) R7 load(1, XDATA, add(CFA_XSP16, literal(-6)))
          CFI (cfiCond14) ?RET_LOW load(1, XDATA, add(CFA_XSP16, literal(-5)))
          CFI (cfiCond14) ?RET_HIGH load(1, XDATA, add(CFA_XSP16, literal(-4)))
          CFI (cfiCond14) ?BRET_EXT load(1, XDATA, add(CFA_XSP16, literal(-3)))
          CFI (cfiCond14) DPL0 load(1, XDATA, add(CFA_XSP16, literal(-2)))
          CFI (cfiCond14) DPH0 load(1, XDATA, add(CFA_XSP16, literal(-1)))
          CFI (cfiCond14) CFA_SP SP+0
          CFI (cfiCond14) CFA_XSP16 add(XSP16, 9)
          CFI Block cfiCond15 Using cfiCommon0
          CFI (cfiCond15) Function zll_BeaconIndCB
          CFI (cfiCond15) Conditional ??CrossCallReturnLabel_52
          CFI (cfiCond15) R6 load(1, XDATA, add(CFA_XSP16, literal(-20)))
          CFI (cfiCond15) VB load(1, XDATA, add(CFA_XSP16, literal(-19)))
          CFI (cfiCond15) V0 load(1, XDATA, add(CFA_XSP16, literal(-18)))
          CFI (cfiCond15) V1 load(1, XDATA, add(CFA_XSP16, literal(-17)))
          CFI (cfiCond15) V2 load(1, XDATA, add(CFA_XSP16, literal(-16)))
          CFI (cfiCond15) V3 load(1, XDATA, add(CFA_XSP16, literal(-15)))
          CFI (cfiCond15) V4 load(1, XDATA, add(CFA_XSP16, literal(-14)))
          CFI (cfiCond15) V5 load(1, XDATA, add(CFA_XSP16, literal(-13)))
          CFI (cfiCond15) V6 load(1, XDATA, add(CFA_XSP16, literal(-12)))
          CFI (cfiCond15) V7 load(1, XDATA, add(CFA_XSP16, literal(-11)))
          CFI (cfiCond15) V8 load(1, XDATA, add(CFA_XSP16, literal(-10)))
          CFI (cfiCond15) V9 load(1, XDATA, add(CFA_XSP16, literal(-9)))
          CFI (cfiCond15) V10 load(1, XDATA, add(CFA_XSP16, literal(-8)))
          CFI (cfiCond15) V11 load(1, XDATA, add(CFA_XSP16, literal(-7)))
          CFI (cfiCond15) R7 load(1, XDATA, add(CFA_XSP16, literal(-6)))
          CFI (cfiCond15) ?RET_LOW load(1, XDATA, add(CFA_XSP16, literal(-5)))
          CFI (cfiCond15) ?RET_HIGH load(1, XDATA, add(CFA_XSP16, literal(-4)))
          CFI (cfiCond15) ?BRET_EXT load(1, XDATA, add(CFA_XSP16, literal(-3)))
          CFI (cfiCond15) DPL0 load(1, XDATA, add(CFA_XSP16, literal(-2)))
          CFI (cfiCond15) DPH0 load(1, XDATA, add(CFA_XSP16, literal(-1)))
          CFI (cfiCond15) CFA_SP SP+0
          CFI (cfiCond15) CFA_XSP16 add(XSP16, 20)
          CFI Block cfiPicker16 Using cfiCommon1
          CFI (cfiPicker16) NoFunction
          CFI (cfiPicker16) Picker
        MOVX    @DPTR,A
        INC     DPTR
        INC     A
        MOVX    @DPTR,A
        RET
          CFI EndBlock cfiCond10
          CFI EndBlock cfiCond11
          CFI EndBlock cfiCond12
          CFI EndBlock cfiCond13
          CFI EndBlock cfiCond14
          CFI EndBlock cfiCond15
          CFI EndBlock cfiPicker16
//  354 
//  355 /*********************************************************************
//  356  * @fn      zll_UpdateFreeRanges
//  357  *
//  358  * @brief   Update the ZLL free range global variables.
//  359  *
//  360  * @param   pParams - new parameters
//  361  *
//  362  * @return  none
//  363  */

        RSEG BANKED_CODE:CODE:NOROOT(0)
//  364 void zll_UpdateFreeRanges( zclLLNwkParams_t *pParams )
zll_UpdateFreeRanges:
          CFI Block cfiBlock17 Using cfiCommon0
          CFI Function zll_UpdateFreeRanges
        CODE
//  365 {
        PUSH    DPL
          CFI DPL0 Frame(CFA_SP, 4)
          CFI CFA_SP SP+-4
        PUSH    DPH
          CFI DPH0 Frame(CFA_SP, 5)
          CFI CFA_SP SP+-5
        ; Saved register size: 2
        ; Auto size: 0
//  366   // Set our free network address and group ID ranges
//  367   zllFreeNwkAddrBegin = pParams->freeNwkAddrBegin;
        MOV     A,R2
        ADD     A,#0x22
        LCALL   ?Subroutine13 & 0xFFFF
??CrossCallReturnLabel_99:
        MOV     DPTR,#zllFreeNwkAddrBegin
        LCALL   ?Subroutine18 & 0xFFFF
//  368   zllFreeNwkAddrEnd = pParams->freeNwkAddrEnd;
??CrossCallReturnLabel_17:
        ADD     A,#0x24
        LCALL   ?Subroutine13 & 0xFFFF
??CrossCallReturnLabel_100:
        MOV     DPTR,#zllFreeNwkAddrEnd
        LCALL   ?Subroutine18 & 0xFFFF
//  369   zllFreeGrpIdBegin = pParams->freeGrpIDBegin;
??CrossCallReturnLabel_18:
        ADD     A,#0x26
        LCALL   ?Subroutine13 & 0xFFFF
??CrossCallReturnLabel_101:
        MOV     DPTR,#zllFreeGrpIdBegin
        LCALL   ?Subroutine18 & 0xFFFF
//  370   zllFreeGrpIdEnd = pParams->freeGrpIDEnd;
??CrossCallReturnLabel_19:
        ADD     A,#0x28
        LCALL   ?Subroutine13 & 0xFFFF
??CrossCallReturnLabel_102:
        MOV     DPTR,#zllFreeGrpIdEnd
        LCALL   ?Subroutine18 & 0xFFFF
//  371 
//  372   // Set our group ID range
//  373   zllGrpIDsBegin = pParams->grpIDsBegin;
??CrossCallReturnLabel_20:
        ADD     A,#0x1e
        LCALL   ?Subroutine13 & 0xFFFF
??CrossCallReturnLabel_103:
        MOV     DPTR,#zllGrpIDsBegin
        LCALL   ?Subroutine18 & 0xFFFF
//  374   zllGrpIDsEnd = pParams->grpIDsEnd;
??CrossCallReturnLabel_21:
        ADD     A,#0x20
        LCALL   ?Subroutine13 & 0xFFFF
??CrossCallReturnLabel_104:
        MOV     DPTR,#zllGrpIDsEnd
        LCALL   ?Subroutine19 & 0xFFFF
//  375 }
??CrossCallReturnLabel_56:
        LJMP    ??Subroutine39_0 & 0xFFFF
          CFI EndBlock cfiBlock17

        RSEG BANKED_CODE:CODE:NOROOT(0)
?Subroutine18:
          CFI Block cfiCond18 Using cfiCommon0
          CFI Function zll_UpdateFreeRanges
          CFI Conditional ??CrossCallReturnLabel_17
          CFI DPL0 Frame(CFA_SP, 4)
          CFI DPH0 Frame(CFA_SP, 5)
          CFI CFA_SP SP+-5
          CFI Block cfiCond19 Using cfiCommon0
          CFI (cfiCond19) Function zll_UpdateFreeRanges
          CFI (cfiCond19) Conditional ??CrossCallReturnLabel_18
          CFI (cfiCond19) DPL0 Frame(CFA_SP, 4)
          CFI (cfiCond19) DPH0 Frame(CFA_SP, 5)
          CFI (cfiCond19) CFA_SP SP+-5
          CFI Block cfiCond20 Using cfiCommon0
          CFI (cfiCond20) Function zll_UpdateFreeRanges
          CFI (cfiCond20) Conditional ??CrossCallReturnLabel_19
          CFI (cfiCond20) DPL0 Frame(CFA_SP, 4)
          CFI (cfiCond20) DPH0 Frame(CFA_SP, 5)
          CFI (cfiCond20) CFA_SP SP+-5
          CFI Block cfiCond21 Using cfiCommon0
          CFI (cfiCond21) Function zll_UpdateFreeRanges
          CFI (cfiCond21) Conditional ??CrossCallReturnLabel_20
          CFI (cfiCond21) DPL0 Frame(CFA_SP, 4)
          CFI (cfiCond21) DPH0 Frame(CFA_SP, 5)
          CFI (cfiCond21) CFA_SP SP+-5
          CFI Block cfiCond22 Using cfiCommon0
          CFI (cfiCond22) Function zll_UpdateFreeRanges
          CFI (cfiCond22) Conditional ??CrossCallReturnLabel_21
          CFI (cfiCond22) DPL0 Frame(CFA_SP, 4)
          CFI (cfiCond22) DPH0 Frame(CFA_SP, 5)
          CFI (cfiCond22) CFA_SP SP+-5
          CFI Block cfiPicker23 Using cfiCommon1
          CFI (cfiPicker23) NoFunction
          CFI (cfiPicker23) Picker
        MOV     A,R0
        MOVX    @DPTR,A
        INC     DPTR
        MOV     A,R1
        MOVX    @DPTR,A
        MOV     A,R2
        RET
          CFI EndBlock cfiCond18
          CFI EndBlock cfiCond19
          CFI EndBlock cfiCond20
          CFI EndBlock cfiCond21
          CFI EndBlock cfiCond22
          CFI EndBlock cfiPicker23
//  376 
//  377 /*********************************************************************
//  378  * @fn      zll_IsValidSplitFreeRanges
//  379  *
//  380  * @brief   Checks to see if the resulting two ranges are not smaller
//  381  *          than the threshold after division of a network address or
//  382  *          group ID range. The Initiator splits its own free range
//  383  *          in half and assigns the top half to the new device.
//  384  *
//  385  *          Note: A range (Nmin...Nmax) is split as follows:
//  386  *
//  387  *                N'min = (Nmax + Nmin + 1)/2
//  388  *                N'max = Nmax
//  389  *                Nmax = N'min - 1
//  390  *
//  391  * @param   totalGrpIDs - total number of group IDs needed
//  392  *
//  393  * @return  TRUE if split possible. FALSE, otherwise.
//  394  */

        RSEG BANKED_CODE:CODE:NOROOT(0)
//  395 bool zll_IsValidSplitFreeRanges( uint8 totalGrpIDs )
zll_IsValidSplitFreeRanges:
          CFI Block cfiBlock24 Using cfiCommon0
          CFI Function zll_IsValidSplitFreeRanges
        CODE
//  396 {
        MOV     A,#-0xa
        LCALL   ?BANKED_ENTER_XDATA
          CFI DPH0 load(1, XDATA, add(CFA_XSP16, literal(-1)))
          CFI DPL0 load(1, XDATA, add(CFA_XSP16, literal(-2)))
          CFI ?BRET_EXT load(1, XDATA, add(CFA_XSP16, literal(-3)))
          CFI ?RET_HIGH load(1, XDATA, add(CFA_XSP16, literal(-4)))
          CFI ?RET_LOW load(1, XDATA, add(CFA_XSP16, literal(-5)))
          CFI R7 load(1, XDATA, add(CFA_XSP16, literal(-6)))
          CFI V1 load(1, XDATA, add(CFA_XSP16, literal(-7)))
          CFI V0 load(1, XDATA, add(CFA_XSP16, literal(-8)))
          CFI VB load(1, XDATA, add(CFA_XSP16, literal(-9)))
          CFI R6 load(1, XDATA, add(CFA_XSP16, literal(-10)))
          CFI CFA_SP SP+0
          CFI CFA_XSP16 add(XSP16, 10)
        ; Saved register size: 10
        ; Auto size: 0
        MOV     A,R1
        MOV     R2,A
//  397   if ( ( zllFreeNwkAddrBegin != 0 ) && ( zllFreeGrpIdBegin != 0 ) )
        MOV     DPTR,#zllFreeNwkAddrBegin
        LCALL   ??Subroutine46_0 & 0xFFFF
??CrossCallReturnLabel_116:
        JZ      ??zll_IsValidSplitFreeRanges_0
        MOV     DPTR,#zllFreeGrpIdBegin
        LCALL   ??Subroutine46_0 & 0xFFFF
??CrossCallReturnLabel_117:
        JZ      ??zll_IsValidSplitFreeRanges_0
//  398   {
//  399       return ( ( ( ( zllFreeNwkAddrEnd - zllFreeNwkAddrBegin ) / 2 ) >= ZLL_ADDR_THRESHOLD ) &&
//  400                ( ( ( zllFreeGrpIdEnd - ( zllFreeGrpIdBegin + totalGrpIDs - 1 ) ) / 2 ) >= ZLL_GRP_ID_THRESHOLD ) );
        MOV     DPTR,#zllFreeNwkAddrBegin
        LCALL   ??Subroutine43_0 & 0xFFFF
//  401 
//  402   }
??CrossCallReturnLabel_92:
        MOV     DPH,#(zllFreeNwkAddrEnd >> 8) & 0xff
        MOV     DPL,#zllFreeNwkAddrEnd & 0xff
        MOVX    A,@DPTR
        CLR     C
        SUBB    A,R0
        MOV     R0,A
        INC     DPTR
        MOVX    A,@DPTR
        SUBB    A,R1
        CLR     C
        RRC     A
        MOV     R1,A
        MOV     A,R0
        RRC     A
        CLR     C
        SUBB    A,#0xa
        MOV     A,R1
        SUBB    A,#0x0
        JC      ??zll_IsValidSplitFreeRanges_0
        MOV     DPTR,#zllFreeGrpIdBegin
        LCALL   ??Subroutine43_0 & 0xFFFF
??CrossCallReturnLabel_93:
        LCALL   ?Subroutine17 & 0xFFFF
??CrossCallReturnLabel_15:
        MOV     ?V0 + 0,R2
        MOV     A,R0
        CLR     C
        SUBB    A,?V0 + 0
        MOV     R0,A
        MOV     A,R1
        SUBB    A,#0x0
        MOV     R1,A
        MOV     A,R0
        ADD     A,#0x1
        INC     R0
        MOV     A,R1
        ADDC    A,#0x0
        CLR     C
        RRC     A
        MOV     R1,A
        MOV     A,R0
        RRC     A
        CLR     C
        SUBB    A,#0xa
        MOV     A,R1
        SUBB    A,#0x0
        JC      ??zll_IsValidSplitFreeRanges_0
        MOV     R1,#0x1
        SJMP    ??zll_IsValidSplitFreeRanges_1
//  403 
//  404   return ( FALSE );
??zll_IsValidSplitFreeRanges_0:
        MOV     R1,#0x0
??zll_IsValidSplitFreeRanges_1:
        SJMP    ??Subroutine36_0
          CFI EndBlock cfiBlock24
//  405 }

        RSEG BANKED_CODE:CODE:NOROOT(0)
?Subroutine0:
          CFI Block cfiBlock25 Using cfiCommon0
          CFI NoFunction
          CFI CFA_SP SP+0
          CFI CFA_XSP16 add(XSP16, 12)
          CFI VB load(1, XDATA, add(CFA_XSP16, literal(-9)))
          CFI DPL0 load(1, XDATA, add(CFA_XSP16, literal(-2)))
          CFI DPH0 load(1, XDATA, add(CFA_XSP16, literal(-1)))
          CFI R6 load(1, XDATA, add(CFA_XSP16, literal(-10)))
          CFI R7 load(1, XDATA, add(CFA_XSP16, literal(-6)))
          CFI V0 load(1, XDATA, add(CFA_XSP16, literal(-8)))
          CFI V1 load(1, XDATA, add(CFA_XSP16, literal(-7)))
          CFI ?BRET_EXT load(1, XDATA, add(CFA_XSP16, literal(-3)))
          CFI ?RET_HIGH load(1, XDATA, add(CFA_XSP16, literal(-4)))
          CFI ?RET_LOW load(1, XDATA, add(CFA_XSP16, literal(-5)))
          CFI Invalid
        LCALL   ?DEALLOC_XSTACK8
          CFI EndBlock cfiBlock25
        REQUIRE ??Subroutine36_0
        ; // Fall through to label ??Subroutine36_0

        RSEG BANKED_CODE:CODE:NOROOT(0)
??Subroutine36_0:
          CFI Block cfiBlock26 Using cfiCommon0
          CFI NoFunction
          CFI CFA_SP SP+0
          CFI CFA_XSP16 add(XSP16, 10)
          CFI VB load(1, XDATA, add(CFA_XSP16, literal(-9)))
          CFI DPL0 load(1, XDATA, add(CFA_XSP16, literal(-2)))
          CFI DPH0 load(1, XDATA, add(CFA_XSP16, literal(-1)))
          CFI R6 load(1, XDATA, add(CFA_XSP16, literal(-10)))
          CFI R7 load(1, XDATA, add(CFA_XSP16, literal(-6)))
          CFI V0 load(1, XDATA, add(CFA_XSP16, literal(-8)))
          CFI V1 load(1, XDATA, add(CFA_XSP16, literal(-7)))
          CFI ?BRET_EXT load(1, XDATA, add(CFA_XSP16, literal(-3)))
          CFI ?RET_HIGH load(1, XDATA, add(CFA_XSP16, literal(-4)))
          CFI ?RET_LOW load(1, XDATA, add(CFA_XSP16, literal(-5)))
        MOV     R7,#0x2
        LJMP    ?BANKED_LEAVE_XDATA
          CFI EndBlock cfiBlock26
//  406 
//  407 /*********************************************************************
//  408  * @fn      zll_SplitFreeRanges
//  409  *
//  410  * @brief   Split our own free network address and group ID ranges
//  411  *          in half and assign the top half to the new device.
//  412  *
//  413  *          Note: A range (Nmin...Nmax) is split as follows:
//  414  *
//  415  *                N'min = (Nmax + Nmin + 1)/2
//  416  *                N'max = Nmax
//  417  *                Nmax = N'min - 1
//  418  *
//  419  * output parameters
//  420  *
//  421  * @param   pAddrBegin - new address range begin
//  422  * @param   pAddrEnd - new address range end
//  423  * @param   pGrpIdBegin - new group id range begin
//  424  * @param   pGrpIdEnd - new group id range end
//  425  *
//  426  * @return  none
//  427  */

        RSEG BANKED_CODE:CODE:NOROOT(0)
//  428 void zll_SplitFreeRanges( uint16 *pAddrBegin, uint16 *pAddrEnd,
zll_SplitFreeRanges:
          CFI Block cfiBlock27 Using cfiCommon0
          CFI Function zll_SplitFreeRanges
        CODE
//  429                         uint16 *pGrpIdBegin, uint16 *pGrpIdEnd )
//  430 {
        MOV     A,#-0x12
        LCALL   ?BANKED_ENTER_XDATA
          CFI DPH0 load(1, XDATA, add(CFA_XSP16, literal(-1)))
          CFI DPL0 load(1, XDATA, add(CFA_XSP16, literal(-2)))
          CFI ?BRET_EXT load(1, XDATA, add(CFA_XSP16, literal(-3)))
          CFI ?RET_HIGH load(1, XDATA, add(CFA_XSP16, literal(-4)))
          CFI ?RET_LOW load(1, XDATA, add(CFA_XSP16, literal(-5)))
          CFI R7 load(1, XDATA, add(CFA_XSP16, literal(-6)))
          CFI V9 load(1, XDATA, add(CFA_XSP16, literal(-7)))
          CFI V8 load(1, XDATA, add(CFA_XSP16, literal(-8)))
          CFI V7 load(1, XDATA, add(CFA_XSP16, literal(-9)))
          CFI V6 load(1, XDATA, add(CFA_XSP16, literal(-10)))
          CFI V5 load(1, XDATA, add(CFA_XSP16, literal(-11)))
          CFI V4 load(1, XDATA, add(CFA_XSP16, literal(-12)))
          CFI V3 load(1, XDATA, add(CFA_XSP16, literal(-13)))
          CFI V2 load(1, XDATA, add(CFA_XSP16, literal(-14)))
          CFI V1 load(1, XDATA, add(CFA_XSP16, literal(-15)))
          CFI V0 load(1, XDATA, add(CFA_XSP16, literal(-16)))
          CFI VB load(1, XDATA, add(CFA_XSP16, literal(-17)))
          CFI R6 load(1, XDATA, add(CFA_XSP16, literal(-18)))
          CFI CFA_SP SP+0
          CFI CFA_XSP16 add(XSP16, 18)
        ; Saved register size: 18
        ; Auto size: 0
        MOV     ?V0 + 8,R4
        MOV     ?V0 + 9,R5
        MOV     A,#0x12
        LCALL   ?XSTACK_DISP0_8
        LCALL   ??Subroutine44_0 & 0xFFFF
??CrossCallReturnLabel_106:
        MOV     A,#0x14
        LCALL   ?XSTACK_DISP0_8
        LCALL   ?Subroutine14 & 0xFFFF
//  431   if ( ( zllFreeNwkAddrBegin != 0 ) && ( zllFreeGrpIdBegin != 0 ) )
??CrossCallReturnLabel_7:
        MOV     DPTR,#zllFreeNwkAddrBegin
        LCALL   ??Subroutine46_0 & 0xFFFF
??CrossCallReturnLabel_118:
        JNZ     $+5
        LJMP    ??zll_SplitFreeRanges_0 & 0xFFFF
        MOV     DPTR,#zllFreeGrpIdBegin
        LCALL   ??Subroutine46_0 & 0xFFFF
??CrossCallReturnLabel_119:
        JNZ     $+5
        LJMP    ??zll_SplitFreeRanges_0 & 0xFFFF
//  432   {
//  433     *pAddrBegin = ZLL_NEW_MIN( zllFreeNwkAddrBegin, zllFreeNwkAddrEnd );
        MOV     DPTR,#zllFreeNwkAddrEnd
        LCALL   ?Subroutine11 & 0xFFFF
??CrossCallReturnLabel_3:
        MOV     DPTR,#zllFreeNwkAddrBegin
        LCALL   ?Subroutine32 & 0xFFFF
??CrossCallReturnLabel_40:
        CLR     A
        MOV     ?V0 + 2,A
        MOV     ?V0 + 3,A
        MOV     R0,#?V0 + 4
        MOV     R1,#?V0 + 0
        LCALL   ?L_ADD
        MOV     DPTR,#__Constant_1
        MOV     R0,#?V0 + 4
        LCALL   ?L_ADD_X
        MOV     A,#0x1
        MOV     R0,#?V0 + 4
        LCALL   ?UL_SHR
        MOV     DPL,R2
        MOV     DPH,R3
        MOV     A,?V0 + 4
        MOVX    @DPTR,A
        INC     DPTR
        MOV     A,?V0 + 5
        MOVX    @DPTR,A
//  434     *pGrpIdBegin = ZLL_NEW_MIN( zllFreeGrpIdBegin, zllFreeGrpIdEnd );
        MOV     DPTR,#zllFreeGrpIdEnd
        LCALL   ?Subroutine11 & 0xFFFF
??CrossCallReturnLabel_4:
        MOV     DPTR,#zllFreeGrpIdBegin
        LCALL   ?Subroutine32 & 0xFFFF
??CrossCallReturnLabel_41:
        MOV     R0,#?V0 + 4
        MOV     R1,#?V0 + 0
        LCALL   ?L_ADD
        MOV     DPTR,#__Constant_1
        MOV     R0,#?V0 + 4
        LCALL   ?L_ADD_X
        MOV     A,#0x1
        MOV     R0,#?V0 + 4
        LCALL   ?UL_SHR
        MOV     DPL,R4
        MOV     DPH,R5
        MOV     A,?V0 + 4
        MOVX    @DPTR,A
        INC     DPTR
        MOV     A,?V0 + 5
        MOVX    @DPTR,A
//  435 
//  436     *pAddrEnd = zllFreeNwkAddrEnd;
        MOV     DPTR,#zllFreeNwkAddrEnd
        LCALL   ??Subroutine43_0 & 0xFFFF
??CrossCallReturnLabel_94:
        MOV     DPL,?V0 + 8
        MOV     DPH,?V0 + 9
        LCALL   ?Subroutine19 & 0xFFFF
//  437     *pGrpIdEnd = zllFreeGrpIdEnd;
??CrossCallReturnLabel_57:
        MOV     DPTR,#zllFreeGrpIdEnd
        LCALL   ?Subroutine12 & 0xFFFF
??CrossCallReturnLabel_5:
        LCALL   ?Subroutine19 & 0xFFFF
//  438 
//  439     // Update our max
//  440     zllFreeNwkAddrEnd = *pAddrBegin - 1;
??CrossCallReturnLabel_58:
        MOV     DPL,R2
        MOV     DPH,R3
        LCALL   ?Subroutine9 & 0xFFFF
??CrossCallReturnLabel_0:
        MOV     DPTR,#zllFreeNwkAddrEnd
        LCALL   ?Subroutine19 & 0xFFFF
//  441     zllFreeGrpIdEnd = *pGrpIdBegin - 1;
??CrossCallReturnLabel_59:
        MOV     DPL,R4
        MOV     DPH,R5
        LCALL   ?Subroutine9 & 0xFFFF
//  442   }
??CrossCallReturnLabel_1:
        MOV     DPTR,#zllFreeGrpIdEnd
        MOV     A,R0
        MOVX    @DPTR,A
        INC     DPTR
        MOV     A,R1
        SJMP    ??zll_SplitFreeRanges_1
//  443   else
//  444   {
//  445     *pAddrBegin = *pAddrEnd = 0;
??zll_SplitFreeRanges_0:
        MOV     DPL,?V0 + 8
        MOV     DPH,?V0 + 9
        LCALL   ?Subroutine24 & 0xFFFF
??CrossCallReturnLabel_30:
        MOVX    @DPTR,A
//  446     *pGrpIdBegin = *pGrpIdEnd = 0;
        MOV     DPL,R6
        MOV     DPH,R7
        MOVX    @DPTR,A
        INC     DPTR
        MOVX    @DPTR,A
        MOV     DPL,R4
        MOV     DPH,R5
        MOVX    @DPTR,A
        INC     DPTR
??zll_SplitFreeRanges_1:
        MOVX    @DPTR,A
//  447   }
//  448 }
        MOV     R7,#0xa
        LJMP    ?BANKED_LEAVE_XDATA
          CFI EndBlock cfiBlock27

        RSEG BANKED_CODE:CODE:NOROOT(0)
?Subroutine11:
          CFI Block cfiCond28 Using cfiCommon0
          CFI Function zll_SplitFreeRanges
          CFI Conditional ??CrossCallReturnLabel_3
          CFI R6 load(1, XDATA, add(CFA_XSP16, literal(-18)))
          CFI VB load(1, XDATA, add(CFA_XSP16, literal(-17)))
          CFI V0 load(1, XDATA, add(CFA_XSP16, literal(-16)))
          CFI V1 load(1, XDATA, add(CFA_XSP16, literal(-15)))
          CFI V2 load(1, XDATA, add(CFA_XSP16, literal(-14)))
          CFI V3 load(1, XDATA, add(CFA_XSP16, literal(-13)))
          CFI V4 load(1, XDATA, add(CFA_XSP16, literal(-12)))
          CFI V5 load(1, XDATA, add(CFA_XSP16, literal(-11)))
          CFI V6 load(1, XDATA, add(CFA_XSP16, literal(-10)))
          CFI V7 load(1, XDATA, add(CFA_XSP16, literal(-9)))
          CFI V8 load(1, XDATA, add(CFA_XSP16, literal(-8)))
          CFI V9 load(1, XDATA, add(CFA_XSP16, literal(-7)))
          CFI R7 load(1, XDATA, add(CFA_XSP16, literal(-6)))
          CFI ?RET_LOW load(1, XDATA, add(CFA_XSP16, literal(-5)))
          CFI ?RET_HIGH load(1, XDATA, add(CFA_XSP16, literal(-4)))
          CFI ?BRET_EXT load(1, XDATA, add(CFA_XSP16, literal(-3)))
          CFI DPL0 load(1, XDATA, add(CFA_XSP16, literal(-2)))
          CFI DPH0 load(1, XDATA, add(CFA_XSP16, literal(-1)))
          CFI CFA_SP SP+0
          CFI CFA_XSP16 add(XSP16, 18)
          CFI Block cfiCond29 Using cfiCommon0
          CFI (cfiCond29) Function zll_SplitFreeRanges
          CFI (cfiCond29) Conditional ??CrossCallReturnLabel_4
          CFI (cfiCond29) R6 load(1, XDATA, add(CFA_XSP16, literal(-18)))
          CFI (cfiCond29) VB load(1, XDATA, add(CFA_XSP16, literal(-17)))
          CFI (cfiCond29) V0 load(1, XDATA, add(CFA_XSP16, literal(-16)))
          CFI (cfiCond29) V1 load(1, XDATA, add(CFA_XSP16, literal(-15)))
          CFI (cfiCond29) V2 load(1, XDATA, add(CFA_XSP16, literal(-14)))
          CFI (cfiCond29) V3 load(1, XDATA, add(CFA_XSP16, literal(-13)))
          CFI (cfiCond29) V4 load(1, XDATA, add(CFA_XSP16, literal(-12)))
          CFI (cfiCond29) V5 load(1, XDATA, add(CFA_XSP16, literal(-11)))
          CFI (cfiCond29) V6 load(1, XDATA, add(CFA_XSP16, literal(-10)))
          CFI (cfiCond29) V7 load(1, XDATA, add(CFA_XSP16, literal(-9)))
          CFI (cfiCond29) V8 load(1, XDATA, add(CFA_XSP16, literal(-8)))
          CFI (cfiCond29) V9 load(1, XDATA, add(CFA_XSP16, literal(-7)))
          CFI (cfiCond29) R7 load(1, XDATA, add(CFA_XSP16, literal(-6)))
          CFI (cfiCond29) ?RET_LOW load(1, XDATA, add(CFA_XSP16, literal(-5)))
          CFI (cfiCond29) ?RET_HIGH load(1, XDATA, add(CFA_XSP16, literal(-4)))
          CFI (cfiCond29) ?BRET_EXT load(1, XDATA, add(CFA_XSP16, literal(-3)))
          CFI (cfiCond29) DPL0 load(1, XDATA, add(CFA_XSP16, literal(-2)))
          CFI (cfiCond29) DPH0 load(1, XDATA, add(CFA_XSP16, literal(-1)))
          CFI (cfiCond29) CFA_SP SP+0
          CFI (cfiCond29) CFA_XSP16 add(XSP16, 18)
          CFI Block cfiPicker30 Using cfiCommon1
          CFI (cfiPicker30) NoFunction
          CFI (cfiPicker30) Picker
        MOVX    A,@DPTR
        MOV     ?V0 + 4,A
        INC     DPTR
        MOVX    A,@DPTR
        MOV     ?V0 + 5,A
        CLR     A
        MOV     ?V0 + 6,A
        MOV     ?V0 + 7,A
        RET
          CFI EndBlock cfiCond28
          CFI EndBlock cfiCond29
          CFI EndBlock cfiPicker30
//  449 
//  450 /*********************************************************************
//  451  * @fn      zll_PopGrpIDRange
//  452  *
//  453  * @brief   Pop the requested number of group IDs out of the free group IDs range.
//  454  *
//  455  * input parameters
//  456  *
//  457  * @param   numGrpIDs - number of group IDs needed
//  458  *
//  459  * output parameters
//  460  *
//  461  * @param   pGrpIdBegin - new group id range begin, or 0 if unavaialable
//  462  * @param   pGrpIdEnd - new group id range end, , or 0 if unavaialable
//  463  *
//  464  * @return  none
//  465  */

        RSEG BANKED_CODE:CODE:NOROOT(0)
//  466 void zll_PopGrpIDRange( uint8 numGrpIDs, uint16 *pGrpIDsBegin, uint16 *pGrpIDsEnd )
zll_PopGrpIDRange:
          CFI Block cfiBlock31 Using cfiCommon0
          CFI Function zll_PopGrpIDRange
        CODE
//  467 {
        MOV     A,#-0xa
        LCALL   ?BANKED_ENTER_XDATA
          CFI DPH0 load(1, XDATA, add(CFA_XSP16, literal(-1)))
          CFI DPL0 load(1, XDATA, add(CFA_XSP16, literal(-2)))
          CFI ?BRET_EXT load(1, XDATA, add(CFA_XSP16, literal(-3)))
          CFI ?RET_HIGH load(1, XDATA, add(CFA_XSP16, literal(-4)))
          CFI ?RET_LOW load(1, XDATA, add(CFA_XSP16, literal(-5)))
          CFI R7 load(1, XDATA, add(CFA_XSP16, literal(-6)))
          CFI V1 load(1, XDATA, add(CFA_XSP16, literal(-7)))
          CFI V0 load(1, XDATA, add(CFA_XSP16, literal(-8)))
          CFI VB load(1, XDATA, add(CFA_XSP16, literal(-9)))
          CFI R6 load(1, XDATA, add(CFA_XSP16, literal(-10)))
          CFI CFA_SP SP+0
          CFI CFA_XSP16 add(XSP16, 10)
        ; Saved register size: 10
        ; Auto size: 0
        MOV     ?V0 + 0,R1
//  468   if ( ( zllFreeGrpIdBegin != 0 )
//  469        && ( zllFreeGrpIdBegin <= zllFreeGrpIdEnd )
//  470        && ( ( zllFreeGrpIdEnd - zllFreeGrpIdBegin ) >= numGrpIDs ) )
        MOV     DPTR,#zllFreeGrpIdBegin
        LCALL   ??Subroutine46_0 & 0xFFFF
??CrossCallReturnLabel_120:
        JZ      ??zll_PopGrpIDRange_0
        MOVX    A,@DPTR
        MOV     R1,A
        MOV     DPH,#(zllFreeGrpIdEnd >> 8) & 0xff
        MOV     DPL,#zllFreeGrpIdEnd & 0xff
        CLR     C
        MOVX    A,@DPTR
        SUBB    A,R0
        INC     DPTR
        MOVX    A,@DPTR
        SUBB    A,R1
        JC      ??zll_PopGrpIDRange_0
        MOV     DPL,?V0 + 0
        MOV     R6,DPL
        LCALL   ?Subroutine17 & 0xFFFF
??CrossCallReturnLabel_16:
        CLR     C
        MOV     A,R0
        SUBB    A,R6
        MOV     A,R1
        SUBB    A,#0x0
        JC      ??zll_PopGrpIDRange_0
//  471   {
//  472     *pGrpIDsBegin = zllFreeGrpIdBegin;
        MOV     DPTR,#zllFreeGrpIdBegin
        LCALL   ??Subroutine43_0 & 0xFFFF
??CrossCallReturnLabel_95:
        MOV     DPL,R2
        MOV     DPH,R3
        LCALL   ?Subroutine19 & 0xFFFF
//  473 
//  474     // Update min free group id
//  475     zllFreeGrpIdBegin += numGrpIDs;
??CrossCallReturnLabel_60:
        MOV     DPTR,#zllFreeGrpIdBegin
        MOVX    A,@DPTR
        ADD     A,R6
        MOVX    @DPTR,A
        INC     DPTR
        MOVX    A,@DPTR
        ADDC    A,#0x0
        MOVX    @DPTR,A
//  476 
//  477     *pGrpIDsEnd = zllFreeGrpIdBegin - 1;
        MOV     DPTR,#zllFreeGrpIdBegin
        LCALL   ?Subroutine9 & 0xFFFF
//  478   }
??CrossCallReturnLabel_2:
        MOV     DPL,R4
        MOV     DPH,R5
        MOV     A,R0
        MOVX    @DPTR,A
        INC     DPTR
        MOV     A,R1
        SJMP    ??CrossCallReturnLabel_31
//  479   else
//  480   {
//  481     *pGrpIDsBegin = *pGrpIDsEnd = 0;
??zll_PopGrpIDRange_0:
        MOV     DPL,R4
        MOV     DPH,R5
        LCALL   ?Subroutine24 & 0xFFFF
//  482   }
??CrossCallReturnLabel_31:
        MOVX    @DPTR,A
//  483 }
        LJMP    ??Subroutine36_0 & 0xFFFF
          CFI EndBlock cfiBlock31

        RSEG BANKED_CODE:CODE:NOROOT(0)
?Subroutine24:
          CFI Block cfiCond32 Using cfiCommon0
          CFI Function zll_SplitFreeRanges
          CFI Conditional ??CrossCallReturnLabel_30
          CFI R6 load(1, XDATA, add(CFA_XSP16, literal(-18)))
          CFI VB load(1, XDATA, add(CFA_XSP16, literal(-17)))
          CFI V0 load(1, XDATA, add(CFA_XSP16, literal(-16)))
          CFI V1 load(1, XDATA, add(CFA_XSP16, literal(-15)))
          CFI V2 load(1, XDATA, add(CFA_XSP16, literal(-14)))
          CFI V3 load(1, XDATA, add(CFA_XSP16, literal(-13)))
          CFI V4 load(1, XDATA, add(CFA_XSP16, literal(-12)))
          CFI V5 load(1, XDATA, add(CFA_XSP16, literal(-11)))
          CFI V6 load(1, XDATA, add(CFA_XSP16, literal(-10)))
          CFI V7 load(1, XDATA, add(CFA_XSP16, literal(-9)))
          CFI V8 load(1, XDATA, add(CFA_XSP16, literal(-8)))
          CFI V9 load(1, XDATA, add(CFA_XSP16, literal(-7)))
          CFI R7 load(1, XDATA, add(CFA_XSP16, literal(-6)))
          CFI ?RET_LOW load(1, XDATA, add(CFA_XSP16, literal(-5)))
          CFI ?RET_HIGH load(1, XDATA, add(CFA_XSP16, literal(-4)))
          CFI ?BRET_EXT load(1, XDATA, add(CFA_XSP16, literal(-3)))
          CFI DPL0 load(1, XDATA, add(CFA_XSP16, literal(-2)))
          CFI DPH0 load(1, XDATA, add(CFA_XSP16, literal(-1)))
          CFI CFA_SP SP+0
          CFI CFA_XSP16 add(XSP16, 18)
          CFI Block cfiCond33 Using cfiCommon0
          CFI (cfiCond33) Function zll_PopGrpIDRange
          CFI (cfiCond33) Conditional ??CrossCallReturnLabel_31
          CFI (cfiCond33) R6 load(1, XDATA, add(CFA_XSP16, literal(-10)))
          CFI (cfiCond33) VB load(1, XDATA, add(CFA_XSP16, literal(-9)))
          CFI (cfiCond33) V0 load(1, XDATA, add(CFA_XSP16, literal(-8)))
          CFI (cfiCond33) V1 load(1, XDATA, add(CFA_XSP16, literal(-7)))
          CFI (cfiCond33) R7 load(1, XDATA, add(CFA_XSP16, literal(-6)))
          CFI (cfiCond33) ?RET_LOW load(1, XDATA, add(CFA_XSP16, literal(-5)))
          CFI (cfiCond33) ?RET_HIGH load(1, XDATA, add(CFA_XSP16, literal(-4)))
          CFI (cfiCond33) ?BRET_EXT load(1, XDATA, add(CFA_XSP16, literal(-3)))
          CFI (cfiCond33) DPL0 load(1, XDATA, add(CFA_XSP16, literal(-2)))
          CFI (cfiCond33) DPH0 load(1, XDATA, add(CFA_XSP16, literal(-1)))
          CFI (cfiCond33) CFA_SP SP+0
          CFI (cfiCond33) CFA_XSP16 add(XSP16, 10)
          CFI Block cfiPicker34 Using cfiCommon1
          CFI (cfiPicker34) NoFunction
          CFI (cfiPicker34) Picker
        CLR     A
        MOVX    @DPTR,A
        INC     DPTR
        MOVX    @DPTR,A
        MOV     DPL,R2
        MOV     DPH,R3
        MOVX    @DPTR,A
        INC     DPTR
        RET
          CFI EndBlock cfiCond32
          CFI EndBlock cfiCond33
          CFI EndBlock cfiPicker34

        RSEG BANKED_CODE:CODE:NOROOT(0)
?Subroutine19:
          CFI Block cfiCond35 Using cfiCommon0
          CFI Function zll_UpdateFreeRanges
          CFI Conditional ??CrossCallReturnLabel_56
          CFI DPL0 Frame(CFA_SP, 4)
          CFI DPH0 Frame(CFA_SP, 5)
          CFI CFA_SP SP+-5
          CFI Block cfiCond36 Using cfiCommon0
          CFI (cfiCond36) Function zll_SplitFreeRanges
          CFI (cfiCond36) Conditional ??CrossCallReturnLabel_57
          CFI (cfiCond36) R6 load(1, XDATA, add(CFA_XSP16, literal(-18)))
          CFI (cfiCond36) VB load(1, XDATA, add(CFA_XSP16, literal(-17)))
          CFI (cfiCond36) V0 load(1, XDATA, add(CFA_XSP16, literal(-16)))
          CFI (cfiCond36) V1 load(1, XDATA, add(CFA_XSP16, literal(-15)))
          CFI (cfiCond36) V2 load(1, XDATA, add(CFA_XSP16, literal(-14)))
          CFI (cfiCond36) V3 load(1, XDATA, add(CFA_XSP16, literal(-13)))
          CFI (cfiCond36) V4 load(1, XDATA, add(CFA_XSP16, literal(-12)))
          CFI (cfiCond36) V5 load(1, XDATA, add(CFA_XSP16, literal(-11)))
          CFI (cfiCond36) V6 load(1, XDATA, add(CFA_XSP16, literal(-10)))
          CFI (cfiCond36) V7 load(1, XDATA, add(CFA_XSP16, literal(-9)))
          CFI (cfiCond36) V8 load(1, XDATA, add(CFA_XSP16, literal(-8)))
          CFI (cfiCond36) V9 load(1, XDATA, add(CFA_XSP16, literal(-7)))
          CFI (cfiCond36) R7 load(1, XDATA, add(CFA_XSP16, literal(-6)))
          CFI (cfiCond36) ?RET_LOW load(1, XDATA, add(CFA_XSP16, literal(-5)))
          CFI (cfiCond36) ?RET_HIGH load(1, XDATA, add(CFA_XSP16, literal(-4)))
          CFI (cfiCond36) ?BRET_EXT load(1, XDATA, add(CFA_XSP16, literal(-3)))
          CFI (cfiCond36) DPL0 load(1, XDATA, add(CFA_XSP16, literal(-2)))
          CFI (cfiCond36) DPH0 load(1, XDATA, add(CFA_XSP16, literal(-1)))
          CFI (cfiCond36) CFA_SP SP+0
          CFI (cfiCond36) CFA_XSP16 add(XSP16, 18)
          CFI Block cfiCond37 Using cfiCommon0
          CFI (cfiCond37) Function zll_SplitFreeRanges
          CFI (cfiCond37) Conditional ??CrossCallReturnLabel_58
          CFI (cfiCond37) R6 load(1, XDATA, add(CFA_XSP16, literal(-18)))
          CFI (cfiCond37) VB load(1, XDATA, add(CFA_XSP16, literal(-17)))
          CFI (cfiCond37) V0 load(1, XDATA, add(CFA_XSP16, literal(-16)))
          CFI (cfiCond37) V1 load(1, XDATA, add(CFA_XSP16, literal(-15)))
          CFI (cfiCond37) V2 load(1, XDATA, add(CFA_XSP16, literal(-14)))
          CFI (cfiCond37) V3 load(1, XDATA, add(CFA_XSP16, literal(-13)))
          CFI (cfiCond37) V4 load(1, XDATA, add(CFA_XSP16, literal(-12)))
          CFI (cfiCond37) V5 load(1, XDATA, add(CFA_XSP16, literal(-11)))
          CFI (cfiCond37) V6 load(1, XDATA, add(CFA_XSP16, literal(-10)))
          CFI (cfiCond37) V7 load(1, XDATA, add(CFA_XSP16, literal(-9)))
          CFI (cfiCond37) V8 load(1, XDATA, add(CFA_XSP16, literal(-8)))
          CFI (cfiCond37) V9 load(1, XDATA, add(CFA_XSP16, literal(-7)))
          CFI (cfiCond37) R7 load(1, XDATA, add(CFA_XSP16, literal(-6)))
          CFI (cfiCond37) ?RET_LOW load(1, XDATA, add(CFA_XSP16, literal(-5)))
          CFI (cfiCond37) ?RET_HIGH load(1, XDATA, add(CFA_XSP16, literal(-4)))
          CFI (cfiCond37) ?BRET_EXT load(1, XDATA, add(CFA_XSP16, literal(-3)))
          CFI (cfiCond37) DPL0 load(1, XDATA, add(CFA_XSP16, literal(-2)))
          CFI (cfiCond37) DPH0 load(1, XDATA, add(CFA_XSP16, literal(-1)))
          CFI (cfiCond37) CFA_SP SP+0
          CFI (cfiCond37) CFA_XSP16 add(XSP16, 18)
          CFI Block cfiCond38 Using cfiCommon0
          CFI (cfiCond38) Function zll_SplitFreeRanges
          CFI (cfiCond38) Conditional ??CrossCallReturnLabel_59
          CFI (cfiCond38) R6 load(1, XDATA, add(CFA_XSP16, literal(-18)))
          CFI (cfiCond38) VB load(1, XDATA, add(CFA_XSP16, literal(-17)))
          CFI (cfiCond38) V0 load(1, XDATA, add(CFA_XSP16, literal(-16)))
          CFI (cfiCond38) V1 load(1, XDATA, add(CFA_XSP16, literal(-15)))
          CFI (cfiCond38) V2 load(1, XDATA, add(CFA_XSP16, literal(-14)))
          CFI (cfiCond38) V3 load(1, XDATA, add(CFA_XSP16, literal(-13)))
          CFI (cfiCond38) V4 load(1, XDATA, add(CFA_XSP16, literal(-12)))
          CFI (cfiCond38) V5 load(1, XDATA, add(CFA_XSP16, literal(-11)))
          CFI (cfiCond38) V6 load(1, XDATA, add(CFA_XSP16, literal(-10)))
          CFI (cfiCond38) V7 load(1, XDATA, add(CFA_XSP16, literal(-9)))
          CFI (cfiCond38) V8 load(1, XDATA, add(CFA_XSP16, literal(-8)))
          CFI (cfiCond38) V9 load(1, XDATA, add(CFA_XSP16, literal(-7)))
          CFI (cfiCond38) R7 load(1, XDATA, add(CFA_XSP16, literal(-6)))
          CFI (cfiCond38) ?RET_LOW load(1, XDATA, add(CFA_XSP16, literal(-5)))
          CFI (cfiCond38) ?RET_HIGH load(1, XDATA, add(CFA_XSP16, literal(-4)))
          CFI (cfiCond38) ?BRET_EXT load(1, XDATA, add(CFA_XSP16, literal(-3)))
          CFI (cfiCond38) DPL0 load(1, XDATA, add(CFA_XSP16, literal(-2)))
          CFI (cfiCond38) DPH0 load(1, XDATA, add(CFA_XSP16, literal(-1)))
          CFI (cfiCond38) CFA_SP SP+0
          CFI (cfiCond38) CFA_XSP16 add(XSP16, 18)
          CFI Block cfiCond39 Using cfiCommon0
          CFI (cfiCond39) Function zll_PopGrpIDRange
          CFI (cfiCond39) Conditional ??CrossCallReturnLabel_60
          CFI (cfiCond39) R6 load(1, XDATA, add(CFA_XSP16, literal(-10)))
          CFI (cfiCond39) VB load(1, XDATA, add(CFA_XSP16, literal(-9)))
          CFI (cfiCond39) V0 load(1, XDATA, add(CFA_XSP16, literal(-8)))
          CFI (cfiCond39) V1 load(1, XDATA, add(CFA_XSP16, literal(-7)))
          CFI (cfiCond39) R7 load(1, XDATA, add(CFA_XSP16, literal(-6)))
          CFI (cfiCond39) ?RET_LOW load(1, XDATA, add(CFA_XSP16, literal(-5)))
          CFI (cfiCond39) ?RET_HIGH load(1, XDATA, add(CFA_XSP16, literal(-4)))
          CFI (cfiCond39) ?BRET_EXT load(1, XDATA, add(CFA_XSP16, literal(-3)))
          CFI (cfiCond39) DPL0 load(1, XDATA, add(CFA_XSP16, literal(-2)))
          CFI (cfiCond39) DPH0 load(1, XDATA, add(CFA_XSP16, literal(-1)))
          CFI (cfiCond39) CFA_SP SP+0
          CFI (cfiCond39) CFA_XSP16 add(XSP16, 10)
          CFI Block cfiCond40 Using cfiCommon0
          CFI (cfiCond40) Function zll_PopNwkAddress
          CFI (cfiCond40) Conditional ??CrossCallReturnLabel_61
          CFI (cfiCond40) DPL0 Frame(CFA_SP, 4)
          CFI (cfiCond40) DPH0 Frame(CFA_SP, 5)
          CFI (cfiCond40) CFA_SP SP+-5
          CFI Block cfiCond41 Using cfiCommon0
          CFI (cfiCond41) Function zll_SendScanRsp
          CFI (cfiCond41) Conditional ??CrossCallReturnLabel_62
          CFI (cfiCond41) R6 load(1, XDATA, add(CFA_XSP16, literal(-22)))
          CFI (cfiCond41) VB load(1, XDATA, add(CFA_XSP16, literal(-21)))
          CFI (cfiCond41) V0 load(1, XDATA, add(CFA_XSP16, literal(-20)))
          CFI (cfiCond41) V1 load(1, XDATA, add(CFA_XSP16, literal(-19)))
          CFI (cfiCond41) V2 load(1, XDATA, add(CFA_XSP16, literal(-18)))
          CFI (cfiCond41) V3 load(1, XDATA, add(CFA_XSP16, literal(-17)))
          CFI (cfiCond41) V4 load(1, XDATA, add(CFA_XSP16, literal(-16)))
          CFI (cfiCond41) V5 load(1, XDATA, add(CFA_XSP16, literal(-15)))
          CFI (cfiCond41) V6 load(1, XDATA, add(CFA_XSP16, literal(-14)))
          CFI (cfiCond41) V7 load(1, XDATA, add(CFA_XSP16, literal(-13)))
          CFI (cfiCond41) V8 load(1, XDATA, add(CFA_XSP16, literal(-12)))
          CFI (cfiCond41) V9 load(1, XDATA, add(CFA_XSP16, literal(-11)))
          CFI (cfiCond41) V10 load(1, XDATA, add(CFA_XSP16, literal(-10)))
          CFI (cfiCond41) V11 load(1, XDATA, add(CFA_XSP16, literal(-9)))
          CFI (cfiCond41) V12 load(1, XDATA, add(CFA_XSP16, literal(-8)))
          CFI (cfiCond41) V13 load(1, XDATA, add(CFA_XSP16, literal(-7)))
          CFI (cfiCond41) R7 load(1, XDATA, add(CFA_XSP16, literal(-6)))
          CFI (cfiCond41) ?RET_LOW load(1, XDATA, add(CFA_XSP16, literal(-5)))
          CFI (cfiCond41) ?RET_HIGH load(1, XDATA, add(CFA_XSP16, literal(-4)))
          CFI (cfiCond41) ?BRET_EXT load(1, XDATA, add(CFA_XSP16, literal(-3)))
          CFI (cfiCond41) DPL0 load(1, XDATA, add(CFA_XSP16, literal(-2)))
          CFI (cfiCond41) DPH0 load(1, XDATA, add(CFA_XSP16, literal(-1)))
          CFI (cfiCond41) CFA_SP SP+0
          CFI (cfiCond41) CFA_XSP16 add(XSP16, 22)
          CFI Block cfiCond42 Using cfiCommon0
          CFI (cfiCond42) Function zll_SendScanRsp
          CFI (cfiCond42) Conditional ??CrossCallReturnLabel_63
          CFI (cfiCond42) R6 load(1, XDATA, add(CFA_XSP16, literal(-22)))
          CFI (cfiCond42) VB load(1, XDATA, add(CFA_XSP16, literal(-21)))
          CFI (cfiCond42) V0 load(1, XDATA, add(CFA_XSP16, literal(-20)))
          CFI (cfiCond42) V1 load(1, XDATA, add(CFA_XSP16, literal(-19)))
          CFI (cfiCond42) V2 load(1, XDATA, add(CFA_XSP16, literal(-18)))
          CFI (cfiCond42) V3 load(1, XDATA, add(CFA_XSP16, literal(-17)))
          CFI (cfiCond42) V4 load(1, XDATA, add(CFA_XSP16, literal(-16)))
          CFI (cfiCond42) V5 load(1, XDATA, add(CFA_XSP16, literal(-15)))
          CFI (cfiCond42) V6 load(1, XDATA, add(CFA_XSP16, literal(-14)))
          CFI (cfiCond42) V7 load(1, XDATA, add(CFA_XSP16, literal(-13)))
          CFI (cfiCond42) V8 load(1, XDATA, add(CFA_XSP16, literal(-12)))
          CFI (cfiCond42) V9 load(1, XDATA, add(CFA_XSP16, literal(-11)))
          CFI (cfiCond42) V10 load(1, XDATA, add(CFA_XSP16, literal(-10)))
          CFI (cfiCond42) V11 load(1, XDATA, add(CFA_XSP16, literal(-9)))
          CFI (cfiCond42) V12 load(1, XDATA, add(CFA_XSP16, literal(-8)))
          CFI (cfiCond42) V13 load(1, XDATA, add(CFA_XSP16, literal(-7)))
          CFI (cfiCond42) R7 load(1, XDATA, add(CFA_XSP16, literal(-6)))
          CFI (cfiCond42) ?RET_LOW load(1, XDATA, add(CFA_XSP16, literal(-5)))
          CFI (cfiCond42) ?RET_HIGH load(1, XDATA, add(CFA_XSP16, literal(-4)))
          CFI (cfiCond42) ?BRET_EXT load(1, XDATA, add(CFA_XSP16, literal(-3)))
          CFI (cfiCond42) DPL0 load(1, XDATA, add(CFA_XSP16, literal(-2)))
          CFI (cfiCond42) DPH0 load(1, XDATA, add(CFA_XSP16, literal(-1)))
          CFI (cfiCond42) CFA_SP SP+0
          CFI (cfiCond42) CFA_XSP16 add(XSP16, 22)
          CFI Block cfiCond43 Using cfiCommon0
          CFI (cfiCond43) Function zll_BeaconIndCB
          CFI (cfiCond43) Conditional ??CrossCallReturnLabel_64
          CFI (cfiCond43) R6 load(1, XDATA, add(CFA_XSP16, literal(-20)))
          CFI (cfiCond43) VB load(1, XDATA, add(CFA_XSP16, literal(-19)))
          CFI (cfiCond43) V0 load(1, XDATA, add(CFA_XSP16, literal(-18)))
          CFI (cfiCond43) V1 load(1, XDATA, add(CFA_XSP16, literal(-17)))
          CFI (cfiCond43) V2 load(1, XDATA, add(CFA_XSP16, literal(-16)))
          CFI (cfiCond43) V3 load(1, XDATA, add(CFA_XSP16, literal(-15)))
          CFI (cfiCond43) V4 load(1, XDATA, add(CFA_XSP16, literal(-14)))
          CFI (cfiCond43) V5 load(1, XDATA, add(CFA_XSP16, literal(-13)))
          CFI (cfiCond43) V6 load(1, XDATA, add(CFA_XSP16, literal(-12)))
          CFI (cfiCond43) V7 load(1, XDATA, add(CFA_XSP16, literal(-11)))
          CFI (cfiCond43) V8 load(1, XDATA, add(CFA_XSP16, literal(-10)))
          CFI (cfiCond43) V9 load(1, XDATA, add(CFA_XSP16, literal(-9)))
          CFI (cfiCond43) V10 load(1, XDATA, add(CFA_XSP16, literal(-8)))
          CFI (cfiCond43) V11 load(1, XDATA, add(CFA_XSP16, literal(-7)))
          CFI (cfiCond43) R7 load(1, XDATA, add(CFA_XSP16, literal(-6)))
          CFI (cfiCond43) ?RET_LOW load(1, XDATA, add(CFA_XSP16, literal(-5)))
          CFI (cfiCond43) ?RET_HIGH load(1, XDATA, add(CFA_XSP16, literal(-4)))
          CFI (cfiCond43) ?BRET_EXT load(1, XDATA, add(CFA_XSP16, literal(-3)))
          CFI (cfiCond43) DPL0 load(1, XDATA, add(CFA_XSP16, literal(-2)))
          CFI (cfiCond43) DPH0 load(1, XDATA, add(CFA_XSP16, literal(-1)))
          CFI (cfiCond43) CFA_SP SP+0
          CFI (cfiCond43) CFA_XSP16 add(XSP16, 20)
          CFI Block cfiPicker44 Using cfiCommon1
          CFI (cfiPicker44) NoFunction
          CFI (cfiPicker44) Picker
        MOV     A,R0
          CFI EndBlock cfiCond35
          CFI EndBlock cfiCond36
          CFI EndBlock cfiCond37
          CFI EndBlock cfiCond38
          CFI EndBlock cfiCond39
          CFI EndBlock cfiCond40
          CFI EndBlock cfiCond41
          CFI EndBlock cfiCond42
          CFI EndBlock cfiCond43
          CFI EndBlock cfiPicker44
        REQUIRE ??Subroutine37_0
        ; // Fall through to label ??Subroutine37_0

        RSEG BANKED_CODE:CODE:NOROOT(0)
??Subroutine37_0:
          CFI Block cfiCond45 Using cfiCommon0
          CFI Function zll_SendScanRsp
          CFI Conditional ??CrossCallReturnLabel_53
          CFI R6 load(1, XDATA, add(CFA_XSP16, literal(-22)))
          CFI VB load(1, XDATA, add(CFA_XSP16, literal(-21)))
          CFI V0 load(1, XDATA, add(CFA_XSP16, literal(-20)))
          CFI V1 load(1, XDATA, add(CFA_XSP16, literal(-19)))
          CFI V2 load(1, XDATA, add(CFA_XSP16, literal(-18)))
          CFI V3 load(1, XDATA, add(CFA_XSP16, literal(-17)))
          CFI V4 load(1, XDATA, add(CFA_XSP16, literal(-16)))
          CFI V5 load(1, XDATA, add(CFA_XSP16, literal(-15)))
          CFI V6 load(1, XDATA, add(CFA_XSP16, literal(-14)))
          CFI V7 load(1, XDATA, add(CFA_XSP16, literal(-13)))
          CFI V8 load(1, XDATA, add(CFA_XSP16, literal(-12)))
          CFI V9 load(1, XDATA, add(CFA_XSP16, literal(-11)))
          CFI V10 load(1, XDATA, add(CFA_XSP16, literal(-10)))
          CFI V11 load(1, XDATA, add(CFA_XSP16, literal(-9)))
          CFI V12 load(1, XDATA, add(CFA_XSP16, literal(-8)))
          CFI V13 load(1, XDATA, add(CFA_XSP16, literal(-7)))
          CFI R7 load(1, XDATA, add(CFA_XSP16, literal(-6)))
          CFI ?RET_LOW load(1, XDATA, add(CFA_XSP16, literal(-5)))
          CFI ?RET_HIGH load(1, XDATA, add(CFA_XSP16, literal(-4)))
          CFI ?BRET_EXT load(1, XDATA, add(CFA_XSP16, literal(-3)))
          CFI DPL0 load(1, XDATA, add(CFA_XSP16, literal(-2)))
          CFI DPH0 load(1, XDATA, add(CFA_XSP16, literal(-1)))
          CFI CFA_SP SP+0
          CFI CFA_XSP16 add(XSP16, 22)
          CFI Block cfiCond46 Using cfiCommon0
          CFI (cfiCond46) Function zll_SendScanRsp
          CFI (cfiCond46) Conditional ??CrossCallReturnLabel_54
          CFI (cfiCond46) R6 load(1, XDATA, add(CFA_XSP16, literal(-22)))
          CFI (cfiCond46) VB load(1, XDATA, add(CFA_XSP16, literal(-21)))
          CFI (cfiCond46) V0 load(1, XDATA, add(CFA_XSP16, literal(-20)))
          CFI (cfiCond46) V1 load(1, XDATA, add(CFA_XSP16, literal(-19)))
          CFI (cfiCond46) V2 load(1, XDATA, add(CFA_XSP16, literal(-18)))
          CFI (cfiCond46) V3 load(1, XDATA, add(CFA_XSP16, literal(-17)))
          CFI (cfiCond46) V4 load(1, XDATA, add(CFA_XSP16, literal(-16)))
          CFI (cfiCond46) V5 load(1, XDATA, add(CFA_XSP16, literal(-15)))
          CFI (cfiCond46) V6 load(1, XDATA, add(CFA_XSP16, literal(-14)))
          CFI (cfiCond46) V7 load(1, XDATA, add(CFA_XSP16, literal(-13)))
          CFI (cfiCond46) V8 load(1, XDATA, add(CFA_XSP16, literal(-12)))
          CFI (cfiCond46) V9 load(1, XDATA, add(CFA_XSP16, literal(-11)))
          CFI (cfiCond46) V10 load(1, XDATA, add(CFA_XSP16, literal(-10)))
          CFI (cfiCond46) V11 load(1, XDATA, add(CFA_XSP16, literal(-9)))
          CFI (cfiCond46) V12 load(1, XDATA, add(CFA_XSP16, literal(-8)))
          CFI (cfiCond46) V13 load(1, XDATA, add(CFA_XSP16, literal(-7)))
          CFI (cfiCond46) R7 load(1, XDATA, add(CFA_XSP16, literal(-6)))
          CFI (cfiCond46) ?RET_LOW load(1, XDATA, add(CFA_XSP16, literal(-5)))
          CFI (cfiCond46) ?RET_HIGH load(1, XDATA, add(CFA_XSP16, literal(-4)))
          CFI (cfiCond46) ?BRET_EXT load(1, XDATA, add(CFA_XSP16, literal(-3)))
          CFI (cfiCond46) DPL0 load(1, XDATA, add(CFA_XSP16, literal(-2)))
          CFI (cfiCond46) DPH0 load(1, XDATA, add(CFA_XSP16, literal(-1)))
          CFI (cfiCond46) CFA_SP SP+0
          CFI (cfiCond46) CFA_XSP16 add(XSP16, 22)
          CFI Block cfiCond47 Using cfiCommon0
          CFI (cfiCond47) Function zll_SendScanRsp
          CFI (cfiCond47) Conditional ??CrossCallReturnLabel_55
          CFI (cfiCond47) R6 load(1, XDATA, add(CFA_XSP16, literal(-22)))
          CFI (cfiCond47) VB load(1, XDATA, add(CFA_XSP16, literal(-21)))
          CFI (cfiCond47) V0 load(1, XDATA, add(CFA_XSP16, literal(-20)))
          CFI (cfiCond47) V1 load(1, XDATA, add(CFA_XSP16, literal(-19)))
          CFI (cfiCond47) V2 load(1, XDATA, add(CFA_XSP16, literal(-18)))
          CFI (cfiCond47) V3 load(1, XDATA, add(CFA_XSP16, literal(-17)))
          CFI (cfiCond47) V4 load(1, XDATA, add(CFA_XSP16, literal(-16)))
          CFI (cfiCond47) V5 load(1, XDATA, add(CFA_XSP16, literal(-15)))
          CFI (cfiCond47) V6 load(1, XDATA, add(CFA_XSP16, literal(-14)))
          CFI (cfiCond47) V7 load(1, XDATA, add(CFA_XSP16, literal(-13)))
          CFI (cfiCond47) V8 load(1, XDATA, add(CFA_XSP16, literal(-12)))
          CFI (cfiCond47) V9 load(1, XDATA, add(CFA_XSP16, literal(-11)))
          CFI (cfiCond47) V10 load(1, XDATA, add(CFA_XSP16, literal(-10)))
          CFI (cfiCond47) V11 load(1, XDATA, add(CFA_XSP16, literal(-9)))
          CFI (cfiCond47) V12 load(1, XDATA, add(CFA_XSP16, literal(-8)))
          CFI (cfiCond47) V13 load(1, XDATA, add(CFA_XSP16, literal(-7)))
          CFI (cfiCond47) R7 load(1, XDATA, add(CFA_XSP16, literal(-6)))
          CFI (cfiCond47) ?RET_LOW load(1, XDATA, add(CFA_XSP16, literal(-5)))
          CFI (cfiCond47) ?RET_HIGH load(1, XDATA, add(CFA_XSP16, literal(-4)))
          CFI (cfiCond47) ?BRET_EXT load(1, XDATA, add(CFA_XSP16, literal(-3)))
          CFI (cfiCond47) DPL0 load(1, XDATA, add(CFA_XSP16, literal(-2)))
          CFI (cfiCond47) DPH0 load(1, XDATA, add(CFA_XSP16, literal(-1)))
          CFI (cfiCond47) CFA_SP SP+0
          CFI (cfiCond47) CFA_XSP16 add(XSP16, 22)
          CFI Block cfiCond48 Using cfiCommon0
          CFI (cfiCond48) Function zll_UpdateFreeRanges
          CFI (cfiCond48) Conditional ??CrossCallReturnLabel_56
          CFI (cfiCond48) DPL0 Frame(CFA_SP, 4)
          CFI (cfiCond48) DPH0 Frame(CFA_SP, 5)
          CFI (cfiCond48) CFA_SP SP+-5
          CFI Block cfiCond49 Using cfiCommon0
          CFI (cfiCond49) Function zll_SplitFreeRanges
          CFI (cfiCond49) Conditional ??CrossCallReturnLabel_57
          CFI (cfiCond49) R6 load(1, XDATA, add(CFA_XSP16, literal(-18)))
          CFI (cfiCond49) VB load(1, XDATA, add(CFA_XSP16, literal(-17)))
          CFI (cfiCond49) V0 load(1, XDATA, add(CFA_XSP16, literal(-16)))
          CFI (cfiCond49) V1 load(1, XDATA, add(CFA_XSP16, literal(-15)))
          CFI (cfiCond49) V2 load(1, XDATA, add(CFA_XSP16, literal(-14)))
          CFI (cfiCond49) V3 load(1, XDATA, add(CFA_XSP16, literal(-13)))
          CFI (cfiCond49) V4 load(1, XDATA, add(CFA_XSP16, literal(-12)))
          CFI (cfiCond49) V5 load(1, XDATA, add(CFA_XSP16, literal(-11)))
          CFI (cfiCond49) V6 load(1, XDATA, add(CFA_XSP16, literal(-10)))
          CFI (cfiCond49) V7 load(1, XDATA, add(CFA_XSP16, literal(-9)))
          CFI (cfiCond49) V8 load(1, XDATA, add(CFA_XSP16, literal(-8)))
          CFI (cfiCond49) V9 load(1, XDATA, add(CFA_XSP16, literal(-7)))
          CFI (cfiCond49) R7 load(1, XDATA, add(CFA_XSP16, literal(-6)))
          CFI (cfiCond49) ?RET_LOW load(1, XDATA, add(CFA_XSP16, literal(-5)))
          CFI (cfiCond49) ?RET_HIGH load(1, XDATA, add(CFA_XSP16, literal(-4)))
          CFI (cfiCond49) ?BRET_EXT load(1, XDATA, add(CFA_XSP16, literal(-3)))
          CFI (cfiCond49) DPL0 load(1, XDATA, add(CFA_XSP16, literal(-2)))
          CFI (cfiCond49) DPH0 load(1, XDATA, add(CFA_XSP16, literal(-1)))
          CFI (cfiCond49) CFA_SP SP+0
          CFI (cfiCond49) CFA_XSP16 add(XSP16, 18)
          CFI Block cfiCond50 Using cfiCommon0
          CFI (cfiCond50) Function zll_SplitFreeRanges
          CFI (cfiCond50) Conditional ??CrossCallReturnLabel_58
          CFI (cfiCond50) R6 load(1, XDATA, add(CFA_XSP16, literal(-18)))
          CFI (cfiCond50) VB load(1, XDATA, add(CFA_XSP16, literal(-17)))
          CFI (cfiCond50) V0 load(1, XDATA, add(CFA_XSP16, literal(-16)))
          CFI (cfiCond50) V1 load(1, XDATA, add(CFA_XSP16, literal(-15)))
          CFI (cfiCond50) V2 load(1, XDATA, add(CFA_XSP16, literal(-14)))
          CFI (cfiCond50) V3 load(1, XDATA, add(CFA_XSP16, literal(-13)))
          CFI (cfiCond50) V4 load(1, XDATA, add(CFA_XSP16, literal(-12)))
          CFI (cfiCond50) V5 load(1, XDATA, add(CFA_XSP16, literal(-11)))
          CFI (cfiCond50) V6 load(1, XDATA, add(CFA_XSP16, literal(-10)))
          CFI (cfiCond50) V7 load(1, XDATA, add(CFA_XSP16, literal(-9)))
          CFI (cfiCond50) V8 load(1, XDATA, add(CFA_XSP16, literal(-8)))
          CFI (cfiCond50) V9 load(1, XDATA, add(CFA_XSP16, literal(-7)))
          CFI (cfiCond50) R7 load(1, XDATA, add(CFA_XSP16, literal(-6)))
          CFI (cfiCond50) ?RET_LOW load(1, XDATA, add(CFA_XSP16, literal(-5)))
          CFI (cfiCond50) ?RET_HIGH load(1, XDATA, add(CFA_XSP16, literal(-4)))
          CFI (cfiCond50) ?BRET_EXT load(1, XDATA, add(CFA_XSP16, literal(-3)))
          CFI (cfiCond50) DPL0 load(1, XDATA, add(CFA_XSP16, literal(-2)))
          CFI (cfiCond50) DPH0 load(1, XDATA, add(CFA_XSP16, literal(-1)))
          CFI (cfiCond50) CFA_SP SP+0
          CFI (cfiCond50) CFA_XSP16 add(XSP16, 18)
          CFI Block cfiCond51 Using cfiCommon0
          CFI (cfiCond51) Function zll_SplitFreeRanges
          CFI (cfiCond51) Conditional ??CrossCallReturnLabel_59
          CFI (cfiCond51) R6 load(1, XDATA, add(CFA_XSP16, literal(-18)))
          CFI (cfiCond51) VB load(1, XDATA, add(CFA_XSP16, literal(-17)))
          CFI (cfiCond51) V0 load(1, XDATA, add(CFA_XSP16, literal(-16)))
          CFI (cfiCond51) V1 load(1, XDATA, add(CFA_XSP16, literal(-15)))
          CFI (cfiCond51) V2 load(1, XDATA, add(CFA_XSP16, literal(-14)))
          CFI (cfiCond51) V3 load(1, XDATA, add(CFA_XSP16, literal(-13)))
          CFI (cfiCond51) V4 load(1, XDATA, add(CFA_XSP16, literal(-12)))
          CFI (cfiCond51) V5 load(1, XDATA, add(CFA_XSP16, literal(-11)))
          CFI (cfiCond51) V6 load(1, XDATA, add(CFA_XSP16, literal(-10)))
          CFI (cfiCond51) V7 load(1, XDATA, add(CFA_XSP16, literal(-9)))
          CFI (cfiCond51) V8 load(1, XDATA, add(CFA_XSP16, literal(-8)))
          CFI (cfiCond51) V9 load(1, XDATA, add(CFA_XSP16, literal(-7)))
          CFI (cfiCond51) R7 load(1, XDATA, add(CFA_XSP16, literal(-6)))
          CFI (cfiCond51) ?RET_LOW load(1, XDATA, add(CFA_XSP16, literal(-5)))
          CFI (cfiCond51) ?RET_HIGH load(1, XDATA, add(CFA_XSP16, literal(-4)))
          CFI (cfiCond51) ?BRET_EXT load(1, XDATA, add(CFA_XSP16, literal(-3)))
          CFI (cfiCond51) DPL0 load(1, XDATA, add(CFA_XSP16, literal(-2)))
          CFI (cfiCond51) DPH0 load(1, XDATA, add(CFA_XSP16, literal(-1)))
          CFI (cfiCond51) CFA_SP SP+0
          CFI (cfiCond51) CFA_XSP16 add(XSP16, 18)
          CFI Block cfiCond52 Using cfiCommon0
          CFI (cfiCond52) Function zll_PopGrpIDRange
          CFI (cfiCond52) Conditional ??CrossCallReturnLabel_60
          CFI (cfiCond52) R6 load(1, XDATA, add(CFA_XSP16, literal(-10)))
          CFI (cfiCond52) VB load(1, XDATA, add(CFA_XSP16, literal(-9)))
          CFI (cfiCond52) V0 load(1, XDATA, add(CFA_XSP16, literal(-8)))
          CFI (cfiCond52) V1 load(1, XDATA, add(CFA_XSP16, literal(-7)))
          CFI (cfiCond52) R7 load(1, XDATA, add(CFA_XSP16, literal(-6)))
          CFI (cfiCond52) ?RET_LOW load(1, XDATA, add(CFA_XSP16, literal(-5)))
          CFI (cfiCond52) ?RET_HIGH load(1, XDATA, add(CFA_XSP16, literal(-4)))
          CFI (cfiCond52) ?BRET_EXT load(1, XDATA, add(CFA_XSP16, literal(-3)))
          CFI (cfiCond52) DPL0 load(1, XDATA, add(CFA_XSP16, literal(-2)))
          CFI (cfiCond52) DPH0 load(1, XDATA, add(CFA_XSP16, literal(-1)))
          CFI (cfiCond52) CFA_SP SP+0
          CFI (cfiCond52) CFA_XSP16 add(XSP16, 10)
          CFI Block cfiCond53 Using cfiCommon0
          CFI (cfiCond53) Function zll_PopNwkAddress
          CFI (cfiCond53) Conditional ??CrossCallReturnLabel_61
          CFI (cfiCond53) DPL0 Frame(CFA_SP, 4)
          CFI (cfiCond53) DPH0 Frame(CFA_SP, 5)
          CFI (cfiCond53) CFA_SP SP+-5
          CFI Block cfiCond54 Using cfiCommon0
          CFI (cfiCond54) Function zll_SendScanRsp
          CFI (cfiCond54) Conditional ??CrossCallReturnLabel_62
          CFI (cfiCond54) R6 load(1, XDATA, add(CFA_XSP16, literal(-22)))
          CFI (cfiCond54) VB load(1, XDATA, add(CFA_XSP16, literal(-21)))
          CFI (cfiCond54) V0 load(1, XDATA, add(CFA_XSP16, literal(-20)))
          CFI (cfiCond54) V1 load(1, XDATA, add(CFA_XSP16, literal(-19)))
          CFI (cfiCond54) V2 load(1, XDATA, add(CFA_XSP16, literal(-18)))
          CFI (cfiCond54) V3 load(1, XDATA, add(CFA_XSP16, literal(-17)))
          CFI (cfiCond54) V4 load(1, XDATA, add(CFA_XSP16, literal(-16)))
          CFI (cfiCond54) V5 load(1, XDATA, add(CFA_XSP16, literal(-15)))
          CFI (cfiCond54) V6 load(1, XDATA, add(CFA_XSP16, literal(-14)))
          CFI (cfiCond54) V7 load(1, XDATA, add(CFA_XSP16, literal(-13)))
          CFI (cfiCond54) V8 load(1, XDATA, add(CFA_XSP16, literal(-12)))
          CFI (cfiCond54) V9 load(1, XDATA, add(CFA_XSP16, literal(-11)))
          CFI (cfiCond54) V10 load(1, XDATA, add(CFA_XSP16, literal(-10)))
          CFI (cfiCond54) V11 load(1, XDATA, add(CFA_XSP16, literal(-9)))
          CFI (cfiCond54) V12 load(1, XDATA, add(CFA_XSP16, literal(-8)))
          CFI (cfiCond54) V13 load(1, XDATA, add(CFA_XSP16, literal(-7)))
          CFI (cfiCond54) R7 load(1, XDATA, add(CFA_XSP16, literal(-6)))
          CFI (cfiCond54) ?RET_LOW load(1, XDATA, add(CFA_XSP16, literal(-5)))
          CFI (cfiCond54) ?RET_HIGH load(1, XDATA, add(CFA_XSP16, literal(-4)))
          CFI (cfiCond54) ?BRET_EXT load(1, XDATA, add(CFA_XSP16, literal(-3)))
          CFI (cfiCond54) DPL0 load(1, XDATA, add(CFA_XSP16, literal(-2)))
          CFI (cfiCond54) DPH0 load(1, XDATA, add(CFA_XSP16, literal(-1)))
          CFI (cfiCond54) CFA_SP SP+0
          CFI (cfiCond54) CFA_XSP16 add(XSP16, 22)
          CFI Block cfiCond55 Using cfiCommon0
          CFI (cfiCond55) Function zll_SendScanRsp
          CFI (cfiCond55) Conditional ??CrossCallReturnLabel_63
          CFI (cfiCond55) R6 load(1, XDATA, add(CFA_XSP16, literal(-22)))
          CFI (cfiCond55) VB load(1, XDATA, add(CFA_XSP16, literal(-21)))
          CFI (cfiCond55) V0 load(1, XDATA, add(CFA_XSP16, literal(-20)))
          CFI (cfiCond55) V1 load(1, XDATA, add(CFA_XSP16, literal(-19)))
          CFI (cfiCond55) V2 load(1, XDATA, add(CFA_XSP16, literal(-18)))
          CFI (cfiCond55) V3 load(1, XDATA, add(CFA_XSP16, literal(-17)))
          CFI (cfiCond55) V4 load(1, XDATA, add(CFA_XSP16, literal(-16)))
          CFI (cfiCond55) V5 load(1, XDATA, add(CFA_XSP16, literal(-15)))
          CFI (cfiCond55) V6 load(1, XDATA, add(CFA_XSP16, literal(-14)))
          CFI (cfiCond55) V7 load(1, XDATA, add(CFA_XSP16, literal(-13)))
          CFI (cfiCond55) V8 load(1, XDATA, add(CFA_XSP16, literal(-12)))
          CFI (cfiCond55) V9 load(1, XDATA, add(CFA_XSP16, literal(-11)))
          CFI (cfiCond55) V10 load(1, XDATA, add(CFA_XSP16, literal(-10)))
          CFI (cfiCond55) V11 load(1, XDATA, add(CFA_XSP16, literal(-9)))
          CFI (cfiCond55) V12 load(1, XDATA, add(CFA_XSP16, literal(-8)))
          CFI (cfiCond55) V13 load(1, XDATA, add(CFA_XSP16, literal(-7)))
          CFI (cfiCond55) R7 load(1, XDATA, add(CFA_XSP16, literal(-6)))
          CFI (cfiCond55) ?RET_LOW load(1, XDATA, add(CFA_XSP16, literal(-5)))
          CFI (cfiCond55) ?RET_HIGH load(1, XDATA, add(CFA_XSP16, literal(-4)))
          CFI (cfiCond55) ?BRET_EXT load(1, XDATA, add(CFA_XSP16, literal(-3)))
          CFI (cfiCond55) DPL0 load(1, XDATA, add(CFA_XSP16, literal(-2)))
          CFI (cfiCond55) DPH0 load(1, XDATA, add(CFA_XSP16, literal(-1)))
          CFI (cfiCond55) CFA_SP SP+0
          CFI (cfiCond55) CFA_XSP16 add(XSP16, 22)
          CFI Block cfiCond56 Using cfiCommon0
          CFI (cfiCond56) Function zll_BeaconIndCB
          CFI (cfiCond56) Conditional ??CrossCallReturnLabel_64
          CFI (cfiCond56) R6 load(1, XDATA, add(CFA_XSP16, literal(-20)))
          CFI (cfiCond56) VB load(1, XDATA, add(CFA_XSP16, literal(-19)))
          CFI (cfiCond56) V0 load(1, XDATA, add(CFA_XSP16, literal(-18)))
          CFI (cfiCond56) V1 load(1, XDATA, add(CFA_XSP16, literal(-17)))
          CFI (cfiCond56) V2 load(1, XDATA, add(CFA_XSP16, literal(-16)))
          CFI (cfiCond56) V3 load(1, XDATA, add(CFA_XSP16, literal(-15)))
          CFI (cfiCond56) V4 load(1, XDATA, add(CFA_XSP16, literal(-14)))
          CFI (cfiCond56) V5 load(1, XDATA, add(CFA_XSP16, literal(-13)))
          CFI (cfiCond56) V6 load(1, XDATA, add(CFA_XSP16, literal(-12)))
          CFI (cfiCond56) V7 load(1, XDATA, add(CFA_XSP16, literal(-11)))
          CFI (cfiCond56) V8 load(1, XDATA, add(CFA_XSP16, literal(-10)))
          CFI (cfiCond56) V9 load(1, XDATA, add(CFA_XSP16, literal(-9)))
          CFI (cfiCond56) V10 load(1, XDATA, add(CFA_XSP16, literal(-8)))
          CFI (cfiCond56) V11 load(1, XDATA, add(CFA_XSP16, literal(-7)))
          CFI (cfiCond56) R7 load(1, XDATA, add(CFA_XSP16, literal(-6)))
          CFI (cfiCond56) ?RET_LOW load(1, XDATA, add(CFA_XSP16, literal(-5)))
          CFI (cfiCond56) ?RET_HIGH load(1, XDATA, add(CFA_XSP16, literal(-4)))
          CFI (cfiCond56) ?BRET_EXT load(1, XDATA, add(CFA_XSP16, literal(-3)))
          CFI (cfiCond56) DPL0 load(1, XDATA, add(CFA_XSP16, literal(-2)))
          CFI (cfiCond56) DPH0 load(1, XDATA, add(CFA_XSP16, literal(-1)))
          CFI (cfiCond56) CFA_SP SP+0
          CFI (cfiCond56) CFA_XSP16 add(XSP16, 20)
          CFI Block cfiPicker57 Using cfiCommon1
          CFI (cfiPicker57) NoFunction
          CFI (cfiPicker57) Picker
        MOVX    @DPTR,A
        INC     DPTR
        MOV     A,R1
        MOVX    @DPTR,A
        RET
          CFI EndBlock cfiCond45
          CFI EndBlock cfiCond46
          CFI EndBlock cfiCond47
          CFI EndBlock cfiCond48
          CFI EndBlock cfiCond49
          CFI EndBlock cfiCond50
          CFI EndBlock cfiCond51
          CFI EndBlock cfiCond52
          CFI EndBlock cfiCond53
          CFI EndBlock cfiCond54
          CFI EndBlock cfiCond55
          CFI EndBlock cfiCond56
          CFI EndBlock cfiPicker57

        RSEG BANKED_CODE:CODE:NOROOT(0)
?Subroutine17:
          CFI Block cfiCond58 Using cfiCommon0
          CFI Function zll_IsValidSplitFreeRanges
          CFI Conditional ??CrossCallReturnLabel_15
          CFI R6 load(1, XDATA, add(CFA_XSP16, literal(-10)))
          CFI VB load(1, XDATA, add(CFA_XSP16, literal(-9)))
          CFI V0 load(1, XDATA, add(CFA_XSP16, literal(-8)))
          CFI V1 load(1, XDATA, add(CFA_XSP16, literal(-7)))
          CFI R7 load(1, XDATA, add(CFA_XSP16, literal(-6)))
          CFI ?RET_LOW load(1, XDATA, add(CFA_XSP16, literal(-5)))
          CFI ?RET_HIGH load(1, XDATA, add(CFA_XSP16, literal(-4)))
          CFI ?BRET_EXT load(1, XDATA, add(CFA_XSP16, literal(-3)))
          CFI DPL0 load(1, XDATA, add(CFA_XSP16, literal(-2)))
          CFI DPH0 load(1, XDATA, add(CFA_XSP16, literal(-1)))
          CFI CFA_SP SP+0
          CFI CFA_XSP16 add(XSP16, 10)
          CFI Block cfiCond59 Using cfiCommon0
          CFI (cfiCond59) Function zll_PopGrpIDRange
          CFI (cfiCond59) Conditional ??CrossCallReturnLabel_16
          CFI (cfiCond59) R6 load(1, XDATA, add(CFA_XSP16, literal(-10)))
          CFI (cfiCond59) VB load(1, XDATA, add(CFA_XSP16, literal(-9)))
          CFI (cfiCond59) V0 load(1, XDATA, add(CFA_XSP16, literal(-8)))
          CFI (cfiCond59) V1 load(1, XDATA, add(CFA_XSP16, literal(-7)))
          CFI (cfiCond59) R7 load(1, XDATA, add(CFA_XSP16, literal(-6)))
          CFI (cfiCond59) ?RET_LOW load(1, XDATA, add(CFA_XSP16, literal(-5)))
          CFI (cfiCond59) ?RET_HIGH load(1, XDATA, add(CFA_XSP16, literal(-4)))
          CFI (cfiCond59) ?BRET_EXT load(1, XDATA, add(CFA_XSP16, literal(-3)))
          CFI (cfiCond59) DPL0 load(1, XDATA, add(CFA_XSP16, literal(-2)))
          CFI (cfiCond59) DPH0 load(1, XDATA, add(CFA_XSP16, literal(-1)))
          CFI (cfiCond59) CFA_SP SP+0
          CFI (cfiCond59) CFA_XSP16 add(XSP16, 10)
          CFI Block cfiPicker60 Using cfiCommon1
          CFI (cfiPicker60) NoFunction
          CFI (cfiPicker60) Picker
        MOV     DPH,#(zllFreeGrpIdEnd >> 8) & 0xff
        MOV     DPL,#zllFreeGrpIdEnd & 0xff
        MOVX    A,@DPTR
        CLR     C
        SUBB    A,R0
        MOV     R0,A
        INC     DPTR
        MOVX    A,@DPTR
        SUBB    A,R1
        MOV     R1,A
        RET
          CFI EndBlock cfiCond58
          CFI EndBlock cfiCond59
          CFI EndBlock cfiPicker60

        RSEG BANKED_CODE:CODE:NOROOT(0)
?Subroutine9:
          CFI Block cfiCond61 Using cfiCommon0
          CFI Function zll_SplitFreeRanges
          CFI Conditional ??CrossCallReturnLabel_0
          CFI R6 load(1, XDATA, add(CFA_XSP16, literal(-18)))
          CFI VB load(1, XDATA, add(CFA_XSP16, literal(-17)))
          CFI V0 load(1, XDATA, add(CFA_XSP16, literal(-16)))
          CFI V1 load(1, XDATA, add(CFA_XSP16, literal(-15)))
          CFI V2 load(1, XDATA, add(CFA_XSP16, literal(-14)))
          CFI V3 load(1, XDATA, add(CFA_XSP16, literal(-13)))
          CFI V4 load(1, XDATA, add(CFA_XSP16, literal(-12)))
          CFI V5 load(1, XDATA, add(CFA_XSP16, literal(-11)))
          CFI V6 load(1, XDATA, add(CFA_XSP16, literal(-10)))
          CFI V7 load(1, XDATA, add(CFA_XSP16, literal(-9)))
          CFI V8 load(1, XDATA, add(CFA_XSP16, literal(-8)))
          CFI V9 load(1, XDATA, add(CFA_XSP16, literal(-7)))
          CFI R7 load(1, XDATA, add(CFA_XSP16, literal(-6)))
          CFI ?RET_LOW load(1, XDATA, add(CFA_XSP16, literal(-5)))
          CFI ?RET_HIGH load(1, XDATA, add(CFA_XSP16, literal(-4)))
          CFI ?BRET_EXT load(1, XDATA, add(CFA_XSP16, literal(-3)))
          CFI DPL0 load(1, XDATA, add(CFA_XSP16, literal(-2)))
          CFI DPH0 load(1, XDATA, add(CFA_XSP16, literal(-1)))
          CFI CFA_SP SP+0
          CFI CFA_XSP16 add(XSP16, 18)
          CFI Block cfiCond62 Using cfiCommon0
          CFI (cfiCond62) Function zll_SplitFreeRanges
          CFI (cfiCond62) Conditional ??CrossCallReturnLabel_1
          CFI (cfiCond62) R6 load(1, XDATA, add(CFA_XSP16, literal(-18)))
          CFI (cfiCond62) VB load(1, XDATA, add(CFA_XSP16, literal(-17)))
          CFI (cfiCond62) V0 load(1, XDATA, add(CFA_XSP16, literal(-16)))
          CFI (cfiCond62) V1 load(1, XDATA, add(CFA_XSP16, literal(-15)))
          CFI (cfiCond62) V2 load(1, XDATA, add(CFA_XSP16, literal(-14)))
          CFI (cfiCond62) V3 load(1, XDATA, add(CFA_XSP16, literal(-13)))
          CFI (cfiCond62) V4 load(1, XDATA, add(CFA_XSP16, literal(-12)))
          CFI (cfiCond62) V5 load(1, XDATA, add(CFA_XSP16, literal(-11)))
          CFI (cfiCond62) V6 load(1, XDATA, add(CFA_XSP16, literal(-10)))
          CFI (cfiCond62) V7 load(1, XDATA, add(CFA_XSP16, literal(-9)))
          CFI (cfiCond62) V8 load(1, XDATA, add(CFA_XSP16, literal(-8)))
          CFI (cfiCond62) V9 load(1, XDATA, add(CFA_XSP16, literal(-7)))
          CFI (cfiCond62) R7 load(1, XDATA, add(CFA_XSP16, literal(-6)))
          CFI (cfiCond62) ?RET_LOW load(1, XDATA, add(CFA_XSP16, literal(-5)))
          CFI (cfiCond62) ?RET_HIGH load(1, XDATA, add(CFA_XSP16, literal(-4)))
          CFI (cfiCond62) ?BRET_EXT load(1, XDATA, add(CFA_XSP16, literal(-3)))
          CFI (cfiCond62) DPL0 load(1, XDATA, add(CFA_XSP16, literal(-2)))
          CFI (cfiCond62) DPH0 load(1, XDATA, add(CFA_XSP16, literal(-1)))
          CFI (cfiCond62) CFA_SP SP+0
          CFI (cfiCond62) CFA_XSP16 add(XSP16, 18)
          CFI Block cfiCond63 Using cfiCommon0
          CFI (cfiCond63) Function zll_PopGrpIDRange
          CFI (cfiCond63) Conditional ??CrossCallReturnLabel_2
          CFI (cfiCond63) R6 load(1, XDATA, add(CFA_XSP16, literal(-10)))
          CFI (cfiCond63) VB load(1, XDATA, add(CFA_XSP16, literal(-9)))
          CFI (cfiCond63) V0 load(1, XDATA, add(CFA_XSP16, literal(-8)))
          CFI (cfiCond63) V1 load(1, XDATA, add(CFA_XSP16, literal(-7)))
          CFI (cfiCond63) R7 load(1, XDATA, add(CFA_XSP16, literal(-6)))
          CFI (cfiCond63) ?RET_LOW load(1, XDATA, add(CFA_XSP16, literal(-5)))
          CFI (cfiCond63) ?RET_HIGH load(1, XDATA, add(CFA_XSP16, literal(-4)))
          CFI (cfiCond63) ?BRET_EXT load(1, XDATA, add(CFA_XSP16, literal(-3)))
          CFI (cfiCond63) DPL0 load(1, XDATA, add(CFA_XSP16, literal(-2)))
          CFI (cfiCond63) DPH0 load(1, XDATA, add(CFA_XSP16, literal(-1)))
          CFI (cfiCond63) CFA_SP SP+0
          CFI (cfiCond63) CFA_XSP16 add(XSP16, 10)
          CFI Block cfiPicker64 Using cfiCommon1
          CFI (cfiPicker64) NoFunction
          CFI (cfiPicker64) Picker
        MOVX    A,@DPTR
        ADD     A,#-0x1
        MOV     R0,A
        INC     DPTR
        MOVX    A,@DPTR
        ADDC    A,#-0x1
        MOV     R1,A
        RET
          CFI EndBlock cfiCond61
          CFI EndBlock cfiCond62
          CFI EndBlock cfiCond63
          CFI EndBlock cfiPicker64
//  484 
//  485 /*********************************************************************
//  486  * @fn      zll_PopNwkAddress
//  487  *
//  488  * @brief   Pop an avaialble short address out of the free network addresses range.
//  489  *
//  490  * @param   none
//  491  *
//  492  * @return  free address if available. 0, otherwise.
//  493  */

        RSEG BANKED_CODE:CODE:NOROOT(0)
//  494 uint16 zll_PopNwkAddress( void )
zll_PopNwkAddress:
          CFI Block cfiBlock65 Using cfiCommon0
          CFI Function zll_PopNwkAddress
        CODE
//  495 {
        PUSH    DPL
          CFI DPL0 Frame(CFA_SP, 4)
          CFI CFA_SP SP+-4
        PUSH    DPH
          CFI DPH0 Frame(CFA_SP, 5)
          CFI CFA_SP SP+-5
        ; Saved register size: 2
        ; Auto size: 0
//  496   if ( ( zllFreeNwkAddrBegin == 0 ) || ( zllFreeNwkAddrBegin > zllFreeNwkAddrEnd ) )
        MOV     DPTR,#zllFreeNwkAddrBegin
        LCALL   ??Subroutine46_0 & 0xFFFF
??CrossCallReturnLabel_121:
        JZ      ??zll_PopNwkAddress_0
        MOV     DPH,#(zllFreeNwkAddrEnd >> 8) & 0xff
        MOV     DPL,#zllFreeNwkAddrEnd & 0xff
        CLR     C
        MOVX    A,@DPTR
        SUBB    A,R0
        INC     DPTR
        MOVX    A,@DPTR
        SUBB    A,R1
        JNC     ??zll_PopNwkAddress_1
//  497   {
//  498     return ( 0 );
??zll_PopNwkAddress_0:
        MOV     R2,#0x0
        MOV     R3,#0x0
        SJMP    ??CrossCallReturnLabel_61
//  499   }
//  500 
//  501   return ( zllFreeNwkAddrBegin++ );
??zll_PopNwkAddress_1:
        MOV     DPTR,#zllFreeNwkAddrBegin
        LCALL   ??Subroutine38_0 & 0xFFFF
??CrossCallReturnLabel_65:
        MOV     A,R2
        ADD     A,#0x1
        INC     R0
        MOV     A,R3
        ADDC    A,#0x0
        MOV     R1,A
        MOV     DPTR,#zllFreeNwkAddrBegin
        LCALL   ?Subroutine19 & 0xFFFF
??CrossCallReturnLabel_61:
        SJMP    ??Subroutine39_0
          CFI EndBlock cfiBlock65
//  502 }
//  503 
//  504 /*********************************************************************
//  505  * @fn      zll_GetNumSubDevices
//  506  *
//  507  * @brief   Get the total number of sub-devices (endpoints) registered.
//  508  *
//  509  * @param   startIndex - starting index
//  510  *
//  511  * @return  number of sub-devices
//  512  */

        RSEG BANKED_CODE:CODE:NOROOT(0)
//  513 uint8 zll_GetNumSubDevices( uint8 startIndex )
zll_GetNumSubDevices:
          CFI Block cfiBlock66 Using cfiCommon0
          CFI Function zll_GetNumSubDevices
        CODE
//  514 {
        PUSH    DPL
          CFI DPL0 Frame(CFA_SP, 4)
          CFI CFA_SP SP+-4
        PUSH    DPH
          CFI DPH0 Frame(CFA_SP, 5)
          CFI CFA_SP SP+-5
        ; Saved register size: 2
        ; Auto size: 0
        MOV     A,R1
//  515   uint8 numEPs = 0;
        MOV     R1,#0x0
//  516 
//  517   for ( uint8 i = startIndex; i < ZLL_NUM_DEVICE_INFO_ENTRIES; i++ )
        MOV     R0,A
        SJMP    ??zll_GetNumSubDevices_0
//  518   {
//  519     if ( zllSubDevicesTbl[i] != NULL )
??zll_GetNumSubDevices_1:
        LCALL   ?Subroutine10 & 0xFFFF
??CrossCallReturnLabel_69:
        MOV     A,R2
        ORL     A,R3
        JZ      ??zll_GetNumSubDevices_2
//  520     numEPs++;
        INC     R1
//  521   }
??zll_GetNumSubDevices_2:
        INC     R0
??zll_GetNumSubDevices_0:
        MOV     A,R0
        CLR     C
        SUBB    A,#0x5
        JC      ??zll_GetNumSubDevices_1
//  522 
//  523   return ( numEPs );
        SJMP    ??Subroutine39_0
          CFI EndBlock cfiBlock66
//  524 }

        RSEG BANKED_CODE:CODE:NOROOT(0)
?Subroutine10:
          CFI Block cfiCond67 Using cfiCommon0
          CFI Function zll_GetNumSubDevices
          CFI Conditional ??CrossCallReturnLabel_69
          CFI DPL0 Frame(CFA_SP, 4)
          CFI DPH0 Frame(CFA_SP, 5)
          CFI CFA_SP SP+-5
          CFI Block cfiCond68 Using cfiCommon0
          CFI (cfiCond68) Function zll_GetNumGrpIDs
          CFI (cfiCond68) Conditional ??CrossCallReturnLabel_70
          CFI (cfiCond68) DPL0 Frame(CFA_SP, 4)
          CFI (cfiCond68) DPH0 Frame(CFA_SP, 5)
          CFI (cfiCond68) CFA_SP SP+-5
          CFI Block cfiPicker69 Using cfiCommon1
          CFI (cfiPicker69) NoFunction
          CFI (cfiPicker69) Picker
        MOV     A,R0
        CLR     C
        RLC     A
        MOV     R2,A
        CLR     A
        RLC     A
        MOV     R3,A
        MOV     A,#zllSubDevicesTbl & 0xff
        ADD     A,R2
        MOV     DPL,A
        MOV     A,#(zllSubDevicesTbl >> 8) & 0xff
        ADDC    A,R3
        MOV     DPH,A
          CFI EndBlock cfiCond67
          CFI EndBlock cfiCond68
          CFI EndBlock cfiPicker69
        REQUIRE ??Subroutine38_0
        ; // Fall through to label ??Subroutine38_0

        RSEG BANKED_CODE:CODE:NOROOT(0)
??Subroutine38_0:
          CFI Block cfiCond70 Using cfiCommon0
          CFI Function zll_PopNwkAddress
          CFI Conditional ??CrossCallReturnLabel_65
          CFI DPL0 Frame(CFA_SP, 4)
          CFI DPH0 Frame(CFA_SP, 5)
          CFI CFA_SP SP+-5
          CFI Block cfiCond71 Using cfiCommon0
          CFI (cfiCond71) Function zll_RouterProcessZDOMsg
          CFI (cfiCond71) Conditional ??CrossCallReturnLabel_66
          CFI (cfiCond71) R6 load(1, XDATA, add(CFA_XSP16, literal(-10)))
          CFI (cfiCond71) VB load(1, XDATA, add(CFA_XSP16, literal(-9)))
          CFI (cfiCond71) V0 load(1, XDATA, add(CFA_XSP16, literal(-8)))
          CFI (cfiCond71) V1 load(1, XDATA, add(CFA_XSP16, literal(-7)))
          CFI (cfiCond71) R7 load(1, XDATA, add(CFA_XSP16, literal(-6)))
          CFI (cfiCond71) ?RET_LOW load(1, XDATA, add(CFA_XSP16, literal(-5)))
          CFI (cfiCond71) ?RET_HIGH load(1, XDATA, add(CFA_XSP16, literal(-4)))
          CFI (cfiCond71) ?BRET_EXT load(1, XDATA, add(CFA_XSP16, literal(-3)))
          CFI (cfiCond71) DPL0 load(1, XDATA, add(CFA_XSP16, literal(-2)))
          CFI (cfiCond71) DPH0 load(1, XDATA, add(CFA_XSP16, literal(-1)))
          CFI (cfiCond71) CFA_SP SP+0
          CFI (cfiCond71) CFA_XSP16 add(XSP16, 22)
          CFI Block cfiCond72 Using cfiCommon0
          CFI (cfiCond72) Function zll_RouterProcessZDOMsg
          CFI (cfiCond72) Conditional ??CrossCallReturnLabel_67
          CFI (cfiCond72) R6 load(1, XDATA, add(CFA_XSP16, literal(-10)))
          CFI (cfiCond72) VB load(1, XDATA, add(CFA_XSP16, literal(-9)))
          CFI (cfiCond72) V0 load(1, XDATA, add(CFA_XSP16, literal(-8)))
          CFI (cfiCond72) V1 load(1, XDATA, add(CFA_XSP16, literal(-7)))
          CFI (cfiCond72) R7 load(1, XDATA, add(CFA_XSP16, literal(-6)))
          CFI (cfiCond72) ?RET_LOW load(1, XDATA, add(CFA_XSP16, literal(-5)))
          CFI (cfiCond72) ?RET_HIGH load(1, XDATA, add(CFA_XSP16, literal(-4)))
          CFI (cfiCond72) ?BRET_EXT load(1, XDATA, add(CFA_XSP16, literal(-3)))
          CFI (cfiCond72) DPL0 load(1, XDATA, add(CFA_XSP16, literal(-2)))
          CFI (cfiCond72) DPH0 load(1, XDATA, add(CFA_XSP16, literal(-1)))
          CFI (cfiCond72) CFA_SP SP+0
          CFI (cfiCond72) CFA_XSP16 add(XSP16, 22)
          CFI Block cfiCond73 Using cfiCommon0
          CFI (cfiCond73) Function zll_RouterProcessZDOMsg
          CFI (cfiCond73) Conditional ??CrossCallReturnLabel_68
          CFI (cfiCond73) R6 load(1, XDATA, add(CFA_XSP16, literal(-10)))
          CFI (cfiCond73) VB load(1, XDATA, add(CFA_XSP16, literal(-9)))
          CFI (cfiCond73) V0 load(1, XDATA, add(CFA_XSP16, literal(-8)))
          CFI (cfiCond73) V1 load(1, XDATA, add(CFA_XSP16, literal(-7)))
          CFI (cfiCond73) R7 load(1, XDATA, add(CFA_XSP16, literal(-6)))
          CFI (cfiCond73) ?RET_LOW load(1, XDATA, add(CFA_XSP16, literal(-5)))
          CFI (cfiCond73) ?RET_HIGH load(1, XDATA, add(CFA_XSP16, literal(-4)))
          CFI (cfiCond73) ?BRET_EXT load(1, XDATA, add(CFA_XSP16, literal(-3)))
          CFI (cfiCond73) DPL0 load(1, XDATA, add(CFA_XSP16, literal(-2)))
          CFI (cfiCond73) DPH0 load(1, XDATA, add(CFA_XSP16, literal(-1)))
          CFI (cfiCond73) CFA_SP SP+0
          CFI (cfiCond73) CFA_XSP16 add(XSP16, 22)
          CFI Block cfiCond74 Using cfiCommon0
          CFI (cfiCond74) Function zll_GetNumSubDevices
          CFI (cfiCond74) Conditional ??CrossCallReturnLabel_69
          CFI (cfiCond74) DPL0 Frame(CFA_SP, 4)
          CFI (cfiCond74) DPH0 Frame(CFA_SP, 5)
          CFI (cfiCond74) CFA_SP SP+-5
          CFI Block cfiCond75 Using cfiCommon0
          CFI (cfiCond75) Function zll_GetNumGrpIDs
          CFI (cfiCond75) Conditional ??CrossCallReturnLabel_70
          CFI (cfiCond75) DPL0 Frame(CFA_SP, 4)
          CFI (cfiCond75) DPH0 Frame(CFA_SP, 5)
          CFI (cfiCond75) CFA_SP SP+-5
          CFI Block cfiPicker76 Using cfiCommon1
          CFI (cfiPicker76) NoFunction
          CFI (cfiPicker76) Picker
        MOVX    A,@DPTR
        MOV     R2,A
        INC     DPTR
        MOVX    A,@DPTR
        MOV     R3,A
        RET
          CFI EndBlock cfiCond70
          CFI EndBlock cfiCond71
          CFI EndBlock cfiCond72
          CFI EndBlock cfiCond73
          CFI EndBlock cfiCond74
          CFI EndBlock cfiCond75
          CFI EndBlock cfiPicker76

        RSEG BANKED_CODE:CODE:NOROOT(0)
?Subroutine1:
          CFI Block cfiBlock77 Using cfiCommon0
          CFI NoFunction
          CFI CFA_SP SP+-5
          CFI CFA_XSP16 add(XSP16, 2)
          CFI DPL0 Frame(CFA_SP, 4)
          CFI DPH0 Frame(CFA_SP, 5)
          CFI Invalid
        LCALL   ?DEALLOC_XSTACK8
          CFI EndBlock cfiBlock77
        REQUIRE ??Subroutine39_0
        ; // Fall through to label ??Subroutine39_0

        RSEG BANKED_CODE:CODE:NOROOT(0)
??Subroutine39_0:
          CFI Block cfiBlock78 Using cfiCommon0
          CFI NoFunction
          CFI CFA_SP SP+-5
          CFI DPL0 Frame(CFA_SP, 4)
          CFI DPH0 Frame(CFA_SP, 5)
        POP     DPH
          CFI CFA_SP SP+-4
          CFI DPH0 SameValue
        POP     DPL
          CFI CFA_SP SP+-3
          CFI DPL0 SameValue
        LJMP    ?BRET
          CFI EndBlock cfiBlock78
//  525 
//  526 /*********************************************************************
//  527  * @fn      zll_GetNumGrpIDs
//  528  *
//  529  * @brief   Get the total number of group IDs required by this device.
//  530  *
//  531  * @param   none
//  532  *
//  533  * @return  number of group IDs
//  534  */

        RSEG BANKED_CODE:CODE:NOROOT(0)
//  535 uint8 zll_GetNumGrpIDs( void )
zll_GetNumGrpIDs:
          CFI Block cfiBlock79 Using cfiCommon0
          CFI Function zll_GetNumGrpIDs
        CODE
//  536 {
        PUSH    DPL
          CFI DPL0 Frame(CFA_SP, 4)
          CFI CFA_SP SP+-4
        PUSH    DPH
          CFI DPH0 Frame(CFA_SP, 5)
          CFI CFA_SP SP+-5
        ; Saved register size: 2
        ; Auto size: 0
//  537   uint8 numGrpIDs = 0;
        MOV     R1,#0x0
//  538 
//  539   for ( uint8 i = 0; i < ZLL_NUM_DEVICE_INFO_ENTRIES; i++ )
        MOV     R0,#0x0
//  540   {
//  541     if ( zllSubDevicesTbl[i] != NULL )
??zll_GetNumGrpIDs_0:
        LCALL   ?Subroutine10 & 0xFFFF
??CrossCallReturnLabel_70:
        MOV     DPL,R2
        MOV     DPH,R3
        MOV     A,DPL
        ORL     A,DPH
        JZ      ??zll_GetNumGrpIDs_1
//  542     {
//  543       numGrpIDs += zllSubDevicesTbl[i]->grpIdCnt;
        INC     DPTR
        INC     DPTR
        INC     DPTR
        INC     DPTR
        INC     DPTR
        INC     DPTR
        MOVX    A,@DPTR
        ADD     A,R1
        MOV     R1,A
//  544     }
//  545   }
??zll_GetNumGrpIDs_1:
        INC     R0
        MOV     A,R0
        CLR     C
        SUBB    A,#0x5
        JC      ??zll_GetNumGrpIDs_0
//  546 
//  547   return ( numGrpIDs );
        SJMP    ??Subroutine39_0
          CFI EndBlock cfiBlock79
//  548 }
//  549 
//  550 /*********************************************************************
//  551  * @fn      zll_GetSubDeviceInfo
//  552  *
//  553  * @brief   Get the sub-device information.
//  554  *
//  555  * input parameter
//  556  *
//  557  * @param   index - index of sub-device
//  558  *
//  559  * output parameter
//  560  *
//  561  * @param   pInfo - sub-device info (to be returned)
//  562  *
//  563  * @return  none
//  564  */

        RSEG BANKED_CODE:CODE:NOROOT(0)
//  565 void zll_GetSubDeviceInfo( uint8 index, zclLLDeviceInfo_t *pInfo )
zll_GetSubDeviceInfo:
          CFI Block cfiBlock80 Using cfiCommon0
          CFI Function zll_GetSubDeviceInfo
        CODE
//  566 {
        FUNCALL zll_GetSubDeviceInfo, afFindEndPointDesc
        LOCFRAME ISTACK, 0, STACK
        LOCFRAME PSTACK, 0, STACK
        LOCFRAME XSTACK, 14, STACK
        LOCFRAME IOVERLAY, 0, STATIC
        LOCFRAME DOVERLAY, 0, STATIC
        ARGFRAME ISTACK, 0, STACK
        ARGFRAME PSTACK, 0, STACK
        ARGFRAME XSTACK, 14, STACK
        ARGFRAME IOVERLAY, 0, STATIC
        ARGFRAME DOVERLAY, 0, STATIC
        FUNCALL zll_GetSubDeviceInfo, osal_memset
        LOCFRAME ISTACK, 0, STACK
        LOCFRAME PSTACK, 0, STACK
        LOCFRAME XSTACK, 14, STACK
        LOCFRAME IOVERLAY, 0, STATIC
        LOCFRAME DOVERLAY, 0, STATIC
        ARGFRAME ISTACK, 0, STACK
        ARGFRAME PSTACK, 0, STACK
        ARGFRAME XSTACK, 14, STACK
        ARGFRAME IOVERLAY, 0, STATIC
        ARGFRAME DOVERLAY, 0, STATIC
        MOV     A,#-0xe
        LCALL   ?BANKED_ENTER_XDATA
          CFI DPH0 load(1, XDATA, add(CFA_XSP16, literal(-1)))
          CFI DPL0 load(1, XDATA, add(CFA_XSP16, literal(-2)))
          CFI ?BRET_EXT load(1, XDATA, add(CFA_XSP16, literal(-3)))
          CFI ?RET_HIGH load(1, XDATA, add(CFA_XSP16, literal(-4)))
          CFI ?RET_LOW load(1, XDATA, add(CFA_XSP16, literal(-5)))
          CFI R7 load(1, XDATA, add(CFA_XSP16, literal(-6)))
          CFI V5 load(1, XDATA, add(CFA_XSP16, literal(-7)))
          CFI V4 load(1, XDATA, add(CFA_XSP16, literal(-8)))
          CFI V3 load(1, XDATA, add(CFA_XSP16, literal(-9)))
          CFI V2 load(1, XDATA, add(CFA_XSP16, literal(-10)))
          CFI V1 load(1, XDATA, add(CFA_XSP16, literal(-11)))
          CFI V0 load(1, XDATA, add(CFA_XSP16, literal(-12)))
          CFI VB load(1, XDATA, add(CFA_XSP16, literal(-13)))
          CFI R6 load(1, XDATA, add(CFA_XSP16, literal(-14)))
          CFI CFA_SP SP+0
          CFI CFA_XSP16 add(XSP16, 14)
        ; Saved register size: 14
        ; Auto size: 0
        MOV     A,R2
        MOV     R6,A
        MOV     A,R3
        MOV     R7,A
//  567   if ( pInfo == NULL )
        MOV     A,R6
        ORL     A,R7
        JZ      ??zll_GetSubDeviceInfo_0
//  568   {
//  569     return;
//  570   }
//  571   if ( ( index < ZLL_NUM_DEVICE_INFO_ENTRIES ) &&
//  572        ( zllSubDevicesTbl[index] != NULL ) )
        MOV     A,R1
        CLR     C
        SUBB    A,#0x5
        JNC     ??zll_GetSubDeviceInfo_1
        MOV     A,R1
        CLR     C
        RLC     A
        MOV     R0,A
        CLR     A
        RLC     A
        MOV     R1,A
        MOV     A,#zllSubDevicesTbl & 0xff
        ADD     A,R0
        MOV     R0,A
        MOV     A,#(zllSubDevicesTbl >> 8) & 0xff
        ADDC    A,R1
        MOV     R1,A
        MOV     ?V0 + 0,R0
        MOV     ?V0 + 1,R1
        MOV     DPL,R0
        LCALL   ??Subroutine42_0 & 0xFFFF
??CrossCallReturnLabel_98:
        MOV     DPL,R0
        MOV     DPH,R1
        MOV     A,DPL
        ORL     A,DPH
        JZ      ??zll_GetSubDeviceInfo_1
//  573   {
//  574     endPointDesc_t *epDesc = afFindEndPointDesc( zllSubDevicesTbl[index]->endpoint );
//  575     if ( epDesc != NULL )
        ; Setup parameters for call to function afFindEndPointDesc
        MOVX    A,@DPTR
        MOV     R1,A
        LCALL   ??afFindEndPointDesc?relay
        MOV     ?V0 + 5,R3
        MOV     A,R2
        ORL     A,?V0 + 5
        JZ      ??zll_GetSubDeviceInfo_0
//  576     {
//  577       // Copy sub-device info
//  578       *pInfo = *(zllSubDevicesTbl[index]);
        MOV     DPL,?V0 + 0
        MOV     DPH,?V0 + 1
        LCALL   ?Subroutine16 & 0xFFFF
//  579     }
//  580   }
??CrossCallReturnLabel_13:
        MOV     A,R6
        MOV     R4,A
        MOV     A,R7
        MOV     R5,A
        MOV     A,#0x7
        LCALL   ?MOVE_LONG8_XDATA_XDATA
        SJMP    ??zll_GetSubDeviceInfo_0
//  581   else
//  582   {
//  583     osal_memset( pInfo, 0, sizeof( zclLLDeviceInfo_t ) );
??zll_GetSubDeviceInfo_1:
        ; Setup parameters for call to function osal_memset
        MOV     R4,#0x7
        MOV     R5,#0x0
        MOV     R1,#0x0
        LCALL   ??osal_memset?relay
??zll_GetSubDeviceInfo_0:
        MOV     R7,#0x6
        LJMP    ?BANKED_LEAVE_XDATA
          CFI EndBlock cfiBlock80
//  584   }
//  585 }
//  586 
//  587 
//  588 /*********************************************************************
//  589  * @fn      zll_EncryptNwkKey
//  590  *
//  591  * @brief   Encrypt the current network key to be sent to a Target.
//  592  *          In case of Factory New device generate new key.
//  593  *
//  594  * output parameter
//  595  *
//  596  * @param   pNwkKey - pointer to encrypted network key
//  597  *
//  598  * input parameters
//  599  *
//  600  * @param   keyIndex - key index
//  601  * @param   transID - transaction id
//  602  * @param   responseID - response id
//  603  *
//  604  * @return  none
//  605  */

        RSEG BANKED_CODE:CODE:NOROOT(0)
//  606 void zll_EncryptNwkKey( uint8 *pNwkKey, uint8 keyIndex, uint32 transID, uint32 responseID )
zll_EncryptNwkKey:
          CFI Block cfiBlock81 Using cfiCommon0
          CFI Function zll_EncryptNwkKey
        CODE
//  607 {
        FUNCALL zll_EncryptNwkKey, zll_IsFactoryNew
        LOCFRAME ISTACK, 0, STACK
        LOCFRAME PSTACK, 0, STACK
        LOCFRAME XSTACK, 91, STACK
        LOCFRAME IOVERLAY, 0, STATIC
        LOCFRAME DOVERLAY, 0, STATIC
        ARGFRAME ISTACK, 0, STACK
        ARGFRAME PSTACK, 0, STACK
        ARGFRAME XSTACK, 91, STACK
        ARGFRAME IOVERLAY, 0, STATIC
        ARGFRAME DOVERLAY, 0, STATIC
        FUNCALL zll_EncryptNwkKey, zll_GenerateRandNum
        LOCFRAME ISTACK, 0, STACK
        LOCFRAME PSTACK, 0, STACK
        LOCFRAME XSTACK, 91, STACK
        LOCFRAME IOVERLAY, 0, STATIC
        LOCFRAME DOVERLAY, 0, STATIC
        ARGFRAME ISTACK, 0, STACK
        ARGFRAME PSTACK, 0, STACK
        ARGFRAME XSTACK, 91, STACK
        ARGFRAME IOVERLAY, 0, STATIC
        ARGFRAME DOVERLAY, 0, STATIC
        FUNCALL zll_EncryptNwkKey, SSP_ReadNwkActiveKey
        LOCFRAME ISTACK, 0, STACK
        LOCFRAME PSTACK, 0, STACK
        LOCFRAME XSTACK, 91, STACK
        LOCFRAME IOVERLAY, 0, STATIC
        LOCFRAME DOVERLAY, 0, STATIC
        ARGFRAME ISTACK, 0, STACK
        ARGFRAME PSTACK, 0, STACK
        ARGFRAME XSTACK, 91, STACK
        ARGFRAME IOVERLAY, 0, STATIC
        ARGFRAME DOVERLAY, 0, STATIC
        FUNCALL zll_EncryptNwkKey, osal_memcpy
        LOCFRAME ISTACK, 0, STACK
        LOCFRAME PSTACK, 0, STACK
        LOCFRAME XSTACK, 94, STACK
        LOCFRAME IOVERLAY, 0, STATIC
        LOCFRAME DOVERLAY, 0, STATIC
        ARGFRAME ISTACK, 0, STACK
        ARGFRAME PSTACK, 0, STACK
        ARGFRAME XSTACK, 94, STACK
        ARGFRAME IOVERLAY, 0, STATIC
        ARGFRAME DOVERLAY, 0, STATIC
        FUNCALL zll_EncryptNwkKey, zll_BuildAesKey
        LOCFRAME ISTACK, 0, STACK
        LOCFRAME PSTACK, 0, STACK
        LOCFRAME XSTACK, 99, STACK
        LOCFRAME IOVERLAY, 0, STATIC
        LOCFRAME DOVERLAY, 0, STATIC
        ARGFRAME ISTACK, 0, STACK
        ARGFRAME PSTACK, 0, STACK
        ARGFRAME XSTACK, 99, STACK
        ARGFRAME IOVERLAY, 0, STATIC
        ARGFRAME DOVERLAY, 0, STATIC
        FUNCALL zll_EncryptNwkKey, sspAesEncrypt
        LOCFRAME ISTACK, 0, STACK
        LOCFRAME PSTACK, 0, STACK
        LOCFRAME XSTACK, 91, STACK
        LOCFRAME IOVERLAY, 0, STATIC
        LOCFRAME DOVERLAY, 0, STATIC
        ARGFRAME ISTACK, 0, STACK
        ARGFRAME PSTACK, 0, STACK
        ARGFRAME XSTACK, 91, STACK
        ARGFRAME IOVERLAY, 0, STATIC
        ARGFRAME DOVERLAY, 0, STATIC
        FUNCALL zll_EncryptNwkKey, sspAesEncrypt
        LOCFRAME ISTACK, 0, STACK
        LOCFRAME PSTACK, 0, STACK
        LOCFRAME XSTACK, 91, STACK
        LOCFRAME IOVERLAY, 0, STATIC
        LOCFRAME DOVERLAY, 0, STATIC
        ARGFRAME ISTACK, 0, STACK
        ARGFRAME PSTACK, 0, STACK
        ARGFRAME XSTACK, 91, STACK
        ARGFRAME IOVERLAY, 0, STATIC
        ARGFRAME DOVERLAY, 0, STATIC
        FUNCALL zll_EncryptNwkKey, osal_memcpy
        LOCFRAME ISTACK, 0, STACK
        LOCFRAME PSTACK, 0, STACK
        LOCFRAME XSTACK, 94, STACK
        LOCFRAME IOVERLAY, 0, STATIC
        LOCFRAME DOVERLAY, 0, STATIC
        ARGFRAME ISTACK, 0, STACK
        ARGFRAME PSTACK, 0, STACK
        ARGFRAME XSTACK, 94, STACK
        ARGFRAME IOVERLAY, 0, STATIC
        ARGFRAME DOVERLAY, 0, STATIC
        MOV     A,#-0x16
        LCALL   ?BANKED_ENTER_XDATA
          CFI DPH0 load(1, XDATA, add(CFA_XSP16, literal(-1)))
          CFI DPL0 load(1, XDATA, add(CFA_XSP16, literal(-2)))
          CFI ?BRET_EXT load(1, XDATA, add(CFA_XSP16, literal(-3)))
          CFI ?RET_HIGH load(1, XDATA, add(CFA_XSP16, literal(-4)))
          CFI ?RET_LOW load(1, XDATA, add(CFA_XSP16, literal(-5)))
          CFI R7 load(1, XDATA, add(CFA_XSP16, literal(-6)))
          CFI V13 load(1, XDATA, add(CFA_XSP16, literal(-7)))
          CFI V12 load(1, XDATA, add(CFA_XSP16, literal(-8)))
          CFI V11 load(1, XDATA, add(CFA_XSP16, literal(-9)))
          CFI V10 load(1, XDATA, add(CFA_XSP16, literal(-10)))
          CFI V9 load(1, XDATA, add(CFA_XSP16, literal(-11)))
          CFI V8 load(1, XDATA, add(CFA_XSP16, literal(-12)))
          CFI V7 load(1, XDATA, add(CFA_XSP16, literal(-13)))
          CFI V6 load(1, XDATA, add(CFA_XSP16, literal(-14)))
          CFI V5 load(1, XDATA, add(CFA_XSP16, literal(-15)))
          CFI V4 load(1, XDATA, add(CFA_XSP16, literal(-16)))
          CFI V3 load(1, XDATA, add(CFA_XSP16, literal(-17)))
          CFI V2 load(1, XDATA, add(CFA_XSP16, literal(-18)))
          CFI V1 load(1, XDATA, add(CFA_XSP16, literal(-19)))
          CFI V0 load(1, XDATA, add(CFA_XSP16, literal(-20)))
          CFI VB load(1, XDATA, add(CFA_XSP16, literal(-21)))
          CFI R6 load(1, XDATA, add(CFA_XSP16, literal(-22)))
          CFI CFA_SP SP+0
          CFI CFA_XSP16 add(XSP16, 22)
        ; Saved register size: 22
        ; Auto size: 69
        MOV     A,#-0x45
        LCALL   ?ALLOC_XSTACK8
          CFI CFA_XSP16 add(XSP16, 91)
        MOV     ?V0 + 12,R2
        MOV     ?V0 + 13,R3
        MOV     A,R1
        MOV     R6,A
        MOV     A,#0x5b
        LCALL   ?XSTACK_DISP0_8
        MOV     R0,#?V0 + 0
        LCALL   ?L_MOV_X
        MOV     A,#0x5f
        LCALL   ?XSTACK_DISP0_8
        MOV     R0,#?V0 + 4
        LCALL   ?L_MOV_X
//  608   uint8 aesKeyKey[SEC_KEY_LEN] = ZLL_DEFAULT_AES_KEY;
        MOV     A,#0x10
        LCALL   ?XSTACK_DISP0_8
        MOV     R4,DPL
        MOV     R5,DPH
        MOV     DPH,#(`?<Constant {80, 104, 76, 105, 234, 156, 209, 5` >> 8) & 0xff
        MOV     DPL,#`?<Constant {80, 104, 76, 105, 234, 156, 209, 5` & 0xff
        MOV     A,#0x10
        LCALL   ?MOVE_LONG8_XDATA_XDATA
//  609   uint8 masterKey[SEC_KEY_LEN] = ZLL_ENC_KEY;
        MOV     A,#0x35
        LCALL   ?XSTACK_DISP0_8
        MOV     R4,DPL
        MOV     R5,DPH
        MOV     DPH,#(`?<Constant {192, 193, 194, 195, 196, 197, 198,` >> 8) & 0xff
        MOV     DPL,#`?<Constant {192, 193, 194, 195, 196, 197, 198,` & 0xff
        MOV     A,#0x10
        LCALL   ?MOVE_LONG8_XDATA_XDATA
//  610 #ifdef ZLL_DEV_FIXED_NWK_KEY
//  611 uint8 nwkKey[SEC_KEY_LEN] = ZLL_DEV_FIXED_NWK_KEY;
//  612 #else
//  613   uint8 nwkKey[SEC_KEY_LEN];
//  614   if ( zll_IsFactoryNew() )
        ; Setup parameters for call to function zll_IsFactoryNew
        LCALL   ??zll_IsFactoryNew?relay
        MOV     A,R1
        JZ      ??zll_EncryptNwkKey_0
//  615   {
//  616     zll_GenerateRandNum( nwkKey, SEC_KEY_LEN );
        ; Setup parameters for call to function zll_GenerateRandNum
        MOV     R1,#0x10
        MOV     DPL,?XSP + 0
        MOV     DPH,?XSP + 1
        MOV     R2,DPL
        MOV     R3,DPH
        LCALL   ??zll_GenerateRandNum?relay
        SJMP    ??zll_EncryptNwkKey_1
//  617   }
//  618   else
//  619   {
//  620     nwkActiveKeyItems keyItems;
//  621     SSP_ReadNwkActiveKey( &keyItems );
??zll_EncryptNwkKey_0:
        ; Setup parameters for call to function SSP_ReadNwkActiveKey
        MOV     A,#0x20
        LCALL   ?XSTACK_DISP0_8
        MOV     R2,DPL
        MOV     R3,DPH
        LCALL   ??SSP_ReadNwkActiveKey?relay
//  622     osal_memcpy( nwkKey, keyItems.active.key , SEC_KEY_LEN);
        ; Setup parameters for call to function osal_memcpy
        MOV     A,#0x21
        LCALL   ?XSTACK_DISP0_8
        MOV     R1,DPL
        MOV     R2,DPH
        MOV     ?V0 + 8,R1
        MOV     ?V0 + 9,R2
        MOV     ?V0 + 10,#0x0
        MOV     R0,#?V0 + 8
        LCALL   ?PUSH_XSTACK_I_THREE
          CFI CFA_XSP16 add(XSP16, 94)
        MOV     R4,#0x10
        MOV     R5,#0x0
        MOV     A,#0x3
        LCALL   ?XSTACK_DISP0_8
        MOV     R2,DPL
        MOV     R3,DPH
        LCALL   ??osal_memcpy?relay
        MOV     A,#0x3
        LCALL   ?DEALLOC_XSTACK8
          CFI CFA_XSP16 add(XSP16, 91)
//  623   }
//  624 #endif
//  625   // Build the AES key
//  626   zll_BuildAesKey( aesKeyKey, transID, responseID, keyIndex );
??zll_EncryptNwkKey_1:
        ; Setup parameters for call to function zll_BuildAesKey
        MOV     R0,#?V0 + 4
        LCALL   ?PUSH_XSTACK_I_FOUR
          CFI CFA_XSP16 add(XSP16, 95)
        MOV     R0,#?V0 + 0
        LCALL   ?PUSH_XSTACK_I_FOUR
          CFI CFA_XSP16 add(XSP16, 99)
        MOV     A,R6
        MOV     R1,A
        MOV     A,#0x18
        LCALL   ?XSTACK_DISP0_8
        MOV     R2,DPL
        MOV     R3,DPH
        LCALL   ??zll_BuildAesKey?relay
        MOV     A,#0x8
        LCALL   ?DEALLOC_XSTACK8
          CFI CFA_XSP16 add(XSP16, 91)
//  627 
//  628   if ( ( keyIndex == ZLL_KEY_INDEX_MASTER ) || ( keyIndex == ZLL_KEY_INDEX_CERT ) )
        MOV     A,#0x4
        XRL     A,R6
        JZ      ??zll_EncryptNwkKey_2
        MOV     A,#0xf
        XRL     A,R6
        JNZ     ??zll_EncryptNwkKey_3
//  629   {
//  630     // Encypt with the master key
//  631     sspAesEncrypt( masterKey, aesKeyKey );
??zll_EncryptNwkKey_2:
        ; Setup parameters for call to function sspAesEncrypt
        MOV     A,#0x10
        LCALL   ?XSTACK_DISP0_8
        MOV     R4,DPL
        MOV     R5,DPH
        MOV     A,#0x35
        LCALL   ?XSTACK_DISP0_8
        MOV     R2,DPL
        MOV     R3,DPH
        LCALL   ??sspAesEncrypt?relay
//  632   }
//  633   // Encrypt the network key with the AES key
//  634   sspAesEncrypt( aesKeyKey, nwkKey );
??zll_EncryptNwkKey_3:
        ; Setup parameters for call to function sspAesEncrypt
        MOV     DPL,?XSP + 0
        MOV     DPH,?XSP + 1
        MOV     R4,DPL
        MOV     R5,DPH
        MOV     A,#0x10
        LCALL   ?XSTACK_DISP0_8
        MOV     R2,DPL
        MOV     R3,DPH
        LCALL   ??sspAesEncrypt?relay
//  635 
//  636   // Copy in the encrypted network key
//  637   osal_memcpy( pNwkKey, nwkKey, SEC_KEY_LEN );
        ; Setup parameters for call to function osal_memcpy
        MOV     DPL,?XSP + 0
        MOV     DPH,?XSP + 1
        MOV     R1,DPL
        MOV     R2,DPH
        MOV     ?V0 + 0,R1
        MOV     ?V0 + 1,R2
        MOV     ?V0 + 2,#0x0
        MOV     R0,#?V0 + 0
        LCALL   ?PUSH_XSTACK_I_THREE
          CFI CFA_XSP16 add(XSP16, 94)
        MOV     R4,#0x10
        MOV     R5,#0x0
        MOV     R2,?V0 + 12
        MOV     R3,?V0 + 13
        LCALL   ??osal_memcpy?relay
        MOV     A,#0x3
        LCALL   ?DEALLOC_XSTACK8
          CFI CFA_XSP16 add(XSP16, 91)
//  638 }
        MOV     A,#0x45
        LCALL   ?DEALLOC_XSTACK8
          CFI EndBlock cfiBlock81
        REQUIRE ?Subroutine2
        ; // Fall through to label ?Subroutine2

        RSEG BANKED_CODE:CODE:NOROOT(0)
?Subroutine2:
          CFI Block cfiBlock82 Using cfiCommon0
          CFI NoFunction
          CFI CFA_SP SP+0
          CFI CFA_XSP16 add(XSP16, 22)
          CFI VB load(1, XDATA, add(CFA_XSP16, literal(-21)))
          CFI DPL0 load(1, XDATA, add(CFA_XSP16, literal(-2)))
          CFI DPH0 load(1, XDATA, add(CFA_XSP16, literal(-1)))
          CFI R6 load(1, XDATA, add(CFA_XSP16, literal(-22)))
          CFI R7 load(1, XDATA, add(CFA_XSP16, literal(-6)))
          CFI V0 load(1, XDATA, add(CFA_XSP16, literal(-20)))
          CFI V1 load(1, XDATA, add(CFA_XSP16, literal(-19)))
          CFI V2 load(1, XDATA, add(CFA_XSP16, literal(-18)))
          CFI V3 load(1, XDATA, add(CFA_XSP16, literal(-17)))
          CFI V4 load(1, XDATA, add(CFA_XSP16, literal(-16)))
          CFI V5 load(1, XDATA, add(CFA_XSP16, literal(-15)))
          CFI V6 load(1, XDATA, add(CFA_XSP16, literal(-14)))
          CFI V7 load(1, XDATA, add(CFA_XSP16, literal(-13)))
          CFI V8 load(1, XDATA, add(CFA_XSP16, literal(-12)))
          CFI V9 load(1, XDATA, add(CFA_XSP16, literal(-11)))
          CFI V10 load(1, XDATA, add(CFA_XSP16, literal(-10)))
          CFI V11 load(1, XDATA, add(CFA_XSP16, literal(-9)))
          CFI V12 load(1, XDATA, add(CFA_XSP16, literal(-8)))
          CFI V13 load(1, XDATA, add(CFA_XSP16, literal(-7)))
          CFI ?BRET_EXT load(1, XDATA, add(CFA_XSP16, literal(-3)))
          CFI ?RET_HIGH load(1, XDATA, add(CFA_XSP16, literal(-4)))
          CFI ?RET_LOW load(1, XDATA, add(CFA_XSP16, literal(-5)))
        MOV     R7,#0xe
        LJMP    ?BANKED_LEAVE_XDATA
          CFI EndBlock cfiBlock82
//  639 
//  640 /*********************************************************************
//  641  * @fn      zll_DecryptNwkKey
//  642  *
//  643  * @brief   Decrypt the received network key and update.
//  644  *
//  645  * @param   pNwkKey - pointer to the encrypted network key
//  646  * @param   keyIndex - key index
//  647  * @param   transID - transaction id
//  648  * @param   responseID - response id
//  649  *
//  650  * @return  none
//  651  */

        RSEG BANKED_CODE:CODE:NOROOT(0)
//  652 void zll_DecryptNwkKey( uint8 *pNwkKey, uint8 keyIndex, uint32 transID, uint32 responseID )
zll_DecryptNwkKey:
          CFI Block cfiBlock83 Using cfiCommon0
          CFI Function zll_DecryptNwkKey
        CODE
//  653 {
        FUNCALL zll_DecryptNwkKey, osal_memcpy
        LOCFRAME ISTACK, 0, STACK
        LOCFRAME PSTACK, 0, STACK
        LOCFRAME XSTACK, 70, STACK
        LOCFRAME IOVERLAY, 0, STATIC
        LOCFRAME DOVERLAY, 0, STATIC
        ARGFRAME ISTACK, 0, STACK
        ARGFRAME PSTACK, 0, STACK
        ARGFRAME XSTACK, 70, STACK
        ARGFRAME IOVERLAY, 0, STATIC
        ARGFRAME DOVERLAY, 0, STATIC
        FUNCALL zll_DecryptNwkKey, zll_BuildAesKey
        LOCFRAME ISTACK, 0, STACK
        LOCFRAME PSTACK, 0, STACK
        LOCFRAME XSTACK, 75, STACK
        LOCFRAME IOVERLAY, 0, STATIC
        LOCFRAME DOVERLAY, 0, STATIC
        ARGFRAME ISTACK, 0, STACK
        ARGFRAME PSTACK, 0, STACK
        ARGFRAME XSTACK, 75, STACK
        ARGFRAME IOVERLAY, 0, STATIC
        ARGFRAME DOVERLAY, 0, STATIC
        FUNCALL zll_DecryptNwkKey, sspAesEncrypt
        LOCFRAME ISTACK, 0, STACK
        LOCFRAME PSTACK, 0, STACK
        LOCFRAME XSTACK, 67, STACK
        LOCFRAME IOVERLAY, 0, STATIC
        LOCFRAME DOVERLAY, 0, STATIC
        ARGFRAME ISTACK, 0, STACK
        ARGFRAME PSTACK, 0, STACK
        ARGFRAME XSTACK, 67, STACK
        ARGFRAME IOVERLAY, 0, STATIC
        ARGFRAME DOVERLAY, 0, STATIC
        FUNCALL zll_DecryptNwkKey, sspAesDecrypt
        LOCFRAME ISTACK, 0, STACK
        LOCFRAME PSTACK, 0, STACK
        LOCFRAME XSTACK, 67, STACK
        LOCFRAME IOVERLAY, 0, STATIC
        LOCFRAME DOVERLAY, 0, STATIC
        ARGFRAME ISTACK, 0, STACK
        ARGFRAME PSTACK, 0, STACK
        ARGFRAME XSTACK, 67, STACK
        ARGFRAME IOVERLAY, 0, STATIC
        ARGFRAME DOVERLAY, 0, STATIC
        FUNCALL zll_DecryptNwkKey, zll_UpdateNwkKey
        LOCFRAME ISTACK, 0, STACK
        LOCFRAME PSTACK, 0, STACK
        LOCFRAME XSTACK, 67, STACK
        LOCFRAME IOVERLAY, 0, STATIC
        LOCFRAME DOVERLAY, 0, STATIC
        ARGFRAME ISTACK, 0, STACK
        ARGFRAME PSTACK, 0, STACK
        ARGFRAME XSTACK, 67, STACK
        ARGFRAME IOVERLAY, 0, STATIC
        ARGFRAME DOVERLAY, 0, STATIC
        MOV     A,#-0x13
        LCALL   ?BANKED_ENTER_XDATA
          CFI DPH0 load(1, XDATA, add(CFA_XSP16, literal(-1)))
          CFI DPL0 load(1, XDATA, add(CFA_XSP16, literal(-2)))
          CFI ?BRET_EXT load(1, XDATA, add(CFA_XSP16, literal(-3)))
          CFI ?RET_HIGH load(1, XDATA, add(CFA_XSP16, literal(-4)))
          CFI ?RET_LOW load(1, XDATA, add(CFA_XSP16, literal(-5)))
          CFI R7 load(1, XDATA, add(CFA_XSP16, literal(-6)))
          CFI V10 load(1, XDATA, add(CFA_XSP16, literal(-7)))
          CFI V9 load(1, XDATA, add(CFA_XSP16, literal(-8)))
          CFI V8 load(1, XDATA, add(CFA_XSP16, literal(-9)))
          CFI V7 load(1, XDATA, add(CFA_XSP16, literal(-10)))
          CFI V6 load(1, XDATA, add(CFA_XSP16, literal(-11)))
          CFI V5 load(1, XDATA, add(CFA_XSP16, literal(-12)))
          CFI V4 load(1, XDATA, add(CFA_XSP16, literal(-13)))
          CFI V3 load(1, XDATA, add(CFA_XSP16, literal(-14)))
          CFI V2 load(1, XDATA, add(CFA_XSP16, literal(-15)))
          CFI V1 load(1, XDATA, add(CFA_XSP16, literal(-16)))
          CFI V0 load(1, XDATA, add(CFA_XSP16, literal(-17)))
          CFI VB load(1, XDATA, add(CFA_XSP16, literal(-18)))
          CFI R6 load(1, XDATA, add(CFA_XSP16, literal(-19)))
          CFI CFA_SP SP+0
          CFI CFA_XSP16 add(XSP16, 19)
        ; Saved register size: 19
        ; Auto size: 48
        MOV     A,#-0x30
        LCALL   ?ALLOC_XSTACK8
          CFI CFA_XSP16 add(XSP16, 67)
        MOV     A,R1
        MOV     R6,A
        MOV     A,#0x43
        LCALL   ?XSTACK_DISP0_8
        MOV     R0,#?V0 + 0
        LCALL   ?L_MOV_X
        MOV     A,#0x47
        LCALL   ?XSTACK_DISP0_8
        MOV     R0,#?V0 + 4
        LCALL   ?L_MOV_X
//  654   uint8 aesKeyKey[SEC_KEY_LEN] = ZLL_DEFAULT_AES_KEY;
        MOV     A,#0x10
        LCALL   ?XSTACK_DISP0_8
        MOV     R4,DPL
        MOV     R5,DPH
        MOV     DPH,#(`?<Constant {80, 104, 76, 105, 234, 156, 209, 5_1` >> 8) & 0xff
        MOV     DPL,#`?<Constant {80, 104, 76, 105, 234, 156, 209, 5_1` & 0xff
        MOV     A,#0x10
        LCALL   ?MOVE_LONG8_XDATA_XDATA
//  655 
//  656   uint8 nwkKey[SEC_KEY_LEN];
//  657 
//  658   uint8 masterKey[SEC_KEY_LEN] = ZLL_ENC_KEY;
        MOV     DPH,#(`?<Constant {192, 193, 194, 195, 196, 197, 198,_1` >> 8) & 0xff
        MOV     DPL,#`?<Constant {192, 193, 194, 195, 196, 197, 198,_1` & 0xff
        MOV     A,#0x10
        LCALL   ?MOVE_LONG8_XDATA_XDATA
//  659 
//  660   // Copy in the encrypted network key
//  661   osal_memcpy( nwkKey, pNwkKey, SEC_KEY_LEN );
        ; Setup parameters for call to function osal_memcpy
        MOV     ?V0 + 8,R2
        MOV     ?V0 + 9,R3
        MOV     ?V0 + 10,A
        MOV     R0,#?V0 + 8
        LCALL   ?PUSH_XSTACK_I_THREE
          CFI CFA_XSP16 add(XSP16, 70)
        MOV     R4,#0x10
        MOV     R5,#0x0
        MOV     A,#0x3
        LCALL   ?XSTACK_DISP0_8
        MOV     R2,DPL
        MOV     R3,DPH
        LCALL   ??osal_memcpy?relay
        MOV     A,#0x3
        LCALL   ?DEALLOC_XSTACK8
          CFI CFA_XSP16 add(XSP16, 67)
//  662 
//  663   zll_BuildAesKey( aesKeyKey, transID, responseID, keyIndex );
        ; Setup parameters for call to function zll_BuildAesKey
        MOV     R0,#?V0 + 4
        LCALL   ?PUSH_XSTACK_I_FOUR
          CFI CFA_XSP16 add(XSP16, 71)
        MOV     R0,#?V0 + 0
        LCALL   ?PUSH_XSTACK_I_FOUR
          CFI CFA_XSP16 add(XSP16, 75)
        MOV     A,R6
        MOV     R1,A
        MOV     A,#0x18
        LCALL   ?XSTACK_DISP0_8
        MOV     R2,DPL
        MOV     R3,DPH
        LCALL   ??zll_BuildAesKey?relay
        MOV     A,#0x8
        LCALL   ?DEALLOC_XSTACK8
          CFI CFA_XSP16 add(XSP16, 67)
//  664 
//  665   if ( ( keyIndex == ZLL_KEY_INDEX_MASTER ) || ( keyIndex == ZLL_KEY_INDEX_CERT ) )
        MOV     A,#0x4
        XRL     A,R6
        JZ      ??zll_DecryptNwkKey_0
        MOV     A,#0xf
        XRL     A,R6
        JNZ     ??zll_DecryptNwkKey_1
//  666   {
//  667     //encypt with the master key
//  668     sspAesEncrypt( masterKey, aesKeyKey );
??zll_DecryptNwkKey_0:
        ; Setup parameters for call to function sspAesEncrypt
        MOV     A,#0x10
        LCALL   ?XSTACK_DISP0_8
        MOV     R4,DPL
        MOV     R5,DPH
        MOV     A,#0x20
        LCALL   ?XSTACK_DISP0_8
        MOV     R2,DPL
        MOV     R3,DPH
        LCALL   ??sspAesEncrypt?relay
//  669   }
//  670   // Decrypt the network key with the AES key
//  671   sspAesDecrypt( aesKeyKey, nwkKey );
??zll_DecryptNwkKey_1:
        ; Setup parameters for call to function sspAesDecrypt
        MOV     DPL,?XSP + 0
        MOV     DPH,?XSP + 1
        MOV     R4,DPL
        MOV     R5,DPH
        MOV     A,#0x10
        LCALL   ?XSTACK_DISP0_8
        MOV     R2,DPL
        MOV     R3,DPH
        LCALL   ??sspAesDecrypt?relay
//  672 
//  673   zll_UpdateNwkKey( nwkKey, keyIndex );
        ; Setup parameters for call to function zll_UpdateNwkKey
        MOV     A,R6
        MOV     R1,A
        MOV     DPL,?XSP + 0
        MOV     DPH,?XSP + 1
        MOV     R2,DPL
        MOV     R3,DPH
        LCALL   ??zll_UpdateNwkKey?relay
//  674 }
        MOV     A,#0x30
        LCALL   ?DEALLOC_XSTACK8
          CFI CFA_XSP16 add(XSP16, 19)
        MOV     R7,#0xb
        LJMP    ?BANKED_LEAVE_XDATA
          CFI EndBlock cfiBlock83
//  675 
//  676 /*********************************************************************
//  677  * @fn      zll_BuildAesKey
//  678  *
//  679  * @brief   Build an AES key using Transaction ID and Response ID.
//  680  *
//  681  * @param   pAesKey - pointer to AES to be built
//  682  * @param   transID - transaction id
//  683  * @param   responseID - response id
//  684  *
//  685  * @return  none
//  686  */

        RSEG BANKED_CODE:CODE:NOROOT(0)
//  687 static void zll_BuildAesKey( uint8 *pAesKey, uint32 transID, uint32 responseID, uint8 keyIndex )
zll_BuildAesKey:
          CFI Block cfiBlock84 Using cfiCommon0
          CFI Function zll_BuildAesKey
        CODE
//  688 {
        MOV     A,#-0x15
        LCALL   ?BANKED_ENTER_XDATA
          CFI DPH0 load(1, XDATA, add(CFA_XSP16, literal(-1)))
          CFI DPL0 load(1, XDATA, add(CFA_XSP16, literal(-2)))
          CFI ?BRET_EXT load(1, XDATA, add(CFA_XSP16, literal(-3)))
          CFI ?RET_HIGH load(1, XDATA, add(CFA_XSP16, literal(-4)))
          CFI ?RET_LOW load(1, XDATA, add(CFA_XSP16, literal(-5)))
          CFI R7 load(1, XDATA, add(CFA_XSP16, literal(-6)))
          CFI V12 load(1, XDATA, add(CFA_XSP16, literal(-7)))
          CFI V11 load(1, XDATA, add(CFA_XSP16, literal(-8)))
          CFI V10 load(1, XDATA, add(CFA_XSP16, literal(-9)))
          CFI V9 load(1, XDATA, add(CFA_XSP16, literal(-10)))
          CFI V8 load(1, XDATA, add(CFA_XSP16, literal(-11)))
          CFI V7 load(1, XDATA, add(CFA_XSP16, literal(-12)))
          CFI V6 load(1, XDATA, add(CFA_XSP16, literal(-13)))
          CFI V5 load(1, XDATA, add(CFA_XSP16, literal(-14)))
          CFI V4 load(1, XDATA, add(CFA_XSP16, literal(-15)))
          CFI V3 load(1, XDATA, add(CFA_XSP16, literal(-16)))
          CFI V2 load(1, XDATA, add(CFA_XSP16, literal(-17)))
          CFI V1 load(1, XDATA, add(CFA_XSP16, literal(-18)))
          CFI V0 load(1, XDATA, add(CFA_XSP16, literal(-19)))
          CFI VB load(1, XDATA, add(CFA_XSP16, literal(-20)))
          CFI R6 load(1, XDATA, add(CFA_XSP16, literal(-21)))
          CFI CFA_SP SP+0
          CFI CFA_XSP16 add(XSP16, 21)
        ; Saved register size: 21
        ; Auto size: 0
        MOV     ?V0 + 12,R1
        MOV     A,#0x19
        LCALL   ?XSTACK_DISP0_8
        MOV     R0,#?V0 + 0
        LCALL   ?L_MOV_X
//  689 
//  690   if ( ( keyIndex == ZLL_KEY_INDEX_MASTER ) || ( keyIndex == ZLL_KEY_INDEX_CERT ) )
        MOV     R7,?V0 + 1
        MOV     A,#0x15
        LCALL   ?XSTACK_DISP0_8
        MOV     R0,#?V0 + 4
        LCALL   ?L_MOV_X
        MOV     R5,?V0 + 5
        MOV     ?V0 + 8,?V0 + 0
        MOV     ?V0 + 9,R7
        MOV     ?V0 + 10,?V0 + 2
        MOV     ?V0 + 11,?V0 + 3
        MOV     A,#0x10
        MOV     R0,#?V0 + 8
        LCALL   ?UL_SHR
        MOV     R6,?V0 + 8
        MOV     ?V0 + 8,?V0 + 0
        MOV     ?V0 + 9,R7
        MOV     ?V0 + 10,R6
        MOV     ?V0 + 11,?V0 + 3
        MOV     A,#0x18
        MOV     R0,#?V0 + 8
        LCALL   ?UL_SHR
        MOV     R4,?V0 + 8
        MOV     ?V0 + 8,?V0 + 4
        MOV     ?V0 + 9,R5
        MOV     ?V0 + 10,?V0 + 6
        MOV     ?V0 + 11,?V0 + 7
        MOV     A,#0x10
        MOV     R0,#?V0 + 8
        LCALL   ?UL_SHR
        MOV     R1,?V0 + 8
        MOV     ?V0 + 8,?V0 + 4
        MOV     ?V0 + 9,R5
        MOV     ?V0 + 10,R1
        MOV     ?V0 + 11,?V0 + 7
        MOV     A,#0x18
        MOV     R0,#?V0 + 8
        LCALL   ?UL_SHR
        MOV     R0,?V0 + 8
        MOV     A,#0x4
        XRL     A,?V0 + 12
        JZ      ??zll_BuildAesKey_0
        MOV     A,#0xf
        XRL     A,?V0 + 12
        JNZ     ??zll_BuildAesKey_1
//  691   {
//  692     // Copy transaction identifier to 1st byte
//  693     pAesKey[0] = BREAK_UINT32( transID, 3 );
??zll_BuildAesKey_0:
        MOV     A,R0
        MOV     DPL,R2
        MOV     DPH,R3
        MOVX    @DPTR,A
//  694     pAesKey[1] = BREAK_UINT32( transID, 2 );
        MOV     A,R1
        LCALL   ?Subroutine27 & 0xFFFF
//  695     pAesKey[2] = BREAK_UINT32( transID, 1 );
??CrossCallReturnLabel_34:
        MOVX    @DPTR,A
//  696     pAesKey[3] = BREAK_UINT32( transID, 0 );
        MOV     ?V0 + 8,?V0 + 4
        MOV     DPL,R2
        MOV     DPH,R3
        INC     DPTR
        INC     DPTR
        INC     DPTR
        MOV     A,?V0 + 8
        MOVX    @DPTR,A
//  697 
//  698     // Copy response identifier 3rd bute
//  699     pAesKey[8] = BREAK_UINT32( responseID, 3 );
        MOV     A,R4
        MOV     DPL,R2
        MOV     DPH,R3
        INC     DPTR
        INC     DPTR
        INC     DPTR
        INC     DPTR
        INC     DPTR
        INC     DPTR
        INC     DPTR
        INC     DPTR
        MOVX    @DPTR,A
//  700     pAesKey[9] = BREAK_UINT32( responseID, 2 );
        MOV     A,R6
        MOV     DPL,R2
        MOV     DPH,R3
        INC     DPTR
        INC     DPTR
        INC     DPTR
        INC     DPTR
        INC     DPTR
        INC     DPTR
        INC     DPTR
        INC     DPTR
        INC     DPTR
        MOVX    @DPTR,A
//  701     pAesKey[10] = BREAK_UINT32( responseID, 1 );
        MOV     A,R7
        MOV     DPL,R2
        MOV     DPH,R3
        INC     DPTR
        INC     DPTR
        INC     DPTR
        INC     DPTR
        INC     DPTR
        INC     DPTR
        INC     DPTR
        INC     DPTR
        INC     DPTR
        INC     DPTR
        MOVX    @DPTR,A
//  702     pAesKey[11] = BREAK_UINT32( responseID, 0 );
        MOV     ?V0 + 8,?V0 + 0
        MOV     A,R2
        ADD     A,#0xb
        MOV     DPL,A
        MOV     A,R3
        LCALL   ??Subroutine41_0 & 0xFFFF
//  703   }
??CrossCallReturnLabel_71:
        MOV     A,?V0 + 8
        MOVX    @DPTR,A
//  704 
//  705   // Copy in the transaction identifier
//  706   pAesKey[4] = BREAK_UINT32( transID, 3 );
??zll_BuildAesKey_1:
        MOV     A,R0
        MOV     DPL,R2
        MOV     DPH,R3
        INC     DPTR
        INC     DPTR
        INC     DPTR
        INC     DPTR
        MOVX    @DPTR,A
//  707   pAesKey[5] = BREAK_UINT32( transID, 2 );
        MOV     A,R1
        MOV     DPL,R2
        MOV     DPH,R3
        INC     DPTR
        INC     DPTR
        INC     DPTR
        INC     DPTR
        LCALL   ?Subroutine27 & 0xFFFF
//  708   pAesKey[6] = BREAK_UINT32( transID, 1 );
??CrossCallReturnLabel_35:
        INC     DPTR
        INC     DPTR
        INC     DPTR
        INC     DPTR
        LCALL   ?Subroutine22 & 0xFFFF
//  709   pAesKey[7] = BREAK_UINT32( transID, 0 );
??CrossCallReturnLabel_27:
        INC     DPTR
        INC     DPTR
        MOV     A,?V0 + 4
        MOVX    @DPTR,A
//  710 
//  711   // Copy in the response identifier
//  712   pAesKey[12] = BREAK_UINT32( responseID, 3 );
        MOV     A,R2
        ADD     A,#0xc
        MOV     DPL,A
        MOV     A,R3
        LCALL   ??Subroutine41_0 & 0xFFFF
??CrossCallReturnLabel_72:
        MOV     A,R4
        MOVX    @DPTR,A
//  713   pAesKey[13] = BREAK_UINT32( responseID, 2 );
        MOV     A,R2
        ADD     A,#0xd
        MOV     DPL,A
        MOV     A,R3
        LCALL   ??Subroutine41_0 & 0xFFFF
??CrossCallReturnLabel_73:
        MOV     A,R6
        MOVX    @DPTR,A
//  714   pAesKey[14] = BREAK_UINT32( responseID, 1 );
        MOV     A,R2
        ADD     A,#0xe
        MOV     DPL,A
        MOV     A,R3
        LCALL   ??Subroutine41_0 & 0xFFFF
??CrossCallReturnLabel_74:
        MOV     A,R7
        MOVX    @DPTR,A
//  715   pAesKey[15] = BREAK_UINT32( responseID, 0 );
        MOV     A,R2
        ADD     A,#0xf
        MOV     DPL,A
        MOV     A,R3
        LCALL   ??Subroutine41_0 & 0xFFFF
??CrossCallReturnLabel_75:
        MOV     A,?V0 + 0
        MOVX    @DPTR,A
//  716 }
        MOV     R7,#0xd
        LJMP    ?BANKED_LEAVE_XDATA
          CFI EndBlock cfiBlock84

        RSEG BANKED_CODE:CODE:NOROOT(0)
?Subroutine27:
          CFI Block cfiCond85 Using cfiCommon0
          CFI Function zll_BuildAesKey
          CFI Conditional ??CrossCallReturnLabel_34
          CFI R6 load(1, XDATA, add(CFA_XSP16, literal(-21)))
          CFI VB load(1, XDATA, add(CFA_XSP16, literal(-20)))
          CFI V0 load(1, XDATA, add(CFA_XSP16, literal(-19)))
          CFI V1 load(1, XDATA, add(CFA_XSP16, literal(-18)))
          CFI V2 load(1, XDATA, add(CFA_XSP16, literal(-17)))
          CFI V3 load(1, XDATA, add(CFA_XSP16, literal(-16)))
          CFI V4 load(1, XDATA, add(CFA_XSP16, literal(-15)))
          CFI V5 load(1, XDATA, add(CFA_XSP16, literal(-14)))
          CFI V6 load(1, XDATA, add(CFA_XSP16, literal(-13)))
          CFI V7 load(1, XDATA, add(CFA_XSP16, literal(-12)))
          CFI V8 load(1, XDATA, add(CFA_XSP16, literal(-11)))
          CFI V9 load(1, XDATA, add(CFA_XSP16, literal(-10)))
          CFI V10 load(1, XDATA, add(CFA_XSP16, literal(-9)))
          CFI V11 load(1, XDATA, add(CFA_XSP16, literal(-8)))
          CFI V12 load(1, XDATA, add(CFA_XSP16, literal(-7)))
          CFI R7 load(1, XDATA, add(CFA_XSP16, literal(-6)))
          CFI ?RET_LOW load(1, XDATA, add(CFA_XSP16, literal(-5)))
          CFI ?RET_HIGH load(1, XDATA, add(CFA_XSP16, literal(-4)))
          CFI ?BRET_EXT load(1, XDATA, add(CFA_XSP16, literal(-3)))
          CFI DPL0 load(1, XDATA, add(CFA_XSP16, literal(-2)))
          CFI DPH0 load(1, XDATA, add(CFA_XSP16, literal(-1)))
          CFI CFA_SP SP+0
          CFI CFA_XSP16 add(XSP16, 21)
          CFI Block cfiCond86 Using cfiCommon0
          CFI (cfiCond86) Function zll_BuildAesKey
          CFI (cfiCond86) Conditional ??CrossCallReturnLabel_35
          CFI (cfiCond86) R6 load(1, XDATA, add(CFA_XSP16, literal(-21)))
          CFI (cfiCond86) VB load(1, XDATA, add(CFA_XSP16, literal(-20)))
          CFI (cfiCond86) V0 load(1, XDATA, add(CFA_XSP16, literal(-19)))
          CFI (cfiCond86) V1 load(1, XDATA, add(CFA_XSP16, literal(-18)))
          CFI (cfiCond86) V2 load(1, XDATA, add(CFA_XSP16, literal(-17)))
          CFI (cfiCond86) V3 load(1, XDATA, add(CFA_XSP16, literal(-16)))
          CFI (cfiCond86) V4 load(1, XDATA, add(CFA_XSP16, literal(-15)))
          CFI (cfiCond86) V5 load(1, XDATA, add(CFA_XSP16, literal(-14)))
          CFI (cfiCond86) V6 load(1, XDATA, add(CFA_XSP16, literal(-13)))
          CFI (cfiCond86) V7 load(1, XDATA, add(CFA_XSP16, literal(-12)))
          CFI (cfiCond86) V8 load(1, XDATA, add(CFA_XSP16, literal(-11)))
          CFI (cfiCond86) V9 load(1, XDATA, add(CFA_XSP16, literal(-10)))
          CFI (cfiCond86) V10 load(1, XDATA, add(CFA_XSP16, literal(-9)))
          CFI (cfiCond86) V11 load(1, XDATA, add(CFA_XSP16, literal(-8)))
          CFI (cfiCond86) V12 load(1, XDATA, add(CFA_XSP16, literal(-7)))
          CFI (cfiCond86) R7 load(1, XDATA, add(CFA_XSP16, literal(-6)))
          CFI (cfiCond86) ?RET_LOW load(1, XDATA, add(CFA_XSP16, literal(-5)))
          CFI (cfiCond86) ?RET_HIGH load(1, XDATA, add(CFA_XSP16, literal(-4)))
          CFI (cfiCond86) ?BRET_EXT load(1, XDATA, add(CFA_XSP16, literal(-3)))
          CFI (cfiCond86) DPL0 load(1, XDATA, add(CFA_XSP16, literal(-2)))
          CFI (cfiCond86) DPH0 load(1, XDATA, add(CFA_XSP16, literal(-1)))
          CFI (cfiCond86) CFA_SP SP+0
          CFI (cfiCond86) CFA_XSP16 add(XSP16, 21)
          CFI Block cfiPicker87 Using cfiCommon1
          CFI (cfiPicker87) NoFunction
          CFI (cfiPicker87) Picker
        INC     DPTR
        MOVX    @DPTR,A
        MOV     A,R5
        MOV     DPL,R2
        MOV     DPH,R3
        INC     DPTR
        INC     DPTR
        RET
          CFI EndBlock cfiCond85
          CFI EndBlock cfiCond86
          CFI EndBlock cfiPicker87

        RSEG BANKED_CODE:CODE:NOROOT(0)
?Subroutine22:
          CFI Block cfiCond88 Using cfiCommon0
          CFI Function zll_RegisterSimpleDesc
          CFI Conditional ??CrossCallReturnLabel_26
          CFI R6 load(1, XDATA, add(CFA_XSP16, literal(-10)))
          CFI VB load(1, XDATA, add(CFA_XSP16, literal(-9)))
          CFI V0 load(1, XDATA, add(CFA_XSP16, literal(-8)))
          CFI V1 load(1, XDATA, add(CFA_XSP16, literal(-7)))
          CFI R7 load(1, XDATA, add(CFA_XSP16, literal(-6)))
          CFI ?RET_LOW load(1, XDATA, add(CFA_XSP16, literal(-5)))
          CFI ?RET_HIGH load(1, XDATA, add(CFA_XSP16, literal(-4)))
          CFI ?BRET_EXT load(1, XDATA, add(CFA_XSP16, literal(-3)))
          CFI DPL0 load(1, XDATA, add(CFA_XSP16, literal(-2)))
          CFI DPH0 load(1, XDATA, add(CFA_XSP16, literal(-1)))
          CFI CFA_SP SP+0
          CFI CFA_XSP16 add(XSP16, 10)
          CFI Block cfiCond89 Using cfiCommon0
          CFI (cfiCond89) Function zll_BuildAesKey
          CFI (cfiCond89) Conditional ??CrossCallReturnLabel_27
          CFI (cfiCond89) R6 load(1, XDATA, add(CFA_XSP16, literal(-21)))
          CFI (cfiCond89) VB load(1, XDATA, add(CFA_XSP16, literal(-20)))
          CFI (cfiCond89) V0 load(1, XDATA, add(CFA_XSP16, literal(-19)))
          CFI (cfiCond89) V1 load(1, XDATA, add(CFA_XSP16, literal(-18)))
          CFI (cfiCond89) V2 load(1, XDATA, add(CFA_XSP16, literal(-17)))
          CFI (cfiCond89) V3 load(1, XDATA, add(CFA_XSP16, literal(-16)))
          CFI (cfiCond89) V4 load(1, XDATA, add(CFA_XSP16, literal(-15)))
          CFI (cfiCond89) V5 load(1, XDATA, add(CFA_XSP16, literal(-14)))
          CFI (cfiCond89) V6 load(1, XDATA, add(CFA_XSP16, literal(-13)))
          CFI (cfiCond89) V7 load(1, XDATA, add(CFA_XSP16, literal(-12)))
          CFI (cfiCond89) V8 load(1, XDATA, add(CFA_XSP16, literal(-11)))
          CFI (cfiCond89) V9 load(1, XDATA, add(CFA_XSP16, literal(-10)))
          CFI (cfiCond89) V10 load(1, XDATA, add(CFA_XSP16, literal(-9)))
          CFI (cfiCond89) V11 load(1, XDATA, add(CFA_XSP16, literal(-8)))
          CFI (cfiCond89) V12 load(1, XDATA, add(CFA_XSP16, literal(-7)))
          CFI (cfiCond89) R7 load(1, XDATA, add(CFA_XSP16, literal(-6)))
          CFI (cfiCond89) ?RET_LOW load(1, XDATA, add(CFA_XSP16, literal(-5)))
          CFI (cfiCond89) ?RET_HIGH load(1, XDATA, add(CFA_XSP16, literal(-4)))
          CFI (cfiCond89) ?BRET_EXT load(1, XDATA, add(CFA_XSP16, literal(-3)))
          CFI (cfiCond89) DPL0 load(1, XDATA, add(CFA_XSP16, literal(-2)))
          CFI (cfiCond89) DPH0 load(1, XDATA, add(CFA_XSP16, literal(-1)))
          CFI (cfiCond89) CFA_SP SP+0
          CFI (cfiCond89) CFA_XSP16 add(XSP16, 21)
          CFI Block cfiPicker90 Using cfiCommon1
          CFI (cfiPicker90) NoFunction
          CFI (cfiPicker90) Picker
        LCALL   ?Subroutine34 & 0xFFFF
??CrossCallReturnLabel_46:
        INC     DPTR
        INC     DPTR
        RET
          CFI EndBlock cfiCond88
          CFI EndBlock cfiCond89
          CFI EndBlock cfiPicker90

        RSEG BANKED_CODE:CODE:NOROOT(0)
?Subroutine34:
          CFI Block cfiCond91 Using cfiCommon0
          CFI Function zll_RegisterSimpleDesc
          CFI Conditional ??CrossCallReturnLabel_45
          CFI R6 load(1, XDATA, add(CFA_XSP16, literal(-10)))
          CFI VB load(1, XDATA, add(CFA_XSP16, literal(-9)))
          CFI V0 load(1, XDATA, add(CFA_XSP16, literal(-8)))
          CFI V1 load(1, XDATA, add(CFA_XSP16, literal(-7)))
          CFI R7 load(1, XDATA, add(CFA_XSP16, literal(-6)))
          CFI ?RET_LOW load(1, XDATA, add(CFA_XSP16, literal(-5)))
          CFI ?RET_HIGH load(1, XDATA, add(CFA_XSP16, literal(-4)))
          CFI ?BRET_EXT load(1, XDATA, add(CFA_XSP16, literal(-3)))
          CFI DPL0 load(1, XDATA, add(CFA_XSP16, literal(-2)))
          CFI DPH0 load(1, XDATA, add(CFA_XSP16, literal(-1)))
          CFI CFA_SP SP+0
          CFI CFA_XSP16 add(XSP16, 10)
          CFI Block cfiCond92 Using cfiCommon0
          CFI (cfiCond92) Function zll_RegisterSimpleDesc
          CFI (cfiCond92) Conditional ??CrossCallReturnLabel_46, ??CrossCallReturnLabel_26
          CFI (cfiCond92) R6 load(1, XDATA, add(CFA_XSP16, literal(-10)))
          CFI (cfiCond92) VB load(1, XDATA, add(CFA_XSP16, literal(-9)))
          CFI (cfiCond92) V0 load(1, XDATA, add(CFA_XSP16, literal(-8)))
          CFI (cfiCond92) V1 load(1, XDATA, add(CFA_XSP16, literal(-7)))
          CFI (cfiCond92) R7 load(1, XDATA, add(CFA_XSP16, literal(-6)))
          CFI (cfiCond92) ?RET_LOW load(1, XDATA, add(CFA_XSP16, literal(-5)))
          CFI (cfiCond92) ?RET_HIGH load(1, XDATA, add(CFA_XSP16, literal(-4)))
          CFI (cfiCond92) ?BRET_EXT load(1, XDATA, add(CFA_XSP16, literal(-3)))
          CFI (cfiCond92) DPL0 load(1, XDATA, add(CFA_XSP16, literal(-2)))
          CFI (cfiCond92) DPH0 load(1, XDATA, add(CFA_XSP16, literal(-1)))
          CFI (cfiCond92) CFA_SP SP+0
          CFI (cfiCond92) CFA_XSP16 add(XSP16, 10)
          CFI Block cfiCond93 Using cfiCommon0
          CFI (cfiCond93) Function zll_BuildAesKey
          CFI (cfiCond93) Conditional ??CrossCallReturnLabel_46, ??CrossCallReturnLabel_27
          CFI (cfiCond93) R6 load(1, XDATA, add(CFA_XSP16, literal(-21)))
          CFI (cfiCond93) VB load(1, XDATA, add(CFA_XSP16, literal(-20)))
          CFI (cfiCond93) V0 load(1, XDATA, add(CFA_XSP16, literal(-19)))
          CFI (cfiCond93) V1 load(1, XDATA, add(CFA_XSP16, literal(-18)))
          CFI (cfiCond93) V2 load(1, XDATA, add(CFA_XSP16, literal(-17)))
          CFI (cfiCond93) V3 load(1, XDATA, add(CFA_XSP16, literal(-16)))
          CFI (cfiCond93) V4 load(1, XDATA, add(CFA_XSP16, literal(-15)))
          CFI (cfiCond93) V5 load(1, XDATA, add(CFA_XSP16, literal(-14)))
          CFI (cfiCond93) V6 load(1, XDATA, add(CFA_XSP16, literal(-13)))
          CFI (cfiCond93) V7 load(1, XDATA, add(CFA_XSP16, literal(-12)))
          CFI (cfiCond93) V8 load(1, XDATA, add(CFA_XSP16, literal(-11)))
          CFI (cfiCond93) V9 load(1, XDATA, add(CFA_XSP16, literal(-10)))
          CFI (cfiCond93) V10 load(1, XDATA, add(CFA_XSP16, literal(-9)))
          CFI (cfiCond93) V11 load(1, XDATA, add(CFA_XSP16, literal(-8)))
          CFI (cfiCond93) V12 load(1, XDATA, add(CFA_XSP16, literal(-7)))
          CFI (cfiCond93) R7 load(1, XDATA, add(CFA_XSP16, literal(-6)))
          CFI (cfiCond93) ?RET_LOW load(1, XDATA, add(CFA_XSP16, literal(-5)))
          CFI (cfiCond93) ?RET_HIGH load(1, XDATA, add(CFA_XSP16, literal(-4)))
          CFI (cfiCond93) ?BRET_EXT load(1, XDATA, add(CFA_XSP16, literal(-3)))
          CFI (cfiCond93) DPL0 load(1, XDATA, add(CFA_XSP16, literal(-2)))
          CFI (cfiCond93) DPH0 load(1, XDATA, add(CFA_XSP16, literal(-1)))
          CFI (cfiCond93) CFA_SP SP+0
          CFI (cfiCond93) CFA_XSP16 add(XSP16, 21)
          CFI Block cfiPicker94 Using cfiCommon1
          CFI (cfiPicker94) NoFunction
          CFI (cfiPicker94) Picker
        MOVX    @DPTR,A
        MOV     DPL,R2
        MOV     DPH,R3
        INC     DPTR
        INC     DPTR
        INC     DPTR
        RET
          CFI EndBlock cfiCond91
          CFI EndBlock cfiCond92
          CFI EndBlock cfiCond93
          CFI EndBlock cfiPicker94
//  717 
//  718 /*********************************************************************
//  719  * @fn      zll_UpdateNwkKey
//  720  *
//  721  * @brief   Update the network key.
//  722  *
//  723  * @param   pNwkParams - pointer to new network key
//  724  * @param   keyIndex - key index
//  725  *
//  726  * @return  none
//  727  */

        RSEG BANKED_CODE:CODE:NOROOT(0)
//  728 void zll_UpdateNwkKey( uint8 *pNwkKey, uint8 keyIndex )
zll_UpdateNwkKey:
          CFI Block cfiBlock95 Using cfiCommon0
          CFI Function zll_UpdateNwkKey
        CODE
//  729 {
        FUNCALL zll_UpdateNwkKey, SSP_UpdateNwkKey
        LOCFRAME ISTACK, 0, STACK
        LOCFRAME PSTACK, 0, STACK
        LOCFRAME XSTACK, 12, STACK
        LOCFRAME IOVERLAY, 0, STATIC
        LOCFRAME DOVERLAY, 0, STATIC
        ARGFRAME ISTACK, 0, STACK
        ARGFRAME PSTACK, 0, STACK
        ARGFRAME XSTACK, 12, STACK
        ARGFRAME IOVERLAY, 0, STATIC
        ARGFRAME DOVERLAY, 0, STATIC
        FUNCALL zll_UpdateNwkKey, SSP_SwitchNwkKey
        LOCFRAME ISTACK, 0, STACK
        LOCFRAME PSTACK, 0, STACK
        LOCFRAME XSTACK, 12, STACK
        LOCFRAME IOVERLAY, 0, STATIC
        LOCFRAME DOVERLAY, 0, STATIC
        ARGFRAME ISTACK, 0, STACK
        ARGFRAME PSTACK, 0, STACK
        ARGFRAME XSTACK, 12, STACK
        ARGFRAME IOVERLAY, 0, STATIC
        ARGFRAME DOVERLAY, 0, STATIC
        FUNCALL zll_UpdateNwkKey, ZDApp_SaveNwkKey
        LOCFRAME ISTACK, 0, STACK
        LOCFRAME PSTACK, 0, STACK
        LOCFRAME XSTACK, 12, STACK
        LOCFRAME IOVERLAY, 0, STATIC
        LOCFRAME DOVERLAY, 0, STATIC
        ARGFRAME ISTACK, 0, STACK
        ARGFRAME PSTACK, 0, STACK
        ARGFRAME XSTACK, 12, STACK
        ARGFRAME IOVERLAY, 0, STATIC
        ARGFRAME DOVERLAY, 0, STATIC
        MOV     A,#-0xc
        LCALL   ?BANKED_ENTER_XDATA
          CFI DPH0 load(1, XDATA, add(CFA_XSP16, literal(-1)))
          CFI DPL0 load(1, XDATA, add(CFA_XSP16, literal(-2)))
          CFI ?BRET_EXT load(1, XDATA, add(CFA_XSP16, literal(-3)))
          CFI ?RET_HIGH load(1, XDATA, add(CFA_XSP16, literal(-4)))
          CFI ?RET_LOW load(1, XDATA, add(CFA_XSP16, literal(-5)))
          CFI R7 load(1, XDATA, add(CFA_XSP16, literal(-6)))
          CFI V3 load(1, XDATA, add(CFA_XSP16, literal(-7)))
          CFI V2 load(1, XDATA, add(CFA_XSP16, literal(-8)))
          CFI V1 load(1, XDATA, add(CFA_XSP16, literal(-9)))
          CFI V0 load(1, XDATA, add(CFA_XSP16, literal(-10)))
          CFI VB load(1, XDATA, add(CFA_XSP16, literal(-11)))
          CFI R6 load(1, XDATA, add(CFA_XSP16, literal(-12)))
          CFI CFA_SP SP+0
          CFI CFA_XSP16 add(XSP16, 12)
        ; Saved register size: 12
        ; Auto size: 0
//  730   uint32 nwkFrameCounterTmp;
//  731   (void)keyIndex;
//  732 
//  733   // To prevent Framecounter out of sync issues, store the lastkey
//  734   nwkFrameCounterTmp = nwkFrameCounter;  // (Global in SSP).
        MOV     DPTR,#nwkFrameCounter
        MOV     R0,#?V0 + 0
        LCALL   ?L_MOV_X
//  735 
//  736   // Update the network key
//  737   SSP_UpdateNwkKey( pNwkKey, 0 );
        ; Setup parameters for call to function SSP_UpdateNwkKey
        MOV     R1,#0x0
        LCALL   ??SSP_UpdateNwkKey?relay
//  738 
//  739   SSP_SwitchNwkKey( 0 );
        ; Setup parameters for call to function SSP_SwitchNwkKey
        MOV     R1,#0x0
        LCALL   ??SSP_SwitchNwkKey?relay
//  740 
//  741   nwkFrameCounter  = nwkFrameCounterTmp; // restore
        MOV     DPTR,#nwkFrameCounter
        MOV     R0,#?V0 + 0
        LCALL   ?L_MOV_TO_X
//  742 
//  743   // Save off the security
//  744   ZDApp_SaveNwkKey();
        ; Setup parameters for call to function ZDApp_SaveNwkKey
        LCALL   ??ZDApp_SaveNwkKey?relay
//  745 }
        LJMP    ?Subroutine3 & 0xFFFF
          CFI EndBlock cfiBlock95
//  746 
//  747 /*********************************************************************
//  748  * @fn      zll_GetNwkKeyBitmask
//  749  *
//  750  * @brief   Get the supported network key bitmask.
//  751  *
//  752  * @param   none
//  753  *
//  754  * @return  network key bitmask
//  755  */

        RSEG BANKED_CODE:CODE:NOROOT(0)
//  756 uint16 zll_GetNwkKeyBitmask( void )
zll_GetNwkKeyBitmask:
          CFI Block cfiBlock96 Using cfiCommon0
          CFI Function zll_GetNwkKeyBitmask
        CODE
//  757 {
        ; Saved register size: 0
        ; Auto size: 0
//  758   return ( (uint16)1 << ZLL_KEY_INDEX );
        MOV     R2,#0x0
        MOV     R3,#-0x80
        LJMP    ?BRET
          CFI EndBlock cfiBlock96
//  759 }
//  760 
//  761 /*********************************************************************
//  762  * @fn      zll_GenerateRandNum
//  763  *
//  764  * @brief   Fill buffer with random bytes.
//  765  *
//  766  * input parameter
//  767  *
//  768  * @param   numSize - size of buffer in bytes
//  769  *
//  770  * output parameter
//  771  *
//  772  * @param   pNum - pointer to buffer to be filled with random values
//  773  *
//  774  * @return  none
//  775  */

        RSEG BANKED_CODE:CODE:NOROOT(0)
//  776 void zll_GenerateRandNum( uint8 *pNum, uint8 numSize )
zll_GenerateRandNum:
          CFI Block cfiBlock97 Using cfiCommon0
          CFI Function zll_GenerateRandNum
        CODE
//  777 {
        FUNCALL zll_GenerateRandNum, osal_rand
        LOCFRAME ISTACK, 0, STACK
        LOCFRAME PSTACK, 0, STACK
        LOCFRAME XSTACK, 13, STACK
        LOCFRAME IOVERLAY, 0, STATIC
        LOCFRAME DOVERLAY, 0, STATIC
        ARGFRAME ISTACK, 0, STACK
        ARGFRAME PSTACK, 0, STACK
        ARGFRAME XSTACK, 13, STACK
        ARGFRAME IOVERLAY, 0, STATIC
        ARGFRAME DOVERLAY, 0, STATIC
        FUNCALL zll_GenerateRandNum, osal_rand
        LOCFRAME ISTACK, 0, STACK
        LOCFRAME PSTACK, 0, STACK
        LOCFRAME XSTACK, 13, STACK
        LOCFRAME IOVERLAY, 0, STATIC
        LOCFRAME DOVERLAY, 0, STATIC
        ARGFRAME ISTACK, 0, STACK
        ARGFRAME PSTACK, 0, STACK
        ARGFRAME XSTACK, 13, STACK
        ARGFRAME IOVERLAY, 0, STATIC
        ARGFRAME DOVERLAY, 0, STATIC
        MOV     A,#-0xd
        LCALL   ?BANKED_ENTER_XDATA
          CFI DPH0 load(1, XDATA, add(CFA_XSP16, literal(-1)))
          CFI DPL0 load(1, XDATA, add(CFA_XSP16, literal(-2)))
          CFI ?BRET_EXT load(1, XDATA, add(CFA_XSP16, literal(-3)))
          CFI ?RET_HIGH load(1, XDATA, add(CFA_XSP16, literal(-4)))
          CFI ?RET_LOW load(1, XDATA, add(CFA_XSP16, literal(-5)))
          CFI R7 load(1, XDATA, add(CFA_XSP16, literal(-6)))
          CFI V4 load(1, XDATA, add(CFA_XSP16, literal(-7)))
          CFI V3 load(1, XDATA, add(CFA_XSP16, literal(-8)))
          CFI V2 load(1, XDATA, add(CFA_XSP16, literal(-9)))
          CFI V1 load(1, XDATA, add(CFA_XSP16, literal(-10)))
          CFI V0 load(1, XDATA, add(CFA_XSP16, literal(-11)))
          CFI VB load(1, XDATA, add(CFA_XSP16, literal(-12)))
          CFI R6 load(1, XDATA, add(CFA_XSP16, literal(-13)))
          CFI CFA_SP SP+0
          CFI CFA_XSP16 add(XSP16, 13)
        ; Saved register size: 13
        ; Auto size: 0
        MOV     A,R2
        MOV     R6,A
        MOV     A,R3
        MOV     R7,A
        MOV     ?V0 + 4,R1
//  778   if ( pNum && numSize )
        MOV     A,R6
        ORL     A,R7
        JZ      ??zll_GenerateRandNum_0
        MOV     A,R1
        JZ      ??zll_GenerateRandNum_0
//  779   {
//  780     uint8 lastByte = ( numSize - 1 );
        MOV     A,#-0x1
        ADD     A,?V0 + 4
        MOV     ?V0 + 2,A
//  781     for ( uint8 i = 0; i < lastByte; i += 2 )
        MOV     ?V0 + 3,#0x0
        SJMP    ??zll_GenerateRandNum_1
//  782     {
//  783       uint16 rand = osal_rand();
??zll_GenerateRandNum_2:
        ; Setup parameters for call to function osal_rand
        LCALL   ??osal_rand?relay
        MOV     ?V0 + 0,R2
        MOV     R0,?V0 + 0
//  784       pNum[i]   = LO_UINT16( rand );
        MOV     ?V0 + 0,?V0 + 3
        LCALL   ?Subroutine29 & 0xFFFF
??CrossCallReturnLabel_90:
        MOV     A,R0
        MOVX    @DPTR,A
//  785       pNum[i+1] = HI_UINT16( rand );
        MOV     A,R3
        INC     DPTR
        MOVX    @DPTR,A
//  786     }
        INC     ?V0 + 3
        INC     ?V0 + 3
??zll_GenerateRandNum_1:
        MOV     A,?V0 + 3
        CLR     C
        SUBB    A,?V0 + 2
        JC      ??zll_GenerateRandNum_2
//  787 
//  788     // In case the number is odd
//  789     if ( numSize % 2 )
        MOV     A,?V0 + 4
        MOV     C,0xE0 /* A   */.0
        JNC     ??zll_GenerateRandNum_0
//  790     {
//  791       pNum[lastByte] = LO_UINT16( osal_rand() );
        ; Setup parameters for call to function osal_rand
        LCALL   ??osal_rand?relay
        MOV     ?V0 + 0,?V0 + 2
        LCALL   ?Subroutine29 & 0xFFFF
//  792     }
//  793   }
??CrossCallReturnLabel_91:
        MOV     A,R2
        MOVX    @DPTR,A
          CFI EndBlock cfiBlock97
//  794 }
??zll_GenerateRandNum_0:
        REQUIRE ?Subroutine4
        ; // Fall through to label ?Subroutine4

        RSEG BANKED_CODE:CODE:NOROOT(0)
?Subroutine4:
          CFI Block cfiBlock98 Using cfiCommon0
          CFI NoFunction
          CFI CFA_SP SP+0
          CFI CFA_XSP16 add(XSP16, 13)
          CFI VB load(1, XDATA, add(CFA_XSP16, literal(-12)))
          CFI DPL0 load(1, XDATA, add(CFA_XSP16, literal(-2)))
          CFI DPH0 load(1, XDATA, add(CFA_XSP16, literal(-1)))
          CFI R6 load(1, XDATA, add(CFA_XSP16, literal(-13)))
          CFI R7 load(1, XDATA, add(CFA_XSP16, literal(-6)))
          CFI V0 load(1, XDATA, add(CFA_XSP16, literal(-11)))
          CFI V1 load(1, XDATA, add(CFA_XSP16, literal(-10)))
          CFI V2 load(1, XDATA, add(CFA_XSP16, literal(-9)))
          CFI V3 load(1, XDATA, add(CFA_XSP16, literal(-8)))
          CFI V4 load(1, XDATA, add(CFA_XSP16, literal(-7)))
          CFI ?BRET_EXT load(1, XDATA, add(CFA_XSP16, literal(-3)))
          CFI ?RET_HIGH load(1, XDATA, add(CFA_XSP16, literal(-4)))
          CFI ?RET_LOW load(1, XDATA, add(CFA_XSP16, literal(-5)))
        MOV     R7,#0x5
        LJMP    ?BANKED_LEAVE_XDATA
          CFI EndBlock cfiBlock98
//  795 
//  796 /*********************************************************************
//  797  * @fn      zll_GetRandPrimaryChannel
//  798  *
//  799  * @brief   Get randomly chosen ZLL primary channel.
//  800  *
//  801  * @return  channel
//  802  */

        RSEG BANKED_CODE:CODE:NOROOT(0)
//  803 uint8 zll_GetRandPrimaryChannel()
zll_GetRandPrimaryChannel:
          CFI Block cfiBlock99 Using cfiCommon0
          CFI Function zll_GetRandPrimaryChannel
        CODE
//  804 {
        FUNCALL zll_GetRandPrimaryChannel, osal_rand
        LOCFRAME ISTACK, 2, STACK
        LOCFRAME PSTACK, 0, STACK
        LOCFRAME XSTACK, 0, STACK
        LOCFRAME IOVERLAY, 0, STATIC
        LOCFRAME DOVERLAY, 0, STATIC
        ARGFRAME ISTACK, 2, STACK
        ARGFRAME PSTACK, 0, STACK
        ARGFRAME XSTACK, 0, STACK
        ARGFRAME IOVERLAY, 0, STATIC
        ARGFRAME DOVERLAY, 0, STATIC
        PUSH    DPL
          CFI DPL0 Frame(CFA_SP, 4)
          CFI CFA_SP SP+-4
        PUSH    DPH
          CFI DPH0 Frame(CFA_SP, 5)
          CFI CFA_SP SP+-5
        ; Saved register size: 2
        ; Auto size: 0
//  805   uint8 channel = osal_rand() & 0x1F;
        ; Setup parameters for call to function osal_rand
        LCALL   ??osal_rand?relay
        MOV     A,R2
        ANL     A,#0x1f
        MOV     R1,A
//  806   if ( channel <= ZLL_FIRST_CHANNEL )
        CLR     C
        SUBB    A,#0xc
        JNC     ??zll_GetRandPrimaryChannel_0
//  807   {
//  808     channel = ZLL_FIRST_CHANNEL;
        MOV     R1,#0xb
        SJMP    ??zll_GetRandPrimaryChannel_1
//  809   }
//  810   else if ( channel <= ZLL_SECOND_CHANNEL )
??zll_GetRandPrimaryChannel_0:
        MOV     A,R1
        CLR     C
        SUBB    A,#0x10
        JNC     ??zll_GetRandPrimaryChannel_2
//  811   {
//  812     channel = ZLL_SECOND_CHANNEL;
        MOV     R1,#0xf
        SJMP    ??zll_GetRandPrimaryChannel_1
//  813   }
//  814   else if ( channel <= ZLL_THIRD_CHANNEL )
??zll_GetRandPrimaryChannel_2:
        MOV     A,R1
        CLR     C
        SUBB    A,#0x15
        JNC     ??zll_GetRandPrimaryChannel_3
//  815   {
//  816     channel = ZLL_THIRD_CHANNEL;
        MOV     R1,#0x14
        SJMP    ??zll_GetRandPrimaryChannel_1
//  817   }
//  818   else
//  819   {
//  820     channel = ZLL_FOURTH_CHANNEL;
??zll_GetRandPrimaryChannel_3:
        MOV     R1,#0x19
//  821   }
//  822 #ifdef ZLL_DEV_SELECT_FIRST_CHANNEL
//  823 #warning The device will always select the first primary channel
//  824   channel = ZLL_FIRST_CHANNEL;
//  825 #endif
//  826   return channel;
??zll_GetRandPrimaryChannel_1:
        LJMP    ??Subroutine39_0 & 0xFFFF
          CFI EndBlock cfiBlock99
//  827 }
//  828 
//  829 /*********************************************************************
//  830  * @fn      zll_SetNIB
//  831  *
//  832  * @brief   Copy new Network Parameters to the NIB.
//  833  *
//  834  * @param   nwkState - network state
//  835  * @param   nwkAddr - short address
//  836  * @param   pExtendedPANID - pointer to extended PAN ID
//  837  * @param   logicalChannel - channel
//  838  * @param   panId - PAN identifier
//  839  * @param   nwkUpdateId - nwtwork update identifier
//  840  *
//  841  * @return      void
//  842  */

        RSEG BANKED_CODE:CODE:NOROOT(0)
//  843 void zll_SetNIB( nwk_states_t nwkState, uint16 nwkAddr, uint8 *pExtendedPANID,
zll_SetNIB:
          CFI Block cfiBlock100 Using cfiCommon0
          CFI Function zll_SetNIB
        CODE
//  844                  uint8 logicalChannel, uint16 panId, uint8 nwkUpdateId )
//  845 {
        FUNCALL zll_SetNIB, NLME_SetUpdateID
        LOCFRAME ISTACK, 0, STACK
        LOCFRAME PSTACK, 0, STACK
        LOCFRAME XSTACK, 13, STACK
        LOCFRAME IOVERLAY, 0, STATIC
        LOCFRAME DOVERLAY, 0, STATIC
        ARGFRAME ISTACK, 0, STACK
        ARGFRAME PSTACK, 0, STACK
        ARGFRAME XSTACK, 13, STACK
        ARGFRAME IOVERLAY, 0, STATIC
        ARGFRAME DOVERLAY, 0, STATIC
        FUNCALL zll_SetNIB, sAddrExtCpy
        LOCFRAME ISTACK, 0, STACK
        LOCFRAME PSTACK, 0, STACK
        LOCFRAME XSTACK, 13, STACK
        LOCFRAME IOVERLAY, 0, STATIC
        LOCFRAME DOVERLAY, 0, STATIC
        ARGFRAME ISTACK, 0, STACK
        ARGFRAME PSTACK, 0, STACK
        ARGFRAME XSTACK, 13, STACK
        ARGFRAME IOVERLAY, 0, STATIC
        ARGFRAME DOVERLAY, 0, STATIC
        FUNCALL zll_SetNIB, zll_UpdateNV
        LOCFRAME ISTACK, 0, STACK
        LOCFRAME PSTACK, 0, STACK
        LOCFRAME XSTACK, 13, STACK
        LOCFRAME IOVERLAY, 0, STATIC
        LOCFRAME DOVERLAY, 0, STATIC
        ARGFRAME ISTACK, 0, STACK
        ARGFRAME PSTACK, 0, STACK
        ARGFRAME XSTACK, 13, STACK
        ARGFRAME IOVERLAY, 0, STATIC
        ARGFRAME DOVERLAY, 0, STATIC
        MOV     A,#-0xd
        LCALL   ?BANKED_ENTER_XDATA
          CFI DPH0 load(1, XDATA, add(CFA_XSP16, literal(-1)))
          CFI DPL0 load(1, XDATA, add(CFA_XSP16, literal(-2)))
          CFI ?BRET_EXT load(1, XDATA, add(CFA_XSP16, literal(-3)))
          CFI ?RET_HIGH load(1, XDATA, add(CFA_XSP16, literal(-4)))
          CFI ?RET_LOW load(1, XDATA, add(CFA_XSP16, literal(-5)))
          CFI R7 load(1, XDATA, add(CFA_XSP16, literal(-6)))
          CFI V4 load(1, XDATA, add(CFA_XSP16, literal(-7)))
          CFI V3 load(1, XDATA, add(CFA_XSP16, literal(-8)))
          CFI V2 load(1, XDATA, add(CFA_XSP16, literal(-9)))
          CFI V1 load(1, XDATA, add(CFA_XSP16, literal(-10)))
          CFI V0 load(1, XDATA, add(CFA_XSP16, literal(-11)))
          CFI VB load(1, XDATA, add(CFA_XSP16, literal(-12)))
          CFI R6 load(1, XDATA, add(CFA_XSP16, literal(-13)))
          CFI CFA_SP SP+0
          CFI CFA_XSP16 add(XSP16, 13)
        ; Saved register size: 13
        ; Auto size: 0
        MOV     ?V0 + 4,R1
        MOV     A,R4
        MOV     R6,A
        MOV     A,R5
        MOV     R7,A
        MOV     A,#0xe
        LCALL   ?XSTACK_DISP0_8
        LCALL   ??Subroutine44_0 & 0xFFFF
//  846   // Copy the new network parameters to NIB
//  847   _NIB.nwkState = nwkState;
??CrossCallReturnLabel_107:
        MOV     A,R1
        MOV     DPTR,#_NIB + 35
        MOVX    @DPTR,A
//  848   _NIB.nwkDevAddress = nwkAddr;
        MOV     DPTR,#_NIB + 20
        MOV     A,R2
        MOVX    @DPTR,A
        INC     DPTR
        MOV     A,R3
        MOVX    @DPTR,A
        MOV     A,#0xd
        LCALL   ?XSTACK_DISP0_8
        MOVX    A,@DPTR
        MOV     R0,A
//  849   _NIB.nwkLogicalChannel = logicalChannel;
        MOV     DPTR,#_NIB + 22
        MOVX    @DPTR,A
//  850   _NIB.nwkCoordAddress = INVALID_NODE_ADDR;
        INC     DPTR
        LCALL   ?Subroutine26 & 0xFFFF
//  851   _NIB.channelList = (uint32)1 << logicalChannel;
??CrossCallReturnLabel_50:
        MOV     ?V0 + 0,#0x1
        MOV     ?V0 + 1,#0x0
        MOV     ?V0 + 2,#0x0
        MOV     ?V0 + 3,#0x0
        MOV     A,R0
        MOV     R0,#?V0 + 0
        LCALL   ?L_SHL
        MOV     DPTR,#_NIB + 36
        MOV     R0,#?V0 + 0
        LCALL   ?L_MOV_TO_X
//  852   _NIB.nwkPanId = panId;
        MOV     DPTR,#_NIB + 33
        MOV     A,R4
        MOVX    @DPTR,A
        INC     DPTR
        MOV     A,R5
        MOVX    @DPTR,A
//  853   _NIB.nodeDepth = 1;
        MOV     DPTR,#_NIB + 52
        MOV     A,#0x1
        MOVX    @DPTR,A
//  854   _NIB.MaxRouters = (uint8)gNWK_MAX_DEVICE_LIST;
        MOV     DPTR,#gNWK_MAX_DEVICE_LIST
        CLR     A
        MOVC    A,@A+DPTR
        MOV     DPTR,#_NIB + 5
        MOVX    @DPTR,A
//  855   _NIB.MaxChildren = (uint8)gNWK_MAX_DEVICE_LIST;
        MOV     DPTR,#gNWK_MAX_DEVICE_LIST
        CLR     A
        MOVC    A,@A+DPTR
        MOV     DPTR,#_NIB + 3
        MOVX    @DPTR,A
//  856   _NIB.allocatedRouterAddresses = 1;
        MOV     DPTR,#_NIB + 44
        MOV     A,#0x1
        MOVX    @DPTR,A
        INC     DPTR
        CLR     A
        MOVX    @DPTR,A
        INC     DPTR
        MOVX    @DPTR,A
        INC     DPTR
        LCALL   ??Subroutine35_0 & 0xFFFF
//  857   _NIB.allocatedEndDeviceAddresses = 1;
??CrossCallReturnLabel_47:
        INC     DPTR
        CLR     A
        MOVX    @DPTR,A
        INC     DPTR
        MOVX    @DPTR,A
        INC     DPTR
        MOVX    @DPTR,A
        MOV     A,#0x10
        LCALL   ?XSTACK_DISP0_8
        MOVX    A,@DPTR
        MOV     R1,A
//  858 
//  859   if ( _NIB.nwkUpdateId != nwkUpdateId )
        MOV     DPTR,#_NIB + 109
        MOVX    A,@DPTR
        XRL     A,R1
        JZ      ??zll_SetNIB_0
//  860   {
//  861     NLME_SetUpdateID( nwkUpdateId );
        ; Setup parameters for call to function NLME_SetUpdateID
        LCALL   ??NLME_SetUpdateID?relay
//  862   }
//  863 
//  864   osal_cpyExtAddr( _NIB.extendedPANID, pExtendedPANID );
??zll_SetNIB_0:
        ; Setup parameters for call to function sAddrExtCpy
        MOV     A,R6
        MOV     R4,A
        MOV     A,R7
        MOV     R5,A
        MOV     R2,#(_NIB + 53) & 0xff
        MOV     R3,#((_NIB + 53) >> 8) & 0xff
        LCALL   ??sAddrExtCpy?relay
