///////////////////////////////////////////////////////////////////////////////
//                                                                            /
// IAR C/C++ Compiler V8.20.2.41139 for 8051            07/May/2014  17:02:25 /
// Copyright 2004-2013 IAR Systems AB.                                        /
//                                                                            /
//    Core               =  plain                                             /
//    Code model         =  banked                                            /
//    Data model         =  large                                             /
//    Calling convention =  xdata reentrant                                   /
//    Constant location  =  data_rom                                          /
//    Dptr setup         =  1,16                                              /
//                                                                            /
//    Source file        =  D:\Texas Instruments\Z-Stack Lighting             /
//                          1.0.2\Projects\zstack\ZLL\Source\zll_initiator.c  /
//    Command line       =  -f "D:\Texas Instruments\Z-Stack Lighting         /
//                          1.0.2\Projects\zstack\ZLL\SampleApp\CC253x\..\..\ /
//                          ..\Tools\CC2530DB\f8wRouter.cfg" (-DCPU32MHZ      /
//                          -DROOT=__near_func -DMAC_CFG_APP_PENDING_QUEUE=TR /
//                          UE -DMAC_CFG_TX_DATA_MAX=5 -DMAC_CFG_TX_MAX=8     /
//                          -DMAC_CFG_RX_MAX=5 -DRTR_NWK) -f "D:\Texas        /
//                          Instruments\Z-Stack Lighting                      /
//                          1.0.2\Projects\zstack\ZLL\SampleApp\CC253x\..\..\ /
//                          ..\Tools\CC2530DB\f8wConfig.cfg" (-DZIGBEEPRO     /
//                          -DSECURE=1 -DZG_SECURE_DYNAMIC=0 -DREFLECTOR      /
//                          -DDEFAULT_CHANLIST=0x00000800                     /
//                          -DZDAPP_CONFIG_PAN_ID=0xFFFF                      /
//                          -DNWK_START_DELAY=100 -DEXTENDED_JOINING_RANDOM_M /
//                          ASK=0x007F -DBEACON_REQUEST_DELAY=100             /
//                          -DBEACON_REQ_DELAY_MASK=0x00FF                    /
//                          -DLINK_STATUS_JITTER_MASK=0x007F                  /
//                          -DROUTE_EXPIRY_TIME=30 -DAPSC_ACK_WAIT_DURATION_P /
//                          OLLED=3000 -DNWK_INDIRECT_MSG_TIMEOUT=7           /
//                          -DMAX_RREQ_ENTRIES=8 -DAPSC_MAX_FRAME_RETRIES=3   /
//                          -DNWK_MAX_DATA_RETRIES=2                          /
//                          -DMAX_POLL_FAILURE_RETRIES=2 -DMAX_BCAST=9        /
//                          -DAPS_MAX_GROUPS=16 -DMAX_RTG_ENTRIES=40          /
//                          -DNWK_MAX_BINDING_ENTRIES=4                       /
//                          -DMAX_BINDING_CLUSTER_IDS=4                       /
//                          "-DDEFAULT_KEY={0x01, 0x03, 0x05, 0x07, 0x09,     /
//                          0x0B, 0x0D, 0x0F, 0x00, 0x02, 0x04, 0x06, 0x08,   /
//                          0x0A, 0x0C, 0x0D}" -DMAC_MAX_FRAME_SIZE=116       /
//                          -DZDNWKMGR_MIN_TRANSMISSIONS=20 "-DCONST=const    /
//                          __code" -DGENERIC=__generic                       /
//                          -DRFD_RCVC_ALWAYS_ON=FALSE -DPOLL_RATE=1000       /
//                          -DQUEUED_POLL_RATE=100 -DRESPONSE_POLL_RATE=100   /
//                          -DREJOIN_POLL_RATE=440) -f "D:\Texas              /
//                          Instruments\Z-Stack Lighting                      /
//                          1.0.2\Projects\zstack\ZLL\SampleApp\CC253x\..\..\ /
//                          ..\Tools\CC2530DB\f8wZCL.cfg" "D:\Texas           /
//                          Instruments\Z-Stack Lighting                      /
//                          1.0.2\Projects\zstack\ZLL\Source\zll_initiator.c" /
//                           -D FEATURE_GREEN_POWER -D SECURE=1 -D            /
//                          TC_LINKKEY_JOIN -D ZDSECMGR_TC_DEVICE_MAX=2 -D    /
//                          NV_RESTORE -D HOLD_AUTO_START -D INTER_PAN -D     /
//                          ZTOOL_P1 -D MT_TASK -D MT_APP_FUNC -D             /
//                          MT_SYS_FUNC -D MT_ZDO_FUNC -D MT_ZDO_CB_FUNC -D   /
//                          MT_UTIL_FUNC -D MT_ZDO_MGMT -D LCD_SUPPORTED -D   /
//                          HAL_LCD=FALSE -D HAL_KEY=FALSE -D ZCL_BASIC -D    /
//                          ZCL_READ -D ZCL_WRITE -D ZCL_IDENTIFY -D          /
//                          ZCL_ON_OFF -D ZCL_SCENES -D ZCL_GROUPS -D         /
//                          ZCL_LIGHT_LINK_ENHANCE -D ZCL_LEVEL_CTRL -D       /
//                          ZCL_COLOR_CTRL -D xMAX_CHANNELS_24GHZ=0x02108800  /
//                          -lC "D:\Texas Instruments\Z-Stack Lighting        /
//                          1.0.2\Projects\zstack\ZLL\SampleApp\CC253x\Bridge /
//                          EB-Pro\List\" -lA "D:\Texas Instruments\Z-Stack   /
//                          Lighting 1.0.2\Projects\zstack\ZLL\SampleApp\CC25 /
//                          3x\BridgeEB-Pro\List\" --diag_suppress            /
//                          Pe001,Pa010 -o "D:\Texas Instruments\Z-Stack      /
//                          Lighting 1.0.2\Projects\zstack\ZLL\SampleApp\CC25 /
//                          3x\BridgeEB-Pro\Obj\" -e --debug --core=plain     /
//                          --dptr=16,1 --data_model=large                    /
//                          --code_model=banked --calling_convention=xdata_re /
//                          entrant --place_constants=data_rom                /
//                          --nr_virtual_regs 16 -I "D:\Texas                 /
//                          Instruments\Z-Stack Lighting                      /
//                          1.0.2\Projects\zstack\ZLL\SampleApp\CC253x\" -I   /
//                          "D:\Texas Instruments\Z-Stack Lighting            /
//                          1.0.2\Projects\zstack\ZLL\SampleApp\CC253x\..\Sou /
//                          rce\" -I "D:\Texas Instruments\Z-Stack Lighting   /
//                          1.0.2\Projects\zstack\ZLL\SampleApp\CC253x\..\..\ /
//                          Source\" -I "D:\Texas Instruments\Z-Stack         /
//                          Lighting 1.0.2\Projects\zstack\ZLL\SampleApp\CC25 /
//                          3x\..\..\..\HomeAutomation\Source\" -I "D:\Texas  /
//                          Instruments\Z-Stack Lighting                      /
//                          1.0.2\Projects\zstack\ZLL\SampleApp\CC253x\..\..\ /
//                          ..\HomeAutomation\SampleLight\Source\" -I         /
//                          "D:\Texas Instruments\Z-Stack Lighting            /
//                          1.0.2\Projects\zstack\ZLL\SampleApp\CC253x\..\..\ /
//                          ..\ZMain\TI2530DB\" -I "D:\Texas                  /
//                          Instruments\Z-Stack Lighting                      /
//                          1.0.2\Projects\zstack\ZLL\SampleApp\CC253x\..\..\ /
//                          ..\..\..\Components\hal\include\" -I "D:\Texas    /
//                          Instruments\Z-Stack Lighting                      /
//                          1.0.2\Projects\zstack\ZLL\SampleApp\CC253x\..\..\ /
//                          ..\..\..\Components\hal\target\CC2530EB\" -I      /
//                          "D:\Texas Instruments\Z-Stack Lighting            /
//                          1.0.2\Projects\zstack\ZLL\SampleApp\CC253x\..\..\ /
//                          ..\..\..\Components\mac\include\" -I "D:\Texas    /
//                          Instruments\Z-Stack Lighting                      /
//                          1.0.2\Projects\zstack\ZLL\SampleApp\CC253x\..\..\ /
//                          ..\..\..\Components\mac\high_level\" -I           /
//                          "D:\Texas Instruments\Z-Stack Lighting            /
//                          1.0.2\Projects\zstack\ZLL\SampleApp\CC253x\..\..\ /
//                          ..\..\..\Components\mac\low_level\srf04\" -I      /
//                          "D:\Texas Instruments\Z-Stack Lighting            /
//                          1.0.2\Projects\zstack\ZLL\SampleApp\CC253x\..\..\ /
//                          ..\..\..\Components\mac\low_level\srf04\single_ch /
//                          ip\" -I "D:\Texas Instruments\Z-Stack Lighting    /
//                          1.0.2\Projects\zstack\ZLL\SampleApp\CC253x\..\..\ /
//                          ..\..\..\Components\mt\" -I "D:\Texas             /
//                          Instruments\Z-Stack Lighting                      /
//                          1.0.2\Projects\zstack\ZLL\SampleApp\CC253x\..\..\ /
//                          ..\..\..\Components\osal\include\" -I "D:\Texas   /
//                          Instruments\Z-Stack Lighting                      /
//                          1.0.2\Projects\zstack\ZLL\SampleApp\CC253x\..\..\ /
//                          ..\..\..\Components\services\saddr\" -I           /
//                          "D:\Texas Instruments\Z-Stack Lighting            /
//                          1.0.2\Projects\zstack\ZLL\SampleApp\CC253x\..\..\ /
//                          ..\..\..\Components\services\sdata\" -I           /
//                          "D:\Texas Instruments\Z-Stack Lighting            /
//                          1.0.2\Projects\zstack\ZLL\SampleApp\CC253x\..\..\ /
//                          ..\..\..\Components\stack\af\" -I "D:\Texas       /
//                          Instruments\Z-Stack Lighting                      /
//                          1.0.2\Projects\zstack\ZLL\SampleApp\CC253x\..\..\ /
//                          ..\..\..\Components\stack\nwk\" -I "D:\Texas      /
//                          Instruments\Z-Stack Lighting                      /
//                          1.0.2\Projects\zstack\ZLL\SampleApp\CC253x\..\..\ /
//                          ..\..\..\Components\stack\sapi\" -I "D:\Texas     /
//                          Instruments\Z-Stack Lighting                      /
//                          1.0.2\Projects\zstack\ZLL\SampleApp\CC253x\..\..\ /
//                          ..\..\..\Components\stack\sec\" -I "D:\Texas      /
//                          Instruments\Z-Stack Lighting                      /
//                          1.0.2\Projects\zstack\ZLL\SampleApp\CC253x\..\..\ /
//                          ..\..\..\Components\stack\sys\" -I "D:\Texas      /
//                          Instruments\Z-Stack Lighting                      /
//                          1.0.2\Projects\zstack\ZLL\SampleApp\CC253x\..\..\ /
//                          ..\..\..\Components\stack\zcl\" -I "D:\Texas      /
//                          Instruments\Z-Stack Lighting                      /
//                          1.0.2\Projects\zstack\ZLL\SampleApp\CC253x\..\..\ /
//                          ..\..\..\Components\stack\zdo\" -I "D:\Texas      /
//                          Instruments\Z-Stack Lighting                      /
//                          1.0.2\Projects\zstack\ZLL\SampleApp\CC253x\..\..\ /
//                          ..\..\..\Components\zmac\" -I "D:\Texas           /
//                          Instruments\Z-Stack Lighting                      /
//                          1.0.2\Projects\zstack\ZLL\SampleApp\CC253x\..\..\ /
//                          ..\..\..\Components\zmac\f8w\" -Ohz               /
//                          --require_prototypes                              /
//    List file          =  D:\Texas Instruments\Z-Stack Lighting             /
//                          1.0.2\Projects\zstack\ZLL\SampleApp\CC253x\Bridge /
//                          EB-Pro\List\zll_initiator.s51                     /
//                                                                            /
//                                                                            /
///////////////////////////////////////////////////////////////////////////////

        NAME zll_initiator

        RTMODEL "__SystemLibrary", "CLib"
        RTMODEL "__calling_convention", "xdata_reentrant"
        RTMODEL "__code_model", "banked"
        RTMODEL "__core", "plain"
        RTMODEL "__data_model", "large"
        RTMODEL "__dptr_size", "16"
        RTMODEL "__extended_stack", "disabled"
        RTMODEL "__location_for_constants", "data"
        RTMODEL "__number_of_dptrs", "1"
        RTMODEL "__rt_version", "1"

        RSEG DOVERLAY:DATA:NOROOT(0)
        RSEG IOVERLAY:IDATA:NOROOT(0)
        RSEG ISTACK:IDATA:NOROOT(0)
        RSEG PSTACK:XDATA:NOROOT(0)
        RSEG XSTACK:XDATA:NOROOT(0)

        EXTERN ?ALLOC_XSTACK8
        EXTERN ?BANKED_ENTER_XDATA
        EXTERN ?BANKED_LEAVE_XDATA
        EXTERN ?BDISPATCH
        EXTERN ?BRET
        EXTERN ?CALL_IND
        EXTERN ?DEALLOC_XSTACK8
        EXTERN ?L_ADD
        EXTERN ?L_MOV_TO_X
        EXTERN ?L_MOV_X
        EXTERN ?L_SHL
        EXTERN ?MOVE_LONG8_XDATA_XDATA
        EXTERN ?PUSH_XSTACK8_X_FOUR
        EXTERN ?PUSH_XSTACK8_X_TWO
        EXTERN ?PUSH_XSTACK_I_FOUR
        EXTERN ?PUSH_XSTACK_I_ONE
        EXTERN ?PUSH_XSTACK_I_THREE
        EXTERN ?PUSH_XSTACK_I_TWO
        EXTERN ?S_SHL
        EXTERN ?V0
        EXTERN ?XLOAD_R2345
        EXTERN ?XSP
        EXTERN ?XSTACK_DISP0_8
        EXTERN ?XSTORE_R2345
        EXTERN __INIT_XDATA_I
        EXTERN __INIT_XDATA_Z

        FUNCTION ??initiatorClearSelectedTarget?relay,0203H
        FUNCTION ??initiatorDeviceInfoReqCB?relay,0203H
        FUNCTION ??initiatorDeviceInfoRspCB?relay,0203H
        FUNCTION ??initiatorIdentifyReqCB?relay,0203H
        FUNCTION ??initiatorJoinNwk?relay,0203H
        FUNCTION ??initiatorNwkJoinEDRspCB?relay,0203H
        FUNCTION ??initiatorNwkJoinReqCB?relay,0203H
        FUNCTION ??initiatorNwkJoinRtrRspCB?relay,0203H
        FUNCTION ??initiatorNwkStartRspCB?relay,0203H
        FUNCTION ??initiatorNwkUpdateReqCB?relay,0203H
        FUNCTION ??initiatorReJoinNwk?relay,0203H
        FUNCTION ??initiatorResetToFNReqCB?relay,0203H
        FUNCTION ??initiatorScanReqCB?relay,0203H
        FUNCTION ??initiatorScanRspCB?relay,0203H
        PUBLIC ??initiatorSelectNwkParams?relay
        FUNCTION ??initiatorSelectNwkParams?relay,0203H
        FUNCTION ??initiatorSendNwkJoinReq?relay,0203H
        FUNCTION ??initiatorSendNwkStartReq?relay,0203H
        FUNCTION ??initiatorSendScanReq?relay,0203H
        FUNCTION ??initiatorSetNwkToInitState?relay,0203H
        FUNCTION ??initiatorZdoLeaveCnfCB?relay,0203H
        PUBLIC ??zllInitiator_AbortTL?relay
        FUNCTION ??zllInitiator_AbortTL?relay,0203H
        PUBLIC ??zllInitiator_BridgeStartNetwork?relay
        FUNCTION ??zllInitiator_BridgeStartNetwork?relay,0203H
        PUBLIC ??zllInitiator_ChannelChange?relay
        FUNCTION ??zllInitiator_ChannelChange?relay,0203H
        PUBLIC ??zllInitiator_ClassicalCommissioningStart?rela
        FUNCTION ??zllInitiator_ClassicalCommissioningStart?rela,0203H
        PUBLIC ??zllInitiator_Init?relay
        FUNCTION ??zllInitiator_Init?relay,0203H
        PUBLIC ??zllInitiator_InitDevice?relay
        FUNCTION ??zllInitiator_InitDevice?relay,0203H
        PUBLIC ??zllInitiator_OrphanedRejoin?relay
        FUNCTION ??zllInitiator_OrphanedRejoin?relay,0203H
        PUBLIC ??zllInitiator_PermitJoin?relay
        FUNCTION ??zllInitiator_PermitJoin?relay,0203H
        PUBLIC ??zllInitiator_RegisterApp?relay
        FUNCTION ??zllInitiator_RegisterApp?relay,0203H
        PUBLIC ??zllInitiator_RegisterForMsg?relay
        FUNCTION ??zllInitiator_RegisterForMsg?relay,0203H
        PUBLIC ??zllInitiator_RegisterIdentifyCB?relay
        FUNCTION ??zllInitiator_RegisterIdentifyCB?relay,0203H
        PUBLIC ??zllInitiator_RegisterNotifyTLCB?relay
        FUNCTION ??zllInitiator_RegisterNotifyTLCB?relay,0203H
        PUBLIC ??zllInitiator_RegisterResetAppCB?relay
        FUNCTION ??zllInitiator_RegisterResetAppCB?relay,0203H
        PUBLIC ??zllInitiator_RegisterSelectDiscDevCB?relay
        FUNCTION ??zllInitiator_RegisterSelectDiscDevCB?relay,0203H
        PUBLIC ??zllInitiator_ResetToFNSelectedTarget?relay
        FUNCTION ??zllInitiator_ResetToFNSelectedTarget?relay,0203H
        PUBLIC ??zllInitiator_ResetToFactoryNew?relay
        FUNCTION ??zllInitiator_ResetToFactoryNew?relay,0203H
        PUBLIC ??zllInitiator_SendEPInfo?relay
        FUNCTION ??zllInitiator_SendEPInfo?relay,0203H
        PUBLIC ??zllInitiator_StartDevDisc?relay
        FUNCTION ??zllInitiator_StartDevDisc?relay,0203H
        PUBLIC ??zllInitiator_event_loop?relay
        FUNCTION ??zllInitiator_event_loop?relay,0203H
        PUBWEAK __Constant_0
        PUBWEAK __Constant_1388
        PUBWEAK __Constant_1d4c
        PUBWEAK __Constant_1f4
        PUBWEAK __Constant_1f40
        PUBWEAK __Constant_7d0
        PUBWEAK __Constant_fa
        FUNCTION initiatorClearSelectedTarget,021203H
        ARGFRAME XSTACK, 52, STACK
        ARGFRAME IOVERLAY, 0, STATIC
        ARGFRAME DOVERLAY, 0, STATIC
        LOCFRAME ISTACK, 2, STACK
        FUNCTION initiatorDeviceInfoReqCB,021603H
        ARGFRAME XSTACK, 0, STACK
        LOCFRAME XSTACK, 15, STACK
        FUNCTION initiatorDeviceInfoRspCB,021603H
        ARGFRAME XSTACK, 0, STACK
        LOCFRAME ISTACK, 2, STACK
        LOCFRAME XSTACK, 52, STACK
        FUNCTION initiatorIdentifyReqCB,021603H
        ARGFRAME XSTACK, 0, STACK
        LOCFRAME XSTACK, 14, STACK
        FUNCTION initiatorJoinNwk,021203H
        ARGFRAME XSTACK, 30, STACK
        ARGFRAME IOVERLAY, 0, STATIC
        ARGFRAME DOVERLAY, 0, STATIC
        LOCFRAME ISTACK, 2, STACK
        FUNCTION initiatorNwkJoinEDRspCB,021603H
        ARGFRAME XSTACK, 0, STACK
        LOCFRAME XSTACK, 13, STACK
        FUNCTION initiatorNwkJoinReqCB,021603H
        ARGFRAME XSTACK, 0, STACK
        LOCFRAME ISTACK, 2, STACK
        LOCFRAME XSTACK, 30, STACK
        FUNCTION initiatorNwkJoinRtrRspCB,021603H
        ARGFRAME XSTACK, 0, STACK
        LOCFRAME XSTACK, 13, STACK
        FUNCTION initiatorNwkStartRspCB,021603H
        ARGFRAME XSTACK, 0, STACK
        LOCFRAME XSTACK, 13, STACK
        FUNCTION initiatorNwkUpdateReqCB,021603H
        ARGFRAME XSTACK, 0, STACK
        LOCFRAME XSTACK, 10, STACK
        FUNCTION initiatorReJoinNwk,021203H
        ARGFRAME XSTACK, 30, STACK
        ARGFRAME IOVERLAY, 0, STATIC
        ARGFRAME DOVERLAY, 0, STATIC
        LOCFRAME XSTACK, 9, STACK
        FUNCTION initiatorResetToFNReqCB,021603H
        ARGFRAME XSTACK, 0, STACK
        LOCFRAME ISTACK, 2, STACK
        FUNCTION initiatorScanReqCB,021603H
        ARGFRAME XSTACK, 0, STACK
        LOCFRAME XSTACK, 35, STACK
        FUNCTION initiatorScanRspCB,021603H
        ARGFRAME XSTACK, 0, STACK
        LOCFRAME XSTACK, 18, STACK
        PUBLIC initiatorSelectNwkParams
        FUNCTION initiatorSelectNwkParams,021203H
        ARGFRAME XSTACK, 0, STACK
        ARGFRAME IOVERLAY, 0, STATIC
        ARGFRAME DOVERLAY, 0, STATIC
        LOCFRAME ISTACK, 2, STACK
        LOCFRAME XSTACK, 9, STACK
        FUNCTION initiatorSendNwkJoinReq,021203H
        ARGFRAME XSTACK, 30, STACK
        ARGFRAME IOVERLAY, 0, STATIC
        ARGFRAME DOVERLAY, 0, STATIC
        LOCFRAME ISTACK, 1, STACK
        LOCFRAME XSTACK, 22, STACK
        FUNCTION initiatorSendNwkStartReq,021203H
        ARGFRAME XSTACK, 30, STACK
        ARGFRAME IOVERLAY, 0, STATIC
        ARGFRAME DOVERLAY, 0, STATIC
        LOCFRAME ISTACK, 1, STACK
        LOCFRAME XSTACK, 28, STACK
        FUNCTION initiatorSendScanReq,021203H
        ARGFRAME XSTACK, 30, STACK
        ARGFRAME IOVERLAY, 0, STATIC
        ARGFRAME DOVERLAY, 0, STATIC
        LOCFRAME ISTACK, 2, STACK
        LOCFRAME XSTACK, 36, STACK
        FUNCTION initiatorSetNwkToInitState,021203H
        ARGFRAME XSTACK, 30, STACK
        ARGFRAME IOVERLAY, 0, STATIC
        ARGFRAME DOVERLAY, 0, STATIC
        LOCFRAME ISTACK, 2, STACK
        FUNCTION initiatorZdoLeaveCnfCB,021603H
        ARGFRAME XSTACK, 0, STACK
        LOCFRAME ISTACK, 2, STACK
        PUBLIC zllInitiator_AbortTL
        FUNCTION zllInitiator_AbortTL,021203H
        ARGFRAME XSTACK, 32, STACK
        ARGFRAME IOVERLAY, 0, STATIC
        ARGFRAME DOVERLAY, 0, STATIC
        LOCFRAME XSTACK, 9, STACK
        PUBLIC zllInitiator_BridgeStartNetwork
        FUNCTION zllInitiator_BridgeStartNetwork,021203H
        ARGFRAME XSTACK, 30, STACK
        ARGFRAME IOVERLAY, 0, STATIC
        ARGFRAME DOVERLAY, 0, STATIC
        LOCFRAME XSTACK, 29, STACK
        PUBLIC zllInitiator_ChannelChange
        FUNCTION zllInitiator_ChannelChange,021203H
        ARGFRAME XSTACK, 30, STACK
        ARGFRAME IOVERLAY, 0, STATIC
        ARGFRAME DOVERLAY, 0, STATIC
        LOCFRAME ISTACK, 2, STACK
        LOCFRAME XSTACK, 27, STACK
        PUBLIC zllInitiator_ClassicalCommissioningStart
        FUNCTION zllInitiator_ClassicalCommissioningStart,021203H
        ARGFRAME XSTACK, 30, STACK
        ARGFRAME IOVERLAY, 0, STATIC
        ARGFRAME DOVERLAY, 0, STATIC
        LOCFRAME ISTACK, 2, STACK
        PUBLIC zllInitiator_Init
        FUNCTION zllInitiator_Init,021203H
        ARGFRAME XSTACK, 0, STACK
        LOCFRAME XSTACK, 9, STACK
        PUBLIC zllInitiator_InitDevice
        FUNCTION zllInitiator_InitDevice,021203H
        ARGFRAME XSTACK, 0, STACK
        LOCFRAME ISTACK, 2, STACK
        PUBLIC zllInitiator_OrphanedRejoin
        FUNCTION zllInitiator_OrphanedRejoin,021203H
        ARGFRAME XSTACK, 0, STACK
        LOCFRAME ISTACK, 2, STACK
        PUBLIC zllInitiator_PermitJoin
        FUNCTION zllInitiator_PermitJoin,021203H
        ARGFRAME XSTACK, 0, STACK
        LOCFRAME XSTACK, 9, STACK
        PUBLIC zllInitiator_RegisterApp
        FUNCTION zllInitiator_RegisterApp,021203H
        ARGFRAME XSTACK, 0, STACK
        LOCFRAME ISTACK, 2, STACK
        PUBLIC zllInitiator_RegisterForMsg
        FUNCTION zllInitiator_RegisterForMsg,0203H
        ARGFRAME XSTACK, 0, STACK
        LOCFRAME ISTACK, 2, STACK
        PUBLIC zllInitiator_RegisterIdentifyCB
        FUNCTION zllInitiator_RegisterIdentifyCB,0203H
        ARGFRAME XSTACK, 0, STACK
        LOCFRAME ISTACK, 2, STACK
        PUBLIC zllInitiator_RegisterNotifyTLCB
        FUNCTION zllInitiator_RegisterNotifyTLCB,0203H
        ARGFRAME XSTACK, 0, STACK
        LOCFRAME ISTACK, 2, STACK
        PUBLIC zllInitiator_RegisterResetAppCB
        FUNCTION zllInitiator_RegisterResetAppCB,0203H
        ARGFRAME XSTACK, 0, STACK
        LOCFRAME ISTACK, 2, STACK
        PUBLIC zllInitiator_RegisterSelectDiscDevCB
        FUNCTION zllInitiator_RegisterSelectDiscDevCB,0203H
        ARGFRAME XSTACK, 0, STACK
        LOCFRAME ISTACK, 2, STACK
        PUBLIC zllInitiator_ResetToFNSelectedTarget
        FUNCTION zllInitiator_ResetToFNSelectedTarget,021203H
        ARGFRAME XSTACK, 30, STACK
        ARGFRAME IOVERLAY, 0, STATIC
        ARGFRAME DOVERLAY, 0, STATIC
        LOCFRAME XSTACK, 17, STACK
        PUBLIC zllInitiator_ResetToFactoryNew
        FUNCTION zllInitiator_ResetToFactoryNew,021203H
        ARGFRAME XSTACK, 30, STACK
        ARGFRAME IOVERLAY, 0, STATIC
        ARGFRAME DOVERLAY, 0, STATIC
        LOCFRAME ISTACK, 2, STACK
        PUBLIC zllInitiator_SendEPInfo
        FUNCTION zllInitiator_SendEPInfo,021203H
        ARGFRAME XSTACK, 0, STACK
        LOCFRAME ISTACK, 1, STACK
        LOCFRAME XSTACK, 36, STACK
        PUBLIC zllInitiator_StartDevDisc
        FUNCTION zllInitiator_StartDevDisc,021203H
        ARGFRAME XSTACK, 30, STACK
        ARGFRAME IOVERLAY, 0, STATIC
        ARGFRAME DOVERLAY, 0, STATIC
        LOCFRAME XSTACK, 21, STACK
        PUBLIC zllInitiator_TaskID
        PUBLIC zllInitiator_event_loop
        FUNCTION zllInitiator_event_loop,021203H
        ARGFRAME XSTACK, 0, STACK
        LOCFRAME ISTACK, 1, STACK
        LOCFRAME XSTACK, 38, STACK
        
          CFI Names cfiNames0
          CFI StackFrame CFA_SP SP IDATA
          CFI StackFrame CFA_PSP16 PSP16 XDATA
          CFI StackFrame CFA_XSP16 XSP16 XDATA
          CFI StaticOverlayFrame CFA_IOVERLAY IOVERLAY
          CFI StaticOverlayFrame CFA_DOVERLAY DOVERLAY
          CFI Resource `PSW.CY`:1, `B.BR0`:1, `B.BR1`:1, `B.BR2`:1, `B.BR3`:1
          CFI Resource `B.BR4`:1, `B.BR5`:1, `B.BR6`:1, `B.BR7`:1, `VB.BR8`:1
          CFI Resource `VB.BR9`:1, `VB.BR10`:1, `VB.BR11`:1, `VB.BR12`:1
          CFI Resource `VB.BR13`:1, `VB.BR14`:1, `VB.BR15`:1, VB:8, B:8, A:8
          CFI Resource PSW:8, DPL0:8, DPH0:8, R0:8, R1:8, R2:8, R3:8, R4:8, R5:8
          CFI Resource R6:8, R7:8, V0:8, V1:8, V2:8, V3:8, V4:8, V5:8, V6:8, V7:8
          CFI Resource V8:8, V9:8, V10:8, V11:8, V12:8, V13:8, V14:8, V15:8, SP:8
          CFI Resource PSPH:8, PSPL:8, PSP16:16, XSPH:8, XSPL:8, XSP16:16
          CFI VirtualResource ?RET:24
          CFI Resource ?BRET_EXT:8
          CFI VirtualResource ?RET_HIGH:8, ?RET_LOW:8
          CFI ResourceParts PSP16 PSPH, PSPL
          CFI ResourceParts XSP16 XSPH, XSPL
          CFI ResourceParts ?RET ?BRET_EXT, ?RET_HIGH, ?RET_LOW
          CFI EndNames cfiNames0
        
          CFI Common cfiCommon0 Using cfiNames0
          CFI CodeAlign 1
          CFI DataAlign -1
          CFI ReturnAddress ?RET CODE
          CFI CFA_DOVERLAY Used
          CFI CFA_IOVERLAY Used
          CFI CFA_SP SP+-3
          CFI CFA_PSP16 PSP16+0
          CFI CFA_XSP16 XSP16+0
          CFI `PSW.CY` SameValue
          CFI `B.BR0` SameValue
          CFI `B.BR1` SameValue
          CFI `B.BR2` SameValue
          CFI `B.BR3` SameValue
          CFI `B.BR4` SameValue
          CFI `B.BR5` SameValue
          CFI `B.BR6` SameValue
          CFI `B.BR7` SameValue
          CFI `VB.BR8` SameValue
          CFI `VB.BR9` SameValue
          CFI `VB.BR10` SameValue
          CFI `VB.BR11` SameValue
          CFI `VB.BR12` SameValue
          CFI `VB.BR13` SameValue
          CFI `VB.BR14` SameValue
          CFI `VB.BR15` SameValue
          CFI VB SameValue
          CFI B Undefined
          CFI A Undefined
          CFI PSW SameValue
          CFI DPL0 SameValue
          CFI DPH0 SameValue
          CFI R0 Undefined
          CFI R1 Undefined
          CFI R2 Undefined
          CFI R3 Undefined
          CFI R4 Undefined
          CFI R5 Undefined
          CFI R6 SameValue
          CFI R7 SameValue
          CFI V0 SameValue
          CFI V1 SameValue
          CFI V2 SameValue
          CFI V3 SameValue
          CFI V4 SameValue
          CFI V5 SameValue
          CFI V6 SameValue
          CFI V7 SameValue
          CFI V8 SameValue
          CFI V9 SameValue
          CFI V10 SameValue
          CFI V11 SameValue
          CFI V12 SameValue
          CFI V13 SameValue
          CFI V14 SameValue
          CFI V15 SameValue
          CFI PSPH Undefined
          CFI PSPL Undefined
          CFI XSPH Undefined
          CFI XSPL Undefined
          CFI ?RET Concat
          CFI ?BRET_EXT Frame(CFA_SP, 3)
          CFI ?RET_HIGH Frame(CFA_SP, 2)
          CFI ?RET_LOW Frame(CFA_SP, 1)
          CFI EndCommon cfiCommon0
        
        
          CFI Common cfiCommon1 Using cfiNames0
          CFI CodeAlign 1
          CFI DataAlign -1
          CFI ReturnAddress ?RET CODE
          CFI CFA_DOVERLAY Used
          CFI CFA_IOVERLAY Used
          CFI CFA_SP SP+-2
          CFI CFA_PSP16 PSP16+0
          CFI CFA_XSP16 XSP16+0
          CFI `PSW.CY` SameValue
          CFI `B.BR0` SameValue
          CFI `B.BR1` SameValue
          CFI `B.BR2` SameValue
          CFI `B.BR3` SameValue
          CFI `B.BR4` SameValue
          CFI `B.BR5` SameValue
          CFI `B.BR6` SameValue
          CFI `B.BR7` SameValue
          CFI `VB.BR8` SameValue
          CFI `VB.BR9` SameValue
          CFI `VB.BR10` SameValue
          CFI `VB.BR11` SameValue
          CFI `VB.BR12` SameValue
          CFI `VB.BR13` SameValue
          CFI `VB.BR14` SameValue
          CFI `VB.BR15` SameValue
          CFI VB SameValue
          CFI B SameValue
          CFI A SameValue
          CFI PSW SameValue
          CFI DPL0 SameValue
          CFI DPH0 SameValue
          CFI R0 SameValue
          CFI R1 SameValue
          CFI R2 SameValue
          CFI R3 SameValue
          CFI R4 SameValue
          CFI R5 SameValue
          CFI R6 SameValue
          CFI R7 SameValue
          CFI V0 SameValue
          CFI V1 SameValue
          CFI V2 SameValue
          CFI V3 SameValue
          CFI V4 SameValue
          CFI V5 SameValue
          CFI V6 SameValue
          CFI V7 SameValue
          CFI V8 SameValue
          CFI V9 SameValue
          CFI V10 SameValue
          CFI V11 SameValue
          CFI V12 SameValue
          CFI V13 SameValue
          CFI V14 SameValue
          CFI V15 SameValue
          CFI PSPH Undefined
          CFI PSPL Undefined
          CFI XSPH Undefined
          CFI XSPL Undefined
          CFI ?RET Concat
          CFI ?BRET_EXT SameValue
          CFI ?RET_HIGH Frame(CFA_SP, 2)
          CFI ?RET_LOW Frame(CFA_SP, 1)
          CFI EndCommon cfiCommon1
        
MT_ZllNotifyTL      SYMBOL "MT_ZllNotifyTL"
??MT_ZllNotifyTL?relay SYMBOL "?relay", MT_ZllNotifyTL
NLME_GetExtAddr     SYMBOL "NLME_GetExtAddr"
??NLME_GetExtAddr?relay SYMBOL "?relay", NLME_GetExtAddr
NLME_GetShortAddr   SYMBOL "NLME_GetShortAddr"
??NLME_GetShortAddr?relay SYMBOL "?relay", NLME_GetShortAddr
NLME_SetPollRate    SYMBOL "NLME_SetPollRate"
??NLME_SetPollRate?relay SYMBOL "?relay", NLME_SetPollRate
NLME_SetQueuedPollRate SYMBOL "NLME_SetQueuedPollRate"
??NLME_SetQueuedPollRate?relay SYMBOL "?relay", NLME_SetQueuedPollRate
NLME_SetResponseRate SYMBOL "NLME_SetResponseRate"
??NLME_SetResponseRate?relay SYMBOL "?relay", NLME_SetResponseRate
NLME_SetUpdateID    SYMBOL "NLME_SetUpdateID"
??NLME_SetUpdateID?relay SYMBOL "?relay", NLME_SetUpdateID
ZDApp_LeaveCtrlReset SYMBOL "ZDApp_LeaveCtrlReset"
??ZDApp_LeaveCtrlReset?relay SYMBOL "?relay", ZDApp_LeaveCtrlReset
ZDApp_StopJoiningCycle SYMBOL "ZDApp_StopJoiningCycle"
??ZDApp_StopJoiningCycle?relay SYMBOL "?relay", ZDApp_StopJoiningCycle
ZDOInitDevice       SYMBOL "ZDOInitDevice"
??ZDOInitDevice?relay SYMBOL "?relay", ZDOInitDevice
ZDO_RegisterForZDOMsg SYMBOL "ZDO_RegisterForZDOMsg"
??ZDO_RegisterForZDOMsg?relay SYMBOL "?relay", ZDO_RegisterForZDOMsg
ZDO_RegisterForZdoCB SYMBOL "ZDO_RegisterForZdoCB"
??ZDO_RegisterForZdoCB?relay SYMBOL "?relay", ZDO_RegisterForZdoCB
ZDP_DeviceAnnce     SYMBOL "ZDP_DeviceAnnce"
??ZDP_DeviceAnnce?relay SYMBOL "?relay", ZDP_DeviceAnnce
ZDP_MgmtNwkUpdateReq SYMBOL "ZDP_MgmtNwkUpdateReq"
??ZDP_MgmtNwkUpdateReq?relay SYMBOL "?relay", ZDP_MgmtNwkUpdateReq
ZDSecMgrUpdateTCAddress SYMBOL "ZDSecMgrUpdateTCAddress"
??ZDSecMgrUpdateTCAddress?relay SYMBOL "?relay", ZDSecMgrUpdateTCAddress
ZMacGetReq          SYMBOL "ZMacGetReq"
??ZMacGetReq?relay  SYMBOL "?relay", ZMacGetReq
ZMacSetReq          SYMBOL "ZMacSetReq"
??ZMacSetReq?relay  SYMBOL "?relay", ZMacSetReq
nwk_ExtPANIDValid   SYMBOL "nwk_ExtPANIDValid"
??nwk_ExtPANIDValid?relay SYMBOL "?relay", nwk_ExtPANIDValid
nwk_setStateIdle    SYMBOL "nwk_setStateIdle"
??nwk_setStateIdle?relay SYMBOL "?relay", nwk_setStateIdle
osal_clear_event    SYMBOL "osal_clear_event"
??osal_clear_event?relay SYMBOL "?relay", osal_clear_event
osal_get_timeoutEx  SYMBOL "osal_get_timeoutEx"
??osal_get_timeoutEx?relay SYMBOL "?relay", osal_get_timeoutEx
osal_mem_alloc      SYMBOL "osal_mem_alloc"
??osal_mem_alloc?relay SYMBOL "?relay", osal_mem_alloc
osal_mem_free       SYMBOL "osal_mem_free"
??osal_mem_free?relay SYMBOL "?relay", osal_mem_free
osal_memcpy         SYMBOL "osal_memcpy"
??osal_memcpy?relay SYMBOL "?relay", osal_memcpy
osal_memset         SYMBOL "osal_memset"
??osal_memset?relay SYMBOL "?relay", osal_memset
osal_msg_deallocate SYMBOL "osal_msg_deallocate"
??osal_msg_deallocate?relay SYMBOL "?relay", osal_msg_deallocate
osal_msg_receive    SYMBOL "osal_msg_receive"
??osal_msg_receive?relay SYMBOL "?relay", osal_msg_receive
osal_msg_send       SYMBOL "osal_msg_send"
??osal_msg_send?relay SYMBOL "?relay", osal_msg_send
osal_rand           SYMBOL "osal_rand"
??osal_rand?relay   SYMBOL "?relay", osal_rand
osal_set_event      SYMBOL "osal_set_event"
??osal_set_event?relay SYMBOL "?relay", osal_set_event
osal_start_timerEx  SYMBOL "osal_start_timerEx"
??osal_start_timerEx?relay SYMBOL "?relay", osal_start_timerEx
osal_stop_timerEx   SYMBOL "osal_stop_timerEx"
??osal_stop_timerEx?relay SYMBOL "?relay", osal_stop_timerEx
sAddrExtCmp         SYMBOL "sAddrExtCmp"
??sAddrExtCmp?relay SYMBOL "?relay", sAddrExtCmp
sAddrExtCpy         SYMBOL "sAddrExtCpy"
??sAddrExtCpy?relay SYMBOL "?relay", sAddrExtCpy
zclLL_RegisterInterPANCmdCallbacks SYMBOL "zclLL_RegisterInterPANCmdCallbacks"
??zclLL_RegisterInterPANCmdCallbacks?relay SYMBOL "?relay", zclLL_RegisterInterPANCmdCallbacks
zclLL_Send_DeviceInfoReq SYMBOL "zclLL_Send_DeviceInfoReq"
??zclLL_Send_DeviceInfoReq?relay SYMBOL "?relay", zclLL_Send_DeviceInfoReq
zclLL_Send_EndpointInfo SYMBOL "zclLL_Send_EndpointInfo"
??zclLL_Send_EndpointInfo?relay SYMBOL "?relay", zclLL_Send_EndpointInfo
zclLL_Send_IndentifyReq SYMBOL "zclLL_Send_IndentifyReq"
??zclLL_Send_IndentifyReq?relay SYMBOL "?relay", zclLL_Send_IndentifyReq
zclLL_Send_NwkJoinReq SYMBOL "zclLL_Send_NwkJoinReq"
??zclLL_Send_NwkJoinReq?relay SYMBOL "?relay", zclLL_Send_NwkJoinReq
zclLL_Send_NwkJoinRsp SYMBOL "zclLL_Send_NwkJoinRsp"
??zclLL_Send_NwkJoinRsp?relay SYMBOL "?relay", zclLL_Send_NwkJoinRsp
zclLL_Send_NwkStartReq SYMBOL "zclLL_Send_NwkStartReq"
??zclLL_Send_NwkStartReq?relay SYMBOL "?relay", zclLL_Send_NwkStartReq
zclLL_Send_NwkUpdateReq SYMBOL "zclLL_Send_NwkUpdateReq"
??zclLL_Send_NwkUpdateReq?relay SYMBOL "?relay", zclLL_Send_NwkUpdateReq
zclLL_Send_ResetToFNReq SYMBOL "zclLL_Send_ResetToFNReq"
??zclLL_Send_ResetToFNReq?relay SYMBOL "?relay", zclLL_Send_ResetToFNReq
zclLL_Send_ScanReq  SYMBOL "zclLL_Send_ScanReq"
??zclLL_Send_ScanReq?relay SYMBOL "?relay", zclLL_Send_ScanReq
zcl_registerForMsg  SYMBOL "zcl_registerForMsg"
??zcl_registerForMsg?relay SYMBOL "?relay", zcl_registerForMsg
zll_ClassicalCommissioningInit SYMBOL "zll_ClassicalCommissioningInit"
??zll_ClassicalCommissioningInit?relay SYMBOL "?relay", zll_ClassicalCommissioningInit
zll_ClassicalCommissioningJoinDiscoveredNwk SYMBOL "zll_ClassicalCommissioningJoinDiscoveredNwk"
??zll_ClassicalCommissioningJoinDiscoveredNwk?r SYMBOL "?relay", zll_ClassicalCommissioningJoinDiscoveredNwk
zll_DecryptNwkKey   SYMBOL "zll_DecryptNwkKey"
??zll_DecryptNwkKey?relay SYMBOL "?relay", zll_DecryptNwkKey
zll_EncryptNwkKey   SYMBOL "zll_EncryptNwkKey"
??zll_EncryptNwkKey?relay SYMBOL "?relay", zll_EncryptNwkKey
zll_GenerateRandNum SYMBOL "zll_GenerateRandNum"
??zll_GenerateRandNum?relay SYMBOL "?relay", zll_GenerateRandNum
zll_GetMsgRssi      SYMBOL "zll_GetMsgRssi"
??zll_GetMsgRssi?relay SYMBOL "?relay", zll_GetMsgRssi
zll_GetNumGrpIDs    SYMBOL "zll_GetNumGrpIDs"
??zll_GetNumGrpIDs?relay SYMBOL "?relay", zll_GetNumGrpIDs
zll_GetNwkKeyBitmask SYMBOL "zll_GetNwkKeyBitmask"
??zll_GetNwkKeyBitmask?relay SYMBOL "?relay", zll_GetNwkKeyBitmask
zll_GetRandPrimaryChannel SYMBOL "zll_GetRandPrimaryChannel"
??zll_GetRandPrimaryChannel?relay SYMBOL "?relay", zll_GetRandPrimaryChannel
zll_GetSubDeviceInfo SYMBOL "zll_GetSubDeviceInfo"
??zll_GetSubDeviceInfo?relay SYMBOL "?relay", zll_GetSubDeviceInfo
zll_InitVariables   SYMBOL "zll_InitVariables"
??zll_InitVariables?relay SYMBOL "?relay", zll_InitVariables
zll_IsFactoryNew    SYMBOL "zll_IsFactoryNew"
??zll_IsFactoryNew?relay SYMBOL "?relay", zll_IsFactoryNew
zll_IsValidSplitFreeRanges SYMBOL "zll_IsValidSplitFreeRanges"
??zll_IsValidSplitFreeRanges?relay SYMBOL "?relay", zll_IsValidSplitFreeRanges
zll_IsValidTransID  SYMBOL "zll_IsValidTransID"
??zll_IsValidTransID?relay SYMBOL "?relay", zll_IsValidTransID
zll_NewNwkUpdateId  SYMBOL "zll_NewNwkUpdateId"
??zll_NewNwkUpdateId?relay SYMBOL "?relay", zll_NewNwkUpdateId
zll_PermitJoin      SYMBOL "zll_PermitJoin"
??zll_PermitJoin?relay SYMBOL "?relay", zll_PermitJoin
zll_PopGrpIDRange   SYMBOL "zll_PopGrpIDRange"
??zll_PopGrpIDRange?relay SYMBOL "?relay", zll_PopGrpIDRange
zll_PopNwkAddress   SYMBOL "zll_PopNwkAddress"
??zll_PopNwkAddress?relay SYMBOL "?relay", zll_PopNwkAddress
zll_ProcessNwkUpdate SYMBOL "zll_ProcessNwkUpdate"
??zll_ProcessNwkUpdate?relay SYMBOL "?relay", zll_ProcessNwkUpdate
zll_RegisterApp     SYMBOL "zll_RegisterApp"
??zll_RegisterApp?relay SYMBOL "?relay", zll_RegisterApp
zll_ResetToFactoryNew SYMBOL "zll_ResetToFactoryNew"
??zll_ResetToFactoryNew?relay SYMBOL "?relay", zll_ResetToFactoryNew
zll_RouterProcessZDOMsg SYMBOL "zll_RouterProcessZDOMsg"
??zll_RouterProcessZDOMsg?relay SYMBOL "?relay", zll_RouterProcessZDOMsg
zll_SendDeviceInfoRsp SYMBOL "zll_SendDeviceInfoRsp"
??zll_SendDeviceInfoRsp?relay SYMBOL "?relay", zll_SendDeviceInfoRsp
zll_SendLeaveReq    SYMBOL "zll_SendLeaveReq"
??zll_SendLeaveReq?relay SYMBOL "?relay", zll_SendLeaveReq
zll_SendScanRsp     SYMBOL "zll_SendScanRsp"
??zll_SendScanRsp?relay SYMBOL "?relay", zll_SendScanRsp
zll_SetChannel      SYMBOL "zll_SetChannel"
??zll_SetChannel?relay SYMBOL "?relay", zll_SetChannel
zll_SetMacNwkParams SYMBOL "zll_SetMacNwkParams"
??zll_SetMacNwkParams?relay SYMBOL "?relay", zll_SetMacNwkParams
zll_SetNIB          SYMBOL "zll_SetNIB"
??zll_SetNIB?relay  SYMBOL "?relay", zll_SetNIB
zll_SetZllTaskId    SYMBOL "zll_SetZllTaskId"
??zll_SetZllTaskId?relay SYMBOL "?relay", zll_SetZllTaskId
zll_SplitFreeRanges SYMBOL "zll_SplitFreeRanges"
??zll_SplitFreeRanges?relay SYMBOL "?relay", zll_SplitFreeRanges
zll_UpdateFreeRanges SYMBOL "zll_UpdateFreeRanges"
??zll_UpdateFreeRanges?relay SYMBOL "?relay", zll_UpdateFreeRanges
zll_UpdateNV        SYMBOL "zll_UpdateNV"
??zll_UpdateNV?relay SYMBOL "?relay", zll_UpdateNV
zll_UpdateNwkKey    SYMBOL "zll_UpdateNwkKey"
??zll_UpdateNwkKey?relay SYMBOL "?relay", zll_UpdateNwkKey
initiatorSelectNwkParams SYMBOL "initiatorSelectNwkParams"
??initiatorSelectNwkParams?relay SYMBOL "?relay", initiatorSelectNwkParams
zllInitiator_AbortTL SYMBOL "zllInitiator_AbortTL"
??zllInitiator_AbortTL?relay SYMBOL "?relay", zllInitiator_AbortTL
zllInitiator_BridgeStartNetwork SYMBOL "zllInitiator_BridgeStartNetwork"
??zllInitiator_BridgeStartNetwork?relay SYMBOL "?relay", zllInitiator_BridgeStartNetwork
zllInitiator_ChannelChange SYMBOL "zllInitiator_ChannelChange"
??zllInitiator_ChannelChange?relay SYMBOL "?relay", zllInitiator_ChannelChange
zllInitiator_ClassicalCommissioningStart SYMBOL "zllInitiator_ClassicalCommissioningStart"
??zllInitiator_ClassicalCommissioningStart?rela SYMBOL "?relay", zllInitiator_ClassicalCommissioningStart
zllInitiator_Init   SYMBOL "zllInitiator_Init"
??zllInitiator_Init?relay SYMBOL "?relay", zllInitiator_Init
zllInitiator_InitDevice SYMBOL "zllInitiator_InitDevice"
??zllInitiator_InitDevice?relay SYMBOL "?relay", zllInitiator_InitDevice
zllInitiator_OrphanedRejoin SYMBOL "zllInitiator_OrphanedRejoin"
??zllInitiator_OrphanedRejoin?relay SYMBOL "?relay", zllInitiator_OrphanedRejoin
zllInitiator_PermitJoin SYMBOL "zllInitiator_PermitJoin"
??zllInitiator_PermitJoin?relay SYMBOL "?relay", zllInitiator_PermitJoin
zllInitiator_RegisterApp SYMBOL "zllInitiator_RegisterApp"
??zllInitiator_RegisterApp?relay SYMBOL "?relay", zllInitiator_RegisterApp
zllInitiator_RegisterForMsg SYMBOL "zllInitiator_RegisterForMsg"
??zllInitiator_RegisterForMsg?relay SYMBOL "?relay", zllInitiator_RegisterForMsg
zllInitiator_RegisterIdentifyCB SYMBOL "zllInitiator_RegisterIdentifyCB"
??zllInitiator_RegisterIdentifyCB?relay SYMBOL "?relay", zllInitiator_RegisterIdentifyCB
zllInitiator_RegisterNotifyTLCB SYMBOL "zllInitiator_RegisterNotifyTLCB"
??zllInitiator_RegisterNotifyTLCB?relay SYMBOL "?relay", zllInitiator_RegisterNotifyTLCB
zllInitiator_RegisterResetAppCB SYMBOL "zllInitiator_RegisterResetAppCB"
??zllInitiator_RegisterResetAppCB?relay SYMBOL "?relay", zllInitiator_RegisterResetAppCB
zllInitiator_RegisterSelectDiscDevCB SYMBOL "zllInitiator_RegisterSelectDiscDevCB"
??zllInitiator_RegisterSelectDiscDevCB?relay SYMBOL "?relay", zllInitiator_RegisterSelectDiscDevCB
zllInitiator_ResetToFNSelectedTarget SYMBOL "zllInitiator_ResetToFNSelectedTarget"
??zllInitiator_ResetToFNSelectedTarget?relay SYMBOL "?relay", zllInitiator_ResetToFNSelectedTarget
zllInitiator_ResetToFactoryNew SYMBOL "zllInitiator_ResetToFactoryNew"
??zllInitiator_ResetToFactoryNew?relay SYMBOL "?relay", zllInitiator_ResetToFactoryNew
zllInitiator_SendEPInfo SYMBOL "zllInitiator_SendEPInfo"
??zllInitiator_SendEPInfo?relay SYMBOL "?relay", zllInitiator_SendEPInfo
zllInitiator_StartDevDisc SYMBOL "zllInitiator_StartDevDisc"
??zllInitiator_StartDevDisc?relay SYMBOL "?relay", zllInitiator_StartDevDisc
zllInitiator_event_loop SYMBOL "zllInitiator_event_loop"
??zllInitiator_event_loop?relay SYMBOL "?relay", zllInitiator_event_loop

        EXTERN ??MT_ZllNotifyTL?relay
        FUNCTION ??MT_ZllNotifyTL?relay,00H
        EXTERN ??NLME_GetExtAddr?relay
        FUNCTION ??NLME_GetExtAddr?relay,00H
        EXTERN ??NLME_GetShortAddr?relay
        FUNCTION ??NLME_GetShortAddr?relay,00H
        EXTERN ??NLME_SetPollRate?relay
        FUNCTION ??NLME_SetPollRate?relay,00H
        EXTERN ??NLME_SetQueuedPollRate?relay
        FUNCTION ??NLME_SetQueuedPollRate?relay,00H
        EXTERN ??NLME_SetResponseRate?relay
        FUNCTION ??NLME_SetResponseRate?relay,00H
        EXTERN ??NLME_SetUpdateID?relay
        FUNCTION ??NLME_SetUpdateID?relay,00H
        EXTERN ??ZDApp_LeaveCtrlReset?relay
        FUNCTION ??ZDApp_LeaveCtrlReset?relay,00H
        EXTERN ??ZDApp_StopJoiningCycle?relay
        FUNCTION ??ZDApp_StopJoiningCycle?relay,00H
        EXTERN ??ZDOInitDevice?relay
        FUNCTION ??ZDOInitDevice?relay,00H
        EXTERN ??ZDO_RegisterForZDOMsg?relay
        FUNCTION ??ZDO_RegisterForZDOMsg?relay,00H
        EXTERN ??ZDO_RegisterForZdoCB?relay
        FUNCTION ??ZDO_RegisterForZdoCB?relay,00H
        EXTERN ??ZDP_DeviceAnnce?relay
        FUNCTION ??ZDP_DeviceAnnce?relay,00H
        EXTERN ??ZDP_MgmtNwkUpdateReq?relay
        FUNCTION ??ZDP_MgmtNwkUpdateReq?relay,00H
        EXTERN ??ZDSecMgrUpdateTCAddress?relay
        FUNCTION ??ZDSecMgrUpdateTCAddress?relay,00H
        EXTERN ??ZMacGetReq?relay
        FUNCTION ??ZMacGetReq?relay,00H
        EXTERN ??ZMacSetReq?relay
        FUNCTION ??ZMacSetReq?relay,00H
        EXTERN ??nwk_ExtPANIDValid?relay
        FUNCTION ??nwk_ExtPANIDValid?relay,00H
        EXTERN ??nwk_setStateIdle?relay
        FUNCTION ??nwk_setStateIdle?relay,00H
        EXTERN ??osal_clear_event?relay
        FUNCTION ??osal_clear_event?relay,00H
        EXTERN ??osal_get_timeoutEx?relay
        FUNCTION ??osal_get_timeoutEx?relay,00H
        EXTERN ??osal_mem_alloc?relay
        FUNCTION ??osal_mem_alloc?relay,00H
        EXTERN ??osal_mem_free?relay
        FUNCTION ??osal_mem_free?relay,00H
        EXTERN ??osal_memcpy?relay
        FUNCTION ??osal_memcpy?relay,00H
        EXTERN ??osal_memset?relay
        FUNCTION ??osal_memset?relay,00H
        EXTERN ??osal_msg_deallocate?relay
        FUNCTION ??osal_msg_deallocate?relay,00H
        EXTERN ??osal_msg_receive?relay
        FUNCTION ??osal_msg_receive?relay,00H
        EXTERN ??osal_msg_send?relay
        FUNCTION ??osal_msg_send?relay,00H
        EXTERN ??osal_rand?relay
        FUNCTION ??osal_rand?relay,00H
        EXTERN ??osal_set_event?relay
        FUNCTION ??osal_set_event?relay,00H
        EXTERN ??osal_start_timerEx?relay
        FUNCTION ??osal_start_timerEx?relay,00H
        EXTERN ??osal_stop_timerEx?relay
        FUNCTION ??osal_stop_timerEx?relay,00H
        EXTERN ??sAddrExtCmp?relay
        FUNCTION ??sAddrExtCmp?relay,00H
        EXTERN ??sAddrExtCpy?relay
        FUNCTION ??sAddrExtCpy?relay,00H
        EXTERN ??zclLL_RegisterInterPANCmdCallbacks?relay
        FUNCTION ??zclLL_RegisterInterPANCmdCallbacks?relay,00H
        EXTERN ??zclLL_Send_DeviceInfoReq?relay
        FUNCTION ??zclLL_Send_DeviceInfoReq?relay,00H
        EXTERN ??zclLL_Send_EndpointInfo?relay
        FUNCTION ??zclLL_Send_EndpointInfo?relay,00H
        EXTERN ??zclLL_Send_IndentifyReq?relay
        FUNCTION ??zclLL_Send_IndentifyReq?relay,00H
        EXTERN ??zclLL_Send_NwkJoinReq?relay
        FUNCTION ??zclLL_Send_NwkJoinReq?relay,00H
        EXTERN ??zclLL_Send_NwkJoinRsp?relay
        FUNCTION ??zclLL_Send_NwkJoinRsp?relay,00H
        EXTERN ??zclLL_Send_NwkStartReq?relay
        FUNCTION ??zclLL_Send_NwkStartReq?relay,00H
        EXTERN ??zclLL_Send_NwkUpdateReq?relay
        FUNCTION ??zclLL_Send_NwkUpdateReq?relay,00H
        EXTERN ??zclLL_Send_ResetToFNReq?relay
        FUNCTION ??zclLL_Send_ResetToFNReq?relay,00H
        EXTERN ??zclLL_Send_ScanReq?relay
        FUNCTION ??zclLL_Send_ScanReq?relay,00H
        EXTERN ??zcl_registerForMsg?relay
        FUNCTION ??zcl_registerForMsg?relay,00H
        EXTERN ??zll_ClassicalCommissioningInit?relay
        FUNCTION ??zll_ClassicalCommissioningInit?relay,00H
        EXTERN ??zll_ClassicalCommissioningJoinDiscoveredNwk?r
        FUNCTION ??zll_ClassicalCommissioningJoinDiscoveredNwk?r,00H
        EXTERN ??zll_DecryptNwkKey?relay
        FUNCTION ??zll_DecryptNwkKey?relay,00H
        EXTERN ??zll_EncryptNwkKey?relay
        FUNCTION ??zll_EncryptNwkKey?relay,00H
        EXTERN ??zll_GenerateRandNum?relay
        FUNCTION ??zll_GenerateRandNum?relay,00H
        EXTERN ??zll_GetMsgRssi?relay
        FUNCTION ??zll_GetMsgRssi?relay,00H
        EXTERN ??zll_GetNumGrpIDs?relay
        FUNCTION ??zll_GetNumGrpIDs?relay,00H
        EXTERN ??zll_GetNwkKeyBitmask?relay
        FUNCTION ??zll_GetNwkKeyBitmask?relay,00H
        EXTERN ??zll_GetRandPrimaryChannel?relay
        FUNCTION ??zll_GetRandPrimaryChannel?relay,00H
        EXTERN ??zll_GetSubDeviceInfo?relay
        FUNCTION ??zll_GetSubDeviceInfo?relay,00H
        EXTERN ??zll_InitVariables?relay
        FUNCTION ??zll_InitVariables?relay,00H
        EXTERN ??zll_IsFactoryNew?relay
        FUNCTION ??zll_IsFactoryNew?relay,00H
        EXTERN ??zll_IsValidSplitFreeRanges?relay
        FUNCTION ??zll_IsValidSplitFreeRanges?relay,00H
        EXTERN ??zll_IsValidTransID?relay
        FUNCTION ??zll_IsValidTransID?relay,00H
        EXTERN ??zll_NewNwkUpdateId?relay
        FUNCTION ??zll_NewNwkUpdateId?relay,00H
        EXTERN ??zll_PermitJoin?relay
        FUNCTION ??zll_PermitJoin?relay,00H
        EXTERN ??zll_PopGrpIDRange?relay
        FUNCTION ??zll_PopGrpIDRange?relay,00H
        EXTERN ??zll_PopNwkAddress?relay
        FUNCTION ??zll_PopNwkAddress?relay,00H
        EXTERN ??zll_ProcessNwkUpdate?relay
        FUNCTION ??zll_ProcessNwkUpdate?relay,00H
        EXTERN ??zll_RegisterApp?relay
        FUNCTION ??zll_RegisterApp?relay,00H
        EXTERN ??zll_ResetToFactoryNew?relay
        FUNCTION ??zll_ResetToFactoryNew?relay,00H
        EXTERN ??zll_RouterProcessZDOMsg?relay
        FUNCTION ??zll_RouterProcessZDOMsg?relay,00H
        EXTERN ??zll_SendDeviceInfoRsp?relay
        FUNCTION ??zll_SendDeviceInfoRsp?relay,00H
        EXTERN ??zll_SendLeaveReq?relay
        FUNCTION ??zll_SendLeaveReq?relay,00H
        EXTERN ??zll_SendScanRsp?relay
        FUNCTION ??zll_SendScanRsp?relay,00H
        EXTERN ??zll_SetChannel?relay
        FUNCTION ??zll_SetChannel?relay,00H
        EXTERN ??zll_SetMacNwkParams?relay
        FUNCTION ??zll_SetMacNwkParams?relay,00H
        EXTERN ??zll_SetNIB?relay
        FUNCTION ??zll_SetNIB?relay,00H
        EXTERN ??zll_SetZllTaskId?relay
        FUNCTION ??zll_SetZllTaskId?relay,00H
        EXTERN ??zll_SplitFreeRanges?relay
        FUNCTION ??zll_SplitFreeRanges?relay,00H
        EXTERN ??zll_UpdateFreeRanges?relay
        FUNCTION ??zll_UpdateFreeRanges?relay,00H
        EXTERN ??zll_UpdateNV?relay
        FUNCTION ??zll_UpdateNV?relay,00H
        EXTERN ??zll_UpdateNwkKey?relay
        FUNCTION ??zll_UpdateNwkKey?relay,00H
        EXTERN MT_ZllNotifyTL
        FUNCTION MT_ZllNotifyTL,0202H
        ARGFRAME ISTACK, 0, STACK
        ARGFRAME PSTACK, 0, STACK
        ARGFRAME XSTACK, 30, STACK
        ARGFRAME IOVERLAY, 0, STATIC
        ARGFRAME DOVERLAY, 0, STATIC
        EXTERN NLME_GetExtAddr
        FUNCTION NLME_GetExtAddr,0202H
        ARGFRAME ISTACK, 0, STACK
        ARGFRAME PSTACK, 0, STACK
        ARGFRAME XSTACK, 34, STACK
        ARGFRAME IOVERLAY, 0, STATIC
        ARGFRAME DOVERLAY, 0, STATIC
        EXTERN NLME_GetShortAddr
        FUNCTION NLME_GetShortAddr,0202H
        ARGFRAME ISTACK, 0, STACK
        ARGFRAME PSTACK, 0, STACK
        ARGFRAME XSTACK, 34, STACK
        ARGFRAME IOVERLAY, 0, STATIC
        ARGFRAME DOVERLAY, 0, STATIC
        EXTERN NLME_SetPollRate
        FUNCTION NLME_SetPollRate,0202H
        ARGFRAME ISTACK, 2, STACK
        ARGFRAME PSTACK, 0, STACK
        ARGFRAME XSTACK, 17, STACK
        ARGFRAME IOVERLAY, 0, STATIC
        ARGFRAME DOVERLAY, 0, STATIC
        EXTERN NLME_SetQueuedPollRate
        FUNCTION NLME_SetQueuedPollRate,0202H
        ARGFRAME ISTACK, 2, STACK
        ARGFRAME PSTACK, 0, STACK
        ARGFRAME XSTACK, 17, STACK
        ARGFRAME IOVERLAY, 0, STATIC
        ARGFRAME DOVERLAY, 0, STATIC
        EXTERN NLME_SetResponseRate
        FUNCTION NLME_SetResponseRate,0202H
        ARGFRAME ISTACK, 2, STACK
        ARGFRAME PSTACK, 0, STACK
        ARGFRAME XSTACK, 17, STACK
        ARGFRAME IOVERLAY, 0, STATIC
        ARGFRAME DOVERLAY, 0, STATIC
        EXTERN NLME_SetUpdateID
        FUNCTION NLME_SetUpdateID,0202H
        ARGFRAME ISTACK, 0, STACK
        ARGFRAME PSTACK, 0, STACK
        ARGFRAME XSTACK, 21, STACK
        ARGFRAME IOVERLAY, 0, STATIC
        ARGFRAME DOVERLAY, 0, STATIC
        EXTERN ZDAppTaskID
        EXTERN ZDApp_LeaveCtrlReset
        FUNCTION ZDApp_LeaveCtrlReset,0202H
        ARGFRAME ISTACK, 2, STACK
        ARGFRAME PSTACK, 0, STACK
        ARGFRAME XSTACK, 25, STACK
        ARGFRAME IOVERLAY, 0, STATIC
        ARGFRAME DOVERLAY, 0, STATIC
        EXTERN ZDApp_StopJoiningCycle
        FUNCTION ZDApp_StopJoiningCycle,0202H
        ARGFRAME ISTACK, 0, STACK
        ARGFRAME PSTACK, 0, STACK
        ARGFRAME XSTACK, 30, STACK
        ARGFRAME IOVERLAY, 0, STATIC
        ARGFRAME DOVERLAY, 0, STATIC
        EXTERN ZDOInitDevice
        FUNCTION ZDOInitDevice,0202H
        ARGFRAME ISTACK, 2, STACK
        ARGFRAME PSTACK, 0, STACK
        ARGFRAME XSTACK, 25, STACK
        ARGFRAME IOVERLAY, 0, STATIC
        ARGFRAME DOVERLAY, 0, STATIC
        EXTERN ZDO_Config_Node_Descriptor
        EXTERN ZDO_RegisterForZDOMsg
        FUNCTION ZDO_RegisterForZDOMsg,0202H
        ARGFRAME ISTACK, 0, STACK
        ARGFRAME PSTACK, 0, STACK
        ARGFRAME XSTACK, 9, STACK
        ARGFRAME IOVERLAY, 0, STATIC
        ARGFRAME DOVERLAY, 0, STATIC
        EXTERN ZDO_RegisterForZdoCB
        FUNCTION ZDO_RegisterForZdoCB,0202H
        ARGFRAME ISTACK, 0, STACK
        ARGFRAME PSTACK, 0, STACK
        ARGFRAME XSTACK, 9, STACK
        ARGFRAME IOVERLAY, 0, STATIC
        ARGFRAME DOVERLAY, 0, STATIC
        EXTERN ZDO_UseExtendedPANID
        EXTERN ZDP_DeviceAnnce
        FUNCTION ZDP_DeviceAnnce,0202H
        ARGFRAME ISTACK, 0, STACK
        ARGFRAME PSTACK, 0, STACK
        ARGFRAME XSTACK, 31, STACK
        ARGFRAME IOVERLAY, 0, STATIC
        ARGFRAME DOVERLAY, 0, STATIC
        EXTERN ZDP_MgmtNwkUpdateReq
        FUNCTION ZDP_MgmtNwkUpdateReq,0202H
        ARGFRAME ISTACK, 0, STACK
        ARGFRAME PSTACK, 0, STACK
        ARGFRAME XSTACK, 27, STACK
        ARGFRAME IOVERLAY, 0, STATIC
        ARGFRAME DOVERLAY, 0, STATIC
        EXTERN ZDSecMgrUpdateTCAddress
        FUNCTION ZDSecMgrUpdateTCAddress,0202H
        ARGFRAME ISTACK, 0, STACK
        ARGFRAME PSTACK, 0, STACK
        ARGFRAME XSTACK, 30, STACK
        ARGFRAME IOVERLAY, 0, STATIC
        ARGFRAME DOVERLAY, 0, STATIC
        EXTERN ZMacGetReq
        FUNCTION ZMacGetReq,0202H
        ARGFRAME ISTACK, 0, STACK
        ARGFRAME PSTACK, 0, STACK
        ARGFRAME XSTACK, 17, STACK
        ARGFRAME IOVERLAY, 0, STATIC
        ARGFRAME DOVERLAY, 0, STATIC
        EXTERN ZMacSetReq
        FUNCTION ZMacSetReq,0202H
        ARGFRAME ISTACK, 2, STACK
        ARGFRAME PSTACK, 0, STACK
        ARGFRAME XSTACK, 17, STACK
        ARGFRAME IOVERLAY, 0, STATIC
        ARGFRAME DOVERLAY, 0, STATIC
        EXTERN _NIB
        EXTERN _tmpRejoinState
        EXTERN devStartMode
        EXTERN devState
        EXTERN nwk_ExtPANIDValid
        FUNCTION nwk_ExtPANIDValid,0202H
        ARGFRAME ISTACK, 0, STACK
        ARGFRAME PSTACK, 0, STACK
        ARGFRAME XSTACK, 30, STACK
        ARGFRAME IOVERLAY, 0, STATIC
        ARGFRAME DOVERLAY, 0, STATIC
        EXTERN nwk_setStateIdle
        FUNCTION nwk_setStateIdle,0202H
        ARGFRAME ISTACK, 2, STACK
        ARGFRAME PSTACK, 0, STACK
        ARGFRAME XSTACK, 17, STACK
        ARGFRAME IOVERLAY, 0, STATIC
        ARGFRAME DOVERLAY, 0, STATIC
        EXTERN osal_clear_event
        FUNCTION osal_clear_event,0202H
        ARGFRAME ISTACK, 0, STACK
        ARGFRAME PSTACK, 0, STACK
        ARGFRAME XSTACK, 17, STACK
        ARGFRAME IOVERLAY, 0, STATIC
        ARGFRAME DOVERLAY, 0, STATIC
        EXTERN osal_get_timeoutEx
        FUNCTION osal_get_timeoutEx,0202H
        ARGFRAME ISTACK, 0, STACK
        ARGFRAME PSTACK, 0, STACK
        ARGFRAME XSTACK, 31, STACK
        ARGFRAME IOVERLAY, 0, STATIC
        ARGFRAME DOVERLAY, 0, STATIC
        EXTERN osal_mem_alloc
        FUNCTION osal_mem_alloc,0202H
        ARGFRAME ISTACK, 0, STACK
        ARGFRAME PSTACK, 0, STACK
        ARGFRAME XSTACK, 30, STACK
        ARGFRAME IOVERLAY, 0, STATIC
        ARGFRAME DOVERLAY, 0, STATIC
        EXTERN osal_mem_free
        FUNCTION osal_mem_free,0202H
        ARGFRAME ISTACK, 0, STACK
        ARGFRAME PSTACK, 0, STACK
        ARGFRAME XSTACK, 30, STACK
        ARGFRAME IOVERLAY, 0, STATIC
        ARGFRAME DOVERLAY, 0, STATIC
        EXTERN osal_memcpy
        FUNCTION osal_memcpy,0202H
        ARGFRAME ISTACK, 0, STACK
        ARGFRAME PSTACK, 0, STACK
        ARGFRAME XSTACK, 34, STACK
        ARGFRAME IOVERLAY, 0, STATIC
        ARGFRAME DOVERLAY, 0, STATIC
        EXTERN osal_memset
        FUNCTION osal_memset,0202H
        ARGFRAME ISTACK, 2, STACK
        ARGFRAME PSTACK, 0, STACK
        ARGFRAME XSTACK, 20, STACK
        ARGFRAME IOVERLAY, 0, STATIC
        ARGFRAME DOVERLAY, 0, STATIC
        EXTERN osal_msg_deallocate
        FUNCTION osal_msg_deallocate,0202H
        ARGFRAME ISTACK, 0, STACK
        ARGFRAME PSTACK, 0, STACK
        ARGFRAME XSTACK, 30, STACK
        ARGFRAME IOVERLAY, 0, STATIC
        ARGFRAME DOVERLAY, 0, STATIC
        EXTERN osal_msg_receive
        FUNCTION osal_msg_receive,0202H
        ARGFRAME ISTACK, 0, STACK
        ARGFRAME PSTACK, 0, STACK
        ARGFRAME XSTACK, 30, STACK
        ARGFRAME IOVERLAY, 0, STATIC
        ARGFRAME DOVERLAY, 0, STATIC
        EXTERN osal_msg_send
        FUNCTION osal_msg_send,0202H
        ARGFRAME ISTACK, 0, STACK
        ARGFRAME PSTACK, 0, STACK
        ARGFRAME XSTACK, 30, STACK
        ARGFRAME IOVERLAY, 0, STATIC
        ARGFRAME DOVERLAY, 0, STATIC
        EXTERN osal_rand
        FUNCTION osal_rand,0202H
        ARGFRAME ISTACK, 0, STACK
        ARGFRAME PSTACK, 0, STACK
        ARGFRAME XSTACK, 20, STACK
        ARGFRAME IOVERLAY, 0, STATIC
        ARGFRAME DOVERLAY, 0, STATIC
        EXTERN osal_set_event
        FUNCTION osal_set_event,0202H
        ARGFRAME ISTACK, 2, STACK
        ARGFRAME PSTACK, 0, STACK
        ARGFRAME XSTACK, 30, STACK
        ARGFRAME IOVERLAY, 0, STATIC
        ARGFRAME DOVERLAY, 0, STATIC
        EXTERN osal_start_timerEx
        FUNCTION osal_start_timerEx,0202H
        ARGFRAME ISTACK, 0, STACK
        ARGFRAME PSTACK, 0, STACK
        ARGFRAME XSTACK, 36, STACK
        ARGFRAME IOVERLAY, 0, STATIC
        ARGFRAME DOVERLAY, 0, STATIC
        EXTERN osal_stop_timerEx
        FUNCTION osal_stop_timerEx,0202H
        ARGFRAME ISTACK, 0, STACK
        ARGFRAME PSTACK, 0, STACK
        ARGFRAME XSTACK, 31, STACK
        ARGFRAME IOVERLAY, 0, STATIC
        ARGFRAME DOVERLAY, 0, STATIC
        EXTERN sAddrExtCmp
        FUNCTION sAddrExtCmp,0202H
        ARGFRAME ISTACK, 0, STACK
        ARGFRAME PSTACK, 0, STACK
        ARGFRAME XSTACK, 30, STACK
        ARGFRAME IOVERLAY, 0, STATIC
        ARGFRAME DOVERLAY, 0, STATIC
        EXTERN sAddrExtCpy
        FUNCTION sAddrExtCpy,0202H
        ARGFRAME ISTACK, 0, STACK
        ARGFRAME PSTACK, 0, STACK
        ARGFRAME XSTACK, 34, STACK
        ARGFRAME IOVERLAY, 0, STATIC
        ARGFRAME DOVERLAY, 0, STATIC
        EXTERN zclLL_RegisterInterPANCmdCallbacks
        FUNCTION zclLL_RegisterInterPANCmdCallbacks,0202H
        ARGFRAME ISTACK, 0, STACK
        ARGFRAME PSTACK, 0, STACK
        ARGFRAME XSTACK, 9, STACK
        ARGFRAME IOVERLAY, 0, STATIC
        ARGFRAME DOVERLAY, 0, STATIC
        EXTERN zclLL_Send_DeviceInfoReq
        FUNCTION zclLL_Send_DeviceInfoReq,0202H
        ARGFRAME ISTACK, 0, STACK
        ARGFRAME PSTACK, 0, STACK
        ARGFRAME XSTACK, 18, STACK
        ARGFRAME IOVERLAY, 0, STATIC
        ARGFRAME DOVERLAY, 0, STATIC
        EXTERN zclLL_Send_EndpointInfo
        FUNCTION zclLL_Send_EndpointInfo,0202H
        ARGFRAME ISTACK, 0, STACK
        ARGFRAME PSTACK, 0, STACK
        ARGFRAME XSTACK, 36, STACK
        ARGFRAME IOVERLAY, 0, STATIC
        ARGFRAME DOVERLAY, 0, STATIC
        EXTERN zclLL_Send_IndentifyReq
        FUNCTION zclLL_Send_IndentifyReq,0202H
        ARGFRAME ISTACK, 0, STACK
        ARGFRAME PSTACK, 0, STACK
        ARGFRAME XSTACK, 31, STACK
        ARGFRAME IOVERLAY, 0, STATIC
        ARGFRAME DOVERLAY, 0, STATIC
        EXTERN zclLL_Send_NwkJoinReq
        FUNCTION zclLL_Send_NwkJoinReq,0202H
        ARGFRAME ISTACK, 0, STACK
        ARGFRAME PSTACK, 0, STACK
        ARGFRAME XSTACK, 16, STACK
        ARGFRAME IOVERLAY, 0, STATIC
        ARGFRAME DOVERLAY, 0, STATIC
        EXTERN zclLL_Send_NwkJoinRsp
        FUNCTION zclLL_Send_NwkJoinRsp,0202H
        ARGFRAME ISTACK, 0, STACK
        ARGFRAME PSTACK, 0, STACK
        ARGFRAME XSTACK, 30, STACK
        ARGFRAME IOVERLAY, 0, STATIC
        ARGFRAME DOVERLAY, 0, STATIC
        EXTERN zclLL_Send_NwkStartReq
        FUNCTION zclLL_Send_NwkStartReq,0202H
        ARGFRAME ISTACK, 0, STACK
        ARGFRAME PSTACK, 0, STACK
        ARGFRAME XSTACK, 21, STACK
        ARGFRAME IOVERLAY, 0, STATIC
        ARGFRAME DOVERLAY, 0, STATIC
        EXTERN zclLL_Send_NwkUpdateReq
        FUNCTION zclLL_Send_NwkUpdateReq,0202H
        ARGFRAME ISTACK, 0, STACK
        ARGFRAME PSTACK, 0, STACK
        ARGFRAME XSTACK, 31, STACK
        ARGFRAME IOVERLAY, 0, STATIC
        ARGFRAME DOVERLAY, 0, STATIC
        EXTERN zclLL_Send_ResetToFNReq
        FUNCTION zclLL_Send_ResetToFNReq,0202H
        ARGFRAME ISTACK, 0, STACK
        ARGFRAME PSTACK, 0, STACK
        ARGFRAME XSTACK, 17, STACK
        ARGFRAME IOVERLAY, 0, STATIC
        ARGFRAME DOVERLAY, 0, STATIC
        EXTERN zclLL_Send_ScanReq
        FUNCTION zclLL_Send_ScanReq,0202H
        ARGFRAME ISTACK, 0, STACK
        ARGFRAME PSTACK, 0, STACK
        ARGFRAME XSTACK, 33, STACK
        ARGFRAME IOVERLAY, 0, STATIC
        ARGFRAME DOVERLAY, 0, STATIC
        EXTERN zcl_registerForMsg
        FUNCTION zcl_registerForMsg,0202H
        ARGFRAME ISTACK, 0, STACK
        ARGFRAME PSTACK, 0, STACK
        ARGFRAME XSTACK, 9, STACK
        ARGFRAME IOVERLAY, 0, STATIC
        ARGFRAME DOVERLAY, 0, STATIC
        EXTERN zgConfigPANID
        EXTERN zgDefaultChannelList
        EXTERN zgDeviceLogicalType
        EXTERN zgPollRate
        EXTERN zgQueuedPollRate
        EXTERN zgResponsePollRate
        EXTERN zllGrpIDsBegin
        EXTERN zllGrpIDsEnd
        EXTERN zllHAScanInitiated
        EXTERN zllJoinedHANetwork
        EXTERN zllLeaveInitiated
        EXTERN zllResponseID
        EXTERN zllTransID
        EXTERN zll_ClassicalCommissioningInit
        FUNCTION zll_ClassicalCommissioningInit,0202H
        ARGFRAME ISTACK, 2, STACK
        ARGFRAME PSTACK, 0, STACK
        ARGFRAME XSTACK, 0, STACK
        ARGFRAME IOVERLAY, 0, STATIC
        ARGFRAME DOVERLAY, 0, STATIC
        EXTERN zll_ClassicalCommissioningJoinDiscoveredNwk
        FUNCTION zll_ClassicalCommissioningJoinDiscoveredNwk,0202H
        ARGFRAME ISTACK, 0, STACK
        ARGFRAME PSTACK, 0, STACK
        ARGFRAME XSTACK, 30, STACK
        ARGFRAME IOVERLAY, 0, STATIC
        ARGFRAME DOVERLAY, 0, STATIC
        EXTERN zll_DecryptNwkKey
        FUNCTION zll_DecryptNwkKey,0202H
        ARGFRAME ISTACK, 0, STACK
        ARGFRAME PSTACK, 0, STACK
        ARGFRAME XSTACK, 38, STACK
        ARGFRAME IOVERLAY, 0, STATIC
        ARGFRAME DOVERLAY, 0, STATIC
        EXTERN zll_EncryptNwkKey
        FUNCTION zll_EncryptNwkKey,0202H
        ARGFRAME ISTACK, 0, STACK
        ARGFRAME PSTACK, 0, STACK
        ARGFRAME XSTACK, 28, STACK
        ARGFRAME IOVERLAY, 0, STATIC
        ARGFRAME DOVERLAY, 0, STATIC
        EXTERN zll_GenerateRandNum
        FUNCTION zll_GenerateRandNum,0202H
        ARGFRAME ISTACK, 0, STACK
        ARGFRAME PSTACK, 0, STACK
        ARGFRAME XSTACK, 25, STACK
        ARGFRAME IOVERLAY, 0, STATIC
        ARGFRAME DOVERLAY, 0, STATIC
        EXTERN zll_GetMsgRssi
        FUNCTION zll_GetMsgRssi,0202H
        ARGFRAME ISTACK, 0, STACK
        ARGFRAME PSTACK, 0, STACK
        ARGFRAME XSTACK, 31, STACK
        ARGFRAME IOVERLAY, 0, STATIC
        ARGFRAME DOVERLAY, 0, STATIC
        EXTERN zll_GetNumGrpIDs
        FUNCTION zll_GetNumGrpIDs,0202H
        ARGFRAME ISTACK, 2, STACK
        ARGFRAME PSTACK, 0, STACK
        ARGFRAME XSTACK, 9, STACK
        ARGFRAME IOVERLAY, 0, STATIC
        ARGFRAME DOVERLAY, 0, STATIC
        EXTERN zll_GetNwkKeyBitmask
        FUNCTION zll_GetNwkKeyBitmask,0202H
        ARGFRAME ISTACK, 0, STACK
        ARGFRAME PSTACK, 0, STACK
        ARGFRAME XSTACK, 17, STACK
        ARGFRAME IOVERLAY, 0, STATIC
        ARGFRAME DOVERLAY, 0, STATIC
        EXTERN zll_GetRandPrimaryChannel
        FUNCTION zll_GetRandPrimaryChannel,0202H
        ARGFRAME ISTACK, 0, STACK
        ARGFRAME PSTACK, 0, STACK
        ARGFRAME XSTACK, 9, STACK
        ARGFRAME IOVERLAY, 0, STATIC
        ARGFRAME DOVERLAY, 0, STATIC
        EXTERN zll_GetSubDeviceInfo
        FUNCTION zll_GetSubDeviceInfo,0202H
        ARGFRAME ISTACK, 0, STACK
        ARGFRAME PSTACK, 0, STACK
        ARGFRAME XSTACK, 34, STACK
        ARGFRAME IOVERLAY, 0, STATIC
        ARGFRAME DOVERLAY, 0, STATIC
        EXTERN zll_InitVariables
        FUNCTION zll_InitVariables,0202H
        ARGFRAME ISTACK, 0, STACK
        ARGFRAME PSTACK, 0, STACK
        ARGFRAME XSTACK, 9, STACK
        ARGFRAME IOVERLAY, 0, STATIC
        ARGFRAME DOVERLAY, 0, STATIC
        EXTERN zll_IsFactoryNew
        FUNCTION zll_IsFactoryNew,0202H
        ARGFRAME ISTACK, 2, STACK
        ARGFRAME PSTACK, 0, STACK
        ARGFRAME XSTACK, 32, STACK
        ARGFRAME IOVERLAY, 0, STATIC
        ARGFRAME DOVERLAY, 0, STATIC
        EXTERN zll_IsValidSplitFreeRanges
        FUNCTION zll_IsValidSplitFreeRanges,0202H
        ARGFRAME ISTACK, 0, STACK
        ARGFRAME PSTACK, 0, STACK
        ARGFRAME XSTACK, 30, STACK
        ARGFRAME IOVERLAY, 0, STATIC
        ARGFRAME DOVERLAY, 0, STATIC
        EXTERN zll_IsValidTransID
        FUNCTION zll_IsValidTransID,0202H
        ARGFRAME ISTACK, 2, STACK
        ARGFRAME PSTACK, 0, STACK
        ARGFRAME XSTACK, 52, STACK
        ARGFRAME IOVERLAY, 0, STATIC
        ARGFRAME DOVERLAY, 0, STATIC
        EXTERN zll_NewNwkUpdateId
        FUNCTION zll_NewNwkUpdateId,0202H
        ARGFRAME ISTACK, 0, STACK
        ARGFRAME PSTACK, 0, STACK
        ARGFRAME XSTACK, 30, STACK
        ARGFRAME IOVERLAY, 0, STATIC
        ARGFRAME DOVERLAY, 0, STATIC
        EXTERN zll_PermitJoin
        FUNCTION zll_PermitJoin,0202H
        ARGFRAME ISTACK, 2, STACK
        ARGFRAME PSTACK, 0, STACK
        ARGFRAME XSTACK, 30, STACK
        ARGFRAME IOVERLAY, 0, STATIC
        ARGFRAME DOVERLAY, 0, STATIC
        EXTERN zll_PopGrpIDRange
        FUNCTION zll_PopGrpIDRange,0202H
        ARGFRAME ISTACK, 0, STACK
        ARGFRAME PSTACK, 0, STACK
        ARGFRAME XSTACK, 20, STACK
        ARGFRAME IOVERLAY, 0, STATIC
        ARGFRAME DOVERLAY, 0, STATIC
        EXTERN zll_PopNwkAddress
        FUNCTION zll_PopNwkAddress,0202H
        ARGFRAME ISTACK, 0, STACK
        ARGFRAME PSTACK, 0, STACK
        ARGFRAME XSTACK, 20, STACK
        ARGFRAME IOVERLAY, 0, STATIC
        ARGFRAME DOVERLAY, 0, STATIC
        EXTERN zll_ProcessNwkUpdate
        FUNCTION zll_ProcessNwkUpdate,0202H
        ARGFRAME ISTACK, 0, STACK
        ARGFRAME PSTACK, 0, STACK
        ARGFRAME XSTACK, 30, STACK
        ARGFRAME IOVERLAY, 0, STATIC
        ARGFRAME DOVERLAY, 0, STATIC
        EXTERN zll_RegisterApp
        FUNCTION zll_RegisterApp,0202H
        ARGFRAME ISTACK, 2, STACK
        ARGFRAME PSTACK, 0, STACK
        ARGFRAME XSTACK, 0, STACK
        ARGFRAME IOVERLAY, 0, STATIC
        ARGFRAME DOVERLAY, 0, STATIC
        EXTERN zll_ResetToFactoryNew
        FUNCTION zll_ResetToFactoryNew,0202H
        ARGFRAME ISTACK, 2, STACK
        ARGFRAME PSTACK, 0, STACK
        ARGFRAME XSTACK, 0, STACK
        ARGFRAME IOVERLAY, 0, STATIC
        ARGFRAME DOVERLAY, 0, STATIC
        EXTERN zll_RouterProcessZDOMsg
        FUNCTION zll_RouterProcessZDOMsg,0202H
        ARGFRAME ISTACK, 0, STACK
        ARGFRAME PSTACK, 0, STACK
        ARGFRAME XSTACK, 30, STACK
        ARGFRAME IOVERLAY, 0, STATIC
        ARGFRAME DOVERLAY, 0, STATIC
        EXTERN zll_SendDeviceInfoRsp
        FUNCTION zll_SendDeviceInfoRsp,0202H
        ARGFRAME ISTACK, 0, STACK
        ARGFRAME PSTACK, 0, STACK
        ARGFRAME XSTACK, 15, STACK
        ARGFRAME IOVERLAY, 0, STATIC
        ARGFRAME DOVERLAY, 0, STATIC
        EXTERN zll_SendLeaveReq
        FUNCTION zll_SendLeaveReq,0202H
        ARGFRAME ISTACK, 0, STACK
        ARGFRAME PSTACK, 0, STACK
        ARGFRAME XSTACK, 30, STACK
        ARGFRAME IOVERLAY, 0, STATIC
        ARGFRAME DOVERLAY, 0, STATIC
        EXTERN zll_SendScanRsp
        FUNCTION zll_SendScanRsp,0202H
        ARGFRAME ISTACK, 0, STACK
        ARGFRAME PSTACK, 0, STACK
        ARGFRAME XSTACK, 35, STACK
        ARGFRAME IOVERLAY, 0, STATIC
        ARGFRAME DOVERLAY, 0, STATIC
        EXTERN zll_SetChannel
        FUNCTION zll_SetChannel,0202H
        ARGFRAME ISTACK, 2, STACK
        ARGFRAME PSTACK, 0, STACK
        ARGFRAME XSTACK, 32, STACK
        ARGFRAME IOVERLAY, 0, STATIC
        ARGFRAME DOVERLAY, 0, STATIC
        EXTERN zll_SetMacNwkParams
        FUNCTION zll_SetMacNwkParams,0202H
        ARGFRAME ISTACK, 0, STACK
        ARGFRAME PSTACK, 0, STACK
        ARGFRAME XSTACK, 9, STACK
        ARGFRAME IOVERLAY, 0, STATIC
        ARGFRAME DOVERLAY, 0, STATIC
        EXTERN zll_SetNIB
        FUNCTION zll_SetNIB,0202H
        ARGFRAME ISTACK, 0, STACK
        ARGFRAME PSTACK, 0, STACK
        ARGFRAME XSTACK, 34, STACK
        ARGFRAME IOVERLAY, 0, STATIC
        ARGFRAME DOVERLAY, 0, STATIC
        EXTERN zll_SetZllTaskId
        FUNCTION zll_SetZllTaskId,0202H
        ARGFRAME ISTACK, 0, STACK
        ARGFRAME PSTACK, 0, STACK
        ARGFRAME XSTACK, 9, STACK
        ARGFRAME IOVERLAY, 0, STATIC
        ARGFRAME DOVERLAY, 0, STATIC
        EXTERN zll_SplitFreeRanges
        FUNCTION zll_SplitFreeRanges,0202H
        ARGFRAME ISTACK, 0, STACK
        ARGFRAME PSTACK, 0, STACK
        ARGFRAME XSTACK, 24, STACK
        ARGFRAME IOVERLAY, 0, STATIC
        ARGFRAME DOVERLAY, 0, STATIC
        EXTERN zll_UpdateFreeRanges
        FUNCTION zll_UpdateFreeRanges,0202H
        ARGFRAME ISTACK, 0, STACK
        ARGFRAME PSTACK, 0, STACK
        ARGFRAME XSTACK, 30, STACK
        ARGFRAME IOVERLAY, 0, STATIC
        ARGFRAME DOVERLAY, 0, STATIC
        EXTERN zll_UpdateNV
        FUNCTION zll_UpdateNV,0202H
        ARGFRAME ISTACK, 2, STACK
        ARGFRAME PSTACK, 0, STACK
        ARGFRAME XSTACK, 30, STACK
        ARGFRAME IOVERLAY, 0, STATIC
        ARGFRAME DOVERLAY, 0, STATIC
        EXTERN zll_UpdateNwkKey
        FUNCTION zll_UpdateNwkKey,0202H
        ARGFRAME ISTACK, 0, STACK
        ARGFRAME PSTACK, 0, STACK
        ARGFRAME XSTACK, 25, STACK
        ARGFRAME IOVERLAY, 0, STATIC
        ARGFRAME DOVERLAY, 0, STATIC

// D:\Texas Instruments\Z-Stack Lighting 1.0.2\Projects\zstack\ZLL\Source\zll_initiator.c
//    1 /**************************************************************************************************
//    2   Filename:       zll_initiator.c
//    3   Revised:        $Date: 2013-11-22 16:17:23 -0800 (Fri, 22 Nov 2013) $
//    4   Revision:       $Revision: 36220 $
//    5 
//    6   Description:    Zigbee Cluster Library - Light Link Initiator.
//    7 
//    8 
//    9   Copyright 2011-2013 Texas Instruments Incorporated. All rights reserved.
//   10 
//   11   IMPORTANT: Your use of this Software is limited to those specific rights
//   12   granted under the terms of a software license agreement between the user
//   13   who downloaded the software, his/her employer (which must be your employer)
//   14   and Texas Instruments Incorporated (the "License").  You may not use this
//   15   Software unless you agree to abide by the terms of the License. The License
//   16   limits your use, and you acknowledge, that the Software may not be modified,
//   17   copied or distributed unless embedded on a Texas Instruments microcontroller
//   18   or used solely and exclusively in conjunction with a Texas Instruments radio
//   19   frequency transceiver, which is integrated into your product.  Other than for
//   20   the foregoing purpose, you may not use, reproduce, copy, prepare derivative
//   21   works of, modify, distribute, perform, display or sell this Software and/or
//   22   its documentation for any purpose.
//   23 
//   24   YOU FURTHER ACKNOWLEDGE AND AGREE THAT THE SOFTWARE AND DOCUMENTATION ARE
//   25   PROVIDED AS IS WITHOUT WARRANTY OF ANY KIND, EITHER EXPRESS OR IMPLIED,
//   26   INCLUDING WITHOUT LIMITATION, ANY WARRANTY OF MERCHANTABILITY, TITLE,
//   27   NON-INFRINGEMENT AND FITNESS FOR A PARTICULAR PURPOSE. IN NO EVENT SHALL
//   28   TEXAS INSTRUMENTS OR ITS LICENSORS BE LIABLE OR OBLIGATED UNDER CONTRACT,
//   29   NEGLIGENCE, STRICT LIABILITY, CONTRIBUTION, BREACH OF WARRANTY, OR OTHER
//   30   LEGAL EQUITABLE THEORY ANY DIRECT OR INDIRECT DAMAGES OR EXPENSES
//   31   INCLUDING BUT NOT LIMITED TO ANY INCIDENTAL, SPECIAL, INDIRECT, PUNITIVE
//   32   OR CONSEQUENTIAL DAMAGES, LOST PROFITS OR LOST DATA, COST OF PROCUREMENT
//   33   OF SUBSTITUTE GOODS, TECHNOLOGY, SERVICES, OR ANY CLAIMS BY THIRD PARTIES
//   34   (INCLUDING BUT NOT LIMITED TO ANY DEFENSE THEREOF), OR OTHER SIMILAR COSTS.
//   35 
//   36   Should you have any questions regarding your right to use this Software,
//   37   contact Texas Instruments Incorporated at www.TI.com.
//   38 **************************************************************************************************/
//   39 
//   40 
//   41 /*********************************************************************
//   42  * INCLUDES
//   43  */
//   44 #include "ZComDef.h"
//   45 #include "OSAL.h"
//   46 #include "OSAL_Tasks.h"
//   47 #include "OSAL_Nv.h"
//   48 #include "AF.h"
//   49 #include "ZDApp.h"
//   50 #include "ZDSecMgr.h"
//   51 #include "ZDObject.h"
//   52 #include "nwk_util.h"
//   53 
//   54 #if defined ( POWER_SAVING )
//   55 #include "OSAL_PwrMgr.h"
//   56 #endif
//   57 
//   58 #if defined( INTER_PAN )
//   59   #include "stub_aps.h"
//   60 #endif
//   61 
//   62 #include "zcl.h"
//   63 #include "zcl_general.h"
//   64 #include "zcl_ll.h"
//   65 #include "zll.h"
//   66 
//   67 #if defined ( MT_APP_FUNC )
//   68 #include "MT_APP.h"
//   69 #include "zll_rpc.h"
//   70 #endif
//   71 
//   72 #include "zll_initiator.h"
//   73 
//   74 
//   75 /*********************************************************************
//   76  * MACROS
//   77  */
//   78 
//   79 /*********************************************************************
//   80  * CONSTANTS
//   81  */
//   82 
//   83 #define ZLL_INITIATOR_REJOIN_TIMEOUT             2500 // 2.5 sec
//   84 
//   85 // for non-polling end-devices only
//   86 #define ZLL_INITIATOR_TEMP_POST_TL_POLL_RATE     1000
//   87 
//   88 #define DEV_INFO_INVALID_EP                      0xFE
//   89 
//   90 #define ZLL_ENDDEVICE_JOIN_EVT                             ZLL_NWK_JOIN_EVT
//   91 #define ZLL_TL_SCAN_BASE_EVT                               ZLL_AUX_1_EVT
//   92 #define ZLL_CFG_TARGET_EVT                                 ZLL_AUX_2_EVT
//   93 #define ZLL_W4_NWK_START_RSP_EVT                           ZLL_AUX_3_EVT
//   94 #define ZLL_W4_NWK_JOIN_RSP_EVT                            ZLL_AUX_4_EVT
//   95 #define ZLL_DISABLE_RX_EVT                                 ZLL_AUX_5_EVT
//   96 #define ZLL_W4_REJOIN_EVT                                  ZLL_AUX_6_EVT
//   97 #define ZLL_NOTIFY_APP_EVT                                 ZLL_AUX_7_EVT
//   98 
//   99 #define ZLL_INITIATOR_NUM_SCAN_REQ_PRIMARY       8  // 5 times on 1st channel, plus once for each remianing primary channel
//  100 #define ZLL_INITIATOR_NUM_SCAN_REQ_EXTENDED      20 // (ZLL_NUM_SCAN_REQ_PRIMARY + sizeof(ZLL_SECONDARY_CHANNELS_SET))
//  101 
//  102 /*********************************************************************
//  103  * TYPEDEFS
//  104  */
//  105 typedef union
//  106 {
//  107   zclLLNwkStartRsp_t nwkStartRsp;
//  108   zclLLNwkJoinRsp_t nwkJoinRsp;
//  109 } zclLLRsp_t;
//  110 
//  111 typedef struct
//  112 {
//  113   zclLLScanRsp_t scanRsp;
//  114   afAddrType_t srcAddr;
//  115   uint16 newNwkAddr;
//  116   uint8 rxChannel;  // channel scan response was heard on
//  117   int8 lastRssi;    // receieved RSSI
//  118 } targetCandidate_t;
//  119 
//  120 /*********************************************************************
//  121  * GLOBAL VARIABLES
//  122  */

        RSEG XDATA_Z:XDATA:NOROOT(0)
        DATA8
//  123 uint8 zllInitiator_TaskID;
zllInitiator_TaskID:
        DS 1
        REQUIRE __INIT_XDATA_Z
//  124 
//  125 /*********************************************************************
//  126  * EXTERNAL VARIABLES
//  127  */
//  128 extern devStartModes_t devStartMode;
//  129 extern uint8 _tmpRejoinState;
//  130 extern uint8 zllJoinedHANetwork;
//  131 
//  132 /*********************************************************************
//  133  * EXTERNAL FUNCTIONS
//  134  */
//  135 
//  136 /*********************************************************************
//  137  * LOCAL VARIABLES
//  138  */
//  139 

        RSEG XDATA_Z:XDATA:NOROOT(0)
        DATA8
//  140 static uint8 initiatorSeqNum;
initiatorSeqNum:
        DS 1
        REQUIRE __INIT_XDATA_Z
//  141 
//  142 // Touch Link channel tracking

        RSEG XDATA_Z:XDATA:NOROOT(0)
        DATA8
//  143 static uint8 numScanReqSent;
numScanReqSent:
        DS 1
        REQUIRE __INIT_XDATA_Z

        RSEG XDATA_Z:XDATA:NOROOT(0)
        DATA8
//  144 static uint8 scanReqChannels;
scanReqChannels:
        DS 1
        REQUIRE __INIT_XDATA_Z
//  145 
//  146 // Network key sent to the target to start the network with

        RSEG XDATA_Z:XDATA:NOROOT(0)
        DATA8
//  147 static uint8 keyIndexSent;
keyIndexSent:
        DS 1
        REQUIRE __INIT_XDATA_Z

        RSEG XDATA_Z:XDATA:NOROOT(0)
        DATA8
//  148 static uint8 encKeySent[SEC_KEY_LEN];
encKeySent:
        DS 16
        REQUIRE __INIT_XDATA_Z

        RSEG XDATA_Z:XDATA:NOROOT(0)
        DATA32
//  149 static uint32 responseIDSent;
responseIDSent:
        DS 4
        REQUIRE __INIT_XDATA_Z
//  150 
//  151 // Info related to the received request

        RSEG XDATA_Z:XDATA:NOROOT(0)
        DATA8
//  152 static zclLLNwkJoinReq_t joinReq;
joinReq:
        DS 47
        REQUIRE __INIT_XDATA_Z
//  153 
//  154 // Info related to the received response

        RSEG XDATA_Z:XDATA:NOROOT(0)
        DATA8
//  155 static targetCandidate_t selectedTarget;
selectedTarget:
        DS 54
        REQUIRE __INIT_XDATA_Z

        RSEG XDATA_Z:XDATA:NOROOT(0)
        DATA8
//  156 static zclLLRsp_t rxRsp; // network start or join response
rxRsp:
        DS 17
        REQUIRE __INIT_XDATA_Z
//  157 
//  158 // Addresses used for sending/receiving messages

        RSEG XDATA_Z:XDATA:NOROOT(0)
        DATA8
//  159 static afAddrType_t bcastAddr;
bcastAddr:
        DS 12
        REQUIRE __INIT_XDATA_Z
//  160 

        RSEG XDATA_Z:XDATA:NOROOT(0)
        DATA16
//  161 static uint16 savedPollRate;
savedPollRate:
        DS 2
        REQUIRE __INIT_XDATA_Z

        RSEG XDATA_Z:XDATA:NOROOT(0)
        DATA16
//  162 static uint16 savedQueuedPollRate;
savedQueuedPollRate:
        DS 2
        REQUIRE __INIT_XDATA_Z

        RSEG XDATA_Z:XDATA:NOROOT(0)
        DATA16
//  163 static uint16 savedResponsePollRate;
savedResponsePollRate:
        DS 2
        REQUIRE __INIT_XDATA_Z

        RSEG XDATA_Z:XDATA:NOROOT(0)
        DATA8
//  164 static uint8 savedRxOnIdle;
savedRxOnIdle:
        DS 1
        REQUIRE __INIT_XDATA_Z
//  165 
//  166 // Application callback

        RSEG XDATA_Z:XDATA:NOROOT(0)
        DATA16
//  167 static zclGCB_BasicReset_t pfnResetAppCB = NULL;
pfnResetAppCB:
        DS 2
        REQUIRE __INIT_XDATA_Z

        RSEG XDATA_Z:XDATA:NOROOT(0)
        DATA16
//  168 static zclGCB_Identify_t pfnIdentifyCB = NULL;
pfnIdentifyCB:
        DS 2
        REQUIRE __INIT_XDATA_Z

        RSEG XDATA_Z:XDATA:NOROOT(0)
        DATA16
//  169 static zll_NotifyAppTLCB_t pfnNotifyAppCB = NULL;
pfnNotifyAppCB:
        DS 2
        REQUIRE __INIT_XDATA_Z

        RSEG XDATA_Z:XDATA:NOROOT(0)
        DATA16
//  170 static zll_SelectDiscDevCB_t pfnSelectDiscDevCB = NULL;
pfnSelectDiscDevCB:
        DS 2
        REQUIRE __INIT_XDATA_Z
//  171 

        RSEG XDATA_I:XDATA:NOROOT(0)
//  172 static uint8 initiatorRegisteredMsgAppTaskID = TASK_NO_TASK;
initiatorRegisteredMsgAppTaskID:
        DATA8
        DS 1
        REQUIRE `?<Initializer for initiatorRegisteredMsgAppTas`
        REQUIRE __INIT_XDATA_I
//  173 
//  174 /*********************************************************************
//  175  * LOCAL FUNCTIONS
//  176  */
//  177 
//  178 // This callback is called to process a Scan Request command
//  179 static ZStatus_t initiatorScanReqCB( afAddrType_t *srcAddr, zclLLScanReq_t *pReq, uint8 seqNum );
//  180 
//  181 // This callback is called to process a Device Information Request command
//  182 static ZStatus_t initiatorDeviceInfoReqCB( afAddrType_t *srcAddr, zclLLDeviceInfoReq_t *pReq, uint8 seqNum );
//  183 
//  184 // This callback is called to process an Identify Request command
//  185 static ZStatus_t initiatorIdentifyReqCB( afAddrType_t *srcAddr, zclLLIdentifyReq_t *pReq );
//  186 
//  187 // This callback is called to process a Reset to Factory New Request command
//  188 static ZStatus_t initiatorResetToFNReqCB( afAddrType_t *srcAddr, zclLLResetToFNReq_t *pReq );
//  189 
//  190 // This callback is called to process a Network Join End Device Request command
//  191 static ZStatus_t initiatorNwkJoinReqCB( afAddrType_t *srcAddr, zclLLNwkJoinReq_t *pReq, uint8 seqNum );
//  192 
//  193 // This callback is called to process a Network Update Request command
//  194 static ZStatus_t initiatorNwkUpdateReqCB( afAddrType_t *srcAddr, zclLLNwkUpdateReq_t *pReq );
//  195 
//  196 // This callback is called to process a Scan Response command
//  197 static ZStatus_t initiatorScanRspCB( afAddrType_t *srcAddr, zclLLScanRsp_t *pRsp );
//  198 
//  199 // This callback is called to process a Device Information Response command
//  200 static ZStatus_t initiatorDeviceInfoRspCB( afAddrType_t *srcAddr, zclLLDeviceInfoRsp_t *pRsp );
//  201 
//  202 // This callback is called to process a Network Start Response command
//  203 static ZStatus_t initiatorNwkStartRspCB( afAddrType_t *srcAddr, zclLLNwkStartRsp_t *pRsp );
//  204 
//  205 // This callback is called to process a Network Join Router Response command
//  206 static ZStatus_t initiatorNwkJoinRtrRspCB( afAddrType_t *srcAddr, zclLLNwkJoinRsp_t *pRsp );
//  207 
//  208 // This callback is called to process a Network Join End Device Response command
//  209 static ZStatus_t initiatorNwkJoinEDRspCB( afAddrType_t *srcAddr, zclLLNwkJoinRsp_t *pRsp );
//  210 
//  211 // This callback is called to process a Leave Confirmation message
//  212 static void *initiatorZdoLeaveCnfCB( void *pParam );
//  213 
//  214 static void initiatorProcessStateChange( devStates_t state );
//  215 void initiatorSelectNwkParams( void );
//  216 static void initiatorSetNwkToInitState( void );
//  217 static void initiatorJoinNwk( void );
//  218 static void initiatorReJoinNwk( devStartModes_t startMode );
//  219 static void initiatorSendScanReq( bool freshScan );
//  220 static ZStatus_t initiatorSendNwkStartReq( zclLLScanRsp_t *pRsp );
//  221 static ZStatus_t initiatorSendNwkJoinReq( zclLLScanRsp_t *pRsp );
//  222 static ZStatus_t initiatorSendNwkUpdateReq( zclLLScanRsp_t *pRsp );
//  223 static void initiatorClearSelectedTarget( void );
//  224 
//  225 #if defined ( MT_APP_FUNC )
//  226 static ZStatus_t initiatorProcessRpcMsg( uint8 srcEP, uint8 len, uint8 *msg );
//  227 #endif
//  228 
//  229 /*********************************************************************
//  230  * ZLL Initiator Callback Table
//  231  */
//  232 // Initiator Command Callbacks table

        RSEG XDATA_I:XDATA:NOROOT(0)
//  233 static zclLL_InterPANCallbacks_t zllInitiator_CmdCBs =
zllInitiator_CmdCBs:
        DATA8
        DS 26
        REQUIRE `?<Initializer for zllInitiator_CmdCBs>`
        REQUIRE __INIT_XDATA_I
//  234 {
//  235   // Received Server Commands
//  236   initiatorScanReqCB,       // Scan Request command
//  237   initiatorDeviceInfoReqCB, // Device Information Request command
//  238   initiatorIdentifyReqCB,   // Identify Request command
//  239   initiatorResetToFNReqCB,  // Reset to Factory New Request command
//  240   NULL,                     // Network Start Request command
//  241 #if ( ZSTACK_ROUTER_BUILD )
//  242   initiatorNwkJoinReqCB,    // Network Join Router Request command
//  243   NULL,                     // Network Join End Device Request command
//  244 #else
//  245   NULL,                     // Network Join Router Request command
//  246   initiatorNwkJoinReqCB,    // Network Join End Device Request command
//  247 #endif
//  248   initiatorNwkUpdateReqCB,  // Network Update Request command
//  249 
//  250   // Received Client Commands
//  251   initiatorScanRspCB,       // Scan Response command
//  252   initiatorDeviceInfoRspCB, // Device Information Response command
//  253   initiatorNwkStartRspCB,   // Network Start Response command
//  254   initiatorNwkJoinRtrRspCB, // Network Join Router Response command
//  255   initiatorNwkJoinEDRspCB   // Network Join End Device Response command
//  256 };
//  257 
//  258 /*********************************************************************
//  259  * PUBLIC FUNCTIONS
//  260  */
//  261 
//  262 /*********************************************************************
//  263  * @fn      zllInitiator_InitDevice
//  264  *
//  265  * @brief   Start the ZLL Initiator device in the network if it's not
//  266  *          factory new. Otherwise, determine the network parameters
//  267  *          and wait for a touchlink command.
//  268  *
//  269  * @param   none
//  270  *
//  271  * @return  status
//  272  */

        RSEG BANKED_CODE:CODE:NOROOT(0)
//  273 ZStatus_t zllInitiator_InitDevice( void )
zllInitiator_InitDevice:
          CFI Block cfiBlock0 Using cfiCommon0
          CFI Function zllInitiator_InitDevice
        CODE
//  274 {
        FUNCALL zllInitiator_InitDevice, zll_IsFactoryNew
        LOCFRAME ISTACK, 2, STACK
        LOCFRAME PSTACK, 0, STACK
        LOCFRAME XSTACK, 0, STACK
        LOCFRAME IOVERLAY, 0, STATIC
        LOCFRAME DOVERLAY, 0, STATIC
        ARGFRAME ISTACK, 2, STACK
        ARGFRAME PSTACK, 0, STACK
        ARGFRAME XSTACK, 0, STACK
        ARGFRAME IOVERLAY, 0, STATIC
        ARGFRAME DOVERLAY, 0, STATIC
        FUNCALL zllInitiator_InitDevice, initiatorReJoinNwk
        LOCFRAME ISTACK, 2, STACK
        LOCFRAME PSTACK, 0, STACK
        LOCFRAME XSTACK, 0, STACK
        LOCFRAME IOVERLAY, 0, STATIC
        LOCFRAME DOVERLAY, 0, STATIC
        ARGFRAME ISTACK, 2, STACK
        ARGFRAME PSTACK, 0, STACK
        ARGFRAME XSTACK, 0, STACK
        ARGFRAME IOVERLAY, 0, STATIC
        ARGFRAME DOVERLAY, 0, STATIC
        FUNCALL zllInitiator_InitDevice, initiatorSelectNwkParams
        LOCFRAME ISTACK, 2, STACK
        LOCFRAME PSTACK, 0, STACK
        LOCFRAME XSTACK, 0, STACK
        LOCFRAME IOVERLAY, 0, STATIC
        LOCFRAME DOVERLAY, 0, STATIC
        ARGFRAME ISTACK, 2, STACK
        ARGFRAME PSTACK, 0, STACK
        ARGFRAME XSTACK, 0, STACK
        ARGFRAME IOVERLAY, 0, STATIC
        ARGFRAME DOVERLAY, 0, STATIC
        FUNCALL zllInitiator_InitDevice, ZMacSetReq
        LOCFRAME ISTACK, 2, STACK
        LOCFRAME PSTACK, 0, STACK
        LOCFRAME XSTACK, 0, STACK
        LOCFRAME IOVERLAY, 0, STATIC
        LOCFRAME DOVERLAY, 0, STATIC
        ARGFRAME ISTACK, 2, STACK
        ARGFRAME PSTACK, 0, STACK
        ARGFRAME XSTACK, 0, STACK
        ARGFRAME IOVERLAY, 0, STATIC
        ARGFRAME DOVERLAY, 0, STATIC
        FUNCALL zllInitiator_InitDevice, zll_PermitJoin
        LOCFRAME ISTACK, 2, STACK
        LOCFRAME PSTACK, 0, STACK
        LOCFRAME XSTACK, 0, STACK
        LOCFRAME IOVERLAY, 0, STATIC
        LOCFRAME DOVERLAY, 0, STATIC
        ARGFRAME ISTACK, 2, STACK
        ARGFRAME PSTACK, 0, STACK
        ARGFRAME XSTACK, 0, STACK
        ARGFRAME IOVERLAY, 0, STATIC
        ARGFRAME DOVERLAY, 0, STATIC
        PUSH    DPL
          CFI DPL0 Frame(CFA_SP, 4)
          CFI CFA_SP SP+-4
        PUSH    DPH
          CFI DPH0 Frame(CFA_SP, 5)
          CFI CFA_SP SP+-5
        ; Saved register size: 2
        ; Auto size: 0
//  275   if ( !zll_IsFactoryNew() )
        ; Setup parameters for call to function zll_IsFactoryNew
        LCALL   ??zll_IsFactoryNew?relay
        MOV     A,R1
        JNZ     ??zllInitiator_InitDevice_0
//  276   {
//  277     // Resume ZigBee functionality based on the info stored in NV
//  278     initiatorReJoinNwk( MODE_RESUME );
        ; Setup parameters for call to function initiatorReJoinNwk
        MOV     R1,#0x1
        LCALL   ??initiatorReJoinNwk?relay
        SJMP    ??zllInitiator_InitDevice_1
//  279   }
//  280   else
//  281   {
//  282     initiatorSelectNwkParams();
??zllInitiator_InitDevice_0:
        ; Setup parameters for call to function initiatorSelectNwkParams
        LCALL   ??initiatorSelectNwkParams?relay
//  283 #ifndef HOLD_AUTO_START
//  284     zllInitiator_ClassicalCommissioningStart();
//  285 #endif
//  286   }
//  287 
//  288 #if defined ( POWER_SAVING )
//  289   osal_pwrmgr_device( PWRMGR_BATTERY );
//  290 #endif
//  291 
//  292 #if ( ZSTACK_ROUTER_BUILD )
//  293   // Enable our receiver
//  294   savedRxOnIdle = TRUE;
??zllInitiator_InitDevice_1:
        MOV     DPTR,#savedRxOnIdle
        MOV     A,#0x1
        MOVX    @DPTR,A
//  295   ZMacSetReq( ZMacRxOnIdle, &savedRxOnIdle );
        ; Setup parameters for call to function ZMacSetReq
        MOV     R2,#savedRxOnIdle & 0xff
        MOV     R3,#(savedRxOnIdle >> 8) & 0xff
        MOV     R1,#0x52
        LCALL   ??ZMacSetReq?relay
//  296   zll_PermitJoin(0);
        ; Setup parameters for call to function zll_PermitJoin
        MOV     R1,#0x0
        LCALL   ??zll_PermitJoin?relay
//  297 #endif
//  298 
//  299   return ( ZSuccess );
        MOV     R1,#0x0
        LJMP    ??Subroutine35_0 & 0xFFFF
          CFI EndBlock cfiBlock0
//  300 }
//  301 
//  302 
//  303 /*********************************************************************
//  304  * @fn      zllInitiator_ResetToFactoryNew
//  305  *
//  306  * @brief   Call to Reset the Initiator to factory new
//  307  *
//  308  * @param   none
//  309  *
//  310  * @return  none
//  311  */

        RSEG BANKED_CODE:CODE:NOROOT(0)
//  312 void zllInitiator_ResetToFactoryNew()
zllInitiator_ResetToFactoryNew:
          CFI Block cfiBlock1 Using cfiCommon0
          CFI Function zllInitiator_ResetToFactoryNew
        CODE
//  313 {
        FUNCALL zllInitiator_ResetToFactoryNew, zll_ResetToFactoryNew
        LOCFRAME ISTACK, 2, STACK
        LOCFRAME PSTACK, 0, STACK
        LOCFRAME XSTACK, 0, STACK
        LOCFRAME IOVERLAY, 0, STATIC
        LOCFRAME DOVERLAY, 0, STATIC
        ARGFRAME ISTACK, 2, STACK
        ARGFRAME PSTACK, 0, STACK
        ARGFRAME XSTACK, 0, STACK
        ARGFRAME IOVERLAY, 0, STATIC
        ARGFRAME DOVERLAY, 0, STATIC
        PUSH    DPL
          CFI DPL0 Frame(CFA_SP, 4)
          CFI CFA_SP SP+-4
        PUSH    DPH
          CFI DPH0 Frame(CFA_SP, 5)
          CFI CFA_SP SP+-5
        ; Saved register size: 2
        ; Auto size: 0
//  314   if ( pfnResetAppCB )
        LCALL   ?Subroutine17 & 0xFFFF
??CrossCallReturnLabel_36:
        JZ      ??zllInitiator_ResetToFactoryNew_0
//  315   {
//  316     pfnResetAppCB();
        ; Setup parameters for indirect call
        LCALL   ??Subroutine43_0 & 0xFFFF
//  317   }
??CrossCallReturnLabel_98:
        LCALL   ?CALL_IND
//  318   zll_ResetToFactoryNew( TRUE );
??zllInitiator_ResetToFactoryNew_0:
        ; Setup parameters for call to function zll_ResetToFactoryNew
        MOV     R1,#0x1
        LCALL   ??zll_ResetToFactoryNew?relay
//  319 }
        LJMP    ??Subroutine35_0 & 0xFFFF
          CFI EndBlock cfiBlock1

        RSEG BANKED_CODE:CODE:NOROOT(0)
?Subroutine17:
          CFI Block cfiCond2 Using cfiCommon0
          CFI Function zllInitiator_ResetToFactoryNew
          CFI Conditional ??CrossCallReturnLabel_36
          CFI DPL0 Frame(CFA_SP, 4)
          CFI DPH0 Frame(CFA_SP, 5)
          CFI CFA_SP SP+-5
          CFI Block cfiCond3 Using cfiCommon0
          CFI (cfiCond3) Function zllInitiator_event_loop
          CFI (cfiCond3) Conditional ??CrossCallReturnLabel_37
          CFI (cfiCond3) R6 load(1, XDATA, add(CFA_XSP16, literal(-16)))
          CFI (cfiCond3) VB load(1, XDATA, add(CFA_XSP16, literal(-15)))
          CFI (cfiCond3) V0 load(1, XDATA, add(CFA_XSP16, literal(-14)))
          CFI (cfiCond3) V1 load(1, XDATA, add(CFA_XSP16, literal(-13)))
          CFI (cfiCond3) V2 load(1, XDATA, add(CFA_XSP16, literal(-12)))
          CFI (cfiCond3) V3 load(1, XDATA, add(CFA_XSP16, literal(-11)))
          CFI (cfiCond3) V4 load(1, XDATA, add(CFA_XSP16, literal(-10)))
          CFI (cfiCond3) V5 load(1, XDATA, add(CFA_XSP16, literal(-9)))
          CFI (cfiCond3) V6 load(1, XDATA, add(CFA_XSP16, literal(-8)))
          CFI (cfiCond3) V7 load(1, XDATA, add(CFA_XSP16, literal(-7)))
          CFI (cfiCond3) R7 load(1, XDATA, add(CFA_XSP16, literal(-6)))
          CFI (cfiCond3) ?RET_LOW load(1, XDATA, add(CFA_XSP16, literal(-5)))
          CFI (cfiCond3) ?RET_HIGH load(1, XDATA, add(CFA_XSP16, literal(-4)))
          CFI (cfiCond3) ?BRET_EXT load(1, XDATA, add(CFA_XSP16, literal(-3)))
          CFI (cfiCond3) DPL0 load(1, XDATA, add(CFA_XSP16, literal(-2)))
          CFI (cfiCond3) DPH0 load(1, XDATA, add(CFA_XSP16, literal(-1)))
          CFI (cfiCond3) CFA_SP SP+0
          CFI (cfiCond3) CFA_XSP16 add(XSP16, 30)
          CFI Block cfiPicker4 Using cfiCommon1
          CFI (cfiPicker4) NoFunction
          CFI (cfiPicker4) Picker
        MOV     DPTR,#pfnResetAppCB
          CFI EndBlock cfiCond2
          CFI EndBlock cfiCond3
          CFI EndBlock cfiPicker4
        REQUIRE ??Subroutine33_0
        ; // Fall through to label ??Subroutine33_0

        RSEG BANKED_CODE:CODE:NOROOT(0)
??Subroutine33_0:
          CFI Block cfiCond5 Using cfiCommon0
          CFI Function initiatorIdentifyReqCB
          CFI Conditional ??CrossCallReturnLabel_34
          CFI R6 load(1, XDATA, add(CFA_XSP16, literal(-10)))
          CFI VB load(1, XDATA, add(CFA_XSP16, literal(-9)))
          CFI V0 load(1, XDATA, add(CFA_XSP16, literal(-8)))
          CFI V1 load(1, XDATA, add(CFA_XSP16, literal(-7)))
          CFI R7 load(1, XDATA, add(CFA_XSP16, literal(-6)))
          CFI ?RET_LOW load(1, XDATA, add(CFA_XSP16, literal(-5)))
          CFI ?RET_HIGH load(1, XDATA, add(CFA_XSP16, literal(-4)))
          CFI ?BRET_EXT load(1, XDATA, add(CFA_XSP16, literal(-3)))
          CFI DPL0 load(1, XDATA, add(CFA_XSP16, literal(-2)))
          CFI DPH0 load(1, XDATA, add(CFA_XSP16, literal(-1)))
          CFI CFA_SP SP+0
          CFI CFA_XSP16 add(XSP16, 14)
          CFI Block cfiCond6 Using cfiCommon0
          CFI (cfiCond6) Function initiatorScanRspCB
          CFI (cfiCond6) Conditional ??CrossCallReturnLabel_35
          CFI (cfiCond6) R6 load(1, XDATA, add(CFA_XSP16, literal(-12)))
          CFI (cfiCond6) VB load(1, XDATA, add(CFA_XSP16, literal(-11)))
          CFI (cfiCond6) V0 load(1, XDATA, add(CFA_XSP16, literal(-10)))
          CFI (cfiCond6) V1 load(1, XDATA, add(CFA_XSP16, literal(-9)))
          CFI (cfiCond6) V2 load(1, XDATA, add(CFA_XSP16, literal(-8)))
          CFI (cfiCond6) V3 load(1, XDATA, add(CFA_XSP16, literal(-7)))
          CFI (cfiCond6) R7 load(1, XDATA, add(CFA_XSP16, literal(-6)))
          CFI (cfiCond6) ?RET_LOW load(1, XDATA, add(CFA_XSP16, literal(-5)))
          CFI (cfiCond6) ?RET_HIGH load(1, XDATA, add(CFA_XSP16, literal(-4)))
          CFI (cfiCond6) ?BRET_EXT load(1, XDATA, add(CFA_XSP16, literal(-3)))
          CFI (cfiCond6) DPL0 load(1, XDATA, add(CFA_XSP16, literal(-2)))
          CFI (cfiCond6) DPH0 load(1, XDATA, add(CFA_XSP16, literal(-1)))
          CFI (cfiCond6) CFA_SP SP+0
          CFI (cfiCond6) CFA_XSP16 add(XSP16, 17)
          CFI Block cfiCond7 Using cfiCommon0
          CFI (cfiCond7) Function zllInitiator_ResetToFactoryNew
          CFI (cfiCond7) Conditional ??CrossCallReturnLabel_36
          CFI (cfiCond7) DPL0 Frame(CFA_SP, 4)
          CFI (cfiCond7) DPH0 Frame(CFA_SP, 5)
          CFI (cfiCond7) CFA_SP SP+-5
          CFI Block cfiCond8 Using cfiCommon0
          CFI (cfiCond8) Function zllInitiator_event_loop
          CFI (cfiCond8) Conditional ??CrossCallReturnLabel_37
          CFI (cfiCond8) R6 load(1, XDATA, add(CFA_XSP16, literal(-16)))
          CFI (cfiCond8) VB load(1, XDATA, add(CFA_XSP16, literal(-15)))
          CFI (cfiCond8) V0 load(1, XDATA, add(CFA_XSP16, literal(-14)))
          CFI (cfiCond8) V1 load(1, XDATA, add(CFA_XSP16, literal(-13)))
          CFI (cfiCond8) V2 load(1, XDATA, add(CFA_XSP16, literal(-12)))
          CFI (cfiCond8) V3 load(1, XDATA, add(CFA_XSP16, literal(-11)))
          CFI (cfiCond8) V4 load(1, XDATA, add(CFA_XSP16, literal(-10)))
          CFI (cfiCond8) V5 load(1, XDATA, add(CFA_XSP16, literal(-9)))
          CFI (cfiCond8) V6 load(1, XDATA, add(CFA_XSP16, literal(-8)))
          CFI (cfiCond8) V7 load(1, XDATA, add(CFA_XSP16, literal(-7)))
          CFI (cfiCond8) R7 load(1, XDATA, add(CFA_XSP16, literal(-6)))
          CFI (cfiCond8) ?RET_LOW load(1, XDATA, add(CFA_XSP16, literal(-5)))
          CFI (cfiCond8) ?RET_HIGH load(1, XDATA, add(CFA_XSP16, literal(-4)))
          CFI (cfiCond8) ?BRET_EXT load(1, XDATA, add(CFA_XSP16, literal(-3)))
          CFI (cfiCond8) DPL0 load(1, XDATA, add(CFA_XSP16, literal(-2)))
          CFI (cfiCond8) DPH0 load(1, XDATA, add(CFA_XSP16, literal(-1)))
          CFI (cfiCond8) CFA_SP SP+0
          CFI (cfiCond8) CFA_XSP16 add(XSP16, 30)
          CFI Block cfiPicker9 Using cfiCommon1
          CFI (cfiPicker9) NoFunction
          CFI (cfiPicker9) Picker
        LCALL   ??Subroutine41_0 & 0xFFFF
??CrossCallReturnLabel_96:
        MOV     A,R0
        ORL     A,R1
        RET
          CFI EndBlock cfiCond5
          CFI EndBlock cfiCond6
          CFI EndBlock cfiCond7
          CFI EndBlock cfiCond8
          CFI EndBlock cfiPicker9
//  320 
//  321 /*********************************************************************
//  322  * @fn      zllInitiator_RegisterIdentifyCB
//  323  *
//  324  * @brief   Register an Application's Identify callback function.
//  325  *
//  326  * @param   pfnIdentify - application callback
//  327  *
//  328  * @return  none
//  329  */

        RSEG BANKED_CODE:CODE:NOROOT(0)
//  330 void zllInitiator_RegisterIdentifyCB( zclGCB_Identify_t pfnIdentify )
zllInitiator_RegisterIdentifyCB:
          CFI Block cfiBlock10 Using cfiCommon0
          CFI Function zllInitiator_RegisterIdentifyCB
        CODE
//  331 {
        PUSH    DPL
          CFI DPL0 Frame(CFA_SP, 4)
          CFI CFA_SP SP+-4
        PUSH    DPH
          CFI DPH0 Frame(CFA_SP, 5)
          CFI CFA_SP SP+-5
        ; Saved register size: 2
        ; Auto size: 0
//  332   pfnIdentifyCB = pfnIdentify;
        MOV     DPTR,#pfnIdentifyCB
        LJMP    ?Subroutine0 & 0xFFFF
          CFI EndBlock cfiBlock10
//  333 }
//  334 
//  335 /*********************************************************************
//  336  * @fn      zllInitiator_RegisterNotifyTLCB
//  337  *
//  338  * @brief   Register an Application's Touch-Link Notify callback function.
//  339  *
//  340  * @param   pfnNotifyApp - application callback
//  341  *
//  342  * @return  none
//  343  */

        RSEG BANKED_CODE:CODE:NOROOT(0)
//  344 void zllInitiator_RegisterNotifyTLCB( zll_NotifyAppTLCB_t pfnNotifyApp )
zllInitiator_RegisterNotifyTLCB:
          CFI Block cfiBlock11 Using cfiCommon0
          CFI Function zllInitiator_RegisterNotifyTLCB
        CODE
//  345 {
        PUSH    DPL
          CFI DPL0 Frame(CFA_SP, 4)
          CFI CFA_SP SP+-4
        PUSH    DPH
          CFI DPH0 Frame(CFA_SP, 5)
          CFI CFA_SP SP+-5
        ; Saved register size: 2
        ; Auto size: 0
//  346   pfnNotifyAppCB = pfnNotifyApp;
        MOV     DPTR,#pfnNotifyAppCB
        LJMP    ?Subroutine0 & 0xFFFF
          CFI EndBlock cfiBlock11
//  347 }
//  348 
//  349 /*********************************************************************
//  350  * @fn      zllInitiator_RegisterResetAppCB
//  351  *
//  352  * @brief   Register an Application's Reset callback function.
//  353  *
//  354  * @param   pfnResetApp - application callback
//  355  *
//  356  * @return  none
//  357  */

        RSEG BANKED_CODE:CODE:NOROOT(0)
//  358 void zllInitiator_RegisterResetAppCB( zclGCB_BasicReset_t pfnResetApp )
zllInitiator_RegisterResetAppCB:
          CFI Block cfiBlock12 Using cfiCommon0
          CFI Function zllInitiator_RegisterResetAppCB
        CODE
//  359 {
        PUSH    DPL
          CFI DPL0 Frame(CFA_SP, 4)
          CFI CFA_SP SP+-4
        PUSH    DPH
          CFI DPH0 Frame(CFA_SP, 5)
          CFI CFA_SP SP+-5
        ; Saved register size: 2
        ; Auto size: 0
//  360   pfnResetAppCB = pfnResetApp;
        MOV     DPTR,#pfnResetAppCB
        LJMP    ?Subroutine0 & 0xFFFF
          CFI EndBlock cfiBlock12
//  361 }
//  362 
//  363 /*********************************************************************
//  364  * @fn      zllInitiator_RegisterSelectDiscDevCB
//  365  *
//  366  * @brief   Register an Application's Selection callback function, to select
//  367  *          a target from the discovered devices during a Touch-link scan.
//  368  *
//  369  * @param   pfnSelectDiscDev - application callback
//  370  *
//  371  * @return  none
//  372  */

        RSEG BANKED_CODE:CODE:NOROOT(0)
//  373 void zllInitiator_RegisterSelectDiscDevCB( zll_SelectDiscDevCB_t pfnSelectDiscDev )
zllInitiator_RegisterSelectDiscDevCB:
          CFI Block cfiBlock13 Using cfiCommon0
          CFI Function zllInitiator_RegisterSelectDiscDevCB
        CODE
//  374 {
        PUSH    DPL
          CFI DPL0 Frame(CFA_SP, 4)
          CFI CFA_SP SP+-4
        PUSH    DPH
          CFI DPH0 Frame(CFA_SP, 5)
          CFI CFA_SP SP+-5
        ; Saved register size: 2
        ; Auto size: 0
//  375   pfnSelectDiscDevCB = pfnSelectDiscDev;
        MOV     DPTR,#pfnSelectDiscDevCB
        LJMP    ?Subroutine0 & 0xFFFF
          CFI EndBlock cfiBlock13
//  376 }
//  377 
//  378 /*********************************************************************
//  379  * @fn      zllInitiator_StartDevDisc
//  380  *
//  381  * @brief   Start device discovery, scanning for other devices in the vicinity
//  382  *          of the originator (initiating first part of the Touch-Link process).
//  383  *          Device discovery shall only be initiated by address assignment capable
//  384  *          devices. To perform device discovery, the initiator shall broadcast
//  385  *          inter-PAN Scan Requests, spaced at an interval of
//  386  *          ZLL_APLC_SCAN_TIME_BASE_DURATION seconds.
//  387  *
//  388  * @param   none
//  389  *
//  390  * @return  status
//  391  */

        RSEG BANKED_CODE:CODE:NOROOT(0)
//  392 ZStatus_t zllInitiator_StartDevDisc( void )
zllInitiator_StartDevDisc:
          CFI Block cfiBlock14 Using cfiCommon0
          CFI Function zllInitiator_StartDevDisc
        CODE
//  393 {
        FUNCALL zllInitiator_StartDevDisc, osal_clear_event
        LOCFRAME ISTACK, 0, STACK
        LOCFRAME PSTACK, 0, STACK
        LOCFRAME XSTACK, 17, STACK
        LOCFRAME IOVERLAY, 0, STATIC
        LOCFRAME DOVERLAY, 0, STATIC
        ARGFRAME ISTACK, 0, STACK
        ARGFRAME PSTACK, 0, STACK
        ARGFRAME XSTACK, 17, STACK
        ARGFRAME IOVERLAY, 0, STATIC
        ARGFRAME DOVERLAY, 0, STATIC
        FUNCALL zllInitiator_StartDevDisc, ZDApp_StopJoiningCycle
        LOCFRAME ISTACK, 0, STACK
        LOCFRAME PSTACK, 0, STACK
        LOCFRAME XSTACK, 17, STACK
        LOCFRAME IOVERLAY, 0, STATIC
        LOCFRAME DOVERLAY, 0, STATIC
        ARGFRAME ISTACK, 0, STACK
        ARGFRAME PSTACK, 0, STACK
        ARGFRAME XSTACK, 17, STACK
        ARGFRAME IOVERLAY, 0, STATIC
        ARGFRAME DOVERLAY, 0, STATIC
        FUNCALL zllInitiator_StartDevDisc, zllInitiator_AbortTL
        LOCFRAME ISTACK, 0, STACK
        LOCFRAME PSTACK, 0, STACK
        LOCFRAME XSTACK, 17, STACK
        LOCFRAME IOVERLAY, 0, STATIC
        LOCFRAME DOVERLAY, 0, STATIC
        ARGFRAME ISTACK, 0, STACK
        ARGFRAME PSTACK, 0, STACK
        ARGFRAME XSTACK, 17, STACK
        ARGFRAME IOVERLAY, 0, STATIC
        ARGFRAME DOVERLAY, 0, STATIC
        FUNCALL zllInitiator_StartDevDisc, osal_get_timeoutEx
        LOCFRAME ISTACK, 0, STACK
        LOCFRAME PSTACK, 0, STACK
        LOCFRAME XSTACK, 17, STACK
        LOCFRAME IOVERLAY, 0, STATIC
        LOCFRAME DOVERLAY, 0, STATIC
        ARGFRAME ISTACK, 0, STACK
        ARGFRAME PSTACK, 0, STACK
        ARGFRAME XSTACK, 17, STACK
        ARGFRAME IOVERLAY, 0, STATIC
        ARGFRAME DOVERLAY, 0, STATIC
        FUNCALL zllInitiator_StartDevDisc, osal_rand
        LOCFRAME ISTACK, 0, STACK
        LOCFRAME PSTACK, 0, STACK
        LOCFRAME XSTACK, 17, STACK
        LOCFRAME IOVERLAY, 0, STATIC
        LOCFRAME DOVERLAY, 0, STATIC
        ARGFRAME ISTACK, 0, STACK
        ARGFRAME PSTACK, 0, STACK
        ARGFRAME XSTACK, 17, STACK
        ARGFRAME IOVERLAY, 0, STATIC
        ARGFRAME DOVERLAY, 0, STATIC
        FUNCALL zllInitiator_StartDevDisc, osal_rand
        LOCFRAME ISTACK, 0, STACK
        LOCFRAME PSTACK, 0, STACK
        LOCFRAME XSTACK, 17, STACK
        LOCFRAME IOVERLAY, 0, STATIC
        LOCFRAME DOVERLAY, 0, STATIC
        ARGFRAME ISTACK, 0, STACK
        ARGFRAME PSTACK, 0, STACK
        ARGFRAME XSTACK, 17, STACK
        ARGFRAME IOVERLAY, 0, STATIC
        ARGFRAME DOVERLAY, 0, STATIC
        FUNCALL zllInitiator_StartDevDisc, osal_start_timerEx
        LOCFRAME ISTACK, 0, STACK
        LOCFRAME PSTACK, 0, STACK
        LOCFRAME XSTACK, 21, STACK
        LOCFRAME IOVERLAY, 0, STATIC
        LOCFRAME DOVERLAY, 0, STATIC
        ARGFRAME ISTACK, 0, STACK
        ARGFRAME PSTACK, 0, STACK
        ARGFRAME XSTACK, 21, STACK
        ARGFRAME IOVERLAY, 0, STATIC
        ARGFRAME DOVERLAY, 0, STATIC
        FUNCALL zllInitiator_StartDevDisc, zll_IsFactoryNew
        LOCFRAME ISTACK, 0, STACK
        LOCFRAME PSTACK, 0, STACK
        LOCFRAME XSTACK, 17, STACK
        LOCFRAME IOVERLAY, 0, STATIC
        LOCFRAME DOVERLAY, 0, STATIC
        ARGFRAME ISTACK, 0, STACK
        ARGFRAME PSTACK, 0, STACK
        ARGFRAME XSTACK, 17, STACK
        ARGFRAME IOVERLAY, 0, STATIC
        ARGFRAME DOVERLAY, 0, STATIC
        FUNCALL zllInitiator_StartDevDisc, NLME_SetPollRate
        LOCFRAME ISTACK, 0, STACK
        LOCFRAME PSTACK, 0, STACK
        LOCFRAME XSTACK, 17, STACK
        LOCFRAME IOVERLAY, 0, STATIC
        LOCFRAME DOVERLAY, 0, STATIC
        ARGFRAME ISTACK, 0, STACK
        ARGFRAME PSTACK, 0, STACK
        ARGFRAME XSTACK, 17, STACK
        ARGFRAME IOVERLAY, 0, STATIC
        ARGFRAME DOVERLAY, 0, STATIC
        FUNCALL zllInitiator_StartDevDisc, NLME_SetQueuedPollRate
        LOCFRAME ISTACK, 0, STACK
        LOCFRAME PSTACK, 0, STACK
        LOCFRAME XSTACK, 17, STACK
        LOCFRAME IOVERLAY, 0, STATIC
        LOCFRAME DOVERLAY, 0, STATIC
        ARGFRAME ISTACK, 0, STACK
        ARGFRAME PSTACK, 0, STACK
        ARGFRAME XSTACK, 17, STACK
        ARGFRAME IOVERLAY, 0, STATIC
        ARGFRAME DOVERLAY, 0, STATIC
        FUNCALL zllInitiator_StartDevDisc, NLME_SetResponseRate
        LOCFRAME ISTACK, 0, STACK
        LOCFRAME PSTACK, 0, STACK
        LOCFRAME XSTACK, 17, STACK
        LOCFRAME IOVERLAY, 0, STATIC
        LOCFRAME DOVERLAY, 0, STATIC
        ARGFRAME ISTACK, 0, STACK
        ARGFRAME PSTACK, 0, STACK
        ARGFRAME XSTACK, 17, STACK
        ARGFRAME IOVERLAY, 0, STATIC
        ARGFRAME DOVERLAY, 0, STATIC
        FUNCALL zllInitiator_StartDevDisc, nwk_setStateIdle
        LOCFRAME ISTACK, 0, STACK
        LOCFRAME PSTACK, 0, STACK
        LOCFRAME XSTACK, 17, STACK
        LOCFRAME IOVERLAY, 0, STATIC
        LOCFRAME DOVERLAY, 0, STATIC
        ARGFRAME ISTACK, 0, STACK
        ARGFRAME PSTACK, 0, STACK
        ARGFRAME XSTACK, 17, STACK
        ARGFRAME IOVERLAY, 0, STATIC
        ARGFRAME DOVERLAY, 0, STATIC
        FUNCALL zllInitiator_StartDevDisc, ZMacGetReq
        LOCFRAME ISTACK, 0, STACK
        LOCFRAME PSTACK, 0, STACK
        LOCFRAME XSTACK, 17, STACK
        LOCFRAME IOVERLAY, 0, STATIC
        LOCFRAME DOVERLAY, 0, STATIC
        ARGFRAME ISTACK, 0, STACK
        ARGFRAME PSTACK, 0, STACK
        ARGFRAME XSTACK, 17, STACK
        ARGFRAME IOVERLAY, 0, STATIC
        ARGFRAME DOVERLAY, 0, STATIC
        FUNCALL zllInitiator_StartDevDisc, ZMacSetReq
        LOCFRAME ISTACK, 0, STACK
        LOCFRAME PSTACK, 0, STACK
        LOCFRAME XSTACK, 17, STACK
        LOCFRAME IOVERLAY, 0, STATIC
        LOCFRAME DOVERLAY, 0, STATIC
        ARGFRAME ISTACK, 0, STACK
        ARGFRAME PSTACK, 0, STACK
        ARGFRAME XSTACK, 17, STACK
        ARGFRAME IOVERLAY, 0, STATIC
        ARGFRAME DOVERLAY, 0, STATIC
        FUNCALL zllInitiator_StartDevDisc, initiatorSendScanReq
        LOCFRAME ISTACK, 0, STACK
        LOCFRAME PSTACK, 0, STACK
        LOCFRAME XSTACK, 17, STACK
        LOCFRAME IOVERLAY, 0, STATIC
        LOCFRAME DOVERLAY, 0, STATIC
        ARGFRAME ISTACK, 0, STACK
        ARGFRAME PSTACK, 0, STACK
        ARGFRAME XSTACK, 17, STACK
        ARGFRAME IOVERLAY, 0, STATIC
        ARGFRAME DOVERLAY, 0, STATIC
        MOV     A,#-0x10
        LCALL   ?BANKED_ENTER_XDATA
          CFI DPH0 load(1, XDATA, add(CFA_XSP16, literal(-1)))
          CFI DPL0 load(1, XDATA, add(CFA_XSP16, literal(-2)))
          CFI ?BRET_EXT load(1, XDATA, add(CFA_XSP16, literal(-3)))
          CFI ?RET_HIGH load(1, XDATA, add(CFA_XSP16, literal(-4)))
          CFI ?RET_LOW load(1, XDATA, add(CFA_XSP16, literal(-5)))
          CFI R7 load(1, XDATA, add(CFA_XSP16, literal(-6)))
          CFI V7 load(1, XDATA, add(CFA_XSP16, literal(-7)))
          CFI V6 load(1, XDATA, add(CFA_XSP16, literal(-8)))
          CFI V5 load(1, XDATA, add(CFA_XSP16, literal(-9)))
          CFI V4 load(1, XDATA, add(CFA_XSP16, literal(-10)))
          CFI V3 load(1, XDATA, add(CFA_XSP16, literal(-11)))
          CFI V2 load(1, XDATA, add(CFA_XSP16, literal(-12)))
          CFI V1 load(1, XDATA, add(CFA_XSP16, literal(-13)))
          CFI V0 load(1, XDATA, add(CFA_XSP16, literal(-14)))
          CFI VB load(1, XDATA, add(CFA_XSP16, literal(-15)))
          CFI R6 load(1, XDATA, add(CFA_XSP16, literal(-16)))
          CFI CFA_SP SP+0
          CFI CFA_XSP16 add(XSP16, 16)
        ; Saved register size: 16
        ; Auto size: 1
        MOV     A,#-0x1
        LCALL   ?ALLOC_XSTACK8
          CFI CFA_XSP16 add(XSP16, 17)
//  394   osal_clear_event( ZDAppTaskID, ZDO_NETWORK_INIT ); // in case orphaned rejoin was called
        ; Setup parameters for call to function osal_clear_event
        MOV     R2,#0x1
        MOV     R3,#0x0
        MOV     DPTR,#ZDAppTaskID
        MOVX    A,@DPTR
        MOV     R1,A
        LCALL   ??osal_clear_event?relay
//  395   ZDApp_StopJoiningCycle();
        ; Setup parameters for call to function ZDApp_StopJoiningCycle
        LCALL   ??ZDApp_StopJoiningCycle?relay
//  396   zllHAScanInitiated = FALSE;
        MOV     DPTR,#zllHAScanInitiated
        CLR     A
        MOVX    @DPTR,A
//  397   //abort any touchlink in progress and start the new dev discovery.
//  398   zllInitiator_AbortTL();
        ; Setup parameters for call to function zllInitiator_AbortTL
        LCALL   ??zllInitiator_AbortTL?relay
//  399 
//  400   // To perform device discovery, switch to channel 11 and broadcast five
//  401   // consecutive inter-PAN Scan Requests. Then switch to each remaining
//  402   // ZLL channels in turn (i.e., 15, 20, and 25) and broadcast a single
//  403   // inter-PAN Scan Request on each channel.
//  404   if ( !osal_get_timeoutEx( zllInitiator_TaskID, ZLL_TL_SCAN_BASE_EVT ) )
        ; Setup parameters for call to function osal_get_timeoutEx
        MOV     R2,#0x40
        MOV     R3,#0x0
        MOV     DPTR,#zllInitiator_TaskID
        MOVX    A,@DPTR
        MOV     R1,A
        LCALL   ??osal_get_timeoutEx?relay
        MOV     A,R2
        ORL     A,R3
        ORL     A,R4
        ORL     A,R5
        JZ      $+5
        LJMP    ??zllInitiator_StartDevDisc_0 & 0xFFFF
//  405   {
//  406     uint8 x = TRUE;
        MOV     DPL,?XSP + 0
        MOV     DPH,?XSP + 1
        MOV     A,#0x1
        MOVX    @DPTR,A
//  407 
//  408     // Generate a new Transaction Id
//  409     zllTransID = ( ( (uint32)osal_rand() ) << 16 ) + osal_rand();
        ; Setup parameters for call to function osal_rand
        LCALL   ??osal_rand?relay
        MOV     ?V0 + 4,R2
        MOV     ?V0 + 5,R3
        CLR     A
        MOV     ?V0 + 6,A
        MOV     ?V0 + 7,A
        MOV     A,#0x10
        MOV     R0,#?V0 + 4
        LCALL   ?L_SHL
        ; Setup parameters for call to function osal_rand
        LCALL   ??osal_rand?relay
        MOV     ?V0 + 0,R2
        MOV     ?V0 + 1,R3
        CLR     A
        MOV     ?V0 + 2,A
        MOV     ?V0 + 3,A
        MOV     R0,#?V0 + 4
        MOV     R1,#?V0 + 0
        LCALL   ?L_ADD
        MOV     DPTR,#zllTransID
        MOV     R0,#?V0 + 4
        LCALL   ?L_MOV_TO_X
//  410     osal_start_timerEx( zllInitiator_TaskID, ZLL_TRANS_LIFETIME_EXPIRED_EVT,
//  411                         ZLL_APLC_INTER_PAN_TRANS_ID_LIFETIME );
        ; Setup parameters for call to function osal_start_timerEx
        MOV     DPTR,#__Constant_1f40
        LCALL   ?PUSH_XSTACK8_X_FOUR
          CFI CFA_XSP16 add(XSP16, 21)
        MOV     R2,#0x20
        MOV     R3,#0x0
        MOV     DPTR,#zllInitiator_TaskID
        MOVX    A,@DPTR
        MOV     R1,A
        LCALL   ??osal_start_timerEx?relay
        MOV     A,#0x4
        LCALL   ?DEALLOC_XSTACK8
          CFI CFA_XSP16 add(XSP16, 17)
//  412 
//  413     if ( !zll_IsFactoryNew() )
        ; Setup parameters for call to function zll_IsFactoryNew
        LCALL   ??zll_IsFactoryNew?relay
        MOV     A,R1
        JNZ     ??zllInitiator_StartDevDisc_1
//  414     {
//  415       // Turn off polling during touch-link procedure
//  416       savedPollRate = zgPollRate;
        MOV     DPTR,#zgPollRate
        LCALL   ??Subroutine42_0 & 0xFFFF
??CrossCallReturnLabel_74:
        MOV     DPTR,#savedPollRate
        LCALL   ??Subroutine39_0 & 0xFFFF
//  417       savedQueuedPollRate = zgQueuedPollRate;
??CrossCallReturnLabel_54:
        MOV     DPTR,#zgQueuedPollRate
        LCALL   ??Subroutine42_0 & 0xFFFF
??CrossCallReturnLabel_75:
        MOV     DPTR,#savedQueuedPollRate
        LCALL   ??Subroutine39_0 & 0xFFFF
//  418       savedResponsePollRate = zgResponsePollRate;
??CrossCallReturnLabel_55:
        MOV     DPTR,#zgResponsePollRate
        LCALL   ??Subroutine42_0 & 0xFFFF
??CrossCallReturnLabel_76:
        MOV     DPTR,#savedResponsePollRate
        LCALL   ??Subroutine39_0 & 0xFFFF
//  419 
//  420       NLME_SetPollRate( 0 );
??CrossCallReturnLabel_56:
        ; Setup parameters for call to function NLME_SetPollRate
        MOV     R2,#0x0
        MOV     R3,#0x0
        LCALL   ??NLME_SetPollRate?relay
//  421       NLME_SetQueuedPollRate( 0 );
        ; Setup parameters for call to function NLME_SetQueuedPollRate
        MOV     R2,#0x0
        MOV     R3,#0x0
        LCALL   ??NLME_SetQueuedPollRate?relay
//  422       NLME_SetResponseRate( 0 );
        ; Setup parameters for call to function NLME_SetResponseRate
        MOV     R2,#0x0
        MOV     R3,#0x0
        LCALL   ??NLME_SetResponseRate?relay
//  423     }
//  424 
//  425     // Set NWK task to idle
//  426     nwk_setStateIdle( TRUE );
??zllInitiator_StartDevDisc_1:
        ; Setup parameters for call to function nwk_setStateIdle
        MOV     R1,#0x1
        LCALL   ??nwk_setStateIdle?relay
//  427 
//  428     // Remember current rx state
//  429     ZMacGetReq( ZMacRxOnIdle, &savedRxOnIdle );
        ; Setup parameters for call to function ZMacGetReq
        MOV     R2,#savedRxOnIdle & 0xff
        MOV     R3,#(savedRxOnIdle >> 8) & 0xff
        MOV     R1,#0x52
        LCALL   ??ZMacGetReq?relay
//  430 
//  431     // MAC receiver should be on during touch-link procedure
//  432     ZMacSetReq( ZMacRxOnIdle, &x );
        ; Setup parameters for call to function ZMacSetReq
        MOV     DPL,?XSP + 0
        MOV     DPH,?XSP + 1
        MOV     R2,DPL
        MOV     R3,DPH
        MOV     R1,#0x52
        LCALL   ??ZMacSetReq?relay
//  433 
//  434     scanReqChannels = ZLL_SCAN_PRIMARY_CHANNELS;
        MOV     DPTR,#scanReqChannels
        MOV     A,#0x1
        MOVX    @DPTR,A
//  435     numScanReqSent = 0;
        MOV     DPTR,#numScanReqSent
        CLR     A
        MOVX    @DPTR,A
//  436 
//  437     // Send out the first Scan Request
//  438     initiatorSendScanReq( TRUE );
        ; Setup parameters for call to function initiatorSendScanReq
        MOV     R1,#0x1
        LCALL   ??initiatorSendScanReq?relay
//  439 
//  440     return ( ZSuccess );
        MOV     R1,#0x0
        SJMP    ??zllInitiator_StartDevDisc_2
//  441   }
//  442 
//  443   return ( ZFailure );
??zllInitiator_StartDevDisc_0:
        MOV     R1,#0x1
??zllInitiator_StartDevDisc_2:
        MOV     A,#0x1
          CFI EndBlock cfiBlock14
        REQUIRE ?Subroutine1
        ; // Fall through to label ?Subroutine1
//  444 }

        RSEG BANKED_CODE:CODE:NOROOT(0)
?Subroutine1:
          CFI Block cfiBlock15 Using cfiCommon0
          CFI NoFunction
          CFI CFA_SP SP+0
          CFI CFA_XSP16 add(XSP16, 17)
          CFI VB load(1, XDATA, add(CFA_XSP16, literal(-15)))
          CFI DPL0 load(1, XDATA, add(CFA_XSP16, literal(-2)))
          CFI DPH0 load(1, XDATA, add(CFA_XSP16, literal(-1)))
          CFI R6 load(1, XDATA, add(CFA_XSP16, literal(-16)))
          CFI R7 load(1, XDATA, add(CFA_XSP16, literal(-6)))
          CFI V0 load(1, XDATA, add(CFA_XSP16, literal(-14)))
          CFI V1 load(1, XDATA, add(CFA_XSP16, literal(-13)))
          CFI V2 load(1, XDATA, add(CFA_XSP16, literal(-12)))
          CFI V3 load(1, XDATA, add(CFA_XSP16, literal(-11)))
          CFI V4 load(1, XDATA, add(CFA_XSP16, literal(-10)))
          CFI V5 load(1, XDATA, add(CFA_XSP16, literal(-9)))
          CFI V6 load(1, XDATA, add(CFA_XSP16, literal(-8)))
          CFI V7 load(1, XDATA, add(CFA_XSP16, literal(-7)))
          CFI ?BRET_EXT load(1, XDATA, add(CFA_XSP16, literal(-3)))
          CFI ?RET_HIGH load(1, XDATA, add(CFA_XSP16, literal(-4)))
          CFI ?RET_LOW load(1, XDATA, add(CFA_XSP16, literal(-5)))
          CFI Invalid
        LCALL   ?DEALLOC_XSTACK8
          CFI CFA_XSP16 add(XSP16, 16)
          CFI Valid
        MOV     R7,#0x8
        LJMP    ?BANKED_LEAVE_XDATA
          CFI EndBlock cfiBlock15
//  445 
//  446 /*********************************************************************
//  447  * @fn      zllInitiator_AbortTL
//  448  *
//  449  * @brief   Abort Touch-link device discovery.
//  450  *          Successful execution could be done before Network Start/Join
//  451  *          commands are sent. Until then, since no device parameters
//  452  *          such as network settings are altered, the Touch-Link is
//  453  *          still reversible.
//  454  *
//  455  * @param   none
//  456  *
//  457  * @return  status
//  458  */

        RSEG BANKED_CODE:CODE:NOROOT(0)
//  459 ZStatus_t zllInitiator_AbortTL( void )
zllInitiator_AbortTL:
          CFI Block cfiBlock16 Using cfiCommon0
          CFI Function zllInitiator_AbortTL
        CODE
//  460 {
        FUNCALL zllInitiator_AbortTL, osal_stop_timerEx
        LOCFRAME ISTACK, 0, STACK
        LOCFRAME PSTACK, 0, STACK
        LOCFRAME XSTACK, 9, STACK
        LOCFRAME IOVERLAY, 0, STATIC
        LOCFRAME DOVERLAY, 0, STATIC
        ARGFRAME ISTACK, 0, STACK
        ARGFRAME PSTACK, 0, STACK
        ARGFRAME XSTACK, 9, STACK
        ARGFRAME IOVERLAY, 0, STATIC
        ARGFRAME DOVERLAY, 0, STATIC
        FUNCALL zllInitiator_AbortTL, osal_stop_timerEx
        LOCFRAME ISTACK, 0, STACK
        LOCFRAME PSTACK, 0, STACK
        LOCFRAME XSTACK, 9, STACK
        LOCFRAME IOVERLAY, 0, STATIC
        LOCFRAME DOVERLAY, 0, STATIC
        ARGFRAME ISTACK, 0, STACK
        ARGFRAME PSTACK, 0, STACK
        ARGFRAME XSTACK, 9, STACK
        ARGFRAME IOVERLAY, 0, STATIC
        ARGFRAME DOVERLAY, 0, STATIC
        FUNCALL zllInitiator_AbortTL, osal_stop_timerEx
        LOCFRAME ISTACK, 0, STACK
        LOCFRAME PSTACK, 0, STACK
        LOCFRAME XSTACK, 9, STACK
        LOCFRAME IOVERLAY, 0, STATIC
        LOCFRAME DOVERLAY, 0, STATIC
        ARGFRAME ISTACK, 0, STACK
        ARGFRAME PSTACK, 0, STACK
        ARGFRAME XSTACK, 9, STACK
        ARGFRAME IOVERLAY, 0, STATIC
        ARGFRAME DOVERLAY, 0, STATIC
        FUNCALL zllInitiator_AbortTL, osal_stop_timerEx
        LOCFRAME ISTACK, 0, STACK
        LOCFRAME PSTACK, 0, STACK
        LOCFRAME XSTACK, 9, STACK
        LOCFRAME IOVERLAY, 0, STATIC
        LOCFRAME DOVERLAY, 0, STATIC
        ARGFRAME ISTACK, 0, STACK
        ARGFRAME PSTACK, 0, STACK
        ARGFRAME XSTACK, 9, STACK
        ARGFRAME IOVERLAY, 0, STATIC
        ARGFRAME DOVERLAY, 0, STATIC
        FUNCALL zllInitiator_AbortTL, initiatorSetNwkToInitState
        LOCFRAME ISTACK, 0, STACK
        LOCFRAME PSTACK, 0, STACK
        LOCFRAME XSTACK, 9, STACK
        LOCFRAME IOVERLAY, 0, STATIC
        LOCFRAME DOVERLAY, 0, STATIC
        ARGFRAME ISTACK, 0, STACK
        ARGFRAME PSTACK, 0, STACK
        ARGFRAME XSTACK, 9, STACK
        ARGFRAME IOVERLAY, 0, STATIC
        ARGFRAME DOVERLAY, 0, STATIC
        FUNCALL zllInitiator_AbortTL, initiatorClearSelectedTarget
        LOCFRAME ISTACK, 0, STACK
        LOCFRAME PSTACK, 0, STACK
        LOCFRAME XSTACK, 9, STACK
        LOCFRAME IOVERLAY, 0, STATIC
        LOCFRAME DOVERLAY, 0, STATIC
        ARGFRAME ISTACK, 0, STACK
        ARGFRAME PSTACK, 0, STACK
        ARGFRAME XSTACK, 9, STACK
        ARGFRAME IOVERLAY, 0, STATIC
        ARGFRAME DOVERLAY, 0, STATIC
        MOV     A,#-0x9
        LCALL   ?BANKED_ENTER_XDATA
          CFI DPH0 load(1, XDATA, add(CFA_XSP16, literal(-1)))
          CFI DPL0 load(1, XDATA, add(CFA_XSP16, literal(-2)))
          CFI ?BRET_EXT load(1, XDATA, add(CFA_XSP16, literal(-3)))
          CFI ?RET_HIGH load(1, XDATA, add(CFA_XSP16, literal(-4)))
          CFI ?RET_LOW load(1, XDATA, add(CFA_XSP16, literal(-5)))
          CFI R7 load(1, XDATA, add(CFA_XSP16, literal(-6)))
          CFI V0 load(1, XDATA, add(CFA_XSP16, literal(-7)))
          CFI VB load(1, XDATA, add(CFA_XSP16, literal(-8)))
          CFI R6 load(1, XDATA, add(CFA_XSP16, literal(-9)))
          CFI CFA_SP SP+0
          CFI CFA_XSP16 add(XSP16, 9)
        ; Saved register size: 9
        ; Auto size: 0
//  461   if ( ( osal_stop_timerEx( zllInitiator_TaskID, ZLL_TL_SCAN_BASE_EVT ) == SUCCESS )
//  462        || ( osal_stop_timerEx( zllInitiator_TaskID, ZLL_CFG_TARGET_EVT ) == SUCCESS )
//  463        || ( osal_stop_timerEx( zllInitiator_TaskID, ZLL_W4_NWK_START_RSP_EVT ) == SUCCESS )
//  464        || ( osal_stop_timerEx( zllInitiator_TaskID, ZLL_W4_NWK_JOIN_RSP_EVT ) == SUCCESS ) )
        ; Setup parameters for call to function osal_stop_timerEx
        MOV     R2,#0x40
        MOV     R3,#0x0
        MOV     DPTR,#zllInitiator_TaskID
        MOVX    A,@DPTR
        MOV     R1,A
        LCALL   ??osal_stop_timerEx?relay
        MOV     A,R1
        JZ      ??zllInitiator_AbortTL_0
        ; Setup parameters for call to function osal_stop_timerEx
        MOV     R2,#-0x80
        MOV     R3,#0x0
        MOV     DPTR,#zllInitiator_TaskID
        MOVX    A,@DPTR
        MOV     R1,A
        LCALL   ??osal_stop_timerEx?relay
        MOV     A,R1
        JZ      ??zllInitiator_AbortTL_0
        ; Setup parameters for call to function osal_stop_timerEx
        MOV     R2,#0x0
        MOV     R3,#0x1
        MOV     DPTR,#zllInitiator_TaskID
        MOVX    A,@DPTR
        MOV     R1,A
        LCALL   ??osal_stop_timerEx?relay
        MOV     A,R1
        JZ      ??zllInitiator_AbortTL_0
        ; Setup parameters for call to function osal_stop_timerEx
        MOV     R2,#0x0
        MOV     R3,#0x2
        MOV     DPTR,#zllInitiator_TaskID
        MOVX    A,@DPTR
        MOV     R1,A
        LCALL   ??osal_stop_timerEx?relay
        MOV     A,R1
        JNZ     ??zllInitiator_AbortTL_1
//  465   {
//  466     initiatorSetNwkToInitState();
??zllInitiator_AbortTL_0:
        ; Setup parameters for call to function initiatorSetNwkToInitState
        LCALL   ??initiatorSetNwkToInitState?relay
//  467     zllTransID = 0;
        MOV     DPTR,#zllTransID
        CLR     A
        MOVX    @DPTR,A
        INC     DPTR
        MOVX    @DPTR,A
        INC     DPTR
        MOVX    @DPTR,A
        INC     DPTR
        MOVX    @DPTR,A
//  468     numScanReqSent = 0;
        MOV     DPTR,#numScanReqSent
        MOVX    @DPTR,A
//  469     initiatorClearSelectedTarget();
        ; Setup parameters for call to function initiatorClearSelectedTarget
        LCALL   ??initiatorClearSelectedTarget?relay
//  470 
//  471     return ( ZSuccess );
        MOV     R1,#0x0
        SJMP    ??zllInitiator_AbortTL_2
//  472   }
//  473 
//  474   return ( ZFailure );
??zllInitiator_AbortTL_1:
        MOV     R1,#0x1
??zllInitiator_AbortTL_2:
        LJMP    ?Subroutine2 & 0xFFFF
          CFI EndBlock cfiBlock16
//  475 }
//  476 
//  477 /*********************************************************************
//  478  * @fn      initiatorProcessStateChange
//  479  *
//  480  * @brief   Process ZDO device state change
//  481  *
//  482  * @param   state - The device's network state
//  483  *
//  484  * @return  none
//  485  */
//  486 static void initiatorProcessStateChange( devStates_t state )
//  487 {
//  488   if ( ( state == DEV_ROUTER ) || ( state == DEV_END_DEVICE ) )
//  489   {
//  490     // Save the latest NIB to update our parent's address
//  491     zll_UpdateNV( ZLL_UPDATE_NV_NIB );
//  492 
//  493     if ( ZSTACK_ROUTER_BUILD )
//  494     {
//  495       ZDP_DeviceAnnce( NLME_GetShortAddr(), NLME_GetExtAddr(),
//  496                        ZDO_Config_Node_Descriptor.CapabilityFlags, 0 );
//  497     }
//  498 
//  499     // We found our parent
//  500     osal_stop_timerEx( zllInitiator_TaskID, ZLL_W4_REJOIN_EVT );
//  501   }
//  502   else if ( ( state == DEV_NWK_ORPHAN ) || ( state == DEV_NWK_DISC ) )
//  503   {
//  504     // Device has lost information about its parent; give it some time to rejoin
//  505     if ( !osal_get_timeoutEx( zllInitiator_TaskID, ZLL_W4_REJOIN_EVT ) )
//  506     {
//  507       osal_start_timerEx( zllInitiator_TaskID, ZLL_W4_REJOIN_EVT,
//  508                           (NUM_DISC_ATTEMPTS + 1) * ZLL_INITIATOR_REJOIN_TIMEOUT );
//  509     }
//  510   }
//  511 }
//  512 
//  513 /*********************************************************************
//  514  * @fn          zllInitiator_Init
//  515  *
//  516  * @brief       Initialization function for the ZLL Initiator task.
//  517  *
//  518  * @param       task_id - ZLL Initiator task id
//  519  *
//  520  * @return      none
//  521  */

        RSEG BANKED_CODE:CODE:NOROOT(0)
//  522 void zllInitiator_Init( uint8 task_id )
zllInitiator_Init:
          CFI Block cfiBlock17 Using cfiCommon0
          CFI Function zllInitiator_Init
        CODE
//  523 {
        FUNCALL zllInitiator_Init, zll_SetZllTaskId
        LOCFRAME ISTACK, 0, STACK
        LOCFRAME PSTACK, 0, STACK
        LOCFRAME XSTACK, 9, STACK
        LOCFRAME IOVERLAY, 0, STATIC
        LOCFRAME DOVERLAY, 0, STATIC
        ARGFRAME ISTACK, 0, STACK
        ARGFRAME PSTACK, 0, STACK
        ARGFRAME XSTACK, 9, STACK
        ARGFRAME IOVERLAY, 0, STATIC
        ARGFRAME DOVERLAY, 0, STATIC
        FUNCALL zllInitiator_Init, zll_InitVariables
        LOCFRAME ISTACK, 0, STACK
        LOCFRAME PSTACK, 0, STACK
        LOCFRAME XSTACK, 9, STACK
        LOCFRAME IOVERLAY, 0, STATIC
        LOCFRAME DOVERLAY, 0, STATIC
        ARGFRAME ISTACK, 0, STACK
        ARGFRAME PSTACK, 0, STACK
        ARGFRAME XSTACK, 9, STACK
        ARGFRAME IOVERLAY, 0, STATIC
        ARGFRAME DOVERLAY, 0, STATIC
        FUNCALL zllInitiator_Init, initiatorClearSelectedTarget
        LOCFRAME ISTACK, 0, STACK
        LOCFRAME PSTACK, 0, STACK
        LOCFRAME XSTACK, 9, STACK
        LOCFRAME IOVERLAY, 0, STATIC
        LOCFRAME DOVERLAY, 0, STATIC
        ARGFRAME ISTACK, 0, STACK
        ARGFRAME PSTACK, 0, STACK
        ARGFRAME XSTACK, 9, STACK
        ARGFRAME IOVERLAY, 0, STATIC
        ARGFRAME DOVERLAY, 0, STATIC
        FUNCALL zllInitiator_Init, zcl_registerForMsg
        LOCFRAME ISTACK, 0, STACK
        LOCFRAME PSTACK, 0, STACK
        LOCFRAME XSTACK, 9, STACK
        LOCFRAME IOVERLAY, 0, STATIC
        LOCFRAME DOVERLAY, 0, STATIC
        ARGFRAME ISTACK, 0, STACK
        ARGFRAME PSTACK, 0, STACK
        ARGFRAME XSTACK, 9, STACK
        ARGFRAME IOVERLAY, 0, STATIC
        ARGFRAME DOVERLAY, 0, STATIC
        FUNCALL zllInitiator_Init, zclLL_RegisterInterPANCmdCallbacks
        LOCFRAME ISTACK, 0, STACK
        LOCFRAME PSTACK, 0, STACK
        LOCFRAME XSTACK, 9, STACK
        LOCFRAME IOVERLAY, 0, STATIC
        LOCFRAME DOVERLAY, 0, STATIC
        ARGFRAME ISTACK, 0, STACK
        ARGFRAME PSTACK, 0, STACK
        ARGFRAME XSTACK, 9, STACK
        ARGFRAME IOVERLAY, 0, STATIC
        ARGFRAME DOVERLAY, 0, STATIC
        FUNCALL zllInitiator_Init, ZDO_RegisterForZdoCB
        LOCFRAME ISTACK, 0, STACK
        LOCFRAME PSTACK, 0, STACK
        LOCFRAME XSTACK, 9, STACK
        LOCFRAME IOVERLAY, 0, STATIC
        LOCFRAME DOVERLAY, 0, STATIC
        ARGFRAME ISTACK, 0, STACK
        ARGFRAME PSTACK, 0, STACK
        ARGFRAME XSTACK, 9, STACK
        ARGFRAME IOVERLAY, 0, STATIC
        ARGFRAME DOVERLAY, 0, STATIC
        FUNCALL zllInitiator_Init, ZDO_RegisterForZDOMsg
        LOCFRAME ISTACK, 0, STACK
        LOCFRAME PSTACK, 0, STACK
        LOCFRAME XSTACK, 9, STACK
        LOCFRAME IOVERLAY, 0, STATIC
        LOCFRAME DOVERLAY, 0, STATIC
        ARGFRAME ISTACK, 0, STACK
        ARGFRAME PSTACK, 0, STACK
        ARGFRAME XSTACK, 9, STACK
        ARGFRAME IOVERLAY, 0, STATIC
        ARGFRAME DOVERLAY, 0, STATIC
        FUNCALL zllInitiator_Init, ZDO_RegisterForZDOMsg
        LOCFRAME ISTACK, 0, STACK
        LOCFRAME PSTACK, 0, STACK
        LOCFRAME XSTACK, 9, STACK
        LOCFRAME IOVERLAY, 0, STATIC
        LOCFRAME DOVERLAY, 0, STATIC
        ARGFRAME ISTACK, 0, STACK
        ARGFRAME PSTACK, 0, STACK
        ARGFRAME XSTACK, 9, STACK
        ARGFRAME IOVERLAY, 0, STATIC
        ARGFRAME DOVERLAY, 0, STATIC
        MOV     A,#-0x9
        LCALL   ?BANKED_ENTER_XDATA
          CFI DPH0 load(1, XDATA, add(CFA_XSP16, literal(-1)))
          CFI DPL0 load(1, XDATA, add(CFA_XSP16, literal(-2)))
          CFI ?BRET_EXT load(1, XDATA, add(CFA_XSP16, literal(-3)))
          CFI ?RET_HIGH load(1, XDATA, add(CFA_XSP16, literal(-4)))
          CFI ?RET_LOW load(1, XDATA, add(CFA_XSP16, literal(-5)))
          CFI R7 load(1, XDATA, add(CFA_XSP16, literal(-6)))
          CFI V0 load(1, XDATA, add(CFA_XSP16, literal(-7)))
          CFI VB load(1, XDATA, add(CFA_XSP16, literal(-8)))
          CFI R6 load(1, XDATA, add(CFA_XSP16, literal(-9)))
          CFI CFA_SP SP+0
          CFI CFA_XSP16 add(XSP16, 9)
        ; Saved register size: 9
        ; Auto size: 0
        MOV     A,R1
//  524   // Save our own Task ID
//  525   zllInitiator_TaskID = task_id;
        MOV     DPTR,#zllInitiator_TaskID
        MOVX    @DPTR,A
//  526 
//  527   zll_SetZllTaskId( zllInitiator_TaskID );
        ; Setup parameters for call to function zll_SetZllTaskId
        LCALL   ??zll_SetZllTaskId?relay
//  528 
//  529 
//  530   // Build a broadcast address for the Scan Request
//  531   bcastAddr.addrMode = afAddrBroadcast;
        MOV     DPTR,#bcastAddr + 8
        MOV     A,#0xf
        MOVX    @DPTR,A
//  532   bcastAddr.addr.shortAddr = NWK_BROADCAST_SHORTADDR_DEVALL;
        MOV     DPTR,#bcastAddr
        MOV     A,#-0x1
        MOVX    @DPTR,A
        INC     DPTR
        MOVX    @DPTR,A
//  533   bcastAddr.panId = 0xFFFF;
        MOV     DPTR,#bcastAddr + 10
        MOVX    @DPTR,A
        INC     DPTR
        MOVX    @DPTR,A
//  534   bcastAddr.endPoint = STUBAPS_INTER_PAN_EP;
        MOV     DPTR,#bcastAddr + 9
        DEC     A
        MOVX    @DPTR,A
//  535 
//  536   // Initialize ZLL common variables
//  537   zll_InitVariables( TRUE );
        ; Setup parameters for call to function zll_InitVariables
        MOV     R1,#0x1
        LCALL   ??zll_InitVariables?relay
//  538 
//  539   savedPollRate = POLL_RATE;
        MOV     DPTR,#savedPollRate
        MOV     A,#-0x18
        MOVX    @DPTR,A
        INC     DPTR
        MOV     A,#0x3
        MOVX    @DPTR,A
//  540   savedQueuedPollRate = QUEUED_POLL_RATE;
        MOV     DPTR,#savedQueuedPollRate
        MOV     A,#0x64
        MOVX    @DPTR,A
        INC     DPTR
        CLR     A
        MOVX    @DPTR,A
//  541   savedResponsePollRate = RESPONSE_POLL_RATE;
        MOV     DPTR,#savedResponsePollRate
        MOV     A,#0x64
        MOVX    @DPTR,A
        INC     DPTR
        CLR     A
        MOVX    @DPTR,A
//  542 
//  543   numScanReqSent = 0;
        MOV     DPTR,#numScanReqSent
        MOVX    @DPTR,A
//  544   initiatorClearSelectedTarget();
        ; Setup parameters for call to function initiatorClearSelectedTarget
        LCALL   ??initiatorClearSelectedTarget?relay
//  545   scanReqChannels = ZLL_SCAN_PRIMARY_CHANNELS;
        MOV     DPTR,#scanReqChannels
        MOV     A,#0x1
        MOVX    @DPTR,A
//  546 
//  547   initiatorSeqNum = 0;
        MOV     DPTR,#initiatorSeqNum
        CLR     A
        MOVX    @DPTR,A
//  548 
//  549   // Register to receive the unprocessed Foundation command/response messages
//  550   zcl_registerForMsg( zllInitiator_TaskID );
        ; Setup parameters for call to function zcl_registerForMsg
        MOV     DPTR,#zllInitiator_TaskID
        MOVX    A,@DPTR
        MOV     R1,A
        LCALL   ??zcl_registerForMsg?relay
//  551 
//  552   // Register for ZLL Initiator callbacks (for Inter-PAN commands)
//  553   zclLL_RegisterInterPANCmdCallbacks( &zllInitiator_CmdCBs );
        ; Setup parameters for call to function zclLL_RegisterInterPANCmdCallbacks
        MOV     R2,#zllInitiator_CmdCBs & 0xff
        MOV     R3,#(zllInitiator_CmdCBs >> 8) & 0xff
        LCALL   ??zclLL_RegisterInterPANCmdCallbacks?relay
//  554 
//  555   // Register for Initiator to receive Leave Confirm
//  556   ZDO_RegisterForZdoCB( ZDO_LEAVE_CNF_CBID, initiatorZdoLeaveCnfCB );
        ; Setup parameters for call to function ZDO_RegisterForZdoCB
        MOV     R2,#??initiatorZdoLeaveCnfCB?relay & 0xff
        MOV     R3,#(??initiatorZdoLeaveCnfCB?relay >> 8) & 0xff
        MOV     R1,#0x5
        LCALL   ??ZDO_RegisterForZdoCB?relay
//  557 
//  558 #if (ZSTACK_ROUTER_BUILD)
//  559   // Register to process ZDO messages
//  560   ZDO_RegisterForZDOMsg( zllInitiator_TaskID, Mgmt_Permit_Join_req );
        ; Setup parameters for call to function ZDO_RegisterForZDOMsg
        MOV     R2,#0x36
        MOV     R3,#0x0
        MOV     DPTR,#zllInitiator_TaskID
        MOVX    A,@DPTR
        MOV     R1,A
        LCALL   ??ZDO_RegisterForZDOMsg?relay
//  561   ZDO_RegisterForZDOMsg( zllInitiator_TaskID, Device_annce );
        ; Setup parameters for call to function ZDO_RegisterForZDOMsg
        MOV     R2,#0x13
        MOV     R3,#0x0
        MOV     DPTR,#zllInitiator_TaskID
        MOVX    A,@DPTR
        MOV     R1,A
        LCALL   ??ZDO_RegisterForZDOMsg?relay
//  562 #endif
//  563 }
        LJMP    ?Subroutine2 & 0xFFFF
          CFI EndBlock cfiBlock17
//  564 
//  565 /*********************************************************************
//  566  * @fn      zllInitiator_RegisterApp
//  567  *
//  568  * @brief   Register an Application's EndPoint with the ZLL profile.
//  569  *
//  570  * @param   simpleDesc - application simple description
//  571  * @param   pDeviceInfo - ZLL application device info
//  572  *
//  573  * @return  ZSuccess - Registered
//  574  *          ZInvalidParameter - invalid or duplicate endpoint
//  575  *          ZMemError - not enough memory to add
//  576  */

        RSEG BANKED_CODE:CODE:NOROOT(0)
//  577 ZStatus_t zllInitiator_RegisterApp( SimpleDescriptionFormat_t *simpleDesc, zclLLDeviceInfo_t *pDeviceInfo )
zllInitiator_RegisterApp:
          CFI Block cfiBlock18 Using cfiCommon0
          CFI Function zllInitiator_RegisterApp
        CODE
//  578 {
        FUNCALL zllInitiator_RegisterApp, zll_RegisterApp
        LOCFRAME ISTACK, 2, STACK
        LOCFRAME PSTACK, 0, STACK
        LOCFRAME XSTACK, 0, STACK
        LOCFRAME IOVERLAY, 0, STATIC
        LOCFRAME DOVERLAY, 0, STATIC
        ARGFRAME ISTACK, 2, STACK
        ARGFRAME PSTACK, 0, STACK
        ARGFRAME XSTACK, 0, STACK
        ARGFRAME IOVERLAY, 0, STATIC
        ARGFRAME DOVERLAY, 0, STATIC
        PUSH    DPL
          CFI DPL0 Frame(CFA_SP, 4)
          CFI CFA_SP SP+-4
        PUSH    DPH
          CFI DPH0 Frame(CFA_SP, 5)
          CFI CFA_SP SP+-5
        ; Saved register size: 2
        ; Auto size: 0
//  579   return zll_RegisterApp( simpleDesc, pDeviceInfo );
        ; Setup parameters for call to function zll_RegisterApp
        LCALL   ??zll_RegisterApp?relay
        SJMP    ??Subroutine35_0
          CFI EndBlock cfiBlock18
//  580 }

        RSEG BANKED_CODE:CODE:NOROOT(0)
?Subroutine0:
          CFI Block cfiBlock19 Using cfiCommon0
          CFI NoFunction
          CFI CFA_SP SP+-5
          CFI DPL0 Frame(CFA_SP, 4)
          CFI DPH0 Frame(CFA_SP, 5)
        MOV     A,R2
        MOVX    @DPTR,A
        INC     DPTR
        MOV     A,R3
          CFI EndBlock cfiBlock19
        REQUIRE ??Subroutine34_0
        ; // Fall through to label ??Subroutine34_0

        RSEG BANKED_CODE:CODE:NOROOT(0)
??Subroutine34_0:
          CFI Block cfiBlock20 Using cfiCommon0
          CFI NoFunction
          CFI CFA_SP SP+-5
          CFI DPL0 Frame(CFA_SP, 4)
          CFI DPH0 Frame(CFA_SP, 5)
        MOVX    @DPTR,A
          CFI EndBlock cfiBlock20
        REQUIRE ??Subroutine35_0
        ; // Fall through to label ??Subroutine35_0

        RSEG BANKED_CODE:CODE:NOROOT(0)
??Subroutine35_0:
          CFI Block cfiBlock21 Using cfiCommon0
          CFI NoFunction
          CFI CFA_SP SP+-5
          CFI DPL0 Frame(CFA_SP, 4)
          CFI DPH0 Frame(CFA_SP, 5)
        POP     DPH
          CFI CFA_SP SP+-4
          CFI DPH0 SameValue
        POP     DPL
          CFI CFA_SP SP+-3
          CFI DPL0 SameValue
        LJMP    ?BRET
          CFI EndBlock cfiBlock21
//  581 
//  582 /*********************************************************************
//  583  * @fn      zllInitiator_RegisterForMsg
//  584  *
//  585  * @brief   Register application task to receive unprocessed messages
//  586  *          received by the initiator endpoint.
//  587  *
//  588  * @param   taskId - task Id of the Application where commands will be sent to
//  589  *
//  590  * @return  ZSuccess if task registration successful
//  591  *********************************************************************/

        RSEG BANKED_CODE:CODE:NOROOT(0)
//  592 ZStatus_t zllInitiator_RegisterForMsg( uint8 taskId )
zllInitiator_RegisterForMsg:
          CFI Block cfiBlock22 Using cfiCommon0
          CFI Function zllInitiator_RegisterForMsg
        CODE
//  593 {
        PUSH    DPL
          CFI DPL0 Frame(CFA_SP, 4)
          CFI CFA_SP SP+-4
        PUSH    DPH
          CFI DPH0 Frame(CFA_SP, 5)
          CFI CFA_SP SP+-5
        ; Saved register size: 2
        ; Auto size: 0
        MOV     A,R1
        MOV     R0,A
//  594   if ( initiatorRegisteredMsgAppTaskID == TASK_NO_TASK )
        MOV     DPTR,#initiatorRegisteredMsgAppTaskID
        MOVX    A,@DPTR
        CPL     A
        JNZ     ??zllInitiator_RegisterForMsg_0
//  595   {
//  596     initiatorRegisteredMsgAppTaskID = taskId;
        MOV     A,R0
        MOVX    @DPTR,A
//  597     return ( ZSuccess );
        MOV     R1,#0x0
        SJMP    ??zllInitiator_RegisterForMsg_1
//  598   }
//  599   return ( ZFailure );
??zllInitiator_RegisterForMsg_0:
        MOV     R1,#0x1
??zllInitiator_RegisterForMsg_1:
        SJMP    ??Subroutine35_0
          CFI EndBlock cfiBlock22
//  600 }
//  601 
//  602 /*********************************************************************
//  603  * @fn          zllInitiator_event_loop
//  604  *
//  605  * @brief       Event Loop Processor for ZLL Initiator.
//  606  *
//  607  * @param       task_id - task id
//  608  * @param       events - event bitmap
//  609  *
//  610  * @return      unprocessed events
//  611  */

        RSEG BANKED_CODE:CODE:NOROOT(0)
//  612 uint16 zllInitiator_event_loop( uint8 task_id, uint16 events )
zllInitiator_event_loop:
          CFI Block cfiBlock23 Using cfiCommon0
          CFI Function zllInitiator_event_loop
        CODE
//  613 {
        FUNCALL zllInitiator_event_loop, osal_msg_receive
        LOCFRAME ISTACK, 0, STACK
        LOCFRAME PSTACK, 0, STACK
        LOCFRAME XSTACK, 30, STACK
        LOCFRAME IOVERLAY, 0, STATIC
        LOCFRAME DOVERLAY, 0, STATIC
        ARGFRAME ISTACK, 0, STACK
        ARGFRAME PSTACK, 0, STACK
        ARGFRAME XSTACK, 30, STACK
        ARGFRAME IOVERLAY, 0, STATIC
        ARGFRAME DOVERLAY, 0, STATIC
        FUNCALL zllInitiator_event_loop, zllInitiator_BridgeStartNetwork
        LOCFRAME ISTACK, 0, STACK
        LOCFRAME PSTACK, 0, STACK
        LOCFRAME XSTACK, 30, STACK
        LOCFRAME IOVERLAY, 0, STATIC
        LOCFRAME DOVERLAY, 0, STATIC
        ARGFRAME ISTACK, 0, STACK
        ARGFRAME PSTACK, 0, STACK
        ARGFRAME XSTACK, 30, STACK
        ARGFRAME IOVERLAY, 0, STATIC
        ARGFRAME DOVERLAY, 0, STATIC
        FUNCALL zllInitiator_event_loop, zll_PermitJoin
        LOCFRAME ISTACK, 0, STACK
        LOCFRAME PSTACK, 0, STACK
        LOCFRAME XSTACK, 30, STACK
        LOCFRAME IOVERLAY, 0, STATIC
        LOCFRAME DOVERLAY, 0, STATIC
        ARGFRAME ISTACK, 0, STACK
        ARGFRAME PSTACK, 0, STACK
        ARGFRAME XSTACK, 30, STACK
        ARGFRAME IOVERLAY, 0, STATIC
        ARGFRAME DOVERLAY, 0, STATIC
        FUNCALL zllInitiator_event_loop, zllInitiator_ResetToFNSelectedTarget
        LOCFRAME ISTACK, 0, STACK
        LOCFRAME PSTACK, 0, STACK
        LOCFRAME XSTACK, 30, STACK
        LOCFRAME IOVERLAY, 0, STATIC
        LOCFRAME DOVERLAY, 0, STATIC
        ARGFRAME ISTACK, 0, STACK
        ARGFRAME PSTACK, 0, STACK
        ARGFRAME XSTACK, 30, STACK
        ARGFRAME IOVERLAY, 0, STATIC
        ARGFRAME DOVERLAY, 0, STATIC
        FUNCALL zllInitiator_event_loop, zllInitiator_ClassicalCommissioningStart
        LOCFRAME ISTACK, 0, STACK
        LOCFRAME PSTACK, 0, STACK
        LOCFRAME XSTACK, 30, STACK
        LOCFRAME IOVERLAY, 0, STATIC
        LOCFRAME DOVERLAY, 0, STATIC
        ARGFRAME ISTACK, 0, STACK
        ARGFRAME PSTACK, 0, STACK
        ARGFRAME XSTACK, 30, STACK
        ARGFRAME IOVERLAY, 0, STATIC
        ARGFRAME DOVERLAY, 0, STATIC
        FUNCALL zllInitiator_event_loop, zllInitiator_ChannelChange
        LOCFRAME ISTACK, 0, STACK
        LOCFRAME PSTACK, 0, STACK
        LOCFRAME XSTACK, 30, STACK
        LOCFRAME IOVERLAY, 0, STATIC
        LOCFRAME DOVERLAY, 0, STATIC
        ARGFRAME ISTACK, 0, STACK
        ARGFRAME PSTACK, 0, STACK
        ARGFRAME XSTACK, 30, STACK
        ARGFRAME IOVERLAY, 0, STATIC
        ARGFRAME DOVERLAY, 0, STATIC
        FUNCALL zllInitiator_event_loop, zllInitiator_ResetToFactoryNew
        LOCFRAME ISTACK, 0, STACK
        LOCFRAME PSTACK, 0, STACK
        LOCFRAME XSTACK, 30, STACK
        LOCFRAME IOVERLAY, 0, STATIC
        LOCFRAME DOVERLAY, 0, STATIC
        ARGFRAME ISTACK, 0, STACK
        ARGFRAME PSTACK, 0, STACK
        ARGFRAME XSTACK, 30, STACK
        ARGFRAME IOVERLAY, 0, STATIC
        ARGFRAME DOVERLAY, 0, STATIC
        FUNCALL zllInitiator_event_loop, zllInitiator_StartDevDisc
        LOCFRAME ISTACK, 0, STACK
        LOCFRAME PSTACK, 0, STACK
        LOCFRAME XSTACK, 30, STACK
        LOCFRAME IOVERLAY, 0, STATIC
        LOCFRAME DOVERLAY, 0, STATIC
        ARGFRAME ISTACK, 0, STACK
        ARGFRAME PSTACK, 0, STACK
        ARGFRAME XSTACK, 30, STACK
        ARGFRAME IOVERLAY, 0, STATIC
        ARGFRAME DOVERLAY, 0, STATIC
        FUNCALL zllInitiator_event_loop, zll_RouterProcessZDOMsg
        LOCFRAME ISTACK, 0, STACK
        LOCFRAME PSTACK, 0, STACK
        LOCFRAME XSTACK, 30, STACK
        LOCFRAME IOVERLAY, 0, STATIC
        LOCFRAME DOVERLAY, 0, STATIC
        ARGFRAME ISTACK, 0, STACK
        ARGFRAME PSTACK, 0, STACK
        ARGFRAME XSTACK, 30, STACK
        ARGFRAME IOVERLAY, 0, STATIC
        ARGFRAME DOVERLAY, 0, STATIC
        FUNCALL zllInitiator_event_loop, osal_get_timeoutEx
        LOCFRAME ISTACK, 0, STACK
        LOCFRAME PSTACK, 0, STACK
        LOCFRAME XSTACK, 30, STACK
        LOCFRAME IOVERLAY, 0, STATIC
        LOCFRAME DOVERLAY, 0, STATIC
        ARGFRAME ISTACK, 0, STACK
        ARGFRAME PSTACK, 0, STACK
        ARGFRAME XSTACK, 30, STACK
        ARGFRAME IOVERLAY, 0, STATIC
        ARGFRAME DOVERLAY, 0, STATIC
        FUNCALL zllInitiator_event_loop, osal_start_timerEx
        LOCFRAME ISTACK, 0, STACK
        LOCFRAME PSTACK, 0, STACK
        LOCFRAME XSTACK, 34, STACK
        LOCFRAME IOVERLAY, 0, STATIC
        LOCFRAME DOVERLAY, 0, STATIC
        ARGFRAME ISTACK, 0, STACK
        ARGFRAME PSTACK, 0, STACK
        ARGFRAME XSTACK, 34, STACK
        ARGFRAME IOVERLAY, 0, STATIC
        ARGFRAME DOVERLAY, 0, STATIC
        FUNCALL zllInitiator_event_loop, zll_UpdateNV
        LOCFRAME ISTACK, 0, STACK
        LOCFRAME PSTACK, 0, STACK
        LOCFRAME XSTACK, 30, STACK
        LOCFRAME IOVERLAY, 0, STATIC
        LOCFRAME DOVERLAY, 0, STATIC
        ARGFRAME ISTACK, 0, STACK
        ARGFRAME PSTACK, 0, STACK
        ARGFRAME XSTACK, 30, STACK
        ARGFRAME IOVERLAY, 0, STATIC
        ARGFRAME DOVERLAY, 0, STATIC
        FUNCALL zllInitiator_event_loop, NLME_GetExtAddr
        LOCFRAME ISTACK, 0, STACK
        LOCFRAME PSTACK, 0, STACK
        LOCFRAME XSTACK, 30, STACK
        LOCFRAME IOVERLAY, 0, STATIC
        LOCFRAME DOVERLAY, 0, STATIC
        ARGFRAME ISTACK, 0, STACK
        ARGFRAME PSTACK, 0, STACK
        ARGFRAME XSTACK, 30, STACK
        ARGFRAME IOVERLAY, 0, STATIC
        ARGFRAME DOVERLAY, 0, STATIC
        FUNCALL zllInitiator_event_loop, NLME_GetShortAddr
        LOCFRAME ISTACK, 0, STACK
        LOCFRAME PSTACK, 0, STACK
        LOCFRAME XSTACK, 30, STACK
        LOCFRAME IOVERLAY, 0, STATIC
        LOCFRAME DOVERLAY, 0, STATIC
        ARGFRAME ISTACK, 0, STACK
        ARGFRAME PSTACK, 0, STACK
        ARGFRAME XSTACK, 30, STACK
        ARGFRAME IOVERLAY, 0, STATIC
        ARGFRAME DOVERLAY, 0, STATIC
        FUNCALL zllInitiator_event_loop, ZDP_DeviceAnnce
        LOCFRAME ISTACK, 0, STACK
        LOCFRAME PSTACK, 0, STACK
        LOCFRAME XSTACK, 31, STACK
        LOCFRAME IOVERLAY, 0, STATIC
        LOCFRAME DOVERLAY, 0, STATIC
        ARGFRAME ISTACK, 0, STACK
        ARGFRAME PSTACK, 0, STACK
        ARGFRAME XSTACK, 31, STACK
        ARGFRAME IOVERLAY, 0, STATIC
        ARGFRAME DOVERLAY, 0, STATIC
        FUNCALL zllInitiator_event_loop, osal_stop_timerEx
        LOCFRAME ISTACK, 0, STACK
        LOCFRAME PSTACK, 0, STACK
        LOCFRAME XSTACK, 30, STACK
        LOCFRAME IOVERLAY, 0, STATIC
        LOCFRAME DOVERLAY, 0, STATIC
        ARGFRAME ISTACK, 0, STACK
        ARGFRAME PSTACK, 0, STACK
        ARGFRAME XSTACK, 30, STACK
        ARGFRAME IOVERLAY, 0, STATIC
        ARGFRAME DOVERLAY, 0, STATIC
        FUNCALL zllInitiator_event_loop, osal_msg_deallocate
        LOCFRAME ISTACK, 0, STACK
        LOCFRAME PSTACK, 0, STACK
        LOCFRAME XSTACK, 30, STACK
        LOCFRAME IOVERLAY, 0, STATIC
        LOCFRAME DOVERLAY, 0, STATIC
        ARGFRAME ISTACK, 0, STACK
        ARGFRAME PSTACK, 0, STACK
        ARGFRAME XSTACK, 30, STACK
        ARGFRAME IOVERLAY, 0, STATIC
        ARGFRAME DOVERLAY, 0, STATIC
        FUNCALL zllInitiator_event_loop, osal_msg_send
        LOCFRAME ISTACK, 0, STACK
        LOCFRAME PSTACK, 0, STACK
        LOCFRAME XSTACK, 30, STACK
        LOCFRAME IOVERLAY, 0, STATIC
        LOCFRAME DOVERLAY, 0, STATIC
        ARGFRAME ISTACK, 0, STACK
        ARGFRAME PSTACK, 0, STACK
        ARGFRAME XSTACK, 30, STACK
        ARGFRAME IOVERLAY, 0, STATIC
        ARGFRAME DOVERLAY, 0, STATIC
        FUNCALL zllInitiator_event_loop, zll_IsFactoryNew
        LOCFRAME ISTACK, 0, STACK
        LOCFRAME PSTACK, 0, STACK
        LOCFRAME XSTACK, 30, STACK
        LOCFRAME IOVERLAY, 0, STATIC
        LOCFRAME DOVERLAY, 0, STATIC
        ARGFRAME ISTACK, 0, STACK
        ARGFRAME PSTACK, 0, STACK
        ARGFRAME XSTACK, 30, STACK
        ARGFRAME IOVERLAY, 0, STATIC
        ARGFRAME DOVERLAY, 0, STATIC
        FUNCALL zllInitiator_event_loop, initiatorSendScanReq
        LOCFRAME ISTACK, 0, STACK
        LOCFRAME PSTACK, 0, STACK
        LOCFRAME XSTACK, 30, STACK
        LOCFRAME IOVERLAY, 0, STATIC
        LOCFRAME DOVERLAY, 0, STATIC
        ARGFRAME ISTACK, 0, STACK
        ARGFRAME PSTACK, 0, STACK
        ARGFRAME XSTACK, 30, STACK
        ARGFRAME IOVERLAY, 0, STATIC
        ARGFRAME DOVERLAY, 0, STATIC
        FUNCALL zllInitiator_event_loop, initiatorSendScanReq
        LOCFRAME ISTACK, 0, STACK
        LOCFRAME PSTACK, 0, STACK
        LOCFRAME XSTACK, 30, STACK
        LOCFRAME IOVERLAY, 0, STATIC
        LOCFRAME DOVERLAY, 0, STATIC
        ARGFRAME ISTACK, 0, STACK
        ARGFRAME PSTACK, 0, STACK
        ARGFRAME XSTACK, 30, STACK
        ARGFRAME IOVERLAY, 0, STATIC
        ARGFRAME DOVERLAY, 0, STATIC
        FUNCALL zllInitiator_event_loop, zll_IsFactoryNew
        LOCFRAME ISTACK, 0, STACK
        LOCFRAME PSTACK, 0, STACK
        LOCFRAME XSTACK, 30, STACK
        LOCFRAME IOVERLAY, 0, STATIC
        LOCFRAME DOVERLAY, 0, STATIC
        ARGFRAME ISTACK, 0, STACK
        ARGFRAME PSTACK, 0, STACK
        ARGFRAME XSTACK, 30, STACK
        ARGFRAME IOVERLAY, 0, STATIC
        ARGFRAME DOVERLAY, 0, STATIC
        FUNCALL zllInitiator_event_loop, zll_SetChannel
        LOCFRAME ISTACK, 0, STACK
        LOCFRAME PSTACK, 0, STACK
        LOCFRAME XSTACK, 30, STACK
        LOCFRAME IOVERLAY, 0, STATIC
        LOCFRAME DOVERLAY, 0, STATIC
        ARGFRAME ISTACK, 0, STACK
        ARGFRAME PSTACK, 0, STACK
        ARGFRAME XSTACK, 30, STACK
        ARGFRAME IOVERLAY, 0, STATIC
        ARGFRAME DOVERLAY, 0, STATIC
        FUNCALL zllInitiator_event_loop, zclLL_Send_IndentifyReq
        LOCFRAME ISTACK, 0, STACK
        LOCFRAME PSTACK, 0, STACK
        LOCFRAME XSTACK, 31, STACK
        LOCFRAME IOVERLAY, 0, STATIC
        LOCFRAME DOVERLAY, 0, STATIC
        ARGFRAME ISTACK, 0, STACK
        ARGFRAME PSTACK, 0, STACK
        ARGFRAME XSTACK, 31, STACK
        ARGFRAME IOVERLAY, 0, STATIC
        ARGFRAME DOVERLAY, 0, STATIC
        FUNCALL zllInitiator_event_loop, osal_start_timerEx
        LOCFRAME ISTACK, 0, STACK
        LOCFRAME PSTACK, 0, STACK
        LOCFRAME XSTACK, 34, STACK
        LOCFRAME IOVERLAY, 0, STATIC
        LOCFRAME DOVERLAY, 0, STATIC
        ARGFRAME ISTACK, 0, STACK
        ARGFRAME PSTACK, 0, STACK
        ARGFRAME XSTACK, 34, STACK
        ARGFRAME IOVERLAY, 0, STATIC
        ARGFRAME DOVERLAY, 0, STATIC
        FUNCALL zllInitiator_event_loop, osal_set_event
        LOCFRAME ISTACK, 0, STACK
        LOCFRAME PSTACK, 0, STACK
        LOCFRAME XSTACK, 30, STACK
        LOCFRAME IOVERLAY, 0, STATIC
        LOCFRAME DOVERLAY, 0, STATIC
        ARGFRAME ISTACK, 0, STACK
        ARGFRAME PSTACK, 0, STACK
        ARGFRAME XSTACK, 30, STACK
        ARGFRAME IOVERLAY, 0, STATIC
        ARGFRAME DOVERLAY, 0, STATIC
        FUNCALL zllInitiator_event_loop, zclLL_Send_IndentifyReq
        LOCFRAME ISTACK, 0, STACK
        LOCFRAME PSTACK, 0, STACK
        LOCFRAME XSTACK, 31, STACK
        LOCFRAME IOVERLAY, 0, STATIC
        LOCFRAME DOVERLAY, 0, STATIC
        ARGFRAME ISTACK, 0, STACK
        ARGFRAME PSTACK, 0, STACK
        ARGFRAME XSTACK, 31, STACK
        ARGFRAME IOVERLAY, 0, STATIC
        ARGFRAME DOVERLAY, 0, STATIC
        FUNCALL zllInitiator_event_loop, zll_IsFactoryNew
        LOCFRAME ISTACK, 0, STACK
        LOCFRAME PSTACK, 0, STACK
        LOCFRAME XSTACK, 30, STACK
        LOCFRAME IOVERLAY, 0, STATIC
        LOCFRAME DOVERLAY, 0, STATIC
        ARGFRAME ISTACK, 0, STACK
        ARGFRAME PSTACK, 0, STACK
        ARGFRAME XSTACK, 30, STACK
        ARGFRAME IOVERLAY, 0, STATIC
        ARGFRAME DOVERLAY, 0, STATIC
        FUNCALL zllInitiator_event_loop, zll_IsValidSplitFreeRanges
        LOCFRAME ISTACK, 0, STACK
        LOCFRAME PSTACK, 0, STACK
        LOCFRAME XSTACK, 30, STACK
        LOCFRAME IOVERLAY, 0, STATIC
        LOCFRAME DOVERLAY, 0, STATIC
        ARGFRAME ISTACK, 0, STACK
        ARGFRAME PSTACK, 0, STACK
        ARGFRAME XSTACK, 30, STACK
        ARGFRAME IOVERLAY, 0, STATIC
        ARGFRAME DOVERLAY, 0, STATIC
        FUNCALL zllInitiator_event_loop, initiatorSendNwkStartReq
        LOCFRAME ISTACK, 0, STACK
        LOCFRAME PSTACK, 0, STACK
        LOCFRAME XSTACK, 30, STACK
        LOCFRAME IOVERLAY, 0, STATIC
        LOCFRAME DOVERLAY, 0, STATIC
        ARGFRAME ISTACK, 0, STACK
        ARGFRAME PSTACK, 0, STACK
        ARGFRAME XSTACK, 30, STACK
        ARGFRAME IOVERLAY, 0, STATIC
        ARGFRAME DOVERLAY, 0, STATIC
        FUNCALL zllInitiator_event_loop, zll_SetChannel
        LOCFRAME ISTACK, 0, STACK
        LOCFRAME PSTACK, 0, STACK
        LOCFRAME XSTACK, 30, STACK
        LOCFRAME IOVERLAY, 0, STATIC
        LOCFRAME DOVERLAY, 0, STATIC
        ARGFRAME ISTACK, 0, STACK
        ARGFRAME PSTACK, 0, STACK
        ARGFRAME XSTACK, 30, STACK
        ARGFRAME IOVERLAY, 0, STATIC
        ARGFRAME DOVERLAY, 0, STATIC
        FUNCALL zllInitiator_event_loop, sAddrExtCmp
        LOCFRAME ISTACK, 0, STACK
        LOCFRAME PSTACK, 0, STACK
        LOCFRAME XSTACK, 30, STACK
        LOCFRAME IOVERLAY, 0, STATIC
        LOCFRAME DOVERLAY, 0, STATIC
        ARGFRAME ISTACK, 0, STACK
        ARGFRAME PSTACK, 0, STACK
        ARGFRAME XSTACK, 30, STACK
        ARGFRAME IOVERLAY, 0, STATIC
        ARGFRAME DOVERLAY, 0, STATIC
        FUNCALL zllInitiator_event_loop, zll_IsValidSplitFreeRanges
        LOCFRAME ISTACK, 0, STACK
        LOCFRAME PSTACK, 0, STACK
        LOCFRAME XSTACK, 30, STACK
        LOCFRAME IOVERLAY, 0, STATIC
        LOCFRAME DOVERLAY, 0, STATIC
        ARGFRAME ISTACK, 0, STACK
        ARGFRAME PSTACK, 0, STACK
        ARGFRAME XSTACK, 30, STACK
        ARGFRAME IOVERLAY, 0, STATIC
        ARGFRAME DOVERLAY, 0, STATIC
        FUNCALL zllInitiator_event_loop, initiatorSendNwkJoinReq
        LOCFRAME ISTACK, 0, STACK
        LOCFRAME PSTACK, 0, STACK
        LOCFRAME XSTACK, 30, STACK
        LOCFRAME IOVERLAY, 0, STATIC
        LOCFRAME DOVERLAY, 0, STATIC
        ARGFRAME ISTACK, 0, STACK
        ARGFRAME PSTACK, 0, STACK
        ARGFRAME XSTACK, 30, STACK
        ARGFRAME IOVERLAY, 0, STATIC
        ARGFRAME DOVERLAY, 0, STATIC
        FUNCALL zllInitiator_event_loop, zll_NewNwkUpdateId
        LOCFRAME ISTACK, 0, STACK
        LOCFRAME PSTACK, 0, STACK
        LOCFRAME XSTACK, 30, STACK
        LOCFRAME IOVERLAY, 0, STATIC
        LOCFRAME DOVERLAY, 0, STATIC
        ARGFRAME ISTACK, 0, STACK
        ARGFRAME PSTACK, 0, STACK
        ARGFRAME XSTACK, 30, STACK
        ARGFRAME IOVERLAY, 0, STATIC
        ARGFRAME DOVERLAY, 0, STATIC
        FUNCALL zllInitiator_event_loop, zll_ProcessNwkUpdate
        LOCFRAME ISTACK, 0, STACK
        LOCFRAME PSTACK, 0, STACK
        LOCFRAME XSTACK, 30, STACK
        LOCFRAME IOVERLAY, 0, STATIC
        LOCFRAME DOVERLAY, 0, STATIC
        ARGFRAME ISTACK, 0, STACK
        ARGFRAME PSTACK, 0, STACK
        ARGFRAME XSTACK, 30, STACK
        ARGFRAME IOVERLAY, 0, STATIC
        ARGFRAME DOVERLAY, 0, STATIC
        FUNCALL zllInitiator_event_loop, initiatorReJoinNwk
        LOCFRAME ISTACK, 0, STACK
        LOCFRAME PSTACK, 0, STACK
        LOCFRAME XSTACK, 30, STACK
        LOCFRAME IOVERLAY, 0, STATIC
        LOCFRAME DOVERLAY, 0, STATIC
        ARGFRAME ISTACK, 0, STACK
        ARGFRAME PSTACK, 0, STACK
        ARGFRAME XSTACK, 30, STACK
        ARGFRAME IOVERLAY, 0, STATIC
        ARGFRAME DOVERLAY, 0, STATIC
        FUNCALL zllInitiator_event_loop, osal_mem_alloc
        LOCFRAME ISTACK, 0, STACK
        LOCFRAME PSTACK, 0, STACK
        LOCFRAME XSTACK, 30, STACK
        LOCFRAME IOVERLAY, 0, STATIC
        LOCFRAME DOVERLAY, 0, STATIC
        ARGFRAME ISTACK, 0, STACK
        ARGFRAME PSTACK, 0, STACK
        ARGFRAME XSTACK, 30, STACK
        ARGFRAME IOVERLAY, 0, STATIC
        ARGFRAME DOVERLAY, 0, STATIC
        FUNCALL zllInitiator_event_loop, sAddrExtCpy
        LOCFRAME ISTACK, 0, STACK
        LOCFRAME PSTACK, 0, STACK
        LOCFRAME XSTACK, 30, STACK
        LOCFRAME IOVERLAY, 0, STATIC
        LOCFRAME DOVERLAY, 0, STATIC
        ARGFRAME ISTACK, 0, STACK
        ARGFRAME PSTACK, 0, STACK
        ARGFRAME XSTACK, 30, STACK
        ARGFRAME IOVERLAY, 0, STATIC
        ARGFRAME DOVERLAY, 0, STATIC
        FUNCALL zllInitiator_event_loop, zclLL_Send_NwkUpdateReq
        LOCFRAME ISTACK, 0, STACK
        LOCFRAME PSTACK, 0, STACK
        LOCFRAME XSTACK, 31, STACK
        LOCFRAME IOVERLAY, 0, STATIC
        LOCFRAME DOVERLAY, 0, STATIC
        ARGFRAME ISTACK, 0, STACK
        ARGFRAME PSTACK, 0, STACK
        ARGFRAME XSTACK, 31, STACK
        ARGFRAME IOVERLAY, 0, STATIC
        ARGFRAME DOVERLAY, 0, STATIC
        FUNCALL zllInitiator_event_loop, osal_mem_free
        LOCFRAME ISTACK, 0, STACK
        LOCFRAME PSTACK, 0, STACK
        LOCFRAME XSTACK, 30, STACK
        LOCFRAME IOVERLAY, 0, STATIC
        LOCFRAME DOVERLAY, 0, STATIC
        ARGFRAME ISTACK, 0, STACK
        ARGFRAME PSTACK, 0, STACK
        ARGFRAME XSTACK, 30, STACK
        ARGFRAME IOVERLAY, 0, STATIC
        ARGFRAME DOVERLAY, 0, STATIC
        FUNCALL zllInitiator_event_loop, osal_set_event
        LOCFRAME ISTACK, 0, STACK
        LOCFRAME PSTACK, 0, STACK
        LOCFRAME XSTACK, 30, STACK
        LOCFRAME IOVERLAY, 0, STATIC
        LOCFRAME DOVERLAY, 0, STATIC
        ARGFRAME ISTACK, 0, STACK
        ARGFRAME PSTACK, 0, STACK
        ARGFRAME XSTACK, 30, STACK
        ARGFRAME IOVERLAY, 0, STATIC
        ARGFRAME DOVERLAY, 0, STATIC
        FUNCALL zllInitiator_event_loop, MT_ZllNotifyTL
        LOCFRAME ISTACK, 0, STACK
        LOCFRAME PSTACK, 0, STACK
        LOCFRAME XSTACK, 30, STACK
        LOCFRAME IOVERLAY, 0, STATIC
        LOCFRAME DOVERLAY, 0, STATIC
        ARGFRAME ISTACK, 0, STACK
        ARGFRAME PSTACK, 0, STACK
        ARGFRAME XSTACK, 30, STACK
        ARGFRAME IOVERLAY, 0, STATIC
        ARGFRAME DOVERLAY, 0, STATIC
        FUNCALL zllInitiator_event_loop, nwk_ExtPANIDValid
        LOCFRAME ISTACK, 0, STACK
        LOCFRAME PSTACK, 0, STACK
        LOCFRAME XSTACK, 30, STACK
        LOCFRAME IOVERLAY, 0, STATIC
        LOCFRAME DOVERLAY, 0, STATIC
        ARGFRAME ISTACK, 0, STACK
        ARGFRAME PSTACK, 0, STACK
        ARGFRAME XSTACK, 30, STACK
        ARGFRAME IOVERLAY, 0, STATIC
        ARGFRAME DOVERLAY, 0, STATIC
        FUNCALL zllInitiator_event_loop, zll_SetNIB
        LOCFRAME ISTACK, 0, STACK
        LOCFRAME PSTACK, 0, STACK
        LOCFRAME XSTACK, 34, STACK
        LOCFRAME IOVERLAY, 0, STATIC
        LOCFRAME DOVERLAY, 0, STATIC
        ARGFRAME ISTACK, 0, STACK
        ARGFRAME PSTACK, 0, STACK
        ARGFRAME XSTACK, 34, STACK
        ARGFRAME IOVERLAY, 0, STATIC
        ARGFRAME DOVERLAY, 0, STATIC
        FUNCALL zllInitiator_event_loop, zll_DecryptNwkKey
        LOCFRAME ISTACK, 0, STACK
        LOCFRAME PSTACK, 0, STACK
        LOCFRAME XSTACK, 38, STACK
        LOCFRAME IOVERLAY, 0, STATIC
        LOCFRAME DOVERLAY, 0, STATIC
        ARGFRAME ISTACK, 0, STACK
        ARGFRAME PSTACK, 0, STACK
        ARGFRAME XSTACK, 38, STACK
        ARGFRAME IOVERLAY, 0, STATIC
        ARGFRAME DOVERLAY, 0, STATIC
        FUNCALL zllInitiator_event_loop, ZDSecMgrUpdateTCAddress
        LOCFRAME ISTACK, 0, STACK
        LOCFRAME PSTACK, 0, STACK
        LOCFRAME XSTACK, 30, STACK
        LOCFRAME IOVERLAY, 0, STATIC
        LOCFRAME DOVERLAY, 0, STATIC
        ARGFRAME ISTACK, 0, STACK
        ARGFRAME PSTACK, 0, STACK
        ARGFRAME XSTACK, 30, STACK
        ARGFRAME IOVERLAY, 0, STATIC
        ARGFRAME DOVERLAY, 0, STATIC
        FUNCALL zllInitiator_event_loop, osal_set_event
        LOCFRAME ISTACK, 0, STACK
        LOCFRAME PSTACK, 0, STACK
        LOCFRAME XSTACK, 30, STACK
        LOCFRAME IOVERLAY, 0, STATIC
        LOCFRAME DOVERLAY, 0, STATIC
        ARGFRAME ISTACK, 0, STACK
        ARGFRAME PSTACK, 0, STACK
        ARGFRAME XSTACK, 30, STACK
        ARGFRAME IOVERLAY, 0, STATIC
        ARGFRAME DOVERLAY, 0, STATIC
        FUNCALL zllInitiator_event_loop, osal_start_timerEx
        LOCFRAME ISTACK, 0, STACK
        LOCFRAME PSTACK, 0, STACK
        LOCFRAME XSTACK, 34, STACK
        LOCFRAME IOVERLAY, 0, STATIC
        LOCFRAME DOVERLAY, 0, STATIC
        ARGFRAME ISTACK, 0, STACK
        ARGFRAME PSTACK, 0, STACK
        ARGFRAME XSTACK, 34, STACK
        ARGFRAME IOVERLAY, 0, STATIC
        ARGFRAME DOVERLAY, 0, STATIC
        FUNCALL zllInitiator_event_loop, initiatorJoinNwk
        LOCFRAME ISTACK, 0, STACK
        LOCFRAME PSTACK, 0, STACK
        LOCFRAME XSTACK, 30, STACK
        LOCFRAME IOVERLAY, 0, STATIC
        LOCFRAME DOVERLAY, 0, STATIC
        ARGFRAME ISTACK, 0, STACK
        ARGFRAME PSTACK, 0, STACK
        ARGFRAME XSTACK, 30, STACK
        ARGFRAME IOVERLAY, 0, STATIC
        ARGFRAME DOVERLAY, 0, STATIC
        FUNCALL zllInitiator_event_loop, osal_start_timerEx
        LOCFRAME ISTACK, 0, STACK
        LOCFRAME PSTACK, 0, STACK
        LOCFRAME XSTACK, 34, STACK
        LOCFRAME IOVERLAY, 0, STATIC
        LOCFRAME DOVERLAY, 0, STATIC
        ARGFRAME ISTACK, 0, STACK
        ARGFRAME PSTACK, 0, STACK
        ARGFRAME XSTACK, 34, STACK
        ARGFRAME IOVERLAY, 0, STATIC
        ARGFRAME DOVERLAY, 0, STATIC
        FUNCALL zllInitiator_event_loop, initiatorSetNwkToInitState
        LOCFRAME ISTACK, 0, STACK
        LOCFRAME PSTACK, 0, STACK
        LOCFRAME XSTACK, 30, STACK
        LOCFRAME IOVERLAY, 0, STATIC
        LOCFRAME DOVERLAY, 0, STATIC
        ARGFRAME ISTACK, 0, STACK
        ARGFRAME PSTACK, 0, STACK
        ARGFRAME XSTACK, 30, STACK
        ARGFRAME IOVERLAY, 0, STATIC
        ARGFRAME DOVERLAY, 0, STATIC
        FUNCALL zllInitiator_event_loop, zll_UpdateNV
        LOCFRAME ISTACK, 0, STACK
        LOCFRAME PSTACK, 0, STACK
        LOCFRAME XSTACK, 30, STACK
        LOCFRAME IOVERLAY, 0, STATIC
        LOCFRAME DOVERLAY, 0, STATIC
        ARGFRAME ISTACK, 0, STACK
        ARGFRAME PSTACK, 0, STACK
        ARGFRAME XSTACK, 30, STACK
        ARGFRAME IOVERLAY, 0, STATIC
        ARGFRAME DOVERLAY, 0, STATIC
        FUNCALL zllInitiator_event_loop, zll_IsFactoryNew
        LOCFRAME ISTACK, 0, STACK
        LOCFRAME PSTACK, 0, STACK
        LOCFRAME XSTACK, 30, STACK
        LOCFRAME IOVERLAY, 0, STATIC
        LOCFRAME DOVERLAY, 0, STATIC
        ARGFRAME ISTACK, 0, STACK
        ARGFRAME PSTACK, 0, STACK
        ARGFRAME XSTACK, 30, STACK
        ARGFRAME IOVERLAY, 0, STATIC
        ARGFRAME DOVERLAY, 0, STATIC
        FUNCALL zllInitiator_event_loop, zll_SendLeaveReq
        LOCFRAME ISTACK, 0, STACK
        LOCFRAME PSTACK, 0, STACK
        LOCFRAME XSTACK, 30, STACK
        LOCFRAME IOVERLAY, 0, STATIC
        LOCFRAME DOVERLAY, 0, STATIC
        ARGFRAME ISTACK, 0, STACK
        ARGFRAME PSTACK, 0, STACK
        ARGFRAME XSTACK, 30, STACK
        ARGFRAME IOVERLAY, 0, STATIC
        ARGFRAME DOVERLAY, 0, STATIC
        FUNCALL zllInitiator_event_loop, osal_set_event
        LOCFRAME ISTACK, 0, STACK
        LOCFRAME PSTACK, 0, STACK
        LOCFRAME XSTACK, 30, STACK
        LOCFRAME IOVERLAY, 0, STATIC
        LOCFRAME DOVERLAY, 0, STATIC
        ARGFRAME ISTACK, 0, STACK
        ARGFRAME PSTACK, 0, STACK
        ARGFRAME XSTACK, 30, STACK
        ARGFRAME IOVERLAY, 0, STATIC
        ARGFRAME DOVERLAY, 0, STATIC
        FUNCALL zllInitiator_event_loop, zll_SetNIB
        LOCFRAME ISTACK, 0, STACK
        LOCFRAME PSTACK, 0, STACK
        LOCFRAME XSTACK, 34, STACK
        LOCFRAME IOVERLAY, 0, STATIC
        LOCFRAME DOVERLAY, 0, STATIC
        ARGFRAME ISTACK, 0, STACK
        ARGFRAME PSTACK, 0, STACK
        ARGFRAME XSTACK, 34, STACK
        ARGFRAME IOVERLAY, 0, STATIC
        ARGFRAME DOVERLAY, 0, STATIC
        FUNCALL zllInitiator_event_loop, zll_DecryptNwkKey
        LOCFRAME ISTACK, 0, STACK
        LOCFRAME PSTACK, 0, STACK
        LOCFRAME XSTACK, 38, STACK
        LOCFRAME IOVERLAY, 0, STATIC
        LOCFRAME DOVERLAY, 0, STATIC
        ARGFRAME ISTACK, 0, STACK
        ARGFRAME PSTACK, 0, STACK
        ARGFRAME XSTACK, 38, STACK
        ARGFRAME IOVERLAY, 0, STATIC
        ARGFRAME DOVERLAY, 0, STATIC
        FUNCALL zllInitiator_event_loop, zll_UpdateFreeRanges
        LOCFRAME ISTACK, 0, STACK
        LOCFRAME PSTACK, 0, STACK
        LOCFRAME XSTACK, 30, STACK
        LOCFRAME IOVERLAY, 0, STATIC
        LOCFRAME DOVERLAY, 0, STATIC
        ARGFRAME ISTACK, 0, STACK
        ARGFRAME PSTACK, 0, STACK
        ARGFRAME XSTACK, 30, STACK
        ARGFRAME IOVERLAY, 0, STATIC
        ARGFRAME DOVERLAY, 0, STATIC
        FUNCALL zllInitiator_event_loop, initiatorJoinNwk
        LOCFRAME ISTACK, 0, STACK
        LOCFRAME PSTACK, 0, STACK
        LOCFRAME XSTACK, 30, STACK
        LOCFRAME IOVERLAY, 0, STATIC
        LOCFRAME DOVERLAY, 0, STATIC
        ARGFRAME ISTACK, 0, STACK
        ARGFRAME PSTACK, 0, STACK
        ARGFRAME XSTACK, 30, STACK
        ARGFRAME IOVERLAY, 0, STATIC
        ARGFRAME DOVERLAY, 0, STATIC
        FUNCALL zllInitiator_event_loop, initiatorSetNwkToInitState
        LOCFRAME ISTACK, 0, STACK
        LOCFRAME PSTACK, 0, STACK
        LOCFRAME XSTACK, 30, STACK
        LOCFRAME IOVERLAY, 0, STATIC
        LOCFRAME DOVERLAY, 0, STATIC
        ARGFRAME ISTACK, 0, STACK
        ARGFRAME PSTACK, 0, STACK
        ARGFRAME XSTACK, 30, STACK
        ARGFRAME IOVERLAY, 0, STATIC
        ARGFRAME DOVERLAY, 0, STATIC
        FUNCALL zllInitiator_event_loop, initiatorClearSelectedTarget
        LOCFRAME ISTACK, 0, STACK
        LOCFRAME PSTACK, 0, STACK
        LOCFRAME XSTACK, 30, STACK
        LOCFRAME IOVERLAY, 0, STATIC
        LOCFRAME DOVERLAY, 0, STATIC
        ARGFRAME ISTACK, 0, STACK
        ARGFRAME PSTACK, 0, STACK
        ARGFRAME XSTACK, 30, STACK
        ARGFRAME IOVERLAY, 0, STATIC
        ARGFRAME DOVERLAY, 0, STATIC
        FUNCALL zllInitiator_event_loop, ZDApp_StopJoiningCycle
        LOCFRAME ISTACK, 0, STACK
        LOCFRAME PSTACK, 0, STACK
        LOCFRAME XSTACK, 30, STACK
        LOCFRAME IOVERLAY, 0, STATIC
        LOCFRAME DOVERLAY, 0, STATIC
        ARGFRAME ISTACK, 0, STACK
        ARGFRAME PSTACK, 0, STACK
        ARGFRAME XSTACK, 30, STACK
        ARGFRAME IOVERLAY, 0, STATIC
        ARGFRAME DOVERLAY, 0, STATIC
        FUNCALL zllInitiator_event_loop, MT_ZllNotifyTL
        LOCFRAME ISTACK, 0, STACK
        LOCFRAME PSTACK, 0, STACK
        LOCFRAME XSTACK, 30, STACK
        LOCFRAME IOVERLAY, 0, STATIC
        LOCFRAME DOVERLAY, 0, STATIC
        ARGFRAME ISTACK, 0, STACK
        ARGFRAME PSTACK, 0, STACK
        ARGFRAME XSTACK, 30, STACK
        ARGFRAME IOVERLAY, 0, STATIC
        ARGFRAME DOVERLAY, 0, STATIC
        FUNCALL zllInitiator_event_loop, zllInitiator_ResetToFactoryNew
        LOCFRAME ISTACK, 0, STACK
        LOCFRAME PSTACK, 0, STACK
        LOCFRAME XSTACK, 30, STACK
        LOCFRAME IOVERLAY, 0, STATIC
        LOCFRAME DOVERLAY, 0, STATIC
        ARGFRAME ISTACK, 0, STACK
        ARGFRAME PSTACK, 0, STACK
        ARGFRAME XSTACK, 30, STACK
        ARGFRAME IOVERLAY, 0, STATIC
        ARGFRAME DOVERLAY, 0, STATIC
        FUNCALL zllInitiator_event_loop, zll_ClassicalCommissioningJoinDiscoveredNwk
        LOCFRAME ISTACK, 0, STACK
        LOCFRAME PSTACK, 0, STACK
        LOCFRAME XSTACK, 30, STACK
        LOCFRAME IOVERLAY, 0, STATIC
        LOCFRAME DOVERLAY, 0, STATIC
        ARGFRAME ISTACK, 0, STACK
        ARGFRAME PSTACK, 0, STACK
        ARGFRAME XSTACK, 30, STACK
        ARGFRAME IOVERLAY, 0, STATIC
        ARGFRAME DOVERLAY, 0, STATIC
        FUNCALL zllInitiator_event_loop, initiatorClearSelectedTarget
        LOCFRAME ISTACK, 0, STACK
        LOCFRAME PSTACK, 0, STACK
        LOCFRAME XSTACK, 30, STACK
        LOCFRAME IOVERLAY, 0, STATIC
        LOCFRAME DOVERLAY, 0, STATIC
        ARGFRAME ISTACK, 0, STACK
        ARGFRAME PSTACK, 0, STACK
        ARGFRAME XSTACK, 30, STACK
        ARGFRAME IOVERLAY, 0, STATIC
        ARGFRAME DOVERLAY, 0, STATIC
        FUNCALL zllInitiator_event_loop, initiatorSetNwkToInitState
        LOCFRAME ISTACK, 0, STACK
        LOCFRAME PSTACK, 0, STACK
        LOCFRAME XSTACK, 30, STACK
        LOCFRAME IOVERLAY, 0, STATIC
        LOCFRAME DOVERLAY, 0, STATIC
        ARGFRAME ISTACK, 0, STACK
        ARGFRAME PSTACK, 0, STACK
        ARGFRAME XSTACK, 30, STACK
        ARGFRAME IOVERLAY, 0, STATIC
        ARGFRAME DOVERLAY, 0, STATIC
        MOV     A,#-0x10
        LCALL   ?BANKED_ENTER_XDATA
          CFI DPH0 load(1, XDATA, add(CFA_XSP16, literal(-1)))
          CFI DPL0 load(1, XDATA, add(CFA_XSP16, literal(-2)))
          CFI ?BRET_EXT load(1, XDATA, add(CFA_XSP16, literal(-3)))
          CFI ?RET_HIGH load(1, XDATA, add(CFA_XSP16, literal(-4)))
          CFI ?RET_LOW load(1, XDATA, add(CFA_XSP16, literal(-5)))
          CFI R7 load(1, XDATA, add(CFA_XSP16, literal(-6)))
          CFI V7 load(1, XDATA, add(CFA_XSP16, literal(-7)))
          CFI V6 load(1, XDATA, add(CFA_XSP16, literal(-8)))
          CFI V5 load(1, XDATA, add(CFA_XSP16, literal(-9)))
          CFI V4 load(1, XDATA, add(CFA_XSP16, literal(-10)))
          CFI V3 load(1, XDATA, add(CFA_XSP16, literal(-11)))
          CFI V2 load(1, XDATA, add(CFA_XSP16, literal(-12)))
          CFI V1 load(1, XDATA, add(CFA_XSP16, literal(-13)))
          CFI V0 load(1, XDATA, add(CFA_XSP16, literal(-14)))
          CFI VB load(1, XDATA, add(CFA_XSP16, literal(-15)))
          CFI R6 load(1, XDATA, add(CFA_XSP16, literal(-16)))
          CFI CFA_SP SP+0
          CFI CFA_XSP16 add(XSP16, 16)
        ; Saved register size: 16
        ; Auto size: 14
        MOV     A,#-0xe
        LCALL   ?ALLOC_XSTACK8
          CFI CFA_XSP16 add(XSP16, 30)
        MOV     A,R2
        MOV     R6,A
        MOV     A,R3
        MOV     R7,A
//  614   if ( events & SYS_EVENT_MSG )
        ANL     A,#0x80
        JNZ     $+5
        LJMP    ??zllInitiator_event_loop_0 & 0xFFFF
//  615   {
//  616     osal_event_hdr_t *pMsg;
//  617     ZStatus_t stat = ZFailure;
//  618 
//  619     if ( (pMsg = (osal_event_hdr_t *)osal_msg_receive( task_id )) != NULL )
        ; Setup parameters for call to function osal_msg_receive
        LCALL   ??osal_msg_receive?relay
        MOV     ?V0 + 0,R2
        MOV     ?V0 + 1,R3
        MOV     A,R2
        ORL     A,?V0 + 1
        JNZ     $+5
        LJMP    ??zllInitiator_event_loop_1 & 0xFFFF
//  620     {
//  621       switch ( pMsg->event )
        MOV     DPL,R2
        MOV     DPH,R3
        MOVX    A,@DPTR
        ADD     A,#-0x23
        JZ      ??zllInitiator_event_loop_2
        ADD     A,#0x52
        JNZ     $+5
        LJMP    ??zllInitiator_event_loop_3 & 0xFFFF
        ADD     A,#-0x2
        JNZ     $+5
        LJMP    ??zllInitiator_event_loop_4 & 0xFFFF
        LJMP    ??zllInitiator_event_loop_5 & 0xFFFF
//  622       {
//  623 #if defined (MT_APP_FUNC)
//  624         case MT_SYS_APP_MSG:
//  625           // Message received from MT
//  626           stat = initiatorProcessRpcMsg( ((mtSysAppMsg_t *)pMsg)->endpoint,
//  627                                          ((mtSysAppMsg_t *)pMsg)->appDataLen,
//  628                                          ((mtSysAppMsg_t *)pMsg)->appData );
??zllInitiator_event_loop_2:
        LCALL   ?Subroutine23 & 0xFFFF
??CrossCallReturnLabel_87:
        MOV     DPL,R2
        MOV     DPH,R3
        INC     DPTR
        INC     DPTR
        INC     DPTR
        MOVX    A,@DPTR
        MOV     ?V0 + 2,A
        MOV     DPL,R0
        MOV     DPH,R1
        INC     DPTR
        INC     DPTR
        INC     DPTR
        MOVX    A,@DPTR
        MOV     R4,A
        MOV     DPL,R0
        MOV     DPH,R1
        INC     DPTR
        INC     DPTR
        INC     DPTR
        INC     DPTR
        MOVX    A,@DPTR
        MOV     R3,A
        MOV     A,R4
        MOV     R2,A
        MOV     A,#-0x1
        XRL     A,R2
        JNZ     ??zllInitiator_event_loop_6
        MOV     A,#-0x1
        XRL     A,R3
??zllInitiator_event_loop_6:
        JZ      $+5
        LJMP    ??zllInitiator_event_loop_5 & 0xFFFF
        MOV     DPL,R0
        MOV     DPH,R1
        INC     DPTR
        INC     DPTR
        INC     DPTR
        INC     DPTR
        INC     DPTR
        INC     DPTR
        INC     DPTR
        INC     DPTR
        INC     DPTR
        MOVX    A,@DPTR
        DEC     A
        JZ      ??zllInitiator_event_loop_7
        DEC     A
        JZ      ??zllInitiator_event_loop_8
        DEC     A
        JZ      ??zllInitiator_event_loop_9
        DEC     A
        JZ      ??zllInitiator_event_loop_10
        DEC     A
        JZ      ??zllInitiator_event_loop_11
        DEC     A
        JZ      ??zllInitiator_event_loop_12
        DEC     A
        JZ      $+5
        LJMP    ??zllInitiator_event_loop_13 & 0xFFFF
        ; Setup parameters for call to function zllInitiator_BridgeStartNetwork
        LCALL   ??zllInitiator_BridgeStartNetwork?relay
        LJMP    ??zllInitiator_event_loop_13 & 0xFFFF
??zllInitiator_event_loop_11:
        MOV     A,?V0 + 2
        CLR     C
        SUBB    A,#0x9
        JC      ??zllInitiator_event_loop_14
        MOV     DPL,R0
        MOV     DPH,R1
        INC     DPTR
        INC     DPTR
        INC     DPTR
        INC     DPTR
        INC     DPTR
        INC     DPTR
        INC     DPTR
        INC     DPTR
        INC     DPTR
        INC     DPTR
        MOVX    A,@DPTR
        MOV     R1,A
        SJMP    ??zllInitiator_event_loop_15
??zllInitiator_event_loop_14:
        MOV     R1,#0x0
??zllInitiator_event_loop_15:
        ; Setup parameters for call to function zll_PermitJoin
        LCALL   ??zll_PermitJoin?relay
        LJMP    ??zllInitiator_event_loop_13 & 0xFFFF
??zllInitiator_event_loop_12:
        ; Setup parameters for call to function zllInitiator_ResetToFNSelectedTarget
        LCALL   ??zllInitiator_ResetToFNSelectedTarget?relay
        LJMP    ??zllInitiator_event_loop_13 & 0xFFFF
??zllInitiator_event_loop_10:
        ; Setup parameters for call to function zllInitiator_ClassicalCommissioningStart
        LCALL   ??zllInitiator_ClassicalCommissioningStart?rela
        LJMP    ??zllInitiator_event_loop_13 & 0xFFFF
??zllInitiator_event_loop_9:
        MOV     A,?V0 + 2
        CLR     C
        SUBB    A,#0x9
        JC      ??zllInitiator_event_loop_16
        MOV     DPL,R0
        MOV     DPH,R1
        INC     DPTR
        INC     DPTR
        INC     DPTR
        INC     DPTR
        INC     DPTR
        INC     DPTR
        INC     DPTR
        INC     DPTR
        INC     DPTR
        INC     DPTR
        MOVX    A,@DPTR
        MOV     R1,A
        SJMP    ??zllInitiator_event_loop_17
??zllInitiator_event_loop_16:
        MOV     R1,#0x0
??zllInitiator_event_loop_17:
        ; Setup parameters for call to function zllInitiator_ChannelChange
        LCALL   ??zllInitiator_ChannelChange?relay
        LJMP    ??zllInitiator_event_loop_13 & 0xFFFF
??zllInitiator_event_loop_8:
        ; Setup parameters for call to function zllInitiator_ResetToFactoryNew
        LCALL   ??zllInitiator_ResetToFactoryNew?relay
        LJMP    ??zllInitiator_event_loop_13 & 0xFFFF
??zllInitiator_event_loop_7:
        ; Setup parameters for call to function zllInitiator_StartDevDisc
        LCALL   ??zllInitiator_StartDevDisc?relay
        SJMP    ??zllInitiator_event_loop_13
//  629           break;
//  630 #endif
//  631 #if (ZSTACK_ROUTER_BUILD)
//  632         case ZDO_CB_MSG:
//  633           // ZDO sends the message that we registered for
//  634           zll_RouterProcessZDOMsg( (zdoIncomingMsg_t *)pMsg );
??zllInitiator_event_loop_4:
        ; Setup parameters for call to function zll_RouterProcessZDOMsg
        LCALL   ??zll_RouterProcessZDOMsg?relay
        SJMP    ??zllInitiator_event_loop_13
//  635           stat = ZSuccess;
//  636           break;
//  637 #endif
//  638         case ZDO_STATE_CHANGE:
//  639           initiatorProcessStateChange( (devStates_t)pMsg->status );
??zllInitiator_event_loop_3:
        INC     DPTR
        MOVX    A,@DPTR
        MOV     R0,A
        MOV     A,#0x7
        XRL     A,R0
        JZ      ??zllInitiator_event_loop_18
        MOV     A,#0x6
        XRL     A,R0
        JZ      ??zllInitiator_event_loop_18
        MOV     A,#0xa
        XRL     A,R0
        JZ      ??zllInitiator_event_loop_19
        MOV     A,#0x2
        XRL     A,R0
        JNZ     ??zllInitiator_event_loop_13
??zllInitiator_event_loop_19:
        ; Setup parameters for call to function osal_get_timeoutEx
        MOV     R2,#0x0
        MOV     R3,#0x8
        MOV     DPTR,#zllInitiator_TaskID
        MOVX    A,@DPTR
        MOV     R1,A
        LCALL   ??osal_get_timeoutEx?relay
        MOV     A,R2
        ORL     A,R3
        ORL     A,R4
        ORL     A,R5
        JNZ     ??zllInitiator_event_loop_13
        ; Setup parameters for call to function osal_start_timerEx
        MOV     DPTR,#__Constant_1d4c
        LCALL   ?PUSH_XSTACK8_X_FOUR
          CFI CFA_XSP16 add(XSP16, 34)
        MOV     R2,#0x0
        MOV     R3,#0x8
        MOV     DPTR,#zllInitiator_TaskID
        MOVX    A,@DPTR
        MOV     R1,A
        LCALL   ??osal_start_timerEx?relay
        MOV     A,#0x4
        LCALL   ?DEALLOC_XSTACK8
          CFI CFA_XSP16 add(XSP16, 30)
        SJMP    ??zllInitiator_event_loop_13
??zllInitiator_event_loop_18:
        ; Setup parameters for call to function zll_UpdateNV
        MOV     R1,#0x1
        LCALL   ??zll_UpdateNV?relay
        ; Setup parameters for call to function NLME_GetExtAddr
        LCALL   ??NLME_GetExtAddr?relay
        MOV     ?V0 + 2,R2
        MOV     ?V0 + 3,R3
        ; Setup parameters for call to function NLME_GetShortAddr
        LCALL   ??NLME_GetShortAddr?relay
        ; Setup parameters for call to function ZDP_DeviceAnnce
        MOV     ?V0 + 5,#0x0
        MOV     R0,#?V0 + 5
        LCALL   ?PUSH_XSTACK_I_ONE
          CFI CFA_XSP16 add(XSP16, 31)
        MOV     DPTR,#ZDO_Config_Node_Descriptor + 2
        MOVX    A,@DPTR
        MOV     R1,A
        MOV     R4,?V0 + 2
        MOV     R5,?V0 + 3
        LCALL   ??ZDP_DeviceAnnce?relay
        MOV     A,#0x1
        LCALL   ?DEALLOC_XSTACK8
          CFI CFA_XSP16 add(XSP16, 30)
        ; Setup parameters for call to function osal_stop_timerEx
        MOV     R2,#0x0
        MOV     R3,#0x8
        MOV     DPTR,#zllInitiator_TaskID
        MOVX    A,@DPTR
        MOV     R1,A
        LCALL   ??osal_stop_timerEx?relay
//  640           stat = ZSuccess;
//  641           break;
//  642 
//  643         default:
//  644           break;
//  645       }
//  646 
//  647       if ( stat == ZSuccess )
//  648       {
//  649         // Release the OSAL message
//  650         VOID osal_msg_deallocate( (uint8 *)pMsg );
??zllInitiator_event_loop_13:
        ; Setup parameters for call to function osal_msg_deallocate
        MOV     R2,?V0 + 0
        MOV     R3,?V0 + 1
        LCALL   ??osal_msg_deallocate?relay
        SJMP    ??zllInitiator_event_loop_1
//  651       }
//  652       else
//  653       {
//  654         // forward to the application
//  655         osal_msg_send( initiatorRegisteredMsgAppTaskID, (uint8 *)pMsg );
??zllInitiator_event_loop_5:
        ; Setup parameters for call to function osal_msg_send
        MOV     R2,?V0 + 0
        MOV     R3,?V0 + 1
        MOV     DPTR,#initiatorRegisteredMsgAppTaskID
        MOVX    A,@DPTR
        MOV     R1,A
        LCALL   ??osal_msg_send?relay
//  656       }
//  657     }
//  658 
//  659     // return unprocessed events
//  660     return ( events ^ SYS_EVENT_MSG );
??zllInitiator_event_loop_1:
        MOV     A,R6
        MOV     R2,A
        MOV     A,R7
        XRL     A,#0x80
        LJMP    ??zllInitiator_event_loop_20 & 0xFFFF
//  661   }
//  662 
//  663   if ( events & ZLL_TL_SCAN_BASE_EVT )
??zllInitiator_event_loop_0:
        MOV     A,R6
        ANL     A,#0x40
        JNZ     $+5
        LJMP    ??zllInitiator_event_loop_21 & 0xFFFF
//  664   {
//  665     if ( ( ( scanReqChannels == ZLL_SCAN_PRIMARY_CHANNELS ) && ( numScanReqSent < ZLL_INITIATOR_NUM_SCAN_REQ_PRIMARY  ) ) ||
//  666          ( ( scanReqChannels == ZLL_SCAN_SECONDARY_CHANNELS ) && ( numScanReqSent < ZLL_INITIATOR_NUM_SCAN_REQ_EXTENDED ) ) )
        MOV     DPTR,#scanReqChannels
        MOVX    A,@DPTR
        XRL     A,#0x1
        JNZ     ??zllInitiator_event_loop_22
        MOV     DPTR,#numScanReqSent
        MOVX    A,@DPTR
        CLR     C
        SUBB    A,#0x8
        JC      ??zllInitiator_event_loop_23
        ; Setup parameters for call to function zll_IsFactoryNew
        LCALL   ??zll_IsFactoryNew?relay
        MOV     A,R1
        JNZ     ??zllInitiator_event_loop_24
        MOV     DPTR,#zllJoinedHANetwork
        MOVX    A,@DPTR
        XRL     A,#0x1
        JNZ     ??zllInitiator_event_loop_25
//  667     {
//  668       // Send another Scan Request on the next channel
//  669       initiatorSendScanReq( FALSE );
//  670     }
//  671     else // Channels scan is complete
//  672     {
//  673       if ( ( scanReqChannels == ZLL_SCAN_PRIMARY_CHANNELS )
//  674           && ( zll_IsFactoryNew() || ( zllJoinedHANetwork == TRUE ) ) )
//  675       {
//  676         // Extended scan is required, lets scan secondary channels
//  677         scanReqChannels = ZLL_SCAN_SECONDARY_CHANNELS;
??zllInitiator_event_loop_24:
        MOV     DPTR,#scanReqChannels
        MOV     A,#0x2
        MOVX    @DPTR,A
//  678 
//  679         // Send another Scan Request on the next channel
//  680         initiatorSendScanReq( FALSE );
        ; Setup parameters for call to function initiatorSendScanReq
        SJMP    ??zllInitiator_event_loop_23
//  681       }
??zllInitiator_event_loop_22:
        MOVX    A,@DPTR
        XRL     A,#0x2
        JNZ     ??zllInitiator_event_loop_25
        MOV     DPTR,#numScanReqSent
        MOVX    A,@DPTR
        CLR     C
        SUBB    A,#0x14
        JNC     ??zllInitiator_event_loop_25
??zllInitiator_event_loop_23:
        ; Setup parameters for call to function initiatorSendScanReq
        MOV     R1,#0x0
        LCALL   ??initiatorSendScanReq?relay
        SJMP    ??zllInitiator_event_loop_26
//  682       // See if we've received any Scan Responses back
//  683       else if ( ( selectedTarget.lastRssi != ZLL_TL_WORST_RSSI )
//  684                && ( selectedTarget.scanRsp.deviceInfo.endpoint != DEV_INFO_INVALID_EP ) )
??zllInitiator_event_loop_25:
        MOV     DPTR,#selectedTarget + 53
        MOVX    A,@DPTR
        XRL     A,#0xd8
        JZ      ??zllInitiator_event_loop_27
        MOV     DPTR,#selectedTarget + 31
        MOVX    A,@DPTR
        XRL     A,#0xfe
        JZ      ??zllInitiator_event_loop_27
//  685       {
//  686         // Make sure the responder is not a factory new remote if this controller is
//  687         if ( !zll_IsFactoryNew() || ( selectedTarget.scanRsp.zllLinkInitiator == FALSE ) )
        ; Setup parameters for call to function zll_IsFactoryNew
        LCALL   ??zll_IsFactoryNew?relay
        MOV     A,R1
        JZ      ??zllInitiator_event_loop_28
        MOV     DPTR,#selectedTarget + 7
        MOVX    A,@DPTR
        ANL     A,#0x10
        JNZ     ??zllInitiator_event_loop_26
//  688         {
//  689           zclLLIdentifyReq_t req;
//  690 
//  691           // Tune to the channel that the Scan Response was heard on
//  692           zll_SetChannel( selectedTarget.rxChannel );
??zllInitiator_event_loop_28:
        ; Setup parameters for call to function zll_SetChannel
        MOV     DPTR,#selectedTarget + 52
        MOVX    A,@DPTR
        MOV     R1,A
        LCALL   ??zll_SetChannel?relay
//  693 
//  694           req.transID = selectedTarget.scanRsp.transID;
        MOV     DPTR,#selectedTarget
        LCALL   ?XLOAD_R2345
        MOV     A,#0x8
        LCALL   ?XSTACK_DISP0_8
        LCALL   ?XSTORE_R2345
//  695           req.IdDuration = 0xffff;
        MOV     A,#0xc
        LCALL   ?XSTACK_DISP0_8
        MOV     A,#-0x1
        LCALL   ?Subroutine7 & 0xFFFF
//  696 
//  697           // Send an Identify Request first
//  698           zclLL_Send_IndentifyReq( ZLL_INTERNAL_ENDPOINT, &(selectedTarget.srcAddr), &req, initiatorSeqNum++ );
??CrossCallReturnLabel_45:
        LCALL   ?PUSH_XSTACK_I_ONE
          CFI CFA_XSP16 add(XSP16, 31)
        MOV     A,#0x9
        LCALL   ?XSTACK_DISP0_8
        MOV     R4,DPL
        MOV     R5,DPH
        MOV     R2,#(selectedTarget + 38) & 0xff
        MOV     R3,#((selectedTarget + 38) >> 8) & 0xff
        MOV     R1,#0xd
        LCALL   ??zclLL_Send_IndentifyReq?relay
        MOV     A,#0x1
        LCALL   ?DEALLOC_XSTACK8
          CFI CFA_XSP16 add(XSP16, 30)
//  699 
//  700           // Notify our task to configure the target (if needed)
//  701           osal_start_timerEx( zllInitiator_TaskID, ZLL_CFG_TARGET_EVT, ZLL_INITIATOR_IDENTIFY_INTERVAL );
        ; Setup parameters for call to function osal_start_timerEx
        MOV     DPTR,#__Constant_1f4
        LCALL   ?PUSH_XSTACK8_X_FOUR
          CFI CFA_XSP16 add(XSP16, 34)
        MOV     R2,#-0x80
        MOV     R3,#0x0
        MOV     DPTR,#zllInitiator_TaskID
        MOVX    A,@DPTR
        MOV     R1,A
        LCALL   ??osal_start_timerEx?relay
        MOV     A,#0x4
        LCALL   ?DEALLOC_XSTACK8
          CFI CFA_XSP16 add(XSP16, 30)
        SJMP    ??zllInitiator_event_loop_26
//  702         }
//  703         // else wait for touch-link commands from the other initiator
//  704       }
//  705       else
//  706       {
//  707         // We did not manage to select any target
//  708         // Let's just go back to our initial configuration
//  709         osal_set_event( zllInitiator_TaskID, ZLL_DISABLE_RX_EVT );
??zllInitiator_event_loop_27:
        ; Setup parameters for call to function osal_set_event
        MOV     R2,#0x0
        MOV     R3,#0x4
        MOV     DPTR,#zllInitiator_TaskID
        MOVX    A,@DPTR
        MOV     R1,A
        LCALL   ??osal_set_event?relay
//  710       }
//  711     }
//  712 
//  713     // return unprocessed events
//  714     return ( events ^ ZLL_TL_SCAN_BASE_EVT );
??zllInitiator_event_loop_26:
        MOV     A,R6
        XRL     A,#0x40
        LJMP    ??zllInitiator_event_loop_29 & 0xFFFF
//  715   }
//  716 
//  717   if ( events & ZLL_CFG_TARGET_EVT )
??zllInitiator_event_loop_21:
        MOV     A,R6
        ANL     A,#0x80
        JNZ     $+5
        LJMP    ??zllInitiator_event_loop_30 & 0xFFFF
//  718   {
//  719     ZStatus_t status = ZFailure;
//  720 
//  721     zclLLIdentifyReq_t req;
//  722 
//  723     req.transID = selectedTarget.scanRsp.transID;
        MOV     DPTR,#selectedTarget
        LCALL   ?XLOAD_R2345
        MOV     A,#0x8
        LCALL   ?XSTACK_DISP0_8
        LCALL   ?XSTORE_R2345
//  724     req.IdDuration = 0x0;
        MOV     A,#0xc
        LCALL   ?XSTACK_DISP0_8
        CLR     A
        LCALL   ?Subroutine7 & 0xFFFF
//  725 
//  726     // Send an Identify stop Request
//  727     zclLL_Send_IndentifyReq( ZLL_INTERNAL_ENDPOINT, &(selectedTarget.srcAddr), &req, initiatorSeqNum++ );
??CrossCallReturnLabel_46:
        LCALL   ?PUSH_XSTACK_I_ONE
          CFI CFA_XSP16 add(XSP16, 31)
        MOV     A,#0x9
        LCALL   ?XSTACK_DISP0_8
        MOV     R4,DPL
        MOV     R5,DPH
        MOV     R2,#(selectedTarget + 38) & 0xff
        MOV     R3,#((selectedTarget + 38) >> 8) & 0xff
        MOV     R1,#0xd
        LCALL   ??zclLL_Send_IndentifyReq?relay
        MOV     A,#0x1
        LCALL   ?DEALLOC_XSTACK8
          CFI CFA_XSP16 add(XSP16, 30)
//  728 
//  729     // Configure the target
//  730     if ( zll_IsFactoryNew() )
        ; Setup parameters for call to function zll_IsFactoryNew
        LCALL   ??zll_IsFactoryNew?relay
        MOV     A,R1
        JZ      ??zllInitiator_event_loop_31
//  731     {
//  732       // verify address ranges split possible if required
//  733       if ( !selectedTarget.scanRsp.zllAddressAssignment
//  734           || zll_IsValidSplitFreeRanges( selectedTarget.scanRsp.totalGrpIDs ) )
        MOV     DPTR,#selectedTarget + 7
        MOVX    A,@DPTR
        ANL     A,#0x2
        JZ      ??zllInitiator_event_loop_32
        ; Setup parameters for call to function zll_IsValidSplitFreeRanges
        MOV     DPTR,#selectedTarget + 30
        MOVX    A,@DPTR
        MOV     R1,A
        LCALL   ??zll_IsValidSplitFreeRanges?relay
        MOV     A,R1
        JZ      ??zllInitiator_event_loop_33
//  735       {
//  736         // Must be the first light; ask the light to start the network
//  737         status = initiatorSendNwkStartReq( &(selectedTarget.scanRsp) );
??zllInitiator_event_loop_32:
        ; Setup parameters for call to function initiatorSendNwkStartReq
        MOV     R2,#selectedTarget & 0xff
        MOV     R3,#(selectedTarget >> 8) & 0xff
        LCALL   ??initiatorSendNwkStartReq?relay
??zllInitiator_event_loop_34:
        MOV     A,R1
//  738       }
//  739     }
//  740     else if ( !zllJoinedHANetwork || ( _NIB.nwkPanId == selectedTarget.scanRsp.PANID) )
//  741     {
//  742       // Tune to the channel that the Scan Response was heard on
//  743       zll_SetChannel( selectedTarget.rxChannel );
//  744 
//  745       // See if the target is part of our network
//  746       if ( !ZLL_SAME_NWK( selectedTarget.scanRsp.PANID, selectedTarget.scanRsp.extendedPANID ) )
//  747       {
//  748         // verify address ranges split possible if required
//  749         if ( !selectedTarget.scanRsp.zllAddressAssignment
//  750             || zll_IsValidSplitFreeRanges( selectedTarget.scanRsp.totalGrpIDs ) )
//  751         {
//  752           // Ask the target to join our network
//  753           status = initiatorSendNwkJoinReq( &(selectedTarget.scanRsp) );
//  754         }
//  755       }
//  756       else if ( _NIB.nwkUpdateId != selectedTarget.scanRsp.nwkUpdateId )
//  757       {
//  758         uint8 updateId = zll_NewNwkUpdateId( _NIB.nwkUpdateId, selectedTarget.scanRsp.nwkUpdateId );
//  759 
//  760         // Target is already part of our network
//  761         if ( updateId != _NIB.nwkUpdateId )
//  762         {
//  763           // Update our network update id and logical channel
//  764           zll_ProcessNwkUpdate( updateId, selectedTarget.scanRsp.logicalChannel );
//  765 
//  766           // Rejoin this network
//  767           _NIB.nwkState = NWK_REJOINING;
//  768           initiatorReJoinNwk( MODE_REJOIN );
//  769 
//  770           // We're done here
//  771           status = ZSuccess;
//  772         }
//  773         else
//  774         {
//  775           // Inform the target to update its network update id and logical channel
//  776           initiatorSendNwkUpdateReq( &(selectedTarget.scanRsp) ); // there's no corresponding response!
//  777 
//  778           // Notify the application about this device
//  779           osal_set_event( zllInitiator_TaskID, ZLL_NOTIFY_APP_EVT );
//  780         }
//  781       }
//  782       //we are touchlinking to a light in our network, just send application the device info
//  783       else if ( selectedTarget.scanRsp.zllLinkInitiator == FALSE )
//  784       {
//  785         epInfoRec_t rec;
//  786         rec.nwkAddr = selectedTarget.scanRsp.nwkAddr;
//  787         rec.endpoint = selectedTarget.scanRsp.deviceInfo.endpoint;
//  788         rec.profileID = selectedTarget.scanRsp.deviceInfo.profileID;
//  789         rec.deviceID = selectedTarget.scanRsp.deviceInfo.deviceID;
//  790         rec.version = selectedTarget.scanRsp.deviceInfo.version;
//  791         // Notify the application
//  792         if ( pfnNotifyAppCB )
//  793         {
//  794           (*pfnNotifyAppCB)( &rec );
//  795         }
//  796 #if defined ( MT_APP_FUNC )
//  797         MT_ZllNotifyTL( &rec );
//  798 #endif
//  799       }
//  800     }
//  801 
//  802     if ( status == ZSuccess )
        JNZ     ??zllInitiator_event_loop_33
//  803     {
//  804       // Wait for a response (if any), which will over write this
//  805       rxRsp.nwkStartRsp.status = ZLL_NETWORK_START_RSP_STATUS_FAILURE;
??zllInitiator_event_loop_35:
        MOV     DPTR,#rxRsp + 4
        MOV     A,#0x1
        MOVX    @DPTR,A
//  806     }
//  807 
//  808     // return unprocessed events
//  809     return ( events ^ ZLL_CFG_TARGET_EVT );
??zllInitiator_event_loop_33:
        MOV     A,R6
        XRL     A,#0x80
        LJMP    ??zllInitiator_event_loop_29 & 0xFFFF
??zllInitiator_event_loop_31:
        MOV     DPTR,#zllJoinedHANetwork
        MOVX    A,@DPTR
        JZ      ??zllInitiator_event_loop_36
        LCALL   ?Subroutine22 & 0xFFFF
??CrossCallReturnLabel_25:
        JNZ     ??zllInitiator_event_loop_37
        INC     DPTR
        MOVX    A,@DPTR
        XRL     A,R1
??zllInitiator_event_loop_37:
        JNZ     ??zllInitiator_event_loop_33
??zllInitiator_event_loop_36:
        ; Setup parameters for call to function zll_SetChannel
        MOV     DPTR,#selectedTarget + 52
        MOVX    A,@DPTR
        MOV     R1,A
        LCALL   ??zll_SetChannel?relay
        LCALL   ?Subroutine22 & 0xFFFF
??CrossCallReturnLabel_26:
        JNZ     ??zllInitiator_event_loop_38
        INC     DPTR
        MOVX    A,@DPTR
        XRL     A,R1
??zllInitiator_event_loop_38:
        JNZ     ??zllInitiator_event_loop_39
        ; Setup parameters for call to function sAddrExtCmp
        MOV     R4,#(selectedTarget + 15) & 0xff
        MOV     R5,#((selectedTarget + 15) >> 8) & 0xff
        MOV     R2,#(_NIB + 53) & 0xff
        MOV     R3,#((_NIB + 53) >> 8) & 0xff
        LCALL   ??sAddrExtCmp?relay
        MOV     A,R1
        JNZ     ??zllInitiator_event_loop_40
??zllInitiator_event_loop_39:
        MOV     DPTR,#selectedTarget + 7
        MOVX    A,@DPTR
        ANL     A,#0x2
        JZ      ??zllInitiator_event_loop_41
        ; Setup parameters for call to function zll_IsValidSplitFreeRanges
        MOV     DPTR,#selectedTarget + 30
        MOVX    A,@DPTR
        MOV     R1,A
        LCALL   ??zll_IsValidSplitFreeRanges?relay
        MOV     A,R1
        JZ      ??zllInitiator_event_loop_33
??zllInitiator_event_loop_41:
        ; Setup parameters for call to function initiatorSendNwkJoinReq
        MOV     R2,#selectedTarget & 0xff
        MOV     R3,#(selectedTarget >> 8) & 0xff
        LCALL   ??initiatorSendNwkJoinReq?relay
        SJMP    ??zllInitiator_event_loop_34
??zllInitiator_event_loop_40:
        MOV     DPTR,#selectedTarget + 23
        MOVX    A,@DPTR
        MOV     R2,A
        MOV     DPTR,#_NIB + 109
        MOVX    A,@DPTR
        MOV     R1,A
        MOV     A,R2
        XRL     A,R1
        JNZ     $+5
        LJMP    ??zllInitiator_event_loop_42 & 0xFFFF
        ; Setup parameters for call to function zll_NewNwkUpdateId
        LCALL   ??zll_NewNwkUpdateId?relay
        MOV     DPTR,#_NIB + 109
        MOVX    A,@DPTR
        XRL     A,R1
        JZ      ??zllInitiator_event_loop_43
        ; Setup parameters for call to function zll_ProcessNwkUpdate
        MOV     DPTR,#selectedTarget + 24
        MOVX    A,@DPTR
        MOV     R2,A
        LCALL   ??zll_ProcessNwkUpdate?relay
        MOV     DPTR,#_NIB + 35
        MOV     A,#0x9
        MOVX    @DPTR,A
        ; Setup parameters for call to function initiatorReJoinNwk
        MOV     R1,#0x3
        LCALL   ??initiatorReJoinNwk?relay
        LJMP    ??zllInitiator_event_loop_35 & 0xFFFF
??zllInitiator_event_loop_43:
        ; Setup parameters for call to function osal_mem_alloc
        MOV     R2,#0x12
        MOV     R3,#0x0
        LCALL   ??osal_mem_alloc?relay
        MOV     ?V0 + 0,R2
        MOV     ?V0 + 1,R3
        MOV     A,R2
        ORL     A,?V0 + 1
        JZ      ??zllInitiator_event_loop_44
        MOV     DPTR,#selectedTarget
        LCALL   ?XLOAD_R2345
        MOV     DPL,?V0 + 0
        MOV     DPH,?V0 + 1
        LCALL   ?XSTORE_R2345
        ; Setup parameters for call to function sAddrExtCpy
        MOV     R4,#(_NIB + 53) & 0xff
        MOV     R5,#((_NIB + 53) >> 8) & 0xff
        LCALL   ?Subroutine27 & 0xFFFF
??CrossCallReturnLabel_30:
        LCALL   ??sAddrExtCpy?relay
        MOV     DPTR,#_NIB + 109
        MOVX    A,@DPTR
        PUSH    A
          CFI CFA_SP SP+-1
        MOV     A,?V0 + 0
        ADD     A,#0xc
        LCALL   ?Subroutine29 & 0xFFFF
??CrossCallReturnLabel_41:
        POP     A
          CFI CFA_SP SP+0
        MOVX    @DPTR,A
        MOV     DPTR,#_NIB + 22
        MOVX    A,@DPTR
        PUSH    A
          CFI CFA_SP SP+-1
        MOV     A,?V0 + 0
        ADD     A,#0xd
        LCALL   ?Subroutine29 & 0xFFFF
??CrossCallReturnLabel_42:
        POP     A
          CFI CFA_SP SP+0
        LCALL   ?Subroutine9 & 0xFFFF
??CrossCallReturnLabel_2:
        MOV     A,?V0 + 0
        ADD     A,#0xe
        LCALL   ?Subroutine29 & 0xFFFF
??CrossCallReturnLabel_43:
        LCALL   ??Subroutine39_0 & 0xFFFF
??CrossCallReturnLabel_57:
        MOV     DPTR,#selectedTarget + 27
        LCALL   ??Subroutine42_0 & 0xFFFF
??CrossCallReturnLabel_77:
        MOV     A,?V0 + 0
        ADD     A,#0x10
        MOV     DPL,A
        MOV     A,?V0 + 1
        LCALL   ?Subroutine28 & 0xFFFF
??CrossCallReturnLabel_32:
        LCALL   ?Subroutine8 & 0xFFFF
??CrossCallReturnLabel_0:
        LCALL   ?PUSH_XSTACK_I_ONE
          CFI CFA_XSP16 add(XSP16, 31)
        MOV     R4,?V0 + 0
        MOV     R5,?V0 + 1
        MOV     R2,#(selectedTarget + 38) & 0xff
        MOV     R3,#((selectedTarget + 38) >> 8) & 0xff
        MOV     R1,#0xd
        LCALL   ??zclLL_Send_NwkUpdateReq?relay
        MOV     A,#0x1
        LCALL   ?DEALLOC_XSTACK8
          CFI CFA_XSP16 add(XSP16, 30)
        ; Setup parameters for call to function osal_mem_free
        MOV     R2,?V0 + 0
        MOV     R3,?V0 + 1
        LCALL   ??osal_mem_free?relay
??zllInitiator_event_loop_44:
        ; Setup parameters for call to function osal_set_event
        MOV     R2,#0x0
        MOV     R3,#0x10
        MOV     DPTR,#zllInitiator_TaskID
        MOVX    A,@DPTR
        MOV     R1,A
        LCALL   ??osal_set_event?relay
        LJMP    ??zllInitiator_event_loop_33 & 0xFFFF
??zllInitiator_event_loop_42:
        MOV     DPTR,#selectedTarget + 7
        MOVX    A,@DPTR
        ANL     A,#0x10
        JZ      $+5
        LJMP    ??zllInitiator_event_loop_33 & 0xFFFF
        MOV     DPTR,#selectedTarget + 27
        LCALL   ?Subroutine13 & 0xFFFF
??CrossCallReturnLabel_11:
        PUSH    A
          CFI CFA_SP SP+-1
        MOV     A,#0x2
        LCALL   ?XSTACK_DISP0_8
        POP     A
          CFI CFA_SP SP+0
        LCALL   ?Subroutine11 & 0xFFFF
??CrossCallReturnLabel_7:
        LCALL   ?XSTACK_DISP0_8
        LCALL   ?Subroutine10 & 0xFFFF
??CrossCallReturnLabel_5:
        LCALL   ?XSTACK_DISP0_8
        LCALL   ?Subroutine14 & 0xFFFF
??CrossCallReturnLabel_13:
        PUSH    A
          CFI CFA_SP SP+-1
        MOV     A,#0x7
        LCALL   ?XSTACK_DISP0_8
        POP     A
          CFI CFA_SP SP+0
        LCALL   ?Subroutine12 & 0xFFFF
??CrossCallReturnLabel_9:
        JZ      ??zllInitiator_event_loop_45
        ; Setup parameters for indirect call
        LCALL   ?Subroutine18 & 0xFFFF
??CrossCallReturnLabel_103:
        LCALL   ?CALL_IND
??zllInitiator_event_loop_45:
        ; Setup parameters for call to function MT_ZllNotifyTL
        MOV     DPL,?XSP + 0
        MOV     DPH,?XSP + 1
        MOV     R2,DPL
        MOV     R3,DPH
        LCALL   ??MT_ZllNotifyTL?relay
        LJMP    ??zllInitiator_event_loop_33 & 0xFFFF
//  810   }
//  811 
//  812   if ( events & ZLL_W4_NWK_START_RSP_EVT )
??zllInitiator_event_loop_30:
        MOV     A,R7
        ANL     A,#0x1
        JNZ     $+5
        LJMP    ??zllInitiator_event_loop_46 & 0xFFFF
//  813   {
//  814     zclLLNwkStartRsp_t *pRsp = &(rxRsp.nwkStartRsp);
//  815 
//  816     if ( ( pRsp->status == ZLL_NETWORK_START_RSP_STATUS_SUCCESS )
//  817        && nwk_ExtPANIDValid( pRsp->extendedPANID ) )
        MOV     DPTR,#rxRsp + 4
        MOVX    A,@DPTR
        JNZ     ??zllInitiator_event_loop_47
        ; Setup parameters for call to function nwk_ExtPANIDValid
        MOV     R2,#(rxRsp + 5) & 0xff
        MOV     R3,#((rxRsp + 5) >> 8) & 0xff
        LCALL   ??nwk_ExtPANIDValid?relay
        MOV     A,R1
        JZ      ??zllInitiator_event_loop_47
//  818     {
//  819       // Copy the new network parameters to NIB
//  820       zll_SetNIB( ( ZSTACK_ROUTER_BUILD ? NWK_ROUTER : NWK_REJOINING ),
//  821                   _NIB.nwkDevAddress, pRsp->extendedPANID,
//  822                   pRsp->logicalChannel, pRsp->panId, pRsp->nwkUpdateId );
        ; Setup parameters for call to function zll_SetNIB
        MOV     DPTR,#rxRsp + 13
        LCALL   ?Subroutine19 & 0xFFFF
??CrossCallReturnLabel_15:
        LCALL   ?PUSH_XSTACK_I_ONE
          CFI CFA_XSP16 add(XSP16, 31)
        MOV     DPTR,#rxRsp + 15
        LCALL   ?PUSH_XSTACK8_X_TWO
          CFI CFA_XSP16 add(XSP16, 33)
        MOV     DPTR,#rxRsp + 14
        LCALL   ?Subroutine19 & 0xFFFF
??CrossCallReturnLabel_16:
        LCALL   ?PUSH_XSTACK_I_ONE
          CFI CFA_XSP16 add(XSP16, 34)
        MOV     R4,#(rxRsp + 5) & 0xff
        MOV     R5,#((rxRsp + 5) >> 8) & 0xff
        LCALL   ??Subroutine46_0 & 0xFFFF
??CrossCallReturnLabel_113:
        MOV     R1,#0x8
        LCALL   ??zll_SetNIB?relay
        MOV     A,#0x4
        LCALL   ?DEALLOC_XSTACK8
          CFI CFA_XSP16 add(XSP16, 30)
//  823 
//  824       // Apply the received network key
//  825       zll_DecryptNwkKey( encKeySent, keyIndexSent, pRsp->transID, responseIDSent );
        ; Setup parameters for call to function zll_DecryptNwkKey
        MOV     DPTR,#responseIDSent
        LCALL   ?PUSH_XSTACK8_X_FOUR
          CFI CFA_XSP16 add(XSP16, 34)
        MOV     DPTR,#rxRsp
        LCALL   ?PUSH_XSTACK8_X_FOUR
          CFI CFA_XSP16 add(XSP16, 38)
        MOV     DPTR,#keyIndexSent
        MOVX    A,@DPTR
        MOV     R1,A
        MOV     R2,#encKeySent & 0xff
        MOV     R3,#(encKeySent >> 8) & 0xff
        LCALL   ??zll_DecryptNwkKey?relay
        MOV     A,#0x8
        LCALL   ?DEALLOC_XSTACK8
          CFI CFA_XSP16 add(XSP16, 30)
//  826 
//  827       // This is not a usual Trust Center protected network
//  828       ZDSecMgrUpdateTCAddress( NULL );
        ; Setup parameters for call to function ZDSecMgrUpdateTCAddress
        MOV     R2,#0x0
        MOV     R3,#0x0
        LCALL   ??ZDSecMgrUpdateTCAddress?relay
//  829 
//  830       // Notify the application about this device
//  831       osal_set_event( zllInitiator_TaskID, ZLL_NOTIFY_APP_EVT );
        ; Setup parameters for call to function osal_set_event
        MOV     R2,#0x0
        MOV     R3,#0x10
        MOV     DPTR,#zllInitiator_TaskID
        MOVX    A,@DPTR
        MOV     R1,A
        LCALL   ??osal_set_event?relay
//  832 
//  833       // Wait at least ZLL_APLC_MIN_STARTUP_DELAY_TIME seconds to allow the
//  834       // target to start the network correctly. Join the target afterwards.
//  835       osal_start_timerEx( zllInitiator_TaskID, ZLL_START_NWK_EVT, ZLL_APLC_MIN_STARTUP_DELAY_TIME );
        ; Setup parameters for call to function osal_start_timerEx
        MOV     DPTR,#__Constant_7d0
        LCALL   ?PUSH_XSTACK8_X_FOUR
          CFI CFA_XSP16 add(XSP16, 34)
        MOV     R2,#0x8
        MOV     R3,#0x0
        MOV     DPTR,#zllInitiator_TaskID
        MOVX    A,@DPTR
        MOV     R1,A
        LCALL   ??osal_start_timerEx?relay
        MOV     A,#0x4
        LCALL   ?DEALLOC_XSTACK8
          CFI CFA_XSP16 add(XSP16, 30)
//  836     }
//  837 
//  838     // return unprocessed events
//  839     return ( events ^ ZLL_W4_NWK_START_RSP_EVT );
??zllInitiator_event_loop_47:
        MOV     A,R6
        MOV     R2,A
        MOV     A,R7
        XRL     A,#0x1
        LJMP    ??zllInitiator_event_loop_20 & 0xFFFF
//  840   }
//  841 
//  842   if ( events & ZLL_START_NWK_EVT )
??zllInitiator_event_loop_46:
        MOV     A,R6
        ANL     A,#0x8
        JZ      ??zllInitiator_event_loop_48
//  843   {
//  844     // Let's join the network started by the target
//  845     initiatorJoinNwk();
        ; Setup parameters for call to function initiatorJoinNwk
        LCALL   ??initiatorJoinNwk?relay
//  846 
//  847     // return unprocessed events
//  848     return ( events ^ ZLL_START_NWK_EVT );
        MOV     A,R6
        XRL     A,#0x8
        LJMP    ??zllInitiator_event_loop_29 & 0xFFFF
//  849   }
//  850 
//  851   if ( events & ZLL_W4_NWK_JOIN_RSP_EVT )
??zllInitiator_event_loop_48:
        MOV     A,R7
        ANL     A,#0x2
        JZ      ??zllInitiator_event_loop_49
//  852   {
//  853     zclLLNwkJoinRsp_t *pRsp = &(rxRsp.nwkJoinRsp);
//  854 
//  855     if ( pRsp->status == ZLL_NETWORK_JOIN_RSP_STATUS_SUCCESS )
        MOV     DPTR,#rxRsp + 4
        MOVX    A,@DPTR
        JNZ     ??zllInitiator_event_loop_50
//  856     {
//  857       // Target has joined our network
//  858 
//  859       // Wait at least ZLL_APLC_MIN_STARTUP_DELAY_TIME seconds to allow the
//  860       // target to start operating on the network correctly. Notify the
//  861       // application afterwards.
//  862       osal_start_timerEx( zllInitiator_TaskID, ZLL_NOTIFY_APP_EVT,
//  863                           ZLL_APLC_MIN_STARTUP_DELAY_TIME );
        ; Setup parameters for call to function osal_start_timerEx
        MOV     DPTR,#__Constant_7d0
        LCALL   ?PUSH_XSTACK8_X_FOUR
          CFI CFA_XSP16 add(XSP16, 34)
        MOV     R2,#0x0
        MOV     R3,#0x10
        MOV     DPTR,#zllInitiator_TaskID
        MOVX    A,@DPTR
        MOV     R1,A
        LCALL   ??osal_start_timerEx?relay
        MOV     A,#0x4
        LCALL   ?DEALLOC_XSTACK8
          CFI CFA_XSP16 add(XSP16, 30)
//  864     }
//  865 
//  866     // We're done with touch-link procedure here
//  867     initiatorSetNwkToInitState();
??zllInitiator_event_loop_50:
        ; Setup parameters for call to function initiatorSetNwkToInitState
        LCALL   ??initiatorSetNwkToInitState?relay
//  868 
//  869     zll_UpdateNV( ZLL_UPDATE_NV_RANGES );
        ; Setup parameters for call to function zll_UpdateNV
        MOV     R1,#0x2
        LCALL   ??zll_UpdateNV?relay
//  870 
//  871     if ( ( POLL_RATE == 0 ) && ( selectedTarget.scanRsp.zLogicalType == ZG_DEVICETYPE_ENDDEVICE ) )
//  872     {
//  873       //allow to respond to ZLL commission utility commands after TL
//  874       NLME_SetPollRate( ZLL_INITIATOR_TEMP_POST_TL_POLL_RATE );
//  875       //polling should reset when TL life time expires
//  876     }
//  877 
//  878     // return unprocessed events
//  879     return ( events ^ ZLL_W4_NWK_JOIN_RSP_EVT );
        MOV     A,R6
        MOV     R2,A
        MOV     A,R7
        XRL     A,#0x2
        LJMP    ??zllInitiator_event_loop_20 & 0xFFFF
//  880   }
//  881 
//  882   if ( events & ZLL_ENDDEVICE_JOIN_EVT )
??zllInitiator_event_loop_49:
        MOV     A,R6
        ANL     A,#0x2
        JZ      ??zllInitiator_event_loop_51
//  883   {
//  884     // If not factory new, perform a Leave on our old network
//  885     if ( !zll_IsFactoryNew() && ( zll_SendLeaveReq() == ZSuccess ) )
        ; Setup parameters for call to function zll_IsFactoryNew
        LCALL   ??zll_IsFactoryNew?relay
        MOV     A,R1
        JNZ     ??zllInitiator_event_loop_52
        ; Setup parameters for call to function zll_SendLeaveReq
        LCALL   ??zll_SendLeaveReq?relay
        MOV     A,R1
        JNZ     ??zllInitiator_event_loop_52
//  886     {
//  887       // Wait for Leave confirmation before joining the new network
//  888       zllLeaveInitiated = ZLL_LEAVE_TO_JOIN_NWK;
        MOV     DPTR,#zllLeaveInitiated
        MOV     A,#0x1
        MOVX    @DPTR,A
        SJMP    ??zllInitiator_event_loop_53
//  889     }
//  890     else
//  891     {
//  892       // Notify our task to join this network
//  893       osal_set_event( zllInitiator_TaskID, ZLL_JOIN_NWK_EVT );
??zllInitiator_event_loop_52:
        ; Setup parameters for call to function osal_set_event
        MOV     R2,#0x10
        MOV     R3,#0x0
        MOV     DPTR,#zllInitiator_TaskID
        MOVX    A,@DPTR
        MOV     R1,A
        LCALL   ??osal_set_event?relay
//  894     }
//  895 
//  896     // return unprocessed events
//  897     return ( events ^ ZLL_ENDDEVICE_JOIN_EVT );
??zllInitiator_event_loop_53:
        MOV     A,R6
        XRL     A,#0x2
        LJMP    ??zllInitiator_event_loop_29 & 0xFFFF
//  898   }
//  899 
//  900   if ( events & ZLL_JOIN_NWK_EVT )
??zllInitiator_event_loop_51:
        MOV     A,R6
        ANL     A,#0x10
        JZ      ??zllInitiator_event_loop_54
//  901   {
//  902     if ( joinReq.nwkParams.nwkAddr != INVALID_NODE_ADDR ) // update only if valid, otherwise use our own values.
        MOV     DPTR,#joinReq + 32
        LCALL   ??Subroutine47_0 & 0xFFFF
??CrossCallReturnLabel_108:
        MOV     A,#-0x2
        XRL     A,R2
        JNZ     ??zllInitiator_event_loop_55
        MOV     A,#-0x1
        XRL     A,R3
??zllInitiator_event_loop_55:
        JZ      ??zllInitiator_event_loop_56
//  903     {
//  904       zclLLNwkParams_t *pParams = &(joinReq.nwkParams);
//  905 
//  906       // Copy the new network parameters to the NIB
//  907       zll_SetNIB( ( ZSTACK_ROUTER_BUILD ? NWK_ROUTER : NWK_REJOINING ),
//  908                   pParams->nwkAddr, pParams->extendedPANID,
//  909                   pParams->logicalChannel, pParams->panId, joinReq.nwkUpdateId );
        ; Setup parameters for call to function zll_SetNIB
        MOV     DPTR,#joinReq + 46
        LCALL   ?Subroutine19 & 0xFFFF
??CrossCallReturnLabel_17:
        LCALL   ?PUSH_XSTACK_I_ONE
          CFI CFA_XSP16 add(XSP16, 31)
        MOV     DPTR,#joinReq + 30
        LCALL   ?PUSH_XSTACK8_X_TWO
          CFI CFA_XSP16 add(XSP16, 33)
        MOV     DPTR,#joinReq + 29
        LCALL   ?Subroutine19 & 0xFFFF
??CrossCallReturnLabel_18:
        LCALL   ?PUSH_XSTACK_I_ONE
          CFI CFA_XSP16 add(XSP16, 34)
        MOV     R4,#(joinReq + 4) & 0xff
        MOV     R5,#((joinReq + 4) >> 8) & 0xff
        MOV     R1,#0x8
        LCALL   ??zll_SetNIB?relay
        MOV     A,#0x4
        LCALL   ?DEALLOC_XSTACK8
          CFI CFA_XSP16 add(XSP16, 30)
//  910 
//  911       // Apply the received network key
//  912       zll_DecryptNwkKey( pParams->nwkKey, pParams->keyIndex, joinReq.transID, zllResponseID );
        ; Setup parameters for call to function zll_DecryptNwkKey
        MOV     DPTR,#zllResponseID
        LCALL   ?PUSH_XSTACK8_X_FOUR
          CFI CFA_XSP16 add(XSP16, 34)
        MOV     DPTR,#joinReq
        LCALL   ?PUSH_XSTACK8_X_FOUR
          CFI CFA_XSP16 add(XSP16, 38)
        MOV     DPTR,#joinReq + 12
        MOVX    A,@DPTR
        MOV     R1,A
        MOV     R2,#(joinReq + 13) & 0xff
        MOV     R3,#((joinReq + 13) >> 8) & 0xff
        LCALL   ??zll_DecryptNwkKey?relay
        MOV     A,#0x8
        LCALL   ?DEALLOC_XSTACK8
          CFI CFA_XSP16 add(XSP16, 30)
//  913 
//  914       zll_UpdateFreeRanges( pParams );
        ; Setup parameters for call to function zll_UpdateFreeRanges
        MOV     R2,#(joinReq + 4) & 0xff
        MOV     R3,#((joinReq + 4) >> 8) & 0xff
        LCALL   ??zll_UpdateFreeRanges?relay
//  915     }
//  916 
//  917     // We're asked to join a new network; let's do it!
//  918     initiatorJoinNwk();
??zllInitiator_event_loop_56:
        ; Setup parameters for call to function initiatorJoinNwk
        LCALL   ??initiatorJoinNwk?relay
//  919 
//  920     // return unprocessed events
//  921     return ( events ^ ZLL_JOIN_NWK_EVT );
        MOV     A,R6
        XRL     A,#0x10
        LJMP    ??zllInitiator_event_loop_29 & 0xFFFF
//  922   }
//  923 
//  924   if ( events & ZLL_DISABLE_RX_EVT )
??zllInitiator_event_loop_54:
        MOV     A,R7
        ANL     A,#0x4
        JZ      ??zllInitiator_event_loop_57
//  925   {
//  926     // We're not asked to join a network
//  927     initiatorSetNwkToInitState();
        ; Setup parameters for call to function initiatorSetNwkToInitState
        LCALL   ??initiatorSetNwkToInitState?relay
//  928 
//  929     scanReqChannels = ZLL_SCAN_PRIMARY_CHANNELS;
        MOV     DPTR,#scanReqChannels
        MOV     A,#0x1
        MOVX    @DPTR,A
//  930     numScanReqSent = 0;
        MOV     DPTR,#numScanReqSent
        CLR     A
        MOVX    @DPTR,A
//  931     // Reset selected target
//  932     initiatorClearSelectedTarget();
        ; Setup parameters for call to function initiatorClearSelectedTarget
        LCALL   ??initiatorClearSelectedTarget?relay
//  933 
//  934     // return unprocessed events
//  935     return ( events ^ ZLL_DISABLE_RX_EVT );
        MOV     A,R6
        MOV     R2,A
        MOV     A,R7
        XRL     A,#0x4
        LJMP    ??zllInitiator_event_loop_20 & 0xFFFF
//  936   }
//  937 
//  938   if ( events & ZLL_W4_REJOIN_EVT )
??zllInitiator_event_loop_57:
        MOV     A,R7
        ANL     A,#0x8
        JZ      ??zllInitiator_event_loop_58
//  939   {
//  940     // Stop joining cycle
//  941     ZDApp_StopJoiningCycle();
        ; Setup parameters for call to function ZDApp_StopJoiningCycle
        LCALL   ??ZDApp_StopJoiningCycle?relay
//  942 
//  943     // return unprocessed events
//  944     return ( events ^ ZLL_W4_REJOIN_EVT );
        MOV     A,R6
        MOV     R2,A
        MOV     A,R7
        XRL     A,#0x8
        LJMP    ??zllInitiator_event_loop_20 & 0xFFFF
//  945   }
//  946 
//  947   if ( events & ZLL_NOTIFY_APP_EVT )
??zllInitiator_event_loop_58:
        MOV     A,R7
        ANL     A,#0x10
        JZ      ??zllInitiator_event_loop_59
//  948   {
//  949     if ( selectedTarget.lastRssi > ZLL_TL_WORST_RSSI )
        MOV     DPTR,#selectedTarget + 53
        MOVX    A,@DPTR
        LCALL   ?Subroutine26 & 0xFFFF
??CrossCallReturnLabel_27:
        JC      ??zllInitiator_event_loop_60
//  950     {
//  951       epInfoRec_t rec;
//  952       rec.nwkAddr = selectedTarget.newNwkAddr; // newly assigned network address
        MOV     DPTR,#selectedTarget + 50
        LCALL   ?Subroutine13 & 0xFFFF
//  953       rec.endpoint = selectedTarget.scanRsp.deviceInfo.endpoint;
??CrossCallReturnLabel_12:
        PUSH    A
          CFI CFA_SP SP+-1
        MOV     A,#0x2
        LCALL   ?XSTACK_DISP0_8
        POP     A
          CFI CFA_SP SP+0
        LCALL   ?Subroutine11 & 0xFFFF
//  954       rec.profileID = selectedTarget.scanRsp.deviceInfo.profileID;
??CrossCallReturnLabel_8:
        LCALL   ?XSTACK_DISP0_8
        LCALL   ?Subroutine10 & 0xFFFF
//  955       rec.deviceID = selectedTarget.scanRsp.deviceInfo.deviceID;
??CrossCallReturnLabel_6:
        LCALL   ?XSTACK_DISP0_8
        LCALL   ?Subroutine14 & 0xFFFF
//  956       rec.version = selectedTarget.scanRsp.deviceInfo.version;
??CrossCallReturnLabel_14:
        PUSH    A
          CFI CFA_SP SP+-1
        MOV     A,#0x7
        LCALL   ?XSTACK_DISP0_8
        POP     A
          CFI CFA_SP SP+0
        LCALL   ?Subroutine12 & 0xFFFF
//  957       // Notify the application
//  958       if ( pfnNotifyAppCB )
??CrossCallReturnLabel_10:
        JZ      ??zllInitiator_event_loop_61
//  959       {
//  960         (*pfnNotifyAppCB)( &rec );
        ; Setup parameters for indirect call
        LCALL   ?Subroutine18 & 0xFFFF
//  961       }
??CrossCallReturnLabel_104:
        LCALL   ?CALL_IND
//  962 #if defined ( MT_APP_FUNC )
//  963       MT_ZllNotifyTL( &rec );
??zllInitiator_event_loop_61:
        ; Setup parameters for call to function MT_ZllNotifyTL
        MOV     DPL,?XSP + 0
        MOV     DPH,?XSP + 1
        MOV     R2,DPL
        MOV     R3,DPH
        LCALL   ??MT_ZllNotifyTL?relay
//  964 #endif
//  965     }
//  966     // return unprocessed events
//  967     return ( events ^ ZLL_NOTIFY_APP_EVT );
??zllInitiator_event_loop_60:
        MOV     A,R6
        MOV     R2,A
        MOV     A,R7
        XRL     A,#0x10
        SJMP    ??zllInitiator_event_loop_20
//  968   }
//  969 
//  970   if ( events & ZLL_RESET_TO_FN_EVT )
??zllInitiator_event_loop_59:
        MOV     A,R6
        ANL     A,#0x4
        JZ      ??zllInitiator_event_loop_62
//  971   {
//  972     zllInitiator_ResetToFactoryNew();
        ; Setup parameters for call to function zllInitiator_ResetToFactoryNew
        LCALL   ??zllInitiator_ResetToFactoryNew?relay
//  973 
//  974     // return unprocessed events
//  975     return ( events ^ ZLL_RESET_TO_FN_EVT );
        MOV     A,R6
        XRL     A,#0x4
        SJMP    ??zllInitiator_event_loop_29
//  976   }
//  977 
//  978   if ( events & ZLL_NWK_DISC_CNF_EVT )
??zllInitiator_event_loop_62:
        MOV     A,R6
        MOV     C,0xE0 /* A   */.0
        JNC     ??zllInitiator_event_loop_63
//  979   {
//  980     if ( zllHAScanInitiated && ( zllHAScanInitiated != ZLL_SCAN_FOUND_NOTHING ) )
        MOV     DPTR,#zllHAScanInitiated
        MOVX    A,@DPTR
        JZ      ??zllInitiator_event_loop_64
        XRL     A,#0x3
        JZ      ??zllInitiator_event_loop_64
//  981     {
//  982       if ( ( zll_ClassicalCommissioningJoinDiscoveredNwk() == ZSuccess) &&
//  983            ( pfnResetAppCB ) )
        ; Setup parameters for call to function zll_ClassicalCommissioningJoinDiscoveredNwk
        LCALL   ??zll_ClassicalCommissioningJoinDiscoveredNwk?r
        MOV     A,R1
        JNZ     ??zllInitiator_event_loop_64
        LCALL   ?Subroutine17 & 0xFFFF
??CrossCallReturnLabel_37:
        JZ      ??zllInitiator_event_loop_64
//  984       {
//  985         pfnResetAppCB();
        ; Setup parameters for indirect call
        LCALL   ??Subroutine43_0 & 0xFFFF
//  986       }
//  987     }
??CrossCallReturnLabel_99:
        LCALL   ?CALL_IND
//  988     // return unprocessed events
//  989     return ( events ^ ZLL_NWK_DISC_CNF_EVT );
??zllInitiator_event_loop_64:
        MOV     A,R6
        XRL     A,#0x1
        SJMP    ??zllInitiator_event_loop_29
//  990   }
//  991 
//  992   if ( events & ZLL_TRANS_LIFETIME_EXPIRED_EVT )
??zllInitiator_event_loop_63:
        ANL     A,#0x20
        JZ      ??zllInitiator_event_loop_65
//  993   {
//  994     zllTransID = 0;
        MOV     DPTR,#zllTransID
        CLR     A
        MOVX    @DPTR,A
        INC     DPTR
        MOVX    @DPTR,A
        INC     DPTR
        MOVX    @DPTR,A
        INC     DPTR
        MOVX    @DPTR,A
//  995     initiatorClearSelectedTarget();
        ; Setup parameters for call to function initiatorClearSelectedTarget
        LCALL   ??initiatorClearSelectedTarget?relay
//  996     initiatorSetNwkToInitState();
        ; Setup parameters for call to function initiatorSetNwkToInitState
        LCALL   ??initiatorSetNwkToInitState?relay
//  997 
//  998     // return unprocessed events
//  999     return ( events ^ ZLL_TRANS_LIFETIME_EXPIRED_EVT );
        MOV     A,R6
        XRL     A,#0x20
??zllInitiator_event_loop_29:
        MOV     R2,A
        MOV     A,R7
??zllInitiator_event_loop_20:
        MOV     R3,A
        SJMP    ??zllInitiator_event_loop_66
// 1000   }
// 1001 
// 1002   // If reach here, the events are unknown
// 1003   // Discard or make more handlers
// 1004   return 0;
??zllInitiator_event_loop_65:
        MOV     R2,#0x0
        MOV     R3,#0x0
??zllInitiator_event_loop_66:
        MOV     A,#0xe
        LJMP    ?Subroutine1 & 0xFFFF
          CFI EndBlock cfiBlock23
// 1005 }

        RSEG XDATA_Z:XDATA:NOROOT(0)
        DATA8
??channelIndex:
        DS 1
        REQUIRE __INIT_XDATA_Z

        RSEG BANKED_CODE:CODE:NOROOT(0)
?Subroutine29:
          CFI Block cfiCond24 Using cfiCommon0
          CFI Function zllInitiator_event_loop
          CFI Conditional ??CrossCallReturnLabel_41
          CFI R6 load(1, XDATA, add(CFA_XSP16, literal(-16)))
          CFI VB load(1, XDATA, add(CFA_XSP16, literal(-15)))
          CFI V0 load(1, XDATA, add(CFA_XSP16, literal(-14)))
          CFI V1 load(1, XDATA, add(CFA_XSP16, literal(-13)))
          CFI V2 load(1, XDATA, add(CFA_XSP16, literal(-12)))
          CFI V3 load(1, XDATA, add(CFA_XSP16, literal(-11)))
          CFI V4 load(1, XDATA, add(CFA_XSP16, literal(-10)))
          CFI V5 load(1, XDATA, add(CFA_XSP16, literal(-9)))
          CFI V6 load(1, XDATA, add(CFA_XSP16, literal(-8)))
          CFI V7 load(1, XDATA, add(CFA_XSP16, literal(-7)))
          CFI R7 load(1, XDATA, add(CFA_XSP16, literal(-6)))
          CFI ?RET_LOW load(1, XDATA, add(CFA_XSP16, literal(-5)))
          CFI ?RET_HIGH load(1, XDATA, add(CFA_XSP16, literal(-4)))
          CFI ?BRET_EXT load(1, XDATA, add(CFA_XSP16, literal(-3)))
          CFI DPL0 load(1, XDATA, add(CFA_XSP16, literal(-2)))
          CFI DPH0 load(1, XDATA, add(CFA_XSP16, literal(-1)))
          CFI CFA_SP SP+-1
          CFI CFA_XSP16 add(XSP16, 30)
          CFI Block cfiCond25 Using cfiCommon0
          CFI (cfiCond25) Function zllInitiator_event_loop
          CFI (cfiCond25) Conditional ??CrossCallReturnLabel_42
          CFI (cfiCond25) R6 load(1, XDATA, add(CFA_XSP16, literal(-16)))
          CFI (cfiCond25) VB load(1, XDATA, add(CFA_XSP16, literal(-15)))
          CFI (cfiCond25) V0 load(1, XDATA, add(CFA_XSP16, literal(-14)))
          CFI (cfiCond25) V1 load(1, XDATA, add(CFA_XSP16, literal(-13)))
          CFI (cfiCond25) V2 load(1, XDATA, add(CFA_XSP16, literal(-12)))
          CFI (cfiCond25) V3 load(1, XDATA, add(CFA_XSP16, literal(-11)))
          CFI (cfiCond25) V4 load(1, XDATA, add(CFA_XSP16, literal(-10)))
          CFI (cfiCond25) V5 load(1, XDATA, add(CFA_XSP16, literal(-9)))
          CFI (cfiCond25) V6 load(1, XDATA, add(CFA_XSP16, literal(-8)))
          CFI (cfiCond25) V7 load(1, XDATA, add(CFA_XSP16, literal(-7)))
          CFI (cfiCond25) R7 load(1, XDATA, add(CFA_XSP16, literal(-6)))
          CFI (cfiCond25) ?RET_LOW load(1, XDATA, add(CFA_XSP16, literal(-5)))
          CFI (cfiCond25) ?RET_HIGH load(1, XDATA, add(CFA_XSP16, literal(-4)))
          CFI (cfiCond25) ?BRET_EXT load(1, XDATA, add(CFA_XSP16, literal(-3)))
          CFI (cfiCond25) DPL0 load(1, XDATA, add(CFA_XSP16, literal(-2)))
          CFI (cfiCond25) DPH0 load(1, XDATA, add(CFA_XSP16, literal(-1)))
          CFI (cfiCond25) CFA_SP SP+-1
          CFI (cfiCond25) CFA_XSP16 add(XSP16, 30)
          CFI Block cfiCond26 Using cfiCommon0
          CFI (cfiCond26) Function zllInitiator_event_loop
          CFI (cfiCond26) Conditional ??CrossCallReturnLabel_43
          CFI (cfiCond26) R6 load(1, XDATA, add(CFA_XSP16, literal(-16)))
          CFI (cfiCond26) VB load(1, XDATA, add(CFA_XSP16, literal(-15)))
          CFI (cfiCond26) V0 load(1, XDATA, add(CFA_XSP16, literal(-14)))
          CFI (cfiCond26) V1 load(1, XDATA, add(CFA_XSP16, literal(-13)))
          CFI (cfiCond26) V2 load(1, XDATA, add(CFA_XSP16, literal(-12)))
          CFI (cfiCond26) V3 load(1, XDATA, add(CFA_XSP16, literal(-11)))
          CFI (cfiCond26) V4 load(1, XDATA, add(CFA_XSP16, literal(-10)))
          CFI (cfiCond26) V5 load(1, XDATA, add(CFA_XSP16, literal(-9)))
          CFI (cfiCond26) V6 load(1, XDATA, add(CFA_XSP16, literal(-8)))
          CFI (cfiCond26) V7 load(1, XDATA, add(CFA_XSP16, literal(-7)))
          CFI (cfiCond26) R7 load(1, XDATA, add(CFA_XSP16, literal(-6)))
          CFI (cfiCond26) ?RET_LOW load(1, XDATA, add(CFA_XSP16, literal(-5)))
          CFI (cfiCond26) ?RET_HIGH load(1, XDATA, add(CFA_XSP16, literal(-4)))
          CFI (cfiCond26) ?BRET_EXT load(1, XDATA, add(CFA_XSP16, literal(-3)))
          CFI (cfiCond26) DPL0 load(1, XDATA, add(CFA_XSP16, literal(-2)))
          CFI (cfiCond26) DPH0 load(1, XDATA, add(CFA_XSP16, literal(-1)))
          CFI (cfiCond26) CFA_SP SP+0
          CFI (cfiCond26) CFA_XSP16 add(XSP16, 30)
          CFI Block cfiCond27 Using cfiCommon0
          CFI (cfiCond27) Function initiatorSendNwkJoinReq
          CFI (cfiCond27) Conditional ??CrossCallReturnLabel_44
          CFI (cfiCond27) R6 load(1, XDATA, add(CFA_XSP16, literal(-14)))
          CFI (cfiCond27) VB load(1, XDATA, add(CFA_XSP16, literal(-13)))
          CFI (cfiCond27) V0 load(1, XDATA, add(CFA_XSP16, literal(-12)))
          CFI (cfiCond27) V1 load(1, XDATA, add(CFA_XSP16, literal(-11)))
          CFI (cfiCond27) V2 load(1, XDATA, add(CFA_XSP16, literal(-10)))
          CFI (cfiCond27) V3 load(1, XDATA, add(CFA_XSP16, literal(-9)))
          CFI (cfiCond27) V4 load(1, XDATA, add(CFA_XSP16, literal(-8)))
          CFI (cfiCond27) V5 load(1, XDATA, add(CFA_XSP16, literal(-7)))
          CFI (cfiCond27) R7 load(1, XDATA, add(CFA_XSP16, literal(-6)))
          CFI (cfiCond27) ?RET_LOW load(1, XDATA, add(CFA_XSP16, literal(-5)))
          CFI (cfiCond27) ?RET_HIGH load(1, XDATA, add(CFA_XSP16, literal(-4)))
          CFI (cfiCond27) ?BRET_EXT load(1, XDATA, add(CFA_XSP16, literal(-3)))
          CFI (cfiCond27) DPL0 load(1, XDATA, add(CFA_XSP16, literal(-2)))
          CFI (cfiCond27) DPH0 load(1, XDATA, add(CFA_XSP16, literal(-1)))
          CFI (cfiCond27) CFA_SP SP+-1
          CFI (cfiCond27) CFA_XSP16 add(XSP16, 14)
          CFI Block cfiPicker28 Using cfiCommon1
          CFI (cfiPicker28) NoFunction
          CFI (cfiPicker28) Picker
        MOV     DPL,A
        MOV     A,?V0 + 1
          CFI EndBlock cfiCond24
          CFI EndBlock cfiCond25
          CFI EndBlock cfiCond26
          CFI EndBlock cfiCond27
          CFI EndBlock cfiPicker28
        REQUIRE ??Subroutine36_0
        ; // Fall through to label ??Subroutine36_0

        RSEG BANKED_CODE:CODE:NOROOT(0)
??Subroutine36_0:
          CFI Block cfiCond29 Using cfiCommon0
          CFI Function initiatorSendNwkJoinReq
          CFI Conditional ??CrossCallReturnLabel_38
          CFI R6 load(1, XDATA, add(CFA_XSP16, literal(-14)))
          CFI VB load(1, XDATA, add(CFA_XSP16, literal(-13)))
          CFI V0 load(1, XDATA, add(CFA_XSP16, literal(-12)))
          CFI V1 load(1, XDATA, add(CFA_XSP16, literal(-11)))
          CFI V2 load(1, XDATA, add(CFA_XSP16, literal(-10)))
          CFI V3 load(1, XDATA, add(CFA_XSP16, literal(-9)))
          CFI V4 load(1, XDATA, add(CFA_XSP16, literal(-8)))
          CFI V5 load(1, XDATA, add(CFA_XSP16, literal(-7)))
          CFI R7 load(1, XDATA, add(CFA_XSP16, literal(-6)))
          CFI ?RET_LOW load(1, XDATA, add(CFA_XSP16, literal(-5)))
          CFI ?RET_HIGH load(1, XDATA, add(CFA_XSP16, literal(-4)))
          CFI ?BRET_EXT load(1, XDATA, add(CFA_XSP16, literal(-3)))
          CFI DPL0 load(1, XDATA, add(CFA_XSP16, literal(-2)))
          CFI DPH0 load(1, XDATA, add(CFA_XSP16, literal(-1)))
          CFI CFA_SP SP+0
          CFI CFA_XSP16 add(XSP16, 14)
          CFI Block cfiCond30 Using cfiCommon0
          CFI (cfiCond30) Function initiatorSendNwkJoinReq
          CFI (cfiCond30) Conditional ??CrossCallReturnLabel_39
          CFI (cfiCond30) R6 load(1, XDATA, add(CFA_XSP16, literal(-14)))
          CFI (cfiCond30) VB load(1, XDATA, add(CFA_XSP16, literal(-13)))
          CFI (cfiCond30) V0 load(1, XDATA, add(CFA_XSP16, literal(-12)))
          CFI (cfiCond30) V1 load(1, XDATA, add(CFA_XSP16, literal(-11)))
          CFI (cfiCond30) V2 load(1, XDATA, add(CFA_XSP16, literal(-10)))
          CFI (cfiCond30) V3 load(1, XDATA, add(CFA_XSP16, literal(-9)))
          CFI (cfiCond30) V4 load(1, XDATA, add(CFA_XSP16, literal(-8)))
          CFI (cfiCond30) V5 load(1, XDATA, add(CFA_XSP16, literal(-7)))
          CFI (cfiCond30) R7 load(1, XDATA, add(CFA_XSP16, literal(-6)))
          CFI (cfiCond30) ?RET_LOW load(1, XDATA, add(CFA_XSP16, literal(-5)))
          CFI (cfiCond30) ?RET_HIGH load(1, XDATA, add(CFA_XSP16, literal(-4)))
          CFI (cfiCond30) ?BRET_EXT load(1, XDATA, add(CFA_XSP16, literal(-3)))
          CFI (cfiCond30) DPL0 load(1, XDATA, add(CFA_XSP16, literal(-2)))
          CFI (cfiCond30) DPH0 load(1, XDATA, add(CFA_XSP16, literal(-1)))
          CFI (cfiCond30) CFA_SP SP+-1
          CFI (cfiCond30) CFA_XSP16 add(XSP16, 14)
          CFI Block cfiCond31 Using cfiCommon0
          CFI (cfiCond31) Function initiatorSendNwkJoinReq
          CFI (cfiCond31) Conditional ??CrossCallReturnLabel_40
          CFI (cfiCond31) R6 load(1, XDATA, add(CFA_XSP16, literal(-14)))
          CFI (cfiCond31) VB load(1, XDATA, add(CFA_XSP16, literal(-13)))
          CFI (cfiCond31) V0 load(1, XDATA, add(CFA_XSP16, literal(-12)))
          CFI (cfiCond31) V1 load(1, XDATA, add(CFA_XSP16, literal(-11)))
          CFI (cfiCond31) V2 load(1, XDATA, add(CFA_XSP16, literal(-10)))
          CFI (cfiCond31) V3 load(1, XDATA, add(CFA_XSP16, literal(-9)))
          CFI (cfiCond31) V4 load(1, XDATA, add(CFA_XSP16, literal(-8)))
          CFI (cfiCond31) V5 load(1, XDATA, add(CFA_XSP16, literal(-7)))
          CFI (cfiCond31) R7 load(1, XDATA, add(CFA_XSP16, literal(-6)))
          CFI (cfiCond31) ?RET_LOW load(1, XDATA, add(CFA_XSP16, literal(-5)))
          CFI (cfiCond31) ?RET_HIGH load(1, XDATA, add(CFA_XSP16, literal(-4)))
          CFI (cfiCond31) ?BRET_EXT load(1, XDATA, add(CFA_XSP16, literal(-3)))
          CFI (cfiCond31) DPL0 load(1, XDATA, add(CFA_XSP16, literal(-2)))
          CFI (cfiCond31) DPH0 load(1, XDATA, add(CFA_XSP16, literal(-1)))
          CFI (cfiCond31) CFA_SP SP+0
          CFI (cfiCond31) CFA_XSP16 add(XSP16, 14)
          CFI Block cfiCond32 Using cfiCommon0
          CFI (cfiCond32) Function zllInitiator_event_loop
          CFI (cfiCond32) Conditional ??CrossCallReturnLabel_41
          CFI (cfiCond32) R6 load(1, XDATA, add(CFA_XSP16, literal(-16)))
          CFI (cfiCond32) VB load(1, XDATA, add(CFA_XSP16, literal(-15)))
          CFI (cfiCond32) V0 load(1, XDATA, add(CFA_XSP16, literal(-14)))
          CFI (cfiCond32) V1 load(1, XDATA, add(CFA_XSP16, literal(-13)))
          CFI (cfiCond32) V2 load(1, XDATA, add(CFA_XSP16, literal(-12)))
          CFI (cfiCond32) V3 load(1, XDATA, add(CFA_XSP16, literal(-11)))
          CFI (cfiCond32) V4 load(1, XDATA, add(CFA_XSP16, literal(-10)))
          CFI (cfiCond32) V5 load(1, XDATA, add(CFA_XSP16, literal(-9)))
          CFI (cfiCond32) V6 load(1, XDATA, add(CFA_XSP16, literal(-8)))
          CFI (cfiCond32) V7 load(1, XDATA, add(CFA_XSP16, literal(-7)))
          CFI (cfiCond32) R7 load(1, XDATA, add(CFA_XSP16, literal(-6)))
          CFI (cfiCond32) ?RET_LOW load(1, XDATA, add(CFA_XSP16, literal(-5)))
          CFI (cfiCond32) ?RET_HIGH load(1, XDATA, add(CFA_XSP16, literal(-4)))
          CFI (cfiCond32) ?BRET_EXT load(1, XDATA, add(CFA_XSP16, literal(-3)))
          CFI (cfiCond32) DPL0 load(1, XDATA, add(CFA_XSP16, literal(-2)))
          CFI (cfiCond32) DPH0 load(1, XDATA, add(CFA_XSP16, literal(-1)))
          CFI (cfiCond32) CFA_SP SP+-1
          CFI (cfiCond32) CFA_XSP16 add(XSP16, 30)
          CFI Block cfiCond33 Using cfiCommon0
          CFI (cfiCond33) Function zllInitiator_event_loop
          CFI (cfiCond33) Conditional ??CrossCallReturnLabel_42
          CFI (cfiCond33) R6 load(1, XDATA, add(CFA_XSP16, literal(-16)))
          CFI (cfiCond33) VB load(1, XDATA, add(CFA_XSP16, literal(-15)))
          CFI (cfiCond33) V0 load(1, XDATA, add(CFA_XSP16, literal(-14)))
          CFI (cfiCond33) V1 load(1, XDATA, add(CFA_XSP16, literal(-13)))
          CFI (cfiCond33) V2 load(1, XDATA, add(CFA_XSP16, literal(-12)))
          CFI (cfiCond33) V3 load(1, XDATA, add(CFA_XSP16, literal(-11)))
          CFI (cfiCond33) V4 load(1, XDATA, add(CFA_XSP16, literal(-10)))
          CFI (cfiCond33) V5 load(1, XDATA, add(CFA_XSP16, literal(-9)))
          CFI (cfiCond33) V6 load(1, XDATA, add(CFA_XSP16, literal(-8)))
          CFI (cfiCond33) V7 load(1, XDATA, add(CFA_XSP16, literal(-7)))
          CFI (cfiCond33) R7 load(1, XDATA, add(CFA_XSP16, literal(-6)))
          CFI (cfiCond33) ?RET_LOW load(1, XDATA, add(CFA_XSP16, literal(-5)))
          CFI (cfiCond33) ?RET_HIGH load(1, XDATA, add(CFA_XSP16, literal(-4)))
          CFI (cfiCond33) ?BRET_EXT load(1, XDATA, add(CFA_XSP16, literal(-3)))
          CFI (cfiCond33) DPL0 load(1, XDATA, add(CFA_XSP16, literal(-2)))
          CFI (cfiCond33) DPH0 load(1, XDATA, add(CFA_XSP16, literal(-1)))
          CFI (cfiCond33) CFA_SP SP+-1
          CFI (cfiCond33) CFA_XSP16 add(XSP16, 30)
          CFI Block cfiCond34 Using cfiCommon0
          CFI (cfiCond34) Function zllInitiator_event_loop
          CFI (cfiCond34) Conditional ??CrossCallReturnLabel_43
          CFI (cfiCond34) R6 load(1, XDATA, add(CFA_XSP16, literal(-16)))
          CFI (cfiCond34) VB load(1, XDATA, add(CFA_XSP16, literal(-15)))
          CFI (cfiCond34) V0 load(1, XDATA, add(CFA_XSP16, literal(-14)))
          CFI (cfiCond34) V1 load(1, XDATA, add(CFA_XSP16, literal(-13)))
          CFI (cfiCond34) V2 load(1, XDATA, add(CFA_XSP16, literal(-12)))
          CFI (cfiCond34) V3 load(1, XDATA, add(CFA_XSP16, literal(-11)))
          CFI (cfiCond34) V4 load(1, XDATA, add(CFA_XSP16, literal(-10)))
          CFI (cfiCond34) V5 load(1, XDATA, add(CFA_XSP16, literal(-9)))
          CFI (cfiCond34) V6 load(1, XDATA, add(CFA_XSP16, literal(-8)))
          CFI (cfiCond34) V7 load(1, XDATA, add(CFA_XSP16, literal(-7)))
          CFI (cfiCond34) R7 load(1, XDATA, add(CFA_XSP16, literal(-6)))
          CFI (cfiCond34) ?RET_LOW load(1, XDATA, add(CFA_XSP16, literal(-5)))
          CFI (cfiCond34) ?RET_HIGH load(1, XDATA, add(CFA_XSP16, literal(-4)))
          CFI (cfiCond34) ?BRET_EXT load(1, XDATA, add(CFA_XSP16, literal(-3)))
          CFI (cfiCond34) DPL0 load(1, XDATA, add(CFA_XSP16, literal(-2)))
          CFI (cfiCond34) DPH0 load(1, XDATA, add(CFA_XSP16, literal(-1)))
          CFI (cfiCond34) CFA_SP SP+0
          CFI (cfiCond34) CFA_XSP16 add(XSP16, 30)
          CFI Block cfiCond35 Using cfiCommon0
          CFI (cfiCond35) Function initiatorSendNwkJoinReq
          CFI (cfiCond35) Conditional ??CrossCallReturnLabel_44
          CFI (cfiCond35) R6 load(1, XDATA, add(CFA_XSP16, literal(-14)))
          CFI (cfiCond35) VB load(1, XDATA, add(CFA_XSP16, literal(-13)))
          CFI (cfiCond35) V0 load(1, XDATA, add(CFA_XSP16, literal(-12)))
          CFI (cfiCond35) V1 load(1, XDATA, add(CFA_XSP16, literal(-11)))
          CFI (cfiCond35) V2 load(1, XDATA, add(CFA_XSP16, literal(-10)))
          CFI (cfiCond35) V3 load(1, XDATA, add(CFA_XSP16, literal(-9)))
          CFI (cfiCond35) V4 load(1, XDATA, add(CFA_XSP16, literal(-8)))
          CFI (cfiCond35) V5 load(1, XDATA, add(CFA_XSP16, literal(-7)))
          CFI (cfiCond35) R7 load(1, XDATA, add(CFA_XSP16, literal(-6)))
          CFI (cfiCond35) ?RET_LOW load(1, XDATA, add(CFA_XSP16, literal(-5)))
          CFI (cfiCond35) ?RET_HIGH load(1, XDATA, add(CFA_XSP16, literal(-4)))
          CFI (cfiCond35) ?BRET_EXT load(1, XDATA, add(CFA_XSP16, literal(-3)))
          CFI (cfiCond35) DPL0 load(1, XDATA, add(CFA_XSP16, literal(-2)))
          CFI (cfiCond35) DPH0 load(1, XDATA, add(CFA_XSP16, literal(-1)))
          CFI (cfiCond35) CFA_SP SP+-1
          CFI (cfiCond35) CFA_XSP16 add(XSP16, 14)
          CFI Block cfiPicker36 Using cfiCommon1
          CFI (cfiPicker36) NoFunction
          CFI (cfiPicker36) Picker
        ADDC    A,#0x0
        MOV     DPH,A
        RET
          CFI EndBlock cfiCond29
          CFI EndBlock cfiCond30
          CFI EndBlock cfiCond31
          CFI EndBlock cfiCond32
          CFI EndBlock cfiCond33
          CFI EndBlock cfiCond34
          CFI EndBlock cfiCond35
          CFI EndBlock cfiPicker36

        RSEG BANKED_CODE:CODE:NOROOT(0)
?Subroutine22:
          CFI Block cfiCond37 Using cfiCommon0
          CFI Function zllInitiator_event_loop
          CFI Conditional ??CrossCallReturnLabel_25
          CFI R6 load(1, XDATA, add(CFA_XSP16, literal(-16)))
          CFI VB load(1, XDATA, add(CFA_XSP16, literal(-15)))
          CFI V0 load(1, XDATA, add(CFA_XSP16, literal(-14)))
          CFI V1 load(1, XDATA, add(CFA_XSP16, literal(-13)))
          CFI V2 load(1, XDATA, add(CFA_XSP16, literal(-12)))
          CFI V3 load(1, XDATA, add(CFA_XSP16, literal(-11)))
          CFI V4 load(1, XDATA, add(CFA_XSP16, literal(-10)))
          CFI V5 load(1, XDATA, add(CFA_XSP16, literal(-9)))
          CFI V6 load(1, XDATA, add(CFA_XSP16, literal(-8)))
          CFI V7 load(1, XDATA, add(CFA_XSP16, literal(-7)))
          CFI R7 load(1, XDATA, add(CFA_XSP16, literal(-6)))
          CFI ?RET_LOW load(1, XDATA, add(CFA_XSP16, literal(-5)))
          CFI ?RET_HIGH load(1, XDATA, add(CFA_XSP16, literal(-4)))
          CFI ?BRET_EXT load(1, XDATA, add(CFA_XSP16, literal(-3)))
          CFI DPL0 load(1, XDATA, add(CFA_XSP16, literal(-2)))
          CFI DPH0 load(1, XDATA, add(CFA_XSP16, literal(-1)))
          CFI CFA_SP SP+0
          CFI CFA_XSP16 add(XSP16, 30)
          CFI Block cfiCond38 Using cfiCommon0
          CFI (cfiCond38) Function zllInitiator_event_loop
          CFI (cfiCond38) Conditional ??CrossCallReturnLabel_26
          CFI (cfiCond38) R6 load(1, XDATA, add(CFA_XSP16, literal(-16)))
          CFI (cfiCond38) VB load(1, XDATA, add(CFA_XSP16, literal(-15)))
          CFI (cfiCond38) V0 load(1, XDATA, add(CFA_XSP16, literal(-14)))
          CFI (cfiCond38) V1 load(1, XDATA, add(CFA_XSP16, literal(-13)))
          CFI (cfiCond38) V2 load(1, XDATA, add(CFA_XSP16, literal(-12)))
          CFI (cfiCond38) V3 load(1, XDATA, add(CFA_XSP16, literal(-11)))
          CFI (cfiCond38) V4 load(1, XDATA, add(CFA_XSP16, literal(-10)))
          CFI (cfiCond38) V5 load(1, XDATA, add(CFA_XSP16, literal(-9)))
          CFI (cfiCond38) V6 load(1, XDATA, add(CFA_XSP16, literal(-8)))
          CFI (cfiCond38) V7 load(1, XDATA, add(CFA_XSP16, literal(-7)))
          CFI (cfiCond38) R7 load(1, XDATA, add(CFA_XSP16, literal(-6)))
          CFI (cfiCond38) ?RET_LOW load(1, XDATA, add(CFA_XSP16, literal(-5)))
          CFI (cfiCond38) ?RET_HIGH load(1, XDATA, add(CFA_XSP16, literal(-4)))
          CFI (cfiCond38) ?BRET_EXT load(1, XDATA, add(CFA_XSP16, literal(-3)))
          CFI (cfiCond38) DPL0 load(1, XDATA, add(CFA_XSP16, literal(-2)))
          CFI (cfiCond38) DPH0 load(1, XDATA, add(CFA_XSP16, literal(-1)))
          CFI (cfiCond38) CFA_SP SP+0
          CFI (cfiCond38) CFA_XSP16 add(XSP16, 30)
          CFI Block cfiPicker39 Using cfiCommon1
          CFI (cfiPicker39) NoFunction
          CFI (cfiPicker39) Picker
        LCALL   ?Subroutine31 & 0xFFFF
??CrossCallReturnLabel_95:
        MOV     DPTR,#selectedTarget + 25
        MOVX    A,@DPTR
        XRL     A,R0
        RET
          CFI EndBlock cfiCond37
          CFI EndBlock cfiCond38
          CFI EndBlock cfiPicker39

        RSEG BANKED_CODE:CODE:NOROOT(0)
?Subroutine14:
          CFI Block cfiCond40 Using cfiCommon0
          CFI Function zllInitiator_event_loop
          CFI Conditional ??CrossCallReturnLabel_13
          CFI R6 load(1, XDATA, add(CFA_XSP16, literal(-16)))
          CFI VB load(1, XDATA, add(CFA_XSP16, literal(-15)))
          CFI V0 load(1, XDATA, add(CFA_XSP16, literal(-14)))
          CFI V1 load(1, XDATA, add(CFA_XSP16, literal(-13)))
          CFI V2 load(1, XDATA, add(CFA_XSP16, literal(-12)))
          CFI V3 load(1, XDATA, add(CFA_XSP16, literal(-11)))
          CFI V4 load(1, XDATA, add(CFA_XSP16, literal(-10)))
          CFI V5 load(1, XDATA, add(CFA_XSP16, literal(-9)))
          CFI V6 load(1, XDATA, add(CFA_XSP16, literal(-8)))
          CFI V7 load(1, XDATA, add(CFA_XSP16, literal(-7)))
          CFI R7 load(1, XDATA, add(CFA_XSP16, literal(-6)))
          CFI ?RET_LOW load(1, XDATA, add(CFA_XSP16, literal(-5)))
          CFI ?RET_HIGH load(1, XDATA, add(CFA_XSP16, literal(-4)))
          CFI ?BRET_EXT load(1, XDATA, add(CFA_XSP16, literal(-3)))
          CFI DPL0 load(1, XDATA, add(CFA_XSP16, literal(-2)))
          CFI DPH0 load(1, XDATA, add(CFA_XSP16, literal(-1)))
          CFI CFA_SP SP+0
          CFI CFA_XSP16 add(XSP16, 30)
          CFI Block cfiCond41 Using cfiCommon0
          CFI (cfiCond41) Function zllInitiator_event_loop
          CFI (cfiCond41) Conditional ??CrossCallReturnLabel_14
          CFI (cfiCond41) R6 load(1, XDATA, add(CFA_XSP16, literal(-16)))
          CFI (cfiCond41) VB load(1, XDATA, add(CFA_XSP16, literal(-15)))
          CFI (cfiCond41) V0 load(1, XDATA, add(CFA_XSP16, literal(-14)))
          CFI (cfiCond41) V1 load(1, XDATA, add(CFA_XSP16, literal(-13)))
          CFI (cfiCond41) V2 load(1, XDATA, add(CFA_XSP16, literal(-12)))
          CFI (cfiCond41) V3 load(1, XDATA, add(CFA_XSP16, literal(-11)))
          CFI (cfiCond41) V4 load(1, XDATA, add(CFA_XSP16, literal(-10)))
          CFI (cfiCond41) V5 load(1, XDATA, add(CFA_XSP16, literal(-9)))
          CFI (cfiCond41) V6 load(1, XDATA, add(CFA_XSP16, literal(-8)))
          CFI (cfiCond41) V7 load(1, XDATA, add(CFA_XSP16, literal(-7)))
          CFI (cfiCond41) R7 load(1, XDATA, add(CFA_XSP16, literal(-6)))
          CFI (cfiCond41) ?RET_LOW load(1, XDATA, add(CFA_XSP16, literal(-5)))
          CFI (cfiCond41) ?RET_HIGH load(1, XDATA, add(CFA_XSP16, literal(-4)))
          CFI (cfiCond41) ?BRET_EXT load(1, XDATA, add(CFA_XSP16, literal(-3)))
          CFI (cfiCond41) DPL0 load(1, XDATA, add(CFA_XSP16, literal(-2)))
          CFI (cfiCond41) DPH0 load(1, XDATA, add(CFA_XSP16, literal(-1)))
          CFI (cfiCond41) CFA_SP SP+0
          CFI (cfiCond41) CFA_XSP16 add(XSP16, 30)
          CFI Block cfiPicker42 Using cfiCommon1
          CFI (cfiPicker42) NoFunction
          CFI (cfiPicker42) Picker
        MOV     A,R0
        MOVX    @DPTR,A
        INC     DPTR
        MOV     A,R1
        MOVX    @DPTR,A
        MOV     DPTR,#selectedTarget + 36
        MOVX    A,@DPTR
        RET
          CFI EndBlock cfiCond40
          CFI EndBlock cfiCond41
          CFI EndBlock cfiPicker42

        RSEG BANKED_CODE:CODE:NOROOT(0)
?Subroutine13:
          CFI Block cfiCond43 Using cfiCommon0
          CFI Function zllInitiator_event_loop
          CFI Conditional ??CrossCallReturnLabel_11
          CFI R6 load(1, XDATA, add(CFA_XSP16, literal(-16)))
          CFI VB load(1, XDATA, add(CFA_XSP16, literal(-15)))
          CFI V0 load(1, XDATA, add(CFA_XSP16, literal(-14)))
          CFI V1 load(1, XDATA, add(CFA_XSP16, literal(-13)))
          CFI V2 load(1, XDATA, add(CFA_XSP16, literal(-12)))
          CFI V3 load(1, XDATA, add(CFA_XSP16, literal(-11)))
          CFI V4 load(1, XDATA, add(CFA_XSP16, literal(-10)))
          CFI V5 load(1, XDATA, add(CFA_XSP16, literal(-9)))
          CFI V6 load(1, XDATA, add(CFA_XSP16, literal(-8)))
          CFI V7 load(1, XDATA, add(CFA_XSP16, literal(-7)))
          CFI R7 load(1, XDATA, add(CFA_XSP16, literal(-6)))
          CFI ?RET_LOW load(1, XDATA, add(CFA_XSP16, literal(-5)))
          CFI ?RET_HIGH load(1, XDATA, add(CFA_XSP16, literal(-4)))
          CFI ?BRET_EXT load(1, XDATA, add(CFA_XSP16, literal(-3)))
          CFI DPL0 load(1, XDATA, add(CFA_XSP16, literal(-2)))
          CFI DPH0 load(1, XDATA, add(CFA_XSP16, literal(-1)))
          CFI CFA_SP SP+0
          CFI CFA_XSP16 add(XSP16, 30)
          CFI Block cfiCond44 Using cfiCommon0
          CFI (cfiCond44) Function zllInitiator_event_loop
          CFI (cfiCond44) Conditional ??CrossCallReturnLabel_12
          CFI (cfiCond44) R6 load(1, XDATA, add(CFA_XSP16, literal(-16)))
          CFI (cfiCond44) VB load(1, XDATA, add(CFA_XSP16, literal(-15)))
          CFI (cfiCond44) V0 load(1, XDATA, add(CFA_XSP16, literal(-14)))
          CFI (cfiCond44) V1 load(1, XDATA, add(CFA_XSP16, literal(-13)))
          CFI (cfiCond44) V2 load(1, XDATA, add(CFA_XSP16, literal(-12)))
          CFI (cfiCond44) V3 load(1, XDATA, add(CFA_XSP16, literal(-11)))
          CFI (cfiCond44) V4 load(1, XDATA, add(CFA_XSP16, literal(-10)))
          CFI (cfiCond44) V5 load(1, XDATA, add(CFA_XSP16, literal(-9)))
          CFI (cfiCond44) V6 load(1, XDATA, add(CFA_XSP16, literal(-8)))
          CFI (cfiCond44) V7 load(1, XDATA, add(CFA_XSP16, literal(-7)))
          CFI (cfiCond44) R7 load(1, XDATA, add(CFA_XSP16, literal(-6)))
          CFI (cfiCond44) ?RET_LOW load(1, XDATA, add(CFA_XSP16, literal(-5)))
          CFI (cfiCond44) ?RET_HIGH load(1, XDATA, add(CFA_XSP16, literal(-4)))
          CFI (cfiCond44) ?BRET_EXT load(1, XDATA, add(CFA_XSP16, literal(-3)))
          CFI (cfiCond44) DPL0 load(1, XDATA, add(CFA_XSP16, literal(-2)))
          CFI (cfiCond44) DPH0 load(1, XDATA, add(CFA_XSP16, literal(-1)))
          CFI (cfiCond44) CFA_SP SP+0
          CFI (cfiCond44) CFA_XSP16 add(XSP16, 30)
          CFI Block cfiPicker45 Using cfiCommon1
          CFI (cfiPicker45) NoFunction
          CFI (cfiPicker45) Picker
        LCALL   ??Subroutine41_0 & 0xFFFF
??CrossCallReturnLabel_92:
        MOV     DPL,?XSP + 0
        MOV     DPH,?XSP + 1
        MOV     A,R0
        MOVX    @DPTR,A
        INC     DPTR
        MOV     A,R1
        MOVX    @DPTR,A
        MOV     DPTR,#selectedTarget + 31
        MOVX    A,@DPTR
        RET
          CFI EndBlock cfiCond43
          CFI EndBlock cfiCond44
          CFI EndBlock cfiPicker45

        RSEG BANKED_CODE:CODE:NOROOT(0)
?Subroutine12:
          CFI Block cfiCond46 Using cfiCommon0
          CFI Function zllInitiator_event_loop
          CFI Conditional ??CrossCallReturnLabel_9
          CFI R6 load(1, XDATA, add(CFA_XSP16, literal(-16)))
          CFI VB load(1, XDATA, add(CFA_XSP16, literal(-15)))
          CFI V0 load(1, XDATA, add(CFA_XSP16, literal(-14)))
          CFI V1 load(1, XDATA, add(CFA_XSP16, literal(-13)))
          CFI V2 load(1, XDATA, add(CFA_XSP16, literal(-12)))
          CFI V3 load(1, XDATA, add(CFA_XSP16, literal(-11)))
          CFI V4 load(1, XDATA, add(CFA_XSP16, literal(-10)))
          CFI V5 load(1, XDATA, add(CFA_XSP16, literal(-9)))
          CFI V6 load(1, XDATA, add(CFA_XSP16, literal(-8)))
          CFI V7 load(1, XDATA, add(CFA_XSP16, literal(-7)))
          CFI R7 load(1, XDATA, add(CFA_XSP16, literal(-6)))
          CFI ?RET_LOW load(1, XDATA, add(CFA_XSP16, literal(-5)))
          CFI ?RET_HIGH load(1, XDATA, add(CFA_XSP16, literal(-4)))
          CFI ?BRET_EXT load(1, XDATA, add(CFA_XSP16, literal(-3)))
          CFI DPL0 load(1, XDATA, add(CFA_XSP16, literal(-2)))
          CFI DPH0 load(1, XDATA, add(CFA_XSP16, literal(-1)))
          CFI CFA_SP SP+0
          CFI CFA_XSP16 add(XSP16, 30)
          CFI Block cfiCond47 Using cfiCommon0
          CFI (cfiCond47) Function zllInitiator_event_loop
          CFI (cfiCond47) Conditional ??CrossCallReturnLabel_10
          CFI (cfiCond47) R6 load(1, XDATA, add(CFA_XSP16, literal(-16)))
          CFI (cfiCond47) VB load(1, XDATA, add(CFA_XSP16, literal(-15)))
          CFI (cfiCond47) V0 load(1, XDATA, add(CFA_XSP16, literal(-14)))
          CFI (cfiCond47) V1 load(1, XDATA, add(CFA_XSP16, literal(-13)))
          CFI (cfiCond47) V2 load(1, XDATA, add(CFA_XSP16, literal(-12)))
          CFI (cfiCond47) V3 load(1, XDATA, add(CFA_XSP16, literal(-11)))
          CFI (cfiCond47) V4 load(1, XDATA, add(CFA_XSP16, literal(-10)))
          CFI (cfiCond47) V5 load(1, XDATA, add(CFA_XSP16, literal(-9)))
          CFI (cfiCond47) V6 load(1, XDATA, add(CFA_XSP16, literal(-8)))
          CFI (cfiCond47) V7 load(1, XDATA, add(CFA_XSP16, literal(-7)))
          CFI (cfiCond47) R7 load(1, XDATA, add(CFA_XSP16, literal(-6)))
          CFI (cfiCond47) ?RET_LOW load(1, XDATA, add(CFA_XSP16, literal(-5)))
          CFI (cfiCond47) ?RET_HIGH load(1, XDATA, add(CFA_XSP16, literal(-4)))
          CFI (cfiCond47) ?BRET_EXT load(1, XDATA, add(CFA_XSP16, literal(-3)))
          CFI (cfiCond47) DPL0 load(1, XDATA, add(CFA_XSP16, literal(-2)))
          CFI (cfiCond47) DPH0 load(1, XDATA, add(CFA_XSP16, literal(-1)))
          CFI (cfiCond47) CFA_SP SP+0
          CFI (cfiCond47) CFA_XSP16 add(XSP16, 30)
          CFI Block cfiPicker48 Using cfiCommon1
          CFI (cfiPicker48) NoFunction
          CFI (cfiPicker48) Picker
        MOVX    @DPTR,A
        MOV     DPTR,#pfnNotifyAppCB
        LCALL   ??Subroutine41_0 & 0xFFFF
??CrossCallReturnLabel_91:
        MOV     A,R0
        ORL     A,R1
        RET
          CFI EndBlock cfiCond46
          CFI EndBlock cfiCond47
          CFI EndBlock cfiPicker48

        RSEG BANKED_CODE:CODE:NOROOT(0)
?Subroutine11:
          CFI Block cfiCond49 Using cfiCommon0
          CFI Function zllInitiator_event_loop
          CFI Conditional ??CrossCallReturnLabel_7
          CFI R6 load(1, XDATA, add(CFA_XSP16, literal(-16)))
          CFI VB load(1, XDATA, add(CFA_XSP16, literal(-15)))
          CFI V0 load(1, XDATA, add(CFA_XSP16, literal(-14)))
          CFI V1 load(1, XDATA, add(CFA_XSP16, literal(-13)))
          CFI V2 load(1, XDATA, add(CFA_XSP16, literal(-12)))
          CFI V3 load(1, XDATA, add(CFA_XSP16, literal(-11)))
          CFI V4 load(1, XDATA, add(CFA_XSP16, literal(-10)))
          CFI V5 load(1, XDATA, add(CFA_XSP16, literal(-9)))
          CFI V6 load(1, XDATA, add(CFA_XSP16, literal(-8)))
          CFI V7 load(1, XDATA, add(CFA_XSP16, literal(-7)))
          CFI R7 load(1, XDATA, add(CFA_XSP16, literal(-6)))
          CFI ?RET_LOW load(1, XDATA, add(CFA_XSP16, literal(-5)))
          CFI ?RET_HIGH load(1, XDATA, add(CFA_XSP16, literal(-4)))
          CFI ?BRET_EXT load(1, XDATA, add(CFA_XSP16, literal(-3)))
          CFI DPL0 load(1, XDATA, add(CFA_XSP16, literal(-2)))
          CFI DPH0 load(1, XDATA, add(CFA_XSP16, literal(-1)))
          CFI CFA_SP SP+0
          CFI CFA_XSP16 add(XSP16, 30)
          CFI Block cfiCond50 Using cfiCommon0
          CFI (cfiCond50) Function zllInitiator_event_loop
          CFI (cfiCond50) Conditional ??CrossCallReturnLabel_8
          CFI (cfiCond50) R6 load(1, XDATA, add(CFA_XSP16, literal(-16)))
          CFI (cfiCond50) VB load(1, XDATA, add(CFA_XSP16, literal(-15)))
          CFI (cfiCond50) V0 load(1, XDATA, add(CFA_XSP16, literal(-14)))
          CFI (cfiCond50) V1 load(1, XDATA, add(CFA_XSP16, literal(-13)))
          CFI (cfiCond50) V2 load(1, XDATA, add(CFA_XSP16, literal(-12)))
          CFI (cfiCond50) V3 load(1, XDATA, add(CFA_XSP16, literal(-11)))
          CFI (cfiCond50) V4 load(1, XDATA, add(CFA_XSP16, literal(-10)))
          CFI (cfiCond50) V5 load(1, XDATA, add(CFA_XSP16, literal(-9)))
          CFI (cfiCond50) V6 load(1, XDATA, add(CFA_XSP16, literal(-8)))
          CFI (cfiCond50) V7 load(1, XDATA, add(CFA_XSP16, literal(-7)))
          CFI (cfiCond50) R7 load(1, XDATA, add(CFA_XSP16, literal(-6)))
          CFI (cfiCond50) ?RET_LOW load(1, XDATA, add(CFA_XSP16, literal(-5)))
          CFI (cfiCond50) ?RET_HIGH load(1, XDATA, add(CFA_XSP16, literal(-4)))
          CFI (cfiCond50) ?BRET_EXT load(1, XDATA, add(CFA_XSP16, literal(-3)))
          CFI (cfiCond50) DPL0 load(1, XDATA, add(CFA_XSP16, literal(-2)))
          CFI (cfiCond50) DPH0 load(1, XDATA, add(CFA_XSP16, literal(-1)))
          CFI (cfiCond50) CFA_SP SP+0
          CFI (cfiCond50) CFA_XSP16 add(XSP16, 30)
          CFI Block cfiPicker51 Using cfiCommon1
          CFI (cfiPicker51) NoFunction
          CFI (cfiPicker51) Picker
        MOVX    @DPTR,A
        MOV     DPTR,#selectedTarget + 32
        LCALL   ??Subroutine41_0 & 0xFFFF
??CrossCallReturnLabel_90:
        MOV     A,#0x3
        RET
