///////////////////////////////////////////////////////////////////////////////
//                                                                            /
// IAR C/C++ Compiler V8.20.2.41139 for 8051            07/May/2014  17:02:26 /
// Copyright 2004-2013 IAR Systems AB.                                        /
//                                                                            /
//    Core               =  plain                                             /
//    Code model         =  banked                                            /
//    Data model         =  large                                             /
//    Calling convention =  xdata reentrant                                   /
//    Constant location  =  data_rom                                          /
//    Dptr setup         =  1,16                                              /
//                                                                            /
//    Source file        =  D:\Texas Instruments\Z-Stack Lighting             /
//                          1.0.2\Projects\zstack\ZLL\Source\zll_rpc.c        /
//    Command line       =  -f "D:\Texas Instruments\Z-Stack Lighting         /
//                          1.0.2\Projects\zstack\ZLL\SampleApp\CC253x\..\..\ /
//                          ..\Tools\CC2530DB\f8wRouter.cfg" (-DCPU32MHZ      /
//                          -DROOT=__near_func -DMAC_CFG_APP_PENDING_QUEUE=TR /
//                          UE -DMAC_CFG_TX_DATA_MAX=5 -DMAC_CFG_TX_MAX=8     /
//                          -DMAC_CFG_RX_MAX=5 -DRTR_NWK) -f "D:\Texas        /
//                          Instruments\Z-Stack Lighting                      /
//                          1.0.2\Projects\zstack\ZLL\SampleApp\CC253x\..\..\ /
//                          ..\Tools\CC2530DB\f8wConfig.cfg" (-DZIGBEEPRO     /
//                          -DSECURE=1 -DZG_SECURE_DYNAMIC=0 -DREFLECTOR      /
//                          -DDEFAULT_CHANLIST=0x00000800                     /
//                          -DZDAPP_CONFIG_PAN_ID=0xFFFF                      /
//                          -DNWK_START_DELAY=100 -DEXTENDED_JOINING_RANDOM_M /
//                          ASK=0x007F -DBEACON_REQUEST_DELAY=100             /
//                          -DBEACON_REQ_DELAY_MASK=0x00FF                    /
//                          -DLINK_STATUS_JITTER_MASK=0x007F                  /
//                          -DROUTE_EXPIRY_TIME=30 -DAPSC_ACK_WAIT_DURATION_P /
//                          OLLED=3000 -DNWK_INDIRECT_MSG_TIMEOUT=7           /
//                          -DMAX_RREQ_ENTRIES=8 -DAPSC_MAX_FRAME_RETRIES=3   /
//                          -DNWK_MAX_DATA_RETRIES=2                          /
//                          -DMAX_POLL_FAILURE_RETRIES=2 -DMAX_BCAST=9        /
//                          -DAPS_MAX_GROUPS=16 -DMAX_RTG_ENTRIES=40          /
//                          -DNWK_MAX_BINDING_ENTRIES=4                       /
//                          -DMAX_BINDING_CLUSTER_IDS=4                       /
//                          "-DDEFAULT_KEY={0x01, 0x03, 0x05, 0x07, 0x09,     /
//                          0x0B, 0x0D, 0x0F, 0x00, 0x02, 0x04, 0x06, 0x08,   /
//                          0x0A, 0x0C, 0x0D}" -DMAC_MAX_FRAME_SIZE=116       /
//                          -DZDNWKMGR_MIN_TRANSMISSIONS=20 "-DCONST=const    /
//                          __code" -DGENERIC=__generic                       /
//                          -DRFD_RCVC_ALWAYS_ON=FALSE -DPOLL_RATE=1000       /
//                          -DQUEUED_POLL_RATE=100 -DRESPONSE_POLL_RATE=100   /
//                          -DREJOIN_POLL_RATE=440) -f "D:\Texas              /
//                          Instruments\Z-Stack Lighting                      /
//                          1.0.2\Projects\zstack\ZLL\SampleApp\CC253x\..\..\ /
//                          ..\Tools\CC2530DB\f8wZCL.cfg" "D:\Texas           /
//                          Instruments\Z-Stack Lighting                      /
//                          1.0.2\Projects\zstack\ZLL\Source\zll_rpc.c" -D    /
//                          FEATURE_GREEN_POWER -D SECURE=1 -D                /
//                          TC_LINKKEY_JOIN -D ZDSECMGR_TC_DEVICE_MAX=2 -D    /
//                          NV_RESTORE -D HOLD_AUTO_START -D INTER_PAN -D     /
//                          ZTOOL_P1 -D MT_TASK -D MT_APP_FUNC -D             /
//                          MT_SYS_FUNC -D MT_ZDO_FUNC -D MT_ZDO_CB_FUNC -D   /
//                          MT_UTIL_FUNC -D MT_ZDO_MGMT -D LCD_SUPPORTED -D   /
//                          HAL_LCD=FALSE -D HAL_KEY=FALSE -D ZCL_BASIC -D    /
//                          ZCL_READ -D ZCL_WRITE -D ZCL_IDENTIFY -D          /
//                          ZCL_ON_OFF -D ZCL_SCENES -D ZCL_GROUPS -D         /
//                          ZCL_LIGHT_LINK_ENHANCE -D ZCL_LEVEL_CTRL -D       /
//                          ZCL_COLOR_CTRL -D xMAX_CHANNELS_24GHZ=0x02108800  /
//                          -lC "D:\Texas Instruments\Z-Stack Lighting        /
//                          1.0.2\Projects\zstack\ZLL\SampleApp\CC253x\Bridge /
//                          EB-Pro\List\" -lA "D:\Texas Instruments\Z-Stack   /
//                          Lighting 1.0.2\Projects\zstack\ZLL\SampleApp\CC25 /
//                          3x\BridgeEB-Pro\List\" --diag_suppress            /
//                          Pe001,Pa010 -o "D:\Texas Instruments\Z-Stack      /
//                          Lighting 1.0.2\Projects\zstack\ZLL\SampleApp\CC25 /
//                          3x\BridgeEB-Pro\Obj\" -e --debug --core=plain     /
//                          --dptr=16,1 --data_model=large                    /
//                          --code_model=banked --calling_convention=xdata_re /
//                          entrant --place_constants=data_rom                /
//                          --nr_virtual_regs 16 -I "D:\Texas                 /
//                          Instruments\Z-Stack Lighting                      /
//                          1.0.2\Projects\zstack\ZLL\SampleApp\CC253x\" -I   /
//                          "D:\Texas Instruments\Z-Stack Lighting            /
//                          1.0.2\Projects\zstack\ZLL\SampleApp\CC253x\..\Sou /
//                          rce\" -I "D:\Texas Instruments\Z-Stack Lighting   /
//                          1.0.2\Projects\zstack\ZLL\SampleApp\CC253x\..\..\ /
//                          Source\" -I "D:\Texas Instruments\Z-Stack         /
//                          Lighting 1.0.2\Projects\zstack\ZLL\SampleApp\CC25 /
//                          3x\..\..\..\HomeAutomation\Source\" -I "D:\Texas  /
//                          Instruments\Z-Stack Lighting                      /
//                          1.0.2\Projects\zstack\ZLL\SampleApp\CC253x\..\..\ /
//                          ..\HomeAutomation\SampleLight\Source\" -I         /
//                          "D:\Texas Instruments\Z-Stack Lighting            /
//                          1.0.2\Projects\zstack\ZLL\SampleApp\CC253x\..\..\ /
//                          ..\ZMain\TI2530DB\" -I "D:\Texas                  /
//                          Instruments\Z-Stack Lighting                      /
//                          1.0.2\Projects\zstack\ZLL\SampleApp\CC253x\..\..\ /
//                          ..\..\..\Components\hal\include\" -I "D:\Texas    /
//                          Instruments\Z-Stack Lighting                      /
//                          1.0.2\Projects\zstack\ZLL\SampleApp\CC253x\..\..\ /
//                          ..\..\..\Components\hal\target\CC2530EB\" -I      /
//                          "D:\Texas Instruments\Z-Stack Lighting            /
//                          1.0.2\Projects\zstack\ZLL\SampleApp\CC253x\..\..\ /
//                          ..\..\..\Components\mac\include\" -I "D:\Texas    /
//                          Instruments\Z-Stack Lighting                      /
//                          1.0.2\Projects\zstack\ZLL\SampleApp\CC253x\..\..\ /
//                          ..\..\..\Components\mac\high_level\" -I           /
//                          "D:\Texas Instruments\Z-Stack Lighting            /
//                          1.0.2\Projects\zstack\ZLL\SampleApp\CC253x\..\..\ /
//                          ..\..\..\Components\mac\low_level\srf04\" -I      /
//                          "D:\Texas Instruments\Z-Stack Lighting            /
//                          1.0.2\Projects\zstack\ZLL\SampleApp\CC253x\..\..\ /
//                          ..\..\..\Components\mac\low_level\srf04\single_ch /
//                          ip\" -I "D:\Texas Instruments\Z-Stack Lighting    /
//                          1.0.2\Projects\zstack\ZLL\SampleApp\CC253x\..\..\ /
//                          ..\..\..\Components\mt\" -I "D:\Texas             /
//                          Instruments\Z-Stack Lighting                      /
//                          1.0.2\Projects\zstack\ZLL\SampleApp\CC253x\..\..\ /
//                          ..\..\..\Components\osal\include\" -I "D:\Texas   /
//                          Instruments\Z-Stack Lighting                      /
//                          1.0.2\Projects\zstack\ZLL\SampleApp\CC253x\..\..\ /
//                          ..\..\..\Components\services\saddr\" -I           /
//                          "D:\Texas Instruments\Z-Stack Lighting            /
//                          1.0.2\Projects\zstack\ZLL\SampleApp\CC253x\..\..\ /
//                          ..\..\..\Components\services\sdata\" -I           /
//                          "D:\Texas Instruments\Z-Stack Lighting            /
//                          1.0.2\Projects\zstack\ZLL\SampleApp\CC253x\..\..\ /
//                          ..\..\..\Components\stack\af\" -I "D:\Texas       /
//                          Instruments\Z-Stack Lighting                      /
//                          1.0.2\Projects\zstack\ZLL\SampleApp\CC253x\..\..\ /
//                          ..\..\..\Components\stack\nwk\" -I "D:\Texas      /
//                          Instruments\Z-Stack Lighting                      /
//                          1.0.2\Projects\zstack\ZLL\SampleApp\CC253x\..\..\ /
//                          ..\..\..\Components\stack\sapi\" -I "D:\Texas     /
//                          Instruments\Z-Stack Lighting                      /
//                          1.0.2\Projects\zstack\ZLL\SampleApp\CC253x\..\..\ /
//                          ..\..\..\Components\stack\sec\" -I "D:\Texas      /
//                          Instruments\Z-Stack Lighting                      /
//                          1.0.2\Projects\zstack\ZLL\SampleApp\CC253x\..\..\ /
//                          ..\..\..\Components\stack\sys\" -I "D:\Texas      /
//                          Instruments\Z-Stack Lighting                      /
//                          1.0.2\Projects\zstack\ZLL\SampleApp\CC253x\..\..\ /
//                          ..\..\..\Components\stack\zcl\" -I "D:\Texas      /
//                          Instruments\Z-Stack Lighting                      /
//                          1.0.2\Projects\zstack\ZLL\SampleApp\CC253x\..\..\ /
//                          ..\..\..\Components\stack\zdo\" -I "D:\Texas      /
//                          Instruments\Z-Stack Lighting                      /
//                          1.0.2\Projects\zstack\ZLL\SampleApp\CC253x\..\..\ /
//                          ..\..\..\Components\zmac\" -I "D:\Texas           /
//                          Instruments\Z-Stack Lighting                      /
//                          1.0.2\Projects\zstack\ZLL\SampleApp\CC253x\..\..\ /
//                          ..\..\..\Components\zmac\f8w\" -Ohz               /
//                          --require_prototypes                              /
//    List file          =  D:\Texas Instruments\Z-Stack Lighting             /
//                          1.0.2\Projects\zstack\ZLL\SampleApp\CC253x\Bridge /
//                          EB-Pro\List\zll_rpc.s51                           /
//                                                                            /
//                                                                            /
///////////////////////////////////////////////////////////////////////////////

        NAME zll_rpc

        RTMODEL "__SystemLibrary", "CLib"
        RTMODEL "__calling_convention", "xdata_reentrant"
        RTMODEL "__code_model", "banked"
        RTMODEL "__core", "plain"
        RTMODEL "__data_model", "large"
        RTMODEL "__dptr_size", "16"
        RTMODEL "__extended_stack", "disabled"
        RTMODEL "__location_for_constants", "data"
        RTMODEL "__number_of_dptrs", "1"
        RTMODEL "__rt_version", "1"

        RSEG DOVERLAY:DATA:NOROOT(0)
        RSEG IOVERLAY:IDATA:NOROOT(0)
        RSEG ISTACK:IDATA:NOROOT(0)
        RSEG PSTACK:XDATA:NOROOT(0)
        RSEG XSTACK:XDATA:NOROOT(0)

        EXTERN ?ALLOC_XSTACK8
        EXTERN ?BANKED_ENTER_XDATA
        EXTERN ?BANKED_LEAVE_XDATA
        EXTERN ?BDISPATCH
        EXTERN ?DEALLOC_XSTACK8
        EXTERN ?PUSH_XSTACK_I_THREE
        EXTERN ?V0
        EXTERN ?XSP
        EXTERN ?XSTACK_DISP0_8

        PUBLIC ??MT_ZllNotifyTL?relay
        FUNCTION ??MT_ZllNotifyTL?relay,0203H
        PUBLIC ??MT_ZllSendZCLCmd?relay
        FUNCTION ??MT_ZllSendZCLCmd?relay,0203H
        PUBLIC MT_ZllNotifyTL
        FUNCTION MT_ZllNotifyTL,021203H
        ARGFRAME XSTACK, 0, STACK
        LOCFRAME ISTACK, 1, STACK
        LOCFRAME XSTACK, 12, STACK
        PUBLIC MT_ZllSendZCLCmd
        FUNCTION MT_ZllSendZCLCmd,021203H
        ARGFRAME XSTACK, 6, STACK
        LOCFRAME ISTACK, 1, STACK
        LOCFRAME XSTACK, 25, STACK
        
          CFI Names cfiNames0
          CFI StackFrame CFA_SP SP IDATA
          CFI StackFrame CFA_PSP16 PSP16 XDATA
          CFI StackFrame CFA_XSP16 XSP16 XDATA
          CFI StaticOverlayFrame CFA_IOVERLAY IOVERLAY
          CFI StaticOverlayFrame CFA_DOVERLAY DOVERLAY
          CFI Resource `PSW.CY`:1, `B.BR0`:1, `B.BR1`:1, `B.BR2`:1, `B.BR3`:1
          CFI Resource `B.BR4`:1, `B.BR5`:1, `B.BR6`:1, `B.BR7`:1, `VB.BR8`:1
          CFI Resource `VB.BR9`:1, `VB.BR10`:1, `VB.BR11`:1, `VB.BR12`:1
          CFI Resource `VB.BR13`:1, `VB.BR14`:1, `VB.BR15`:1, VB:8, B:8, A:8
          CFI Resource PSW:8, DPL0:8, DPH0:8, R0:8, R1:8, R2:8, R3:8, R4:8, R5:8
          CFI Resource R6:8, R7:8, V0:8, V1:8, V2:8, V3:8, V4:8, V5:8, V6:8, V7:8
          CFI Resource V8:8, V9:8, V10:8, V11:8, V12:8, V13:8, V14:8, V15:8, SP:8
          CFI Resource PSPH:8, PSPL:8, PSP16:16, XSPH:8, XSPL:8, XSP16:16
          CFI VirtualResource ?RET:24
          CFI Resource ?BRET_EXT:8
          CFI VirtualResource ?RET_HIGH:8, ?RET_LOW:8
          CFI ResourceParts PSP16 PSPH, PSPL
          CFI ResourceParts XSP16 XSPH, XSPL
          CFI ResourceParts ?RET ?BRET_EXT, ?RET_HIGH, ?RET_LOW
          CFI EndNames cfiNames0
        
          CFI Common cfiCommon0 Using cfiNames0
          CFI CodeAlign 1
          CFI DataAlign -1
          CFI ReturnAddress ?RET CODE
          CFI CFA_DOVERLAY Used
          CFI CFA_IOVERLAY Used
          CFI CFA_SP SP+-3
          CFI CFA_PSP16 PSP16+0
          CFI CFA_XSP16 XSP16+0
          CFI `PSW.CY` SameValue
          CFI `B.BR0` SameValue
          CFI `B.BR1` SameValue
          CFI `B.BR2` SameValue
          CFI `B.BR3` SameValue
          CFI `B.BR4` SameValue
          CFI `B.BR5` SameValue
          CFI `B.BR6` SameValue
          CFI `B.BR7` SameValue
          CFI `VB.BR8` SameValue
          CFI `VB.BR9` SameValue
          CFI `VB.BR10` SameValue
          CFI `VB.BR11` SameValue
          CFI `VB.BR12` SameValue
          CFI `VB.BR13` SameValue
          CFI `VB.BR14` SameValue
          CFI `VB.BR15` SameValue
          CFI VB SameValue
          CFI B Undefined
          CFI A Undefined
          CFI PSW SameValue
          CFI DPL0 SameValue
          CFI DPH0 SameValue
          CFI R0 Undefined
          CFI R1 Undefined
          CFI R2 Undefined
          CFI R3 Undefined
          CFI R4 Undefined
          CFI R5 Undefined
          CFI R6 SameValue
          CFI R7 SameValue
          CFI V0 SameValue
          CFI V1 SameValue
          CFI V2 SameValue
          CFI V3 SameValue
          CFI V4 SameValue
          CFI V5 SameValue
          CFI V6 SameValue
          CFI V7 SameValue
          CFI V8 SameValue
          CFI V9 SameValue
          CFI V10 SameValue
          CFI V11 SameValue
          CFI V12 SameValue
          CFI V13 SameValue
          CFI V14 SameValue
          CFI V15 SameValue
          CFI PSPH Undefined
          CFI PSPL Undefined
          CFI XSPH Undefined
          CFI XSPL Undefined
          CFI ?RET Concat
          CFI ?BRET_EXT Frame(CFA_SP, 3)
          CFI ?RET_HIGH Frame(CFA_SP, 2)
          CFI ?RET_LOW Frame(CFA_SP, 1)
          CFI EndCommon cfiCommon0
        
        
          CFI Common cfiCommon1 Using cfiNames0
          CFI CodeAlign 1
          CFI DataAlign -1
          CFI ReturnAddress ?RET CODE
          CFI CFA_DOVERLAY Used
          CFI CFA_IOVERLAY Used
          CFI CFA_SP SP+-2
          CFI CFA_PSP16 PSP16+0
          CFI CFA_XSP16 XSP16+0
          CFI `PSW.CY` SameValue
          CFI `B.BR0` SameValue
          CFI `B.BR1` SameValue
          CFI `B.BR2` SameValue
          CFI `B.BR3` SameValue
          CFI `B.BR4` SameValue
          CFI `B.BR5` SameValue
          CFI `B.BR6` SameValue
          CFI `B.BR7` SameValue
          CFI `VB.BR8` SameValue
          CFI `VB.BR9` SameValue
          CFI `VB.BR10` SameValue
          CFI `VB.BR11` SameValue
          CFI `VB.BR12` SameValue
          CFI `VB.BR13` SameValue
          CFI `VB.BR14` SameValue
          CFI `VB.BR15` SameValue
          CFI VB SameValue
          CFI B SameValue
          CFI A SameValue
          CFI PSW SameValue
          CFI DPL0 SameValue
          CFI DPH0 SameValue
          CFI R0 SameValue
          CFI R1 SameValue
          CFI R2 SameValue
          CFI R3 SameValue
          CFI R4 SameValue
          CFI R5 SameValue
          CFI R6 SameValue
          CFI R7 SameValue
          CFI V0 SameValue
          CFI V1 SameValue
          CFI V2 SameValue
          CFI V3 SameValue
          CFI V4 SameValue
          CFI V5 SameValue
          CFI V6 SameValue
          CFI V7 SameValue
          CFI V8 SameValue
          CFI V9 SameValue
          CFI V10 SameValue
          CFI V11 SameValue
          CFI V12 SameValue
          CFI V13 SameValue
          CFI V14 SameValue
          CFI V15 SameValue
          CFI PSPH Undefined
          CFI PSPL Undefined
          CFI XSPH Undefined
          CFI XSPL Undefined
          CFI ?RET Concat
          CFI ?BRET_EXT SameValue
          CFI ?RET_HIGH Frame(CFA_SP, 2)
          CFI ?RET_LOW Frame(CFA_SP, 1)
          CFI EndCommon cfiCommon1
        
MT_BuildAndSendZToolResponse SYMBOL "MT_BuildAndSendZToolResponse"
??MT_BuildAndSendZToolResponse?relay SYMBOL "?relay", MT_BuildAndSendZToolResponse
osal_mem_alloc      SYMBOL "osal_mem_alloc"
??osal_mem_alloc?relay SYMBOL "?relay", osal_mem_alloc
osal_mem_free       SYMBOL "osal_mem_free"
??osal_mem_free?relay SYMBOL "?relay", osal_mem_free
osal_memcpy         SYMBOL "osal_memcpy"
??osal_memcpy?relay SYMBOL "?relay", osal_memcpy
MT_ZllNotifyTL      SYMBOL "MT_ZllNotifyTL"
??MT_ZllNotifyTL?relay SYMBOL "?relay", MT_ZllNotifyTL
MT_ZllSendZCLCmd    SYMBOL "MT_ZllSendZCLCmd"
??MT_ZllSendZCLCmd?relay SYMBOL "?relay", MT_ZllSendZCLCmd

        EXTERN ??MT_BuildAndSendZToolResponse?relay
        FUNCTION ??MT_BuildAndSendZToolResponse?relay,00H
        EXTERN ??osal_mem_alloc?relay
        FUNCTION ??osal_mem_alloc?relay,00H
        EXTERN ??osal_mem_free?relay
        FUNCTION ??osal_mem_free?relay,00H
        EXTERN ??osal_memcpy?relay
        FUNCTION ??osal_memcpy?relay,00H
        EXTERN MT_BuildAndSendZToolResponse
        FUNCTION MT_BuildAndSendZToolResponse,0202H
        ARGFRAME ISTACK, 0, STACK
        ARGFRAME PSTACK, 0, STACK
        ARGFRAME XSTACK, 22, STACK
        ARGFRAME IOVERLAY, 0, STATIC
        ARGFRAME DOVERLAY, 0, STATIC
        EXTERN osal_mem_alloc
        FUNCTION osal_mem_alloc,0202H
        ARGFRAME ISTACK, 0, STACK
        ARGFRAME PSTACK, 0, STACK
        ARGFRAME XSTACK, 22, STACK
        ARGFRAME IOVERLAY, 0, STATIC
        ARGFRAME DOVERLAY, 0, STATIC
        EXTERN osal_mem_free
        FUNCTION osal_mem_free,0202H
        ARGFRAME ISTACK, 0, STACK
        ARGFRAME PSTACK, 0, STACK
        ARGFRAME XSTACK, 22, STACK
        ARGFRAME IOVERLAY, 0, STATIC
        ARGFRAME DOVERLAY, 0, STATIC
        EXTERN osal_memcpy
        FUNCTION osal_memcpy,0202H
        ARGFRAME ISTACK, 0, STACK
        ARGFRAME PSTACK, 0, STACK
        ARGFRAME XSTACK, 25, STACK
        ARGFRAME IOVERLAY, 0, STATIC
        ARGFRAME DOVERLAY, 0, STATIC

// D:\Texas Instruments\Z-Stack Lighting 1.0.2\Projects\zstack\ZLL\Source\zll_rpc.c
//    1 /**************************************************************************************************
//    2   Filename:       zll_rpc.c
//    3   Revised:        $Date: 2012-10-29 16:57:10 -0700 (Mon, 29 Oct 2012) $
//    4   Revision:       $Revision: 31957 $
//    5 
//    6   Description:    This file contains the Zigbee Cluster Library: Light Link
//    7                   MT Remote procedure calls.
//    8 
//    9 
//   10   Copyright 2012 Texas Instruments Incorporated. All rights reserved.
//   11 
//   12   IMPORTANT: Your use of this Software is limited to those specific rights
//   13   granted under the terms of a software license agreement between the user
//   14   who downloaded the software, his/her employer (which must be your employer)
//   15   and Texas Instruments Incorporated (the "License").  You may not use this
//   16   Software unless you agree to abide by the terms of the License. The License
//   17   limits your use, and you acknowledge, that the Software may not be modified,
//   18   copied or distributed unless embedded on a Texas Instruments microcontroller
//   19   or used solely and exclusively in conjunction with a Texas Instruments radio
//   20   frequency transceiver, which is integrated into your product.  Other than for
//   21   the foregoing purpose, you may not use, reproduce, copy, prepare derivative
//   22   works of, modify, distribute, perform, display or sell this Software and/or
//   23   its documentation for any purpose.
//   24 
//   25   YOU FURTHER ACKNOWLEDGE AND AGREE THAT THE SOFTWARE AND DOCUMENTATION ARE
//   26   PROVIDED “AS IS” WITHOUT WARRANTY OF ANY KIND, EITHER EXPRESS OR IMPLIED,
//   27   INCLUDING WITHOUT LIMITATION, ANY WARRANTY OF MERCHANTABILITY, TITLE,
//   28   NON-INFRINGEMENT AND FITNESS FOR A PARTICULAR PURPOSE. IN NO EVENT SHALL
//   29   TEXAS INSTRUMENTS OR ITS LICENSORS BE LIABLE OR OBLIGATED UNDER CONTRACT,
//   30   NEGLIGENCE, STRICT LIABILITY, CONTRIBUTION, BREACH OF WARRANTY, OR OTHER
//   31   LEGAL EQUITABLE THEORY ANY DIRECT OR INDIRECT DAMAGES OR EXPENSES
//   32   INCLUDING BUT NOT LIMITED TO ANY INCIDENTAL, SPECIAL, INDIRECT, PUNITIVE
//   33   OR CONSEQUENTIAL DAMAGES, LOST PROFITS OR LOST DATA, COST OF PROCUREMENT
//   34   OF SUBSTITUTE GOODS, TECHNOLOGY, SERVICES, OR ANY CLAIMS BY THIRD PARTIES
//   35   (INCLUDING BUT NOT LIMITED TO ANY DEFENSE THEREOF), OR OTHER SIMILAR COSTS.
//   36 
//   37   Should you have any questions regarding your right to use this Software,
//   38   contact Texas Instruments Incorporated at www.TI.com.
//   39 **************************************************************************************************/
//   40 
//   41 /*********************************************************************
//   42  * INCLUDES
//   43  */
//   44  #include "zll_rpc.h"
//   45  #include "MT.h"
//   46 
//   47 /*********************************************************************
//   48  * GLOBAL VARIABLES
//   49  */
//   50 
//   51 
//   52 /*********************************************************************
//   53  * FUNCTIONS
//   54  *********************************************************************/
//   55 
//   56  /***************************************************************************************************
//   57  * @fn      MT_ZllNotifyTL
//   58  *
//   59  * @brief   Process and send Indication for a successful ZLL Touch-Link over MT_APP.
//   60  *
//   61  * @param   pRec - Target's information record
//   62  *
//   63  * @return  none
//   64  ***************************************************************************************************/

        RSEG BANKED_CODE:CODE:NOROOT(0)
//   65 void MT_ZllNotifyTL( epInfoRec_t *pRec )
MT_ZllNotifyTL:
          CFI Block cfiBlock0 Using cfiCommon0
          CFI Function MT_ZllNotifyTL
        CODE
//   66 {
        FUNCALL MT_ZllNotifyTL, osal_mem_alloc
        LOCFRAME ISTACK, 0, STACK
        LOCFRAME PSTACK, 0, STACK
        LOCFRAME XSTACK, 12, STACK
        LOCFRAME IOVERLAY, 0, STATIC
        LOCFRAME DOVERLAY, 0, STATIC
        ARGFRAME ISTACK, 0, STACK
        ARGFRAME PSTACK, 0, STACK
        ARGFRAME XSTACK, 12, STACK
        ARGFRAME IOVERLAY, 0, STATIC
        ARGFRAME DOVERLAY, 0, STATIC
        FUNCALL MT_ZllNotifyTL, MT_BuildAndSendZToolResponse
        LOCFRAME ISTACK, 0, STACK
        LOCFRAME PSTACK, 0, STACK
        LOCFRAME XSTACK, 12, STACK
        LOCFRAME IOVERLAY, 0, STATIC
        LOCFRAME DOVERLAY, 0, STATIC
        ARGFRAME ISTACK, 0, STACK
        ARGFRAME PSTACK, 0, STACK
        ARGFRAME XSTACK, 12, STACK
        ARGFRAME IOVERLAY, 0, STATIC
        ARGFRAME DOVERLAY, 0, STATIC
        FUNCALL MT_ZllNotifyTL, osal_mem_free
        LOCFRAME ISTACK, 0, STACK
        LOCFRAME PSTACK, 0, STACK
        LOCFRAME XSTACK, 12, STACK
        LOCFRAME IOVERLAY, 0, STATIC
        LOCFRAME DOVERLAY, 0, STATIC
        ARGFRAME ISTACK, 0, STACK
        ARGFRAME PSTACK, 0, STACK
        ARGFRAME XSTACK, 12, STACK
        ARGFRAME IOVERLAY, 0, STATIC
        ARGFRAME DOVERLAY, 0, STATIC
        MOV     A,#-0xc
        LCALL   ?BANKED_ENTER_XDATA
          CFI DPH0 load(1, XDATA, add(CFA_XSP16, literal(-1)))
          CFI DPL0 load(1, XDATA, add(CFA_XSP16, literal(-2)))
          CFI ?BRET_EXT load(1, XDATA, add(CFA_XSP16, literal(-3)))
          CFI ?RET_HIGH load(1, XDATA, add(CFA_XSP16, literal(-4)))
          CFI ?RET_LOW load(1, XDATA, add(CFA_XSP16, literal(-5)))
          CFI R7 load(1, XDATA, add(CFA_XSP16, literal(-6)))
          CFI V3 load(1, XDATA, add(CFA_XSP16, literal(-7)))
          CFI V2 load(1, XDATA, add(CFA_XSP16, literal(-8)))
          CFI V1 load(1, XDATA, add(CFA_XSP16, literal(-9)))
          CFI V0 load(1, XDATA, add(CFA_XSP16, literal(-10)))
          CFI VB load(1, XDATA, add(CFA_XSP16, literal(-11)))
          CFI R6 load(1, XDATA, add(CFA_XSP16, literal(-12)))
          CFI CFA_SP SP+0
          CFI CFA_XSP16 add(XSP16, 12)
        ; Saved register size: 12
        ; Auto size: 0
        MOV     ?V0 + 0,R2
        MOV     ?V0 + 1,R3
//   67   byte *pBuf;
//   68   pBuf = osal_mem_alloc( ZLL_CMDLENOPTIONAL_GET_EP_LIST_RSP ); // endpoint information record entry
        ; Setup parameters for call to function osal_mem_alloc
        MOV     R2,#0x8
        MOV     R3,#0x0
        LCALL   ??osal_mem_alloc?relay
        MOV     ?V0 + 2,R2
        MOV     ?V0 + 3,R3
        MOV     R6,?V0 + 2
        MOV     R7,?V0 + 3
//   69   if ( pBuf )
        MOV     A,R6
        ORL     A,R7
        JZ      ??MT_ZllNotifyTL_0
//   70   {
//   71     pBuf[0] = LO_UINT16( pRec->nwkAddr );
        MOV     DPL,?V0 + 0
        MOV     DPH,?V0 + 1
        LCALL   ??Subroutine7_0 & 0xFFFF
??CrossCallReturnLabel_10:
        LCALL   ?Subroutine4 & 0xFFFF
//   72     pBuf[1] = HI_UINT16( pRec->nwkAddr );
??CrossCallReturnLabel_4:
        LCALL   ??Subroutine6_0 & 0xFFFF
??CrossCallReturnLabel_7:
        LCALL   ?Subroutine4 & 0xFFFF
//   73 
//   74     pBuf[2] = pRec->endpoint;
??CrossCallReturnLabel_5:
        LCALL   ?Subroutine3 & 0xFFFF
??CrossCallReturnLabel_8:
        INC     DPTR
        MOVX    @DPTR,A
//   75 
//   76     pBuf[3] = LO_UINT16( pRec->profileID );
        MOV     A,?V0 + 0
        ADD     A,#0x3
        LCALL   ?Subroutine2 & 0xFFFF
??CrossCallReturnLabel_2:
        LCALL   ?Subroutine1 & 0xFFFF
//   77     pBuf[4] = HI_UINT16( pRec->profileID );
??CrossCallReturnLabel_0:
        MOVX    @DPTR,A
//   78 
//   79     pBuf[5] = LO_UINT16( pRec->deviceID );
        MOV     A,?V0 + 0
        ADD     A,#0x5
        LCALL   ?Subroutine2 & 0xFFFF
??CrossCallReturnLabel_3:
        INC     DPTR
        INC     DPTR
        LCALL   ?Subroutine1 & 0xFFFF
//   80     pBuf[6] = HI_UINT16( pRec->deviceID );
??CrossCallReturnLabel_1:
        INC     DPTR
        INC     DPTR
        LCALL   ?Subroutine4 & 0xFFFF
//   81 
//   82     pBuf[7] = pRec->version;
??CrossCallReturnLabel_6:
        INC     DPTR
        INC     DPTR
        INC     DPTR
        INC     DPTR
        INC     DPTR
        LCALL   ?Subroutine3 & 0xFFFF
??CrossCallReturnLabel_9:
        INC     DPTR
        INC     DPTR
        INC     DPTR
        INC     DPTR
        INC     DPTR
        INC     DPTR
        MOVX    @DPTR,A
//   83 
//   84     /* Send out Reset Response message */
//   85     MT_BuildAndSendZToolResponse( ((uint8)MT_RPC_CMD_AREQ | (uint8)MT_RPC_SYS_APP),
//   86                                    MT_APP_ZLL_TL_IND,
//   87                                    ZLL_CMDLENOPTIONAL_GET_EP_LIST_RSP, pBuf );
        ; Setup parameters for call to function MT_BuildAndSendZToolResponse
        MOV     A,R6
        MOV     R4,A
        MOV     A,R7
        MOV     R5,A
        MOV     R3,#0x8
        MOV     R2,#-0x7f
        MOV     R1,#0x49
        LCALL   ??MT_BuildAndSendZToolResponse?relay
//   88 
//   89     osal_mem_free( pBuf );
        ; Setup parameters for call to function osal_mem_free
        MOV     A,R6
        MOV     R2,A
        MOV     A,R7
        MOV     R3,A
        LCALL   ??osal_mem_free?relay
//   90   }
//   91 }
??MT_ZllNotifyTL_0:
        MOV     R7,#0x4
        LJMP    ?BANKED_LEAVE_XDATA
          CFI EndBlock cfiBlock0

        RSEG BANKED_CODE:CODE:NOROOT(0)
?Subroutine4:
          CFI Block cfiCond1 Using cfiCommon0
          CFI Function MT_ZllNotifyTL
          CFI Conditional ??CrossCallReturnLabel_4
          CFI R6 load(1, XDATA, add(CFA_XSP16, literal(-12)))
          CFI VB load(1, XDATA, add(CFA_XSP16, literal(-11)))
          CFI V0 load(1, XDATA, add(CFA_XSP16, literal(-10)))
          CFI V1 load(1, XDATA, add(CFA_XSP16, literal(-9)))
          CFI V2 load(1, XDATA, add(CFA_XSP16, literal(-8)))
          CFI V3 load(1, XDATA, add(CFA_XSP16, literal(-7)))
          CFI R7 load(1, XDATA, add(CFA_XSP16, literal(-6)))
          CFI ?RET_LOW load(1, XDATA, add(CFA_XSP16, literal(-5)))
          CFI ?RET_HIGH load(1, XDATA, add(CFA_XSP16, literal(-4)))
          CFI ?BRET_EXT load(1, XDATA, add(CFA_XSP16, literal(-3)))
          CFI DPL0 load(1, XDATA, add(CFA_XSP16, literal(-2)))
          CFI DPH0 load(1, XDATA, add(CFA_XSP16, literal(-1)))
          CFI CFA_SP SP+0
          CFI CFA_XSP16 add(XSP16, 12)
          CFI Block cfiCond2 Using cfiCommon0
          CFI (cfiCond2) Function MT_ZllNotifyTL
          CFI (cfiCond2) Conditional ??CrossCallReturnLabel_5
          CFI (cfiCond2) R6 load(1, XDATA, add(CFA_XSP16, literal(-12)))
          CFI (cfiCond2) VB load(1, XDATA, add(CFA_XSP16, literal(-11)))
          CFI (cfiCond2) V0 load(1, XDATA, add(CFA_XSP16, literal(-10)))
          CFI (cfiCond2) V1 load(1, XDATA, add(CFA_XSP16, literal(-9)))
          CFI (cfiCond2) V2 load(1, XDATA, add(CFA_XSP16, literal(-8)))
          CFI (cfiCond2) V3 load(1, XDATA, add(CFA_XSP16, literal(-7)))
          CFI (cfiCond2) R7 load(1, XDATA, add(CFA_XSP16, literal(-6)))
          CFI (cfiCond2) ?RET_LOW load(1, XDATA, add(CFA_XSP16, literal(-5)))
          CFI (cfiCond2) ?RET_HIGH load(1, XDATA, add(CFA_XSP16, literal(-4)))
          CFI (cfiCond2) ?BRET_EXT load(1, XDATA, add(CFA_XSP16, literal(-3)))
          CFI (cfiCond2) DPL0 load(1, XDATA, add(CFA_XSP16, literal(-2)))
          CFI (cfiCond2) DPH0 load(1, XDATA, add(CFA_XSP16, literal(-1)))
          CFI (cfiCond2) CFA_SP SP+0
          CFI (cfiCond2) CFA_XSP16 add(XSP16, 12)
          CFI Block cfiCond3 Using cfiCommon0
          CFI (cfiCond3) Function MT_ZllNotifyTL
          CFI (cfiCond3) Conditional ??CrossCallReturnLabel_6
          CFI (cfiCond3) R6 load(1, XDATA, add(CFA_XSP16, literal(-12)))
          CFI (cfiCond3) VB load(1, XDATA, add(CFA_XSP16, literal(-11)))
          CFI (cfiCond3) V0 load(1, XDATA, add(CFA_XSP16, literal(-10)))
          CFI (cfiCond3) V1 load(1, XDATA, add(CFA_XSP16, literal(-9)))
          CFI (cfiCond3) V2 load(1, XDATA, add(CFA_XSP16, literal(-8)))
          CFI (cfiCond3) V3 load(1, XDATA, add(CFA_XSP16, literal(-7)))
          CFI (cfiCond3) R7 load(1, XDATA, add(CFA_XSP16, literal(-6)))
          CFI (cfiCond3) ?RET_LOW load(1, XDATA, add(CFA_XSP16, literal(-5)))
          CFI (cfiCond3) ?RET_HIGH load(1, XDATA, add(CFA_XSP16, literal(-4)))
          CFI (cfiCond3) ?BRET_EXT load(1, XDATA, add(CFA_XSP16, literal(-3)))
          CFI (cfiCond3) DPL0 load(1, XDATA, add(CFA_XSP16, literal(-2)))
          CFI (cfiCond3) DPH0 load(1, XDATA, add(CFA_XSP16, literal(-1)))
          CFI (cfiCond3) CFA_SP SP+0
          CFI (cfiCond3) CFA_XSP16 add(XSP16, 12)
          CFI Block cfiPicker4 Using cfiCommon1
          CFI (cfiPicker4) NoFunction
          CFI (cfiPicker4) Picker
        MOVX    @DPTR,A
        MOV     DPL,?V0 + 0
        MOV     DPH,?V0 + 1
        RET
          CFI EndBlock cfiCond1
          CFI EndBlock cfiCond2
          CFI EndBlock cfiCond3
          CFI EndBlock cfiPicker4

        RSEG BANKED_CODE:CODE:NOROOT(0)
?Subroutine3:
          CFI Block cfiCond5 Using cfiCommon0
          CFI Function MT_ZllNotifyTL
          CFI Conditional ??CrossCallReturnLabel_8
          CFI R6 load(1, XDATA, add(CFA_XSP16, literal(-12)))
          CFI VB load(1, XDATA, add(CFA_XSP16, literal(-11)))
          CFI V0 load(1, XDATA, add(CFA_XSP16, literal(-10)))
          CFI V1 load(1, XDATA, add(CFA_XSP16, literal(-9)))
          CFI V2 load(1, XDATA, add(CFA_XSP16, literal(-8)))
          CFI V3 load(1, XDATA, add(CFA_XSP16, literal(-7)))
          CFI R7 load(1, XDATA, add(CFA_XSP16, literal(-6)))
          CFI ?RET_LOW load(1, XDATA, add(CFA_XSP16, literal(-5)))
          CFI ?RET_HIGH load(1, XDATA, add(CFA_XSP16, literal(-4)))
          CFI ?BRET_EXT load(1, XDATA, add(CFA_XSP16, literal(-3)))
          CFI DPL0 load(1, XDATA, add(CFA_XSP16, literal(-2)))
          CFI DPH0 load(1, XDATA, add(CFA_XSP16, literal(-1)))
          CFI CFA_SP SP+0
          CFI CFA_XSP16 add(XSP16, 12)
          CFI Block cfiCond6 Using cfiCommon0
          CFI (cfiCond6) Function MT_ZllNotifyTL
          CFI (cfiCond6) Conditional ??CrossCallReturnLabel_9
          CFI (cfiCond6) R6 load(1, XDATA, add(CFA_XSP16, literal(-12)))
          CFI (cfiCond6) VB load(1, XDATA, add(CFA_XSP16, literal(-11)))
          CFI (cfiCond6) V0 load(1, XDATA, add(CFA_XSP16, literal(-10)))
          CFI (cfiCond6) V1 load(1, XDATA, add(CFA_XSP16, literal(-9)))
          CFI (cfiCond6) V2 load(1, XDATA, add(CFA_XSP16, literal(-8)))
          CFI (cfiCond6) V3 load(1, XDATA, add(CFA_XSP16, literal(-7)))
          CFI (cfiCond6) R7 load(1, XDATA, add(CFA_XSP16, literal(-6)))
          CFI (cfiCond6) ?RET_LOW load(1, XDATA, add(CFA_XSP16, literal(-5)))
          CFI (cfiCond6) ?RET_HIGH load(1, XDATA, add(CFA_XSP16, literal(-4)))
          CFI (cfiCond6) ?BRET_EXT load(1, XDATA, add(CFA_XSP16, literal(-3)))
          CFI (cfiCond6) DPL0 load(1, XDATA, add(CFA_XSP16, literal(-2)))
          CFI (cfiCond6) DPH0 load(1, XDATA, add(CFA_XSP16, literal(-1)))
          CFI (cfiCond6) CFA_SP SP+0
          CFI (cfiCond6) CFA_XSP16 add(XSP16, 12)
          CFI Block cfiPicker7 Using cfiCommon1
          CFI (cfiPicker7) NoFunction
          CFI (cfiPicker7) Picker
        INC     DPTR
          CFI EndBlock cfiCond5
          CFI EndBlock cfiCond6
          CFI EndBlock cfiPicker7
        REQUIRE ??Subroutine6_0
        ; // Fall through to label ??Subroutine6_0

        RSEG BANKED_CODE:CODE:NOROOT(0)
??Subroutine6_0:
          CFI Block cfiCond8 Using cfiCommon0
          CFI Function MT_ZllNotifyTL
          CFI Conditional ??CrossCallReturnLabel_7
          CFI R6 load(1, XDATA, add(CFA_XSP16, literal(-12)))
          CFI VB load(1, XDATA, add(CFA_XSP16, literal(-11)))
          CFI V0 load(1, XDATA, add(CFA_XSP16, literal(-10)))
          CFI V1 load(1, XDATA, add(CFA_XSP16, literal(-9)))
          CFI V2 load(1, XDATA, add(CFA_XSP16, literal(-8)))
          CFI V3 load(1, XDATA, add(CFA_XSP16, literal(-7)))
          CFI R7 load(1, XDATA, add(CFA_XSP16, literal(-6)))
          CFI ?RET_LOW load(1, XDATA, add(CFA_XSP16, literal(-5)))
          CFI ?RET_HIGH load(1, XDATA, add(CFA_XSP16, literal(-4)))
          CFI ?BRET_EXT load(1, XDATA, add(CFA_XSP16, literal(-3)))
          CFI DPL0 load(1, XDATA, add(CFA_XSP16, literal(-2)))
          CFI DPH0 load(1, XDATA, add(CFA_XSP16, literal(-1)))
          CFI CFA_SP SP+0
          CFI CFA_XSP16 add(XSP16, 12)
          CFI Block cfiCond9 Using cfiCommon0
          CFI (cfiCond9) Function MT_ZllNotifyTL
          CFI (cfiCond9) Conditional ??CrossCallReturnLabel_8
          CFI (cfiCond9) R6 load(1, XDATA, add(CFA_XSP16, literal(-12)))
          CFI (cfiCond9) VB load(1, XDATA, add(CFA_XSP16, literal(-11)))
          CFI (cfiCond9) V0 load(1, XDATA, add(CFA_XSP16, literal(-10)))
          CFI (cfiCond9) V1 load(1, XDATA, add(CFA_XSP16, literal(-9)))
          CFI (cfiCond9) V2 load(1, XDATA, add(CFA_XSP16, literal(-8)))
          CFI (cfiCond9) V3 load(1, XDATA, add(CFA_XSP16, literal(-7)))
          CFI (cfiCond9) R7 load(1, XDATA, add(CFA_XSP16, literal(-6)))
          CFI (cfiCond9) ?RET_LOW load(1, XDATA, add(CFA_XSP16, literal(-5)))
          CFI (cfiCond9) ?RET_HIGH load(1, XDATA, add(CFA_XSP16, literal(-4)))
          CFI (cfiCond9) ?BRET_EXT load(1, XDATA, add(CFA_XSP16, literal(-3)))
          CFI (cfiCond9) DPL0 load(1, XDATA, add(CFA_XSP16, literal(-2)))
          CFI (cfiCond9) DPH0 load(1, XDATA, add(CFA_XSP16, literal(-1)))
          CFI (cfiCond9) CFA_SP SP+0
          CFI (cfiCond9) CFA_XSP16 add(XSP16, 12)
          CFI Block cfiCond10 Using cfiCommon0
          CFI (cfiCond10) Function MT_ZllNotifyTL
          CFI (cfiCond10) Conditional ??CrossCallReturnLabel_9
          CFI (cfiCond10) R6 load(1, XDATA, add(CFA_XSP16, literal(-12)))
          CFI (cfiCond10) VB load(1, XDATA, add(CFA_XSP16, literal(-11)))
          CFI (cfiCond10) V0 load(1, XDATA, add(CFA_XSP16, literal(-10)))
          CFI (cfiCond10) V1 load(1, XDATA, add(CFA_XSP16, literal(-9)))
          CFI (cfiCond10) V2 load(1, XDATA, add(CFA_XSP16, literal(-8)))
          CFI (cfiCond10) V3 load(1, XDATA, add(CFA_XSP16, literal(-7)))
          CFI (cfiCond10) R7 load(1, XDATA, add(CFA_XSP16, literal(-6)))
          CFI (cfiCond10) ?RET_LOW load(1, XDATA, add(CFA_XSP16, literal(-5)))
          CFI (cfiCond10) ?RET_HIGH load(1, XDATA, add(CFA_XSP16, literal(-4)))
          CFI (cfiCond10) ?BRET_EXT load(1, XDATA, add(CFA_XSP16, literal(-3)))
          CFI (cfiCond10) DPL0 load(1, XDATA, add(CFA_XSP16, literal(-2)))
          CFI (cfiCond10) DPH0 load(1, XDATA, add(CFA_XSP16, literal(-1)))
          CFI (cfiCond10) CFA_SP SP+0
          CFI (cfiCond10) CFA_XSP16 add(XSP16, 12)
          CFI Block cfiPicker11 Using cfiCommon1
          CFI (cfiPicker11) NoFunction
          CFI (cfiPicker11) Picker
        LCALL   ?Subroutine5 & 0xFFFF
??CrossCallReturnLabel_13:
        INC     DPTR
        RET
          CFI EndBlock cfiCond8
          CFI EndBlock cfiCond9
          CFI EndBlock cfiCond10
          CFI EndBlock cfiPicker11

        RSEG BANKED_CODE:CODE:NOROOT(0)
?Subroutine5:
          CFI Block cfiCond12 Using cfiCommon0
          CFI Function MT_ZllNotifyTL
          CFI Conditional ??CrossCallReturnLabel_13, ??CrossCallReturnLabel_8
          CFI R6 load(1, XDATA, add(CFA_XSP16, literal(-12)))
          CFI VB load(1, XDATA, add(CFA_XSP16, literal(-11)))
          CFI V0 load(1, XDATA, add(CFA_XSP16, literal(-10)))
          CFI V1 load(1, XDATA, add(CFA_XSP16, literal(-9)))
          CFI V2 load(1, XDATA, add(CFA_XSP16, literal(-8)))
          CFI V3 load(1, XDATA, add(CFA_XSP16, literal(-7)))
          CFI R7 load(1, XDATA, add(CFA_XSP16, literal(-6)))
          CFI ?RET_LOW load(1, XDATA, add(CFA_XSP16, literal(-5)))
          CFI ?RET_HIGH load(1, XDATA, add(CFA_XSP16, literal(-4)))
          CFI ?BRET_EXT load(1, XDATA, add(CFA_XSP16, literal(-3)))
          CFI DPL0 load(1, XDATA, add(CFA_XSP16, literal(-2)))
          CFI DPH0 load(1, XDATA, add(CFA_XSP16, literal(-1)))
          CFI CFA_SP SP+0
          CFI CFA_XSP16 add(XSP16, 12)
          CFI Block cfiCond13 Using cfiCommon0
          CFI (cfiCond13) Function MT_ZllNotifyTL
          CFI (cfiCond13) Conditional ??CrossCallReturnLabel_13, ??CrossCallReturnLabel_9
          CFI (cfiCond13) R6 load(1, XDATA, add(CFA_XSP16, literal(-12)))
          CFI (cfiCond13) VB load(1, XDATA, add(CFA_XSP16, literal(-11)))
          CFI (cfiCond13) V0 load(1, XDATA, add(CFA_XSP16, literal(-10)))
          CFI (cfiCond13) V1 load(1, XDATA, add(CFA_XSP16, literal(-9)))
          CFI (cfiCond13) V2 load(1, XDATA, add(CFA_XSP16, literal(-8)))
          CFI (cfiCond13) V3 load(1, XDATA, add(CFA_XSP16, literal(-7)))
          CFI (cfiCond13) R7 load(1, XDATA, add(CFA_XSP16, literal(-6)))
          CFI (cfiCond13) ?RET_LOW load(1, XDATA, add(CFA_XSP16, literal(-5)))
          CFI (cfiCond13) ?RET_HIGH load(1, XDATA, add(CFA_XSP16, literal(-4)))
          CFI (cfiCond13) ?BRET_EXT load(1, XDATA, add(CFA_XSP16, literal(-3)))
          CFI (cfiCond13) DPL0 load(1, XDATA, add(CFA_XSP16, literal(-2)))
          CFI (cfiCond13) DPH0 load(1, XDATA, add(CFA_XSP16, literal(-1)))
          CFI (cfiCond13) CFA_SP SP+0
          CFI (cfiCond13) CFA_XSP16 add(XSP16, 12)
          CFI Block cfiCond14 Using cfiCommon0
          CFI (cfiCond14) Function MT_ZllNotifyTL
          CFI (cfiCond14) Conditional ??CrossCallReturnLabel_13, ??CrossCallReturnLabel_7
          CFI (cfiCond14) R6 load(1, XDATA, add(CFA_XSP16, literal(-12)))
          CFI (cfiCond14) VB load(1, XDATA, add(CFA_XSP16, literal(-11)))
          CFI (cfiCond14) V0 load(1, XDATA, add(CFA_XSP16, literal(-10)))
          CFI (cfiCond14) V1 load(1, XDATA, add(CFA_XSP16, literal(-9)))
          CFI (cfiCond14) V2 load(1, XDATA, add(CFA_XSP16, literal(-8)))
          CFI (cfiCond14) V3 load(1, XDATA, add(CFA_XSP16, literal(-7)))
          CFI (cfiCond14) R7 load(1, XDATA, add(CFA_XSP16, literal(-6)))
          CFI (cfiCond14) ?RET_LOW load(1, XDATA, add(CFA_XSP16, literal(-5)))
          CFI (cfiCond14) ?RET_HIGH load(1, XDATA, add(CFA_XSP16, literal(-4)))
          CFI (cfiCond14) ?BRET_EXT load(1, XDATA, add(CFA_XSP16, literal(-3)))
          CFI (cfiCond14) DPL0 load(1, XDATA, add(CFA_XSP16, literal(-2)))
          CFI (cfiCond14) DPH0 load(1, XDATA, add(CFA_XSP16, literal(-1)))
          CFI (cfiCond14) CFA_SP SP+0
          CFI (cfiCond14) CFA_XSP16 add(XSP16, 12)
          CFI Block cfiCond15 Using cfiCommon0
          CFI (cfiCond15) Function MT_ZllNotifyTL
          CFI (cfiCond15) Conditional ??CrossCallReturnLabel_12, ??CrossCallReturnLabel_0
          CFI (cfiCond15) R6 load(1, XDATA, add(CFA_XSP16, literal(-12)))
          CFI (cfiCond15) VB load(1, XDATA, add(CFA_XSP16, literal(-11)))
          CFI (cfiCond15) V0 load(1, XDATA, add(CFA_XSP16, literal(-10)))
          CFI (cfiCond15) V1 load(1, XDATA, add(CFA_XSP16, literal(-9)))
          CFI (cfiCond15) V2 load(1, XDATA, add(CFA_XSP16, literal(-8)))
          CFI (cfiCond15) V3 load(1, XDATA, add(CFA_XSP16, literal(-7)))
          CFI (cfiCond15) R7 load(1, XDATA, add(CFA_XSP16, literal(-6)))
          CFI (cfiCond15) ?RET_LOW load(1, XDATA, add(CFA_XSP16, literal(-5)))
          CFI (cfiCond15) ?RET_HIGH load(1, XDATA, add(CFA_XSP16, literal(-4)))
          CFI (cfiCond15) ?BRET_EXT load(1, XDATA, add(CFA_XSP16, literal(-3)))
          CFI (cfiCond15) DPL0 load(1, XDATA, add(CFA_XSP16, literal(-2)))
          CFI (cfiCond15) DPH0 load(1, XDATA, add(CFA_XSP16, literal(-1)))
          CFI (cfiCond15) CFA_SP SP+0
          CFI (cfiCond15) CFA_XSP16 add(XSP16, 12)
          CFI Block cfiCond16 Using cfiCommon0
          CFI (cfiCond16) Function MT_ZllNotifyTL
          CFI (cfiCond16) Conditional ??CrossCallReturnLabel_12, ??CrossCallReturnLabel_1
          CFI (cfiCond16) R6 load(1, XDATA, add(CFA_XSP16, literal(-12)))
          CFI (cfiCond16) VB load(1, XDATA, add(CFA_XSP16, literal(-11)))
          CFI (cfiCond16) V0 load(1, XDATA, add(CFA_XSP16, literal(-10)))
          CFI (cfiCond16) V1 load(1, XDATA, add(CFA_XSP16, literal(-9)))
          CFI (cfiCond16) V2 load(1, XDATA, add(CFA_XSP16, literal(-8)))
          CFI (cfiCond16) V3 load(1, XDATA, add(CFA_XSP16, literal(-7)))
          CFI (cfiCond16) R7 load(1, XDATA, add(CFA_XSP16, literal(-6)))
          CFI (cfiCond16) ?RET_LOW load(1, XDATA, add(CFA_XSP16, literal(-5)))
          CFI (cfiCond16) ?RET_HIGH load(1, XDATA, add(CFA_XSP16, literal(-4)))
          CFI (cfiCond16) ?BRET_EXT load(1, XDATA, add(CFA_XSP16, literal(-3)))
          CFI (cfiCond16) DPL0 load(1, XDATA, add(CFA_XSP16, literal(-2)))
          CFI (cfiCond16) DPH0 load(1, XDATA, add(CFA_XSP16, literal(-1)))
          CFI (cfiCond16) CFA_SP SP+0
          CFI (cfiCond16) CFA_XSP16 add(XSP16, 12)
          CFI Block cfiPicker17 Using cfiCommon1
          CFI (cfiPicker17) NoFunction
          CFI (cfiPicker17) Picker
        INC     DPTR
          CFI EndBlock cfiCond12
          CFI EndBlock cfiCond13
          CFI EndBlock cfiCond14
          CFI EndBlock cfiCond15
          CFI EndBlock cfiCond16
          CFI EndBlock cfiPicker17
        REQUIRE ??Subroutine7_0
        ; // Fall through to label ??Subroutine7_0

        RSEG BANKED_CODE:CODE:NOROOT(0)
??Subroutine7_0:
          CFI Block cfiCond18 Using cfiCommon0
          CFI Function MT_ZllNotifyTL
          CFI Conditional ??CrossCallReturnLabel_10
          CFI R6 load(1, XDATA, add(CFA_XSP16, literal(-12)))
          CFI VB load(1, XDATA, add(CFA_XSP16, literal(-11)))
          CFI V0 load(1, XDATA, add(CFA_XSP16, literal(-10)))
          CFI V1 load(1, XDATA, add(CFA_XSP16, literal(-9)))
          CFI V2 load(1, XDATA, add(CFA_XSP16, literal(-8)))
          CFI V3 load(1, XDATA, add(CFA_XSP16, literal(-7)))
          CFI R7 load(1, XDATA, add(CFA_XSP16, literal(-6)))
          CFI ?RET_LOW load(1, XDATA, add(CFA_XSP16, literal(-5)))
          CFI ?RET_HIGH load(1, XDATA, add(CFA_XSP16, literal(-4)))
          CFI ?BRET_EXT load(1, XDATA, add(CFA_XSP16, literal(-3)))
          CFI DPL0 load(1, XDATA, add(CFA_XSP16, literal(-2)))
          CFI DPH0 load(1, XDATA, add(CFA_XSP16, literal(-1)))
          CFI CFA_SP SP+0
          CFI CFA_XSP16 add(XSP16, 12)
          CFI Block cfiCond19 Using cfiCommon0
          CFI (cfiCond19) Function MT_ZllNotifyTL
          CFI (cfiCond19) Conditional ??CrossCallReturnLabel_11, ??CrossCallReturnLabel_2
          CFI (cfiCond19) R6 load(1, XDATA, add(CFA_XSP16, literal(-12)))
          CFI (cfiCond19) VB load(1, XDATA, add(CFA_XSP16, literal(-11)))
          CFI (cfiCond19) V0 load(1, XDATA, add(CFA_XSP16, literal(-10)))
          CFI (cfiCond19) V1 load(1, XDATA, add(CFA_XSP16, literal(-9)))
          CFI (cfiCond19) V2 load(1, XDATA, add(CFA_XSP16, literal(-8)))
          CFI (cfiCond19) V3 load(1, XDATA, add(CFA_XSP16, literal(-7)))
          CFI (cfiCond19) R7 load(1, XDATA, add(CFA_XSP16, literal(-6)))
          CFI (cfiCond19) ?RET_LOW load(1, XDATA, add(CFA_XSP16, literal(-5)))
          CFI (cfiCond19) ?RET_HIGH load(1, XDATA, add(CFA_XSP16, literal(-4)))
          CFI (cfiCond19) ?BRET_EXT load(1, XDATA, add(CFA_XSP16, literal(-3)))
          CFI (cfiCond19) DPL0 load(1, XDATA, add(CFA_XSP16, literal(-2)))
          CFI (cfiCond19) DPH0 load(1, XDATA, add(CFA_XSP16, literal(-1)))
          CFI (cfiCond19) CFA_SP SP+0
          CFI (cfiCond19) CFA_XSP16 add(XSP16, 12)
          CFI Block cfiCond20 Using cfiCommon0
          CFI (cfiCond20) Function MT_ZllNotifyTL
          CFI (cfiCond20) Conditional ??CrossCallReturnLabel_11, ??CrossCallReturnLabel_3
          CFI (cfiCond20) R6 load(1, XDATA, add(CFA_XSP16, literal(-12)))
          CFI (cfiCond20) VB load(1, XDATA, add(CFA_XSP16, literal(-11)))
          CFI (cfiCond20) V0 load(1, XDATA, add(CFA_XSP16, literal(-10)))
          CFI (cfiCond20) V1 load(1, XDATA, add(CFA_XSP16, literal(-9)))
          CFI (cfiCond20) V2 load(1, XDATA, add(CFA_XSP16, literal(-8)))
          CFI (cfiCond20) V3 load(1, XDATA, add(CFA_XSP16, literal(-7)))
          CFI (cfiCond20) R7 load(1, XDATA, add(CFA_XSP16, literal(-6)))
          CFI (cfiCond20) ?RET_LOW load(1, XDATA, add(CFA_XSP16, literal(-5)))
          CFI (cfiCond20) ?RET_HIGH load(1, XDATA, add(CFA_XSP16, literal(-4)))
          CFI (cfiCond20) ?BRET_EXT load(1, XDATA, add(CFA_XSP16, literal(-3)))
          CFI (cfiCond20) DPL0 load(1, XDATA, add(CFA_XSP16, literal(-2)))
          CFI (cfiCond20) DPH0 load(1, XDATA, add(CFA_XSP16, literal(-1)))
          CFI (cfiCond20) CFA_SP SP+0
          CFI (cfiCond20) CFA_XSP16 add(XSP16, 12)
          CFI Block cfiCond21 Using cfiCommon0
          CFI (cfiCond21) Function MT_ZllNotifyTL
          CFI (cfiCond21) Conditional ??CrossCallReturnLabel_13, ??CrossCallReturnLabel_8
          CFI (cfiCond21) R6 load(1, XDATA, add(CFA_XSP16, literal(-12)))
          CFI (cfiCond21) VB load(1, XDATA, add(CFA_XSP16, literal(-11)))
          CFI (cfiCond21) V0 load(1, XDATA, add(CFA_XSP16, literal(-10)))
          CFI (cfiCond21) V1 load(1, XDATA, add(CFA_XSP16, literal(-9)))
          CFI (cfiCond21) V2 load(1, XDATA, add(CFA_XSP16, literal(-8)))
          CFI (cfiCond21) V3 load(1, XDATA, add(CFA_XSP16, literal(-7)))
          CFI (cfiCond21) R7 load(1, XDATA, add(CFA_XSP16, literal(-6)))
          CFI (cfiCond21) ?RET_LOW load(1, XDATA, add(CFA_XSP16, literal(-5)))
          CFI (cfiCond21) ?RET_HIGH load(1, XDATA, add(CFA_XSP16, literal(-4)))
          CFI (cfiCond21) ?BRET_EXT load(1, XDATA, add(CFA_XSP16, literal(-3)))
          CFI (cfiCond21) DPL0 load(1, XDATA, add(CFA_XSP16, literal(-2)))
          CFI (cfiCond21) DPH0 load(1, XDATA, add(CFA_XSP16, literal(-1)))
          CFI (cfiCond21) CFA_SP SP+0
          CFI (cfiCond21) CFA_XSP16 add(XSP16, 12)
          CFI Block cfiCond22 Using cfiCommon0
          CFI (cfiCond22) Function MT_ZllNotifyTL
          CFI (cfiCond22) Conditional ??CrossCallReturnLabel_13, ??CrossCallReturnLabel_9
          CFI (cfiCond22) R6 load(1, XDATA, add(CFA_XSP16, literal(-12)))
          CFI (cfiCond22) VB load(1, XDATA, add(CFA_XSP16, literal(-11)))
          CFI (cfiCond22) V0 load(1, XDATA, add(CFA_XSP16, literal(-10)))
          CFI (cfiCond22) V1 load(1, XDATA, add(CFA_XSP16, literal(-9)))
          CFI (cfiCond22) V2 load(1, XDATA, add(CFA_XSP16, literal(-8)))
          CFI (cfiCond22) V3 load(1, XDATA, add(CFA_XSP16, literal(-7)))
          CFI (cfiCond22) R7 load(1, XDATA, add(CFA_XSP16, literal(-6)))
          CFI (cfiCond22) ?RET_LOW load(1, XDATA, add(CFA_XSP16, literal(-5)))
          CFI (cfiCond22) ?RET_HIGH load(1, XDATA, add(CFA_XSP16, literal(-4)))
          CFI (cfiCond22) ?BRET_EXT load(1, XDATA, add(CFA_XSP16, literal(-3)))
          CFI (cfiCond22) DPL0 load(1, XDATA, add(CFA_XSP16, literal(-2)))
          CFI (cfiCond22) DPH0 load(1, XDATA, add(CFA_XSP16, literal(-1)))
          CFI (cfiCond22) CFA_SP SP+0
          CFI (cfiCond22) CFA_XSP16 add(XSP16, 12)
          CFI Block cfiCond23 Using cfiCommon0
          CFI (cfiCond23) Function MT_ZllNotifyTL
          CFI (cfiCond23) Conditional ??CrossCallReturnLabel_13, ??CrossCallReturnLabel_7
          CFI (cfiCond23) R6 load(1, XDATA, add(CFA_XSP16, literal(-12)))
          CFI (cfiCond23) VB load(1, XDATA, add(CFA_XSP16, literal(-11)))
          CFI (cfiCond23) V0 load(1, XDATA, add(CFA_XSP16, literal(-10)))
          CFI (cfiCond23) V1 load(1, XDATA, add(CFA_XSP16, literal(-9)))
          CFI (cfiCond23) V2 load(1, XDATA, add(CFA_XSP16, literal(-8)))
          CFI (cfiCond23) V3 load(1, XDATA, add(CFA_XSP16, literal(-7)))
          CFI (cfiCond23) R7 load(1, XDATA, add(CFA_XSP16, literal(-6)))
          CFI (cfiCond23) ?RET_LOW load(1, XDATA, add(CFA_XSP16, literal(-5)))
          CFI (cfiCond23) ?RET_HIGH load(1, XDATA, add(CFA_XSP16, literal(-4)))
          CFI (cfiCond23) ?BRET_EXT load(1, XDATA, add(CFA_XSP16, literal(-3)))
          CFI (cfiCond23) DPL0 load(1, XDATA, add(CFA_XSP16, literal(-2)))
          CFI (cfiCond23) DPH0 load(1, XDATA, add(CFA_XSP16, literal(-1)))
          CFI (cfiCond23) CFA_SP SP+0
          CFI (cfiCond23) CFA_XSP16 add(XSP16, 12)
          CFI Block cfiCond24 Using cfiCommon0
          CFI (cfiCond24) Function MT_ZllNotifyTL
          CFI (cfiCond24) Conditional ??CrossCallReturnLabel_12, ??CrossCallReturnLabel_0
          CFI (cfiCond24) R6 load(1, XDATA, add(CFA_XSP16, literal(-12)))
          CFI (cfiCond24) VB load(1, XDATA, add(CFA_XSP16, literal(-11)))
          CFI (cfiCond24) V0 load(1, XDATA, add(CFA_XSP16, literal(-10)))
          CFI (cfiCond24) V1 load(1, XDATA, add(CFA_XSP16, literal(-9)))
          CFI (cfiCond24) V2 load(1, XDATA, add(CFA_XSP16, literal(-8)))
          CFI (cfiCond24) V3 load(1, XDATA, add(CFA_XSP16, literal(-7)))
          CFI (cfiCond24) R7 load(1, XDATA, add(CFA_XSP16, literal(-6)))
          CFI (cfiCond24) ?RET_LOW load(1, XDATA, add(CFA_XSP16, literal(-5)))
          CFI (cfiCond24) ?RET_HIGH load(1, XDATA, add(CFA_XSP16, literal(-4)))
          CFI (cfiCond24) ?BRET_EXT load(1, XDATA, add(CFA_XSP16, literal(-3)))
          CFI (cfiCond24) DPL0 load(1, XDATA, add(CFA_XSP16, literal(-2)))
          CFI (cfiCond24) DPH0 load(1, XDATA, add(CFA_XSP16, literal(-1)))
          CFI (cfiCond24) CFA_SP SP+0
          CFI (cfiCond24) CFA_XSP16 add(XSP16, 12)
          CFI Block cfiCond25 Using cfiCommon0
          CFI (cfiCond25) Function MT_ZllNotifyTL
          CFI (cfiCond25) Conditional ??CrossCallReturnLabel_12, ??CrossCallReturnLabel_1
          CFI (cfiCond25) R6 load(1, XDATA, add(CFA_XSP16, literal(-12)))
          CFI (cfiCond25) VB load(1, XDATA, add(CFA_XSP16, literal(-11)))
          CFI (cfiCond25) V0 load(1, XDATA, add(CFA_XSP16, literal(-10)))
          CFI (cfiCond25) V1 load(1, XDATA, add(CFA_XSP16, literal(-9)))
          CFI (cfiCond25) V2 load(1, XDATA, add(CFA_XSP16, literal(-8)))
          CFI (cfiCond25) V3 load(1, XDATA, add(CFA_XSP16, literal(-7)))
          CFI (cfiCond25) R7 load(1, XDATA, add(CFA_XSP16, literal(-6)))
          CFI (cfiCond25) ?RET_LOW load(1, XDATA, add(CFA_XSP16, literal(-5)))
          CFI (cfiCond25) ?RET_HIGH load(1, XDATA, add(CFA_XSP16, literal(-4)))
          CFI (cfiCond25) ?BRET_EXT load(1, XDATA, add(CFA_XSP16, literal(-3)))
          CFI (cfiCond25) DPL0 load(1, XDATA, add(CFA_XSP16, literal(-2)))
          CFI (cfiCond25) DPH0 load(1, XDATA, add(CFA_XSP16, literal(-1)))
          CFI (cfiCond25) CFA_SP SP+0
          CFI (cfiCond25) CFA_XSP16 add(XSP16, 12)
          CFI Block cfiPicker26 Using cfiCommon1
          CFI (cfiPicker26) NoFunction
          CFI (cfiPicker26) Picker
        MOVX    A,@DPTR
        MOV     DPL,R6
        MOV     DPH,R7
        RET
          CFI EndBlock cfiCond18
          CFI EndBlock cfiCond19
          CFI EndBlock cfiCond20
          CFI EndBlock cfiCond21
          CFI EndBlock cfiCond22
          CFI EndBlock cfiCond23
          CFI EndBlock cfiCond24
          CFI EndBlock cfiCond25
          CFI EndBlock cfiPicker26

        RSEG BANKED_CODE:CODE:NOROOT(0)
?Subroutine2:
          CFI Block cfiCond27 Using cfiCommon0
          CFI Function MT_ZllNotifyTL
          CFI Conditional ??CrossCallReturnLabel_2
          CFI R6 load(1, XDATA, add(CFA_XSP16, literal(-12)))
          CFI VB load(1, XDATA, add(CFA_XSP16, literal(-11)))
          CFI V0 load(1, XDATA, add(CFA_XSP16, literal(-10)))
          CFI V1 load(1, XDATA, add(CFA_XSP16, literal(-9)))
          CFI V2 load(1, XDATA, add(CFA_XSP16, literal(-8)))
          CFI V3 load(1, XDATA, add(CFA_XSP16, literal(-7)))
          CFI R7 load(1, XDATA, add(CFA_XSP16, literal(-6)))
          CFI ?RET_LOW load(1, XDATA, add(CFA_XSP16, literal(-5)))
          CFI ?RET_HIGH load(1, XDATA, add(CFA_XSP16, literal(-4)))
          CFI ?BRET_EXT load(1, XDATA, add(CFA_XSP16, literal(-3)))
          CFI DPL0 load(1, XDATA, add(CFA_XSP16, literal(-2)))
          CFI DPH0 load(1, XDATA, add(CFA_XSP16, literal(-1)))
          CFI CFA_SP SP+0
          CFI CFA_XSP16 add(XSP16, 12)
          CFI Block cfiCond28 Using cfiCommon0
          CFI (cfiCond28) Function MT_ZllNotifyTL
          CFI (cfiCond28) Conditional ??CrossCallReturnLabel_3
          CFI (cfiCond28) R6 load(1, XDATA, add(CFA_XSP16, literal(-12)))
          CFI (cfiCond28) VB load(1, XDATA, add(CFA_XSP16, literal(-11)))
          CFI (cfiCond28) V0 load(1, XDATA, add(CFA_XSP16, literal(-10)))
          CFI (cfiCond28) V1 load(1, XDATA, add(CFA_XSP16, literal(-9)))
          CFI (cfiCond28) V2 load(1, XDATA, add(CFA_XSP16, literal(-8)))
          CFI (cfiCond28) V3 load(1, XDATA, add(CFA_XSP16, literal(-7)))
          CFI (cfiCond28) R7 load(1, XDATA, add(CFA_XSP16, literal(-6)))
          CFI (cfiCond28) ?RET_LOW load(1, XDATA, add(CFA_XSP16, literal(-5)))
          CFI (cfiCond28) ?RET_HIGH load(1, XDATA, add(CFA_XSP16, literal(-4)))
          CFI (cfiCond28) ?BRET_EXT load(1, XDATA, add(CFA_XSP16, literal(-3)))
          CFI (cfiCond28) DPL0 load(1, XDATA, add(CFA_XSP16, literal(-2)))
          CFI (cfiCond28) DPH0 load(1, XDATA, add(CFA_XSP16, literal(-1)))
          CFI (cfiCond28) CFA_SP SP+0
          CFI (cfiCond28) CFA_XSP16 add(XSP16, 12)
          CFI Block cfiPicker29 Using cfiCommon1
          CFI (cfiPicker29) NoFunction
          CFI (cfiPicker29) Picker
        MOV     R0,A
        MOV     A,?V0 + 1
        ADDC    A,#0x0
        MOV     R1,A
        MOV     DPL,R0
        MOV     DPH,R1
        LCALL   ??Subroutine7_0 & 0xFFFF
??CrossCallReturnLabel_11:
        RET
          CFI EndBlock cfiCond27
          CFI EndBlock cfiCond28
          CFI EndBlock cfiPicker29

        RSEG BANKED_CODE:CODE:NOROOT(0)
?Subroutine1:
          CFI Block cfiCond30 Using cfiCommon0
          CFI Function MT_ZllNotifyTL
          CFI Conditional ??CrossCallReturnLabel_0
          CFI R6 load(1, XDATA, add(CFA_XSP16, literal(-12)))
          CFI VB load(1, XDATA, add(CFA_XSP16, literal(-11)))
          CFI V0 load(1, XDATA, add(CFA_XSP16, literal(-10)))
          CFI V1 load(1, XDATA, add(CFA_XSP16, literal(-9)))
          CFI V2 load(1, XDATA, add(CFA_XSP16, literal(-8)))
          CFI V3 load(1, XDATA, add(CFA_XSP16, literal(-7)))
          CFI R7 load(1, XDATA, add(CFA_XSP16, literal(-6)))
          CFI ?RET_LOW load(1, XDATA, add(CFA_XSP16, literal(-5)))
          CFI ?RET_HIGH load(1, XDATA, add(CFA_XSP16, literal(-4)))
          CFI ?BRET_EXT load(1, XDATA, add(CFA_XSP16, literal(-3)))
          CFI DPL0 load(1, XDATA, add(CFA_XSP16, literal(-2)))
          CFI DPH0 load(1, XDATA, add(CFA_XSP16, literal(-1)))
          CFI CFA_SP SP+0
          CFI CFA_XSP16 add(XSP16, 12)
          CFI Block cfiCond31 Using cfiCommon0
          CFI (cfiCond31) Function MT_ZllNotifyTL
          CFI (cfiCond31) Conditional ??CrossCallReturnLabel_1
          CFI (cfiCond31) R6 load(1, XDATA, add(CFA_XSP16, literal(-12)))
          CFI (cfiCond31) VB load(1, XDATA, add(CFA_XSP16, literal(-11)))
          CFI (cfiCond31) V0 load(1, XDATA, add(CFA_XSP16, literal(-10)))
          CFI (cfiCond31) V1 load(1, XDATA, add(CFA_XSP16, literal(-9)))
          CFI (cfiCond31) V2 load(1, XDATA, add(CFA_XSP16, literal(-8)))
          CFI (cfiCond31) V3 load(1, XDATA, add(CFA_XSP16, literal(-7)))
          CFI (cfiCond31) R7 load(1, XDATA, add(CFA_XSP16, literal(-6)))
          CFI (cfiCond31) ?RET_LOW load(1, XDATA, add(CFA_XSP16, literal(-5)))
          CFI (cfiCond31) ?RET_HIGH load(1, XDATA, add(CFA_XSP16, literal(-4)))
          CFI (cfiCond31) ?BRET_EXT load(1, XDATA, add(CFA_XSP16, literal(-3)))
          CFI (cfiCond31) DPL0 load(1, XDATA, add(CFA_XSP16, literal(-2)))
          CFI (cfiCond31) DPH0 load(1, XDATA, add(CFA_XSP16, literal(-1)))
          CFI (cfiCond31) CFA_SP SP+0
          CFI (cfiCond31) CFA_XSP16 add(XSP16, 12)
          CFI Block cfiPicker32 Using cfiCommon1
          CFI (cfiPicker32) NoFunction
          CFI (cfiPicker32) Picker
        INC     DPTR
        INC     DPTR
        INC     DPTR
        MOVX    @DPTR,A
        MOV     DPL,R0
        MOV     DPH,R1
        LCALL   ?Subroutine5 & 0xFFFF
??CrossCallReturnLabel_12:
        INC     DPTR
        INC     DPTR
        INC     DPTR
        INC     DPTR
        RET
          CFI EndBlock cfiCond30
          CFI EndBlock cfiCond31
          CFI EndBlock cfiPicker32
//   92 
//   93 /*********************************************************************
//   94  * @fn      MT_ZllSendZCLCmd
//   95  *
//   96  * @brief   Process and send received ZCL commands over MT_APP.
//   97  *          Will be sent in Z-Tool format as APP_MSG_RESPONSE
//   98  *
//   99  * @param   appEP - The user application endpoint (original message's destination endpoint)
//  100  * @param   shortAddr - source network address
//  101  * @param   endpoint - source endpoint
//  102  * @param   clusterID
//  103  * @param   zclHdr - pointer to the received ZCL header
//  104  * @param   payloadLen - length of payload
//  105  * @param   pPayload - pointer to the payload buffer
//  106  *
//  107  * @return  none
//  108  */

        RSEG BANKED_CODE:CODE:NOROOT(0)
//  109 void MT_ZllSendZCLCmd( uint8 appEP, uint16 shortAddr, uint8 endpoint, uint16 clusterID,
MT_ZllSendZCLCmd:
          CFI Block cfiBlock33 Using cfiCommon0
          CFI Function MT_ZllSendZCLCmd
        CODE
//  110                             zclFrameHdr_t *pZclHdr, uint8 payloadLen, uint8 *pPayload )
//  111 {
        FUNCALL MT_ZllSendZCLCmd, osal_mem_alloc
        LOCFRAME ISTACK, 0, STACK
        LOCFRAME PSTACK, 0, STACK
        LOCFRAME XSTACK, 22, STACK
        LOCFRAME IOVERLAY, 0, STATIC
        LOCFRAME DOVERLAY, 0, STATIC
        ARGFRAME ISTACK, 0, STACK
        ARGFRAME PSTACK, 0, STACK
        ARGFRAME XSTACK, 22, STACK
        ARGFRAME IOVERLAY, 0, STATIC
        ARGFRAME DOVERLAY, 0, STATIC
        FUNCALL MT_ZllSendZCLCmd, osal_memcpy
        LOCFRAME ISTACK, 0, STACK
        LOCFRAME PSTACK, 0, STACK
        LOCFRAME XSTACK, 25, STACK
        LOCFRAME IOVERLAY, 0, STATIC
        LOCFRAME DOVERLAY, 0, STATIC
        ARGFRAME ISTACK, 0, STACK
        ARGFRAME PSTACK, 0, STACK
        ARGFRAME XSTACK, 25, STACK
        ARGFRAME IOVERLAY, 0, STATIC
        ARGFRAME DOVERLAY, 0, STATIC
        FUNCALL MT_ZllSendZCLCmd, MT_BuildAndSendZToolResponse
        LOCFRAME ISTACK, 0, STACK
        LOCFRAME PSTACK, 0, STACK
        LOCFRAME XSTACK, 22, STACK
        LOCFRAME IOVERLAY, 0, STATIC
        LOCFRAME DOVERLAY, 0, STATIC
        ARGFRAME ISTACK, 0, STACK
        ARGFRAME PSTACK, 0, STACK
        ARGFRAME XSTACK, 22, STACK
        ARGFRAME IOVERLAY, 0, STATIC
        ARGFRAME DOVERLAY, 0, STATIC
        FUNCALL MT_ZllSendZCLCmd, osal_mem_free
        LOCFRAME ISTACK, 0, STACK
        LOCFRAME PSTACK, 0, STACK
        LOCFRAME XSTACK, 22, STACK
        LOCFRAME IOVERLAY, 0, STATIC
        LOCFRAME DOVERLAY, 0, STATIC
        ARGFRAME ISTACK, 0, STACK
        ARGFRAME PSTACK, 0, STACK
        ARGFRAME XSTACK, 22, STACK
        ARGFRAME IOVERLAY, 0, STATIC
        ARGFRAME DOVERLAY, 0, STATIC
        MOV     A,#-0x15
        LCALL   ?BANKED_ENTER_XDATA
          CFI DPH0 load(1, XDATA, add(CFA_XSP16, literal(-1)))
          CFI DPL0 load(1, XDATA, add(CFA_XSP16, literal(-2)))
          CFI ?BRET_EXT load(1, XDATA, add(CFA_XSP16, literal(-3)))
          CFI ?RET_HIGH load(1, XDATA, add(CFA_XSP16, literal(-4)))
          CFI ?RET_LOW load(1, XDATA, add(CFA_XSP16, literal(-5)))
          CFI R7 load(1, XDATA, add(CFA_XSP16, literal(-6)))
          CFI V12 load(1, XDATA, add(CFA_XSP16, literal(-7)))
          CFI V11 load(1, XDATA, add(CFA_XSP16, literal(-8)))
          CFI V10 load(1, XDATA, add(CFA_XSP16, literal(-9)))
          CFI V9 load(1, XDATA, add(CFA_XSP16, literal(-10)))
          CFI V8 load(1, XDATA, add(CFA_XSP16, literal(-11)))
          CFI V7 load(1, XDATA, add(CFA_XSP16, literal(-12)))
          CFI V6 load(1, XDATA, add(CFA_XSP16, literal(-13)))
          CFI V5 load(1, XDATA, add(CFA_XSP16, literal(-14)))
          CFI V4 load(1, XDATA, add(CFA_XSP16, literal(-15)))
          CFI V3 load(1, XDATA, add(CFA_XSP16, literal(-16)))
          CFI V2 load(1, XDATA, add(CFA_XSP16, literal(-17)))
          CFI V1 load(1, XDATA, add(CFA_XSP16, literal(-18)))
          CFI V0 load(1, XDATA, add(CFA_XSP16, literal(-19)))
          CFI VB load(1, XDATA, add(CFA_XSP16, literal(-20)))
          CFI R6 load(1, XDATA, add(CFA_XSP16, literal(-21)))
          CFI CFA_SP SP+0
          CFI CFA_XSP16 add(XSP16, 21)
        ; Saved register size: 21
        ; Auto size: 1
        MOV     A,#-0x1
        LCALL   ?ALLOC_XSTACK8
          CFI CFA_XSP16 add(XSP16, 22)
        MOV     ?V0 + 12,R1
        MOV     ?V0 + 4,R2
        MOV     ?V0 + 5,R3
        MOV     ?V0 + 7,R4
        MOV     A,R5
        MOV     R6,A
        MOV     A,#0x1a
        LCALL   ?XSTACK_DISP0_8
        MOVX    A,@DPTR
        MOV     ?V0 + 8,A
        INC     DPTR
        MOVX    A,@DPTR
        MOV     ?V0 + 9,A
        MOV     A,#0x18
        LCALL   ?XSTACK_DISP0_8
        MOVX    A,@DPTR
        MOV     ?V0 + 2,A
        INC     DPTR
        MOVX    A,@DPTR
        MOV     ?V0 + 3,A
//  112   uint8 *msg;
//  113   uint8 *pBuf;
//  114   uint8 len;
//  115   uint8 zclHdrLen;
//  116 
//  117   zclHdrLen = ( pZclHdr->fc.manuSpecific ? 5 : 3 );
        MOV     DPL,?V0 + 2
        MOV     DPH,A
        MOVX    A,@DPTR
        ANL     A,#0x4
        MOV     DPL,?XSP + 0
        MOV     DPH,?XSP + 1
        JZ      ??MT_ZllSendZCLCmd_0
        MOV     A,#0x5
        SJMP    ??MT_ZllSendZCLCmd_1
??MT_ZllSendZCLCmd_0:
        MOV     A,#0x3
??MT_ZllSendZCLCmd_1:
        MOVX    @DPTR,A
//  118   // prepend srcAddr, endpoint, cluster ID, and data length
//  119   len =   sizeof ( uint8 )      // this endpoint
//  120         + sizeof ( uint16 )     // srcAddr (low byte first)
//  121         + sizeof ( uint8 )      // source endpoint
//  122         + sizeof ( uint16 )     // cluster ID (low byte first)
//  123         + sizeof ( uint8 )      // data length
//  124         + zclHdrLen             // ZCL header
//  125         + payloadLen;
        MOVX    A,@DPTR
        ADD     A,R6
        MOV     ?V0 + 6,A
        MOV     A,#0x7
        ADD     A,?V0 + 6
        MOV     R7,A
//  126 
//  127   msg = osal_mem_alloc( len );
        ; Setup parameters for call to function osal_mem_alloc
        MOV     R2,A
        MOV     R3,#0x0
        LCALL   ??osal_mem_alloc?relay
        MOV     ?V0 + 0,R2
        MOV     ?V0 + 1,R3
//  128   if ( msg != NULL )
        MOV     A,R2
        ORL     A,?V0 + 1
        JNZ     $+5
        LJMP    ??MT_ZllSendZCLCmd_2 & 0xFFFF
//  129   {
//  130     pBuf = msg;
//  131     *pBuf++ = appEP;
        MOV     DPL,R2
        MOV     DPH,R3
        MOV     A,?V0 + 12
        MOVX    @DPTR,A
        INC     DPTR
//  132     *pBuf++ = LO_UINT16( shortAddr );
        MOV     A,?V0 + 4
        MOVX    @DPTR,A
        INC     DPTR
//  133     *pBuf++ = HI_UINT16( shortAddr );
        MOV     A,?V0 + 5
        MOVX    @DPTR,A
        INC     DPTR
//  134     *pBuf++ = endpoint;
        MOV     A,?V0 + 7
        MOVX    @DPTR,A
        INC     DPTR
        MOV     R2,DPL
        MOV     R3,DPH
        MOV     A,#0x16
        LCALL   ?XSTACK_DISP0_8
        MOVX    A,@DPTR
        MOV     R0,A
        INC     DPTR
        MOVX    A,@DPTR
        MOV     R1,A
//  135     *pBuf++ = LO_UINT16( clusterID );
        MOV     A,R0
        MOV     DPL,R2
        MOV     DPH,R3
        MOVX    @DPTR,A
        INC     DPTR
//  136     *pBuf++ = HI_UINT16( clusterID );
        MOV     A,R1
        MOVX    @DPTR,A
        INC     DPTR
//  137     *pBuf++ = zclHdrLen + payloadLen;
        MOV     A,?V0 + 6
        MOVX    @DPTR,A
        INC     DPTR
        INC     R2
        INC     R2
        INC     R2
        MOV     R3,DPH
//  138 
//  139     // zclBuildHdr( pZclHdr, pBuf );
//  140     *pBuf++ = ( pZclHdr->fc.type
//  141                 | ( pZclHdr->fc.manuSpecific << 2 )
//  142                 | ( pZclHdr->fc.direction << 3 )
//  143                 | ( pZclHdr->fc.disableDefaultRsp << 4 ) );
        MOV     DPL,?V0 + 2
        MOV     DPH,?V0 + 3
        MOVX    A,@DPTR
        ANL     A,#0x1f
        MOV     DPL,R2
        MOV     DPH,R3
        MOVX    @DPTR,A
        INC     DPTR
        INC     R2
        MOV     R3,DPH
//  144     if ( pZclHdr->fc.manuSpecific )
        MOV     DPL,?V0 + 2
        MOV     DPH,?V0 + 3
        MOVX    A,@DPTR
        ANL     A,#0x4
        JZ      ??CrossCallReturnLabel_15
//  145     {
//  146       *pBuf++ = LO_UINT16( pZclHdr->manuCode );
        MOV     A,?V0 + 2
        ADD     A,#0x2
        MOV     R0,A
        MOV     A,?V0 + 3
        ADDC    A,#0x0
        MOV     R1,A
        MOV     DPL,R0
        MOV     DPH,R1
        LCALL   ??Subroutine8_0 & 0xFFFF
//  147       *pBuf++ = HI_UINT16( pZclHdr->manuCode );
??CrossCallReturnLabel_14:
        MOV     DPL,R0
        MOV     DPH,R1
        LCALL   ?Subroutine0 & 0xFFFF
//  148     }
//  149     *pBuf++ = pZclHdr->transSeqNum;
??CrossCallReturnLabel_15:
        MOV     DPL,?V0 + 2
        MOV     DPH,?V0 + 3
        INC     DPTR
        INC     DPTR
        INC     DPTR
        INC     DPTR
        MOVX    A,@DPTR
        MOV     DPL,R2
        MOV     DPH,R3
        MOVX    @DPTR,A
        INC     DPTR
        MOV     R2,DPL
        MOV     R3,DPH
//  150     *pBuf++ = pZclHdr->commandID;
        MOV     DPL,?V0 + 2
        MOV     DPH,?V0 + 3
        INC     DPTR
        INC     DPTR
        INC     DPTR
        INC     DPTR
        LCALL   ?Subroutine0 & 0xFFFF
//  151 
//  152     if ( payloadLen )
??CrossCallReturnLabel_16:
        MOV     A,R6
        JZ      ??MT_ZllSendZCLCmd_3
//  153     {
//  154       osal_memcpy( pBuf, pPayload, payloadLen );
        ; Setup parameters for call to function osal_memcpy
        MOV     ?V0 + 4,?V0 + 8
        MOV     ?V0 + 5,?V0 + 9
        MOV     ?V0 + 6,#0x0
        MOV     R0,#?V0 + 4
        LCALL   ?PUSH_XSTACK_I_THREE
          CFI CFA_XSP16 add(XSP16, 25)
        MOV     ?V0 + 2,R6
        MOV     R4,?V0 + 2
        MOV     R5,#0x0
        LCALL   ??osal_memcpy?relay
        MOV     A,#0x3
        LCALL   ?DEALLOC_XSTACK8
          CFI CFA_XSP16 add(XSP16, 22)
//  155     }
//  156 
//  157     MT_BuildAndSendZToolResponse( ((uint8)MT_RPC_CMD_SRSP | (uint8)MT_RPC_SYS_APP), MT_APP_RSP,
//  158                                   len, msg );
??MT_ZllSendZCLCmd_3:
        ; Setup parameters for call to function MT_BuildAndSendZToolResponse
        MOV     R4,?V0 + 0
        MOV     R5,?V0 + 1
        MOV     A,R7
        MOV     R3,A
        MOV     R2,#-0x80
        MOV     R1,#0x69
        LCALL   ??MT_BuildAndSendZToolResponse?relay
//  159 
//  160     osal_mem_free( msg );
        ; Setup parameters for call to function osal_mem_free
        MOV     R2,?V0 + 0
        MOV     R3,?V0 + 1
        LCALL   ??osal_mem_free?relay
//  161   }
//  162 }
??MT_ZllSendZCLCmd_2:
        MOV     A,#0x1
        LCALL   ?DEALLOC_XSTACK8
          CFI CFA_XSP16 add(XSP16, 21)
        MOV     R7,#0xd
        LJMP    ?BANKED_LEAVE_XDATA
          CFI EndBlock cfiBlock33

        RSEG BANKED_CODE:CODE:NOROOT(0)
?Subroutine0:
          CFI Block cfiCond34 Using cfiCommon0
          CFI Function MT_ZllSendZCLCmd
          CFI Conditional ??CrossCallReturnLabel_15
          CFI R6 load(1, XDATA, add(CFA_XSP16, literal(-21)))
          CFI VB load(1, XDATA, add(CFA_XSP16, literal(-20)))
          CFI V0 load(1, XDATA, add(CFA_XSP16, literal(-19)))
          CFI V1 load(1, XDATA, add(CFA_XSP16, literal(-18)))
          CFI V2 load(1, XDATA, add(CFA_XSP16, literal(-17)))
          CFI V3 load(1, XDATA, add(CFA_XSP16, literal(-16)))
          CFI V4 load(1, XDATA, add(CFA_XSP16, literal(-15)))
          CFI V5 load(1, XDATA, add(CFA_XSP16, literal(-14)))
          CFI V6 load(1, XDATA, add(CFA_XSP16, literal(-13)))
          CFI V7 load(1, XDATA, add(CFA_XSP16, literal(-12)))
          CFI V8 load(1, XDATA, add(CFA_XSP16, literal(-11)))
          CFI V9 load(1, XDATA, add(CFA_XSP16, literal(-10)))
          CFI V10 load(1, XDATA, add(CFA_XSP16, literal(-9)))
          CFI V11 load(1, XDATA, add(CFA_XSP16, literal(-8)))
          CFI V12 load(1, XDATA, add(CFA_XSP16, literal(-7)))
          CFI R7 load(1, XDATA, add(CFA_XSP16, literal(-6)))
          CFI ?RET_LOW load(1, XDATA, add(CFA_XSP16, literal(-5)))
          CFI ?RET_HIGH load(1, XDATA, add(CFA_XSP16, literal(-4)))
          CFI ?BRET_EXT load(1, XDATA, add(CFA_XSP16, literal(-3)))
          CFI DPL0 load(1, XDATA, add(CFA_XSP16, literal(-2)))
          CFI DPH0 load(1, XDATA, add(CFA_XSP16, literal(-1)))
          CFI CFA_SP SP+0
          CFI CFA_XSP16 add(XSP16, 22)
          CFI Block cfiCond35 Using cfiCommon0
          CFI (cfiCond35) Function MT_ZllSendZCLCmd
          CFI (cfiCond35) Conditional ??CrossCallReturnLabel_16
          CFI (cfiCond35) R6 load(1, XDATA, add(CFA_XSP16, literal(-21)))
          CFI (cfiCond35) VB load(1, XDATA, add(CFA_XSP16, literal(-20)))
          CFI (cfiCond35) V0 load(1, XDATA, add(CFA_XSP16, literal(-19)))
          CFI (cfiCond35) V1 load(1, XDATA, add(CFA_XSP16, literal(-18)))
          CFI (cfiCond35) V2 load(1, XDATA, add(CFA_XSP16, literal(-17)))
          CFI (cfiCond35) V3 load(1, XDATA, add(CFA_XSP16, literal(-16)))
          CFI (cfiCond35) V4 load(1, XDATA, add(CFA_XSP16, literal(-15)))
          CFI (cfiCond35) V5 load(1, XDATA, add(CFA_XSP16, literal(-14)))
          CFI (cfiCond35) V6 load(1, XDATA, add(CFA_XSP16, literal(-13)))
          CFI (cfiCond35) V7 load(1, XDATA, add(CFA_XSP16, literal(-12)))
          CFI (cfiCond35) V8 load(1, XDATA, add(CFA_XSP16, literal(-11)))
          CFI (cfiCond35) V9 load(1, XDATA, add(CFA_XSP16, literal(-10)))
          CFI (cfiCond35) V10 load(1, XDATA, add(CFA_XSP16, literal(-9)))
          CFI (cfiCond35) V11 load(1, XDATA, add(CFA_XSP16, literal(-8)))
          CFI (cfiCond35) V12 load(1, XDATA, add(CFA_XSP16, literal(-7)))
          CFI (cfiCond35) R7 load(1, XDATA, add(CFA_XSP16, literal(-6)))
          CFI (cfiCond35) ?RET_LOW load(1, XDATA, add(CFA_XSP16, literal(-5)))
          CFI (cfiCond35) ?RET_HIGH load(1, XDATA, add(CFA_XSP16, literal(-4)))
          CFI (cfiCond35) ?BRET_EXT load(1, XDATA, add(CFA_XSP16, literal(-3)))
          CFI (cfiCond35) DPL0 load(1, XDATA, add(CFA_XSP16, literal(-2)))
          CFI (cfiCond35) DPH0 load(1, XDATA, add(CFA_XSP16, literal(-1)))
          CFI (cfiCond35) CFA_SP SP+0
          CFI (cfiCond35) CFA_XSP16 add(XSP16, 22)
          CFI Block cfiPicker36 Using cfiCommon1
          CFI (cfiPicker36) NoFunction
          CFI (cfiPicker36) Picker
        INC     DPTR
          CFI EndBlock cfiCond34
          CFI EndBlock cfiCond35
          CFI EndBlock cfiPicker36
        REQUIRE ??Subroutine8_0
        ; // Fall through to label ??Subroutine8_0

        RSEG BANKED_CODE:CODE:NOROOT(0)
??Subroutine8_0:
          CFI Block cfiCond37 Using cfiCommon0
          CFI Function MT_ZllSendZCLCmd
          CFI Conditional ??CrossCallReturnLabel_14
          CFI R6 load(1, XDATA, add(CFA_XSP16, literal(-21)))
          CFI VB load(1, XDATA, add(CFA_XSP16, literal(-20)))
          CFI V0 load(1, XDATA, add(CFA_XSP16, literal(-19)))
          CFI V1 load(1, XDATA, add(CFA_XSP16, literal(-18)))
          CFI V2 load(1, XDATA, add(CFA_XSP16, literal(-17)))
          CFI V3 load(1, XDATA, add(CFA_XSP16, literal(-16)))
          CFI V4 load(1, XDATA, add(CFA_XSP16, literal(-15)))
          CFI V5 load(1, XDATA, add(CFA_XSP16, literal(-14)))
          CFI V6 load(1, XDATA, add(CFA_XSP16, literal(-13)))
          CFI V7 load(1, XDATA, add(CFA_XSP16, literal(-12)))
          CFI V8 load(1, XDATA, add(CFA_XSP16, literal(-11)))
          CFI V9 load(1, XDATA, add(CFA_XSP16, literal(-10)))
          CFI V10 load(1, XDATA, add(CFA_XSP16, literal(-9)))
          CFI V11 load(1, XDATA, add(CFA_XSP16, literal(-8)))
          CFI V12 load(1, XDATA, add(CFA_XSP16, literal(-7)))
          CFI R7 load(1, XDATA, add(CFA_XSP16, literal(-6)))
          CFI ?RET_LOW load(1, XDATA, add(CFA_XSP16, literal(-5)))
          CFI ?RET_HIGH load(1, XDATA, add(CFA_XSP16, literal(-4)))
          CFI ?BRET_EXT load(1, XDATA, add(CFA_XSP16, literal(-3)))
          CFI DPL0 load(1, XDATA, add(CFA_XSP16, literal(-2)))
          CFI DPH0 load(1, XDATA, add(CFA_XSP16, literal(-1)))
          CFI CFA_SP SP+0
          CFI CFA_XSP16 add(XSP16, 22)
          CFI Block cfiCond38 Using cfiCommon0
          CFI (cfiCond38) Function MT_ZllSendZCLCmd
          CFI (cfiCond38) Conditional ??CrossCallReturnLabel_15
          CFI (cfiCond38) R6 load(1, XDATA, add(CFA_XSP16, literal(-21)))
          CFI (cfiCond38) VB load(1, XDATA, add(CFA_XSP16, literal(-20)))
          CFI (cfiCond38) V0 load(1, XDATA, add(CFA_XSP16, literal(-19)))
          CFI (cfiCond38) V1 load(1, XDATA, add(CFA_XSP16, literal(-18)))
          CFI (cfiCond38) V2 load(1, XDATA, add(CFA_XSP16, literal(-17)))
          CFI (cfiCond38) V3 load(1, XDATA, add(CFA_XSP16, literal(-16)))
          CFI (cfiCond38) V4 load(1, XDATA, add(CFA_XSP16, literal(-15)))
          CFI (cfiCond38) V5 load(1, XDATA, add(CFA_XSP16, literal(-14)))
          CFI (cfiCond38) V6 load(1, XDATA, add(CFA_XSP16, literal(-13)))
          CFI (cfiCond38) V7 load(1, XDATA, add(CFA_XSP16, literal(-12)))
          CFI (cfiCond38) V8 load(1, XDATA, add(CFA_XSP16, literal(-11)))
          CFI (cfiCond38) V9 load(1, XDATA, add(CFA_XSP16, literal(-10)))
          CFI (cfiCond38) V10 load(1, XDATA, add(CFA_XSP16, literal(-9)))
          CFI (cfiCond38) V11 load(1, XDATA, add(CFA_XSP16, literal(-8)))
          CFI (cfiCond38) V12 load(1, XDATA, add(CFA_XSP16, literal(-7)))
          CFI (cfiCond38) R7 load(1, XDATA, add(CFA_XSP16, literal(-6)))
          CFI (cfiCond38) ?RET_LOW load(1, XDATA, add(CFA_XSP16, literal(-5)))
          CFI (cfiCond38) ?RET_HIGH load(1, XDATA, add(CFA_XSP16, literal(-4)))
          CFI (cfiCond38) ?BRET_EXT load(1, XDATA, add(CFA_XSP16, literal(-3)))
          CFI (cfiCond38) DPL0 load(1, XDATA, add(CFA_XSP16, literal(-2)))
          CFI (cfiCond38) DPH0 load(1, XDATA, add(CFA_XSP16, literal(-1)))
          CFI (cfiCond38) CFA_SP SP+0
          CFI (cfiCond38) CFA_XSP16 add(XSP16, 22)
          CFI Block cfiCond39 Using cfiCommon0
          CFI (cfiCond39) Function MT_ZllSendZCLCmd
          CFI (cfiCond39) Conditional ??CrossCallReturnLabel_16
          CFI (cfiCond39) R6 load(1, XDATA, add(CFA_XSP16, literal(-21)))
          CFI (cfiCond39) VB load(1, XDATA, add(CFA_XSP16, literal(-20)))
          CFI (cfiCond39) V0 load(1, XDATA, add(CFA_XSP16, literal(-19)))
          CFI (cfiCond39) V1 load(1, XDATA, add(CFA_XSP16, literal(-18)))
          CFI (cfiCond39) V2 load(1, XDATA, add(CFA_XSP16, literal(-17)))
          CFI (cfiCond39) V3 load(1, XDATA, add(CFA_XSP16, literal(-16)))
          CFI (cfiCond39) V4 load(1, XDATA, add(CFA_XSP16, literal(-15)))
          CFI (cfiCond39) V5 load(1, XDATA, add(CFA_XSP16, literal(-14)))
          CFI (cfiCond39) V6 load(1, XDATA, add(CFA_XSP16, literal(-13)))
          CFI (cfiCond39) V7 load(1, XDATA, add(CFA_XSP16, literal(-12)))
          CFI (cfiCond39) V8 load(1, XDATA, add(CFA_XSP16, literal(-11)))
          CFI (cfiCond39) V9 load(1, XDATA, add(CFA_XSP16, literal(-10)))
          CFI (cfiCond39) V10 load(1, XDATA, add(CFA_XSP16, literal(-9)))
          CFI (cfiCond39) V11 load(1, XDATA, add(CFA_XSP16, literal(-8)))
          CFI (cfiCond39) V12 load(1, XDATA, add(CFA_XSP16, literal(-7)))
          CFI (cfiCond39) R7 load(1, XDATA, add(CFA_XSP16, literal(-6)))
          CFI (cfiCond39) ?RET_LOW load(1, XDATA, add(CFA_XSP16, literal(-5)))
          CFI (cfiCond39) ?RET_HIGH load(1, XDATA, add(CFA_XSP16, literal(-4)))
          CFI (cfiCond39) ?BRET_EXT load(1, XDATA, add(CFA_XSP16, literal(-3)))
          CFI (cfiCond39) DPL0 load(1, XDATA, add(CFA_XSP16, literal(-2)))
          CFI (cfiCond39) DPH0 load(1, XDATA, add(CFA_XSP16, literal(-1)))
          CFI (cfiCond39) CFA_SP SP+0
          CFI (cfiCond39) CFA_XSP16 add(XSP16, 22)
          CFI Block cfiPicker40 Using cfiCommon1
          CFI (cfiPicker40) NoFunction
          CFI (cfiPicker40) Picker
        MOVX    A,@DPTR
        MOV     DPL,R2
        MOV     DPH,R3
        MOVX    @DPTR,A
        INC     DPTR
        INC     R2
        MOV     R3,DPH
        RET
          CFI EndBlock cfiCond37
          CFI EndBlock cfiCond38
          CFI EndBlock cfiCond39
          CFI EndBlock cfiPicker40

        RSEG BANK_RELAYS:CODE:REORDER:NOROOT(0)
??MT_ZllNotifyTL?relay:
        CODE
        LCALL   ?BDISPATCH
        DATA24
        DC24    MT_ZllNotifyTL

        RSEG BANK_RELAYS:CODE:REORDER:NOROOT(0)
??MT_ZllSendZCLCmd?relay:
        CODE
        LCALL   ?BDISPATCH
        DATA24
        DC24    MT_ZllSendZCLCmd

        END
//  163 
//  164 /*********************************************************************
//  165 *********************************************************************/
// 
// 477 bytes in segment BANKED_CODE
//  12 bytes in segment BANK_RELAYS
// 
// 489 bytes of CODE memory
//
//Errors: none
//Warnings: none
