///////////////////////////////////////////////////////////////////////////////
//                                                                            /
// IAR C/C++ Compiler V8.20.2.41139 for 8051            07/May/2014  17:02:25 /
// Copyright 2004-2013 IAR Systems AB.                                        /
//                                                                            /
//    Core               =  plain                                             /
//    Code model         =  banked                                            /
//    Data model         =  large                                             /
//    Calling convention =  xdata reentrant                                   /
//    Constant location  =  data_rom                                          /
//    Dptr setup         =  1,16                                              /
//                                                                            /
//    Source file        =  D:\Texas Instruments\Z-Stack Lighting             /
//                          1.0.2\Projects\zstack\ZLL\Source\zll_initiator.c  /
//    Command line       =  -f "D:\Texas Instruments\Z-Stack Lighting         /
//                          1.0.2\Projects\zstack\ZLL\SampleApp\CC253x\..\..\ /
//                          ..\Tools\CC2530DB\f8wRouter.cfg" (-DCPU32MHZ      /
//                          -DROOT=__near_func -DMAC_CFG_APP_PENDING_QUEUE=TR /
//                          UE -DMAC_CFG_TX_DATA_MAX=5 -DMAC_CFG_TX_MAX=8     /
//                          -DMAC_CFG_RX_MAX=5 -DRTR_NWK) -f "D:\Texas        /
//                          Instruments\Z-Stack Lighting                      /
//                          1.0.2\Projects\zstack\ZLL\SampleApp\CC253x\..\..\ /
//                          ..\Tools\CC2530DB\f8wConfig.cfg" (-DZIGBEEPRO     /
//                          -DSECURE=1 -DZG_SECURE_DYNAMIC=0 -DREFLECTOR      /
//                          -DDEFAULT_CHANLIST=0x00000800                     /
//                          -DZDAPP_CONFIG_PAN_ID=0xFFFF                      /
//                          -DNWK_START_DELAY=100 -DEXTENDED_JOINING_RANDOM_M /
//                          ASK=0x007F -DBEACON_REQUEST_DELAY=100             /
//                          -DBEACON_REQ_DELAY_MASK=0x00FF                    /
//                          -DLINK_STATUS_JITTER_MASK=0x007F                  /
//                          -DROUTE_EXPIRY_TIME=30 -DAPSC_ACK_WAIT_DURATION_P /
//                          OLLED=3000 -DNWK_INDIRECT_MSG_TIMEOUT=7           /
//                          -DMAX_RREQ_ENTRIES=8 -DAPSC_MAX_FRAME_RETRIES=3   /
//                          -DNWK_MAX_DATA_RETRIES=2                          /
//                          -DMAX_POLL_FAILURE_RETRIES=2 -DMAX_BCAST=9        /
//                          -DAPS_MAX_GROUPS=16 -DMAX_RTG_ENTRIES=40          /
//                          -DNWK_MAX_BINDING_ENTRIES=4                       /
//                          -DMAX_BINDING_CLUSTER_IDS=4                       /
//                          "-DDEFAULT_KEY={0x01, 0x03, 0x05, 0x07, 0x09,     /
//                          0x0B, 0x0D, 0x0F, 0x00, 0x02, 0x04, 0x06, 0x08,   /
//                          0x0A, 0x0C, 0x0D}" -DMAC_MAX_FRAME_SIZE=116       /
//                          -DZDNWKMGR_MIN_TRANSMISSIONS=20 "-DCONST=const    /
//                          __code" -DGENERIC=__generic                       /
//                          -DRFD_RCVC_ALWAYS_ON=FALSE -DPOLL_RATE=1000       /
//                          -DQUEUED_POLL_RATE=100 -DRESPONSE_POLL_RATE=100   /
//                          -DREJOIN_POLL_RATE=440) -f "D:\Texas              /
//                          Instruments\Z-Stack Lighting                      /
//                          1.0.2\Projects\zstack\ZLL\SampleApp\CC253x\..\..\ /
//                          ..\Tools\CC2530DB\f8wZCL.cfg" "D:\Texas           /
//                          Instruments\Z-Stack Lighting                      /
//                          1.0.2\Projects\zstack\ZLL\Source\zll_initiator.c" /
//                           -D FEATURE_GREEN_POWER -D SECURE=1 -D            /
//                          TC_LINKKEY_JOIN -D ZDSECMGR_TC_DEVICE_MAX=2 -D    /
//                          NV_RESTORE -D HOLD_AUTO_START -D INTER_PAN -D     /
//                          ZTOOL_P1 -D MT_TASK -D MT_APP_FUNC -D             /
//                          MT_SYS_FUNC -D MT_ZDO_FUNC -D MT_ZDO_CB_FUNC -D   /
//                          MT_UTIL_FUNC -D MT_ZDO_MGMT -D LCD_SUPPORTED -D   /
//                          HAL_LCD=FALSE -D HAL_KEY=FALSE -D ZCL_BASIC -D    /
//                          ZCL_READ -D ZCL_WRITE -D ZCL_IDENTIFY -D          /
//                          ZCL_ON_OFF -D ZCL_SCENES -D ZCL_GROUPS -D         /
//                          ZCL_LIGHT_LINK_ENHANCE -D ZCL_LEVEL_CTRL -D       /
//                          ZCL_COLOR_CTRL -D xMAX_CHANNELS_24GHZ=0x02108800  /
//                          -lC "D:\Texas Instruments\Z-Stack Lighting        /
//                          1.0.2\Projects\zstack\ZLL\SampleApp\CC253x\Bridge /
//                          EB-Pro\List\" -lA "D:\Texas Instruments\Z-Stack   /
//                          Lighting 1.0.2\Projects\zstack\ZLL\SampleApp\CC25 /
//                          3x\BridgeEB-Pro\List\" --diag_suppress            /
//                          Pe001,Pa010 -o "D:\Texas Instruments\Z-Stack      /
//                          Lighting 1.0.2\Projects\zstack\ZLL\SampleApp\CC25 /
//                          3x\BridgeEB-Pro\Obj\" -e --debug --core=plain     /
//                          --dptr=16,1 --data_model=large                    /
//                          --code_model=banked --calling_convention=xdata_re /
//                          entrant --place_constants=data_rom                /
//                          --nr_virtual_regs 16 -I "D:\Texas                 /
//                          Instruments\Z-Stack Lighting                      /
//                          1.0.2\Projects\zstack\ZLL\SampleApp\CC253x\" -I   /
//                          "D:\Texas Instruments\Z-Stack Lighting            /
//                          1.0.2\Projects\zstack\ZLL\SampleApp\CC253x\..\Sou /
//                          rce\" -I "D:\Texas Instruments\Z-Stack Lighting   /
//                          1.0.2\Projects\zstack\ZLL\SampleApp\CC253x\..\..\ /
//                          Source\" -I "D:\Texas Instruments\Z-Stack         /
//                          Lighting 1.0.2\Projects\zstack\ZLL\SampleApp\CC25 /
//                          3x\..\..\..\HomeAutomation\Source\" -I "D:\Texas  /
//                          Instruments\Z-Stack Lighting                      /
//                          1.0.2\Projects\zstack\ZLL\SampleApp\CC253x\..\..\ /
//                          ..\HomeAutomation\SampleLight\Source\" -I         /
//                          "D:\Texas Instruments\Z-Stack Lighting            /
//                          1.0.2\Projects\zstack\ZLL\SampleApp\CC253x\..\..\ /
//                          ..\ZMain\TI2530DB\" -I "D:\Texas                  /
//                          Instruments\Z-Stack Lighting                      /
//                          1.0.2\Projects\zstack\ZLL\SampleApp\CC253x\..\..\ /
//                          ..\..\..\Components\hal\include\" -I "D:\Texas    /
//                          Instruments\Z-Stack Lighting                      /
//                          1.0.2\Projects\zstack\ZLL\SampleApp\CC253x\..\..\ /
//                          ..\..\..\Components\hal\target\CC2530EB\" -I      /
//                          "D:\Texas Instruments\Z-Stack Lighting            /
//                          1.0.2\Projects\zstack\ZLL\SampleApp\CC253x\..\..\ /
//                          ..\..\..\Components\mac\include\" -I "D:\Texas    /
//                          Instruments\Z-Stack Lighting                      /
//                          1.0.2\Projects\zstack\ZLL\SampleApp\CC253x\..\..\ /
//                          ..\..\..\Components\mac\high_level\" -I           /
//                          "D:\Texas Instruments\Z-Stack Lighting            /
//                          1.0.2\Projects\zstack\ZLL\SampleApp\CC253x\..\..\ /
//                          ..\..\..\Components\mac\low_level\srf04\" -I      /
//                          "D:\Texas Instruments\Z-Stack Lighting            /
//                          1.0.2\Projects\zstack\ZLL\SampleApp\CC253x\..\..\ /
//                          ..\..\..\Components\mac\low_level\srf04\single_ch /
//                          ip\" -I "D:\Texas Instruments\Z-Stack Lighting    /
//                          1.0.2\Projects\zstack\ZLL\SampleApp\CC253x\..\..\ /
//                          ..\..\..\Components\mt\" -I "D:\Texas             /
//                          Instruments\Z-Stack Lighting                      /
//                          1.0.2\Projects\zstack\ZLL\SampleApp\CC253x\..\..\ /
//                          ..\..\..\Components\osal\include\" -I "D:\Texas   /
//                          Instruments\Z-Stack Lighting                      /
//                          1.0.2\Projects\zstack\ZLL\SampleApp\CC253x\..\..\ /
//                          ..\..\..\Components\services\saddr\" -I           /
//                          "D:\Texas Instruments\Z-Stack Lighting            /
//                          1.0.2\Projects\zstack\ZLL\SampleApp\CC253x\..\..\ /
//                          ..\..\..\Components\services\sdata\" -I           /
//                          "D:\Texas Instruments\Z-Stack Lighting            /
//                          1.0.2\Projects\zstack\ZLL\SampleApp\CC253x\..\..\ /
//                          ..\..\..\Components\stack\af\" -I "D:\Texas       /
//                          Instruments\Z-Stack Lighting                      /
//                          1.0.2\Projects\zstack\ZLL\SampleApp\CC253x\..\..\ /
//                          ..\..\..\Components\stack\nwk\" -I "D:\Texas      /
//                          Instruments\Z-Stack Lighting                      /
//                          1.0.2\Projects\zstack\ZLL\SampleApp\CC253x\..\..\ /
//                          ..\..\..\Components\stack\sapi\" -I "D:\Texas     /
//                          Instruments\Z-Stack Lighting                      /
//                          1.0.2\Projects\zstack\ZLL\SampleApp\CC253x\..\..\ /
//                          ..\..\..\Components\stack\sec\" -I "D:\Texas      /
//                          Instruments\Z-Stack Lighting                      /
//                          1.0.2\Projects\zstack\ZLL\SampleApp\CC253x\..\..\ /
//                          ..\..\..\Components\stack\sys\" -I "D:\Texas      /
//                          Instruments\Z-Stack Lighting                      /
//                          1.0.2\Projects\zstack\ZLL\SampleApp\CC253x\..\..\ /
//                          ..\..\..\Components\stack\zcl\" -I "D:\Texas      /
//                          Instruments\Z-Stack Lighting                      /
//                          1.0.2\Projects\zstack\ZLL\SampleApp\CC253x\..\..\ /
//                          ..\..\..\Components\stack\zdo\" -I "D:\Texas      /
//                          Instruments\Z-Stack Lighting                      /
//                          1.0.2\Projects\zstack\ZLL\SampleApp\CC253x\..\..\ /
//                          ..\..\..\Components\zmac\" -I "D:\Texas           /
//                          Instruments\Z-Stack Lighting                      /
//                          1.0.2\Projects\zstack\ZLL\SampleApp\CC253x\..\..\ /
//                          ..\..\..\Components\zmac\f8w\" -Ohz               /
//                          --require_prototypes                              /
//    List file          =  D:\Texas Instruments\Z-Stack Lighting             /
//                          1.0.2\Projects\zstack\ZLL\SampleApp\CC253x\Bridge /
//                          EB-Pro\List\zll_initiator.s51                     /
//                                                                            /
//                                                                            /
///////////////////////////////////////////////////////////////////////////////

        NAME zll_initiator

        RTMODEL "__SystemLibrary", "CLib"
        RTMODEL "__calling_convention", "xdata_reentrant"
        RTMODEL "__code_model", "banked"
        RTMODEL "__core", "plain"
        RTMODEL "__data_model", "large"
        RTMODEL "__dptr_size", "16"
        RTMODEL "__extended_stack", "disabled"
        RTMODEL "__location_for_constants", "data"
        RTMODEL "__number_of_dptrs", "1"
        RTMODEL "__rt_version", "1"

        RSEG DOVERLAY:DATA:NOROOT(0)
        RSEG IOVERLAY:IDATA:NOROOT(0)
        RSEG ISTACK:IDATA:NOROOT(0)
        RSEG PSTACK:XDATA:NOROOT(0)
        RSEG XSTACK:XDATA:NOROOT(0)

        EXTERN ?ALLOC_XSTACK8
        EXTERN ?BANKED_ENTER_XDATA
        EXTERN ?BANKED_LEAVE_XDATA
        EXTERN ?BDISPATCH
        EXTERN ?BRET
        EXTERN ?CALL_IND
        EXTERN ?DEALLOC_XSTACK8
        EXTERN ?L_ADD
        EXTERN ?L_MOV_TO_X
        EXTERN ?L_MOV_X
        EXTERN ?L_SHL
        EXTERN ?MOVE_LONG8_XDATA_XDATA
        EXTERN ?PUSH_XSTACK8_X_FOUR
        EXTERN ?PUSH_XSTACK8_X_TWO
        EXTERN ?PUSH_XSTACK_I_FOUR
        EXTERN ?PUSH_XSTACK_I_ONE
        EXTERN ?PUSH_XSTACK_I_THREE
        EXTERN ?PUSH_XSTACK_I_TWO
        EXTERN ?S_SHL
        EXTERN ?V0
        EXTERN ?XLOAD_R2345
        EXTERN ?XSP
        EXTERN ?XSTACK_DISP0_8
        EXTERN ?XSTORE_R2345
        EXTERN __INIT_XDATA_I
        EXTERN __INIT_XDATA_Z

        FUNCTION ??initiatorClearSelectedTarget?relay,0203H
        FUNCTION ??initiatorDeviceInfoReqCB?relay,0203H
        FUNCTION ??initiatorDeviceInfoRspCB?relay,0203H
        FUNCTION ??initiatorIdentifyReqCB?relay,0203H
        FUNCTION ??initiatorJoinNwk?relay,0203H
        FUNCTION ??initiatorNwkJoinEDRspCB?relay,0203H
        FUNCTION ??initiatorNwkJoinReqCB?relay,0203H
        FUNCTION ??initiatorNwkJoinRtrRspCB?relay,0203H
        FUNCTION ??initiatorNwkStartRspCB?relay,0203H
        FUNCTION ??initiatorNwkUpdateReqCB?relay,0203H
        FUNCTION ??initiatorReJoinNwk?relay,0203H
        FUNCTION ??initiatorResetToFNReqCB?relay,0203H
        FUNCTION ??initiatorScanReqCB?relay,0203H
        FUNCTION ??initiatorScanRspCB?relay,0203H
        PUBLIC ??initiatorSelectNwkParams?relay
        FUNCTION ??initiatorSelectNwkParams?relay,0203H
        FUNCTION ??initiatorSendNwkJoinReq?relay,0203H
        FUNCTION ??initiatorSendNwkStartReq?relay,0203H
        FUNCTION ??initiatorSendScanReq?relay,0203H
        FUNCTION ??initiatorSetNwkToInitState?relay,0203H
        FUNCTION ??initiatorZdoLeaveCnfCB?relay,0203H
        PUBLIC ??zllInitiator_AbortTL?relay
        FUNCTION ??zllInitiator_AbortTL?relay,0203H
        PUBLIC ??zllInitiator_BridgeStartNetwork?relay
        FUNCTION ??zllInitiator_BridgeStartNetwork?relay,0203H
        PUBLIC ??zllInitiator_ChannelChange?relay
        FUNCTION ??zllInitiator_ChannelChange?relay,0203H
        PUBLIC ??zllInitiator_ClassicalCommissioningStart?rela
        FUNCTION ??zllInitiator_ClassicalCommissioningStart?rela,0203H
        PUBLIC ??zllInitiator_Init?relay
        FUNCTION ??zllInitiator_Init?relay,0203H
        PUBLIC ??zllInitiator_InitDevice?relay
        FUNCTION ??zllInitiator_InitDevice?relay,0203H
        PUBLIC ??zllInitiator_OrphanedRejoin?relay
        FUNCTION ??zllInitiator_OrphanedRejoin?relay,0203H
        PUBLIC ??zllInitiator_PermitJoin?relay
        FUNCTION ??zllInitiator_PermitJoin?relay,0203H
        PUBLIC ??zllInitiator_RegisterApp?relay
        FUNCTION ??zllInitiator_RegisterApp?relay,0203H
        PUBLIC ??zllInitiator_RegisterForMsg?relay
        FUNCTION ??zllInitiator_RegisterForMsg?relay,0203H
        PUBLIC ??zllInitiator_RegisterIdentifyCB?relay
        FUNCTION ??zllInitiator_RegisterIdentifyCB?relay,0203H
        PUBLIC ??zllInitiator_RegisterNotifyTLCB?relay
        FUNCTION ??zllInitiator_RegisterNotifyTLCB?relay,0203H
        PUBLIC ??zllInitiator_RegisterResetAppCB?relay
        FUNCTION ??zllInitiator_RegisterResetAppCB?relay,0203H
        PUBLIC ??zllInitiator_RegisterSelectDiscDevCB?relay
        FUNCTION ??zllInitiator_RegisterSelectDiscDevCB?relay,0203H
        PUBLIC ??zllInitiator_ResetToFNSelectedTarget?relay
        FUNCTION ??zllInitiator_ResetToFNSelectedTarget?relay,0203H
        PUBLIC ??zllInitiator_ResetToFactoryNew?relay
        FUNCTION ??zllInitiator_ResetToFactoryNew?relay,0203H
        PUBLIC ??zllInitiator_SendEPInfo?relay
        FUNCTION ??zllInitiator_SendEPInfo?relay,0203H
        PUBLIC ??zllInitiator_StartDevDisc?relay
        FUNCTION ??zllInitiator_StartDevDisc?relay,0203H
        PUBLIC ??zllInitiator_event_loop?relay
        FUNCTION ??zllInitiator_event_loop?relay,0203H
        PUBWEAK __Constant_0
        PUBWEAK __Constant_1388
        PUBWEAK __Constant_1d4c
        PUBWEAK __Constant_1f4
        PUBWEAK __Constant_1f40
        PUBWEAK __Constant_7d0
        PUBWEAK __Constant_fa
        FUNCTION initiatorClearSelectedTarget,021203H
        ARGFRAME XSTACK, 52, STACK
        ARGFRAME IOVERLAY, 0, STATIC
        ARGFRAME DOVERLAY, 0, STATIC
        LOCFRAME ISTACK, 2, STACK
        FUNCTION initiatorDeviceInfoReqCB,021603H
        ARGFRAME XSTACK, 0, STACK
        LOCFRAME XSTACK, 15, STACK
        FUNCTION initiatorDeviceInfoRspCB,021603H
        ARGFRAME XSTACK, 0, STACK
        LOCFRAME ISTACK, 2, STACK
        LOCFRAME XSTACK, 52, STACK
        FUNCTION initiatorIdentifyReqCB,021603H
        ARGFRAME XSTACK, 0, STACK
        LOCFRAME XSTACK, 14, STACK
        FUNCTION initiatorJoinNwk,021203H
        ARGFRAME XSTACK, 30, STACK
        ARGFRAME IOVERLAY, 0, STATIC
        ARGFRAME DOVERLAY, 0, STATIC
        LOCFRAME ISTACK, 2, STACK
        FUNCTION initiatorNwkJoinEDRspCB,021603H
        ARGFRAME XSTACK, 0, STACK
        LOCFRAME XSTACK, 13, STACK
        FUNCTION initiatorNwkJoinReqCB,021603H
        ARGFRAME XSTACK, 0, STACK
        LOCFRAME ISTACK, 2, STACK
        LOCFRAME XSTACK, 30, STACK
        FUNCTION initiatorNwkJoinRtrRspCB,021603H
        ARGFRAME XSTACK, 0, STACK
        LOCFRAME XSTACK, 13, STACK
        FUNCTION initiatorNwkStartRspCB,021603H
        ARGFRAME XSTACK, 0, STACK
        LOCFRAME XSTACK, 13, STACK
        FUNCTION initiatorNwkUpdateReqCB,021603H
        ARGFRAME XSTACK, 0, STACK
        LOCFRAME XSTACK, 10, STACK
        FUNCTION initiatorReJoinNwk,021203H
        ARGFRAME XSTACK, 30, STACK
        ARGFRAME IOVERLAY, 0, STATIC
        ARGFRAME DOVERLAY, 0, STATIC
        LOCFRAME XSTACK, 9, STACK
        FUNCTION initiatorResetToFNReqCB,021603H
        ARGFRAME XSTACK, 0, STACK
        LOCFRAME ISTACK, 2, STACK
        FUNCTION initiatorScanReqCB,021603H
        ARGFRAME XSTACK, 0, STACK
        LOCFRAME XSTACK, 35, STACK
        FUNCTION initiatorScanRspCB,021603H
        ARGFRAME XSTACK, 0, STACK
        LOCFRAME XSTACK, 18, STACK
        PUBLIC initiatorSelectNwkParams
        FUNCTION initiatorSelectNwkParams,021203H
        ARGFRAME XSTACK, 0, STACK
        ARGFRAME IOVERLAY, 0, STATIC
        ARGFRAME DOVERLAY, 0, STATIC
        LOCFRAME ISTACK, 2, STACK
        LOCFRAME XSTACK, 9, STACK
        FUNCTION initiatorSendNwkJoinReq,021203H
        ARGFRAME XSTACK, 30, STACK
        ARGFRAME IOVERLAY, 0, STATIC
        ARGFRAME DOVERLAY, 0, STATIC
        LOCFRAME ISTACK, 1, STACK
        LOCFRAME XSTACK, 22, STACK
        FUNCTION initiatorSendNwkStartReq,021203H
        ARGFRAME XSTACK, 30, STACK
        ARGFRAME IOVERLAY, 0, STATIC
        ARGFRAME DOVERLAY, 0, STATIC
        LOCFRAME ISTACK, 1, STACK
        LOCFRAME XSTACK, 28, STACK
        FUNCTION initiatorSendScanReq,021203H
        ARGFRAME XSTACK, 30, STACK
        ARGFRAME IOVERLAY, 0, STATIC
        ARGFRAME DOVERLAY, 0, STATIC
        LOCFRAME ISTACK, 2, STACK
        LOCFRAME XSTACK, 36, STACK
        FUNCTION initiatorSetNwkToInitState,021203H
        ARGFRAME XSTACK, 30, STACK
        ARGFRAME IOVERLAY, 0, STATIC
        ARGFRAME DOVERLAY, 0, STATIC
        LOCFRAME ISTACK, 2, STACK
        FUNCTION initiatorZdoLeaveCnfCB,021603H
        ARGFRAME XSTACK, 0, STACK
        LOCFRAME ISTACK, 2, STACK
        PUBLIC zllInitiator_AbortTL
        FUNCTION zllInitiator_AbortTL,021203H
        ARGFRAME XSTACK, 32, STACK
        ARGFRAME IOVERLAY, 0, STATIC
        ARGFRAME DOVERLAY, 0, STATIC
        LOCFRAME XSTACK, 9, STACK
        PUBLIC zllInitiator_BridgeStartNetwork
        FUNCTION zllInitiator_BridgeStartNetwork,021203H
        ARGFRAME XSTACK, 30, STACK
        ARGFRAME IOVERLAY, 0, STATIC
        ARGFRAME DOVERLAY, 0, STATIC
        LOCFRAME XSTACK, 29, STACK
        PUBLIC zllInitiator_ChannelChange
        FUNCTION zllInitiator_ChannelChange,021203H
        ARGFRAME XSTACK, 30, STACK
        ARGFRAME IOVERLAY, 0, STATIC
        ARGFRAME DOVERLAY, 0, STATIC
        LOCFRAME ISTACK, 2, STACK
        LOCFRAME XSTACK, 27, STACK
        PUBLIC zllInitiator_ClassicalCommissioningStart
        FUNCTION zllInitiator_ClassicalCommissioningStart,021203H
        ARGFRAME XSTACK, 30, STACK
        ARGFRAME IOVERLAY, 0, STATIC
        ARGFRAME DOVERLAY, 0, STATIC
        LOCFRAME ISTACK, 2, STACK
        PUBLIC zllInitiator_Init
        FUNCTION zllInitiator_Init,021203H
        ARGFRAME XSTACK, 0, STACK
        LOCFRAME XSTACK, 9, STACK
        PUBLIC zllInitiator_InitDevice
        FUNCTION zllInitiator_InitDevice,021203H
        ARGFRAME XSTACK, 0, STACK
        LOCFRAME ISTACK, 2, STACK
        PUBLIC zllInitiator_OrphanedRejoin
        FUNCTION zllInitiator_OrphanedRejoin,021203H
        ARGFRAME XSTACK, 0, STACK
        LOCFRAME ISTACK, 2, STACK
        PUBLIC zllInitiator_PermitJoin
        FUNCTION zllInitiator_PermitJoin,021203H
        ARGFRAME XSTACK, 0, STACK
        LOCFRAME XSTACK, 9, STACK
        PUBLIC zllInitiator_RegisterApp
        FUNCTION zllInitiator_RegisterApp,021203H
        ARGFRAME XSTACK, 0, STACK
        LOCFRAME ISTACK, 2, STACK
        PUBLIC zllInitiator_RegisterForMsg
        FUNCTION zllInitiator_RegisterForMsg,0203H
        ARGFRAME XSTACK, 0, STACK
        LOCFRAME ISTACK, 2, STACK
        PUBLIC zllInitiator_RegisterIdentifyCB
        FUNCTION zllInitiator_RegisterIdentifyCB,0203H
        ARGFRAME XSTACK, 0, STACK
        LOCFRAME ISTACK, 2, STACK
        PUBLIC zllInitiator_RegisterNotifyTLCB
        FUNCTION zllInitiator_RegisterNotifyTLCB,0203H
        ARGFRAME XSTACK, 0, STACK
        LOCFRAME ISTACK, 2, STACK
        PUBLIC zllInitiator_RegisterResetAppCB
        FUNCTION zllInitiator_RegisterResetAppCB,0203H
        ARGFRAME XSTACK, 0, STACK
        LOCFRAME ISTACK, 2, STACK
        PUBLIC zllInitiator_RegisterSelectDiscDevCB
        FUNCTION zllInitiator_RegisterSelectDiscDevCB,0203H
        ARGFRAME XSTACK, 0, STACK
        LOCFRAME ISTACK, 2, STACK
        PUBLIC zllInitiator_ResetToFNSelectedTarget
        FUNCTION zllInitiator_ResetToFNSelectedTarget,021203H
        ARGFRAME XSTACK, 30, STACK
        ARGFRAME IOVERLAY, 0, STATIC
        ARGFRAME DOVERLAY, 0, STATIC
        LOCFRAME XSTACK, 17, STACK
        PUBLIC zllInitiator_ResetToFactoryNew
        FUNCTION zllInitiator_ResetToFactoryNew,021203H
        ARGFRAME XSTACK, 30, STACK
        ARGFRAME IOVERLAY, 0, STATIC
        ARGFRAME DOVERLAY, 0, STATIC
        LOCFRAME ISTACK, 2, STACK
        PUBLIC zllInitiator_SendEPInfo
        FUNCTION zllInitiator_SendEPInfo,021203H
        ARGFRAME XSTACK, 0, STACK
        LOCFRAME ISTACK, 1, STACK
        LOCFRAME XSTACK, 36, STACK
        PUBLIC zllInitiator_StartDevDisc
        FUNCTION zllInitiator_StartDevDisc,021203H
        ARGFRAME XSTACK, 30, STACK
        ARGFRAME IOVERLAY, 0, STATIC
        ARGFRAME DOVERLAY, 0, STATIC
        LOCFRAME XSTACK, 21, STACK
        PUBLIC zllInitiator_TaskID
        PUBLIC zllInitiator_event_loop
        FUNCTION zllInitiator_event_loop,021203H
        ARGFRAME XSTACK, 0, STACK
        LOCFRAME ISTACK, 1, STACK
        LOCFRAME XSTACK, 38, STACK
        
          CFI Names cfiNames0
          CFI StackFrame CFA_SP SP IDATA
          CFI StackFrame CFA_PSP16 PSP16 XDATA
          CFI StackFrame CFA_XSP16 XSP16 XDATA
          CFI StaticOverlayFrame CFA_IOVERLAY IOVERLAY
          CFI StaticOverlayFrame CFA_DOVERLAY DOVERLAY
          CFI Resource `PSW.CY`:1, `B.BR0`:1, `B.BR1`:1, `B.BR2`:1, `B.BR3`:1
          CFI Resource `B.BR4`:1, `B.BR5`:1, `B.BR6`:1, `B.BR7`:1, `VB.BR8`:1
          CFI Resource `VB.BR9`:1, `VB.BR10`:1, `VB.BR11`:1, `VB.BR12`:1
          CFI Resource `VB.BR13`:1, `VB.BR14`:1, `VB.BR15`:1, VB:8, B:8, A:8
          CFI Resource PSW:8, DPL0:8, DPH0:8, R0:8, R1:8, R2:8, R3:8, R4:8, R5:8
          CFI Resource R6:8, R7:8, V0:8, V1:8, V2:8, V3:8, V4:8, V5:8, V6:8, V7:8
          CFI Resource V8:8, V9:8, V10:8, V11:8, V12:8, V13:8, V14:8, V15:8, SP:8
          CFI Resource PSPH:8, PSPL:8, PSP16:16, XSPH:8, XSPL:8, XSP16:16
          CFI VirtualResource ?RET:24
          CFI Resource ?BRET_EXT:8
          CFI VirtualResource ?RET_HIGH:8, ?RET_LOW:8
          CFI ResourceParts PSP16 PSPH, PSPL
          CFI ResourceParts XSP16 XSPH, XSPL
          CFI ResourceParts ?RET ?BRET_EXT, ?RET_HIGH, ?RET_LOW
          CFI EndNames cfiNames0
        
          CFI Common cfiCommon0 Using cfiNames0
          CFI CodeAlign 1
          CFI DataAlign -1
          CFI ReturnAddress ?RET CODE
          CFI CFA_DOVERLAY Used
          CFI CFA_IOVERLAY Used
          CFI CFA_SP SP+-3
          CFI CFA_PSP16 PSP16+0
          CFI CFA_XSP16 XSP16+0
          CFI `PSW.CY` SameValue
          CFI `B.BR0` SameValue
          CFI `B.BR1` SameValue
          CFI `B.BR2` SameValue
          CFI `B.BR3` SameValue
          CFI `B.BR4` SameValue
          CFI `B.BR5` SameValue
          CFI `B.BR6` SameValue
          CFI `B.BR7` SameValue
          CFI `VB.BR8` SameValue
          CFI `VB.BR9` SameValue
          CFI `VB.BR10` SameValue
          CFI `VB.BR11` SameValue
          CFI `VB.BR12` SameValue
          CFI `VB.BR13` SameValue
          CFI `VB.BR14` SameValue
          CFI `VB.BR15` SameValue
          CFI VB SameValue
          CFI B Undefined
          CFI A Undefined
          CFI PSW SameValue
          CFI DPL0 SameValue
          CFI DPH0 SameValue
          CFI R0 Undefined
          CFI R1 Undefined
          CFI R2 Undefined
          CFI R3 Undefined
          CFI R4 Undefined
          CFI R5 Undefined
          CFI R6 SameValue
          CFI R7 SameValue
          CFI V0 SameValue
          CFI V1 SameValue
          CFI V2 SameValue
          CFI V3 SameValue
          CFI V4 SameValue
          CFI V5 SameValue
          CFI V6 SameValue
          CFI V7 SameValue
          CFI V8 SameValue
          CFI V9 SameValue
          CFI V10 SameValue
          CFI V11 SameValue
          CFI V12 SameValue
          CFI V13 SameValue
          CFI V14 SameValue
          CFI V15 SameValue
          CFI PSPH Undefined
          CFI PSPL Undefined
          CFI XSPH Undefined
          CFI XSPL Undefined
          CFI ?RET Concat
          CFI ?BRET_EXT Frame(CFA_SP, 3)
          CFI ?RET_HIGH Frame(CFA_SP, 2)
          CFI ?RET_LOW Frame(CFA_SP, 1)
          CFI EndCommon cfiCommon0
        
        
          CFI Common cfiCommon1 Using cfiNames0
          CFI CodeAlign 1
          CFI DataAlign -1
          CFI ReturnAddress ?RET CODE
          CFI CFA_DOVERLAY Used
          CFI CFA_IOVERLAY Used
          CFI CFA_SP SP+-2
          CFI CFA_PSP16 PSP16+0
          CFI CFA_XSP16 XSP16+0
          CFI `PSW.CY` SameValue
          CFI `B.BR0` SameValue
          CFI `B.BR1` SameValue
          CFI `B.BR2` SameValue
          CFI `B.BR3` SameValue
          CFI `B.BR4` SameValue
          CFI `B.BR5` SameValue
          CFI `B.BR6` SameValue
          CFI `B.BR7` SameValue
          CFI `VB.BR8` SameValue
          CFI `VB.BR9` SameValue
          CFI `VB.BR10` SameValue
          CFI `VB.BR11` SameValue
          CFI `VB.BR12` SameValue
          CFI `VB.BR13` SameValue
          CFI `VB.BR14` SameValue
          CFI `VB.BR15` SameValue
          CFI VB SameValue
          CFI B SameValue
          CFI A SameValue
          CFI PSW SameValue
          CFI DPL0 SameValue
          CFI DPH0 SameValue
          CFI R0 SameValue
          CFI R1 SameValue
          CFI R2 SameValue
          CFI R3 SameValue
          CFI R4 SameValue
          CFI R5 SameValue
          CFI R6 SameValue
          CFI R7 SameValue
          CFI V0 SameValue
          CFI V1 SameValue
          CFI V2 SameValue
          CFI V3 SameValue
          CFI V4 SameValue
          CFI V5 SameValue
          CFI V6 SameValue
          CFI V7 SameValue
          CFI V8 SameValue
          CFI V9 SameValue
          CFI V10 SameValue
          CFI V11 SameValue
          CFI V12 SameValue
          CFI V13 SameValue
          CFI V14 SameValue
          CFI V15 SameValue
          CFI PSPH Undefined
          CFI PSPL Undefined
          CFI XSPH Undefined
          CFI XSPL Undefined
          CFI ?RET Concat
          CFI ?BRET_EXT SameValue
          CFI ?RET_HIGH Frame(CFA_SP, 2)
          CFI ?RET_LOW Frame(CFA_SP, 1)
          CFI EndCommon cfiCommon1
        
MT_ZllNotifyTL      SYMBOL "MT_ZllNotifyTL"
??MT_ZllNotifyTL?relay SYMBOL "?relay", MT_ZllNotifyTL
NLME_GetExtAddr     SYMBOL "NLME_GetExtAddr"
??NLME_GetExtAddr?relay SYMBOL "?relay", NLME_GetExtAddr
NLME_GetShortAddr   SYMBOL "NLME_GetShortAddr"
??NLME_GetShortAddr?relay SYMBOL "?relay", NLME_GetShortAddr
NLME_SetPollRate    SYMBOL "NLME_SetPollRate"
??NLME_SetPollRate?relay SYMBOL "?relay", NLME_SetPollRate
NLME_SetQueuedPollRate SYMBOL "NLME_SetQueuedPollRate"
??NLME_SetQueuedPollRate?relay SYMBOL "?relay", NLME_SetQueuedPollRate
NLME_SetResponseRate SYMBOL "NLME_SetResponseRate"
??NLME_SetResponseRate?relay SYMBOL "?relay", NLME_SetResponseRate
NLME_SetUpdateID    SYMBOL "NLME_SetUpdateID"
??NLME_SetUpdateID?relay SYMBOL "?relay", NLME_SetUpdateID
ZDApp_LeaveCtrlReset SYMBOL "ZDApp_LeaveCtrlReset"
??ZDApp_LeaveCtrlReset?relay SYMBOL "?relay", ZDApp_LeaveCtrlReset
ZDApp_StopJoiningCycle SYMBOL "ZDApp_StopJoiningCycle"
??ZDApp_StopJoiningCycle?relay SYMBOL "?relay", ZDApp_StopJoiningCycle
ZDOInitDevice       SYMBOL "ZDOInitDevice"
??ZDOInitDevice?relay SYMBOL "?relay", ZDOInitDevice
ZDO_RegisterForZDOMsg SYMBOL "ZDO_RegisterForZDOMsg"
??ZDO_RegisterForZDOMsg?relay SYMBOL "?relay", ZDO_RegisterForZDOMsg
ZDO_RegisterForZdoCB SYMBOL "ZDO_RegisterForZdoCB"
??ZDO_RegisterForZdoCB?relay SYMBOL "?relay", ZDO_RegisterForZdoCB
ZDP_DeviceAnnce     SYMBOL "ZDP_DeviceAnnce"
??ZDP_DeviceAnnce?relay SYMBOL "?relay", ZDP_DeviceAnnce
ZDP_MgmtNwkUpdateReq SYMBOL "ZDP_MgmtNwkUpdateReq"
??ZDP_MgmtNwkUpdateReq?relay SYMBOL "?relay", ZDP_MgmtNwkUpdateReq
ZDSecMgrUpdateTCAddress SYMBOL "ZDSecMgrUpdateTCAddress"
??ZDSecMgrUpdateTCAddress?relay SYMBOL "?relay", ZDSecMgrUpdateTCAddress
ZMacGetReq          SYMBOL "ZMacGetReq"
??ZMacGetReq?relay  SYMBOL "?relay", ZMacGetReq
ZMacSetReq          SYMBOL "ZMacSetReq"
??ZMacSetReq?relay  SYMBOL "?relay", ZMacSetReq
nwk_ExtPANIDValid   SYMBOL "nwk_ExtPANIDValid"
??nwk_ExtPANIDValid?relay SYMBOL "?relay", nwk_ExtPANIDValid
nwk_setStateIdle    SYMBOL "nwk_setStateIdle"
??nwk_setStateIdle?relay SYMBOL "?relay", nwk_setStateIdle
osal_clear_event    SYMBOL "osal_clear_event"
??osal_clear_event?relay SYMBOL "?relay", osal_clear_event
osal_get_timeoutEx  SYMBOL "osal_get_timeoutEx"
??osal_get_timeoutEx?relay SYMBOL "?relay", osal_get_timeoutEx
osal_mem_alloc      SYMBOL "osal_mem_alloc"
??osal_mem_alloc?relay SYMBOL "?relay", osal_mem_alloc
osal_mem_free       SYMBOL "osal_mem_free"
??osal_mem_free?relay SYMBOL "?relay", osal_mem_free
osal_memcpy         SYMBOL "osal_memcpy"
??osal_memcpy?relay SYMBOL "?relay", osal_memcpy
osal_memset         SYMBOL "osal_memset"
??osal_memset?relay SYMBOL "?relay", osal_memset
osal_msg_deallocate SYMBOL "osal_msg_deallocate"
??osal_msg_deallocate?relay SYMBOL "?relay", osal_msg_deallocate
osal_msg_receive    SYMBOL "osal_msg_receive"
??osal_msg_receive?relay SYMBOL "?relay", osal_msg_receive
osal_msg_send       SYMBOL "osal_msg_send"
??osal_msg_send?relay SYMBOL "?relay", osal_msg_send
osal_rand           SYMBOL "osal_rand"
??osal_rand?relay   SYMBOL "?relay", osal_rand
osal_set_event      SYMBOL "osal_set_event"
??osal_set_event?relay SYMBOL "?relay", osal_set_event
osal_start_timerEx  SYMBOL "osal_start_timerEx"
??osal_start_timerEx?relay SYMBOL "?relay", osal_start_timerEx
osal_stop_timerEx   SYMBOL "osal_stop_timerEx"
??osal_stop_timerEx?relay SYMBOL "?relay", osal_stop_timerEx
sAddrExtCmp         SYMBOL "sAddrExtCmp"
??sAddrExtCmp?relay SYMBOL "?relay", sAddrExtCmp
sAddrExtCpy         SYMBOL "sAddrExtCpy"
??sAddrExtCpy?relay SYMBOL "?relay", sAddrExtCpy
zclLL_RegisterInterPANCmdCallbacks SYMBOL "zclLL_RegisterInterPANCmdCallbacks"
??zclLL_RegisterInterPANCmdCallbacks?relay SYMBOL "?relay", zclLL_RegisterInterPANCmdCallbacks
zclLL_Send_DeviceInfoReq SYMBOL "zclLL_Send_DeviceInfoReq"
??zclLL_Send_DeviceInfoReq?relay SYMBOL "?relay", zclLL_Send_DeviceInfoReq
zclLL_Send_EndpointInfo SYMBOL "zclLL_Send_EndpointInfo"
??zclLL_Send_EndpointInfo?relay SYMBOL "?relay", zclLL_Send_EndpointInfo
zclLL_Send_IndentifyReq SYMBOL "zclLL_Send_IndentifyReq"
??zclLL_Send_IndentifyReq?relay SYMBOL "?relay", zclLL_Send_IndentifyReq
zclLL_Send_NwkJoinReq SYMBOL "zclLL_Send_NwkJoinReq"
??zclLL_Send_NwkJoinReq?relay SYMBOL "?relay", zclLL_Send_NwkJoinReq
zclLL_Send_NwkJoinRsp SYMBOL "zclLL_Send_NwkJoinRsp"
??zclLL_Send_NwkJoinRsp?relay SYMBOL "?relay", zclLL_Send_NwkJoinRsp
zclLL_Send_NwkStartReq SYMBOL "zclLL_Send_NwkStartReq"
??zclLL_Send_NwkStartReq?relay SYMBOL "?relay", zclLL_Send_NwkStartReq
zclLL_Send_NwkUpdateReq SYMBOL "zclLL_Send_NwkUpdateReq"
??zclLL_Send_NwkUpdateReq?relay SYMBOL "?relay", zclLL_Send_NwkUpdateReq
zclLL_Send_ResetToFNReq SYMBOL "zclLL_Send_ResetToFNReq"
??zclLL_Send_ResetToFNReq?relay SYMBOL "?relay", zclLL_Send_ResetToFNReq
zclLL_Send_ScanReq  SYMBOL "zclLL_Send_ScanReq"
??zclLL_Send_ScanReq?relay SYMBOL "?relay", zclLL_Send_ScanReq
zcl_registerForMsg  SYMBOL "zcl_registerForMsg"
??zcl_registerForMsg?relay SYMBOL "?relay", zcl_registerForMsg
zll_ClassicalCommissioningInit SYMBOL "zll_ClassicalCommissioningInit"
??zll_ClassicalCommissioningInit?relay SYMBOL "?relay", zll_ClassicalCommissioningInit
zll_ClassicalCommissioningJoinDiscoveredNwk SYMBOL "zll_ClassicalCommissioningJoinDiscoveredNwk"
??zll_ClassicalCommissioningJoinDiscoveredNwk?r SYMBOL "?relay", zll_ClassicalCommissioningJoinDiscoveredNwk
zll_DecryptNwkKey   SYMBOL "zll_DecryptNwkKey"
??zll_DecryptNwkKey?relay SYMBOL "?relay", zll_DecryptNwkKey
zll_EncryptNwkKey   SYMBOL "zll_EncryptNwkKey"
??zll_EncryptNwkKey?relay SYMBOL "?relay", zll_EncryptNwkKey
zll_GenerateRandNum SYMBOL "zll_GenerateRandNum"
??zll_GenerateRandNum?relay SYMBOL "?relay", zll_GenerateRandNum
zll_GetMsgRssi      SYMBOL "zll_GetMsgRssi"
??zll_GetMsgRssi?relay SYMBOL "?relay", zll_GetMsgRssi
zll_GetNumGrpIDs    SYMBOL "zll_GetNumGrpIDs"
??zll_GetNumGrpIDs?relay SYMBOL "?relay", zll_GetNumGrpIDs
zll_GetNwkKeyBitmask SYMBOL "zll_GetNwkKeyBitmask"
??zll_GetNwkKeyBitmask?relay SYMBOL "?relay", zll_GetNwkKeyBitmask
zll_GetRandPrimaryChannel SYMBOL "zll_GetRandPrimaryChannel"
??zll_GetRandPrimaryChannel?relay SYMBOL "?relay", zll_GetRandPrimaryChannel
zll_GetSubDeviceInfo SYMBOL "zll_GetSubDeviceInfo"
??zll_GetSubDeviceInfo?relay SYMBOL "?relay", zll_GetSubDeviceInfo
zll_InitVariables   SYMBOL "zll_InitVariables"
??zll_InitVariables?relay SYMBOL "?relay", zll_InitVariables
zll_IsFactoryNew    SYMBOL "zll_IsFactoryNew"
??zll_IsFactoryNew?relay SYMBOL "?relay", zll_IsFactoryNew
zll_IsValidSplitFreeRanges SYMBOL "zll_IsValidSplitFreeRanges"
??zll_IsValidSplitFreeRanges?relay SYMBOL "?relay", zll_IsValidSplitFreeRanges
zll_IsValidTransID  SYMBOL "zll_IsValidTransID"
??zll_IsValidTransID?relay SYMBOL "?relay", zll_IsValidTransID
zll_NewNwkUpdateId  SYMBOL "zll_NewNwkUpdateId"
??zll_NewNwkUpdateId?relay SYMBOL "?relay", zll_NewNwkUpdateId
zll_PermitJoin      SYMBOL "zll_PermitJoin"
??zll_PermitJoin?relay SYMBOL "?relay", zll_PermitJoin
zll_PopGrpIDRange   SYMBOL "zll_PopGrpIDRange"
??zll_PopGrpIDRange?relay SYMBOL "?relay", zll_PopGrpIDRange
zll_PopNwkAddress   SYMBOL "zll_PopNwkAddress"
??zll_PopNwkAddress?relay SYMBOL "?relay", zll_PopNwkAddress
zll_ProcessNwkUpdate SYMBOL "zll_ProcessNwkUpdate"
??zll_ProcessNwkUpdate?relay SYMBOL "?relay", zll_ProcessNwkUpdate
zll_RegisterApp     SYMBOL "zll_RegisterApp"
??zll_RegisterApp?relay SYMBOL "?relay", zll_RegisterApp
zll_ResetToFactoryNew SYMBOL "zll_ResetToFactoryNew"
??zll_ResetToFactoryNew?relay SYMBOL "?relay", zll_ResetToFactoryNew
zll_RouterProcessZDOMsg SYMBOL "zll_RouterProcessZDOMsg"
??zll_RouterProcessZDOMsg?relay SYMBOL "?relay", zll_RouterProcessZDOMsg
zll_SendDeviceInfoRsp SYMBOL "zll_SendDeviceInfoRsp"
??zll_SendDeviceInfoRsp?relay SYMBOL "?relay", zll_SendDeviceInfoRsp
zll_SendLeaveReq    SYMBOL "zll_SendLeaveReq"
??zll_SendLeaveReq?relay SYMBOL "?relay", zll_SendLeaveReq
zll_SendScanRsp     SYMBOL "zll_SendScanRsp"
??zll_SendScanRsp?relay SYMBOL "?relay", zll_SendScanRsp
zll_SetChannel      SYMBOL "zll_SetChannel"
??zll_SetChannel?relay SYMBOL "?relay", zll_SetChannel
zll_SetMacNwkParams SYMBOL "zll_SetMacNwkParams"
??zll_SetMacNwkParams?relay SYMBOL "?relay", zll_SetMacNwkParams
zll_SetNIB          SYMBOL "zll_SetNIB"
??zll_SetNIB?relay  SYMBOL "?relay", zll_SetNIB
zll_SetZllTaskId    SYMBOL "zll_SetZllTaskId"
??zll_SetZllTaskId?relay SYMBOL "?relay", zll_SetZllTaskId
zll_SplitFreeRanges SYMBOL "zll_SplitFreeRanges"
??zll_SplitFreeRanges?relay SYMBOL "?relay", zll_SplitFreeRanges
zll_UpdateFreeRanges SYMBOL "zll_UpdateFreeRanges"
??zll_UpdateFreeRanges?relay SYMBOL "?relay", zll_UpdateFreeRanges
zll_UpdateNV        SYMBOL "zll_UpdateNV"
??zll_UpdateNV?relay SYMBOL "?relay", zll_UpdateNV
zll_UpdateNwkKey    SYMBOL "zll_UpdateNwkKey"
??zll_UpdateNwkKey?relay SYMBOL "?relay", zll_UpdateNwkKey
initiatorSelectNwkParams SYMBOL "initiatorSelectNwkParams"
??initiatorSelectNwkParams?relay SYMBOL "?relay", initiatorSelectNwkParams
zllInitiator_AbortTL SYMBOL "zllInitiator_AbortTL"
??zllInitiator_AbortTL?relay SYMBOL "?relay", zllInitiator_AbortTL
zllInitiator_BridgeStartNetwork SYMBOL "zllInitiator_BridgeStartNetwork"
??zllInitiator_BridgeStartNetwork?relay SYMBOL "?relay", zllInitiator_BridgeStartNetwork
zllInitiator_ChannelChange SYMBOL "zllInitiator_ChannelChange"
??zllInitiator_ChannelChange?relay SYMBOL "?relay", zllInitiator_ChannelChange
zllInitiator_ClassicalCommissioningStart SYMBOL "zllInitiator_ClassicalCommissioningStart"
??zllInitiator_ClassicalCommissioningStart?rela SYMBOL "?relay", zllInitiator_ClassicalCommissioningStart
zllInitiator_Init   SYMBOL "zllInitiator_Init"
??zllInitiator_Init?relay SYMBOL "?relay", zllInitiator_Init
zllInitiator_InitDevice SYMBOL "zllInitiator_InitDevice"
??zllInitiator_InitDevice?relay SYMBOL "?relay", zllInitiator_InitDevice
zllInitiator_OrphanedRejoin SYMBOL "zllInitiator_OrphanedRejoin"
??zllInitiator_OrphanedRejoin?relay SYMBOL "?relay", zllInitiator_OrphanedRejoin
zllInitiator_PermitJoin SYMBOL "zllInitiator_PermitJoin"
??zllInitiator_PermitJoin?relay SYMBOL "?relay", zllInitiator_PermitJoin
zllInitiator_RegisterApp SYMBOL "zllInitiator_RegisterApp"
??zllInitiator_RegisterApp?relay SYMBOL "?relay", zllInitiator_RegisterApp
zllInitiator_RegisterForMsg SYMBOL "zllInitiator_RegisterForMsg"
??zllInitiator_RegisterForMsg?relay SYMBOL "?relay", zllInitiator_RegisterForMsg
zllInitiator_RegisterIdentifyCB SYMBOL "zllInitiator_RegisterIdentifyCB"
??zllInitiator_RegisterIdentifyCB?relay SYMBOL "?relay", zllInitiator_RegisterIdentifyCB
zllInitiator_RegisterNotifyTLCB SYMBOL "zllInitiator_RegisterNotifyTLCB"
??zllInitiator_RegisterNotifyTLCB?relay SYMBOL "?relay", zllInitiator_RegisterNotifyTLCB
zllInitiator_RegisterResetAppCB SYMBOL "zllInitiator_RegisterResetAppCB"
??zllInitiator_RegisterResetAppCB?relay SYMBOL "?relay", zllInitiator_RegisterResetAppCB
zllInitiator_RegisterSelectDiscDevCB SYMBOL "zllInitiator_RegisterSelectDiscDevCB"
??zllInitiator_RegisterSelectDiscDevCB?relay SYMBOL "?relay", zllInitiator_RegisterSelectDiscDevCB
zllInitiator_ResetToFNSelectedTarget SYMBOL "zllInitiator_ResetToFNSelectedTarget"
??zllInitiator_ResetToFNSelectedTarget?relay SYMBOL "?relay", zllInitiator_ResetToFNSelectedTarget
zllInitiator_ResetToFactoryNew SYMBOL "zllInitiator_ResetToFactoryNew"
??zllInitiator_ResetToFactoryNew?relay SYMBOL "?relay", zllInitiator_ResetToFactoryNew
zllInitiator_SendEPInfo SYMBOL "zllInitiator_SendEPInfo"
??zllInitiator_SendEPInfo?relay SYMBOL "?relay", zllInitiator_SendEPInfo
zllInitiator_StartDevDisc SYMBOL "zllInitiator_StartDevDisc"
??zllInitiator_StartDevDisc?relay SYMBOL "?relay", zllInitiator_StartDevDisc
zllInitiator_event_loop SYMBOL "zllInitiator_event_loop"
??zllInitiator_event_loop?relay SYMBOL "?relay", zllInitiator_event_loop

        EXTERN ??MT_ZllNotifyTL?relay
        FUNCTION ??MT_ZllNotifyTL?relay,00H
        EXTERN ??NLME_GetExtAddr?relay
        FUNCTION ??NLME_GetExtAddr?relay,00H
        EXTERN ??NLME_GetShortAddr?relay
        FUNCTION ??NLME_GetShortAddr?relay,00H
        EXTERN ??NLME_SetPollRate?relay
        FUNCTION ??NLME_SetPollRate?relay,00H
        EXTERN ??NLME_SetQueuedPollRate?relay
        FUNCTION ??NLME_SetQueuedPollRate?relay,00H
        EXTERN ??NLME_SetResponseRate?relay
        FUNCTION ??NLME_SetResponseRate?relay,00H
        EXTERN ??NLME_SetUpdateID?relay
        FUNCTION ??NLME_SetUpdateID?relay,00H
        EXTERN ??ZDApp_LeaveCtrlReset?relay
        FUNCTION ??ZDApp_LeaveCtrlReset?relay,00H
        EXTERN ??ZDApp_StopJoiningCycle?relay
        FUNCTION ??ZDApp_StopJoiningCycle?relay,00H
        EXTERN ??ZDOInitDevice?relay
        FUNCTION ??ZDOInitDevice?relay,00H
        EXTERN ??ZDO_RegisterForZDOMsg?relay
        FUNCTION ??ZDO_RegisterForZDOMsg?relay,00H
        EXTERN ??ZDO_RegisterForZdoCB?relay
        FUNCTION ??ZDO_RegisterForZdoCB?relay,00H
        EXTERN ??ZDP_DeviceAnnce?relay
        FUNCTION ??ZDP_DeviceAnnce?relay,00H
        EXTERN ??ZDP_MgmtNwkUpdateReq?relay
        FUNCTION ??ZDP_MgmtNwkUpdateReq?relay,00H
        EXTERN ??ZDSecMgrUpdateTCAddress?relay
        FUNCTION ??ZDSecMgrUpdateTCAddress?relay,00H
        EXTERN ??ZMacGetReq?relay
        FUNCTION ??ZMacGetReq?relay,00H
        EXTERN ??ZMacSetReq?relay
        FUNCTION ??ZMacSetReq?relay,00H
        EXTERN ??nwk_ExtPANIDValid?relay
        FUNCTION ??nwk_ExtPANIDValid?relay,00H
        EXTERN ??nwk_setStateIdle?relay
        FUNCTION ??nwk_setStateIdle?relay,00H
        EXTERN ??osal_clear_event?relay
        FUNCTION ??osal_clear_event?relay,00H
        EXTERN ??osal_get_timeoutEx?relay
        FUNCTION ??osal_get_timeoutEx?relay,00H
        EXTERN ??osal_mem_alloc?relay
        FUNCTION ??osal_mem_alloc?relay,00H
        EXTERN ??osal_mem_free?relay
        FUNCTION ??osal_mem_free?relay,00H
        EXTERN ??osal_memcpy?relay
        FUNCTION ??osal_memcpy?relay,00H
        EXTERN ??osal_memset?relay
        FUNCTION ??osal_memset?relay,00H
        EXTERN ??osal_msg_deallocate?relay
        FUNCTION ??osal_msg_deallocate?relay,00H
        EXTERN ??osal_msg_receive?relay
        FUNCTION ??osal_msg_receive?relay,00H
        EXTERN ??osal_msg_send?relay
        FUNCTION ??osal_msg_send?relay,00H
        EXTERN ??osal_rand?relay
        FUNCTION ??osal_rand?relay,00H
        EXTERN ??osal_set_event?relay
        FUNCTION ??osal_set_event?relay,00H
        EXTERN ??osal_start_timerEx?relay
        FUNCTION ??osal_start_timerEx?relay,00H
        EXTERN ??osal_stop_timerEx?relay
        FUNCTION ??osal_stop_timerEx?relay,00H
        EXTERN ??sAddrExtCmp?relay
        FUNCTION ??sAddrExtCmp?relay,00H
        EXTERN ??sAddrExtCpy?relay
        FUNCTION ??sAddrExtCpy?relay,00H
        EXTERN ??zclLL_RegisterInterPANCmdCallbacks?relay
        FUNCTION ??zclLL_RegisterInterPANCmdCallbacks?relay,00H
        EXTERN ??zclLL_Send_DeviceInfoReq?relay
        FUNCTION ??zclLL_Send_DeviceInfoReq?relay,00H
        EXTERN ??zclLL_Send_EndpointInfo?relay
        FUNCTION ??zclLL_Send_EndpointInfo?relay,00H
        EXTERN ??zclLL_Send_IndentifyReq?relay
        FUNCTION ??zclLL_Send_IndentifyReq?relay,00H
        EXTERN ??zclLL_Send_NwkJoinReq?relay
        FUNCTION ??zclLL_Send_NwkJoinReq?relay,00H
        EXTERN ??zclLL_Send_NwkJoinRsp?relay
        FUNCTION ??zclLL_Send_NwkJoinRsp?relay,00H
        EXTERN ??zclLL_Send_NwkStartReq?relay
        FUNCTION ??zclLL_Send_NwkStartReq?relay,00H
        EXTERN ??zclLL_Send_NwkUpdateReq?relay
        FUNCTION ??zclLL_Send_NwkUpdateReq?relay,00H
        EXTERN ??zclLL_Send_ResetToFNReq?relay
        FUNCTION ??zclLL_Send_ResetToFNReq?relay,00H
        EXTERN ??zclLL_Send_ScanReq?relay
        FUNCTION ??zclLL_Send_ScanReq?relay,00H
        EXTERN ??zcl_registerForMsg?relay
        FUNCTION ??zcl_registerForMsg?relay,00H
        EXTERN ??zll_ClassicalCommissioningInit?relay
        FUNCTION ??zll_ClassicalCommissioningInit?relay,00H
        EXTERN ??zll_ClassicalCommissioningJoinDiscoveredNwk?r
        FUNCTION ??zll_ClassicalCommissioningJoinDiscoveredNwk?r,00H
        EXTERN ??zll_DecryptNwkKey?relay
        FUNCTION ??zll_DecryptNwkKey?relay,00H
        EXTERN ??zll_EncryptNwkKey?relay
        FUNCTION ??zll_EncryptNwkKey?relay,00H
        EXTERN ??zll_GenerateRandNum?relay
        FUNCTION ??zll_GenerateRandNum?relay,00H
        EXTERN ??zll_GetMsgRssi?relay
        FUNCTION ??zll_GetMsgRssi?relay,00H
        EXTERN ??zll_GetNumGrpIDs?relay
        FUNCTION ??zll_GetNumGrpIDs?relay,00H
        EXTERN ??zll_GetNwkKeyBitmask?relay
        FUNCTION ??zll_GetNwkKeyBitmask?relay,00H
        EXTERN ??zll_GetRandPrimaryChannel?relay
        FUNCTION ??zll_GetRandPrimaryChannel?relay,00H
        EXTERN ??zll_GetSubDeviceInfo?relay
        FUNCTION ??zll_GetSubDeviceInfo?relay,00H
        EXTERN ??zll_InitVariables?relay
        FUNCTION ??zll_InitVariables?relay,00H
        EXTERN ??zll_IsFactoryNew?relay
        FUNCTION ??zll_IsFactoryNew?relay,00H
        EXTERN ??zll_IsValidSplitFreeRanges?relay
        FUNCTION ??zll_IsValidSplitFreeRanges?relay,00H
        EXTERN ??zll_IsValidTransID?relay
        FUNCTION ??zll_IsValidTransID?relay,00H
        EXTERN ??zll_NewNwkUpdateId?relay
        FUNCTION ??zll_NewNwkUpdateId?relay,00H
        EXTERN ??zll_PermitJoin?relay
        FUNCTION ??zll_PermitJoin?relay,00H
        EXTERN ??zll_PopGrpIDRange?relay
        FUNCTION ??zll_PopGrpIDRange?relay,00H
        EXTERN ??zll_PopNwkAddress?relay
        FUNCTION ??zll_PopNwkAddress?relay,00H
        EXTERN ??zll_ProcessNwkUpdate?relay
        FUNCTION ??zll_ProcessNwkUpdate?relay,00H
        EXTERN ??zll_RegisterApp?relay
        FUNCTION ??zll_RegisterApp?relay,00H
        EXTERN ??zll_ResetToFactoryNew?relay
        FUNCTION ??zll_ResetToFactoryNew?relay,00H
        EXTERN ??zll_RouterProcessZDOMsg?relay
        FUNCTION ??zll_RouterProcessZDOMsg?relay,00H
        EXTERN ??zll_SendDeviceInfoRsp?relay
        FUNCTION ??zll_SendDeviceInfoRsp?relay,00H
        EXTERN ??zll_SendLeaveReq?relay
        FUNCTION ??zll_SendLeaveReq?relay,00H
        EXTERN ??zll_SendScanRsp?relay
        FUNCTION ??zll_SendScanRsp?relay,00H
        EXTERN ??zll_SetChannel?relay
        FUNCTION ??zll_SetChannel?relay,00H
        EXTERN ??zll_SetMacNwkParams?relay
        FUNCTION ??zll_SetMacNwkParams?relay,00H
        EXTERN ??zll_SetNIB?relay
        FUNCTION ??zll_SetNIB?relay,00H
        EXTERN ??zll_SetZllTaskId?relay
        FUNCTION ??zll_SetZllTaskId?relay,00H
        EXTERN ??zll_SplitFreeRanges?relay
        FUNCTION ??zll_SplitFreeRanges?relay,00H
        EXTERN ??zll_UpdateFreeRanges?relay
        FUNCTION ??zll_UpdateFreeRanges?relay,00H
        EXTERN ??zll_UpdateNV?relay
        FUNCTION ??zll_UpdateNV?relay,00H
        EXTERN ??zll_UpdateNwkKey?relay
        FUNCTION ??zll_UpdateNwkKey?relay,00H
        EXTERN MT_ZllNotifyTL
        FUNCTION MT_ZllNotifyTL,0202H
        ARGFRAME ISTACK, 0, STACK
        ARGFRAME PSTACK, 0, STACK
        ARGFRAME XSTACK, 30, STACK
        ARGFRAME IOVERLAY, 0, STATIC
        ARGFRAME DOVERLAY, 0, STATIC
        EXTERN NLME_GetExtAddr
        FUNCTION NLME_GetExtAddr,0202H
        ARGFRAME ISTACK, 0, STACK
        ARGFRAME PSTACK, 0, STACK
        ARGFRAME XSTACK, 34, STACK
        ARGFRAME IOVERLAY, 0, STATIC
        ARGFRAME DOVERLAY, 0, STATIC
        EXTERN NLME_GetShortAddr
        FUNCTION NLME_GetShortAddr,0202H
        ARGFRAME ISTACK, 0, STACK
        ARGFRAME PSTACK, 0, STACK
        ARGFRAME XSTACK, 34, STACK
        ARGFRAME IOVERLAY, 0, STATIC
        ARGFRAME DOVERLAY, 0, STATIC
        EXTERN NLME_SetPollRate
        FUNCTION NLME_SetPollRate,0202H
        ARGFRAME ISTACK, 2, STACK
        ARGFRAME PSTACK, 0, STACK
        ARGFRAME XSTACK, 17, STACK
        ARGFRAME IOVERLAY, 0, STATIC
        ARGFRAME DOVERLAY, 0, STATIC
        EXTERN NLME_SetQueuedPollRate
        FUNCTION NLME_SetQueuedPollRate,0202H
        ARGFRAME ISTACK, 2, STACK
        ARGFRAME PSTACK, 0, STACK
        ARGFRAME XSTACK, 17, STACK
        ARGFRAME IOVERLAY, 0, STATIC
        ARGFRAME DOVERLAY, 0, STATIC
        EXTERN NLME_SetResponseRate
        FUNCTION NLME_SetResponseRate,0202H
        ARGFRAME ISTACK, 2, STACK
        ARGFRAME PSTACK, 0, STACK
        ARGFRAME XSTACK, 17, STACK
        ARGFRAME IOVERLAY, 0, STATIC
        ARGFRAME DOVERLAY, 0, STATIC
        EXTERN NLME_SetUpdateID
        FUNCTION NLME_SetUpdateID,0202H
        ARGFRAME ISTACK, 0, STACK
        ARGFRAME PSTACK, 0, STACK
        ARGFRAME XSTACK, 21, STACK
        ARGFRAME IOVERLAY, 0, STATIC
        ARGFRAME DOVERLAY, 0, STATIC
        EXTERN ZDAppTaskID
        EXTERN ZDApp_LeaveCtrlReset
        FUNCTION ZDApp_LeaveCtrlReset,0202H
        ARGFRAME ISTACK, 2, STACK
        ARGFRAME PSTACK, 0, STACK
        ARGFRAME XSTACK, 25, STACK
        ARGFRAME IOVERLAY, 0, STATIC
        ARGFRAME DOVERLAY, 0, STATIC
        EXTERN ZDApp_StopJoiningCycle
        FUNCTION ZDApp_StopJoiningCycle,0202H
        ARGFRAME ISTACK, 0, STACK
        ARGFRAME PSTACK, 0, STACK
        ARGFRAME XSTACK, 30, STACK
        ARGFRAME IOVERLAY, 0, STATIC
        ARGFRAME DOVERLAY, 0, STATIC
        EXTERN ZDOInitDevice
        FUNCTION ZDOInitDevice,0202H
        ARGFRAME ISTACK, 2, STACK
        ARGFRAME PSTACK, 0, STACK
        ARGFRAME XSTACK, 25, STACK
        ARGFRAME IOVERLAY, 0, STATIC
        ARGFRAME DOVERLAY, 0, STATIC
        EXTERN ZDO_Config_Node_Descriptor
        EXTERN ZDO_RegisterForZDOMsg
        FUNCTION ZDO_RegisterForZDOMsg,0202H
        ARGFRAME ISTACK, 0, STACK
        ARGFRAME PSTACK, 0, STACK
        ARGFRAME XSTACK, 9, STACK
        ARGFRAME IOVERLAY, 0, STATIC
        ARGFRAME DOVERLAY, 0, STATIC
        EXTERN ZDO_RegisterForZdoCB
        FUNCTION ZDO_RegisterForZdoCB,0202H
        ARGFRAME ISTACK, 0, STACK
        ARGFRAME PSTACK, 0, STACK
        ARGFRAME XSTACK, 9, STACK
        ARGFRAME IOVERLAY, 0, STATIC
        ARGFRAME DOVERLAY, 0, STATIC
        EXTERN ZDO_UseExtendedPANID
        EXTERN ZDP_DeviceAnnce
        FUNCTION ZDP_DeviceAnnce,0202H
        ARGFRAME ISTACK, 0, STACK
        ARGFRAME PSTACK, 0, STACK
        ARGFRAME XSTACK, 31, STACK
        ARGFRAME IOVERLAY, 0, STATIC
        ARGFRAME DOVERLAY, 0, STATIC
        EXTERN ZDP_MgmtNwkUpdateReq
        FUNCTION ZDP_MgmtNwkUpdateReq,0202H
        ARGFRAME ISTACK, 0, STACK
        ARGFRAME PSTACK, 0, STACK
        ARGFRAME XSTACK, 27, STACK
        ARGFRAME IOVERLAY, 0, STATIC
        ARGFRAME DOVERLAY, 0, STATIC
        EXTERN ZDSecMgrUpdateTCAddress
        FUNCTION ZDSecMgrUpdateTCAddress,0202H
        ARGFRAME ISTACK, 0, STACK
        ARGFRAME PSTACK, 0, STACK
        ARGFRAME XSTACK, 30, STACK
        ARGFRAME IOVERLAY, 0, STATIC
        ARGFRAME DOVERLAY, 0, STATIC
        EXTERN ZMacGetReq
        FUNCTION ZMacGetReq,0202H
        ARGFRAME ISTACK, 0, STACK
        ARGFRAME PSTACK, 0, STACK
        ARGFRAME XSTACK, 17, STACK
        ARGFRAME IOVERLAY, 0, STATIC
        ARGFRAME DOVERLAY, 0, STATIC
        EXTERN ZMacSetReq
        FUNCTION ZMacSetReq,0202H
        ARGFRAME ISTACK, 2, STACK
        ARGFRAME PSTACK, 0, STACK
        ARGFRAME XSTACK, 17, STACK
        ARGFRAME IOVERLAY, 0, STATIC
        ARGFRAME DOVERLAY, 0, STATIC
        EXTERN _NIB
        EXTERN _tmpRejoinState
        EXTERN devStartMode
        EXTERN devState
        EXTERN nwk_ExtPANIDValid
        FUNCTION nwk_ExtPANIDValid,0202H
        ARGFRAME ISTACK, 0, STACK
        ARGFRAME PSTACK, 0, STACK
        ARGFRAME XSTACK, 30, STACK
        ARGFRAME IOVERLAY, 0, STATIC
        ARGFRAME DOVERLAY, 0, STATIC
        EXTERN nwk_setStateIdle
        FUNCTION nwk_setStateIdle,0202H
        ARGFRAME ISTACK, 2, STACK
        ARGFRAME PSTACK, 0, STACK
        ARGFRAME XSTACK, 17, STACK
        ARGFRAME IOVERLAY, 0, STATIC
        ARGFRAME DOVERLAY, 0, STATIC
        EXTERN osal_clear_event
        FUNCTION osal_clear_event,0202H
        ARGFRAME ISTACK, 0, STACK
        ARGFRAME PSTACK, 0, STACK
        ARGFRAME XSTACK, 17, STACK
        ARGFRAME IOVERLAY, 0, STATIC
        ARGFRAME DOVERLAY, 0, STATIC
        EXTERN osal_get_timeoutEx
        FUNCTION osal_get_timeoutEx,0202H
        ARGFRAME ISTACK, 0, STACK
        ARGFRAME PSTACK, 0, STACK
        ARGFRAME XSTACK, 31, STACK
        ARGFRAME IOVERLAY, 0, STATIC
        ARGFRAME DOVERLAY, 0, STATIC
        EXTERN osal_mem_alloc
        FUNCTION osal_mem_alloc,0202H
        ARGFRAME ISTACK, 0, STACK
        ARGFRAME PSTACK, 0, STACK
        ARGFRAME XSTACK, 30, STACK
        ARGFRAME IOVERLAY, 0, STATIC
        ARGFRAME DOVERLAY, 0, STATIC
        EXTERN osal_mem_free
        FUNCTION osal_mem_free,0202H
        ARGFRAME ISTACK, 0, STACK
        ARGFRAME PSTACK, 0, STACK
        ARGFRAME XSTACK, 30, STACK
        ARGFRAME IOVERLAY, 0, STATIC
        ARGFRAME DOVERLAY, 0, STATIC
        EXTERN osal_memcpy
        FUNCTION osal_memcpy,0202H
        ARGFRAME ISTACK, 0, STACK
        ARGFRAME PSTACK, 0, STACK
        ARGFRAME XSTACK, 34, STACK
        ARGFRAME IOVERLAY, 0, STATIC
        ARGFRAME DOVERLAY, 0, STATIC
        EXTERN osal_memset
        FUNCTION osal_memset,0202H
        ARGFRAME ISTACK, 2, STACK
        ARGFRAME PSTACK, 0, STACK
        ARGFRAME XSTACK, 20, STACK
        ARGFRAME IOVERLAY, 0, STATIC
        ARGFRAME DOVERLAY, 0, STATIC
        EXTERN osal_msg_deallocate
        FUNCTION osal_msg_deallocate,0202H
        ARGFRAME ISTACK, 0, STACK
        ARGFRAME PSTACK, 0, STACK
        ARGFRAME XSTACK, 30, STACK
        ARGFRAME IOVERLAY, 0, STATIC
        ARGFRAME DOVERLAY, 0, STATIC
        EXTERN osal_msg_receive
        FUNCTION osal_msg_receive,0202H
        ARGFRAME ISTACK, 0, STACK
        ARGFRAME PSTACK, 0, STACK
        ARGFRAME XSTACK, 30, STACK
        ARGFRAME IOVERLAY, 0, STATIC
        ARGFRAME DOVERLAY, 0, STATIC
        EXTERN osal_msg_send
        FUNCTION osal_msg_send,0202H
        ARGFRAME ISTACK, 0, STACK
        ARGFRAME PSTACK, 0, STACK
        ARGFRAME XSTACK, 30, STACK
        ARGFRAME IOVERLAY, 0, STATIC
        ARGFRAME DOVERLAY, 0, STATIC
        EXTERN osal_rand
        FUNCTION osal_rand,0202H
        ARGFRAME ISTACK, 0, STACK
        ARGFRAME PSTACK, 0, STACK
        ARGFRAME XSTACK, 20, STACK
        ARGFRAME IOVERLAY, 0, STATIC
        ARGFRAME DOVERLAY, 0, STATIC
        EXTERN osal_set_event
        FUNCTION osal_set_event,0202H
        ARGFRAME ISTACK, 2, STACK
        ARGFRAME PSTACK, 0, STACK
        ARGFRAME XSTACK, 30, STACK
        ARGFRAME IOVERLAY, 0, STATIC
        ARGFRAME DOVERLAY, 0, STATIC
        EXTERN osal_start_timerEx
        FUNCTION osal_start_timerEx,0202H
        ARGFRAME ISTACK, 0, STACK
        ARGFRAME PSTACK, 0, STACK
        ARGFRAME XSTACK, 36, STACK
        ARGFRAME IOVERLAY, 0, STATIC
        ARGFRAME DOVERLAY, 0, STATIC
        EXTERN osal_stop_timerEx
        FUNCTION osal_stop_timerEx,0202H
        ARGFRAME ISTACK, 0, STACK
        ARGFRAME PSTACK, 0, STACK
        ARGFRAME XSTACK, 31, STACK
        ARGFRAME IOVERLAY, 0, STATIC
        ARGFRAME DOVERLAY, 0, STATIC
        EXTERN sAddrExtCmp
        FUNCTION sAddrExtCmp,0202H
        ARGFRAME ISTACK, 0, STACK
        ARGFRAME PSTACK, 0, STACK
        ARGFRAME XSTACK, 30, STACK
        ARGFRAME IOVERLAY, 0, STATIC
        ARGFRAME DOVERLAY, 0, STATIC
        EXTERN sAddrExtCpy
        FUNCTION sAddrExtCpy,0202H
        ARGFRAME ISTACK, 0, STACK
        ARGFRAME PSTACK, 0, STACK
        ARGFRAME XSTACK, 34, STACK
        ARGFRAME IOVERLAY, 0, STATIC
        ARGFRAME DOVERLAY, 0, STATIC
        EXTERN zclLL_RegisterInterPANCmdCallbacks
        FUNCTION zclLL_RegisterInterPANCmdCallbacks,0202H
        ARGFRAME ISTACK, 0, STACK
        ARGFRAME PSTACK, 0, STACK
        ARGFRAME XSTACK, 9, STACK
        ARGFRAME IOVERLAY, 0, STATIC
        ARGFRAME DOVERLAY, 0, STATIC
        EXTERN zclLL_Send_DeviceInfoReq
        FUNCTION zclLL_Send_DeviceInfoReq,0202H
        ARGFRAME ISTACK, 0, STACK
        ARGFRAME PSTACK, 0, STACK
        ARGFRAME XSTACK, 18, STACK
        ARGFRAME IOVERLAY, 0, STATIC
        ARGFRAME DOVERLAY, 0, STATIC
        EXTERN zclLL_Send_EndpointInfo
        FUNCTION zclLL_Send_EndpointInfo,0202H
        ARGFRAME ISTACK, 0, STACK
        ARGFRAME PSTACK, 0, STACK
        ARGFRAME XSTACK, 36, STACK
        ARGFRAME IOVERLAY, 0, STATIC
        ARGFRAME DOVERLAY, 0, STATIC
        EXTERN zclLL_Send_IndentifyReq
        FUNCTION zclLL_Send_IndentifyReq,0202H
        ARGFRAME ISTACK, 0, STACK
        ARGFRAME PSTACK, 0, STACK
        ARGFRAME XSTACK, 31, STACK
        ARGFRAME IOVERLAY, 0, STATIC
        ARGFRAME DOVERLAY, 0, STATIC
        EXTERN zclLL_Send_NwkJoinReq
        FUNCTION zclLL_Send_NwkJoinReq,0202H
        ARGFRAME ISTACK, 0, STACK
        ARGFRAME PSTACK, 0, STACK
        ARGFRAME XSTACK, 16, STACK
        ARGFRAME IOVERLAY, 0, STATIC
        ARGFRAME DOVERLAY, 0, STATIC
        EXTERN zclLL_Send_NwkJoinRsp
        FUNCTION zclLL_Send_NwkJoinRsp,0202H
        ARGFRAME ISTACK, 0, STACK
        ARGFRAME PSTACK, 0, STACK
        ARGFRAME XSTACK, 30, STACK
        ARGFRAME IOVERLAY, 0, STATIC
        ARGFRAME DOVERLAY, 0, STATIC
        EXTERN zclLL_Send_NwkStartReq
        FUNCTION zclLL_Send_NwkStartReq,0202H
        ARGFRAME ISTACK, 0, STACK
        ARGFRAME PSTACK, 0, STACK
        ARGFRAME XSTACK, 21, STACK
        ARGFRAME IOVERLAY, 0, STATIC
        ARGFRAME DOVERLAY, 0, STATIC
        EXTERN zclLL_Send_NwkUpdateReq
        FUNCTION zclLL_Send_NwkUpdateReq,0202H
        ARGFRAME ISTACK, 0, STACK
        ARGFRAME PSTACK, 0, STACK
        ARGFRAME XSTACK, 31, STACK
        ARGFRAME IOVERLAY, 0, STATIC
        ARGFRAME DOVERLAY, 0, STATIC
        EXTERN zclLL_Send_ResetToFNReq
        FUNCTION zclLL_Send_ResetToFNReq,0202H
        ARGFRAME ISTACK, 0, STACK
        ARGFRAME PSTACK, 0, STACK
        ARGFRAME XSTACK, 17, STACK
        ARGFRAME IOVERLAY, 0, STATIC
        ARGFRAME DOVERLAY, 0, STATIC
        EXTERN zclLL_Send_ScanReq
        FUNCTION zclLL_Send_ScanReq,0202H
        ARGFRAME ISTACK, 0, STACK
        ARGFRAME PSTACK, 0, STACK
        ARGFRAME XSTACK, 33, STACK
        ARGFRAME IOVERLAY, 0, STATIC
        ARGFRAME DOVERLAY, 0, STATIC
        EXTERN zcl_registerForMsg
        FUNCTION zcl_registerForMsg,0202H
        ARGFRAME ISTACK, 0, STACK
        ARGFRAME PSTACK, 0, STACK
        ARGFRAME XSTACK, 9, STACK
        ARGFRAME IOVERLAY, 0, STATIC
        ARGFRAME DOVERLAY, 0, STATIC
        EXTERN zgConfigPANID
        EXTERN zgDefaultChannelList
        EXTERN zgDeviceLogicalType
        EXTERN zgPollRate
        EXTERN zgQueuedPollRate
        EXTERN zgResponsePollRate
        EXTERN zllGrpIDsBegin
        EXTERN zllGrpIDsEnd
        EXTERN zllHAScanInitiated
        EXTERN zllJoinedHANetwork
        EXTERN zllLeaveInitiated
        EXTERN zllResponseID
        EXTERN zllTransID
        EXTERN zll_ClassicalCommissioningInit
        FUNCTION zll_ClassicalCommissioningInit,0202H
        ARGFRAME ISTACK, 2, STACK
        ARGFRAME PSTACK, 0, STACK
        ARGFRAME XSTACK, 0, STACK
        ARGFRAME IOVERLAY, 0, STATIC
        ARGFRAME DOVERLAY, 0, STATIC
        EXTERN zll_ClassicalCommissioningJoinDiscoveredNwk
        FUNCTION zll_ClassicalCommissioningJoinDiscoveredNwk,0202H
        ARGFRAME ISTACK, 0, STACK
        ARGFRAME PSTACK, 0, STACK
        ARGFRAME XSTACK, 30, STACK
        ARGFRAME IOVERLAY, 0, STATIC
        ARGFRAME DOVERLAY, 0, STATIC
        EXTERN zll_DecryptNwkKey
        FUNCTION zll_DecryptNwkKey,0202H
        ARGFRAME ISTACK, 0, STACK
        ARGFRAME PSTACK, 0, STACK
        ARGFRAME XSTACK, 38, STACK
        ARGFRAME IOVERLAY, 0, STATIC
        ARGFRAME DOVERLAY, 0, STATIC
        EXTERN zll_EncryptNwkKey
        FUNCTION zll_EncryptNwkKey,0202H
        ARGFRAME ISTACK, 0, STACK
        ARGFRAME PSTACK, 0, STACK
        ARGFRAME XSTACK, 28, STACK
        ARGFRAME IOVERLAY, 0, STATIC
        ARGFRAME DOVERLAY, 0, STATIC
        EXTERN zll_GenerateRandNum
        FUNCTION zll_GenerateRandNum,0202H
        ARGFRAME ISTACK, 0, STACK
        ARGFRAME PSTACK, 0, STACK
        ARGFRAME XSTACK, 25, STACK
        ARGFRAME IOVERLAY, 0, STATIC
        ARGFRAME DOVERLAY, 0, STATIC
        EXTERN zll_GetMsgRssi
        FUNCTION zll_GetMsgRssi,0202H
        ARGFRAME ISTACK, 0, STACK
        ARGFRAME PSTACK, 0, STACK
        ARGFRAME XSTACK, 31, STACK
        ARGFRAME IOVERLAY, 0, STATIC
        ARGFRAME DOVERLAY, 0, STATIC
        EXTERN zll_GetNumGrpIDs
        FUNCTION zll_GetNumGrpIDs,0202H
        ARGFRAME ISTACK, 2, STACK
        ARGFRAME PSTACK, 0, STACK
        ARGFRAME XSTACK, 9, STACK
        ARGFRAME IOVERLAY, 0, STATIC
        ARGFRAME DOVERLAY, 0, STATIC
        EXTERN zll_GetNwkKeyBitmask
        FUNCTION zll_GetNwkKeyBitmask,0202H
        ARGFRAME ISTACK, 0, STACK
        ARGFRAME PSTACK, 0, STACK
        ARGFRAME XSTACK, 17, STACK
        ARGFRAME IOVERLAY, 0, STATIC
        ARGFRAME DOVERLAY, 0, STATIC
        EXTERN zll_GetRandPrimaryChannel
        FUNCTION zll_GetRandPrimaryChannel,0202H
        ARGFRAME ISTACK, 0, STACK
        ARGFRAME PSTACK, 0, STACK
        ARGFRAME XSTACK, 9, STACK
        ARGFRAME IOVERLAY, 0, STATIC
        ARGFRAME DOVERLAY, 0, STATIC
        EXTERN zll_GetSubDeviceInfo
        FUNCTION zll_GetSubDeviceInfo,0202H
        ARGFRAME ISTACK, 0, STACK
        ARGFRAME PSTACK, 0, STACK
        ARGFRAME XSTACK, 34, STACK
        ARGFRAME IOVERLAY, 0, STATIC
        ARGFRAME DOVERLAY, 0, STATIC
        EXTERN zll_InitVariables
        FUNCTION zll_InitVariables,0202H
        ARGFRAME ISTACK, 0, STACK
        ARGFRAME PSTACK, 0, STACK
        ARGFRAME XSTACK, 9, STACK
        ARGFRAME IOVERLAY, 0, STATIC
        ARGFRAME DOVERLAY, 0, STATIC
        EXTERN zll_IsFactoryNew
        FUNCTION zll_IsFactoryNew,0202H
        ARGFRAME ISTACK, 2, STACK
        ARGFRAME PSTACK, 0, STACK
        ARGFRAME XSTACK, 32, STACK
        ARGFRAME IOVERLAY, 0, STATIC
        ARGFRAME DOVERLAY, 0, STATIC
        EXTERN zll_IsValidSplitFreeRanges
        FUNCTION zll_IsValidSplitFreeRanges,0202H
        ARGFRAME ISTACK, 0, STACK
        ARGFRAME PSTACK, 0, STACK
        ARGFRAME XSTACK, 30, STACK
        ARGFRAME IOVERLAY, 0, STATIC
        ARGFRAME DOVERLAY, 0, STATIC
        EXTERN zll_IsValidTransID
        FUNCTION zll_IsValidTransID,0202H
        ARGFRAME ISTACK, 2, STACK
        ARGFRAME PSTACK, 0, STACK
        ARGFRAME XSTACK, 52, STACK
        ARGFRAME IOVERLAY, 0, STATIC
        ARGFRAME DOVERLAY, 0, STATIC
        EXTERN zll_NewNwkUpdateId
        FUNCTION zll_NewNwkUpdateId,0202H
        ARGFRAME ISTACK, 0, STACK
        ARGFRAME PSTACK, 0, STACK
        ARGFRAME XSTACK, 30, STACK
        ARGFRAME IOVERLAY, 0, STATIC
        ARGFRAME DOVERLAY, 0, STATIC
        EXTERN zll_PermitJoin
        FUNCTION zll_PermitJoin,0202H
        ARGFRAME ISTACK, 2, STACK
        ARGFRAME PSTACK, 0, STACK
        ARGFRAME XSTACK, 30, STACK
        ARGFRAME IOVERLAY, 0, STATIC
        ARGFRAME DOVERLAY, 0, STATIC
        EXTERN zll_PopGrpIDRange
        FUNCTION zll_PopGrpIDRange,0202H
        ARGFRAME ISTACK, 0, STACK
        ARGFRAME PSTACK, 0, STACK
        ARGFRAME XSTACK, 20, STACK
        ARGFRAME IOVERLAY, 0, STATIC
        ARGFRAME DOVERLAY, 0, STATIC
        EXTERN zll_PopNwkAddress
        FUNCTION zll_PopNwkAddress,0202H
        ARGFRAME ISTACK, 0, STACK
        ARGFRAME PSTACK, 0, STACK
        ARGFRAME XSTACK, 20, STACK
        ARGFRAME IOVERLAY, 0, STATIC
        ARGFRAME DOVERLAY, 0, STATIC
        EXTERN zll_ProcessNwkUpdate
        FUNCTION zll_ProcessNwkUpdate,0202H
        ARGFRAME ISTACK, 0, STACK
        ARGFRAME PSTACK, 0, STACK
        ARGFRAME XSTACK, 30, STACK
        ARGFRAME IOVERLAY, 0, STATIC
        ARGFRAME DOVERLAY, 0, STATIC
        EXTERN zll_RegisterApp
        FUNCTION zll_RegisterApp,0202H
        ARGFRAME ISTACK, 2, STACK
        ARGFRAME PSTACK, 0, STACK
        ARGFRAME XSTACK, 0, STACK
        ARGFRAME IOVERLAY, 0, STATIC
        ARGFRAME DOVERLAY, 0, STATIC
        EXTERN zll_ResetToFactoryNew
        FUNCTION zll_ResetToFactoryNew,0202H
        ARGFRAME ISTACK, 2, STACK
        ARGFRAME PSTACK, 0, STACK
        ARGFRAME XSTACK, 0, STACK
        ARGFRAME IOVERLAY, 0, STATIC
        ARGFRAME DOVERLAY, 0, STATIC
        EXTERN zll_RouterProcessZDOMsg
        FUNCTION zll_RouterProcessZDOMsg,0202H
        ARGFRAME ISTACK, 0, STACK
        ARGFRAME PSTACK, 0, STACK
        ARGFRAME XSTACK, 30, STACK
        ARGFRAME IOVERLAY, 0, STATIC
        ARGFRAME DOVERLAY, 0, STATIC
        EXTERN zll_SendDeviceInfoRsp
        FUNCTION zll_SendDeviceInfoRsp,0202H
        ARGFRAME ISTACK, 0, STACK
        ARGFRAME PSTACK, 0, STACK
        ARGFRAME XSTACK, 15, STACK
        ARGFRAME IOVERLAY, 0, STATIC
        ARGFRAME DOVERLAY, 0, STATIC
        EXTERN zll_SendLeaveReq
        FUNCTION zll_SendLeaveReq,0202H
        ARGFRAME ISTACK, 0, STACK
        ARGFRAME PSTACK, 0, STACK
        ARGFRAME XSTACK, 30, STACK
        ARGFRAME IOVERLAY, 0, STATIC
        ARGFRAME DOVERLAY, 0, STATIC
        EXTERN zll_SendScanRsp
        FUNCTION zll_SendScanRsp,0202H
        ARGFRAME ISTACK, 0, STACK
        ARGFRAME PSTACK, 0, STACK
        ARGFRAME XSTACK, 35, STACK
        ARGFRAME IOVERLAY, 0, STATIC
        ARGFRAME DOVERLAY, 0, STATIC
        EXTERN zll_SetChannel
        FUNCTION zll_SetChannel,0202H
        ARGFRAME ISTACK, 2, STACK
        ARGFRAME PSTACK, 0, STACK
        ARGFRAME XSTACK, 32, STACK
        ARGFRAME IOVERLAY, 0, STATIC
        ARGFRAME DOVERLAY, 0, STATIC
        EXTERN zll_SetMacNwkParams
        FUNCTION zll_SetMacNwkParams,0202H
        ARGFRAME ISTACK, 0, STACK
        ARGFRAME PSTACK, 0, STACK
        ARGFRAME XSTACK, 9, STACK
        ARGFRAME IOVERLAY, 0, STATIC
        ARGFRAME DOVERLAY, 0, STATIC
        EXTERN zll_SetNIB
        FUNCTION zll_SetNIB,0202H
        ARGFRAME ISTACK, 0, STACK
        ARGFRAME PSTACK, 0, STACK
        ARGFRAME XSTACK, 34, STACK
        ARGFRAME IOVERLAY, 0, STATIC
        ARGFRAME DOVERLAY, 0, STATIC
        EXTERN zll_SetZllTaskId
        FUNCTION zll_SetZllTaskId,0202H
        ARGFRAME ISTACK, 0, STACK
        ARGFRAME PSTACK, 0, STACK
        ARGFRAME XSTACK, 9, STACK
        ARGFRAME IOVERLAY, 0, STATIC
        ARGFRAME DOVERLAY, 0, STATIC
        EXTERN zll_SplitFreeRanges
        FUNCTION zll_SplitFreeRanges,0202H
        ARGFRAME ISTACK, 0, STACK
        ARGFRAME PSTACK, 0, STACK
        ARGFRAME XSTACK, 24, STACK
        ARGFRAME IOVERLAY, 0, STATIC
        ARGFRAME DOVERLAY, 0, STATIC
        EXTERN zll_UpdateFreeRanges
        FUNCTION zll_UpdateFreeRanges,0202H
        ARGFRAME ISTACK, 0, STACK
        ARGFRAME PSTACK, 0, STACK
        ARGFRAME XSTACK, 30, STACK
        ARGFRAME IOVERLAY, 0, STATIC
        ARGFRAME DOVERLAY, 0, STATIC
        EXTERN zll_UpdateNV
        FUNCTION zll_UpdateNV,0202H
        ARGFRAME ISTACK, 2, STACK
        ARGFRAME PSTACK, 0, STACK
        ARGFRAME XSTACK, 30, STACK
        ARGFRAME IOVERLAY, 0, STATIC
        ARGFRAME DOVERLAY, 0, STATIC
        EXTERN zll_UpdateNwkKey
        FUNCTION zll_UpdateNwkKey,0202H
        ARGFRAME ISTACK, 0, STACK
        ARGFRAME PSTACK, 0, STACK
        ARGFRAME XSTACK, 25, STACK
        ARGFRAME IOVERLAY, 0, STATIC
        ARGFRAME DOVERLAY, 0, STATIC

// D:\Texas Instruments\Z-Stack Lighting 1.0.2\Projects\zstack\ZLL\Source\zll_initiator.c
//    1 /**************************************************************************************************
//    2   Filename:       zll_initiator.c
//    3   Revised:        $Date: 2013-11-22 16:17:23 -0800 (Fri, 22 Nov 2013) $
//    4   Revision:       $Revision: 36220 $
//    5 
//    6   Description:    Zigbee Cluster Library - Light Link Initiator.
//    7 
//    8 
//    9   Copyright 2011-2013 Texas Instruments Incorporated. All rights reserved.
//   10 
//   11   IMPORTANT: Your use of this Software is limited to those specific rights
//   12   granted under the terms of a software license agreement between the user
//   13   who downloaded the software, his/her employer (which must be your employer)
//   14   and Texas Instruments Incorporated (the "License").  You may not use this
//   15   Software unless you agree to abide by the terms of the License. The License
//   16   limits your use, and you acknowledge, that the Software may not be modified,
//   17   copied or distributed unless embedded on a Texas Instruments microcontroller
//   18   or used solely and exclusively in conjunction with a Texas Instruments radio
//   19   frequency transceiver, which is integrated into your product.  Other than for
//   20   the foregoing purpose, you may not use, reproduce, copy, prepare derivative
//   21   works of, modify, distribute, perform, display or sell this Software and/or
//   22   its documentation for any purpose.
//   23 
//   24   YOU FURTHER ACKNOWLEDGE AND AGREE THAT THE SOFTWARE AND DOCUMENTATION ARE
//   25   PROVIDED AS IS WITHOUT WARRANTY OF ANY KIND, EITHER EXPRESS OR IMPLIED,
//   26   INCLUDING WITHOUT LIMITATION, ANY WARRANTY OF MERCHANTABILITY, TITLE,
//   27   NON-INFRINGEMENT AND FITNESS FOR A PARTICULAR PURPOSE. IN NO EVENT SHALL
//   28   TEXAS INSTRUMENTS OR ITS LICENSORS BE LIABLE OR OBLIGATED UNDER CONTRACT,
//   29   NEGLIGENCE, STRICT LIABILITY, CONTRIBUTION, BREACH OF WARRANTY, OR OTHER
//   30   LEGAL EQUITABLE THEORY ANY DIRECT OR INDIRECT DAMAGES OR EXPENSES
//   31   INCLUDING BUT NOT LIMITED TO ANY INCIDENTAL, SPECIAL, INDIRECT, PUNITIVE
//   32   OR CONSEQUENTIAL DAMAGES, LOST PROFITS OR LOST DATA, COST OF PROCUREMENT
//   33   OF SUBSTITUTE GOODS, TECHNOLOGY, SERVICES, OR ANY CLAIMS BY THIRD PARTIES
//   34   (INCLUDING BUT NOT LIMITED TO ANY DEFENSE THEREOF), OR OTHER SIMILAR COSTS.
//   35 
//   36   Should you have any questions regarding your right to use this Software,
//   37   contact Texas Instruments Incorporated at www.TI.com.
//   38 **************************************************************************************************/
//   39 
//   40 
//   41 /*********************************************************************
//   42  * INCLUDES
//   43  */
//   44 #include "ZComDef.h"
//   45 #include "OSAL.h"
//   46 #include "OSAL_Tasks.h"
//   47 #include "OSAL_Nv.h"
//   48 #include "AF.h"
//   49 #include "ZDApp.h"
//   50 #include "ZDSecMgr.h"
//   51 #include "ZDObject.h"
//   52 #include "nwk_util.h"
//   53 
//   54 #if defined ( POWER_SAVING )
//   55 #include "OSAL_PwrMgr.h"
//   56 #endif
//   57 
//   58 #if defined( INTER_PAN )
//   59   #include "stub_aps.h"
//   60 #endif
//   61 
//   62 #include "zcl.h"
//   63 #include "zcl_general.h"
//   64 #include "zcl_ll.h"
//   65 #include "zll.h"
//   66 
//   67 #if defined ( MT_APP_FUNC )
//   68 #include "MT_APP.h"
//   69 #include "zll_rpc.h"
//   70 #endif
//   71 
//   72 #include "zll_initiator.h"
//   73 
//   74 
//   75 /*********************************************************************
//   76  * MACROS
//   77  */
//   78 
//   79 /*********************************************************************
//   80  * CONSTANTS
//   81  */
//   82 
//   83 #define ZLL_INITIATOR_REJOIN_TIMEOUT             2500 // 2.5 sec
//   84 
//   85 // for non-polling end-devices only
//   86 #define ZLL_INITIATOR_TEMP_POST_TL_POLL_RATE     1000
//   87 
//   88 #define DEV_INFO_INVALID_EP                      0xFE
//   89 
//   90 #define ZLL_ENDDEVICE_JOIN_EVT                             ZLL_NWK_JOIN_EVT
//   91 #define ZLL_TL_SCAN_BASE_EVT                               ZLL_AUX_1_EVT
//   92 #define ZLL_CFG_TARGET_EVT                                 ZLL_AUX_2_EVT
//   93 #define ZLL_W4_NWK_START_RSP_EVT                           ZLL_AUX_3_EVT
//   94 #define ZLL_W4_NWK_JOIN_RSP_EVT                            ZLL_AUX_4_EVT
//   95 #define ZLL_DISABLE_RX_EVT                                 ZLL_AUX_5_EVT
//   96 #define ZLL_W4_REJOIN_EVT                                  ZLL_AUX_6_EVT
//   97 #define ZLL_NOTIFY_APP_EVT                                 ZLL_AUX_7_EVT
//   98 
//   99 #define ZLL_INITIATOR_NUM_SCAN_REQ_PRIMARY       8  // 5 times on 1st channel, plus once for each remianing primary channel
//  100 #define ZLL_INITIATOR_NUM_SCAN_REQ_EXTENDED      20 // (ZLL_NUM_SCAN_REQ_PRIMARY + sizeof(ZLL_SECONDARY_CHANNELS_SET))
//  101 
//  102 /*********************************************************************
//  103  * TYPEDEFS
//  104  */
//  105 typedef union
//  106 {
//  107   zclLLNwkStartRsp_t nwkStartRsp;
//  108   zclLLNwkJoinRsp_t nwkJoinRsp;
//  109 } zclLLRsp_t;
//  110 
//  111 typedef struct
//  112 {
//  113   zclLLScanRsp_t scanRsp;
//  114   afAddrType_t srcAddr;
//  115   uint16 newNwkAddr;
//  116   uint8 rxChannel;  // channel scan response was heard on
//  117   int8 lastRssi;    // receieved RSSI
//  118 } targetCandidate_t;
//  119 
//  120 /*********************************************************************
//  121  * GLOBAL VARIABLES
//  122  */

        RSEG XDATA_Z:XDATA:NOROOT(0)
        DATA8
//  123 uint8 zllInitiator_TaskID;
zllInitiator_TaskID:
        DS 1
        REQUIRE __INIT_XDATA_Z
//  124 
//  125 /*********************************************************************
//  126  * EXTERNAL VARIABLES
//  127  */
//  128 extern devStartModes_t devStartMode;
//  129 extern uint8 _tmpRejoinState;
//  130 extern uint8 zllJoinedHANetwork;
//  131 
//  132 /*********************************************************************
//  133  * EXTERNAL FUNCTIONS
//  134  */
//  135 
//  136 /*********************************************************************
//  137  * LOCAL VARIABLES
//  138  */
//  139 

        RSEG XDATA_Z:XDATA:NOROOT(0)
        DATA8
//  140 static uint8 initiatorSeqNum;
initiatorSeqNum:
        DS 1
        REQUIRE __INIT_XDATA_Z
//  141 
//  142 // Touch Link channel tracking

        RSEG XDATA_Z:XDATA:NOROOT(0)
        DATA8
//  143 static uint8 numScanReqSent;
numScanReqSent:
        DS 1
        REQUIRE __INIT_XDATA_Z

        RSEG XDATA_Z:XDATA:NOROOT(0)
        DATA8
//  144 static uint8 scanReqChannels;
scanReqChannels:
        DS 1
        REQUIRE __INIT_XDATA_Z
//  145 
//  146 // Network key sent to the target to start the network with

        RSEG XDATA_Z:XDATA:NOROOT(0)
        DATA8
//  147 static uint8 keyIndexSent;
keyIndexSent:
        DS 1
        REQUIRE __INIT_XDATA_Z

        RSEG XDATA_Z:XDATA:NOROOT(0)
        DATA8
//  148 static uint8 encKeySent[SEC_KEY_LEN];
encKeySent:
        DS 16
        REQUIRE __INIT_XDATA_Z

        RSEG XDATA_Z:XDATA:NOROOT(0)
        DATA32
//  149 static uint32 responseIDSent;
responseIDSent:
        DS 4
        REQUIRE __INIT_XDATA_Z
//  150 
//  151 // Info related to the received request

        RSEG XDATA_Z:XDATA:NOROOT(0)
        DATA8
//  152 static zclLLNwkJoinReq_t joinReq;
joinReq:
        DS 47
        REQUIRE __INIT_XDATA_Z
//  153 
//  154 // Info related to the received response

        RSEG XDATA_Z:XDATA:NOROOT(0)
        DATA8
//  155 static targetCandidate_t selectedTarget;
selectedTarget:
        DS 54
        REQUIRE __INIT_XDATA_Z

        RSEG XDATA_Z:XDATA:NOROOT(0)
        DATA8
//  156 static zclLLRsp_t rxRsp; // network start or join response
rxRsp:
        DS 17
        REQUIRE __INIT_XDATA_Z
//  157 
//  158 // Addresses used for sending/receiving messages

        RSEG XDATA_Z:XDATA:NOROOT(0)
        DATA8
//  159 static afAddrType_t bcastAddr;
bcastAddr:
        DS 12
        REQUIRE __INIT_XDATA_Z
//  160 

        RSEG XDATA_Z:XDATA:NOROOT(0)
        DATA16
//  161 static uint16 savedPollRate;
savedPollRate:
        DS 2
        REQUIRE __INIT_XDATA_Z

        RSEG XDATA_Z:XDATA:NOROOT(0)
        DATA16
//  162 static uint16 savedQueuedPollRate;
savedQueuedPollRate:
        DS 2
        REQUIRE __INIT_XDATA_Z

        RSEG XDATA_Z:XDATA:NOROOT(0)
        DATA16
//  163 static uint16 savedResponsePollRate;
savedResponsePollRate:
        DS 2
        REQUIRE __INIT_XDATA_Z

        RSEG XDATA_Z:XDATA:NOROOT(0)
        DATA8
//  164 static uint8 savedRxOnIdle;
savedRxOnIdle:
        DS 1
        REQUIRE __INIT_XDATA_Z
//  165 
//  166 // Application callback

        RSEG XDATA_Z:XDATA:NOROOT(0)
        DATA16
//  167 static zclGCB_BasicReset_t pfnResetAppCB = NULL;
pfnResetAppCB:
        DS 2
        REQUIRE __INIT_XDATA_Z

        RSEG XDATA_Z:XDATA:NOROOT(0)
        DATA16
//  168 static zclGCB_Identify_t pfnIdentifyCB = NULL;
pfnIdentifyCB:
        DS 2
        REQUIRE __INIT_XDATA_Z

        RSEG XDATA_Z:XDATA:NOROOT(0)
        DATA16
//  169 static zll_NotifyAppTLCB_t pfnNotifyAppCB = NULL;
pfnNotifyAppCB:
        DS 2
        REQUIRE __INIT_XDATA_Z

        RSEG XDATA_Z:XDATA:NOROOT(0)
        DATA16
//  170 static zll_SelectDiscDevCB_t pfnSelectDiscDevCB = NULL;
pfnSelectDiscDevCB:
        DS 2
        REQUIRE __INIT_XDATA_Z
//  171 

        RSEG XDATA_I:XDATA:NOROOT(0)
//  172 static uint8 initiatorRegisteredMsgAppTaskID = TASK_NO_TASK;
initiatorRegisteredMsgAppTaskID:
        DATA8
        DS 1
        REQUIRE `?<Initializer for initiatorRegisteredMsgAppTas`
        REQUIRE __INIT_XDATA_I
//  173 
//  174 /*********************************************************************
//  175  * LOCAL FUNCTIONS
//  176  */
//  177 
//  178 // This callback is called to process a Scan Request command
//  179 static ZStatus_t initiatorScanReqCB( afAddrType_t *srcAddr, zclLLScanReq_t *pReq, uint8 seqNum );
//  180 
//  181 // This callback is called to process a Device Information Request command
//  182 static ZStatus_t initiatorDeviceInfoReqCB( afAddrType_t *srcAddr, zclLLDeviceInfoReq_t *pReq, uint8 seqNum );
//  183 
//  184 // This callback is called to process an Identify Request command
//  185 static ZStatus_t initiatorIdentifyReqCB( afAddrType_t *srcAddr, zclLLIdentifyReq_t *pReq );
//  186 
//  187 // This callback is called to process a Reset to Factory New Request command
//  188 static ZStatus_t initiatorResetToFNReqCB( afAddrType_t *srcAddr, zclLLResetToFNReq_t *pReq );
//  189 
//  190 // This callback is called to process a Network Join End Device Request command
//  191 static ZStatus_t initiatorNwkJoinReqCB( afAddrType_t *srcAddr, zclLLNwkJoinReq_t *pReq, uint8 seqNum );
//  192 
//  193 // This callback is called to process a Network Update Request command
//  194 static ZStatus_t initiatorNwkUpdateReqCB( afAddrType_t *srcAddr, zclLLNwkUpdateReq_t *pReq );
//  195 
//  196 // This callback is called to process a Scan Response command
//  197 static ZStatus_t initiatorScanRspCB( afAddrType_t *srcAddr, zclLLScanRsp_t *pRsp );
//  198 
//  199 // This callback is called to process a Device Information Response command
//  200 static ZStatus_t initiatorDeviceInfoRspCB( afAddrType_t *srcAddr, zclLLDeviceInfoRsp_t *pRsp );
//  201 
//  202 // This callback is called to process a Network Start Response command
//  203 static ZStatus_t initiatorNwkStartRspCB( afAddrType_t *srcAddr, zclLLNwkStartRsp_t *pRsp );
//  204 
//  205 // This callback is called to process a Network Join Router Response command
//  206 static ZStatus_t initiatorNwkJoinRtrRspCB( afAddrType_t *srcAddr, zclLLNwkJoinRsp_t *pRsp );
//  207 
//  208 // This callback is called to process a Network Join End Device Response command
//  209 static ZStatus_t initiatorNwkJoinEDRspCB( afAddrType_t *srcAddr, zclLLNwkJoinRsp_t *pRsp );
//  210 
//  211 // This callback is called to process a Leave Confirmation message
//  212 static void *initiatorZdoLeaveCnfCB( void *pParam );
//  213 
//  214 static void initiatorProcessStateChange( devStates_t state );
//  215 void initiatorSelectNwkParams( void );
//  216 static void initiatorSetNwkToInitState( void );
//  217 static void initiatorJoinNwk( void );
//  218 static void initiatorReJoinNwk( devStartModes_t startMode );
//  219 static void initiatorSendScanReq( bool freshScan );
//  220 static ZStatus_t initiatorSendNwkStartReq( zclLLScanRsp_t *pRsp );
//  221 static ZStatus_t initiatorSendNwkJoinReq( zclLLScanRsp_t *pRsp );
//  222 static ZStatus_t initiatorSendNwkUpdateReq( zclLLScanRsp_t *pRsp );
//  223 static void initiatorClearSelectedTarget( void );
//  224 
//  225 #if defined ( MT_APP_FUNC )
//  226 static ZStatus_t initiatorProcessRpcMsg( uint8 srcEP, uint8 len, uint8 *msg );
//  227 #endif
//  228 
//  229 /*********************************************************************
//  230  * ZLL Initiator Callback Table
//  231  */
//  232 // Initiator Command Callbacks table

        RSEG XDATA_I:XDATA:NOROOT(0)
//  233 static zclLL_InterPANCallbacks_t zllInitiator_CmdCBs =
zllInitiator_CmdCBs:
        DATA8
        DS 26
        REQUIRE `?<Initializer for zllInitiator_CmdCBs>`
        REQUIRE __INIT_XDATA_I
//  234 {
//  235   // Received Server Commands
//  236   initiatorScanReqCB,       // Scan Request command
//  237   initiatorDeviceInfoReqCB, // Device Information Request command
//  238   initiatorIdentifyReqCB,   // Identify Request command
//  239   initiatorResetToFNReqCB,  // Reset to Factory New Request command
//  240   NULL,                     // Network Start Request command
//  241 #if ( ZSTACK_ROUTER_BUILD )
//  242   initiatorNwkJoinReqCB,    // Network Join Router Request command
//  243   NULL,                     // Network Join End Device Request command
//  244 #else
//  245   NULL,                     // Network Join Router Request command
//  246   initiatorNwkJoinReqCB,    // Network Join End Device Request command
//  247 #endif
//  248   initiatorNwkUpdateReqCB,  // Network Update Request command
//  249 
//  250   // Received Client Commands
//  251   initiatorScanRspCB,       // Scan Response command
//  252   initiatorDeviceInfoRspCB, // Device Information Response command
//  253   initiatorNwkStartRspCB,   // Network Start Response command
//  254   initiatorNwkJoinRtrRspCB, // Network Join Router Response command
//  255   initiatorNwkJoinEDRspCB   // Network Join End Device Response command
//  256 };
//  257 
//  258 /*********************************************************************
//  259  * PUBLIC FUNCTIONS
//  260  */
//  261 
//  262 /*********************************************************************
//  263  * @fn      zllInitiator_InitDevice
//  264  *
//  265  * @brief   Start the ZLL Initiator device in the network if it's not
//  266  *          factory new. Otherwise, determine the network parameters
//  267  *          and wait for a touchlink command.
//  268  *
//  269  * @param   none
//  270  *
//  271  * @return  status
//  272  */

        RSEG BANKED_CODE:CODE:NOROOT(0)
//  273 ZStatus_t zllInitiator_InitDevice( void )
zllInitiator_InitDevice:
          CFI Block cfiBlock0 Using cfiCommon0
          CFI Function zllInitiator_InitDevice
        CODE
//  274 {
        FUNCALL zllInitiator_InitDevice, zll_IsFactoryNew
        LOCFRAME ISTACK, 2, STACK
        LOCFRAME PSTACK, 0, STACK
        LOCFRAME XSTACK, 0, STACK
        LOCFRAME IOVERLAY, 0, STATIC
        LOCFRAME DOVERLAY, 0, STATIC
        ARGFRAME ISTACK, 2, STACK
        ARGFRAME PSTACK, 0, STACK
        ARGFRAME XSTACK, 0, STACK
        ARGFRAME IOVERLAY, 0, STATIC
        ARGFRAME DOVERLAY, 0, STATIC
        FUNCALL zllInitiator_InitDevice, initiatorReJoinNwk
        LOCFRAME ISTACK, 2, STACK
        LOCFRAME PSTACK, 0, STACK
        LOCFRAME XSTACK, 0, STACK
        LOCFRAME IOVERLAY, 0, STATIC
        LOCFRAME DOVERLAY, 0, STATIC
        ARGFRAME ISTACK, 2, STACK
        ARGFRAME PSTACK, 0, STACK
        ARGFRAME XSTACK, 0, STACK
        ARGFRAME IOVERLAY, 0, STATIC
        ARGFRAME DOVERLAY, 0, STATIC
        FUNCALL zllInitiator_InitDevice, initiatorSelectNwkParams
        LOCFRAME ISTACK, 2, STACK
        LOCFRAME PSTACK, 0, STACK
        LOCFRAME XSTACK, 0, STACK
        LOCFRAME IOVERLAY, 0, STATIC
        LOCFRAME DOVERLAY, 0, STATIC
        ARGFRAME ISTACK, 2, STACK
        ARGFRAME PSTACK, 0, STACK
        ARGFRAME XSTACK, 0, STACK
        ARGFRAME IOVERLAY, 0, STATIC
        ARGFRAME DOVERLAY, 0, STATIC
        FUNCALL zllInitiator_InitDevice, ZMacSetReq
        LOCFRAME ISTACK, 2, STACK
        LOCFRAME PSTACK, 0, STACK
        LOCFRAME XSTACK, 0, STACK
        LOCFRAME IOVERLAY, 0, STATIC
        LOCFRAME DOVERLAY, 0, STATIC
        ARGFRAME ISTACK, 2, STACK
        ARGFRAME PSTACK, 0, STACK
        ARGFRAME XSTACK, 0, STACK
        ARGFRAME IOVERLAY, 0, STATIC
        ARGFRAME DOVERLAY, 0, STATIC
        FUNCALL zllInitiator_InitDevice, zll_PermitJoin
        LOCFRAME ISTACK, 2, STACK
        LOCFRAME PSTACK, 0, STACK
        LOCFRAME XSTACK, 0, STACK
        LOCFRAME IOVERLAY, 0, STATIC
        LOCFRAME DOVERLAY, 0, STATIC
        ARGFRAME ISTACK, 2, STACK
        ARGFRAME PSTACK, 0, STACK
        ARGFRAME XSTACK, 0, STACK
        ARGFRAME IOVERLAY, 0, STATIC
        ARGFRAME DOVERLAY, 0, STATIC
        PUSH    DPL
          CFI DPL0 Frame(CFA_SP, 4)
          CFI CFA_SP SP+-4
        PUSH    DPH
          CFI DPH0 Frame(CFA_SP, 5)
          CFI CFA_SP SP+-5
        ; Saved register size: 2
        ; Auto size: 0
//  275   if ( !zll_IsFactoryNew() )
        ; Setup parameters for call to function zll_IsFactoryNew
        LCALL   ??zll_IsFactoryNew?relay
        MOV     A,R1
        JNZ     ??zllInitiator_InitDevice_0
//  276   {
//  277     // Resume ZigBee functionality based on the info stored in NV
//  278     initiatorReJoinNwk( MODE_RESUME );
        ; Setup parameters for call to function initiatorReJoinNwk
        MOV     R1,#0x1
        LCALL   ??initiatorReJoinNwk?relay
        SJMP    ??zllInitiator_InitDevice_1
//  279   }
//  280   else
//  281   {
//  282     initiatorSelectNwkParams();
??zllInitiator_InitDevice_0:
        ; Setup parameters for call to function initiatorSelectNwkParams
        LCALL   ??initiatorSelectNwkParams?relay
//  283 #ifndef HOLD_AUTO_START
//  284     zllInitiator_ClassicalCommissioningStart();
//  285 #endif
//  286   }
//  287 
//  288 #if defined ( POWER_SAVING )
//  289   osal_pwrmgr_device( PWRMGR_BATTERY );
//  290 #endif
//  291 
//  292 #if ( ZSTACK_ROUTER_BUILD )
//  293   // Enable our receiver
//  294   savedRxOnIdle = TRUE;
??zllInitiator_InitDevice_1:
        MOV     DPTR,#savedRxOnIdle
        MOV     A,#0x1
        MOVX    @DPTR,A
//  295   ZMacSetReq( ZMacRxOnIdle, &savedRxOnIdle );
        ; Setup parameters for call to function ZMacSetReq
        MOV     R2,#savedRxOnIdle & 0xff
        MOV     R3,#(savedRxOnIdle >> 8) & 0xff
        MOV     R1,#0x52
        LCALL   ??ZMacSetReq?relay
//  296   zll_PermitJoin(0);
        ; Setup parameters for call to function zll_PermitJoin
        MOV     R1,#0x0
        LCALL   ??zll_PermitJoin?relay
//  297 #endif
//  298 
//  299   return ( ZSuccess );
        MOV     R1,#0x0
        LJMP    ??Subroutine35_0 & 0xFFFF
          CFI EndBlock cfiBlock0
//  300 }
//  301 
//  302 
//  303 /*********************************************************************
//  304  * @fn      zllInitiator_ResetToFactoryNew
//  305  *
//  306  * @brief   Call to Reset the Initiator to factory new
//  307  *
//  308  * @param   none
//  309  *
//  310  * @return  none
//  311  */

        RSEG BANKED_CODE:CODE:NOROOT(0)
//  312 void zllInitiator_ResetToFactoryNew()
zllInitiator_ResetToFactoryNew:
          CFI Block cfiBlock1 Using cfiCommon0
          CFI Function zllInitiator_ResetToFactoryNew
        CODE
//  313 {
        FUNCALL zllInitiator_ResetToFactoryNew, zll_ResetToFactoryNew
        LOCFRAME ISTACK, 2, STACK
        LOCFRAME PSTACK, 0, STACK
        LOCFRAME XSTACK, 0, STACK
        LOCFRAME IOVERLAY, 0, STATIC
        LOCFRAME DOVERLAY, 0, STATIC
        ARGFRAME ISTACK, 2, STACK
        ARGFRAME PSTACK, 0, STACK
        ARGFRAME XSTACK, 0, STACK
        ARGFRAME IOVERLAY, 0, STATIC
        ARGFRAME DOVERLAY, 0, STATIC
        PUSH    DPL
          CFI DPL0 Frame(CFA_SP, 4)
          CFI CFA_SP SP+-4
        PUSH    DPH
          CFI DPH0 Frame(CFA_SP, 5)
          CFI CFA_SP SP+-5
        ; Saved register size: 2
        ; Auto size: 0
//  314   if ( pfnResetAppCB )
        LCALL   ?Subroutine17 & 0xFFFF
??CrossCallReturnLabel_36:
        JZ      ??zllInitiator_ResetToFactoryNew_0
//  315   {
//  316     pfnResetAppCB();
        ; Setup parameters for indirect call
        LCALL   ??Subroutine43_0 & 0xFFFF
//  317   }
??CrossCallReturnLabel_98:
        LCALL   ?CALL_IND
//  318   zll_ResetToFactoryNew( TRUE );
??zllInitiator_ResetToFactoryNew_0:
        ; Setup parameters for call to function zll_ResetToFactoryNew
        MOV     R1,#0x1
        LCALL   ??zll_ResetToFactoryNew?relay
//  319 }
        LJMP    ??Subroutine35_0 & 0xFFFF
          CFI EndBlock cfiBlock1

        RSEG BANKED_CODE:CODE:NOROOT(0)
?Subroutine17:
          CFI Block cfiCond2 Using cfiCommon0
          CFI Function zllInitiator_ResetToFactoryNew
          CFI Conditional ??CrossCallReturnLabel_36
          CFI DPL0 Frame(CFA_SP, 4)
          CFI DPH0 Frame(CFA_SP, 5)
          CFI CFA_SP SP+-5
          CFI Block cfiCond3 Using cfiCommon0
          CFI (cfiCond3) Function zllInitiator_event_loop
          CFI (cfiCond3) Conditional ??CrossCallReturnLabel_37
          CFI (cfiCond3) R6 load(1, XDATA, add(CFA_XSP16, literal(-16)))
          CFI (cfiCond3) VB load(1, XDATA, add(CFA_XSP16, literal(-15)))
          CFI (cfiCond3) V0 load(1, XDATA, add(CFA_XSP16, literal(-14)))
          CFI (cfiCond3) V1 load(1, XDATA, add(CFA_XSP16, literal(-13)))
          CFI (cfiCond3) V2 load(1, XDATA, add(CFA_XSP16, literal(-12)))
          CFI (cfiCond3) V3 load(1, XDATA, add(CFA_XSP16, literal(-11)))
          CFI (cfiCond3) V4 load(1, XDATA, add(CFA_XSP16, literal(-10)))
          CFI (cfiCond3) V5 load(1, XDATA, add(CFA_XSP16, literal(-9)))
          CFI (cfiCond3) V6 load(1, XDATA, add(CFA_XSP16, literal(-8)))
          CFI (cfiCond3) V7 load(1, XDATA, add(CFA_XSP16, literal(-7)))
          CFI (cfiCond3) R7 load(1, XDATA, add(CFA_XSP16, literal(-6)))
          CFI (cfiCond3) ?RET_LOW load(1, XDATA, add(CFA_XSP16, literal(-5)))
          CFI (cfiCond3) ?RET_HIGH load(1, XDATA, add(CFA_XSP16, literal(-4)))
          CFI (cfiCond3) ?BRET_EXT load(1, XDATA, add(CFA_XSP16, literal(-3)))
          CFI (cfiCond3) DPL0 load(1, XDATA, add(CFA_XSP16, literal(-2)))
          CFI (cfiCond3) DPH0 load(1, XDATA, add(CFA_XSP16, literal(-1)))
          CFI (cfiCond3) CFA_SP SP+0
          CFI (cfiCond3) CFA_XSP16 add(XSP16, 30)
          CFI Block cfiPicker4 Using cfiCommon1
          CFI (cfiPicker4) NoFunction
          CFI (cfiPicker4) Picker
        MOV     DPTR,#pfnResetAppCB
          CFI EndBlock cfiCond2
          CFI EndBlock cfiCond3
          CFI EndBlock cfiPicker4
        REQUIRE ??Subroutine33_0
        ; // Fall through to label ??Subroutine33_0

        RSEG BANKED_CODE:CODE:NOROOT(0)
??Subroutine33_0:
          CFI Block cfiCond5 Using cfiCommon0
          CFI Function initiatorIdentifyReqCB
          CFI Conditional ??CrossCallReturnLabel_34
          CFI R6 load(1, XDATA, add(CFA_XSP16, literal(-10)))
          CFI VB load(1, XDATA, add(CFA_XSP16, literal(-9)))
          CFI V0 load(1, XDATA, add(CFA_XSP16, literal(-8)))
          CFI V1 load(1, XDATA, add(CFA_XSP16, literal(-7)))
          CFI R7 load(1, XDATA, add(CFA_XSP16, literal(-6)))
          CFI ?RET_LOW load(1, XDATA, add(CFA_XSP16, literal(-5)))
          CFI ?RET_HIGH load(1, XDATA, add(CFA_XSP16, literal(-4)))
          CFI ?BRET_EXT load(1, XDATA, add(CFA_XSP16, literal(-3)))
          CFI DPL0 load(1, XDATA, add(CFA_XSP16, literal(-2)))
          CFI DPH0 load(1, XDATA, add(CFA_XSP16, literal(-1)))
          CFI CFA_SP SP+0
          CFI CFA_XSP16 add(XSP16, 14)
          CFI Block cfiCond6 Using cfiCommon0
          CFI (cfiCond6) Function initiatorScanRspCB
          CFI (cfiCond6) Conditional ??CrossCallReturnLabel_35
          CFI (cfiCond6) R6 load(1, XDATA, add(CFA_XSP16, literal(-12)))
          CFI (cfiCond6) VB load(1, XDATA, add(CFA_XSP16, literal(-11)))
          CFI (cfiCond6) V0 load(1, XDATA, add(CFA_XSP16, literal(-10)))
          CFI (cfiCond6) V1 load(1, XDATA, add(CFA_XSP16, literal(-9)))
          CFI (cfiCond6) V2 load(1, XDATA, add(CFA_XSP16, literal(-8)))
          CFI (cfiCond6) V3 load(1, XDATA, add(CFA_XSP16, literal(-7)))
          CFI (cfiCond6) R7 load(1, XDATA, add(CFA_XSP16, literal(-6)))
          CFI (cfiCond6) ?RET_LOW load(1, XDATA, add(CFA_XSP16, literal(-5)))
          CFI (cfiCond6) ?RET_HIGH load(1, XDATA, add(CFA_XSP16, literal(-4)))
          CFI (cfiCond6) ?BRET_EXT load(1, XDATA, add(CFA_XSP16, literal(-3)))
          CFI (cfiCond6) DPL0 load(1, XDATA, add(CFA_XSP16, literal(-2)))
          CFI (cfiCond6) DPH0 load(1, XDATA, add(CFA_XSP16, literal(-1)))
          CFI (cfiCond6) CFA_SP SP+0
          CFI (cfiCond6) CFA_XSP16 add(XSP16, 17)
          CFI Block cfiCond7 Using cfiCommon0
          CFI (cfiCond7) Function zllInitiator_ResetToFactoryNew
          CFI (cfiCond7) Conditional ??CrossCallReturnLabel_36
          CFI (cfiCond7) DPL0 Frame(CFA_SP, 4)
          CFI (cfiCond7) DPH0 Frame(CFA_SP, 5)
          CFI (cfiCond7) CFA_SP SP+-5
          CFI Block cfiCond8 Using cfiCommon0
          CFI (cfiCond8) Function zllInitiator_event_loop
          CFI (cfiCond8) Conditional ??CrossCallReturnLabel_37
          CFI (cfiCond8) R6 load(1, XDATA, add(CFA_XSP16, literal(-16)))
          CFI (cfiCond8) VB load(1, XDATA, add(CFA_XSP16, literal(-15)))
          CFI (cfiCond8) V0 load(1, XDATA, add(CFA_XSP16, literal(-14)))
          CFI (cfiCond8) V1 load(1, XDATA, add(CFA_XSP16, literal(-13)))
          CFI (cfiCond8) V2 load(1, XDATA, add(CFA_XSP16, literal(-12)))
          CFI (cfiCond8) V3 load(1, XDATA, add(CFA_XSP16, literal(-11)))
          CFI (cfiCond8) V4 load(1, XDATA, add(CFA_XSP16, literal(-10)))
          CFI (cfiCond8) V5 load(1, XDATA, add(CFA_XSP16, literal(-9)))
          CFI (cfiCond8) V6 load(1, XDATA, add(CFA_XSP16, literal(-8)))
          CFI (cfiCond8) V7 load(1, XDATA, add(CFA_XSP16, literal(-7)))
          CFI (cfiCond8) R7 load(1, XDATA, add(CFA_XSP16, literal(-6)))
          CFI (cfiCond8) ?RET_LOW load(1, XDATA, add(CFA_XSP16, literal(-5)))
          CFI (cfiCond8) ?RET_HIGH load(1, XDATA, add(CFA_XSP16, literal(-4)))
          CFI (cfiCond8) ?BRET_EXT load(1, XDATA, add(CFA_XSP16, literal(-3)))
          CFI (cfiCond8) DPL0 load(1, XDATA, add(CFA_XSP16, literal(-2)))
          CFI (cfiCond8) DPH0 load(1, XDATA, add(CFA_XSP16, literal(-1)))
          CFI (cfiCond8) CFA_SP SP+0
          CFI (cfiCond8) CFA_XSP16 add(XSP16, 30)
          CFI Block cfiPicker9 Using cfiCommon1
          CFI (cfiPicker9) NoFunction
          CFI (cfiPicker9) Picker
        LCALL   ??Subroutine41_0 & 0xFFFF
??CrossCallReturnLabel_96:
        MOV     A,R0
        ORL     A,R1
        RET
          CFI EndBlock cfiCond5
          CFI EndBlock cfiCond6
          CFI EndBlock cfiCond7
          CFI EndBlock cfiCond8
          CFI EndBlock cfiPicker9
//  320 
//  321 /*********************************************************************
//  322  * @fn      zllInitiator_RegisterIdentifyCB
//  323  *
//  324  * @brief   Register an Application's Identify callback function.
//  325  *
//  326  * @param   pfnIdentify - application callback
//  327  *
//  328  * @return  none
//  329  */

        RSEG BANKED_CODE:CODE:NOROOT(0)
//  330 void zllInitiator_RegisterIdentifyCB( zclGCB_Identify_t pfnIdentify )
zllInitiator_RegisterIdentifyCB:
          CFI Block cfiBlock10 Using cfiCommon0
          CFI Function zllInitiator_RegisterIdentifyCB
        CODE
//  331 {
        PUSH    DPL
          CFI DPL0 Frame(CFA_SP, 4)
          CFI CFA_SP SP+-4
        PUSH    DPH
          CFI DPH0 Frame(CFA_SP, 5)
          CFI CFA_SP SP+-5
        ; Saved register size: 2
        ; Auto size: 0
//  332   pfnIdentifyCB = pfnIdentify;
        MOV     DPTR,#pfnIdentifyCB
        LJMP    ?Subroutine0 & 0xFFFF
          CFI EndBlock cfiBlock10
//  333 }
//  334 
//  335 /*********************************************************************
//  336  * @fn      zllInitiator_RegisterNotifyTLCB
//  337  *
//  338  * @brief   Register an Application's Touch-Link Notify callback function.
//  339  *
//  340  * @param   pfnNotifyApp - application callback
//  341  *
//  342  * @return  none
//  343  */

        RSEG BANKED_CODE:CODE:NOROOT(0)
//  344 void zllInitiator_RegisterNotifyTLCB( zll_NotifyAppTLCB_t pfnNotifyApp )
zllInitiator_RegisterNotifyTLCB:
          CFI Block cfiBlock11 Using cfiCommon0
          CFI Function zllInitiator_RegisterNotifyTLCB
        CODE
//  345 {
        PUSH    DPL
          CFI DPL0 Frame(CFA_SP, 4)
          CFI CFA_SP SP+-4
        PUSH    DPH
          CFI DPH0 Frame(CFA_SP, 5)
          CFI CFA_SP SP+-5
        ; Saved register size: 2
        ; Auto size: 0
//  346   pfnNotifyAppCB = pfnNotifyApp;
        MOV     DPTR,#pfnNotifyAppCB
        LJMP    ?Subroutine0 & 0xFFFF
          CFI EndBlock cfiBlock11
//  347 }
//  348 
//  349 /*********************************************************************
//  350  * @fn      zllInitiator_RegisterResetAppCB
//  351  *
//  352  * @brief   Register an Application's Reset callback function.
//  353  *
//  354  * @param   pfnResetApp - application callback
//  355  *
//  356  * @return  none
//  357  */

        RSEG BANKED_CODE:CODE:NOROOT(0)
//  358 void zllInitiator_RegisterResetAppCB( zclGCB_BasicReset_t pfnResetApp )
zllInitiator_RegisterResetAppCB:
          CFI Block cfiBlock12 Using cfiCommon0
          CFI Function zllInitiator_RegisterResetAppCB
        CODE
//  359 {
        PUSH    DPL
          CFI DPL0 Frame(CFA_SP, 4)
          CFI CFA_SP SP+-4
        PUSH    DPH
          CFI DPH0 Frame(CFA_SP, 5)
          CFI CFA_SP SP+-5
        ; Saved register size: 2
        ; Auto size: 0
//  360   pfnResetAppCB = pfnResetApp;
        MOV     DPTR,#pfnResetAppCB
        LJMP    ?Subroutine0 & 0xFFFF
          CFI EndBlock cfiBlock12
//  361 }
//  362 
//  363 /*********************************************************************
//  364  * @fn      zllInitiator_RegisterSelectDiscDevCB
//  365  *
//  366  * @brief   Register an Application's Selection callback function, to select
//  367  *          a target from the discovered devices during a Touch-link scan.
//  368  *
//  369  * @param   pfnSelectDiscDev - application callback
//  370  *
//  371  * @return  none
//  372  */

        RSEG BANKED_CODE:CODE:NOROOT(0)
//  373 void zllInitiator_RegisterSelectDiscDevCB( zll_SelectDiscDevCB_t pfnSelectDiscDev )
zllInitiator_RegisterSelectDiscDevCB:
          CFI Block cfiBlock13 Using cfiCommon0
          CFI Function zllInitiator_RegisterSelectDiscDevCB
        CODE
//  374 {
        PUSH    DPL
          CFI DPL0 Frame(CFA_SP, 4)
          CFI CFA_SP SP+-4
        PUSH    DPH
          CFI DPH0 Frame(CFA_SP, 5)
          CFI CFA_SP SP+-5
        ; Saved register size: 2
        ; Auto size: 0
//  375   pfnSelectDiscDevCB = pfnSelectDiscDev;
        MOV     DPTR,#pfnSelectDiscDevCB
        LJMP    ?Subroutine0 & 0xFFFF
          CFI EndBlock cfiBlock13
//  376 }
//  377 
//  378 /*********************************************************************
//  379  * @fn      zllInitiator_StartDevDisc
//  380  *
//  381  * @brief   Start device discovery, scanning for other devices in the vicinity
//  382  *          of the originator (initiating first part of the Touch-Link process).
//  383  *          Device discovery shall only be initiated by address assignment capable
//  384  *          devices. To perform device discovery, the initiator shall broadcast
//  385  *          inter-PAN Scan Requests, spaced at an interval of
//  386  *          ZLL_APLC_SCAN_TIME_BASE_DURATION seconds.
//  387  *
//  388  * @param   none
//  389  *
//  390  * @return  status
//  391  */

        RSEG BANKED_CODE:CODE:NOROOT(0)
//  392 ZStatus_t zllInitiator_StartDevDisc( void )
zllInitiator_StartDevDisc:
          CFI Block cfiBlock14 Using cfiCommon0
          CFI Function zllInitiator_StartDevDisc
        CODE
//  393 {
        FUNCALL zllInitiator_StartDevDisc, osal_clear_event
        LOCFRAME ISTACK, 0, STACK
        LOCFRAME PSTACK, 0, STACK
        LOCFRAME XSTACK, 17, STACK
        LOCFRAME IOVERLAY, 0, STATIC
        LOCFRAME DOVERLAY, 0, STATIC
        ARGFRAME ISTACK, 0, STACK
        ARGFRAME PSTACK, 0, STACK
        ARGFRAME XSTACK, 17, STACK
        ARGFRAME IOVERLAY, 0, STATIC
        ARGFRAME DOVERLAY, 0, STATIC
        FUNCALL zllInitiator_StartDevDisc, ZDApp_StopJoiningCycle
        LOCFRAME ISTACK, 0, STACK
        LOCFRAME PSTACK, 0, STACK
        LOCFRAME XSTACK, 17, STACK
        LOCFRAME IOVERLAY, 0, STATIC
        LOCFRAME DOVERLAY, 0, STATIC
        ARGFRAME ISTACK, 0, STACK
        ARGFRAME PSTACK, 0, STACK
        ARGFRAME XSTACK, 17, STACK
        ARGFRAME IOVERLAY, 0, STATIC
        ARGFRAME DOVERLAY, 0, STATIC
        FUNCALL zllInitiator_StartDevDisc, zllInitiator_AbortTL
        LOCFRAME ISTACK, 0, STACK
        LOCFRAME PSTACK, 0, STACK
        LOCFRAME XSTACK, 17, STACK
        LOCFRAME IOVERLAY, 0, STATIC
        LOCFRAME DOVERLAY, 0, STATIC
        ARGFRAME ISTACK, 0, STACK
        ARGFRAME PSTACK, 0, STACK
        ARGFRAME XSTACK, 17, STACK
        ARGFRAME IOVERLAY, 0, STATIC
        ARGFRAME DOVERLAY, 0, STATIC
        FUNCALL zllInitiator_StartDevDisc, osal_get_timeoutEx
        LOCFRAME ISTACK, 0, STACK
        LOCFRAME PSTACK, 0, STACK
        LOCFRAME XSTACK, 17, STACK
        LOCFRAME IOVERLAY, 0, STATIC
        LOCFRAME DOVERLAY, 0, STATIC
        ARGFRAME ISTACK, 0, STACK
        ARGFRAME PSTACK, 0, STACK
        ARGFRAME XSTACK, 17, STACK
        ARGFRAME IOVERLAY, 0, STATIC
        ARGFRAME DOVERLAY, 0, STATIC
        FUNCALL zllInitiator_StartDevDisc, osal_rand
        LOCFRAME ISTACK, 0, STACK
        LOCFRAME PSTACK, 0, STACK
        LOCFRAME XSTACK, 17, STACK
        LOCFRAME IOVERLAY, 0, STATIC
        LOCFRAME DOVERLAY, 0, STATIC
        ARGFRAME ISTACK, 0, STACK
        ARGFRAME PSTACK, 0, STACK
        ARGFRAME XSTACK, 17, STACK
        ARGFRAME IOVERLAY, 0, STATIC
        ARGFRAME DOVERLAY, 0, STATIC
        FUNCALL zllInitiator_StartDevDisc, osal_rand
        LOCFRAME ISTACK, 0, STACK
        LOCFRAME PSTACK, 0, STACK
        LOCFRAME XSTACK, 17, STACK
        LOCFRAME IOVERLAY, 0, STATIC
        LOCFRAME DOVERLAY, 0, STATIC
        ARGFRAME ISTACK, 0, STACK
        ARGFRAME PSTACK, 0, STACK
        ARGFRAME XSTACK, 17, STACK
        ARGFRAME IOVERLAY, 0, STATIC
        ARGFRAME DOVERLAY, 0, STATIC
        FUNCALL zllInitiator_StartDevDisc, osal_start_timerEx
        LOCFRAME ISTACK, 0, STACK
        LOCFRAME PSTACK, 0, STACK
        LOCFRAME XSTACK, 21, STACK
        LOCFRAME IOVERLAY, 0, STATIC
        LOCFRAME DOVERLAY, 0, STATIC
        ARGFRAME ISTACK, 0, STACK
        ARGFRAME PSTACK, 0, STACK
        ARGFRAME XSTACK, 21, STACK
        ARGFRAME IOVERLAY, 0, STATIC
        ARGFRAME DOVERLAY, 0, STATIC
        FUNCALL zllInitiator_StartDevDisc, zll_IsFactoryNew
        LOCFRAME ISTACK, 0, STACK
        LOCFRAME PSTACK, 0, STACK
        LOCFRAME XSTACK, 17, STACK
        LOCFRAME IOVERLAY, 0, STATIC
        LOCFRAME DOVERLAY, 0, STATIC
        ARGFRAME ISTACK, 0, STACK
        ARGFRAME PSTACK, 0, STACK
        ARGFRAME XSTACK, 17, STACK
        ARGFRAME IOVERLAY, 0, STATIC
        ARGFRAME DOVERLAY, 0, STATIC
        FUNCALL zllInitiator_StartDevDisc, NLME_SetPollRate
        LOCFRAME ISTACK, 0, STACK
        LOCFRAME PSTACK, 0, STACK
        LOCFRAME XSTACK, 17, STACK
        LOCFRAME IOVERLAY, 0, STATIC
        LOCFRAME DOVERLAY, 0, STATIC
        ARGFRAME ISTACK, 0, STACK
        ARGFRAME PSTACK, 0, STACK
        ARGFRAME XSTACK, 17, STACK
        ARGFRAME IOVERLAY, 0, STATIC
        ARGFRAME DOVERLAY, 0, STATIC
        FUNCALL zllInitiator_StartDevDisc, NLME_SetQueuedPollRate
        LOCFRAME ISTACK, 0, STACK
        LOCFRAME PSTACK, 0, STACK
        LOCFRAME XSTACK, 17, STACK
        LOCFRAME IOVERLAY, 0, STATIC
        LOCFRAME DOVERLAY, 0, STATIC
        ARGFRAME ISTACK, 0, STACK
        ARGFRAME PSTACK, 0, STACK
        ARGFRAME XSTACK, 17, STACK
        ARGFRAME IOVERLAY, 0, STATIC
        ARGFRAME DOVERLAY, 0, STATIC
        FUNCALL zllInitiator_StartDevDisc, NLME_SetResponseRate
        LOCFRAME ISTACK, 0, STACK
        LOCFRAME PSTACK, 0, STACK
        LOCFRAME XSTACK, 17, STACK
        LOCFRAME IOVERLAY, 0, STATIC
        LOCFRAME DOVERLAY, 0, STATIC
        ARGFRAME ISTACK, 0, STACK
        ARGFRAME PSTACK, 0, STACK
        ARGFRAME XSTACK, 17, STACK
        ARGFRAME IOVERLAY, 0, STATIC
        ARGFRAME DOVERLAY, 0, STATIC
        FUNCALL zllInitiator_StartDevDisc, nwk_setStateIdle
        LOCFRAME ISTACK, 0, STACK
        LOCFRAME PSTACK, 0, STACK
        LOCFRAME XSTACK, 17, STACK
        LOCFRAME IOVERLAY, 0, STATIC
        LOCFRAME DOVERLAY, 0, STATIC
        ARGFRAME ISTACK, 0, STACK
        ARGFRAME PSTACK, 0, STACK
        ARGFRAME XSTACK, 17, STACK
        ARGFRAME IOVERLAY, 0, STATIC
        ARGFRAME DOVERLAY, 0, STATIC
        FUNCALL zllInitiator_StartDevDisc, ZMacGetReq
        LOCFRAME ISTACK, 0, STACK
        LOCFRAME PSTACK, 0, STACK
        LOCFRAME XSTACK, 17, STACK
        LOCFRAME IOVERLAY, 0, STATIC
        LOCFRAME DOVERLAY, 0, STATIC
        ARGFRAME ISTACK, 0, STACK
        ARGFRAME PSTACK, 0, STACK
        ARGFRAME XSTACK, 17, STACK
        ARGFRAME IOVERLAY, 0, STATIC
        ARGFRAME DOVERLAY, 0, STATIC
        FUNCALL zllInitiator_StartDevDisc, ZMacSetReq
        LOCFRAME ISTACK, 0, STACK
        LOCFRAME PSTACK, 0, STACK
        LOCFRAME XSTACK, 17, STACK
        LOCFRAME IOVERLAY, 0, STATIC
        LOCFRAME DOVERLAY, 0, STATIC
        ARGFRAME ISTACK, 0, STACK
        ARGFRAME PSTACK, 0, STACK
        ARGFRAME XSTACK, 17, STACK
        ARGFRAME IOVERLAY, 0, STATIC
        ARGFRAME DOVERLAY, 0, STATIC
        FUNCALL zllInitiator_StartDevDisc, initiatorSendScanReq
        LOCFRAME ISTACK, 0, STACK
        LOCFRAME PSTACK, 0, STACK
        LOCFRAME XSTACK, 17, STACK
        LOCFRAME IOVERLAY, 0, STATIC
        LOCFRAME DOVERLAY, 0, STATIC
        ARGFRAME ISTACK, 0, STACK
        ARGFRAME PSTACK, 0, STACK
        ARGFRAME XSTACK, 17, STACK
        ARGFRAME IOVERLAY, 0, STATIC
        ARGFRAME DOVERLAY, 0, STATIC
        MOV     A,#-0x10
        LCALL   ?BANKED_ENTER_XDATA
          CFI DPH0 load(1, XDATA, add(CFA_XSP16, literal(-1)))
          CFI DPL0 load(1, XDATA, add(CFA_XSP16, literal(-2)))
          CFI ?BRET_EXT load(1, XDATA, add(CFA_XSP16, literal(-3)))
          CFI ?RET_HIGH load(1, XDATA, add(CFA_XSP16, literal(-4)))
          CFI ?RET_LOW load(1, XDATA, add(CFA_XSP16, literal(-5)))
          CFI R7 load(1, XDATA, add(CFA_XSP16, literal(-6)))
          CFI V7 load(1, XDATA, add(CFA_XSP16, literal(-7)))
          CFI V6 load(1, XDATA, add(CFA_XSP16, literal(-8)))
          CFI V5 load(1, XDATA, add(CFA_XSP16, literal(-9)))
          CFI V4 load(1, XDATA, add(CFA_XSP16, literal(-10)))
          CFI V3 load(1, XDATA, add(CFA_XSP16, literal(-11)))
          CFI V2 load(1, XDATA, add(CFA_XSP16, literal(-12)))
          CFI V1 load(1, XDATA, add(CFA_XSP16, literal(-13)))
          CFI V0 load(1, XDATA, add(CFA_XSP16, literal(-14)))
          CFI VB load(1, XDATA, add(CFA_XSP16, literal(-15)))
          CFI R6 load(1, XDATA, add(CFA_XSP16, literal(-16)))
          CFI CFA_SP SP+0
          CFI CFA_XSP16 add(XSP16, 16)
        ; Saved register size: 16
        ; Auto size: 1
        MOV     A,#-0x1
        LCALL   ?ALLOC_XSTACK8
          CFI CFA_XSP16 add(XSP16, 17)
//  394   osal_clear_event( ZDAppTaskID, ZDO_NETWORK_INIT ); // in case orphaned rejoin was called
        ; Setup parameters for call to function osal_clear_event
        MOV     R2,#0x1
        MOV     R3,#0x0
        MOV     DPTR,#ZDAppTaskID
        MOVX    A,@DPTR
        MOV     R1,A
        LCALL   ??osal_clear_event?relay
//  395   ZDApp_StopJoiningCycle();
        ; Setup parameters for call to function ZDApp_StopJoiningCycle
        LCALL   ??ZDApp_StopJoiningCycle?relay
//  396   zllHAScanInitiated = FALSE;
        MOV     DPTR,#zllHAScanInitiated
        CLR     A
        MOVX    @DPTR,A
//  397   //abort any touchlink in progress and start the new dev discovery.
//  398   zllInitiator_AbortTL();
        ; Setup parameters for call to function zllInitiator_AbortTL
        LCALL   ??zllInitiator_AbortTL?relay
//  399 
//  400   // To perform device discovery, switch to channel 11 and broadcast five
//  401   // consecutive inter-PAN Scan Requests. Then switch to each remaining
//  402   // ZLL channels in turn (i.e., 15, 20, and 25) and broadcast a single
//  403   // inter-PAN Scan Request on each channel.
//  404   if ( !osal_get_timeoutEx( zllInitiator_TaskID, ZLL_TL_SCAN_BASE_EVT ) )
        ; Setup parameters for call to function osal_get_timeoutEx
        MOV     R2,#0x40
        MOV     R3,#0x0
        MOV     DPTR,#zllInitiator_TaskID
        MOVX    A,@DPTR
        MOV     R1,A
        LCALL   ??osal_get_timeoutEx?relay
        MOV     A,R2
        ORL     A,R3
        ORL     A,R4
        ORL     A,R5
        JZ      $+5
        LJMP    ??zllInitiator_StartDevDisc_0 & 0xFFFF
//  405   {
//  406     uint8 x = TRUE;
        MOV     DPL,?XSP + 0
        MOV     DPH,?XSP + 1
        MOV     A,#0x1
        MOVX    @DPTR,A
//  407 
//  408     // Generate a new Transaction Id
//  409     zllTransID = ( ( (uint32)osal_rand() ) << 16 ) + osal_rand();
        ; Setup parameters for call to function osal_rand
        LCALL   ??osal_rand?relay
        MOV     ?V0 + 4,R2
        MOV     ?V0 + 5,R3
        CLR     A
        MOV     ?V0 + 6,A
        MOV     ?V0 + 7,A
        MOV     A,#0x10
        MOV     R0,#?V0 + 4
        LCALL   ?L_SHL
        ; Setup parameters for call to function osal_rand
        LCALL   ??osal_rand?relay
        MOV     ?V0 + 0,R2
        MOV     ?V0 + 1,R3
        CLR     A
        MOV     ?V0 + 2,A
        MOV     ?V0 + 3,A
        MOV     R0,#?V0 + 4
        MOV     R1,#?V0 + 0
        LCALL   ?L_ADD
        MOV     DPTR,#zllTransID
        MOV     R0,#?V0 + 4
        LCALL   ?L_MOV_TO_X
//  410     osal_start_timerEx( zllInitiator_TaskID, ZLL_TRANS_LIFETIME_EXPIRED_EVT,
//  411                         ZLL_APLC_INTER_PAN_TRANS_ID_LIFETIME );
        ; Setup parameters for call to function osal_start_timerEx
        MOV     DPTR,#__Constant_1f40
        LCALL   ?PUSH_XSTACK8_X_FOUR
          CFI CFA_XSP16 add(XSP16, 21)
        MOV     R2,#0x20
        MOV     R3,#0x0
        MOV     DPTR,#zllInitiator_TaskID
        MOVX    A,@DPTR
        MOV     R1,A
        LCALL   ??osal_start_timerEx?relay
        MOV     A,#0x4
        LCALL   ?DEALLOC_XSTACK8
          CFI CFA_XSP16 add(XSP16, 17)
//  412 
//  413     if ( !zll_IsFactoryNew() )
        ; Setup parameters for call to function zll_IsFactoryNew
        LCALL   ??zll_IsFactoryNew?relay
        MOV     A,R1
        JNZ     ??zllInitiator_StartDevDisc_1
//  414     {
//  415       // Turn off polling during touch-link procedure
//  416       savedPollRate = zgPollRate;
        MOV     DPTR,#zgPollRate
        LCALL   ??Subroutine42_0 & 0xFFFF
??CrossCallReturnLabel_74:
        MOV     DPTR,#savedPollRate
        LCALL   ??Subroutine39_0 & 0xFFFF
//  417       savedQueuedPollRate = zgQueuedPollRate;
??CrossCallReturnLabel_54:
        MOV     DPTR,#zgQueuedPollRate
        LCALL   ??Subroutine42_0 & 0xFFFF
??CrossCallReturnLabel_75:
        MOV     DPTR,#savedQueuedPollRate
        LCALL   ??Subroutine39_0 & 0xFFFF
//  418       savedResponsePollRate = zgResponsePollRate;
??CrossCallReturnLabel_55:
        MOV     DPTR,#zgResponsePollRate
        LCALL   ??Subroutine42_0 & 0xFFFF
??CrossCallReturnLabel_76:
        MOV     DPTR,#savedResponsePollRate
        LCALL   ??Subroutine39_0 & 0xFFFF
//  419 
//  420       NLME_SetPollRate( 0 );
??CrossCallReturnLabel_56:
        ; Setup parameters for call to function NLME_SetPollRate
        MOV     R2,#0x0
        MOV     R3,#0x0
        LCALL   ??NLME_SetPollRate?relay
//  421       NLME_SetQueuedPollRate( 0 );
        ; Setup parameters for call to function NLME_SetQueuedPollRate
        MOV     R2,#0x0
        MOV     R3,#0x0
        LCALL   ??NLME_SetQueuedPollRate?relay
//  422       NLME_SetResponseRate( 0 );
        ; Setup parameters for call to function NLME_SetResponseRate
        MOV     R2,#0x0
        MOV     R3,#0x0
        LCALL   ??NLME_SetResponseRate?relay
//  423     }
//  424 
//  425     // Set NWK task to idle
//  426     nwk_setStateIdle( TRUE );
??zllInitiator_StartDevDisc_1:
        ; Setup parameters for call to function nwk_setStateIdle
        MOV     R1,#0x1
        LCALL   ??nwk_setStateIdle?relay
//  427 
//  428     // Remember current rx state
//  429     ZMacGetReq( ZMacRxOnIdle, &savedRxOnIdle );
        ; Setup parameters for call to function ZMacGetReq
        MOV     R2,#savedRxOnIdle & 0xff
        MOV     R3,#(savedRxOnIdle >> 8) & 0xff
        MOV     R1,#0x52
        LCALL   ??ZMacGetReq?relay
//  430 
//  431     // MAC receiver should be on during touch-link procedure
//  432     ZMacSetReq( ZMacRxOnIdle, &x );
        ; Setup parameters for call to function ZMacSetReq
        MOV     DPL,?XSP + 0
        MOV     DPH,?XSP + 1
        MOV     R2,DPL
        MOV     R3,DPH
        MOV     R1,#0x52
        LCALL   ??ZMacSetReq?relay
//  433 
//  434     scanReqChannels = ZLL_SCAN_PRIMARY_CHANNELS;
        MOV     DPTR,#scanReqChannels
        MOV     A,#0x1
        MOVX    @DPTR,A
//  435     numScanReqSent = 0;
        MOV     DPTR,#numScanReqSent
        CLR     A
        MOVX    @DPTR,A
//  436 
//  437     // Send out the first Scan Request
//  438     initiatorSendScanReq( TRUE );
        ; Setup parameters for call to function initiatorSendScanReq
        MOV     R1,#0x1
        LCALL   ??initiatorSendScanReq?relay
//  439 
//  440     return ( ZSuccess );
        MOV     R1,#0x0
        SJMP    ??zllInitiator_StartDevDisc_2
//  441   }
//  442 
//  443   return ( ZFailure );
??zllInitiator_StartDevDisc_0:
        MOV     R1,#0x1
??zllInitiator_StartDevDisc_2:
        MOV     A,#0x1
          CFI EndBlock cfiBlock14
        REQUIRE ?Subroutine1
        ; // Fall through to label ?Subroutine1
//  444 }

        RSEG BANKED_CODE:CODE:NOROOT(0)
?Subroutine1:
          CFI Block cfiBlock15 Using cfiCommon0
          CFI NoFunction
          CFI CFA_SP SP+0
          CFI CFA_XSP16 add(XSP16, 17)
          CFI VB load(1, XDATA, add(CFA_XSP16, literal(-15)))
          CFI DPL0 load(1, XDATA, add(CFA_XSP16, literal(-2)))
          CFI DPH0 load(1, XDATA, add(CFA_XSP16, literal(-1)))
          CFI R6 load(1, XDATA, add(CFA_XSP16, literal(-16)))
          CFI R7 load(1, XDATA, add(CFA_XSP16, literal(-6)))
          CFI V0 load(1, XDATA, add(CFA_XSP16, literal(-14)))
          CFI V1 load(1, XDATA, add(CFA_XSP16, literal(-13)))
          CFI V2 load(1, XDATA, add(CFA_XSP16, literal(-12)))
          CFI V3 load(1, XDATA, add(CFA_XSP16, literal(-11)))
          CFI V4 load(1, XDATA, add(CFA_XSP16, literal(-10)))
          CFI V5 load(1, XDATA, add(CFA_XSP16, literal(-9)))
          CFI V6 load(1, XDATA, add(CFA_XSP16, literal(-8)))
          CFI V7 load(1, XDATA, add(CFA_XSP16, literal(-7)))
          CFI ?BRET_EXT load(1, XDATA, add(CFA_XSP16, literal(-3)))
          CFI ?RET_HIGH load(1, XDATA, add(CFA_XSP16, literal(-4)))
          CFI ?RET_LOW load(1, XDATA, add(CFA_XSP16, literal(-5)))
          CFI Invalid
        LCALL   ?DEALLOC_XSTACK8
          CFI CFA_XSP16 add(XSP16, 16)
          CFI Valid
        MOV     R7,#0x8
        LJMP    ?BANKED_LEAVE_XDATA
          CFI EndBlock cfiBlock15
//  445 
//  446 /*********************************************************************
//  447  * @fn      zllInitiator_AbortTL
//  448  *
//  449  * @brief   Abort Touch-link device discovery.
//  450  *          Successful execution could be done before Network Start/Join
//  451  *          commands are sent. Until then, since no device parameters
//  452  *          such as network settings are altered, the Touch-Link is
//  453  *          still reversible.
//  454  *
//  455  * @param   none
//  456  *
//  457  * @return  status
//  458  */

        RSEG BANKED_CODE:CODE:NOROOT(0)
//  459 ZStatus_t zllInitiator_AbortTL( void )
zllInitiator_AbortTL:
          CFI Block cfiBlock16 Using cfiCommon0
          CFI Function zllInitiator_AbortTL
        CODE
//  460 {
        FUNCALL zllInitiator_AbortTL, osal_stop_timerEx
        LOCFRAME ISTACK, 0, STACK
        LOCFRAME PSTACK, 0, STACK
        LOCFRAME XSTACK, 9, STACK
        LOCFRAME IOVERLAY, 0, STATIC
        LOCFRAME DOVERLAY, 0, STATIC
        ARGFRAME ISTACK, 0, STACK
        ARGFRAME PSTACK, 0, STACK
        ARGFRAME XSTACK, 9, STACK
        ARGFRAME IOVERLAY, 0, STATIC
        ARGFRAME DOVERLAY, 0, STATIC
        FUNCALL zllInitiator_AbortTL, osal_stop_timerEx
        LOCFRAME ISTACK, 0, STACK
        LOCFRAME PSTACK, 0, STACK
        LOCFRAME XSTACK, 9, STACK
        LOCFRAME IOVERLAY, 0, STATIC
        LOCFRAME DOVERLAY, 0, STATIC
        ARGFRAME ISTACK, 0, STACK
        ARGFRAME PSTACK, 0, STACK
        ARGFRAME XSTACK, 9, STACK
        ARGFRAME IOVERLAY, 0, STATIC
        ARGFRAME DOVERLAY, 0, STATIC
        FUNCALL zllInitiator_AbortTL, osal_stop_timerEx
        LOCFRAME ISTACK, 0, STACK
        LOCFRAME PSTACK, 0, STACK
        LOCFRAME XSTACK, 9, STACK
        LOCFRAME IOVERLAY, 0, STATIC
        LOCFRAME DOVERLAY, 0, STATIC
        ARGFRAME ISTACK, 0, STACK
        ARGFRAME PSTACK, 0, STACK
        ARGFRAME XSTACK, 9, STACK
        ARGFRAME IOVERLAY, 0, STATIC
        ARGFRAME DOVERLAY, 0, STATIC
        FUNCALL zllInitiator_AbortTL, osal_stop_timerEx
        LOCFRAME ISTACK, 0, STACK
        LOCFRAME PSTACK, 0, STACK
        LOCFRAME XSTACK, 9, STACK
        LOCFRAME IOVERLAY, 0, STATIC
        LOCFRAME DOVERLAY, 0, STATIC
        ARGFRAME ISTACK, 0, STACK
        ARGFRAME PSTACK, 0, STACK
        ARGFRAME XSTACK, 9, STACK
        ARGFRAME IOVERLAY, 0, STATIC
        ARGFRAME DOVERLAY, 0, STATIC
        FUNCALL zllInitiator_AbortTL, initiatorSetNwkToInitState
        LOCFRAME ISTACK, 0, STACK
        LOCFRAME PSTACK, 0, STACK
        LOCFRAME XSTACK, 9, STACK
        LOCFRAME IOVERLAY, 0, STATIC
        LOCFRAME DOVERLAY, 0, STATIC
        ARGFRAME ISTACK, 0, STACK
        ARGFRAME PSTACK, 0, STACK
        ARGFRAME XSTACK, 9, STACK
        ARGFRAME IOVERLAY, 0, STATIC
        ARGFRAME DOVERLAY, 0, STATIC
        FUNCALL zllInitiator_AbortTL, initiatorClearSelectedTarget
        LOCFRAME ISTACK, 0, STACK
        LOCFRAME PSTACK, 0, STACK
        LOCFRAME XSTACK, 9, STACK
        LOCFRAME IOVERLAY, 0, STATIC
        LOCFRAME DOVERLAY, 0, STATIC
        ARGFRAME ISTACK, 0, STACK
        ARGFRAME PSTACK, 0, STACK
        ARGFRAME XSTACK, 9, STACK
        ARGFRAME IOVERLAY, 0, STATIC
        ARGFRAME DOVERLAY, 0, STATIC
        MOV     A,#-0x9
        LCALL   ?BANKED_ENTER_XDATA
          CFI DPH0 load(1, XDATA, add(CFA_XSP16, literal(-1)))
          CFI DPL0 load(1, XDATA, add(CFA_XSP16, literal(-2)))
          CFI ?BRET_EXT load(1, XDATA, add(CFA_XSP16, literal(-3)))
          CFI ?RET_HIGH load(1, XDATA, add(CFA_XSP16, literal(-4)))
          CFI ?RET_LOW load(1, XDATA, add(CFA_XSP16, literal(-5)))
          CFI R7 load(1, XDATA, add(CFA_XSP16, literal(-6)))
          CFI V0 load(1, XDATA, add(CFA_XSP16, literal(-7)))
          CFI VB load(1, XDATA, add(CFA_XSP16, literal(-8)))
          CFI R6 load(1, XDATA, add(CFA_XSP16, literal(-9)))
          CFI CFA_SP SP+0
          CFI CFA_XSP16 add(XSP16, 9)
        ; Saved register size: 9
        ; Auto size: 0
//  461   if ( ( osal_stop_timerEx( zllInitiator_TaskID, ZLL_TL_SCAN_BASE_EVT ) == SUCCESS )
//  462        || ( osal_stop_timerEx( zllInitiator_TaskID, ZLL_CFG_TARGET_EVT ) == SUCCESS )
//  463        || ( osal_stop_timerEx( zllInitiator_TaskID, ZLL_W4_NWK_START_RSP_EVT ) == SUCCESS )
//  464        || ( osal_stop_timerEx( zllInitiator_TaskID, ZLL_W4_NWK_JOIN_RSP_EVT ) == SUCCESS ) )
        ; Setup parameters for call to function osal_stop_timerEx
        MOV     R2,#0x40
        MOV     R3,#0x0
        MOV     DPTR,#zllInitiator_TaskID
        MOVX    A,@DPTR
        MOV     R1,A
        LCALL   ??osal_stop_timerEx?relay
        MOV     A,R1
        JZ      ??zllInitiator_AbortTL_0
        ; Setup parameters for call to function osal_stop_timerEx
        MOV     R2,#-0x80
        MOV     R3,#0x0
        MOV     DPTR,#zllInitiator_TaskID
        MOVX    A,@DPTR
        MOV     R1,A
        LCALL   ??osal_stop_timerEx?relay
        MOV     A,R1
        JZ      ??zllInitiator_AbortTL_0
        ; Setup parameters for call to function osal_stop_timerEx
        MOV     R2,#0x0
        MOV     R3,#0x1
        MOV     DPTR,#zllInitiator_TaskID
        MOVX    A,@DPTR
        MOV     R1,A
        LCALL   ??osal_stop_timerEx?relay
        MOV     A,R1
        JZ      ??zllInitiator_AbortTL_0
        ; Setup parameters for call to function osal_stop_timerEx
        MOV     R2,#0x0
        MOV     R3,#0x2
        MOV     DPTR,#zllInitiator_TaskID
        MOVX    A,@DPTR
        MOV     R1,A
        LCALL   ??osal_stop_timerEx?relay
        MOV     A,R1
        JNZ     ??zllInitiator_AbortTL_1
//  465   {
//  466     initiatorSetNwkToInitState();
??zllInitiator_AbortTL_0:
        ; Setup parameters for call to function initiatorSetNwkToInitState
        LCALL   ??initiatorSetNwkToInitState?relay
//  467     zllTransID = 0;
        MOV     DPTR,#zllTransID
        CLR     A
        MOVX    @DPTR,A
        INC     DPTR
        MOVX    @DPTR,A
        INC     DPTR
        MOVX    @DPTR,A
        INC     DPTR
        MOVX    @DPTR,A
//  468     numScanReqSent = 0;
        MOV     DPTR,#numScanReqSent
        MOVX    @DPTR,A
//  469     initiatorClearSelectedTarget();
        ; Setup parameters for call to function initiatorClearSelectedTarget
        LCALL   ??initiatorClearSelectedTarget?relay
//  470 
//  471     return ( ZSuccess );
        MOV     R1,#0x0
        SJMP    ??zllInitiator_AbortTL_2
//  472   }
//  473 
//  474   return ( ZFailure );
??zllInitiator_AbortTL_1:
        MOV     R1,#0x1
??zllInitiator_AbortTL_2:
        LJMP    ?Subroutine2 & 0xFFFF
          CFI EndBlock cfiBlock16
//  475 }
//  476 
//  477 /*********************************************************************
//  478  * @fn      initiatorProcessStateChange
//  479  *
//  480  * @brief   Process ZDO device state change
//  481  *
//  482  * @param   state - The device's network state
//  483  *
//  484  * @return  none
//  485  */
//  486 static void initiatorProcessStateChange( devStates_t state )
//  487 {
//  488   if ( ( state == DEV_ROUTER ) || ( state == DEV_END_DEVICE ) )
//  489   {
//  490     // Save the latest NIB to update our parent's address
//  491     zll_UpdateNV( ZLL_UPDATE_NV_NIB );
//  492 
//  493     if ( ZSTACK_ROUTER_BUILD )
//  494     {
//  495       ZDP_DeviceAnnce( NLME_GetShortAddr(), NLME_GetExtAddr(),
//  496                        ZDO_Config_Node_Descriptor.CapabilityFlags, 0 );
//  497     }
//  498 
//  499     // We found our parent
//  500     osal_stop_timerEx( zllInitiator_TaskID, ZLL_W4_REJOIN_EVT );
//  501   }
//  502   else if ( ( state == DEV_NWK_ORPHAN ) || ( state == DEV_NWK_DISC ) )
//  503   {
//  504     // Device has lost information about its parent; give it some time to rejoin
//  505     if ( !osal_get_timeoutEx( zllInitiator_TaskID, ZLL_W4_REJOIN_EVT ) )
//  506     {
//  507       osal_start_timerEx( zllInitiator_TaskID, ZLL_W4_REJOIN_EVT,
//  508                           (NUM_DISC_ATTEMPTS + 1) * ZLL_INITIATOR_REJOIN_TIMEOUT );
//  509     }
//  510   }
//  511 }
//  512 
//  513 /*********************************************************************
//  514  * @fn          zllInitiator_Init
//  515  *
//  516  * @brief       Initialization function for the ZLL Initiator task.
//  517  *
//  518  * @param       task_id - ZLL Initiator task id
//  519  *
//  520  * @return      none
//  521  */

        RSEG BANKED_CODE:CODE:NOROOT(0)
//  522 void zllInitiator_Init( uint8 task_id )
zllInitiator_Init:
          CFI Block cfiBlock17 Using cfiCommon0
          CFI Function zllInitiator_Init
        CODE
//  523 {
        FUNCALL zllInitiator_Init, zll_SetZllTaskId
        LOCFRAME ISTACK, 0, STACK
        LOCFRAME PSTACK, 0, STACK
        LOCFRAME XSTACK, 9, STACK
        LOCFRAME IOVERLAY, 0, STATIC
        LOCFRAME DOVERLAY, 0, STATIC
        ARGFRAME ISTACK, 0, STACK
        ARGFRAME PSTACK, 0, STACK
        ARGFRAME XSTACK, 9, STACK
        ARGFRAME IOVERLAY, 0, STATIC
        ARGFRAME DOVERLAY, 0, STATIC
        FUNCALL zllInitiator_Init, zll_InitVariables
        LOCFRAME ISTACK, 0, STACK
        LOCFRAME PSTACK, 0, STACK
        LOCFRAME XSTACK, 9, STACK
        LOCFRAME IOVERLAY, 0, STATIC
        LOCFRAME DOVERLAY, 0, STATIC
        ARGFRAME ISTACK, 0, STACK
        ARGFRAME PSTACK, 0, STACK
        ARGFRAME XSTACK, 9, STACK
        ARGFRAME IOVERLAY, 0, STATIC
        ARGFRAME DOVERLAY, 0, STATIC
        FUNCALL zllInitiator_Init, initiatorClearSelectedTarget
        LOCFRAME ISTACK, 0, STACK
        LOCFRAME PSTACK, 0, STACK
        LOCFRAME XSTACK, 9, STACK
        LOCFRAME IOVERLAY, 0, STATIC
        LOCFRAME DOVERLAY, 0, STATIC
        ARGFRAME ISTACK, 0, STACK
        ARGFRAME PSTACK, 0, STACK
        ARGFRAME XSTACK, 9, STACK
        ARGFRAME IOVERLAY, 0, STATIC
        ARGFRAME DOVERLAY, 0, STATIC
        FUNCALL zllInitiator_Init, zcl_registerForMsg
        LOCFRAME ISTACK, 0, STACK
        LOCFRAME PSTACK, 0, STACK
        LOCFRAME XSTACK, 9, STACK
        LOCFRAME IOVERLAY, 0, STATIC
        LOCFRAME DOVERLAY, 0, STATIC
        ARGFRAME ISTACK, 0, STACK
        ARGFRAME PSTACK, 0, STACK
        ARGFRAME XSTACK, 9, STACK
        ARGFRAME IOVERLAY, 0, STATIC
        ARGFRAME DOVERLAY, 0, STATIC
        FUNCALL zllInitiator_Init, zclLL_RegisterInterPANCmdCallbacks
        LOCFRAME ISTACK, 0, STACK
        LOCFRAME PSTACK, 0, STACK
        LOCFRAME XSTACK, 9, STACK
        LOCFRAME IOVERLAY, 0, STATIC
        LOCFRAME DOVERLAY, 0, STATIC
        ARGFRAME ISTACK, 0, STACK
        ARGFRAME PSTACK, 0, STACK
        ARGFRAME XSTACK, 9, STACK
        ARGFRAME IOVERLAY, 0, STATIC
        ARGFRAME DOVERLAY, 0, STATIC
        FUNCALL zllInitiator_Init, ZDO_RegisterForZdoCB
        LOCFRAME ISTACK, 0, STACK
        LOCFRAME PSTACK, 0, STACK
        LOCFRAME XSTACK, 9, STACK
        LOCFRAME IOVERLAY, 0, STATIC
        LOCFRAME DOVERLAY, 0, STATIC
        ARGFRAME ISTACK, 0, STACK
        ARGFRAME PSTACK, 0, STACK
        ARGFRAME XSTACK, 9, STACK
        ARGFRAME IOVERLAY, 0, STATIC
        ARGFRAME DOVERLAY, 0, STATIC
        FUNCALL zllInitiator_Init, ZDO_RegisterForZDOMsg
        LOCFRAME ISTACK, 0, STACK
        LOCFRAME PSTACK, 0, STACK
        LOCFRAME XSTACK, 9, STACK
        LOCFRAME IOVERLAY, 0, STATIC
        LOCFRAME DOVERLAY, 0, STATIC
        ARGFRAME ISTACK, 0, STACK
        ARGFRAME PSTACK, 0, STACK
        ARGFRAME XSTACK, 9, STACK
        ARGFRAME IOVERLAY, 0, STATIC
        ARGFRAME DOVERLAY, 0, STATIC
        FUNCALL zllInitiator_Init, ZDO_RegisterForZDOMsg
        LOCFRAME ISTACK, 0, STACK
        LOCFRAME PSTACK, 0, STACK
        LOCFRAME XSTACK, 9, STACK
        LOCFRAME IOVERLAY, 0, STATIC
        LOCFRAME DOVERLAY, 0, STATIC
        ARGFRAME ISTACK, 0, STACK
        ARGFRAME PSTACK, 0, STACK
        ARGFRAME XSTACK, 9, STACK
        ARGFRAME IOVERLAY, 0, STATIC
        ARGFRAME DOVERLAY, 0, STATIC
        MOV     A,#-0x9
        LCALL   ?BANKED_ENTER_XDATA
          CFI DPH0 load(1, XDATA, add(CFA_XSP16, literal(-1)))
          CFI DPL0 load(1, XDATA, add(CFA_XSP16, literal(-2)))
          CFI ?BRET_EXT load(1, XDATA, add(CFA_XSP16, literal(-3)))
          CFI ?RET_HIGH load(1, XDATA, add(CFA_XSP16, literal(-4)))
          CFI ?RET_LOW load(1, XDATA, add(CFA_XSP16, literal(-5)))
          CFI R7 load(1, XDATA, add(CFA_XSP16, literal(-6)))
          CFI V0 load(1, XDATA, add(CFA_XSP16, literal(-7)))
          CFI VB load(1, XDATA, add(CFA_XSP16, literal(-8)))
          CFI R6 load(1, XDATA, add(CFA_XSP16, literal(-9)))
          CFI CFA_SP SP+0
          CFI CFA_XSP16 add(XSP16, 9)
        ; Saved register size: 9
        ; Auto size: 0
        MOV     A,R1
//  524   // Save our own Task ID
//  525   zllInitiator_TaskID = task_id;
        MOV     DPTR,#zllInitiator_TaskID
        MOVX    @DPTR,A
//  526 
//  527   zll_SetZllTaskId( zllInitiator_TaskID );
        ; Setup parameters for call to function zll_SetZllTaskId
        LCALL   ??zll_SetZllTaskId?relay
//  528 
//  529 
//  530   // Build a broadcast address for the Scan Request
//  531   bcastAddr.addrMode = afAddrBroadcast;
        MOV     DPTR,#bcastAddr + 8
        MOV     A,#0xf
        MOVX    @DPTR,A
//  532   bcastAddr.addr.shortAddr = NWK_BROADCAST_SHORTADDR_DEVALL;
        MOV     DPTR,#bcastAddr
        MOV     A,#-0x1
        MOVX    @DPTR,A
        INC     DPTR
        MOVX    @DPTR,A
//  533   bcastAddr.panId = 0xFFFF;
        MOV     DPTR,#bcastAddr + 10
        MOVX    @DPTR,A
        INC     DPTR
        MOVX    @DPTR,A
//  534   bcastAddr.endPoint = STUBAPS_INTER_PAN_EP;
        MOV     DPTR,#bcastAddr + 9
        DEC     A
        MOVX    @DPTR,A
//  535 
//  536   // Initialize ZLL common variables
//  537   zll_InitVariables( TRUE );
        ; Setup parameters for call to function zll_InitVariables
        MOV     R1,#0x1
        LCALL   ??zll_InitVariables?relay
//  538 
//  539   savedPollRate = POLL_RATE;
        MOV     DPTR,#savedPollRate
        MOV     A,#-0x18
        MOVX    @DPTR,A
        INC     DPTR
        MOV     A,#0x3
        MOVX    @DPTR,A
//  540   savedQueuedPollRate = QUEUED_POLL_RATE;
        MOV     DPTR,#savedQueuedPollRate
        MOV     A,#0x64
        MOVX    @DPTR,A
        INC     DPTR
        CLR     A
        MOVX    @DPTR,A
//  541   savedResponsePollRate = RESPONSE_POLL_RATE;
        MOV     DPTR,#savedResponsePollRate
        MOV     A,#0x64
        MOVX    @DPTR,A
        INC     DPTR
        CLR     A
        MOVX    @DPTR,A
//  542 
//  543   numScanReqSent = 0;
        MOV     DPTR,#numScanReqSent
        MOVX    @DPTR,A
//  544   initiatorClearSelectedTarget();
        ; Setup parameters for call to function initiatorClearSelectedTarget
        LCALL   ??initiatorClearSelectedTarget?relay
//  545   scanReqChannels = ZLL_SCAN_PRIMARY_CHANNELS;
        MOV     DPTR,#scanReqChannels
        MOV     A,#0x1
        MOVX    @DPTR,A
//  546 
//  547   initiatorSeqNum = 0;
        MOV     DPTR,#initiatorSeqNum
        CLR     A
        MOVX    @DPTR,A
//  548 
//  549   // Register to receive the unprocessed Foundation command/response messages
//  550   zcl_registerForMsg( zllInitiator_TaskID );
        ; Setup parameters for call to function zcl_registerForMsg
        MOV     DPTR,#zllInitiator_TaskID
        MOVX    A,@DPTR
        MOV     R1,A
        LCALL   ??zcl_registerForMsg?relay
//  551 
//  552   // Register for ZLL Initiator callbacks (for Inter-PAN commands)
//  553   zclLL_RegisterInterPANCmdCallbacks( &zllInitiator_CmdCBs );
        ; Setup parameters for call to function zclLL_RegisterInterPANCmdCallbacks
        MOV     R2,#zllInitiator_CmdCBs & 0xff
        MOV     R3,#(zllInitiator_CmdCBs >> 8) & 0xff
        LCALL   ??zclLL_RegisterInterPANCmdCallbacks?relay
//  554 
//  555   // Register for Initiator to receive Leave Confirm
//  556   ZDO_RegisterForZdoCB( ZDO_LEAVE_CNF_CBID, initiatorZdoLeaveCnfCB );
        ; Setup parameters for call to function ZDO_RegisterForZdoCB
        MOV     R2,#??initiatorZdoLeaveCnfCB?relay & 0xff
        MOV     R3,#(??initiatorZdoLeaveCnfCB?relay >> 8) & 0xff
        MOV     R1,#0x5
        LCALL   ??ZDO_RegisterForZdoCB?relay
//  557 
//  558 #if (ZSTACK_ROUTER_BUILD)
//  559   // Register to process ZDO messages
//  560   ZDO_RegisterForZDOMsg( zllInitiator_TaskID, Mgmt_Permit_Join_req );
        ; Setup parameters for call to function ZDO_RegisterForZDOMsg
        MOV     R2,#0x36
        MOV     R3,#0x0
        MOV     DPTR,#zllInitiator_TaskID
        MOVX    A,@DPTR
        MOV     R1,A
        LCALL   ??ZDO_RegisterForZDOMsg?relay
//  561   ZDO_RegisterForZDOMsg( zllInitiator_TaskID, Device_annce );
        ; Setup parameters for call to function ZDO_RegisterForZDOMsg
        MOV     R2,#0x13
        MOV     R3,#0x0
        MOV     DPTR,#zllInitiator_TaskID
        MOVX    A,@DPTR
        MOV     R1,A
        LCALL   ??ZDO_RegisterForZDOMsg?relay
//  562 #endif
//  563 }
        LJMP    ?Subroutine2 & 0xFFFF
          CFI EndBlock cfiBlock17
//  564 
//  565 /*********************************************************************
//  566  * @fn      zllInitiator_RegisterApp
//  567  *
//  568  * @brief   Register an Application's EndPoint with the ZLL profile.
//  569  *
//  570  * @param   simpleDesc - application simple description
//  571  * @param   pDeviceInfo - ZLL application device info
//  572  *
//  573  * @return  ZSuccess - Registered
//  574  *          ZInvalidParameter - invalid or duplicate endpoint
//  575  *          ZMemError - not enough memory to add
//  576  */

        RSEG BANKED_CODE:CODE:NOROOT(0)
//  577 ZStatus_t zllInitiator_RegisterApp( SimpleDescriptionFormat_t *simpleDesc, zclLLDeviceInfo_t *pDeviceInfo )
zllInitiator_RegisterApp:
          CFI Block cfiBlock18 Using cfiCommon0
          CFI Function zllInitiator_RegisterApp
        CODE
//  578 {
        FUNCALL zllInitiator_RegisterApp, zll_RegisterApp
        LOCFRAME ISTACK, 2, STACK
        LOCFRAME PSTACK, 0, STACK
        LOCFRAME XSTACK, 0, STACK
        LOCFRAME IOVERLAY, 0, STATIC
        LOCFRAME DOVERLAY, 0, STATIC
        ARGFRAME ISTACK, 2, STACK
        ARGFRAME PSTACK, 0, STACK
        ARGFRAME XSTACK, 0, STACK
        ARGFRAME IOVERLAY, 0, STATIC
        ARGFRAME DOVERLAY, 0, STATIC
        PUSH    DPL
          CFI DPL0 Frame(CFA_SP, 4)
          CFI CFA_SP SP+-4
        PUSH    DPH
          CFI DPH0 Frame(CFA_SP, 5)
          CFI CFA_SP SP+-5
        ; Saved register size: 2
        ; Auto size: 0
//  579   return zll_RegisterApp( simpleDesc, pDeviceInfo );
        ; Setup parameters for call to function zll_RegisterApp
        LCALL   ??zll_RegisterApp?relay
        SJMP    ??Subroutine35_0
          CFI EndBlock cfiBlock18
//  580 }

        RSEG BANKED_CODE:CODE:NOROOT(0)
?Subroutine0:
          CFI Block cfiBlock19 Using cfiCommon0
          CFI NoFunction
          CFI CFA_SP SP+-5
          CFI DPL0 Frame(CFA_SP, 4)
          CFI DPH0 Frame(CFA_SP, 5)
        MOV     A,R2
        MOVX    @DPTR,A
        INC     DPTR
        MOV     A,R3
          CFI EndBlock cfiBlock19
        REQUIRE ??Subroutine34_0
        ; // Fall through to label ??Subroutine34_0

        RSEG BANKED_CODE:CODE:NOROOT(0)
??Subroutine34_0:
          CFI Block cfiBlock20 Using cfiCommon0
          CFI NoFunction
          CFI CFA_SP SP+-5
          CFI DPL0 Frame(CFA_SP, 4)
          CFI DPH0 Frame(CFA_SP, 5)
        MOVX    @DPTR,A
          CFI EndBlock cfiBlock20
        REQUIRE ??Subroutine35_0
        ; // Fall through to label ??Subroutine35_0

        RSEG BANKED_CODE:CODE:NOROOT(0)
??Subroutine35_0:
          CFI Block cfiBlock21 Using cfiCommon0
          CFI NoFunction
          CFI CFA_SP SP+-5
          CFI DPL0 Frame(CFA_SP, 4)
          CFI DPH0 Frame(CFA_SP, 5)
        POP     DPH
          CFI CFA_SP SP+-4
          CFI DPH0 SameValue
        POP     DPL
          CFI CFA_SP SP+-3
          CFI DPL0 SameValue
        LJMP    ?BRET
          CFI EndBlock cfiBlock21
//  581 
//  582 /*********************************************************************
//  583  * @fn      zllInitiator_RegisterForMsg
//  584  *
//  585  * @brief   Register application task to receive unprocessed messages
//  586  *          received by the initiator endpoint.
//  587  *
//  588  * @param   taskId - task Id of the Application where commands will be sent to
//  589  *
//  590  * @return  ZSuccess if task registration successful
//  591  *********************************************************************/

        RSEG BANKED_CODE:CODE:NOROOT(0)
//  592 ZStatus_t zllInitiator_RegisterForMsg( uint8 taskId )
zllInitiator_RegisterForMsg:
          CFI Block cfiBlock22 Using cfiCommon0
          CFI Function zllInitiator_RegisterForMsg
        CODE
//  593 {
        PUSH    DPL
          CFI DPL0 Frame(CFA_SP, 4)
          CFI CFA_SP SP+-4
        PUSH    DPH
          CFI DPH0 Frame(CFA_SP, 5)
          CFI CFA_SP SP+-5
        ; Saved register size: 2
        ; Auto size: 0
        MOV     A,R1
        MOV     R0,A
//  594   if ( initiatorRegisteredMsgAppTaskID == TASK_NO_TASK )
        MOV     DPTR,#initiatorRegisteredMsgAppTaskID
        MOVX    A,@DPTR
        CPL     A
        JNZ     ??zllInitiator_RegisterForMsg_0
//  595   {
//  596     initiatorRegisteredMsgAppTaskID = taskId;
        MOV     A,R0
        MOVX    @DPTR,A
//  597     return ( ZSuccess );
        MOV     R1,#0x0
        SJMP    ??zllInitiator_RegisterForMsg_1
//  598   }
//  599   return ( ZFailure );
??zllInitiator_RegisterForMsg_0:
        MOV     R1,#0x1
??zllInitiator_RegisterForMsg_1:
        SJMP    ??Subroutine35_0
          CFI EndBlock cfiBlock22
//  600 }
//  601 
//  602 /*********************************************************************
//  603  * @fn          zllInitiator_event_loop
//  604  *
//  605  * @brief       Event Loop Processor for ZLL Initiator.
//  606  *
//  607  * @param       task_id - task id
//  608  * @param       events - event bitmap
//  609  *
//  610  * @return      unprocessed events
//  611  */

        RSEG BANKED_CODE:CODE:NOROOT(0)
//  612 uint16 zllInitiator_event_loop( uint8 task_id, uint16 events )
zllInitiator_event_loop:
          CFI Block cfiBlock23 Using cfiCommon0
          CFI Function zllInitiator_event_loop
        CODE
//  613 {
        FUNCALL zllInitiator_event_loop, osal_msg_receive
        LOCFRAME ISTACK, 0, STACK
        LOCFRAME PSTACK, 0, STACK
        LOCFRAME XSTACK, 30, STACK
        LOCFRAME IOVERLAY, 0, STATIC
        LOCFRAME DOVERLAY, 0, STATIC
        ARGFRAME ISTACK, 0, STACK
        ARGFRAME PSTACK, 0, STACK
        ARGFRAME XSTACK, 30, STACK
        ARGFRAME IOVERLAY, 0, STATIC
        ARGFRAME DOVERLAY, 0, STATIC
        FUNCALL zllInitiator_event_loop, zllInitiator_BridgeStartNetwork
        LOCFRAME ISTACK, 0, STACK
        LOCFRAME PSTACK, 0, STACK
        LOCFRAME XSTACK, 30, STACK
        LOCFRAME IOVERLAY, 0, STATIC
        LOCFRAME DOVERLAY, 0, STATIC
        ARGFRAME ISTACK, 0, STACK
        ARGFRAME PSTACK, 0, STACK
        ARGFRAME XSTACK, 30, STACK
        ARGFRAME IOVERLAY, 0, STATIC
        ARGFRAME DOVERLAY, 0, STATIC
        FUNCALL zllInitiator_event_loop, zll_PermitJoin
        LOCFRAME ISTACK, 0, STACK
        LOCFRAME PSTACK, 0, STACK
        LOCFRAME XSTACK, 30, STACK
        LOCFRAME IOVERLAY, 0, STATIC
        LOCFRAME DOVERLAY, 0, STATIC
        ARGFRAME ISTACK, 0, STACK
        ARGFRAME PSTACK, 0, STACK
        ARGFRAME XSTACK, 30, STACK
        ARGFRAME IOVERLAY, 0, STATIC
        ARGFRAME DOVERLAY, 0, STATIC
        FUNCALL zllInitiator_event_loop, zllInitiator_ResetToFNSelectedTarget
        LOCFRAME ISTACK, 0, STACK
        LOCFRAME PSTACK, 0, STACK
        LOCFRAME XSTACK, 30, STACK
        LOCFRAME IOVERLAY, 0, STATIC
        LOCFRAME DOVERLAY, 0, STATIC
        ARGFRAME ISTACK, 0, STACK
        ARGFRAME PSTACK, 0, STACK
        ARGFRAME XSTACK, 30, STACK
        ARGFRAME IOVERLAY, 0, STATIC
        ARGFRAME DOVERLAY, 0, STATIC
        FUNCALL zllInitiator_event_loop, zllInitiator_ClassicalCommissioningStart
        LOCFRAME ISTACK, 0, STACK
        LOCFRAME PSTACK, 0, STACK
        LOCFRAME XSTACK, 30, STACK
        LOCFRAME IOVERLAY, 0, STATIC
        LOCFRAME DOVERLAY, 0, STATIC
        ARGFRAME ISTACK, 0, STACK
        ARGFRAME PSTACK, 0, STACK
        ARGFRAME XSTACK, 30, STACK
        ARGFRAME IOVERLAY, 0, STATIC
        ARGFRAME DOVERLAY, 0, STATIC
        FUNCALL zllInitiator_event_loop, zllInitiator_ChannelChange
        LOCFRAME ISTACK, 0, STACK
        LOCFRAME PSTACK, 0, STACK
        LOCFRAME XSTACK, 30, STACK
        LOCFRAME IOVERLAY, 0, STATIC
        LOCFRAME DOVERLAY, 0, STATIC
        ARGFRAME ISTACK, 0, STACK
        ARGFRAME PSTACK, 0, STACK
        ARGFRAME XSTACK, 30, STACK
        ARGFRAME IOVERLAY, 0, STATIC
        ARGFRAME DOVERLAY, 0, STATIC
        FUNCALL zllInitiator_event_loop, zllInitiator_ResetToFactoryNew
        LOCFRAME ISTACK, 0, STACK
        LOCFRAME PSTACK, 0, STACK
        LOCFRAME XSTACK, 30, STACK
        LOCFRAME IOVERLAY, 0, STATIC
        LOCFRAME DOVERLAY, 0, STATIC
        ARGFRAME ISTACK, 0, STACK
        ARGFRAME PSTACK, 0, STACK
        ARGFRAME XSTACK, 30, STACK
        ARGFRAME IOVERLAY, 0, STATIC
        ARGFRAME DOVERLAY, 0, STATIC
        FUNCALL zllInitiator_event_loop, zllInitiator_StartDevDisc
        LOCFRAME ISTACK, 0, STACK
        LOCFRAME PSTACK, 0, STACK
        LOCFRAME XSTACK, 30, STACK
        LOCFRAME IOVERLAY, 0, STATIC
        LOCFRAME DOVERLAY, 0, STATIC
        ARGFRAME ISTACK, 0, STACK
        ARGFRAME PSTACK, 0, STACK
        ARGFRAME XSTACK, 30, STACK
        ARGFRAME IOVERLAY, 0, STATIC
        ARGFRAME DOVERLAY, 0, STATIC
        FUNCALL zllInitiator_event_loop, zll_RouterProcessZDOMsg
        LOCFRAME ISTACK, 0, STACK
        LOCFRAME PSTACK, 0, STACK
        LOCFRAME XSTACK, 30, STACK
        LOCFRAME IOVERLAY, 0, STATIC
        LOCFRAME DOVERLAY, 0, STATIC
        ARGFRAME ISTACK, 0, STACK
        ARGFRAME PSTACK, 0, STACK
        ARGFRAME XSTACK, 30, STACK
        ARGFRAME IOVERLAY, 0, STATIC
        ARGFRAME DOVERLAY, 0, STATIC
        FUNCALL zllInitiator_event_loop, osal_get_timeoutEx
        LOCFRAME ISTACK, 0, STACK
        LOCFRAME PSTACK, 0, STACK
        LOCFRAME XSTACK, 30, STACK
        LOCFRAME IOVERLAY, 0, STATIC
        LOCFRAME DOVERLAY, 0, STATIC
        ARGFRAME ISTACK, 0, STACK
        ARGFRAME PSTACK, 0, STACK
        ARGFRAME XSTACK, 30, STACK
        ARGFRAME IOVERLAY, 0, STATIC
        ARGFRAME DOVERLAY, 0, STATIC
        FUNCALL zllInitiator_event_loop, osal_start_timerEx
        LOCFRAME ISTACK, 0, STACK
        LOCFRAME PSTACK, 0, STACK
        LOCFRAME XSTACK, 34, STACK
        LOCFRAME IOVERLAY, 0, STATIC
        LOCFRAME DOVERLAY, 0, STATIC
        ARGFRAME ISTACK, 0, STACK
        ARGFRAME PSTACK, 0, STACK
        ARGFRAME XSTACK, 34, STACK
        ARGFRAME IOVERLAY, 0, STATIC
        ARGFRAME DOVERLAY, 0, STATIC
        FUNCALL zllInitiator_event_loop, zll_UpdateNV
        LOCFRAME ISTACK, 0, STACK
        LOCFRAME PSTACK, 0, STACK
        LOCFRAME XSTACK, 30, STACK
        LOCFRAME IOVERLAY, 0, STATIC
        LOCFRAME DOVERLAY, 0, STATIC
        ARGFRAME ISTACK, 0, STACK
        ARGFRAME PSTACK, 0, STACK
        ARGFRAME XSTACK, 30, STACK
        ARGFRAME IOVERLAY, 0, STATIC
        ARGFRAME DOVERLAY, 0, STATIC
        FUNCALL zllInitiator_event_loop, NLME_GetExtAddr
        LOCFRAME ISTACK, 0, STACK
        LOCFRAME PSTACK, 0, STACK
        LOCFRAME XSTACK, 30, STACK
        LOCFRAME IOVERLAY, 0, STATIC
        LOCFRAME DOVERLAY, 0, STATIC
        ARGFRAME ISTACK, 0, STACK
        ARGFRAME PSTACK, 0, STACK
        ARGFRAME XSTACK, 30, STACK
        ARGFRAME IOVERLAY, 0, STATIC
        ARGFRAME DOVERLAY, 0, STATIC
        FUNCALL zllInitiator_event_loop, NLME_GetShortAddr
        LOCFRAME ISTACK, 0, STACK
        LOCFRAME PSTACK, 0, STACK
        LOCFRAME XSTACK, 30, STACK
        LOCFRAME IOVERLAY, 0, STATIC
        LOCFRAME DOVERLAY, 0, STATIC
        ARGFRAME ISTACK, 0, STACK
        ARGFRAME PSTACK, 0, STACK
        ARGFRAME XSTACK, 30, STACK
        ARGFRAME IOVERLAY, 0, STATIC
        ARGFRAME DOVERLAY, 0, STATIC
        FUNCALL zllInitiator_event_loop, ZDP_DeviceAnnce
        LOCFRAME ISTACK, 0, STACK
        LOCFRAME PSTACK, 0, STACK
        LOCFRAME XSTACK, 31, STACK
        LOCFRAME IOVERLAY, 0, STATIC
        LOCFRAME DOVERLAY, 0, STATIC
        ARGFRAME ISTACK, 0, STACK
        ARGFRAME PSTACK, 0, STACK
        ARGFRAME XSTACK, 31, STACK
        ARGFRAME IOVERLAY, 0, STATIC
        ARGFRAME DOVERLAY, 0, STATIC
        FUNCALL zllInitiator_event_loop, osal_stop_timerEx
        LOCFRAME ISTACK, 0, STACK
        LOCFRAME PSTACK, 0, STACK
        LOCFRAME XSTACK, 30, STACK
        LOCFRAME IOVERLAY, 0, STATIC
        LOCFRAME DOVERLAY, 0, STATIC
        ARGFRAME ISTACK, 0, STACK
        ARGFRAME PSTACK, 0, STACK
        ARGFRAME XSTACK, 30, STACK
        ARGFRAME IOVERLAY, 0, STATIC
        ARGFRAME DOVERLAY, 0, STATIC
        FUNCALL zllInitiator_event_loop, osal_msg_deallocate
        LOCFRAME ISTACK, 0, STACK
        LOCFRAME PSTACK, 0, STACK
        LOCFRAME XSTACK, 30, STACK
        LOCFRAME IOVERLAY, 0, STATIC
        LOCFRAME DOVERLAY, 0, STATIC
        ARGFRAME ISTACK, 0, STACK
        ARGFRAME PSTACK, 0, STACK
        ARGFRAME XSTACK, 30, STACK
        ARGFRAME IOVERLAY, 0, STATIC
        ARGFRAME DOVERLAY, 0, STATIC
        FUNCALL zllInitiator_event_loop, osal_msg_send
        LOCFRAME ISTACK, 0, STACK
        LOCFRAME PSTACK, 0, STACK
        LOCFRAME XSTACK, 30, STACK
        LOCFRAME IOVERLAY, 0, STATIC
        LOCFRAME DOVERLAY, 0, STATIC
        ARGFRAME ISTACK, 0, STACK
        ARGFRAME PSTACK, 0, STACK
        ARGFRAME XSTACK, 30, STACK
        ARGFRAME IOVERLAY, 0, STATIC
        ARGFRAME DOVERLAY, 0, STATIC
        FUNCALL zllInitiator_event_loop, zll_IsFactoryNew
        LOCFRAME ISTACK, 0, STACK
        LOCFRAME PSTACK, 0, STACK
        LOCFRAME XSTACK, 30, STACK
        LOCFRAME IOVERLAY, 0, STATIC
        LOCFRAME DOVERLAY, 0, STATIC
        ARGFRAME ISTACK, 0, STACK
        ARGFRAME PSTACK, 0, STACK
        ARGFRAME XSTACK, 30, STACK
        ARGFRAME IOVERLAY, 0, STATIC
        ARGFRAME DOVERLAY, 0, STATIC
        FUNCALL zllInitiator_event_loop, initiatorSendScanReq
        LOCFRAME ISTACK, 0, STACK
        LOCFRAME PSTACK, 0, STACK
        LOCFRAME XSTACK, 30, STACK
        LOCFRAME IOVERLAY, 0, STATIC
        LOCFRAME DOVERLAY, 0, STATIC
        ARGFRAME ISTACK, 0, STACK
        ARGFRAME PSTACK, 0, STACK
        ARGFRAME XSTACK, 30, STACK
        ARGFRAME IOVERLAY, 0, STATIC
        ARGFRAME DOVERLAY, 0, STATIC
        FUNCALL zllInitiator_event_loop, initiatorSendScanReq
        LOCFRAME ISTACK, 0, STACK
        LOCFRAME PSTACK, 0, STACK
        LOCFRAME XSTACK, 30, STACK
        LOCFRAME IOVERLAY, 0, STATIC
        LOCFRAME DOVERLAY, 0, STATIC
        ARGFRAME ISTACK, 0, STACK
        ARGFRAME PSTACK, 0, STACK
        ARGFRAME XSTACK, 30, STACK
        ARGFRAME IOVERLAY, 0, STATIC
        ARGFRAME DOVERLAY, 0, STATIC
        FUNCALL zllInitiator_event_loop, zll_IsFactoryNew
        LOCFRAME ISTACK, 0, STACK
        LOCFRAME PSTACK, 0, STACK
        LOCFRAME XSTACK, 30, STACK
        LOCFRAME IOVERLAY, 0, STATIC
        LOCFRAME DOVERLAY, 0, STATIC
        ARGFRAME ISTACK, 0, STACK
        ARGFRAME PSTACK, 0, STACK
        ARGFRAME XSTACK, 30, STACK
        ARGFRAME IOVERLAY, 0, STATIC
        ARGFRAME DOVERLAY, 0, STATIC
        FUNCALL zllInitiator_event_loop, zll_SetChannel
        LOCFRAME ISTACK, 0, STACK
        LOCFRAME PSTACK, 0, STACK
        LOCFRAME XSTACK, 30, STACK
        LOCFRAME IOVERLAY, 0, STATIC
        LOCFRAME DOVERLAY, 0, STATIC
        ARGFRAME ISTACK, 0, STACK
        ARGFRAME PSTACK, 0, STACK
        ARGFRAME XSTACK, 30, STACK
        ARGFRAME IOVERLAY, 0, STATIC
        ARGFRAME DOVERLAY, 0, STATIC
        FUNCALL zllInitiator_event_loop, zclLL_Send_IndentifyReq
        LOCFRAME ISTACK, 0, STACK
        LOCFRAME PSTACK, 0, STACK
        LOCFRAME XSTACK, 31, STACK
        LOCFRAME IOVERLAY, 0, STATIC
        LOCFRAME DOVERLAY, 0, STATIC
        ARGFRAME ISTACK, 0, STACK
        ARGFRAME PSTACK, 0, STACK
        ARGFRAME XSTACK, 31, STACK
        ARGFRAME IOVERLAY, 0, STATIC
        ARGFRAME DOVERLAY, 0, STATIC
        FUNCALL zllInitiator_event_loop, osal_start_timerEx
        LOCFRAME ISTACK, 0, STACK
        LOCFRAME PSTACK, 0, STACK
        LOCFRAME XSTACK, 34, STACK
        LOCFRAME IOVERLAY, 0, STATIC
        LOCFRAME DOVERLAY, 0, STATIC
        ARGFRAME ISTACK, 0, STACK
        ARGFRAME PSTACK, 0, STACK
        ARGFRAME XSTACK, 34, STACK
        ARGFRAME IOVERLAY, 0, STATIC
        ARGFRAME DOVERLAY, 0, STATIC
        FUNCALL zllInitiator_event_loop, osal_set_event
        LOCFRAME ISTACK, 0, STACK
        LOCFRAME PSTACK, 0, STACK
        LOCFRAME XSTACK, 30, STACK
        LOCFRAME IOVERLAY, 0, STATIC
        LOCFRAME DOVERLAY, 0, STATIC
        ARGFRAME ISTACK, 0, STACK
        ARGFRAME PSTACK, 0, STACK
        ARGFRAME XSTACK, 30, STACK
        ARGFRAME IOVERLAY, 0, STATIC
        ARGFRAME DOVERLAY, 0, STATIC
        FUNCALL zllInitiator_event_loop, zclLL_Send_IndentifyReq
        LOCFRAME ISTACK, 0, STACK
        LOCFRAME PSTACK, 0, STACK
        LOCFRAME XSTACK, 31, STACK
        LOCFRAME IOVERLAY, 0, STATIC
        LOCFRAME DOVERLAY, 0, STATIC
        ARGFRAME ISTACK, 0, STACK
        ARGFRAME PSTACK, 0, STACK
        ARGFRAME XSTACK, 31, STACK
        ARGFRAME IOVERLAY, 0, STATIC
        ARGFRAME DOVERLAY, 0, STATIC
        FUNCALL zllInitiator_event_loop, zll_IsFactoryNew
        LOCFRAME ISTACK, 0, STACK
        LOCFRAME PSTACK, 0, STACK
        LOCFRAME XSTACK, 30, STACK
        LOCFRAME IOVERLAY, 0, STATIC
        LOCFRAME DOVERLAY, 0, STATIC
        ARGFRAME ISTACK, 0, STACK
        ARGFRAME PSTACK, 0, STACK
        ARGFRAME XSTACK, 30, STACK
        ARGFRAME IOVERLAY, 0, STATIC
        ARGFRAME DOVERLAY, 0, STATIC
        FUNCALL zllInitiator_event_loop, zll_IsValidSplitFreeRanges
        LOCFRAME ISTACK, 0, STACK
        LOCFRAME PSTACK, 0, STACK
        LOCFRAME XSTACK, 30, STACK
        LOCFRAME IOVERLAY, 0, STATIC
        LOCFRAME DOVERLAY, 0, STATIC
        ARGFRAME ISTACK, 0, STACK
        ARGFRAME PSTACK, 0, STACK
        ARGFRAME XSTACK, 30, STACK
        ARGFRAME IOVERLAY, 0, STATIC
        ARGFRAME DOVERLAY, 0, STATIC
        FUNCALL zllInitiator_event_loop, initiatorSendNwkStartReq
        LOCFRAME ISTACK, 0, STACK
        LOCFRAME PSTACK, 0, STACK
        LOCFRAME XSTACK, 30, STACK
        LOCFRAME IOVERLAY, 0, STATIC
        LOCFRAME DOVERLAY, 0, STATIC
        ARGFRAME ISTACK, 0, STACK
        ARGFRAME PSTACK, 0, STACK
        ARGFRAME XSTACK, 30, STACK
        ARGFRAME IOVERLAY, 0, STATIC
        ARGFRAME DOVERLAY, 0, STATIC
        FUNCALL zllInitiator_event_loop, zll_SetChannel
        LOCFRAME ISTACK, 0, STACK
        LOCFRAME PSTACK, 0, STACK
        LOCFRAME XSTACK, 30, STACK
        LOCFRAME IOVERLAY, 0, STATIC
        LOCFRAME DOVERLAY, 0, STATIC
        ARGFRAME ISTACK, 0, STACK
        ARGFRAME PSTACK, 0, STACK
        ARGFRAME XSTACK, 30, STACK
        ARGFRAME IOVERLAY, 0, STATIC
        ARGFRAME DOVERLAY, 0, STATIC
        FUNCALL zllInitiator_event_loop, sAddrExtCmp
        LOCFRAME ISTACK, 0, STACK
        LOCFRAME PSTACK, 0, STACK
        LOCFRAME XSTACK, 30, STACK
        LOCFRAME IOVERLAY, 0, STATIC
        LOCFRAME DOVERLAY, 0, STATIC
        ARGFRAME ISTACK, 0, STACK
        ARGFRAME PSTACK, 0, STACK
        ARGFRAME XSTACK, 30, STACK
        ARGFRAME IOVERLAY, 0, STATIC
        ARGFRAME DOVERLAY, 0, STATIC
        FUNCALL zllInitiator_event_loop, zll_IsValidSplitFreeRanges
        LOCFRAME ISTACK, 0, STACK
        LOCFRAME PSTACK, 0, STACK
        LOCFRAME XSTACK, 30, STACK
        LOCFRAME IOVERLAY, 0, STATIC
        LOCFRAME DOVERLAY, 0, STATIC
        ARGFRAME ISTACK, 0, STACK
        ARGFRAME PSTACK, 0, STACK
        ARGFRAME XSTACK, 30, STACK
        ARGFRAME IOVERLAY, 0, STATIC
        ARGFRAME DOVERLAY, 0, STATIC
        FUNCALL zllInitiator_event_loop, initiatorSendNwkJoinReq
        LOCFRAME ISTACK, 0, STACK
        LOCFRAME PSTACK, 0, STACK
        LOCFRAME XSTACK, 30, STACK
        LOCFRAME IOVERLAY, 0, STATIC
        LOCFRAME DOVERLAY, 0, STATIC
        ARGFRAME ISTACK, 0, STACK
        ARGFRAME PSTACK, 0, STACK
        ARGFRAME XSTACK, 30, STACK
        ARGFRAME IOVERLAY, 0, STATIC
        ARGFRAME DOVERLAY, 0, STATIC
        FUNCALL zllInitiator_event_loop, zll_NewNwkUpdateId
        LOCFRAME ISTACK, 0, STACK
        LOCFRAME PSTACK, 0, STACK
        LOCFRAME XSTACK, 30, STACK
        LOCFRAME IOVERLAY, 0, STATIC
        LOCFRAME DOVERLAY, 0, STATIC
        ARGFRAME ISTACK, 0, STACK
        ARGFRAME PSTACK, 0, STACK
        ARGFRAME XSTACK, 30, STACK
        ARGFRAME IOVERLAY, 0, STATIC
        ARGFRAME DOVERLAY, 0, STATIC
        FUNCALL zllInitiator_event_loop, zll_ProcessNwkUpdate
        LOCFRAME ISTACK, 0, STACK
        LOCFRAME PSTACK, 0, STACK
        LOCFRAME XSTACK, 30, STACK
        LOCFRAME IOVERLAY, 0, STATIC
        LOCFRAME DOVERLAY, 0, STATIC
        ARGFRAME ISTACK, 0, STACK
        ARGFRAME PSTACK, 0, STACK
        ARGFRAME XSTACK, 30, STACK
        ARGFRAME IOVERLAY, 0, STATIC
        ARGFRAME DOVERLAY, 0, STATIC
        FUNCALL zllInitiator_event_loop, initiatorReJoinNwk
        LOCFRAME ISTACK, 0, STACK
        LOCFRAME PSTACK, 0, STACK
        LOCFRAME XSTACK, 30, STACK
        LOCFRAME IOVERLAY, 0, STATIC
        LOCFRAME DOVERLAY, 0, STATIC
        ARGFRAME ISTACK, 0, STACK
        ARGFRAME PSTACK, 0, STACK
        ARGFRAME XSTACK, 30, STACK
        ARGFRAME IOVERLAY, 0, STATIC
        ARGFRAME DOVERLAY, 0, STATIC
        FUNCALL zllInitiator_event_loop, osal_mem_alloc
        LOCFRAME ISTACK, 0, STACK
        LOCFRAME PSTACK, 0, STACK
        LOCFRAME XSTACK, 30, STACK
        LOCFRAME IOVERLAY, 0, STATIC
        LOCFRAME DOVERLAY, 0, STATIC
        ARGFRAME ISTACK, 0, STACK
        ARGFRAME PSTACK, 0, STACK
        ARGFRAME XSTACK, 30, STACK
        ARGFRAME IOVERLAY, 0, STATIC
        ARGFRAME DOVERLAY, 0, STATIC
        FUNCALL zllInitiator_event_loop, sAddrExtCpy
        LOCFRAME ISTACK, 0, STACK
        LOCFRAME PSTACK, 0, STACK
        LOCFRAME XSTACK, 30, STACK
        LOCFRAME IOVERLAY, 0, STATIC
        LOCFRAME DOVERLAY, 0, STATIC
        ARGFRAME ISTACK, 0, STACK
        ARGFRAME PSTACK, 0, STACK
        ARGFRAME XSTACK, 30, STACK
        ARGFRAME IOVERLAY, 0, STATIC
        ARGFRAME DOVERLAY, 0, STATIC
        FUNCALL zllInitiator_event_loop, zclLL_Send_NwkUpdateReq
        LOCFRAME ISTACK, 0, STACK
        LOCFRAME PSTACK, 0, STACK
        LOCFRAME XSTACK, 31, STACK
        LOCFRAME IOVERLAY, 0, STATIC
        LOCFRAME DOVERLAY, 0, STATIC
        ARGFRAME ISTACK, 0, STACK
        ARGFRAME PSTACK, 0, STACK
        ARGFRAME XSTACK, 31, STACK
        ARGFRAME IOVERLAY, 0, STATIC
        ARGFRAME DOVERLAY, 0, STATIC
        FUNCALL zllInitiator_event_loop, osal_mem_free
        LOCFRAME ISTACK, 0, STACK
        LOCFRAME PSTACK, 0, STACK
        LOCFRAME XSTACK, 30, STACK
        LOCFRAME IOVERLAY, 0, STATIC
        LOCFRAME DOVERLAY, 0, STATIC
        ARGFRAME ISTACK, 0, STACK
        ARGFRAME PSTACK, 0, STACK
        ARGFRAME XSTACK, 30, STACK
        ARGFRAME IOVERLAY, 0, STATIC
        ARGFRAME DOVERLAY, 0, STATIC
        FUNCALL zllInitiator_event_loop, osal_set_event
        LOCFRAME ISTACK, 0, STACK
        LOCFRAME PSTACK, 0, STACK
        LOCFRAME XSTACK, 30, STACK
        LOCFRAME IOVERLAY, 0, STATIC
        LOCFRAME DOVERLAY, 0, STATIC
        ARGFRAME ISTACK, 0, STACK
        ARGFRAME PSTACK, 0, STACK
        ARGFRAME XSTACK, 30, STACK
        ARGFRAME IOVERLAY, 0, STATIC
        ARGFRAME DOVERLAY, 0, STATIC
        FUNCALL zllInitiator_event_loop, MT_ZllNotifyTL
        LOCFRAME ISTACK, 0, STACK
        LOCFRAME PSTACK, 0, STACK
        LOCFRAME XSTACK, 30, STACK
        LOCFRAME IOVERLAY, 0, STATIC
        LOCFRAME DOVERLAY, 0, STATIC
        ARGFRAME ISTACK, 0, STACK
        ARGFRAME PSTACK, 0, STACK
        ARGFRAME XSTACK, 30, STACK
        ARGFRAME IOVERLAY, 0, STATIC
        ARGFRAME DOVERLAY, 0, STATIC
        FUNCALL zllInitiator_event_loop, nwk_ExtPANIDValid
        LOCFRAME ISTACK, 0, STACK
        LOCFRAME PSTACK, 0, STACK
        LOCFRAME XSTACK, 30, STACK
        LOCFRAME IOVERLAY, 0, STATIC
        LOCFRAME DOVERLAY, 0, STATIC
        ARGFRAME ISTACK, 0, STACK
        ARGFRAME PSTACK, 0, STACK
        ARGFRAME XSTACK, 30, STACK
        ARGFRAME IOVERLAY, 0, STATIC
        ARGFRAME DOVERLAY, 0, STATIC
        FUNCALL zllInitiator_event_loop, zll_SetNIB
        LOCFRAME ISTACK, 0, STACK
        LOCFRAME PSTACK, 0, STACK
        LOCFRAME XSTACK, 34, STACK
        LOCFRAME IOVERLAY, 0, STATIC
        LOCFRAME DOVERLAY, 0, STATIC
        ARGFRAME ISTACK, 0, STACK
        ARGFRAME PSTACK, 0, STACK
        ARGFRAME XSTACK, 34, STACK
        ARGFRAME IOVERLAY, 0, STATIC
        ARGFRAME DOVERLAY, 0, STATIC
        FUNCALL zllInitiator_event_loop, zll_DecryptNwkKey
        LOCFRAME ISTACK, 0, STACK
        LOCFRAME PSTACK, 0, STACK
        LOCFRAME XSTACK, 38, STACK
        LOCFRAME IOVERLAY, 0, STATIC
        LOCFRAME DOVERLAY, 0, STATIC
        ARGFRAME ISTACK, 0, STACK
        ARGFRAME PSTACK, 0, STACK
        ARGFRAME XSTACK, 38, STACK
        ARGFRAME IOVERLAY, 0, STATIC
        ARGFRAME DOVERLAY, 0, STATIC
        FUNCALL zllInitiator_event_loop, ZDSecMgrUpdateTCAddress
        LOCFRAME ISTACK, 0, STACK
        LOCFRAME PSTACK, 0, STACK
        LOCFRAME XSTACK, 30, STACK
        LOCFRAME IOVERLAY, 0, STATIC
        LOCFRAME DOVERLAY, 0, STATIC
        ARGFRAME ISTACK, 0, STACK
        ARGFRAME PSTACK, 0, STACK
        ARGFRAME XSTACK, 30, STACK
        ARGFRAME IOVERLAY, 0, STATIC
        ARGFRAME DOVERLAY, 0, STATIC
        FUNCALL zllInitiator_event_loop, osal_set_event
        LOCFRAME ISTACK, 0, STACK
        LOCFRAME PSTACK, 0, STACK
        LOCFRAME XSTACK, 30, STACK
        LOCFRAME IOVERLAY, 0, STATIC
        LOCFRAME DOVERLAY, 0, STATIC
        ARGFRAME ISTACK, 0, STACK
        ARGFRAME PSTACK, 0, STACK
        ARGFRAME XSTACK, 30, STACK
        ARGFRAME IOVERLAY, 0, STATIC
        ARGFRAME DOVERLAY, 0, STATIC
        FUNCALL zllInitiator_event_loop, osal_start_timerEx
        LOCFRAME ISTACK, 0, STACK
        LOCFRAME PSTACK, 0, STACK
        LOCFRAME XSTACK, 34, STACK
        LOCFRAME IOVERLAY, 0, STATIC
        LOCFRAME DOVERLAY, 0, STATIC
        ARGFRAME ISTACK, 0, STACK
        ARGFRAME PSTACK, 0, STACK
        ARGFRAME XSTACK, 34, STACK
        ARGFRAME IOVERLAY, 0, STATIC
        ARGFRAME DOVERLAY, 0, STATIC
        FUNCALL zllInitiator_event_loop, initiatorJoinNwk
        LOCFRAME ISTACK, 0, STACK
        LOCFRAME PSTACK, 0, STACK
        LOCFRAME XSTACK, 30, STACK
        LOCFRAME IOVERLAY, 0, STATIC
        LOCFRAME DOVERLAY, 0, STATIC
        ARGFRAME ISTACK, 0, STACK
        ARGFRAME PSTACK, 0, STACK
        ARGFRAME XSTACK, 30, STACK
        ARGFRAME IOVERLAY, 0, STATIC
        ARGFRAME DOVERLAY, 0, STATIC
        FUNCALL zllInitiator_event_loop, osal_start_timerEx
        LOCFRAME ISTACK, 0, STACK
        LOCFRAME PSTACK, 0, STACK
        LOCFRAME XSTACK, 34, STACK
        LOCFRAME IOVERLAY, 0, STATIC
        LOCFRAME DOVERLAY, 0, STATIC
        ARGFRAME ISTACK, 0, STACK
        ARGFRAME PSTACK, 0, STACK
        ARGFRAME XSTACK, 34, STACK
        ARGFRAME IOVERLAY, 0, STATIC
        ARGFRAME DOVERLAY, 0, STATIC
        FUNCALL zllInitiator_event_loop, initiatorSetNwkToInitState
        LOCFRAME ISTACK, 0, STACK
        LOCFRAME PSTACK, 0, STACK
        LOCFRAME XSTACK, 30, STACK
        LOCFRAME IOVERLAY, 0, STATIC
        LOCFRAME DOVERLAY, 0, STATIC
        ARGFRAME ISTACK, 0, STACK
        ARGFRAME PSTACK, 0, STACK
        ARGFRAME XSTACK, 30, STACK
        ARGFRAME IOVERLAY, 0, STATIC
        ARGFRAME DOVERLAY, 0, STATIC
        FUNCALL zllInitiator_event_loop, zll_UpdateNV
        LOCFRAME ISTACK, 0, STACK
        LOCFRAME PSTACK, 0, STACK
        LOCFRAME XSTACK, 30, STACK
        LOCFRAME IOVERLAY, 0, STATIC
        LOCFRAME DOVERLAY, 0, STATIC
        ARGFRAME ISTACK, 0, STACK
        ARGFRAME PSTACK, 0, STACK
        ARGFRAME XSTACK, 30, STACK
        ARGFRAME IOVERLAY, 0, STATIC
        ARGFRAME DOVERLAY, 0, STATIC
        FUNCALL zllInitiator_event_loop, zll_IsFactoryNew
        LOCFRAME ISTACK, 0, STACK
        LOCFRAME PSTACK, 0, STACK
        LOCFRAME XSTACK, 30, STACK
        LOCFRAME IOVERLAY, 0, STATIC
        LOCFRAME DOVERLAY, 0, STATIC
        ARGFRAME ISTACK, 0, STACK
        ARGFRAME PSTACK, 0, STACK
        ARGFRAME XSTACK, 30, STACK
        ARGFRAME IOVERLAY, 0, STATIC
        ARGFRAME DOVERLAY, 0, STATIC
        FUNCALL zllInitiator_event_loop, zll_SendLeaveReq
        LOCFRAME ISTACK, 0, STACK
        LOCFRAME PSTACK, 0, STACK
        LOCFRAME XSTACK, 30, STACK
        LOCFRAME IOVERLAY, 0, STATIC
        LOCFRAME DOVERLAY, 0, STATIC
        ARGFRAME ISTACK, 0, STACK
        ARGFRAME PSTACK, 0, STACK
        ARGFRAME XSTACK, 30, STACK
        ARGFRAME IOVERLAY, 0, STATIC
        ARGFRAME DOVERLAY, 0, STATIC
        FUNCALL zllInitiator_event_loop, osal_set_event
        LOCFRAME ISTACK, 0, STACK
        LOCFRAME PSTACK, 0, STACK
        LOCFRAME XSTACK, 30, STACK
        LOCFRAME IOVERLAY, 0, STATIC
        LOCFRAME DOVERLAY, 0, STATIC
        ARGFRAME ISTACK, 0, STACK
        ARGFRAME PSTACK, 0, STACK
        ARGFRAME XSTACK, 30, STACK
        ARGFRAME IOVERLAY, 0, STATIC
        ARGFRAME DOVERLAY, 0, STATIC
        FUNCALL zllInitiator_event_loop, zll_SetNIB
        LOCFRAME ISTACK, 0, STACK
        LOCFRAME PSTACK, 0, STACK
        LOCFRAME XSTACK, 34, STACK
        LOCFRAME IOVERLAY, 0, STATIC
        LOCFRAME DOVERLAY, 0, STATIC
        ARGFRAME ISTACK, 0, STACK
        ARGFRAME PSTACK, 0, STACK
        ARGFRAME XSTACK, 34, STACK
        ARGFRAME IOVERLAY, 0, STATIC
        ARGFRAME DOVERLAY, 0, STATIC
        FUNCALL zllInitiator_event_loop, zll_DecryptNwkKey
        LOCFRAME ISTACK, 0, STACK
        LOCFRAME PSTACK, 0, STACK
        LOCFRAME XSTACK, 38, STACK
        LOCFRAME IOVERLAY, 0, STATIC
        LOCFRAME DOVERLAY, 0, STATIC
        ARGFRAME ISTACK, 0, STACK
        ARGFRAME PSTACK, 0, STACK
        ARGFRAME XSTACK, 38, STACK
        ARGFRAME IOVERLAY, 0, STATIC
        ARGFRAME DOVERLAY, 0, STATIC
        FUNCALL zllInitiator_event_loop, zll_UpdateFreeRanges
        LOCFRAME ISTACK, 0, STACK
        LOCFRAME PSTACK, 0, STACK
        LOCFRAME XSTACK, 30, STACK
        LOCFRAME IOVERLAY, 0, STATIC
        LOCFRAME DOVERLAY, 0, STATIC
        ARGFRAME ISTACK, 0, STACK
        ARGFRAME PSTACK, 0, STACK
        ARGFRAME XSTACK, 30, STACK
        ARGFRAME IOVERLAY, 0, STATIC
        ARGFRAME DOVERLAY, 0, STATIC
        FUNCALL zllInitiator_event_loop, initiatorJoinNwk
        LOCFRAME ISTACK, 0, STACK
        LOCFRAME PSTACK, 0, STACK
        LOCFRAME XSTACK, 30, STACK
        LOCFRAME IOVERLAY, 0, STATIC
        LOCFRAME DOVERLAY, 0, STATIC
        ARGFRAME ISTACK, 0, STACK
        ARGFRAME PSTACK, 0, STACK
        ARGFRAME XSTACK, 30, STACK
        ARGFRAME IOVERLAY, 0, STATIC
        ARGFRAME DOVERLAY, 0, STATIC
        FUNCALL zllInitiator_event_loop, initiatorSetNwkToInitState
        LOCFRAME ISTACK, 0, STACK
        LOCFRAME PSTACK, 0, STACK
        LOCFRAME XSTACK, 30, STACK
        LOCFRAME IOVERLAY, 0, STATIC
        LOCFRAME DOVERLAY, 0, STATIC
        ARGFRAME ISTACK, 0, STACK
        ARGFRAME PSTACK, 0, STACK
        ARGFRAME XSTACK, 30, STACK
        ARGFRAME IOVERLAY, 0, STATIC
        ARGFRAME DOVERLAY, 0, STATIC
        FUNCALL zllInitiator_event_loop, initiatorClearSelectedTarget
        LOCFRAME ISTACK, 0, STACK
        LOCFRAME PSTACK, 0, STACK
        LOCFRAME XSTACK, 30, STACK
        LOCFRAME IOVERLAY, 0, STATIC
        LOCFRAME DOVERLAY, 0, STATIC
        ARGFRAME ISTACK, 0, STACK
        ARGFRAME PSTACK, 0, STACK
        ARGFRAME XSTACK, 30, STACK
        ARGFRAME IOVERLAY, 0, STATIC
        ARGFRAME DOVERLAY, 0, STATIC
        FUNCALL zllInitiator_event_loop, ZDApp_StopJoiningCycle
        LOCFRAME ISTACK, 0, STACK
        LOCFRAME PSTACK, 0, STACK
        LOCFRAME XSTACK, 30, STACK
        LOCFRAME IOVERLAY, 0, STATIC
        LOCFRAME DOVERLAY, 0, STATIC
        ARGFRAME ISTACK, 0, STACK
        ARGFRAME PSTACK, 0, STACK
        ARGFRAME XSTACK, 30, STACK
        ARGFRAME IOVERLAY, 0, STATIC
        ARGFRAME DOVERLAY, 0, STATIC
        FUNCALL zllInitiator_event_loop, MT_ZllNotifyTL
        LOCFRAME ISTACK, 0, STACK
        LOCFRAME PSTACK, 0, STACK
        LOCFRAME XSTACK, 30, STACK
        LOCFRAME IOVERLAY, 0, STATIC
        LOCFRAME DOVERLAY, 0, STATIC
        ARGFRAME ISTACK, 0, STACK
        ARGFRAME PSTACK, 0, STACK
        ARGFRAME XSTACK, 30, STACK
        ARGFRAME IOVERLAY, 0, STATIC
        ARGFRAME DOVERLAY, 0, STATIC
        FUNCALL zllInitiator_event_loop, zllInitiator_ResetToFactoryNew
        LOCFRAME ISTACK, 0, STACK
        LOCFRAME PSTACK, 0, STACK
        LOCFRAME XSTACK, 30, STACK
        LOCFRAME IOVERLAY, 0, STATIC
        LOCFRAME DOVERLAY, 0, STATIC
        ARGFRAME ISTACK, 0, STACK
        ARGFRAME PSTACK, 0, STACK
        ARGFRAME XSTACK, 30, STACK
        ARGFRAME IOVERLAY, 0, STATIC
        ARGFRAME DOVERLAY, 0, STATIC
        FUNCALL zllInitiator_event_loop, zll_ClassicalCommissioningJoinDiscoveredNwk
        LOCFRAME ISTACK, 0, STACK
        LOCFRAME PSTACK, 0, STACK
        LOCFRAME XSTACK, 30, STACK
        LOCFRAME IOVERLAY, 0, STATIC
        LOCFRAME DOVERLAY, 0, STATIC
        ARGFRAME ISTACK, 0, STACK
        ARGFRAME PSTACK, 0, STACK
        ARGFRAME XSTACK, 30, STACK
        ARGFRAME IOVERLAY, 0, STATIC
        ARGFRAME DOVERLAY, 0, STATIC
        FUNCALL zllInitiator_event_loop, initiatorClearSelectedTarget
        LOCFRAME ISTACK, 0, STACK
        LOCFRAME PSTACK, 0, STACK
        LOCFRAME XSTACK, 30, STACK
        LOCFRAME IOVERLAY, 0, STATIC
        LOCFRAME DOVERLAY, 0, STATIC
        ARGFRAME ISTACK, 0, STACK
        ARGFRAME PSTACK, 0, STACK
        ARGFRAME XSTACK, 30, STACK
        ARGFRAME IOVERLAY, 0, STATIC
        ARGFRAME DOVERLAY, 0, STATIC
        FUNCALL zllInitiator_event_loop, initiatorSetNwkToInitState
        LOCFRAME ISTACK, 0, STACK
        LOCFRAME PSTACK, 0, STACK
        LOCFRAME XSTACK, 30, STACK
        LOCFRAME IOVERLAY, 0, STATIC
        LOCFRAME DOVERLAY, 0, STATIC
        ARGFRAME ISTACK, 0, STACK
        ARGFRAME PSTACK, 0, STACK
        ARGFRAME XSTACK, 30, STACK
        ARGFRAME IOVERLAY, 0, STATIC
        ARGFRAME DOVERLAY, 0, STATIC
        MOV     A,#-0x10
        LCALL   ?BANKED_ENTER_XDATA
          CFI DPH0 load(1, XDATA, add(CFA_XSP16, literal(-1)))
          CFI DPL0 load(1, XDATA, add(CFA_XSP16, literal(-2)))
          CFI ?BRET_EXT load(1, XDATA, add(CFA_XSP16, literal(-3)))
          CFI ?RET_HIGH load(1, XDATA, add(CFA_XSP16, literal(-4)))
          CFI ?RET_LOW load(1, XDATA, add(CFA_XSP16, literal(-5)))
          CFI R7 load(1, XDATA, add(CFA_XSP16, literal(-6)))
          CFI V7 load(1, XDATA, add(CFA_XSP16, literal(-7)))
          CFI V6 load(1, XDATA, add(CFA_XSP16, literal(-8)))
          CFI V5 load(1, XDATA, add(CFA_XSP16, literal(-9)))
          CFI V4 load(1, XDATA, add(CFA_XSP16, literal(-10)))
          CFI V3 load(1, XDATA, add(CFA_XSP16, literal(-11)))
          CFI V2 load(1, XDATA, add(CFA_XSP16, literal(-12)))
          CFI V1 load(1, XDATA, add(CFA_XSP16, literal(-13)))
          CFI V0 load(1, XDATA, add(CFA_XSP16, literal(-14)))
          CFI VB load(1, XDATA, add(CFA_XSP16, literal(-15)))
          CFI R6 load(1, XDATA, add(CFA_XSP16, literal(-16)))
          CFI CFA_SP SP+0
          CFI CFA_XSP16 add(XSP16, 16)
        ; Saved register size: 16
        ; Auto size: 14
        MOV     A,#-0xe
        LCALL   ?ALLOC_XSTACK8
          CFI CFA_XSP16 add(XSP16, 30)
        MOV     A,R2
        MOV     R6,A
        MOV     A,R3
        MOV     R7,A
//  614   if ( events & SYS_EVENT_MSG )
        ANL     A,#0x80
        JNZ     $+5
        LJMP    ??zllInitiator_event_loop_0 & 0xFFFF
//  615   {
//  616     osal_event_hdr_t *pMsg;
//  617     ZStatus_t stat = ZFailure;
//  618 
//  619     if ( (pMsg = (osal_event_hdr_t *)osal_msg_receive( task_id )) != NULL )
        ; Setup parameters for call to function osal_msg_receive
        LCALL   ??osal_msg_receive?relay
        MOV     ?V0 + 0,R2
        MOV     ?V0 + 1,R3
        MOV     A,R2
        ORL     A,?V0 + 1
        JNZ     $+5
        LJMP    ??zllInitiator_event_loop_1 & 0xFFFF
//  620     {
//  621       switch ( pMsg->event )
        MOV     DPL,R2
        MOV     DPH,R3
        MOVX    A,@DPTR
        ADD     A,#-0x23
        JZ      ??zllInitiator_event_loop_2
        ADD     A,#0x52
        JNZ     $+5
        LJMP    ??zllInitiator_event_loop_3 & 0xFFFF
        ADD     A,#-0x2
        JNZ     $+5
        LJMP    ??zllInitiator_event_loop_4 & 0xFFFF
        LJMP    ??zllInitiator_event_loop_5 & 0xFFFF
//  622       {
//  623 #if defined (MT_APP_FUNC)
//  624         case MT_SYS_APP_MSG:
//  625           // Message received from MT
//  626           stat = initiatorProcessRpcMsg( ((mtSysAppMsg_t *)pMsg)->endpoint,
//  627                                          ((mtSysAppMsg_t *)pMsg)->appDataLen,
//  628                                          ((mtSysAppMsg_t *)pMsg)->appData );
??zllInitiator_event_loop_2:
        LCALL   ?Subroutine23 & 0xFFFF
??CrossCallReturnLabel_87:
        MOV     DPL,R2
        MOV     DPH,R3
        INC     DPTR
        INC     DPTR
        INC     DPTR
        MOVX    A,@DPTR
        MOV     ?V0 + 2,A
        MOV     DPL,R0
        MOV     DPH,R1
        INC     DPTR
        INC     DPTR
        INC     DPTR
        MOVX    A,@DPTR
        MOV     R4,A
        MOV     DPL,R0
        MOV     DPH,R1
        INC     DPTR
        INC     DPTR
        INC     DPTR
        INC     DPTR
        MOVX    A,@DPTR
        MOV     R3,A
        MOV     A,R4
        MOV     R2,A
        MOV     A,#-0x1
        XRL     A,R2
        JNZ     ??zllInitiator_event_loop_6
        MOV     A,#-0x1
        XRL     A,R3
??zllInitiator_event_loop_6:
        JZ      $+5
        LJMP    ??zllInitiator_event_loop_5 & 0xFFFF
        MOV     DPL,R0
        MOV     DPH,R1
        INC     DPTR
        INC     DPTR
        INC     DPTR
        INC     DPTR
        INC     DPTR
        INC     DPTR
        INC     DPTR
        INC     DPTR
        INC     DPTR
        MOVX    A,@DPTR
        DEC     A
        JZ      ??zllInitiator_event_loop_7
        DEC     A
        JZ      ??zllInitiator_event_loop_8
        DEC     A
        JZ      ??zllInitiator_event_loop_9
        DEC     A
        JZ      ??zllInitiator_event_loop_10
        DEC     A
        JZ      ??zllInitiator_event_loop_11
        DEC     A
        JZ      ??zllInitiator_event_loop_12
        DEC     A
        JZ      $+5
        LJMP    ??zllInitiator_event_loop_13 & 0xFFFF
        ; Setup parameters for call to function zllInitiator_BridgeStartNetwork
        LCALL   ??zllInitiator_BridgeStartNetwork?relay
        LJMP    ??zllInitiator_event_loop_13 & 0xFFFF
??zllInitiator_event_loop_11:
        MOV     A,?V0 + 2
        CLR     C
        SUBB    A,#0x9
        JC      ??zllInitiator_event_loop_14
        MOV     DPL,R0
        MOV     DPH,R1
        INC     DPTR
        INC     DPTR
        INC     DPTR
        INC     DPTR
        INC     DPTR
        INC     DPTR
        INC     DPTR
        INC     DPTR
        INC     DPTR
        INC     DPTR
        MOVX    A,@DPTR
        MOV     R1,A
        SJMP    ??zllInitiator_event_loop_15
??zllInitiator_event_loop_14:
        MOV     R1,#0x0
??zllInitiator_event_loop_15:
        ; Setup parameters for call to function zll_PermitJoin
        LCALL   ??zll_PermitJoin?relay
        LJMP    ??zllInitiator_event_loop_13 & 0xFFFF
??zllInitiator_event_loop_12:
        ; Setup parameters for call to function zllInitiator_ResetToFNSelectedTarget
        LCALL   ??zllInitiator_ResetToFNSelectedTarget?relay
        LJMP    ??zllInitiator_event_loop_13 & 0xFFFF
??zllInitiator_event_loop_10:
        ; Setup parameters for call to function zllInitiator_ClassicalCommissioningStart
        LCALL   ??zllInitiator_ClassicalCommissioningStart?rela
        LJMP    ??zllInitiator_event_loop_13 & 0xFFFF
??zllInitiator_event_loop_9:
        MOV     A,?V0 + 2
        CLR     C
        SUBB    A,#0x9
        JC      ??zllInitiator_event_loop_16
        MOV     DPL,R0
        MOV     DPH,R1
        INC     DPTR
        INC     DPTR
        INC     DPTR
        INC     DPTR
        INC     DPTR
        INC     DPTR
        INC     DPTR
        INC     DPTR
        INC     DPTR
        INC     DPTR
        MOVX    A,@DPTR
        MOV     R1,A
        SJMP    ??zllInitiator_event_loop_17
??zllInitiator_event_loop_16:
        MOV     R1,#0x0
??zllInitiator_event_loop_17:
        ; Setup parameters for call to function zllInitiator_ChannelChange
        LCALL   ??zllInitiator_ChannelChange?relay
        LJMP    ??zllInitiator_event_loop_13 & 0xFFFF
??zllInitiator_event_loop_8:
        ; Setup parameters for call to function zllInitiator_ResetToFactoryNew
        LCALL   ??zllInitiator_ResetToFactoryNew?relay
        LJMP    ??zllInitiator_event_loop_13 & 0xFFFF
??zllInitiator_event_loop_7:
        ; Setup parameters for call to function zllInitiator_StartDevDisc
        LCALL   ??zllInitiator_StartDevDisc?relay
        SJMP    ??zllInitiator_event_loop_13
//  629           break;
//  630 #endif
//  631 #if (ZSTACK_ROUTER_BUILD)
//  632         case ZDO_CB_MSG:
//  633           // ZDO sends the message that we registered for
//  634           zll_RouterProcessZDOMsg( (zdoIncomingMsg_t *)pMsg );
??zllInitiator_event_loop_4:
        ; Setup parameters for call to function zll_RouterProcessZDOMsg
        LCALL   ??zll_RouterProcessZDOMsg?relay
        SJMP    ??zllInitiator_event_loop_13
//  635           stat = ZSuccess;
//  636           break;
//  637 #endif
//  638         case ZDO_STATE_CHANGE:
//  639           initiatorProcessStateChange( (devStates_t)pMsg->status );
??zllInitiator_event_loop_3:
        INC     DPTR
        MOVX    A,@DPTR
        MOV     R0,A
        MOV     A,#0x7
        XRL     A,R0
        JZ      ??zllInitiator_event_loop_18
        MOV     A,#0x6
        XRL     A,R0
        JZ      ??zllInitiator_event_loop_18
        MOV     A,#0xa
        XRL     A,R0
        JZ      ??zllInitiator_event_loop_19
        MOV     A,#0x2
        XRL     A,R0
        JNZ     ??zllInitiator_event_loop_13
??zllInitiator_event_loop_19:
        ; Setup parameters for call to function osal_get_timeoutEx
        MOV     R2,#0x0
        MOV     R3,#0x8
        MOV     DPTR,#zllInitiator_TaskID
        MOVX    A,@DPTR
        MOV     R1,A
        LCALL   ??osal_get_timeoutEx?relay
        MOV     A,R2
        ORL     A,R3
        ORL     A,R4
        ORL     A,R5
        JNZ     ??zllInitiator_event_loop_13
        ; Setup parameters for call to function osal_start_timerEx
        MOV     DPTR,#__Constant_1d4c
        LCALL   ?PUSH_XSTACK8_X_FOUR
          CFI CFA_XSP16 add(XSP16, 34)
        MOV     R2,#0x0
        MOV     R3,#0x8
        MOV     DPTR,#zllInitiator_TaskID
        MOVX    A,@DPTR
        MOV     R1,A
        LCALL   ??osal_start_timerEx?relay
        MOV     A,#0x4
        LCALL   ?DEALLOC_XSTACK8
          CFI CFA_XSP16 add(XSP16, 30)
        SJMP    ??zllInitiator_event_loop_13
??zllInitiator_event_loop_18:
        ; Setup parameters for call to function zll_UpdateNV
        MOV     R1,#0x1
        LCALL   ??zll_UpdateNV?relay
        ; Setup parameters for call to function NLME_GetExtAddr
        LCALL   ??NLME_GetExtAddr?relay
        MOV     ?V0 + 2,R2
        MOV     ?V0 + 3,R3
        ; Setup parameters for call to function NLME_GetShortAddr
        LCALL   ??NLME_GetShortAddr?relay
        ; Setup parameters for call to function ZDP_DeviceAnnce
        MOV     ?V0 + 5,#0x0
        MOV     R0,#?V0 + 5
        LCALL   ?PUSH_XSTACK_I_ONE
          CFI CFA_XSP16 add(XSP16, 31)
        MOV     DPTR,#ZDO_Config_Node_Descriptor + 2
        MOVX    A,@DPTR
        MOV     R1,A
        MOV     R4,?V0 + 2
        MOV     R5,?V0 + 3
        LCALL   ??ZDP_DeviceAnnce?relay
        MOV     A,#0x1
        LCALL   ?DEALLOC_XSTACK8
          CFI CFA_XSP16 add(XSP16, 30)
        ; Setup parameters for call to function osal_stop_timerEx
        MOV     R2,#0x0
        MOV     R3,#0x8
        MOV     DPTR,#zllInitiator_TaskID
        MOVX    A,@DPTR
        MOV     R1,A
        LCALL   ??osal_stop_timerEx?relay
//  640           stat = ZSuccess;
//  641           break;
//  642 
//  643         default:
//  644           break;
//  645       }
//  646 
//  647       if ( stat == ZSuccess )
//  648       {
//  649         // Release the OSAL message
//  650         VOID osal_msg_deallocate( (uint8 *)pMsg );
??zllInitiator_event_loop_13:
        ; Setup parameters for call to function osal_msg_deallocate
        MOV     R2,?V0 + 0
        MOV     R3,?V0 + 1
        LCALL   ??osal_msg_deallocate?relay
        SJMP    ??zllInitiator_event_loop_1
//  651       }
//  652       else
//  653       {
//  654         // forward to the application
//  655         osal_msg_send( initiatorRegisteredMsgAppTaskID, (uint8 *)pMsg );
??zllInitiator_event_loop_5:
        ; Setup parameters for call to function osal_msg_send
        MOV     R2,?V0 + 0
        MOV     R3,?V0 + 1
        MOV     DPTR,#initiatorRegisteredMsgAppTaskID
        MOVX    A,@DPTR
        MOV     R1,A
        LCALL   ??osal_msg_send?relay
//  656       }
//  657     }
//  658 
//  659     // return unprocessed events
//  660     return ( events ^ SYS_EVENT_MSG );
??zllInitiator_event_loop_1:
        MOV     A,R6
        MOV     R2,A
        MOV     A,R7
        XRL     A,#0x80
        LJMP    ??zllInitiator_event_loop_20 & 0xFFFF
//  661   }
//  662 
//  663   if ( events & ZLL_TL_SCAN_BASE_EVT )
??zllInitiator_event_loop_0:
        MOV     A,R6
        ANL     A,#0x40
        JNZ     $+5
        LJMP    ??zllInitiator_event_loop_21 & 0xFFFF
//  664   {
//  665     if ( ( ( scanReqChannels == ZLL_SCAN_PRIMARY_CHANNELS ) && ( numScanReqSent < ZLL_INITIATOR_NUM_SCAN_REQ_PRIMARY  ) ) ||
//  666          ( ( scanReqChannels == ZLL_SCAN_SECONDARY_CHANNELS ) && ( numScanReqSent < ZLL_INITIATOR_NUM_SCAN_REQ_EXTENDED ) ) )
        MOV     DPTR,#scanReqChannels
        MOVX    A,@DPTR
        XRL     A,#0x1
        JNZ     ??zllInitiator_event_loop_22
        MOV     DPTR,#numScanReqSent
        MOVX    A,@DPTR
        CLR     C
        SUBB    A,#0x8
        JC      ??zllInitiator_event_loop_23
        ; Setup parameters for call to function zll_IsFactoryNew
        LCALL   ??zll_IsFactoryNew?relay
        MOV     A,R1
        JNZ     ??zllInitiator_event_loop_24
        MOV     DPTR,#zllJoinedHANetwork
        MOVX    A,@DPTR
        XRL     A,#0x1
        JNZ     ??zllInitiator_event_loop_25
//  667     {
//  668       // Send another Scan Request on the next channel
//  669       initiatorSendScanReq( FALSE );
//  670     }
//  671     else // Channels scan is complete
//  672     {
//  673       if ( ( scanReqChannels == ZLL_SCAN_PRIMARY_CHANNELS )
//  674           && ( zll_IsFactoryNew() || ( zllJoinedHANetwork == TRUE ) ) )
//  675       {
//  676         // Extended scan is required, lets scan secondary channels
//  677         scanReqChannels = ZLL_SCAN_SECONDARY_CHANNELS;
??zllInitiator_event_loop_24:
        MOV     DPTR,#scanReqChannels
        MOV     A,#0x2
        MOVX    @DPTR,A
//  678 
//  679         // Send another Scan Request on the next channel
//  680         initiatorSendScanReq( FALSE );
        ; Setup parameters for call to function initiatorSendScanReq
        SJMP    ??zllInitiator_event_loop_23
//  681       }
??zllInitiator_event_loop_22:
        MOVX    A,@DPTR
        XRL     A,#0x2
        JNZ     ??zllInitiator_event_loop_25
        MOV     DPTR,#numScanReqSent
        MOVX    A,@DPTR
        CLR     C
        SUBB    A,#0x14
        JNC     ??zllInitiator_event_loop_25
??zllInitiator_event_loop_23:
        ; Setup parameters for call to function initiatorSendScanReq
        MOV     R1,#0x0
        LCALL   ??initiatorSendScanReq?relay
        SJMP    ??zllInitiator_event_loop_26
//  682       // See if we've received any Scan Responses back
//  683       else if ( ( selectedTarget.lastRssi != ZLL_TL_WORST_RSSI )
//  684                && ( selectedTarget.scanRsp.deviceInfo.endpoint != DEV_INFO_INVALID_EP ) )
??zllInitiator_event_loop_25:
        MOV     DPTR,#selectedTarget + 53
        MOVX    A,@DPTR
        XRL     A,#0xd8
        JZ      ??zllInitiator_event_loop_27
        MOV     DPTR,#selectedTarget + 31
        MOVX    A,@DPTR
        XRL     A,#0xfe
        JZ      ??zllInitiator_event_loop_27
//  685       {
//  686         // Make sure the responder is not a factory new remote if this controller is
//  687         if ( !zll_IsFactoryNew() || ( selectedTarget.scanRsp.zllLinkInitiator == FALSE ) )
        ; Setup parameters for call to function zll_IsFactoryNew
        LCALL   ??zll_IsFactoryNew?relay
        MOV     A,R1
        JZ      ??zllInitiator_event_loop_28
        MOV     DPTR,#selectedTarget + 7
        MOVX    A,@DPTR
        ANL     A,#0x10
        JNZ     ??zllInitiator_event_loop_26
//  688         {
//  689           zclLLIdentifyReq_t req;
//  690 
//  691           // Tune to the channel that the Scan Response was heard on
//  692           zll_SetChannel( selectedTarget.rxChannel );
??zllInitiator_event_loop_28:
        ; Setup parameters for call to function zll_SetChannel
        MOV     DPTR,#selectedTarget + 52
        MOVX    A,@DPTR
        MOV     R1,A
        LCALL   ??zll_SetChannel?relay
//  693 
//  694           req.transID = selectedTarget.scanRsp.transID;
        MOV     DPTR,#selectedTarget
        LCALL   ?XLOAD_R2345
        MOV     A,#0x8
        LCALL   ?XSTACK_DISP0_8
        LCALL   ?XSTORE_R2345
//  695           req.IdDuration = 0xffff;
        MOV     A,#0xc
        LCALL   ?XSTACK_DISP0_8
        MOV     A,#-0x1
        LCALL   ?Subroutine7 & 0xFFFF
//  696 
//  697           // Send an Identify Request first
//  698           zclLL_Send_IndentifyReq( ZLL_INTERNAL_ENDPOINT, &(selectedTarget.srcAddr), &req, initiatorSeqNum++ );
??CrossCallReturnLabel_45:
        LCALL   ?PUSH_XSTACK_I_ONE
          CFI CFA_XSP16 add(XSP16, 31)
        MOV     A,#0x9
        LCALL   ?XSTACK_DISP0_8
        MOV     R4,DPL
        MOV     R5,DPH
        MOV     R2,#(selectedTarget + 38) & 0xff
        MOV     R3,#((selectedTarget + 38) >> 8) & 0xff
        MOV     R1,#0xd
        LCALL   ??zclLL_Send_IndentifyReq?relay
        MOV     A,#0x1
        LCALL   ?DEALLOC_XSTACK8
          CFI CFA_XSP16 add(XSP16, 30)
//  699 
//  700           // Notify our task to configure the target (if needed)
//  701           osal_start_timerEx( zllInitiator_TaskID, ZLL_CFG_TARGET_EVT, ZLL_INITIATOR_IDENTIFY_INTERVAL );
        ; Setup parameters for call to function osal_start_timerEx
        MOV     DPTR,#__Constant_1f4
        LCALL   ?PUSH_XSTACK8_X_FOUR
          CFI CFA_XSP16 add(XSP16, 34)
        MOV     R2,#-0x80
        MOV     R3,#0x0
        MOV     DPTR,#zllInitiator_TaskID
        MOVX    A,@DPTR
        MOV     R1,A
        LCALL   ??osal_start_timerEx?relay
        MOV     A,#0x4
        LCALL   ?DEALLOC_XSTACK8
          CFI CFA_XSP16 add(XSP16, 30)
        SJMP    ??zllInitiator_event_loop_26
//  702         }
//  703         // else wait for touch-link commands from the other initiator
//  704       }
//  705       else
//  706       {
//  707         // We did not manage to select any target
//  708         // Let's just go back to our initial configuration
//  709         osal_set_event( zllInitiator_TaskID, ZLL_DISABLE_RX_EVT );
??zllInitiator_event_loop_27:
        ; Setup parameters for call to function osal_set_event
        MOV     R2,#0x0
        MOV     R3,#0x4
        MOV     DPTR,#zllInitiator_TaskID
        MOVX    A,@DPTR
        MOV     R1,A
        LCALL   ??osal_set_event?relay
//  710       }
//  711     }
//  712 
//  713     // return unprocessed events
//  714     return ( events ^ ZLL_TL_SCAN_BASE_EVT );
??zllInitiator_event_loop_26:
        MOV     A,R6
        XRL     A,#0x40
        LJMP    ??zllInitiator_event_loop_29 & 0xFFFF
//  715   }
//  716 
//  717   if ( events & ZLL_CFG_TARGET_EVT )
??zllInitiator_event_loop_21:
        MOV     A,R6
        ANL     A,#0x80
        JNZ     $+5
        LJMP    ??zllInitiator_event_loop_30 & 0xFFFF
//  718   {
//  719     ZStatus_t status = ZFailure;
//  720 
//  721     zclLLIdentifyReq_t req;
//  722 
//  723     req.transID = selectedTarget.scanRsp.transID;
        MOV     DPTR,#selectedTarget
        LCALL   ?XLOAD_R2345
        MOV     A,#0x8
        LCALL   ?XSTACK_DISP0_8
        LCALL   ?XSTORE_R2345
//  724     req.IdDuration = 0x0;
        MOV     A,#0xc
        LCALL   ?XSTACK_DISP0_8
        CLR     A
        LCALL   ?Subroutine7 & 0xFFFF
//  725 
//  726     // Send an Identify stop Request
//  727     zclLL_Send_IndentifyReq( ZLL_INTERNAL_ENDPOINT, &(selectedTarget.srcAddr), &req, initiatorSeqNum++ );
??CrossCallReturnLabel_46:
        LCALL   ?PUSH_XSTACK_I_ONE
          CFI CFA_XSP16 add(XSP16, 31)
        MOV     A,#0x9
        LCALL   ?XSTACK_DISP0_8
        MOV     R4,DPL
        MOV     R5,DPH
        MOV     R2,#(selectedTarget + 38) & 0xff
        MOV     R3,#((selectedTarget + 38) >> 8) & 0xff
        MOV     R1,#0xd
        LCALL   ??zclLL_Send_IndentifyReq?relay
        MOV     A,#0x1
        LCALL   ?DEALLOC_XSTACK8
          CFI CFA_XSP16 add(XSP16, 30)
//  728 
//  729     // Configure the target
//  730     if ( zll_IsFactoryNew() )
        ; Setup parameters for call to function zll_IsFactoryNew
        LCALL   ??zll_IsFactoryNew?relay
        MOV     A,R1
        JZ      ??zllInitiator_event_loop_31
//  731     {
//  732       // verify address ranges split possible if required
//  733       if ( !selectedTarget.scanRsp.zllAddressAssignment
//  734           || zll_IsValidSplitFreeRanges( selectedTarget.scanRsp.totalGrpIDs ) )
        MOV     DPTR,#selectedTarget + 7
        MOVX    A,@DPTR
        ANL     A,#0x2
        JZ      ??zllInitiator_event_loop_32
        ; Setup parameters for call to function zll_IsValidSplitFreeRanges
        MOV     DPTR,#selectedTarget + 30
        MOVX    A,@DPTR
        MOV     R1,A
        LCALL   ??zll_IsValidSplitFreeRanges?relay
        MOV     A,R1
        JZ      ??zllInitiator_event_loop_33
//  735       {
//  736         // Must be the first light; ask the light to start the network
//  737         status = initiatorSendNwkStartReq( &(selectedTarget.scanRsp) );
??zllInitiator_event_loop_32:
        ; Setup parameters for call to function initiatorSendNwkStartReq
        MOV     R2,#selectedTarget & 0xff
        MOV     R3,#(selectedTarget >> 8) & 0xff
        LCALL   ??initiatorSendNwkStartReq?relay
??zllInitiator_event_loop_34:
        MOV     A,R1
//  738       }
//  739     }
//  740     else if ( !zllJoinedHANetwork || ( _NIB.nwkPanId == selectedTarget.scanRsp.PANID) )
//  741     {
//  742       // Tune to the channel that the Scan Response was heard on
//  743       zll_SetChannel( selectedTarget.rxChannel );
//  744 
//  745       // See if the target is part of our network
//  746       if ( !ZLL_SAME_NWK( selectedTarget.scanRsp.PANID, selectedTarget.scanRsp.extendedPANID ) )
//  747       {
//  748         // verify address ranges split possible if required
//  749         if ( !selectedTarget.scanRsp.zllAddressAssignment
//  750             || zll_IsValidSplitFreeRanges( selectedTarget.scanRsp.totalGrpIDs ) )
//  751         {
//  752           // Ask the target to join our network
//  753           status = initiatorSendNwkJoinReq( &(selectedTarget.scanRsp) );
//  754         }
//  755       }
//  756       else if ( _NIB.nwkUpdateId != selectedTarget.scanRsp.nwkUpdateId )
//  757       {
//  758         uint8 updateId = zll_NewNwkUpdateId( _NIB.nwkUpdateId, selectedTarget.scanRsp.nwkUpdateId );
//  759 
//  760         // Target is already part of our network
//  761         if ( updateId != _NIB.nwkUpdateId )
//  762         {
//  763           // Update our network update id and logical channel
//  764           zll_ProcessNwkUpdate( updateId, selectedTarget.scanRsp.logicalChannel );
//  765 
//  766           // Rejoin this network
//  767           _NIB.nwkState = NWK_REJOINING;
//  768           initiatorReJoinNwk( MODE_REJOIN );
//  769 
//  770           // We're done here
//  771           status = ZSuccess;
//  772         }
//  773         else
//  774         {
//  775           // Inform the target to update its network update id and logical channel
//  776           initiatorSendNwkUpdateReq( &(selectedTarget.scanRsp) ); // there's no corresponding response!
//  777 
//  778           // Notify the application about this device
//  779           osal_set_event( zllInitiator_TaskID, ZLL_NOTIFY_APP_EVT );
//  780         }
//  781       }
//  782       //we are touchlinking to a light in our network, just send application the device info
//  783       else if ( selectedTarget.scanRsp.zllLinkInitiator == FALSE )
//  784       {
//  785         epInfoRec_t rec;
//  786         rec.nwkAddr = selectedTarget.scanRsp.nwkAddr;
//  787         rec.endpoint = selectedTarget.scanRsp.deviceInfo.endpoint;
//  788         rec.profileID = selectedTarget.scanRsp.deviceInfo.profileID;
//  789         rec.deviceID = selectedTarget.scanRsp.deviceInfo.deviceID;
//  790         rec.version = selectedTarget.scanRsp.deviceInfo.version;
//  791         // Notify the application
//  792         if ( pfnNotifyAppCB )
//  793         {
//  794           (*pfnNotifyAppCB)( &rec );
//  795         }
//  796 #if defined ( MT_APP_FUNC )
//  797         MT_ZllNotifyTL( &rec );
//  798 #endif
//  799       }
//  800     }
//  801 
//  802     if ( status == ZSuccess )
        JNZ     ??zllInitiator_event_loop_33
//  803     {
//  804       // Wait for a response (if any), which will over write this
//  805       rxRsp.nwkStartRsp.status = ZLL_NETWORK_START_RSP_STATUS_FAILURE;
??zllInitiator_event_loop_35:
        MOV     DPTR,#rxRsp + 4
        MOV     A,#0x1
        MOVX    @DPTR,A
//  806     }
//  807 
//  808     // return unprocessed events
//  809     return ( events ^ ZLL_CFG_TARGET_EVT );
??zllInitiator_event_loop_33:
        MOV     A,R6
        XRL     A,#0x80
        LJMP    ??zllInitiator_event_loop_29 & 0xFFFF
??zllInitiator_event_loop_31:
        MOV     DPTR,#zllJoinedHANetwork
        MOVX    A,@DPTR
        JZ      ??zllInitiator_event_loop_36
        LCALL   ?Subroutine22 & 0xFFFF
??CrossCallReturnLabel_25:
        JNZ     ??zllInitiator_event_loop_37
        INC     DPTR
        MOVX    A,@DPTR
        XRL     A,R1
??zllInitiator_event_loop_37:
        JNZ     ??zllInitiator_event_loop_33
??zllInitiator_event_loop_36:
        ; Setup parameters for call to function zll_SetChannel
        MOV     DPTR,#selectedTarget + 52
        MOVX    A,@DPTR
        MOV     R1,A
        LCALL   ??zll_SetChannel?relay
        LCALL   ?Subroutine22 & 0xFFFF
??CrossCallReturnLabel_26:
        JNZ     ??zllInitiator_event_loop_38
        INC     DPTR
        MOVX    A,@DPTR
        XRL     A,R1
??zllInitiator_event_loop_38:
        JNZ     ??zllInitiator_event_loop_39
        ; Setup parameters for call to function sAddrExtCmp
        MOV     R4,#(selectedTarget + 15) & 0xff
        MOV     R5,#((selectedTarget + 15) >> 8) & 0xff
        MOV     R2,#(_NIB + 53) & 0xff
        MOV     R3,#((_NIB + 53) >> 8) & 0xff
        LCALL   ??sAddrExtCmp?relay
        MOV     A,R1
        JNZ     ??zllInitiator_event_loop_40
??zllInitiator_event_loop_39:
        MOV     DPTR,#selectedTarget + 7
        MOVX    A,@DPTR
        ANL     A,#0x2
        JZ      ??zllInitiator_event_loop_41
        ; Setup parameters for call to function zll_IsValidSplitFreeRanges
        MOV     DPTR,#selectedTarget + 30
        MOVX    A,@DPTR
        MOV     R1,A
        LCALL   ??zll_IsValidSplitFreeRanges?relay
        MOV     A,R1
        JZ      ??zllInitiator_event_loop_33
??zllInitiator_event_loop_41:
        ; Setup parameters for call to function initiatorSendNwkJoinReq
        MOV     R2,#selectedTarget & 0xff
        MOV     R3,#(selectedTarget >> 8) & 0xff
        LCALL   ??initiatorSendNwkJoinReq?relay
        SJMP    ??zllInitiator_event_loop_34
??zllInitiator_event_loop_40:
        MOV     DPTR,#selectedTarget + 23
        MOVX    A,@DPTR
        MOV     R2,A
        MOV     DPTR,#_NIB + 109
        MOVX    A,@DPTR
        MOV     R1,A
        MOV     A,R2
        XRL     A,R1
        JNZ     $+5
        LJMP    ??zllInitiator_event_loop_42 & 0xFFFF
        ; Setup parameters for call to function zll_NewNwkUpdateId
        LCALL   ??zll_NewNwkUpdateId?relay
        MOV     DPTR,#_NIB + 109
        MOVX    A,@DPTR
        XRL     A,R1
        JZ      ??zllInitiator_event_loop_43
        ; Setup parameters for call to function zll_ProcessNwkUpdate
        MOV     DPTR,#selectedTarget + 24
        MOVX    A,@DPTR
        MOV     R2,A
        LCALL   ??zll_ProcessNwkUpdate?relay
        MOV     DPTR,#_NIB + 35
        MOV     A,#0x9
        MOVX    @DPTR,A
        ; Setup parameters for call to function initiatorReJoinNwk
        MOV     R1,#0x3
        LCALL   ??initiatorReJoinNwk?relay
        LJMP    ??zllInitiator_event_loop_35 & 0xFFFF
??zllInitiator_event_loop_43:
        ; Setup parameters for call to function osal_mem_alloc
        MOV     R2,#0x12
        MOV     R3,#0x0
        LCALL   ??osal_mem_alloc?relay
        MOV     ?V0 + 0,R2
        MOV     ?V0 + 1,R3
        MOV     A,R2
        ORL     A,?V0 + 1
        JZ      ??zllInitiator_event_loop_44
        MOV     DPTR,#selectedTarget
        LCALL   ?XLOAD_R2345
        MOV     DPL,?V0 + 0
        MOV     DPH,?V0 + 1
        LCALL   ?XSTORE_R2345
        ; Setup parameters for call to function sAddrExtCpy
        MOV     R4,#(_NIB + 53) & 0xff
        MOV     R5,#((_NIB + 53) >> 8) & 0xff
        LCALL   ?Subroutine27 & 0xFFFF
??CrossCallReturnLabel_30:
        LCALL   ??sAddrExtCpy?relay
        MOV     DPTR,#_NIB + 109
        MOVX    A,@DPTR
        PUSH    A
          CFI CFA_SP SP+-1
        MOV     A,?V0 + 0
        ADD     A,#0xc
        LCALL   ?Subroutine29 & 0xFFFF
??CrossCallReturnLabel_41:
        POP     A
          CFI CFA_SP SP+0
        MOVX    @DPTR,A
        MOV     DPTR,#_NIB + 22
        MOVX    A,@DPTR
        PUSH    A
          CFI CFA_SP SP+-1
        MOV     A,?V0 + 0
        ADD     A,#0xd
        LCALL   ?Subroutine29 & 0xFFFF
??CrossCallReturnLabel_42:
        POP     A
          CFI CFA_SP SP+0
        LCALL   ?Subroutine9 & 0xFFFF
??CrossCallReturnLabel_2:
        MOV     A,?V0 + 0
        ADD     A,#0xe
        LCALL   ?Subroutine29 & 0xFFFF
??CrossCallReturnLabel_43:
        LCALL   ??Subroutine39_0 & 0xFFFF
??CrossCallReturnLabel_57:
        MOV     DPTR,#selectedTarget + 27
        LCALL   ??Subroutine42_0 & 0xFFFF
??CrossCallReturnLabel_77:
        MOV     A,?V0 + 0
        ADD     A,#0x10
        MOV     DPL,A
        MOV     A,?V0 + 1
        LCALL   ?Subroutine28 & 0xFFFF
??CrossCallReturnLabel_32:
        LCALL   ?Subroutine8 & 0xFFFF
??CrossCallReturnLabel_0:
        LCALL   ?PUSH_XSTACK_I_ONE
          CFI CFA_XSP16 add(XSP16, 31)
        MOV     R4,?V0 + 0
        MOV     R5,?V0 + 1
        MOV     R2,#(selectedTarget + 38) & 0xff
        MOV     R3,#((selectedTarget + 38) >> 8) & 0xff
        MOV     R1,#0xd
        LCALL   ??zclLL_Send_NwkUpdateReq?relay
        MOV     A,#0x1
        LCALL   ?DEALLOC_XSTACK8
          CFI CFA_XSP16 add(XSP16, 30)
        ; Setup parameters for call to function osal_mem_free
        MOV     R2,?V0 + 0
        MOV     R3,?V0 + 1
        LCALL   ??osal_mem_free?relay
??zllInitiator_event_loop_44:
        ; Setup parameters for call to function osal_set_event
        MOV     R2,#0x0
        MOV     R3,#0x10
        MOV     DPTR,#zllInitiator_TaskID
        MOVX    A,@DPTR
        MOV     R1,A
        LCALL   ??osal_set_event?relay
        LJMP    ??zllInitiator_event_loop_33 & 0xFFFF
??zllInitiator_event_loop_42:
        MOV     DPTR,#selectedTarget + 7
        MOVX    A,@DPTR
        ANL     A,#0x10
        JZ      $+5
        LJMP    ??zllInitiator_event_loop_33 & 0xFFFF
        MOV     DPTR,#selectedTarget + 27
        LCALL   ?Subroutine13 & 0xFFFF
??CrossCallReturnLabel_11:
        PUSH    A
          CFI CFA_SP SP+-1
        MOV     A,#0x2
        LCALL   ?XSTACK_DISP0_8
        POP     A
          CFI CFA_SP SP+0
        LCALL   ?Subroutine11 & 0xFFFF
??CrossCallReturnLabel_7:
        LCALL   ?XSTACK_DISP0_8
        LCALL   ?Subroutine10 & 0xFFFF
??CrossCallReturnLabel_5:
        LCALL   ?XSTACK_DISP0_8
        LCALL   ?Subroutine14 & 0xFFFF
??CrossCallReturnLabel_13:
        PUSH    A
          CFI CFA_SP SP+-1
        MOV     A,#0x7
        LCALL   ?XSTACK_DISP0_8
        POP     A
          CFI CFA_SP SP+0
        LCALL   ?Subroutine12 & 0xFFFF
??CrossCallReturnLabel_9:
        JZ      ??zllInitiator_event_loop_45
        ; Setup parameters for indirect call
        LCALL   ?Subroutine18 & 0xFFFF
??CrossCallReturnLabel_103:
        LCALL   ?CALL_IND
??zllInitiator_event_loop_45:
        ; Setup parameters for call to function MT_ZllNotifyTL
        MOV     DPL,?XSP + 0
        MOV     DPH,?XSP + 1
        MOV     R2,DPL
        MOV     R3,DPH
        LCALL   ??MT_ZllNotifyTL?relay
        LJMP    ??zllInitiator_event_loop_33 & 0xFFFF
//  810   }
//  811 
//  812   if ( events & ZLL_W4_NWK_START_RSP_EVT )
??zllInitiator_event_loop_30:
        MOV     A,R7
        ANL     A,#0x1
        JNZ     $+5
        LJMP    ??zllInitiator_event_loop_46 & 0xFFFF
//  813   {
//  814     zclLLNwkStartRsp_t *pRsp = &(rxRsp.nwkStartRsp);
//  815 
//  816     if ( ( pRsp->status == ZLL_NETWORK_START_RSP_STATUS_SUCCESS )
//  817        && nwk_ExtPANIDValid( pRsp->extendedPANID ) )
        MOV     DPTR,#rxRsp + 4
        MOVX    A,@DPTR
        JNZ     ??zllInitiator_event_loop_47
        ; Setup parameters for call to function nwk_ExtPANIDValid
        MOV     R2,#(rxRsp + 5) & 0xff
        MOV     R3,#((rxRsp + 5) >> 8) & 0xff
        LCALL   ??nwk_ExtPANIDValid?relay
        MOV     A,R1
        JZ      ??zllInitiator_event_loop_47
//  818     {
//  819       // Copy the new network parameters to NIB
//  820       zll_SetNIB( ( ZSTACK_ROUTER_BUILD ? NWK_ROUTER : NWK_REJOINING ),
//  821                   _NIB.nwkDevAddress, pRsp->extendedPANID,
//  822                   pRsp->logicalChannel, pRsp->panId, pRsp->nwkUpdateId );
        ; Setup parameters for call to function zll_SetNIB
        MOV     DPTR,#rxRsp + 13
        LCALL   ?Subroutine19 & 0xFFFF
??CrossCallReturnLabel_15:
        LCALL   ?PUSH_XSTACK_I_ONE
          CFI CFA_XSP16 add(XSP16, 31)
        MOV     DPTR,#rxRsp + 15
        LCALL   ?PUSH_XSTACK8_X_TWO
          CFI CFA_XSP16 add(XSP16, 33)
        MOV     DPTR,#rxRsp + 14
        LCALL   ?Subroutine19 & 0xFFFF
??CrossCallReturnLabel_16:
        LCALL   ?PUSH_XSTACK_I_ONE
          CFI CFA_XSP16 add(XSP16, 34)
        MOV     R4,#(rxRsp + 5) & 0xff
        MOV     R5,#((rxRsp + 5) >> 8) & 0xff
        LCALL   ??Subroutine46_0 & 0xFFFF
??CrossCallReturnLabel_113:
        MOV     R1,#0x8
        LCALL   ??zll_SetNIB?relay
        MOV     A,#0x4
        LCALL   ?DEALLOC_XSTACK8
          CFI CFA_XSP16 add(XSP16, 30)
//  823 
//  824       // Apply the received network key
//  825       zll_DecryptNwkKey( encKeySent, keyIndexSent, pRsp->transID, responseIDSent );
        ; Setup parameters for call to function zll_DecryptNwkKey
        MOV     DPTR,#responseIDSent
        LCALL   ?PUSH_XSTACK8_X_FOUR
          CFI CFA_XSP16 add(XSP16, 34)
        MOV     DPTR,#rxRsp
        LCALL   ?PUSH_XSTACK8_X_FOUR
          CFI CFA_XSP16 add(XSP16, 38)
        MOV     DPTR,#keyIndexSent
        MOVX    A,@DPTR
        MOV     R1,A
        MOV     R2,#encKeySent & 0xff
        MOV     R3,#(encKeySent >> 8) & 0xff
        LCALL   ??zll_DecryptNwkKey?relay
        MOV     A,#0x8
        LCALL   ?DEALLOC_XSTACK8
          CFI CFA_XSP16 add(XSP16, 30)
//  826 
//  827       // This is not a usual Trust Center protected network
//  828       ZDSecMgrUpdateTCAddress( NULL );
        ; Setup parameters for call to function ZDSecMgrUpdateTCAddress
        MOV     R2,#0x0
        MOV     R3,#0x0
        LCALL   ??ZDSecMgrUpdateTCAddress?relay
//  829 
//  830       // Notify the application about this device
//  831       osal_set_event( zllInitiator_TaskID, ZLL_NOTIFY_APP_EVT );
        ; Setup parameters for call to function osal_set_event
        MOV     R2,#0x0
        MOV     R3,#0x10
        MOV     DPTR,#zllInitiator_TaskID
        MOVX    A,@DPTR
        MOV     R1,A
        LCALL   ??osal_set_event?relay
//  832 
//  833       // Wait at least ZLL_APLC_MIN_STARTUP_DELAY_TIME seconds to allow the
//  834       // target to start the network correctly. Join the target afterwards.
//  835       osal_start_timerEx( zllInitiator_TaskID, ZLL_START_NWK_EVT, ZLL_APLC_MIN_STARTUP_DELAY_TIME );
        ; Setup parameters for call to function osal_start_timerEx
        MOV     DPTR,#__Constant_7d0
        LCALL   ?PUSH_XSTACK8_X_FOUR
          CFI CFA_XSP16 add(XSP16, 34)
        MOV     R2,#0x8
        MOV     R3,#0x0
        MOV     DPTR,#zllInitiator_TaskID
        MOVX    A,@DPTR
        MOV     R1,A
        LCALL   ??osal_start_timerEx?relay
        MOV     A,#0x4
        LCALL   ?DEALLOC_XSTACK8
          CFI CFA_XSP16 add(XSP16, 30)
//  836     }
//  837 
//  838     // return unprocessed events
//  839     return ( events ^ ZLL_W4_NWK_START_RSP_EVT );
??zllInitiator_event_loop_47:
        MOV     A,R6
        MOV     R2,A
        MOV     A,R7
        XRL     A,#0x1
        LJMP    ??zllInitiator_event_loop_20 & 0xFFFF
//  840   }
//  841 
//  842   if ( events & ZLL_START_NWK_EVT )
??zllInitiator_event_loop_46:
        MOV     A,R6
        ANL     A,#0x8
        JZ      ??zllInitiator_event_loop_48
//  843   {
//  844     // Let's join the network started by the target
//  845     initiatorJoinNwk();
        ; Setup parameters for call to function initiatorJoinNwk
        LCALL   ??initiatorJoinNwk?relay
//  846 
//  847     // return unprocessed events
//  848     return ( events ^ ZLL_START_NWK_EVT );
        MOV     A,R6
        XRL     A,#0x8
        LJMP    ??zllInitiator_event_loop_29 & 0xFFFF
//  849   }
//  850 
//  851   if ( events & ZLL_W4_NWK_JOIN_RSP_EVT )
??zllInitiator_event_loop_48:
        MOV     A,R7
        ANL     A,#0x2
        JZ      ??zllInitiator_event_loop_49
//  852   {
//  853     zclLLNwkJoinRsp_t *pRsp = &(rxRsp.nwkJoinRsp);
//  854 
//  855     if ( pRsp->status == ZLL_NETWORK_JOIN_RSP_STATUS_SUCCESS )
        MOV     DPTR,#rxRsp + 4
        MOVX    A,@DPTR
        JNZ     ??zllInitiator_event_loop_50
//  856     {
//  857       // Target has joined our network
//  858 
//  859       // Wait at least ZLL_APLC_MIN_STARTUP_DELAY_TIME seconds to allow the
//  860       // target to start operating on the network correctly. Notify the
//  861       // application afterwards.
//  862       osal_start_timerEx( zllInitiator_TaskID, ZLL_NOTIFY_APP_EVT,
//  863                           ZLL_APLC_MIN_STARTUP_DELAY_TIME );
        ; Setup parameters for call to function osal_start_timerEx
        MOV     DPTR,#__Constant_7d0
        LCALL   ?PUSH_XSTACK8_X_FOUR
          CFI CFA_XSP16 add(XSP16, 34)
        MOV     R2,#0x0
        MOV     R3,#0x10
        MOV     DPTR,#zllInitiator_TaskID
        MOVX    A,@DPTR
        MOV     R1,A
        LCALL   ??osal_start_timerEx?relay
        MOV     A,#0x4
        LCALL   ?DEALLOC_XSTACK8
          CFI CFA_XSP16 add(XSP16, 30)
//  864     }
//  865 
//  866     // We're done with touch-link procedure here
//  867     initiatorSetNwkToInitState();
??zllInitiator_event_loop_50:
        ; Setup parameters for call to function initiatorSetNwkToInitState
        LCALL   ??initiatorSetNwkToInitState?relay
//  868 
//  869     zll_UpdateNV( ZLL_UPDATE_NV_RANGES );
        ; Setup parameters for call to function zll_UpdateNV
        MOV     R1,#0x2
        LCALL   ??zll_UpdateNV?relay
//  870 
//  871     if ( ( POLL_RATE == 0 ) && ( selectedTarget.scanRsp.zLogicalType == ZG_DEVICETYPE_ENDDEVICE ) )
//  872     {
//  873       //allow to respond to ZLL commission utility commands after TL
//  874       NLME_SetPollRate( ZLL_INITIATOR_TEMP_POST_TL_POLL_RATE );
//  875       //polling should reset when TL life time expires
//  876     }
//  877 
//  878     // return unprocessed events
//  879     return ( events ^ ZLL_W4_NWK_JOIN_RSP_EVT );
        MOV     A,R6
        MOV     R2,A
        MOV     A,R7
        XRL     A,#0x2
        LJMP    ??zllInitiator_event_loop_20 & 0xFFFF
//  880   }
//  881 
//  882   if ( events & ZLL_ENDDEVICE_JOIN_EVT )
??zllInitiator_event_loop_49:
        MOV     A,R6
        ANL     A,#0x2
        JZ      ??zllInitiator_event_loop_51
//  883   {
//  884     // If not factory new, perform a Leave on our old network
//  885     if ( !zll_IsFactoryNew() && ( zll_SendLeaveReq() == ZSuccess ) )
        ; Setup parameters for call to function zll_IsFactoryNew
        LCALL   ??zll_IsFactoryNew?relay
        MOV     A,R1
        JNZ     ??zllInitiator_event_loop_52
        ; Setup parameters for call to function zll_SendLeaveReq
        LCALL   ??zll_SendLeaveReq?relay
        MOV     A,R1
        JNZ     ??zllInitiator_event_loop_52
//  886     {
//  887       // Wait for Leave confirmation before joining the new network
//  888       zllLeaveInitiated = ZLL_LEAVE_TO_JOIN_NWK;
        MOV     DPTR,#zllLeaveInitiated
        MOV     A,#0x1
        MOVX    @DPTR,A
        SJMP    ??zllInitiator_event_loop_53
//  889     }
//  890     else
//  891     {
//  892       // Notify our task to join this network
//  893       osal_set_event( zllInitiator_TaskID, ZLL_JOIN_NWK_EVT );
??zllInitiator_event_loop_52:
        ; Setup parameters for call to function osal_set_event
        MOV     R2,#0x10
        MOV     R3,#0x0
        MOV     DPTR,#zllInitiator_TaskID
        MOVX    A,@DPTR
        MOV     R1,A
        LCALL   ??osal_set_event?relay
//  894     }
//  895 
//  896     // return unprocessed events
//  897     return ( events ^ ZLL_ENDDEVICE_JOIN_EVT );
??zllInitiator_event_loop_53:
        MOV     A,R6
        XRL     A,#0x2
        LJMP    ??zllInitiator_event_loop_29 & 0xFFFF
//  898   }
//  899 
//  900   if ( events & ZLL_JOIN_NWK_EVT )
??zllInitiator_event_loop_51:
        MOV     A,R6
        ANL     A,#0x10
        JZ      ??zllInitiator_event_loop_54
//  901   {
//  902     if ( joinReq.nwkParams.nwkAddr != INVALID_NODE_ADDR ) // update only if valid, otherwise use our own values.
        MOV     DPTR,#joinReq + 32
        LCALL   ??Subroutine47_0 & 0xFFFF
??CrossCallReturnLabel_108:
        MOV     A,#-0x2
        XRL     A,R2
        JNZ     ??zllInitiator_event_loop_55
        MOV     A,#-0x1
        XRL     A,R3
??zllInitiator_event_loop_55:
        JZ      ??zllInitiator_event_loop_56
//  903     {
//  904       zclLLNwkParams_t *pParams = &(joinReq.nwkParams);
//  905 
//  906       // Copy the new network parameters to the NIB
//  907       zll_SetNIB( ( ZSTACK_ROUTER_BUILD ? NWK_ROUTER : NWK_REJOINING ),
//  908                   pParams->nwkAddr, pParams->extendedPANID,
//  909                   pParams->logicalChannel, pParams->panId, joinReq.nwkUpdateId );
        ; Setup parameters for call to function zll_SetNIB
        MOV     DPTR,#joinReq + 46
        LCALL   ?Subroutine19 & 0xFFFF
??CrossCallReturnLabel_17:
        LCALL   ?PUSH_XSTACK_I_ONE
          CFI CFA_XSP16 add(XSP16, 31)
        MOV     DPTR,#joinReq + 30
        LCALL   ?PUSH_XSTACK8_X_TWO
          CFI CFA_XSP16 add(XSP16, 33)
        MOV     DPTR,#joinReq + 29
        LCALL   ?Subroutine19 & 0xFFFF
??CrossCallReturnLabel_18:
        LCALL   ?PUSH_XSTACK_I_ONE
          CFI CFA_XSP16 add(XSP16, 34)
        MOV     R4,#(joinReq + 4) & 0xff
        MOV     R5,#((joinReq + 4) >> 8) & 0xff
        MOV     R1,#0x8
        LCALL   ??zll_SetNIB?relay
        MOV     A,#0x4
        LCALL   ?DEALLOC_XSTACK8
          CFI CFA_XSP16 add(XSP16, 30)
//  910 
//  911       // Apply the received network key
//  912       zll_DecryptNwkKey( pParams->nwkKey, pParams->keyIndex, joinReq.transID, zllResponseID );
        ; Setup parameters for call to function zll_DecryptNwkKey
        MOV     DPTR,#zllResponseID
        LCALL   ?PUSH_XSTACK8_X_FOUR
          CFI CFA_XSP16 add(XSP16, 34)
        MOV     DPTR,#joinReq
        LCALL   ?PUSH_XSTACK8_X_FOUR
          CFI CFA_XSP16 add(XSP16, 38)
        MOV     DPTR,#joinReq + 12
        MOVX    A,@DPTR
        MOV     R1,A
        MOV     R2,#(joinReq + 13) & 0xff
        MOV     R3,#((joinReq + 13) >> 8) & 0xff
        LCALL   ??zll_DecryptNwkKey?relay
        MOV     A,#0x8
        LCALL   ?DEALLOC_XSTACK8
          CFI CFA_XSP16 add(XSP16, 30)
//  913 
//  914       zll_UpdateFreeRanges( pParams );
        ; Setup parameters for call to function zll_UpdateFreeRanges
        MOV     R2,#(joinReq + 4) & 0xff
        MOV     R3,#((joinReq + 4) >> 8) & 0xff
        LCALL   ??zll_UpdateFreeRanges?relay
//  915     }
//  916 
//  917     // We're asked to join a new network; let's do it!
//  918     initiatorJoinNwk();
??zllInitiator_event_loop_56:
        ; Setup parameters for call to function initiatorJoinNwk
        LCALL   ??initiatorJoinNwk?relay
//  919 
//  920     // return unprocessed events
//  921     return ( events ^ ZLL_JOIN_NWK_EVT );
        MOV     A,R6
        XRL     A,#0x10
        LJMP    ??zllInitiator_event_loop_29 & 0xFFFF
//  922   }
//  923 
//  924   if ( events & ZLL_DISABLE_RX_EVT )
??zllInitiator_event_loop_54:
        MOV     A,R7
        ANL     A,#0x4
        JZ      ??zllInitiator_event_loop_57
//  925   {
//  926     // We're not asked to join a network
//  927     initiatorSetNwkToInitState();
        ; Setup parameters for call to function initiatorSetNwkToInitState
        LCALL   ??initiatorSetNwkToInitState?relay
//  928 
//  929     scanReqChannels = ZLL_SCAN_PRIMARY_CHANNELS;
        MOV     DPTR,#scanReqChannels
        MOV     A,#0x1
        MOVX    @DPTR,A
//  930     numScanReqSent = 0;
        MOV     DPTR,#numScanReqSent
        CLR     A
        MOVX    @DPTR,A
//  931     // Reset selected target
//  932     initiatorClearSelectedTarget();
        ; Setup parameters for call to function initiatorClearSelectedTarget
        LCALL   ??initiatorClearSelectedTarget?relay
//  933 
//  934     // return unprocessed events
//  935     return ( events ^ ZLL_DISABLE_RX_EVT );
        MOV     A,R6
        MOV     R2,A
        MOV     A,R7
        XRL     A,#0x4
        LJMP    ??zllInitiator_event_loop_20 & 0xFFFF
//  936   }
//  937 
//  938   if ( events & ZLL_W4_REJOIN_EVT )
??zllInitiator_event_loop_57:
        MOV     A,R7
        ANL     A,#0x8
        JZ      ??zllInitiator_event_loop_58
//  939   {
//  940     // Stop joining cycle
//  941     ZDApp_StopJoiningCycle();
        ; Setup parameters for call to function ZDApp_StopJoiningCycle
        LCALL   ??ZDApp_StopJoiningCycle?relay
//  942 
//  943     // return unprocessed events
//  944     return ( events ^ ZLL_W4_REJOIN_EVT );
        MOV     A,R6
        MOV     R2,A
        MOV     A,R7
        XRL     A,#0x8
        LJMP    ??zllInitiator_event_loop_20 & 0xFFFF
//  945   }
//  946 
//  947   if ( events & ZLL_NOTIFY_APP_EVT )
??zllInitiator_event_loop_58:
        MOV     A,R7
        ANL     A,#0x10
        JZ      ??zllInitiator_event_loop_59
//  948   {
//  949     if ( selectedTarget.lastRssi > ZLL_TL_WORST_RSSI )
        MOV     DPTR,#selectedTarget + 53
        MOVX    A,@DPTR
        LCALL   ?Subroutine26 & 0xFFFF
??CrossCallReturnLabel_27:
        JC      ??zllInitiator_event_loop_60
//  950     {
//  951       epInfoRec_t rec;
//  952       rec.nwkAddr = selectedTarget.newNwkAddr; // newly assigned network address
        MOV     DPTR,#selectedTarget + 50
        LCALL   ?Subroutine13 & 0xFFFF
//  953       rec.endpoint = selectedTarget.scanRsp.deviceInfo.endpoint;
??CrossCallReturnLabel_12:
        PUSH    A
          CFI CFA_SP SP+-1
        MOV     A,#0x2
        LCALL   ?XSTACK_DISP0_8
        POP     A
          CFI CFA_SP SP+0
        LCALL   ?Subroutine11 & 0xFFFF
//  954       rec.profileID = selectedTarget.scanRsp.deviceInfo.profileID;
??CrossCallReturnLabel_8:
        LCALL   ?XSTACK_DISP0_8
        LCALL   ?Subroutine10 & 0xFFFF
//  955       rec.deviceID = selectedTarget.scanRsp.deviceInfo.deviceID;
??CrossCallReturnLabel_6:
        LCALL   ?XSTACK_DISP0_8
        LCALL   ?Subroutine14 & 0xFFFF
//  956       rec.version = selectedTarget.scanRsp.deviceInfo.version;
??CrossCallReturnLabel_14:
        PUSH    A
          CFI CFA_SP SP+-1
        MOV     A,#0x7
        LCALL   ?XSTACK_DISP0_8
        POP     A
          CFI CFA_SP SP+0
        LCALL   ?Subroutine12 & 0xFFFF
//  957       // Notify the application
//  958       if ( pfnNotifyAppCB )
??CrossCallReturnLabel_10:
        JZ      ??zllInitiator_event_loop_61
//  959       {
//  960         (*pfnNotifyAppCB)( &rec );
        ; Setup parameters for indirect call
        LCALL   ?Subroutine18 & 0xFFFF
//  961       }
??CrossCallReturnLabel_104:
        LCALL   ?CALL_IND
//  962 #if defined ( MT_APP_FUNC )
//  963       MT_ZllNotifyTL( &rec );
??zllInitiator_event_loop_61:
        ; Setup parameters for call to function MT_ZllNotifyTL
        MOV     DPL,?XSP + 0
        MOV     DPH,?XSP + 1
        MOV     R2,DPL
        MOV     R3,DPH
        LCALL   ??MT_ZllNotifyTL?relay
//  964 #endif
//  965     }
//  966     // return unprocessed events
//  967     return ( events ^ ZLL_NOTIFY_APP_EVT );
??zllInitiator_event_loop_60:
        MOV     A,R6
        MOV     R2,A
        MOV     A,R7
        XRL     A,#0x10
        SJMP    ??zllInitiator_event_loop_20
//  968   }
//  969 
//  970   if ( events & ZLL_RESET_TO_FN_EVT )
??zllInitiator_event_loop_59:
        MOV     A,R6
        ANL     A,#0x4
        JZ      ??zllInitiator_event_loop_62
//  971   {
//  972     zllInitiator_ResetToFactoryNew();
        ; Setup parameters for call to function zllInitiator_ResetToFactoryNew
        LCALL   ??zllInitiator_ResetToFactoryNew?relay
//  973 
//  974     // return unprocessed events
//  975     return ( events ^ ZLL_RESET_TO_FN_EVT );
        MOV     A,R6
        XRL     A,#0x4
        SJMP    ??zllInitiator_event_loop_29
//  976   }
//  977 
//  978   if ( events & ZLL_NWK_DISC_CNF_EVT )
??zllInitiator_event_loop_62:
        MOV     A,R6
        MOV     C,0xE0 /* A   */.0
        JNC     ??zllInitiator_event_loop_63
//  979   {
//  980     if ( zllHAScanInitiated && ( zllHAScanInitiated != ZLL_SCAN_FOUND_NOTHING ) )
        MOV     DPTR,#zllHAScanInitiated
        MOVX    A,@DPTR
        JZ      ??zllInitiator_event_loop_64
        XRL     A,#0x3
        JZ      ??zllInitiator_event_loop_64
//  981     {
//  982       if ( ( zll_ClassicalCommissioningJoinDiscoveredNwk() == ZSuccess) &&
//  983            ( pfnResetAppCB ) )
        ; Setup parameters for call to function zll_ClassicalCommissioningJoinDiscoveredNwk
        LCALL   ??zll_ClassicalCommissioningJoinDiscoveredNwk?r
        MOV     A,R1
        JNZ     ??zllInitiator_event_loop_64
        LCALL   ?Subroutine17 & 0xFFFF
??CrossCallReturnLabel_37:
        JZ      ??zllInitiator_event_loop_64
//  984       {
//  985         pfnResetAppCB();
        ; Setup parameters for indirect call
        LCALL   ??Subroutine43_0 & 0xFFFF
//  986       }
//  987     }
??CrossCallReturnLabel_99:
        LCALL   ?CALL_IND
//  988     // return unprocessed events
//  989     return ( events ^ ZLL_NWK_DISC_CNF_EVT );
??zllInitiator_event_loop_64:
        MOV     A,R6
        XRL     A,#0x1
        SJMP    ??zllInitiator_event_loop_29
//  990   }
//  991 
//  992   if ( events & ZLL_TRANS_LIFETIME_EXPIRED_EVT )
??zllInitiator_event_loop_63:
        ANL     A,#0x20
        JZ      ??zllInitiator_event_loop_65
//  993   {
//  994     zllTransID = 0;
        MOV     DPTR,#zllTransID
        CLR     A
        MOVX    @DPTR,A
        INC     DPTR
        MOVX    @DPTR,A
        INC     DPTR
        MOVX    @DPTR,A
        INC     DPTR
        MOVX    @DPTR,A
//  995     initiatorClearSelectedTarget();
        ; Setup parameters for call to function initiatorClearSelectedTarget
        LCALL   ??initiatorClearSelectedTarget?relay
//  996     initiatorSetNwkToInitState();
        ; Setup parameters for call to function initiatorSetNwkToInitState
        LCALL   ??initiatorSetNwkToInitState?relay
//  997 
//  998     // return unprocessed events
//  999     return ( events ^ ZLL_TRANS_LIFETIME_EXPIRED_EVT );
        MOV     A,R6
        XRL     A,#0x20
??zllInitiator_event_loop_29:
        MOV     R2,A
        MOV     A,R7
??zllInitiator_event_loop_20:
        MOV     R3,A
        SJMP    ??zllInitiator_event_loop_66
// 1000   }
// 1001 
// 1002   // If reach here, the events are unknown
// 1003   // Discard or make more handlers
// 1004   return 0;
??zllInitiator_event_loop_65:
        MOV     R2,#0x0
        MOV     R3,#0x0
??zllInitiator_event_loop_66:
        MOV     A,#0xe
        LJMP    ?Subroutine1 & 0xFFFF
          CFI EndBlock cfiBlock23
// 1005 }

        RSEG XDATA_Z:XDATA:NOROOT(0)
        DATA8
??channelIndex:
        DS 1
        REQUIRE __INIT_XDATA_Z

        RSEG BANKED_CODE:CODE:NOROOT(0)
?Subroutine29:
          CFI Block cfiCond24 Using cfiCommon0
          CFI Function zllInitiator_event_loop
          CFI Conditional ??CrossCallReturnLabel_41
          CFI R6 load(1, XDATA, add(CFA_XSP16, literal(-16)))
          CFI VB load(1, XDATA, add(CFA_XSP16, literal(-15)))
          CFI V0 load(1, XDATA, add(CFA_XSP16, literal(-14)))
          CFI V1 load(1, XDATA, add(CFA_XSP16, literal(-13)))
          CFI V2 load(1, XDATA, add(CFA_XSP16, literal(-12)))
          CFI V3 load(1, XDATA, add(CFA_XSP16, literal(-11)))
          CFI V4 load(1, XDATA, add(CFA_XSP16, literal(-10)))
          CFI V5 load(1, XDATA, add(CFA_XSP16, literal(-9)))
          CFI V6 load(1, XDATA, add(CFA_XSP16, literal(-8)))
          CFI V7 load(1, XDATA, add(CFA_XSP16, literal(-7)))
          CFI R7 load(1, XDATA, add(CFA_XSP16, literal(-6)))
          CFI ?RET_LOW load(1, XDATA, add(CFA_XSP16, literal(-5)))
          CFI ?RET_HIGH load(1, XDATA, add(CFA_XSP16, literal(-4)))
          CFI ?BRET_EXT load(1, XDATA, add(CFA_XSP16, literal(-3)))
          CFI DPL0 load(1, XDATA, add(CFA_XSP16, literal(-2)))
          CFI DPH0 load(1, XDATA, add(CFA_XSP16, literal(-1)))
          CFI CFA_SP SP+-1
          CFI CFA_XSP16 add(XSP16, 30)
          CFI Block cfiCond25 Using cfiCommon0
          CFI (cfiCond25) Function zllInitiator_event_loop
          CFI (cfiCond25) Conditional ??CrossCallReturnLabel_42
          CFI (cfiCond25) R6 load(1, XDATA, add(CFA_XSP16, literal(-16)))
          CFI (cfiCond25) VB load(1, XDATA, add(CFA_XSP16, literal(-15)))
          CFI (cfiCond25) V0 load(1, XDATA, add(CFA_XSP16, literal(-14)))
          CFI (cfiCond25) V1 load(1, XDATA, add(CFA_XSP16, literal(-13)))
          CFI (cfiCond25) V2 load(1, XDATA, add(CFA_XSP16, literal(-12)))
          CFI (cfiCond25) V3 load(1, XDATA, add(CFA_XSP16, literal(-11)))
          CFI (cfiCond25) V4 load(1, XDATA, add(CFA_XSP16, literal(-10)))
          CFI (cfiCond25) V5 load(1, XDATA, add(CFA_XSP16, literal(-9)))
          CFI (cfiCond25) V6 load(1, XDATA, add(CFA_XSP16, literal(-8)))
          CFI (cfiCond25) V7 load(1, XDATA, add(CFA_XSP16, literal(-7)))
          CFI (cfiCond25) R7 load(1, XDATA, add(CFA_XSP16, literal(-6)))
          CFI (cfiCond25) ?RET_LOW load(1, XDATA, add(CFA_XSP16, literal(-5)))
          CFI (cfiCond25) ?RET_HIGH load(1, XDATA, add(CFA_XSP16, literal(-4)))
          CFI (cfiCond25) ?BRET_EXT load(1, XDATA, add(CFA_XSP16, literal(-3)))
          CFI (cfiCond25) DPL0 load(1, XDATA, add(CFA_XSP16, literal(-2)))
          CFI (cfiCond25) DPH0 load(1, XDATA, add(CFA_XSP16, literal(-1)))
          CFI (cfiCond25) CFA_SP SP+-1
          CFI (cfiCond25) CFA_XSP16 add(XSP16, 30)
          CFI Block cfiCond26 Using cfiCommon0
          CFI (cfiCond26) Function zllInitiator_event_loop
          CFI (cfiCond26) Conditional ??CrossCallReturnLabel_43
          CFI (cfiCond26) R6 load(1, XDATA, add(CFA_XSP16, literal(-16)))
          CFI (cfiCond26) VB load(1, XDATA, add(CFA_XSP16, literal(-15)))
          CFI (cfiCond26) V0 load(1, XDATA, add(CFA_XSP16, literal(-14)))
          CFI (cfiCond26) V1 load(1, XDATA, add(CFA_XSP16, literal(-13)))
          CFI (cfiCond26) V2 load(1, XDATA, add(CFA_XSP16, literal(-12)))
          CFI (cfiCond26) V3 load(1, XDATA, add(CFA_XSP16, literal(-11)))
          CFI (cfiCond26) V4 load(1, XDATA, add(CFA_XSP16, literal(-10)))
          CFI (cfiCond26) V5 load(1, XDATA, add(CFA_XSP16, literal(-9)))
          CFI (cfiCond26) V6 load(1, XDATA, add(CFA_XSP16, literal(-8)))
          CFI (cfiCond26) V7 load(1, XDATA, add(CFA_XSP16, literal(-7)))
          CFI (cfiCond26) R7 load(1, XDATA, add(CFA_XSP16, literal(-6)))
          CFI (cfiCond26) ?RET_LOW load(1, XDATA, add(CFA_XSP16, literal(-5)))
          CFI (cfiCond26) ?RET_HIGH load(1, XDATA, add(CFA_XSP16, literal(-4)))
          CFI (cfiCond26) ?BRET_EXT load(1, XDATA, add(CFA_XSP16, literal(-3)))
          CFI (cfiCond26) DPL0 load(1, XDATA, add(CFA_XSP16, literal(-2)))
          CFI (cfiCond26) DPH0 load(1, XDATA, add(CFA_XSP16, literal(-1)))
          CFI (cfiCond26) CFA_SP SP+0
          CFI (cfiCond26) CFA_XSP16 add(XSP16, 30)
          CFI Block cfiCond27 Using cfiCommon0
          CFI (cfiCond27) Function initiatorSendNwkJoinReq
          CFI (cfiCond27) Conditional ??CrossCallReturnLabel_44
          CFI (cfiCond27) R6 load(1, XDATA, add(CFA_XSP16, literal(-14)))
          CFI (cfiCond27) VB load(1, XDATA, add(CFA_XSP16, literal(-13)))
          CFI (cfiCond27) V0 load(1, XDATA, add(CFA_XSP16, literal(-12)))
          CFI (cfiCond27) V1 load(1, XDATA, add(CFA_XSP16, literal(-11)))
          CFI (cfiCond27) V2 load(1, XDATA, add(CFA_XSP16, literal(-10)))
          CFI (cfiCond27) V3 load(1, XDATA, add(CFA_XSP16, literal(-9)))
          CFI (cfiCond27) V4 load(1, XDATA, add(CFA_XSP16, literal(-8)))
          CFI (cfiCond27) V5 load(1, XDATA, add(CFA_XSP16, literal(-7)))
          CFI (cfiCond27) R7 load(1, XDATA, add(CFA_XSP16, literal(-6)))
          CFI (cfiCond27) ?RET_LOW load(1, XDATA, add(CFA_XSP16, literal(-5)))
          CFI (cfiCond27) ?RET_HIGH load(1, XDATA, add(CFA_XSP16, literal(-4)))
          CFI (cfiCond27) ?BRET_EXT load(1, XDATA, add(CFA_XSP16, literal(-3)))
          CFI (cfiCond27) DPL0 load(1, XDATA, add(CFA_XSP16, literal(-2)))
          CFI (cfiCond27) DPH0 load(1, XDATA, add(CFA_XSP16, literal(-1)))
          CFI (cfiCond27) CFA_SP SP+-1
          CFI (cfiCond27) CFA_XSP16 add(XSP16, 14)
          CFI Block cfiPicker28 Using cfiCommon1
          CFI (cfiPicker28) NoFunction
          CFI (cfiPicker28) Picker
        MOV     DPL,A
        MOV     A,?V0 + 1
          CFI EndBlock cfiCond24
          CFI EndBlock cfiCond25
          CFI EndBlock cfiCond26
          CFI EndBlock cfiCond27
          CFI EndBlock cfiPicker28
        REQUIRE ??Subroutine36_0
        ; // Fall through to label ??Subroutine36_0

        RSEG BANKED_CODE:CODE:NOROOT(0)
??Subroutine36_0:
          CFI Block cfiCond29 Using cfiCommon0
          CFI Function initiatorSendNwkJoinReq
          CFI Conditional ??CrossCallReturnLabel_38
          CFI R6 load(1, XDATA, add(CFA_XSP16, literal(-14)))
          CFI VB load(1, XDATA, add(CFA_XSP16, literal(-13)))
          CFI V0 load(1, XDATA, add(CFA_XSP16, literal(-12)))
          CFI V1 load(1, XDATA, add(CFA_XSP16, literal(-11)))
          CFI V2 load(1, XDATA, add(CFA_XSP16, literal(-10)))
          CFI V3 load(1, XDATA, add(CFA_XSP16, literal(-9)))
          CFI V4 load(1, XDATA, add(CFA_XSP16, literal(-8)))
          CFI V5 load(1, XDATA, add(CFA_XSP16, literal(-7)))
          CFI R7 load(1, XDATA, add(CFA_XSP16, literal(-6)))
          CFI ?RET_LOW load(1, XDATA, add(CFA_XSP16, literal(-5)))
          CFI ?RET_HIGH load(1, XDATA, add(CFA_XSP16, literal(-4)))
          CFI ?BRET_EXT load(1, XDATA, add(CFA_XSP16, literal(-3)))
          CFI DPL0 load(1, XDATA, add(CFA_XSP16, literal(-2)))
          CFI DPH0 load(1, XDATA, add(CFA_XSP16, literal(-1)))
          CFI CFA_SP SP+0
          CFI CFA_XSP16 add(XSP16, 14)
          CFI Block cfiCond30 Using cfiCommon0
          CFI (cfiCond30) Function initiatorSendNwkJoinReq
          CFI (cfiCond30) Conditional ??CrossCallReturnLabel_39
          CFI (cfiCond30) R6 load(1, XDATA, add(CFA_XSP16, literal(-14)))
          CFI (cfiCond30) VB load(1, XDATA, add(CFA_XSP16, literal(-13)))
          CFI (cfiCond30) V0 load(1, XDATA, add(CFA_XSP16, literal(-12)))
          CFI (cfiCond30) V1 load(1, XDATA, add(CFA_XSP16, literal(-11)))
          CFI (cfiCond30) V2 load(1, XDATA, add(CFA_XSP16, literal(-10)))
          CFI (cfiCond30) V3 load(1, XDATA, add(CFA_XSP16, literal(-9)))
          CFI (cfiCond30) V4 load(1, XDATA, add(CFA_XSP16, literal(-8)))
          CFI (cfiCond30) V5 load(1, XDATA, add(CFA_XSP16, literal(-7)))
          CFI (cfiCond30) R7 load(1, XDATA, add(CFA_XSP16, literal(-6)))
          CFI (cfiCond30) ?RET_LOW load(1, XDATA, add(CFA_XSP16, literal(-5)))
          CFI (cfiCond30) ?RET_HIGH load(1, XDATA, add(CFA_XSP16, literal(-4)))
          CFI (cfiCond30) ?BRET_EXT load(1, XDATA, add(CFA_XSP16, literal(-3)))
          CFI (cfiCond30) DPL0 load(1, XDATA, add(CFA_XSP16, literal(-2)))
          CFI (cfiCond30) DPH0 load(1, XDATA, add(CFA_XSP16, literal(-1)))
          CFI (cfiCond30) CFA_SP SP+-1
          CFI (cfiCond30) CFA_XSP16 add(XSP16, 14)
          CFI Block cfiCond31 Using cfiCommon0
          CFI (cfiCond31) Function initiatorSendNwkJoinReq
          CFI (cfiCond31) Conditional ??CrossCallReturnLabel_40
          CFI (cfiCond31) R6 load(1, XDATA, add(CFA_XSP16, literal(-14)))
          CFI (cfiCond31) VB load(1, XDATA, add(CFA_XSP16, literal(-13)))
          CFI (cfiCond31) V0 load(1, XDATA, add(CFA_XSP16, literal(-12)))
          CFI (cfiCond31) V1 load(1, XDATA, add(CFA_XSP16, literal(-11)))
          CFI (cfiCond31) V2 load(1, XDATA, add(CFA_XSP16, literal(-10)))
          CFI (cfiCond31) V3 load(1, XDATA, add(CFA_XSP16, literal(-9)))
          CFI (cfiCond31) V4 load(1, XDATA, add(CFA_XSP16, literal(-8)))
          CFI (cfiCond31) V5 load(1, XDATA, add(CFA_XSP16, literal(-7)))
          CFI (cfiCond31) R7 load(1, XDATA, add(CFA_XSP16, literal(-6)))
          CFI (cfiCond31) ?RET_LOW load(1, XDATA, add(CFA_XSP16, literal(-5)))
          CFI (cfiCond31) ?RET_HIGH load(1, XDATA, add(CFA_XSP16, literal(-4)))
          CFI (cfiCond31) ?BRET_EXT load(1, XDATA, add(CFA_XSP16, literal(-3)))
          CFI (cfiCond31) DPL0 load(1, XDATA, add(CFA_XSP16, literal(-2)))
          CFI (cfiCond31) DPH0 load(1, XDATA, add(CFA_XSP16, literal(-1)))
          CFI (cfiCond31) CFA_SP SP+0
          CFI (cfiCond31) CFA_XSP16 add(XSP16, 14)
          CFI Block cfiCond32 Using cfiCommon0
          CFI (cfiCond32) Function zllInitiator_event_loop
          CFI (cfiCond32) Conditional ??CrossCallReturnLabel_41
          CFI (cfiCond32) R6 load(1, XDATA, add(CFA_XSP16, literal(-16)))
          CFI (cfiCond32) VB load(1, XDATA, add(CFA_XSP16, literal(-15)))
          CFI (cfiCond32) V0 load(1, XDATA, add(CFA_XSP16, literal(-14)))
          CFI (cfiCond32) V1 load(1, XDATA, add(CFA_XSP16, literal(-13)))
          CFI (cfiCond32) V2 load(1, XDATA, add(CFA_XSP16, literal(-12)))
          CFI (cfiCond32) V3 load(1, XDATA, add(CFA_XSP16, literal(-11)))
          CFI (cfiCond32) V4 load(1, XDATA, add(CFA_XSP16, literal(-10)))
          CFI (cfiCond32) V5 load(1, XDATA, add(CFA_XSP16, literal(-9)))
          CFI (cfiCond32) V6 load(1, XDATA, add(CFA_XSP16, literal(-8)))
          CFI (cfiCond32) V7 load(1, XDATA, add(CFA_XSP16, literal(-7)))
          CFI (cfiCond32) R7 load(1, XDATA, add(CFA_XSP16, literal(-6)))
          CFI (cfiCond32) ?RET_LOW load(1, XDATA, add(CFA_XSP16, literal(-5)))
          CFI (cfiCond32) ?RET_HIGH load(1, XDATA, add(CFA_XSP16, literal(-4)))
          CFI (cfiCond32) ?BRET_EXT load(1, XDATA, add(CFA_XSP16, literal(-3)))
          CFI (cfiCond32) DPL0 load(1, XDATA, add(CFA_XSP16, literal(-2)))
          CFI (cfiCond32) DPH0 load(1, XDATA, add(CFA_XSP16, literal(-1)))
          CFI (cfiCond32) CFA_SP SP+-1
          CFI (cfiCond32) CFA_XSP16 add(XSP16, 30)
          CFI Block cfiCond33 Using cfiCommon0
          CFI (cfiCond33) Function zllInitiator_event_loop
          CFI (cfiCond33) Conditional ??CrossCallReturnLabel_42
          CFI (cfiCond33) R6 load(1, XDATA, add(CFA_XSP16, literal(-16)))
          CFI (cfiCond33) VB load(1, XDATA, add(CFA_XSP16, literal(-15)))
          CFI (cfiCond33) V0 load(1, XDATA, add(CFA_XSP16, literal(-14)))
          CFI (cfiCond33) V1 load(1, XDATA, add(CFA_XSP16, literal(-13)))
          CFI (cfiCond33) V2 load(1, XDATA, add(CFA_XSP16, literal(-12)))
          CFI (cfiCond33) V3 load(1, XDATA, add(CFA_XSP16, literal(-11)))
          CFI (cfiCond33) V4 load(1, XDATA, add(CFA_XSP16, literal(-10)))
          CFI (cfiCond33) V5 load(1, XDATA, add(CFA_XSP16, literal(-9)))
          CFI (cfiCond33) V6 load(1, XDATA, add(CFA_XSP16, literal(-8)))
          CFI (cfiCond33) V7 load(1, XDATA, add(CFA_XSP16, literal(-7)))
          CFI (cfiCond33) R7 load(1, XDATA, add(CFA_XSP16, literal(-6)))
          CFI (cfiCond33) ?RET_LOW load(1, XDATA, add(CFA_XSP16, literal(-5)))
          CFI (cfiCond33) ?RET_HIGH load(1, XDATA, add(CFA_XSP16, literal(-4)))
          CFI (cfiCond33) ?BRET_EXT load(1, XDATA, add(CFA_XSP16, literal(-3)))
          CFI (cfiCond33) DPL0 load(1, XDATA, add(CFA_XSP16, literal(-2)))
          CFI (cfiCond33) DPH0 load(1, XDATA, add(CFA_XSP16, literal(-1)))
          CFI (cfiCond33) CFA_SP SP+-1
          CFI (cfiCond33) CFA_XSP16 add(XSP16, 30)
          CFI Block cfiCond34 Using cfiCommon0
          CFI (cfiCond34) Function zllInitiator_event_loop
          CFI (cfiCond34) Conditional ??CrossCallReturnLabel_43
          CFI (cfiCond34) R6 load(1, XDATA, add(CFA_XSP16, literal(-16)))
          CFI (cfiCond34) VB load(1, XDATA, add(CFA_XSP16, literal(-15)))
          CFI (cfiCond34) V0 load(1, XDATA, add(CFA_XSP16, literal(-14)))
          CFI (cfiCond34) V1 load(1, XDATA, add(CFA_XSP16, literal(-13)))
          CFI (cfiCond34) V2 load(1, XDATA, add(CFA_XSP16, literal(-12)))
          CFI (cfiCond34) V3 load(1, XDATA, add(CFA_XSP16, literal(-11)))
          CFI (cfiCond34) V4 load(1, XDATA, add(CFA_XSP16, literal(-10)))
          CFI (cfiCond34) V5 load(1, XDATA, add(CFA_XSP16, literal(-9)))
          CFI (cfiCond34) V6 load(1, XDATA, add(CFA_XSP16, literal(-8)))
          CFI (cfiCond34) V7 load(1, XDATA, add(CFA_XSP16, literal(-7)))
          CFI (cfiCond34) R7 load(1, XDATA, add(CFA_XSP16, literal(-6)))
          CFI (cfiCond34) ?RET_LOW load(1, XDATA, add(CFA_XSP16, literal(-5)))
          CFI (cfiCond34) ?RET_HIGH load(1, XDATA, add(CFA_XSP16, literal(-4)))
          CFI (cfiCond34) ?BRET_EXT load(1, XDATA, add(CFA_XSP16, literal(-3)))
          CFI (cfiCond34) DPL0 load(1, XDATA, add(CFA_XSP16, literal(-2)))
          CFI (cfiCond34) DPH0 load(1, XDATA, add(CFA_XSP16, literal(-1)))
          CFI (cfiCond34) CFA_SP SP+0
          CFI (cfiCond34) CFA_XSP16 add(XSP16, 30)
          CFI Block cfiCond35 Using cfiCommon0
          CFI (cfiCond35) Function initiatorSendNwkJoinReq
          CFI (cfiCond35) Conditional ??CrossCallReturnLabel_44
          CFI (cfiCond35) R6 load(1, XDATA, add(CFA_XSP16, literal(-14)))
          CFI (cfiCond35) VB load(1, XDATA, add(CFA_XSP16, literal(-13)))
          CFI (cfiCond35) V0 load(1, XDATA, add(CFA_XSP16, literal(-12)))
          CFI (cfiCond35) V1 load(1, XDATA, add(CFA_XSP16, literal(-11)))
          CFI (cfiCond35) V2 load(1, XDATA, add(CFA_XSP16, literal(-10)))
          CFI (cfiCond35) V3 load(1, XDATA, add(CFA_XSP16, literal(-9)))
          CFI (cfiCond35) V4 load(1, XDATA, add(CFA_XSP16, literal(-8)))
          CFI (cfiCond35) V5 load(1, XDATA, add(CFA_XSP16, literal(-7)))
          CFI (cfiCond35) R7 load(1, XDATA, add(CFA_XSP16, literal(-6)))
          CFI (cfiCond35) ?RET_LOW load(1, XDATA, add(CFA_XSP16, literal(-5)))
          CFI (cfiCond35) ?RET_HIGH load(1, XDATA, add(CFA_XSP16, literal(-4)))
          CFI (cfiCond35) ?BRET_EXT load(1, XDATA, add(CFA_XSP16, literal(-3)))
          CFI (cfiCond35) DPL0 load(1, XDATA, add(CFA_XSP16, literal(-2)))
          CFI (cfiCond35) DPH0 load(1, XDATA, add(CFA_XSP16, literal(-1)))
          CFI (cfiCond35) CFA_SP SP+-1
          CFI (cfiCond35) CFA_XSP16 add(XSP16, 14)
          CFI Block cfiPicker36 Using cfiCommon1
          CFI (cfiPicker36) NoFunction
          CFI (cfiPicker36) Picker
        ADDC    A,#0x0
        MOV     DPH,A
        RET
          CFI EndBlock cfiCond29
          CFI EndBlock cfiCond30
          CFI EndBlock cfiCond31
          CFI EndBlock cfiCond32
          CFI EndBlock cfiCond33
          CFI EndBlock cfiCond34
          CFI EndBlock cfiCond35
          CFI EndBlock cfiPicker36

        RSEG BANKED_CODE:CODE:NOROOT(0)
?Subroutine22:
          CFI Block cfiCond37 Using cfiCommon0
          CFI Function zllInitiator_event_loop
          CFI Conditional ??CrossCallReturnLabel_25
          CFI R6 load(1, XDATA, add(CFA_XSP16, literal(-16)))
          CFI VB load(1, XDATA, add(CFA_XSP16, literal(-15)))
          CFI V0 load(1, XDATA, add(CFA_XSP16, literal(-14)))
          CFI V1 load(1, XDATA, add(CFA_XSP16, literal(-13)))
          CFI V2 load(1, XDATA, add(CFA_XSP16, literal(-12)))
          CFI V3 load(1, XDATA, add(CFA_XSP16, literal(-11)))
          CFI V4 load(1, XDATA, add(CFA_XSP16, literal(-10)))
          CFI V5 load(1, XDATA, add(CFA_XSP16, literal(-9)))
          CFI V6 load(1, XDATA, add(CFA_XSP16, literal(-8)))
          CFI V7 load(1, XDATA, add(CFA_XSP16, literal(-7)))
          CFI R7 load(1, XDATA, add(CFA_XSP16, literal(-6)))
          CFI ?RET_LOW load(1, XDATA, add(CFA_XSP16, literal(-5)))
          CFI ?RET_HIGH load(1, XDATA, add(CFA_XSP16, literal(-4)))
          CFI ?BRET_EXT load(1, XDATA, add(CFA_XSP16, literal(-3)))
          CFI DPL0 load(1, XDATA, add(CFA_XSP16, literal(-2)))
          CFI DPH0 load(1, XDATA, add(CFA_XSP16, literal(-1)))
          CFI CFA_SP SP+0
          CFI CFA_XSP16 add(XSP16, 30)
          CFI Block cfiCond38 Using cfiCommon0
          CFI (cfiCond38) Function zllInitiator_event_loop
          CFI (cfiCond38) Conditional ??CrossCallReturnLabel_26
          CFI (cfiCond38) R6 load(1, XDATA, add(CFA_XSP16, literal(-16)))
          CFI (cfiCond38) VB load(1, XDATA, add(CFA_XSP16, literal(-15)))
          CFI (cfiCond38) V0 load(1, XDATA, add(CFA_XSP16, literal(-14)))
          CFI (cfiCond38) V1 load(1, XDATA, add(CFA_XSP16, literal(-13)))
          CFI (cfiCond38) V2 load(1, XDATA, add(CFA_XSP16, literal(-12)))
          CFI (cfiCond38) V3 load(1, XDATA, add(CFA_XSP16, literal(-11)))
          CFI (cfiCond38) V4 load(1, XDATA, add(CFA_XSP16, literal(-10)))
          CFI (cfiCond38) V5 load(1, XDATA, add(CFA_XSP16, literal(-9)))
          CFI (cfiCond38) V6 load(1, XDATA, add(CFA_XSP16, literal(-8)))
          CFI (cfiCond38) V7 load(1, XDATA, add(CFA_XSP16, literal(-7)))
          CFI (cfiCond38) R7 load(1, XDATA, add(CFA_XSP16, literal(-6)))
          CFI (cfiCond38) ?RET_LOW load(1, XDATA, add(CFA_XSP16, literal(-5)))
          CFI (cfiCond38) ?RET_HIGH load(1, XDATA, add(CFA_XSP16, literal(-4)))
          CFI (cfiCond38) ?BRET_EXT load(1, XDATA, add(CFA_XSP16, literal(-3)))
          CFI (cfiCond38) DPL0 load(1, XDATA, add(CFA_XSP16, literal(-2)))
          CFI (cfiCond38) DPH0 load(1, XDATA, add(CFA_XSP16, literal(-1)))
          CFI (cfiCond38) CFA_SP SP+0
          CFI (cfiCond38) CFA_XSP16 add(XSP16, 30)
          CFI Block cfiPicker39 Using cfiCommon1
          CFI (cfiPicker39) NoFunction
          CFI (cfiPicker39) Picker
        LCALL   ?Subroutine31 & 0xFFFF
??CrossCallReturnLabel_95:
        MOV     DPTR,#selectedTarget + 25
        MOVX    A,@DPTR
        XRL     A,R0
        RET
          CFI EndBlock cfiCond37
          CFI EndBlock cfiCond38
          CFI EndBlock cfiPicker39

        RSEG BANKED_CODE:CODE:NOROOT(0)
?Subroutine14:
          CFI Block cfiCond40 Using cfiCommon0
          CFI Function zllInitiator_event_loop
          CFI Conditional ??CrossCallReturnLabel_13
          CFI R6 load(1, XDATA, add(CFA_XSP16, literal(-16)))
          CFI VB load(1, XDATA, add(CFA_XSP16, literal(-15)))
          CFI V0 load(1, XDATA, add(CFA_XSP16, literal(-14)))
          CFI V1 load(1, XDATA, add(CFA_XSP16, literal(-13)))
          CFI V2 load(1, XDATA, add(CFA_XSP16, literal(-12)))
          CFI V3 load(1, XDATA, add(CFA_XSP16, literal(-11)))
          CFI V4 load(1, XDATA, add(CFA_XSP16, literal(-10)))
          CFI V5 load(1, XDATA, add(CFA_XSP16, literal(-9)))
          CFI V6 load(1, XDATA, add(CFA_XSP16, literal(-8)))
          CFI V7 load(1, XDATA, add(CFA_XSP16, literal(-7)))
          CFI R7 load(1, XDATA, add(CFA_XSP16, literal(-6)))
          CFI ?RET_LOW load(1, XDATA, add(CFA_XSP16, literal(-5)))
          CFI ?RET_HIGH load(1, XDATA, add(CFA_XSP16, literal(-4)))
          CFI ?BRET_EXT load(1, XDATA, add(CFA_XSP16, literal(-3)))
          CFI DPL0 load(1, XDATA, add(CFA_XSP16, literal(-2)))
          CFI DPH0 load(1, XDATA, add(CFA_XSP16, literal(-1)))
          CFI CFA_SP SP+0
          CFI CFA_XSP16 add(XSP16, 30)
          CFI Block cfiCond41 Using cfiCommon0
          CFI (cfiCond41) Function zllInitiator_event_loop
          CFI (cfiCond41) Conditional ??CrossCallReturnLabel_14
          CFI (cfiCond41) R6 load(1, XDATA, add(CFA_XSP16, literal(-16)))
          CFI (cfiCond41) VB load(1, XDATA, add(CFA_XSP16, literal(-15)))
          CFI (cfiCond41) V0 load(1, XDATA, add(CFA_XSP16, literal(-14)))
          CFI (cfiCond41) V1 load(1, XDATA, add(CFA_XSP16, literal(-13)))
          CFI (cfiCond41) V2 load(1, XDATA, add(CFA_XSP16, literal(-12)))
          CFI (cfiCond41) V3 load(1, XDATA, add(CFA_XSP16, literal(-11)))
          CFI (cfiCond41) V4 load(1, XDATA, add(CFA_XSP16, literal(-10)))
          CFI (cfiCond41) V5 load(1, XDATA, add(CFA_XSP16, literal(-9)))
          CFI (cfiCond41) V6 load(1, XDATA, add(CFA_XSP16, literal(-8)))
          CFI (cfiCond41) V7 load(1, XDATA, add(CFA_XSP16, literal(-7)))
          CFI (cfiCond41) R7 load(1, XDATA, add(CFA_XSP16, literal(-6)))
          CFI (cfiCond41) ?RET_LOW load(1, XDATA, add(CFA_XSP16, literal(-5)))
          CFI (cfiCond41) ?RET_HIGH load(1, XDATA, add(CFA_XSP16, literal(-4)))
          CFI (cfiCond41) ?BRET_EXT load(1, XDATA, add(CFA_XSP16, literal(-3)))
          CFI (cfiCond41) DPL0 load(1, XDATA, add(CFA_XSP16, literal(-2)))
          CFI (cfiCond41) DPH0 load(1, XDATA, add(CFA_XSP16, literal(-1)))
          CFI (cfiCond41) CFA_SP SP+0
          CFI (cfiCond41) CFA_XSP16 add(XSP16, 30)
          CFI Block cfiPicker42 Using cfiCommon1
          CFI (cfiPicker42) NoFunction
          CFI (cfiPicker42) Picker
        MOV     A,R0
        MOVX    @DPTR,A
        INC     DPTR
        MOV     A,R1
        MOVX    @DPTR,A
        MOV     DPTR,#selectedTarget + 36
        MOVX    A,@DPTR
        RET
          CFI EndBlock cfiCond40
          CFI EndBlock cfiCond41
          CFI EndBlock cfiPicker42

        RSEG BANKED_CODE:CODE:NOROOT(0)
?Subroutine13:
          CFI Block cfiCond43 Using cfiCommon0
          CFI Function zllInitiator_event_loop
          CFI Conditional ??CrossCallReturnLabel_11
          CFI R6 load(1, XDATA, add(CFA_XSP16, literal(-16)))
          CFI VB load(1, XDATA, add(CFA_XSP16, literal(-15)))
          CFI V0 load(1, XDATA, add(CFA_XSP16, literal(-14)))
          CFI V1 load(1, XDATA, add(CFA_XSP16, literal(-13)))
          CFI V2 load(1, XDATA, add(CFA_XSP16, literal(-12)))
          CFI V3 load(1, XDATA, add(CFA_XSP16, literal(-11)))
          CFI V4 load(1, XDATA, add(CFA_XSP16, literal(-10)))
          CFI V5 load(1, XDATA, add(CFA_XSP16, literal(-9)))
          CFI V6 load(1, XDATA, add(CFA_XSP16, literal(-8)))
          CFI V7 load(1, XDATA, add(CFA_XSP16, literal(-7)))
          CFI R7 load(1, XDATA, add(CFA_XSP16, literal(-6)))
          CFI ?RET_LOW load(1, XDATA, add(CFA_XSP16, literal(-5)))
          CFI ?RET_HIGH load(1, XDATA, add(CFA_XSP16, literal(-4)))
          CFI ?BRET_EXT load(1, XDATA, add(CFA_XSP16, literal(-3)))
          CFI DPL0 load(1, XDATA, add(CFA_XSP16, literal(-2)))
          CFI DPH0 load(1, XDATA, add(CFA_XSP16, literal(-1)))
          CFI CFA_SP SP+0
          CFI CFA_XSP16 add(XSP16, 30)
          CFI Block cfiCond44 Using cfiCommon0
          CFI (cfiCond44) Function zllInitiator_event_loop
          CFI (cfiCond44) Conditional ??CrossCallReturnLabel_12
          CFI (cfiCond44) R6 load(1, XDATA, add(CFA_XSP16, literal(-16)))
          CFI (cfiCond44) VB load(1, XDATA, add(CFA_XSP16, literal(-15)))
          CFI (cfiCond44) V0 load(1, XDATA, add(CFA_XSP16, literal(-14)))
          CFI (cfiCond44) V1 load(1, XDATA, add(CFA_XSP16, literal(-13)))
          CFI (cfiCond44) V2 load(1, XDATA, add(CFA_XSP16, literal(-12)))
          CFI (cfiCond44) V3 load(1, XDATA, add(CFA_XSP16, literal(-11)))
          CFI (cfiCond44) V4 load(1, XDATA, add(CFA_XSP16, literal(-10)))
          CFI (cfiCond44) V5 load(1, XDATA, add(CFA_XSP16, literal(-9)))
          CFI (cfiCond44) V6 load(1, XDATA, add(CFA_XSP16, literal(-8)))
          CFI (cfiCond44) V7 load(1, XDATA, add(CFA_XSP16, literal(-7)))
          CFI (cfiCond44) R7 load(1, XDATA, add(CFA_XSP16, literal(-6)))
          CFI (cfiCond44) ?RET_LOW load(1, XDATA, add(CFA_XSP16, literal(-5)))
          CFI (cfiCond44) ?RET_HIGH load(1, XDATA, add(CFA_XSP16, literal(-4)))
          CFI (cfiCond44) ?BRET_EXT load(1, XDATA, add(CFA_XSP16, literal(-3)))
          CFI (cfiCond44) DPL0 load(1, XDATA, add(CFA_XSP16, literal(-2)))
          CFI (cfiCond44) DPH0 load(1, XDATA, add(CFA_XSP16, literal(-1)))
          CFI (cfiCond44) CFA_SP SP+0
          CFI (cfiCond44) CFA_XSP16 add(XSP16, 30)
          CFI Block cfiPicker45 Using cfiCommon1
          CFI (cfiPicker45) NoFunction
          CFI (cfiPicker45) Picker
        LCALL   ??Subroutine41_0 & 0xFFFF
??CrossCallReturnLabel_92:
        MOV     DPL,?XSP + 0
        MOV     DPH,?XSP + 1
        MOV     A,R0
        MOVX    @DPTR,A
        INC     DPTR
        MOV     A,R1
        MOVX    @DPTR,A
        MOV     DPTR,#selectedTarget + 31
        MOVX    A,@DPTR
        RET
          CFI EndBlock cfiCond43
          CFI EndBlock cfiCond44
          CFI EndBlock cfiPicker45

        RSEG BANKED_CODE:CODE:NOROOT(0)
?Subroutine12:
          CFI Block cfiCond46 Using cfiCommon0
          CFI Function zllInitiator_event_loop
          CFI Conditional ??CrossCallReturnLabel_9
          CFI R6 load(1, XDATA, add(CFA_XSP16, literal(-16)))
          CFI VB load(1, XDATA, add(CFA_XSP16, literal(-15)))
          CFI V0 load(1, XDATA, add(CFA_XSP16, literal(-14)))
          CFI V1 load(1, XDATA, add(CFA_XSP16, literal(-13)))
          CFI V2 load(1, XDATA, add(CFA_XSP16, literal(-12)))
          CFI V3 load(1, XDATA, add(CFA_XSP16, literal(-11)))
          CFI V4 load(1, XDATA, add(CFA_XSP16, literal(-10)))
          CFI V5 load(1, XDATA, add(CFA_XSP16, literal(-9)))
          CFI V6 load(1, XDATA, add(CFA_XSP16, literal(-8)))
          CFI V7 load(1, XDATA, add(CFA_XSP16, literal(-7)))
          CFI R7 load(1, XDATA, add(CFA_XSP16, literal(-6)))
          CFI ?RET_LOW load(1, XDATA, add(CFA_XSP16, literal(-5)))
          CFI ?RET_HIGH load(1, XDATA, add(CFA_XSP16, literal(-4)))
          CFI ?BRET_EXT load(1, XDATA, add(CFA_XSP16, literal(-3)))
          CFI DPL0 load(1, XDATA, add(CFA_XSP16, literal(-2)))
          CFI DPH0 load(1, XDATA, add(CFA_XSP16, literal(-1)))
          CFI CFA_SP SP+0
          CFI CFA_XSP16 add(XSP16, 30)
          CFI Block cfiCond47 Using cfiCommon0
          CFI (cfiCond47) Function zllInitiator_event_loop
          CFI (cfiCond47) Conditional ??CrossCallReturnLabel_10
          CFI (cfiCond47) R6 load(1, XDATA, add(CFA_XSP16, literal(-16)))
          CFI (cfiCond47) VB load(1, XDATA, add(CFA_XSP16, literal(-15)))
          CFI (cfiCond47) V0 load(1, XDATA, add(CFA_XSP16, literal(-14)))
          CFI (cfiCond47) V1 load(1, XDATA, add(CFA_XSP16, literal(-13)))
          CFI (cfiCond47) V2 load(1, XDATA, add(CFA_XSP16, literal(-12)))
          CFI (cfiCond47) V3 load(1, XDATA, add(CFA_XSP16, literal(-11)))
          CFI (cfiCond47) V4 load(1, XDATA, add(CFA_XSP16, literal(-10)))
          CFI (cfiCond47) V5 load(1, XDATA, add(CFA_XSP16, literal(-9)))
          CFI (cfiCond47) V6 load(1, XDATA, add(CFA_XSP16, literal(-8)))
          CFI (cfiCond47) V7 load(1, XDATA, add(CFA_XSP16, literal(-7)))
          CFI (cfiCond47) R7 load(1, XDATA, add(CFA_XSP16, literal(-6)))
          CFI (cfiCond47) ?RET_LOW load(1, XDATA, add(CFA_XSP16, literal(-5)))
          CFI (cfiCond47) ?RET_HIGH load(1, XDATA, add(CFA_XSP16, literal(-4)))
          CFI (cfiCond47) ?BRET_EXT load(1, XDATA, add(CFA_XSP16, literal(-3)))
          CFI (cfiCond47) DPL0 load(1, XDATA, add(CFA_XSP16, literal(-2)))
          CFI (cfiCond47) DPH0 load(1, XDATA, add(CFA_XSP16, literal(-1)))
          CFI (cfiCond47) CFA_SP SP+0
          CFI (cfiCond47) CFA_XSP16 add(XSP16, 30)
          CFI Block cfiPicker48 Using cfiCommon1
          CFI (cfiPicker48) NoFunction
          CFI (cfiPicker48) Picker
        MOVX    @DPTR,A
        MOV     DPTR,#pfnNotifyAppCB
        LCALL   ??Subroutine41_0 & 0xFFFF
??CrossCallReturnLabel_91:
        MOV     A,R0
        ORL     A,R1
        RET
          CFI EndBlock cfiCond46
          CFI EndBlock cfiCond47
          CFI EndBlock cfiPicker48

        RSEG BANKED_CODE:CODE:NOROOT(0)
?Subroutine11:
          CFI Block cfiCond49 Using cfiCommon0
          CFI Function zllInitiator_event_loop
          CFI Conditional ??CrossCallReturnLabel_7
          CFI R6 load(1, XDATA, add(CFA_XSP16, literal(-16)))
          CFI VB load(1, XDATA, add(CFA_XSP16, literal(-15)))
          CFI V0 load(1, XDATA, add(CFA_XSP16, literal(-14)))
          CFI V1 load(1, XDATA, add(CFA_XSP16, literal(-13)))
          CFI V2 load(1, XDATA, add(CFA_XSP16, literal(-12)))
          CFI V3 load(1, XDATA, add(CFA_XSP16, literal(-11)))
          CFI V4 load(1, XDATA, add(CFA_XSP16, literal(-10)))
          CFI V5 load(1, XDATA, add(CFA_XSP16, literal(-9)))
          CFI V6 load(1, XDATA, add(CFA_XSP16, literal(-8)))
          CFI V7 load(1, XDATA, add(CFA_XSP16, literal(-7)))
          CFI R7 load(1, XDATA, add(CFA_XSP16, literal(-6)))
          CFI ?RET_LOW load(1, XDATA, add(CFA_XSP16, literal(-5)))
          CFI ?RET_HIGH load(1, XDATA, add(CFA_XSP16, literal(-4)))
          CFI ?BRET_EXT load(1, XDATA, add(CFA_XSP16, literal(-3)))
          CFI DPL0 load(1, XDATA, add(CFA_XSP16, literal(-2)))
          CFI DPH0 load(1, XDATA, add(CFA_XSP16, literal(-1)))
          CFI CFA_SP SP+0
          CFI CFA_XSP16 add(XSP16, 30)
          CFI Block cfiCond50 Using cfiCommon0
          CFI (cfiCond50) Function zllInitiator_event_loop
          CFI (cfiCond50) Conditional ??CrossCallReturnLabel_8
          CFI (cfiCond50) R6 load(1, XDATA, add(CFA_XSP16, literal(-16)))
          CFI (cfiCond50) VB load(1, XDATA, add(CFA_XSP16, literal(-15)))
          CFI (cfiCond50) V0 load(1, XDATA, add(CFA_XSP16, literal(-14)))
          CFI (cfiCond50) V1 load(1, XDATA, add(CFA_XSP16, literal(-13)))
          CFI (cfiCond50) V2 load(1, XDATA, add(CFA_XSP16, literal(-12)))
          CFI (cfiCond50) V3 load(1, XDATA, add(CFA_XSP16, literal(-11)))
          CFI (cfiCond50) V4 load(1, XDATA, add(CFA_XSP16, literal(-10)))
          CFI (cfiCond50) V5 load(1, XDATA, add(CFA_XSP16, literal(-9)))
          CFI (cfiCond50) V6 load(1, XDATA, add(CFA_XSP16, literal(-8)))
          CFI (cfiCond50) V7 load(1, XDATA, add(CFA_XSP16, literal(-7)))
          CFI (cfiCond50) R7 load(1, XDATA, add(CFA_XSP16, literal(-6)))
          CFI (cfiCond50) ?RET_LOW load(1, XDATA, add(CFA_XSP16, literal(-5)))
          CFI (cfiCond50) ?RET_HIGH load(1, XDATA, add(CFA_XSP16, literal(-4)))
          CFI (cfiCond50) ?BRET_EXT load(1, XDATA, add(CFA_XSP16, literal(-3)))
          CFI (cfiCond50) DPL0 load(1, XDATA, add(CFA_XSP16, literal(-2)))
          CFI (cfiCond50) DPH0 load(1, XDATA, add(CFA_XSP16, literal(-1)))
          CFI (cfiCond50) CFA_SP SP+0
          CFI (cfiCond50) CFA_XSP16 add(XSP16, 30)
          CFI Block cfiPicker51 Using cfiCommon1
          CFI (cfiPicker51) NoFunction
          CFI (cfiPicker51) Picker
        MOVX    @DPTR,A
        MOV     DPTR,#selectedTarget + 32
        LCALL   ??Subroutine41_0 & 0xFFFF
??CrossCallReturnLabel_90:
        MOV     A,#0x3
        RET
          CFI EndBlock cfiCond49
          CFI EndBlock cfiCond50
          CFI EndBlock cfiPicker51

        RSEG BANKED_CODE:CODE:NOROOT(0)
?Subroutine10:
          CFI Block cfiCond52 Using cfiCommon0
          CFI Function zllInitiator_event_loop
          CFI Conditional ??CrossCallReturnLabel_5
          CFI R6 load(1, XDATA, add(CFA_XSP16, literal(-16)))
          CFI VB load(1, XDATA, add(CFA_XSP16, literal(-15)))
          CFI V0 load(1, XDATA, add(CFA_XSP16, literal(-14)))
          CFI V1 load(1, XDATA, add(CFA_XSP16, literal(-13)))
          CFI V2 load(1, XDATA, add(CFA_XSP16, literal(-12)))
          CFI V3 load(1, XDATA, add(CFA_XSP16, literal(-11)))
          CFI V4 load(1, XDATA, add(CFA_XSP16, literal(-10)))
          CFI V5 load(1, XDATA, add(CFA_XSP16, literal(-9)))
          CFI V6 load(1, XDATA, add(CFA_XSP16, literal(-8)))
          CFI V7 load(1, XDATA, add(CFA_XSP16, literal(-7)))
          CFI R7 load(1, XDATA, add(CFA_XSP16, literal(-6)))
          CFI ?RET_LOW load(1, XDATA, add(CFA_XSP16, literal(-5)))
          CFI ?RET_HIGH load(1, XDATA, add(CFA_XSP16, literal(-4)))
          CFI ?BRET_EXT load(1, XDATA, add(CFA_XSP16, literal(-3)))
          CFI DPL0 load(1, XDATA, add(CFA_XSP16, literal(-2)))
          CFI DPH0 load(1, XDATA, add(CFA_XSP16, literal(-1)))
          CFI CFA_SP SP+0
          CFI CFA_XSP16 add(XSP16, 30)
          CFI Block cfiCond53 Using cfiCommon0
          CFI (cfiCond53) Function zllInitiator_event_loop
          CFI (cfiCond53) Conditional ??CrossCallReturnLabel_6
          CFI (cfiCond53) R6 load(1, XDATA, add(CFA_XSP16, literal(-16)))
          CFI (cfiCond53) VB load(1, XDATA, add(CFA_XSP16, literal(-15)))
          CFI (cfiCond53) V0 load(1, XDATA, add(CFA_XSP16, literal(-14)))
          CFI (cfiCond53) V1 load(1, XDATA, add(CFA_XSP16, literal(-13)))
          CFI (cfiCond53) V2 load(1, XDATA, add(CFA_XSP16, literal(-12)))
          CFI (cfiCond53) V3 load(1, XDATA, add(CFA_XSP16, literal(-11)))
          CFI (cfiCond53) V4 load(1, XDATA, add(CFA_XSP16, literal(-10)))
          CFI (cfiCond53) V5 load(1, XDATA, add(CFA_XSP16, literal(-9)))
          CFI (cfiCond53) V6 load(1, XDATA, add(CFA_XSP16, literal(-8)))
          CFI (cfiCond53) V7 load(1, XDATA, add(CFA_XSP16, literal(-7)))
          CFI (cfiCond53) R7 load(1, XDATA, add(CFA_XSP16, literal(-6)))
          CFI (cfiCond53) ?RET_LOW load(1, XDATA, add(CFA_XSP16, literal(-5)))
          CFI (cfiCond53) ?RET_HIGH load(1, XDATA, add(CFA_XSP16, literal(-4)))
          CFI (cfiCond53) ?BRET_EXT load(1, XDATA, add(CFA_XSP16, literal(-3)))
          CFI (cfiCond53) DPL0 load(1, XDATA, add(CFA_XSP16, literal(-2)))
          CFI (cfiCond53) DPH0 load(1, XDATA, add(CFA_XSP16, literal(-1)))
          CFI (cfiCond53) CFA_SP SP+0
          CFI (cfiCond53) CFA_XSP16 add(XSP16, 30)
          CFI Block cfiPicker54 Using cfiCommon1
          CFI (cfiPicker54) NoFunction
          CFI (cfiPicker54) Picker
        MOV     A,R0
        MOVX    @DPTR,A
        INC     DPTR
        MOV     A,R1
        MOVX    @DPTR,A
        MOV     DPTR,#selectedTarget + 34
        LCALL   ??Subroutine41_0 & 0xFFFF
??CrossCallReturnLabel_89:
        MOV     A,#0x5
        RET
          CFI EndBlock cfiCond52
          CFI EndBlock cfiCond53
          CFI EndBlock cfiPicker54

        RSEG BANKED_CODE:CODE:NOROOT(0)
?Subroutine7:
          CFI Block cfiCond55 Using cfiCommon0
          CFI Function zllInitiator_event_loop
          CFI Conditional ??CrossCallReturnLabel_45
          CFI R6 load(1, XDATA, add(CFA_XSP16, literal(-16)))
          CFI VB load(1, XDATA, add(CFA_XSP16, literal(-15)))
          CFI V0 load(1, XDATA, add(CFA_XSP16, literal(-14)))
          CFI V1 load(1, XDATA, add(CFA_XSP16, literal(-13)))
          CFI V2 load(1, XDATA, add(CFA_XSP16, literal(-12)))
          CFI V3 load(1, XDATA, add(CFA_XSP16, literal(-11)))
          CFI V4 load(1, XDATA, add(CFA_XSP16, literal(-10)))
          CFI V5 load(1, XDATA, add(CFA_XSP16, literal(-9)))
          CFI V6 load(1, XDATA, add(CFA_XSP16, literal(-8)))
          CFI V7 load(1, XDATA, add(CFA_XSP16, literal(-7)))
          CFI R7 load(1, XDATA, add(CFA_XSP16, literal(-6)))
          CFI ?RET_LOW load(1, XDATA, add(CFA_XSP16, literal(-5)))
          CFI ?RET_HIGH load(1, XDATA, add(CFA_XSP16, literal(-4)))
          CFI ?BRET_EXT load(1, XDATA, add(CFA_XSP16, literal(-3)))
          CFI DPL0 load(1, XDATA, add(CFA_XSP16, literal(-2)))
          CFI DPH0 load(1, XDATA, add(CFA_XSP16, literal(-1)))
          CFI CFA_SP SP+0
          CFI CFA_XSP16 add(XSP16, 30)
          CFI Block cfiCond56 Using cfiCommon0
          CFI (cfiCond56) Function zllInitiator_event_loop
          CFI (cfiCond56) Conditional ??CrossCallReturnLabel_46
          CFI (cfiCond56) R6 load(1, XDATA, add(CFA_XSP16, literal(-16)))
          CFI (cfiCond56) VB load(1, XDATA, add(CFA_XSP16, literal(-15)))
          CFI (cfiCond56) V0 load(1, XDATA, add(CFA_XSP16, literal(-14)))
          CFI (cfiCond56) V1 load(1, XDATA, add(CFA_XSP16, literal(-13)))
          CFI (cfiCond56) V2 load(1, XDATA, add(CFA_XSP16, literal(-12)))
          CFI (cfiCond56) V3 load(1, XDATA, add(CFA_XSP16, literal(-11)))
          CFI (cfiCond56) V4 load(1, XDATA, add(CFA_XSP16, literal(-10)))
          CFI (cfiCond56) V5 load(1, XDATA, add(CFA_XSP16, literal(-9)))
          CFI (cfiCond56) V6 load(1, XDATA, add(CFA_XSP16, literal(-8)))
          CFI (cfiCond56) V7 load(1, XDATA, add(CFA_XSP16, literal(-7)))
          CFI (cfiCond56) R7 load(1, XDATA, add(CFA_XSP16, literal(-6)))
          CFI (cfiCond56) ?RET_LOW load(1, XDATA, add(CFA_XSP16, literal(-5)))
          CFI (cfiCond56) ?RET_HIGH load(1, XDATA, add(CFA_XSP16, literal(-4)))
          CFI (cfiCond56) ?BRET_EXT load(1, XDATA, add(CFA_XSP16, literal(-3)))
          CFI (cfiCond56) DPL0 load(1, XDATA, add(CFA_XSP16, literal(-2)))
          CFI (cfiCond56) DPH0 load(1, XDATA, add(CFA_XSP16, literal(-1)))
          CFI (cfiCond56) CFA_SP SP+0
          CFI (cfiCond56) CFA_XSP16 add(XSP16, 30)
          CFI Block cfiPicker57 Using cfiCommon1
          CFI (cfiPicker57) NoFunction
          CFI (cfiPicker57) Picker
        MOVX    @DPTR,A
        INC     DPTR
          CFI EndBlock cfiCond55
          CFI EndBlock cfiCond56
          CFI EndBlock cfiPicker57
        REQUIRE ??Subroutine37_0
        ; // Fall through to label ??Subroutine37_0

        RSEG BANKED_CODE:CODE:NOROOT(0)
??Subroutine37_0:
          CFI Block cfiCond58 Using cfiCommon0
          CFI Function initiatorSendNwkStartReq
          CFI Conditional ??CrossCallReturnLabel_47
          CFI R6 load(1, XDATA, add(CFA_XSP16, literal(-20)))
          CFI VB load(1, XDATA, add(CFA_XSP16, literal(-19)))
          CFI V0 load(1, XDATA, add(CFA_XSP16, literal(-18)))
          CFI V1 load(1, XDATA, add(CFA_XSP16, literal(-17)))
          CFI V2 load(1, XDATA, add(CFA_XSP16, literal(-16)))
          CFI V3 load(1, XDATA, add(CFA_XSP16, literal(-15)))
          CFI V4 load(1, XDATA, add(CFA_XSP16, literal(-14)))
          CFI V5 load(1, XDATA, add(CFA_XSP16, literal(-13)))
          CFI V6 load(1, XDATA, add(CFA_XSP16, literal(-12)))
          CFI V7 load(1, XDATA, add(CFA_XSP16, literal(-11)))
          CFI V8 load(1, XDATA, add(CFA_XSP16, literal(-10)))
          CFI V9 load(1, XDATA, add(CFA_XSP16, literal(-9)))
          CFI V10 load(1, XDATA, add(CFA_XSP16, literal(-8)))
          CFI V11 load(1, XDATA, add(CFA_XSP16, literal(-7)))
          CFI R7 load(1, XDATA, add(CFA_XSP16, literal(-6)))
          CFI ?RET_LOW load(1, XDATA, add(CFA_XSP16, literal(-5)))
          CFI ?RET_HIGH load(1, XDATA, add(CFA_XSP16, literal(-4)))
          CFI ?BRET_EXT load(1, XDATA, add(CFA_XSP16, literal(-3)))
          CFI DPL0 load(1, XDATA, add(CFA_XSP16, literal(-2)))
          CFI DPH0 load(1, XDATA, add(CFA_XSP16, literal(-1)))
          CFI CFA_SP SP+0
          CFI CFA_XSP16 add(XSP16, 20)
          CFI Block cfiCond59 Using cfiCommon0
          CFI (cfiCond59) Function zllInitiator_event_loop
          CFI (cfiCond59) Conditional ??CrossCallReturnLabel_45
          CFI (cfiCond59) R6 load(1, XDATA, add(CFA_XSP16, literal(-16)))
          CFI (cfiCond59) VB load(1, XDATA, add(CFA_XSP16, literal(-15)))
          CFI (cfiCond59) V0 load(1, XDATA, add(CFA_XSP16, literal(-14)))
          CFI (cfiCond59) V1 load(1, XDATA, add(CFA_XSP16, literal(-13)))
          CFI (cfiCond59) V2 load(1, XDATA, add(CFA_XSP16, literal(-12)))
          CFI (cfiCond59) V3 load(1, XDATA, add(CFA_XSP16, literal(-11)))
          CFI (cfiCond59) V4 load(1, XDATA, add(CFA_XSP16, literal(-10)))
          CFI (cfiCond59) V5 load(1, XDATA, add(CFA_XSP16, literal(-9)))
          CFI (cfiCond59) V6 load(1, XDATA, add(CFA_XSP16, literal(-8)))
          CFI (cfiCond59) V7 load(1, XDATA, add(CFA_XSP16, literal(-7)))
          CFI (cfiCond59) R7 load(1, XDATA, add(CFA_XSP16, literal(-6)))
          CFI (cfiCond59) ?RET_LOW load(1, XDATA, add(CFA_XSP16, literal(-5)))
          CFI (cfiCond59) ?RET_HIGH load(1, XDATA, add(CFA_XSP16, literal(-4)))
          CFI (cfiCond59) ?BRET_EXT load(1, XDATA, add(CFA_XSP16, literal(-3)))
          CFI (cfiCond59) DPL0 load(1, XDATA, add(CFA_XSP16, literal(-2)))
          CFI (cfiCond59) DPH0 load(1, XDATA, add(CFA_XSP16, literal(-1)))
          CFI (cfiCond59) CFA_SP SP+0
          CFI (cfiCond59) CFA_XSP16 add(XSP16, 30)
          CFI Block cfiCond60 Using cfiCommon0
          CFI (cfiCond60) Function zllInitiator_event_loop
          CFI (cfiCond60) Conditional ??CrossCallReturnLabel_46
          CFI (cfiCond60) R6 load(1, XDATA, add(CFA_XSP16, literal(-16)))
          CFI (cfiCond60) VB load(1, XDATA, add(CFA_XSP16, literal(-15)))
          CFI (cfiCond60) V0 load(1, XDATA, add(CFA_XSP16, literal(-14)))
          CFI (cfiCond60) V1 load(1, XDATA, add(CFA_XSP16, literal(-13)))
          CFI (cfiCond60) V2 load(1, XDATA, add(CFA_XSP16, literal(-12)))
          CFI (cfiCond60) V3 load(1, XDATA, add(CFA_XSP16, literal(-11)))
          CFI (cfiCond60) V4 load(1, XDATA, add(CFA_XSP16, literal(-10)))
          CFI (cfiCond60) V5 load(1, XDATA, add(CFA_XSP16, literal(-9)))
          CFI (cfiCond60) V6 load(1, XDATA, add(CFA_XSP16, literal(-8)))
          CFI (cfiCond60) V7 load(1, XDATA, add(CFA_XSP16, literal(-7)))
          CFI (cfiCond60) R7 load(1, XDATA, add(CFA_XSP16, literal(-6)))
          CFI (cfiCond60) ?RET_LOW load(1, XDATA, add(CFA_XSP16, literal(-5)))
          CFI (cfiCond60) ?RET_HIGH load(1, XDATA, add(CFA_XSP16, literal(-4)))
          CFI (cfiCond60) ?BRET_EXT load(1, XDATA, add(CFA_XSP16, literal(-3)))
          CFI (cfiCond60) DPL0 load(1, XDATA, add(CFA_XSP16, literal(-2)))
          CFI (cfiCond60) DPH0 load(1, XDATA, add(CFA_XSP16, literal(-1)))
          CFI (cfiCond60) CFA_SP SP+0
          CFI (cfiCond60) CFA_XSP16 add(XSP16, 30)
          CFI Block cfiPicker61 Using cfiCommon1
          CFI (cfiPicker61) NoFunction
          CFI (cfiPicker61) Picker
        LCALL   ?Subroutine30 & 0xFFFF
??CrossCallReturnLabel_48:
        MOV     ?V0 + 0,A
        MOV     R0,#?V0 + 0
        RET
          CFI EndBlock cfiCond58
          CFI EndBlock cfiCond59
          CFI EndBlock cfiCond60
          CFI EndBlock cfiPicker61
// 1006 
// 1007 /*********************************************************************
// 1008  * @fn      initiatorJoinNwk
// 1009  *
// 1010  * @brief   Initiate a network join request.
// 1011  *
// 1012  * @param   void
// 1013  *
// 1014  * @return  void
// 1015  */

        RSEG BANKED_CODE:CODE:NOROOT(0)
// 1016 static void initiatorJoinNwk( void )
initiatorJoinNwk:
          CFI Block cfiBlock62 Using cfiCommon0
          CFI Function initiatorJoinNwk
        CODE
// 1017 {
        FUNCALL initiatorJoinNwk, zll_UpdateNV
        LOCFRAME ISTACK, 2, STACK
        LOCFRAME PSTACK, 0, STACK
        LOCFRAME XSTACK, 0, STACK
        LOCFRAME IOVERLAY, 0, STATIC
        LOCFRAME DOVERLAY, 0, STATIC
        ARGFRAME ISTACK, 2, STACK
        ARGFRAME PSTACK, 0, STACK
        ARGFRAME XSTACK, 0, STACK
        ARGFRAME IOVERLAY, 0, STATIC
        ARGFRAME DOVERLAY, 0, STATIC
        FUNCALL initiatorJoinNwk, ZDApp_LeaveCtrlReset
        LOCFRAME ISTACK, 2, STACK
        LOCFRAME PSTACK, 0, STACK
        LOCFRAME XSTACK, 0, STACK
        LOCFRAME IOVERLAY, 0, STATIC
        LOCFRAME DOVERLAY, 0, STATIC
        ARGFRAME ISTACK, 2, STACK
        ARGFRAME PSTACK, 0, STACK
        ARGFRAME XSTACK, 0, STACK
        ARGFRAME IOVERLAY, 0, STATIC
        ARGFRAME DOVERLAY, 0, STATIC
        FUNCALL initiatorJoinNwk, zll_PermitJoin
        LOCFRAME ISTACK, 2, STACK
        LOCFRAME PSTACK, 0, STACK
        LOCFRAME XSTACK, 0, STACK
        LOCFRAME IOVERLAY, 0, STATIC
        LOCFRAME DOVERLAY, 0, STATIC
        ARGFRAME ISTACK, 2, STACK
        ARGFRAME PSTACK, 0, STACK
        ARGFRAME XSTACK, 0, STACK
        ARGFRAME IOVERLAY, 0, STATIC
        ARGFRAME DOVERLAY, 0, STATIC
        FUNCALL initiatorJoinNwk, ZDOInitDevice
        LOCFRAME ISTACK, 2, STACK
        LOCFRAME PSTACK, 0, STACK
        LOCFRAME XSTACK, 0, STACK
        LOCFRAME IOVERLAY, 0, STATIC
        LOCFRAME DOVERLAY, 0, STATIC
        ARGFRAME ISTACK, 2, STACK
        ARGFRAME PSTACK, 0, STACK
        ARGFRAME XSTACK, 0, STACK
        ARGFRAME IOVERLAY, 0, STATIC
        ARGFRAME DOVERLAY, 0, STATIC
        PUSH    DPL
          CFI DPL0 Frame(CFA_SP, 4)
          CFI CFA_SP SP+-4
        PUSH    DPH
          CFI DPH0 Frame(CFA_SP, 5)
          CFI CFA_SP SP+-5
        ; Saved register size: 2
        ; Auto size: 0
// 1018   // Save free ranges
// 1019   zll_UpdateNV( ZLL_UPDATE_NV_RANGES );
        ; Setup parameters for call to function zll_UpdateNV
        MOV     R1,#0x2
        LCALL   ??zll_UpdateNV?relay
// 1020 
// 1021   // In case we're here after a leave
// 1022   zllLeaveInitiated = FALSE;
        MOV     DPTR,#zllLeaveInitiated
        CLR     A
        MOVX    @DPTR,A
// 1023 
// 1024   // Clear leave control logic
// 1025   ZDApp_LeaveCtrlReset();
        ; Setup parameters for call to function ZDApp_LeaveCtrlReset
        LCALL   ??ZDApp_LeaveCtrlReset?relay
// 1026 
// 1027   if ( POLL_RATE == 0 )
// 1028   {
// 1029     //allow to respond to ZLL commission utility commands after TL
// 1030     NLME_SetPollRate( ZLL_INITIATOR_TEMP_POST_TL_POLL_RATE );
// 1031     //polling should reset when TL life time expires
// 1032   }
// 1033 
// 1034 #if ( ZSTACK_ROUTER_BUILD )
// 1035   zllInitiator_PermitJoin( 0 );
        ; Setup parameters for call to function zll_PermitJoin
        MOV     R1,#0x0
        LCALL   ??zll_PermitJoin?relay
// 1036   ZDOInitDevice( 0 );
        ; Setup parameters for call to function ZDOInitDevice
        MOV     R2,#0x0
        MOV     R3,#0x0
        LCALL   ??ZDOInitDevice?relay
// 1037 #else
// 1038   // Perform a network rejoin request
// 1039   initiatorReJoinNwk( MODE_REJOIN );
// 1040 #endif
// 1041 }
        LJMP    ??Subroutine35_0 & 0xFFFF
          CFI EndBlock cfiBlock62
// 1042 
// 1043 /*********************************************************************
// 1044  * @fn      initiatorClearSelectedTarget
// 1045  *
// 1046  * @brief   clear selected target variable.
// 1047  *
// 1048  * @param   none
// 1049  *
// 1050  * @return  none
// 1051  */

        RSEG BANKED_CODE:CODE:NOROOT(0)
// 1052 static void initiatorClearSelectedTarget( void )
initiatorClearSelectedTarget:
          CFI Block cfiBlock63 Using cfiCommon0
          CFI Function initiatorClearSelectedTarget
        CODE
// 1053 {
        FUNCALL initiatorClearSelectedTarget, osal_memset
        LOCFRAME ISTACK, 2, STACK
        LOCFRAME PSTACK, 0, STACK
        LOCFRAME XSTACK, 0, STACK
        LOCFRAME IOVERLAY, 0, STATIC
        LOCFRAME DOVERLAY, 0, STATIC
        ARGFRAME ISTACK, 2, STACK
        ARGFRAME PSTACK, 0, STACK
        ARGFRAME XSTACK, 0, STACK
        ARGFRAME IOVERLAY, 0, STATIC
        ARGFRAME DOVERLAY, 0, STATIC
        PUSH    DPL
          CFI DPL0 Frame(CFA_SP, 4)
          CFI CFA_SP SP+-4
        PUSH    DPH
          CFI DPH0 Frame(CFA_SP, 5)
          CFI CFA_SP SP+-5
        ; Saved register size: 2
        ; Auto size: 0
// 1054   osal_memset( &selectedTarget, 0x00, sizeof(targetCandidate_t) );
        ; Setup parameters for call to function osal_memset
        MOV     R4,#0x36
        MOV     R5,#0x0
        MOV     R1,#0x0
        MOV     R2,#selectedTarget & 0xff
        MOV     R3,#(selectedTarget >> 8) & 0xff
        LCALL   ??osal_memset?relay
// 1055   selectedTarget.lastRssi = ZLL_TL_WORST_RSSI;
        MOV     DPTR,#selectedTarget + 53
        MOV     A,#-0x28
        LJMP    ??Subroutine34_0 & 0xFFFF
          CFI EndBlock cfiBlock63
// 1056 }
// 1057 
// 1058 /*********************************************************************
// 1059  * @fn      initiatorSelectNwkParams
// 1060  *
// 1061  * @brief   Select a unique PAN ID and Extended PAN ID when compared to
// 1062  *          the PAN IDs and Extended PAN IDs of the networks detected
// 1063  *          on the ZLL channels. The selected Extended PAN ID must be
// 1064  *          a random number (and not equal to our IEEE address).
// 1065  *
// 1066  * @param   void
// 1067  *
// 1068  * @return  void
// 1069  */

        RSEG BANKED_CODE:CODE:NOROOT(0)
// 1070 void initiatorSelectNwkParams( void )
initiatorSelectNwkParams:
          CFI Block cfiBlock64 Using cfiCommon0
          CFI Function initiatorSelectNwkParams
        CODE
// 1071 {
        FUNCALL initiatorSelectNwkParams, zll_GetNumGrpIDs
        LOCFRAME ISTACK, 2, STACK
        LOCFRAME PSTACK, 0, STACK
        LOCFRAME XSTACK, 9, STACK
        LOCFRAME IOVERLAY, 0, STATIC
        LOCFRAME DOVERLAY, 0, STATIC
        ARGFRAME ISTACK, 2, STACK
        ARGFRAME PSTACK, 0, STACK
        ARGFRAME XSTACK, 9, STACK
        ARGFRAME IOVERLAY, 0, STATIC
        ARGFRAME DOVERLAY, 0, STATIC
        FUNCALL initiatorSelectNwkParams, zll_PopGrpIDRange
        LOCFRAME ISTACK, 0, STACK
        LOCFRAME PSTACK, 0, STACK
        LOCFRAME XSTACK, 9, STACK
        LOCFRAME IOVERLAY, 0, STATIC
        LOCFRAME DOVERLAY, 0, STATIC
        ARGFRAME ISTACK, 0, STACK
        ARGFRAME PSTACK, 0, STACK
        ARGFRAME XSTACK, 9, STACK
        ARGFRAME IOVERLAY, 0, STATIC
        ARGFRAME DOVERLAY, 0, STATIC
        FUNCALL initiatorSelectNwkParams, zll_GenerateRandNum
        LOCFRAME ISTACK, 0, STACK
        LOCFRAME PSTACK, 0, STACK
        LOCFRAME XSTACK, 9, STACK
        LOCFRAME IOVERLAY, 0, STATIC
        LOCFRAME DOVERLAY, 0, STATIC
        ARGFRAME ISTACK, 0, STACK
        ARGFRAME PSTACK, 0, STACK
        ARGFRAME XSTACK, 9, STACK
        ARGFRAME IOVERLAY, 0, STATIC
        ARGFRAME DOVERLAY, 0, STATIC
        FUNCALL initiatorSelectNwkParams, osal_rand
        LOCFRAME ISTACK, 0, STACK
        LOCFRAME PSTACK, 0, STACK
        LOCFRAME XSTACK, 9, STACK
        LOCFRAME IOVERLAY, 0, STATIC
        LOCFRAME DOVERLAY, 0, STATIC
        ARGFRAME ISTACK, 0, STACK
        ARGFRAME PSTACK, 0, STACK
        ARGFRAME XSTACK, 9, STACK
        ARGFRAME IOVERLAY, 0, STATIC
        ARGFRAME DOVERLAY, 0, STATIC
        FUNCALL initiatorSelectNwkParams, zll_GetRandPrimaryChannel
        LOCFRAME ISTACK, 0, STACK
        LOCFRAME PSTACK, 0, STACK
        LOCFRAME XSTACK, 9, STACK
        LOCFRAME IOVERLAY, 0, STATIC
        LOCFRAME DOVERLAY, 0, STATIC
        ARGFRAME ISTACK, 0, STACK
        ARGFRAME PSTACK, 0, STACK
        ARGFRAME XSTACK, 9, STACK
        ARGFRAME IOVERLAY, 0, STATIC
        ARGFRAME DOVERLAY, 0, STATIC
        FUNCALL initiatorSelectNwkParams, zll_PopNwkAddress
        LOCFRAME ISTACK, 0, STACK
        LOCFRAME PSTACK, 0, STACK
        LOCFRAME XSTACK, 9, STACK
        LOCFRAME IOVERLAY, 0, STATIC
        LOCFRAME DOVERLAY, 0, STATIC
        ARGFRAME ISTACK, 0, STACK
        ARGFRAME PSTACK, 0, STACK
        ARGFRAME XSTACK, 9, STACK
        ARGFRAME IOVERLAY, 0, STATIC
        ARGFRAME DOVERLAY, 0, STATIC
        FUNCALL initiatorSelectNwkParams, zll_SetMacNwkParams
        LOCFRAME ISTACK, 0, STACK
        LOCFRAME PSTACK, 0, STACK
        LOCFRAME XSTACK, 9, STACK
        LOCFRAME IOVERLAY, 0, STATIC
        LOCFRAME DOVERLAY, 0, STATIC
        ARGFRAME ISTACK, 0, STACK
        ARGFRAME PSTACK, 0, STACK
        ARGFRAME XSTACK, 9, STACK
        ARGFRAME IOVERLAY, 0, STATIC
        ARGFRAME DOVERLAY, 0, STATIC
        MOV     A,#-0x9
        LCALL   ?BANKED_ENTER_XDATA
          CFI DPH0 load(1, XDATA, add(CFA_XSP16, literal(-1)))
          CFI DPL0 load(1, XDATA, add(CFA_XSP16, literal(-2)))
          CFI ?BRET_EXT load(1, XDATA, add(CFA_XSP16, literal(-3)))
          CFI ?RET_HIGH load(1, XDATA, add(CFA_XSP16, literal(-4)))
          CFI ?RET_LOW load(1, XDATA, add(CFA_XSP16, literal(-5)))
          CFI R7 load(1, XDATA, add(CFA_XSP16, literal(-6)))
          CFI V0 load(1, XDATA, add(CFA_XSP16, literal(-7)))
          CFI VB load(1, XDATA, add(CFA_XSP16, literal(-8)))
          CFI R6 load(1, XDATA, add(CFA_XSP16, literal(-9)))
          CFI CFA_SP SP+0
          CFI CFA_XSP16 add(XSP16, 9)
        ; Saved register size: 9
        ; Auto size: 0
// 1072   // Set our group ID range
// 1073   zll_PopGrpIDRange( zll_GetNumGrpIDs(), &zllGrpIDsBegin, &zllGrpIDsEnd );
        ; Setup parameters for call to function zll_PopGrpIDRange
        MOV     R2,#zllGrpIDsBegin & 0xff
        MOV     R3,#(zllGrpIDsBegin >> 8) & 0xff
        MOV     A,R2
        PUSH    A
          CFI CFA_SP SP+-1
        MOV     A,R3
        PUSH    A
          CFI CFA_SP SP+-2
        ; Setup parameters for call to function zll_GetNumGrpIDs
        LCALL   ??zll_GetNumGrpIDs?relay
        MOV     R4,#zllGrpIDsEnd & 0xff
        MOV     A,#(zllGrpIDsEnd >> 8) & 0xff
        MOV     R5,A
        POP     A
          CFI CFA_SP SP+-1
        MOV     R3,A
        POP     A
          CFI CFA_SP SP+0
        MOV     R2,A
        LCALL   ??zll_PopGrpIDRange?relay
// 1074 
// 1075   // Select a random Extended PAN ID
// 1076   zll_GenerateRandNum( _NIB.extendedPANID, Z_EXTADDR_LEN );
        ; Setup parameters for call to function zll_GenerateRandNum
        MOV     R1,#0x8
        MOV     R2,#(_NIB + 53) & 0xff
        MOV     R3,#((_NIB + 53) >> 8) & 0xff
        LCALL   ??zll_GenerateRandNum?relay
// 1077 
// 1078   // Select a random PAN ID
// 1079   _NIB.nwkPanId = osal_rand();
        ; Setup parameters for call to function osal_rand
        LCALL   ??osal_rand?relay
        MOV     DPTR,#_NIB + 33
        MOV     A,R2
        MOVX    @DPTR,A
        INC     DPTR
        MOV     A,R3
        MOVX    @DPTR,A
// 1080 
// 1081   // Select a random ZLL channel
// 1082   _NIB.nwkLogicalChannel = zll_GetRandPrimaryChannel();
        ; Setup parameters for call to function zll_GetRandPrimaryChannel
        LCALL   ??zll_GetRandPrimaryChannel?relay
        MOV     A,R1
        MOV     DPTR,#_NIB + 22
        MOVX    @DPTR,A
// 1083 
// 1084   if ( devState != DEV_INIT ) // exclude in case of fresh FN ZED without HOLD_AUTO_START
        MOV     DPTR,#devState
        MOVX    A,@DPTR
        XRL     A,#0x1
        JZ      ??initiatorSelectNwkParams_0
// 1085   {
// 1086     // Let's assume we're the first initiator
// 1087     _NIB.nwkDevAddress = zll_PopNwkAddress();
        ; Setup parameters for call to function zll_PopNwkAddress
        LCALL   ??zll_PopNwkAddress?relay
        MOV     DPTR,#_NIB + 20
        MOV     A,R2
        MOVX    @DPTR,A
        INC     DPTR
        MOV     A,R3
        MOVX    @DPTR,A
// 1088   }
// 1089 
// 1090   // Configure MAC with our network parameters
// 1091   zll_SetMacNwkParams( _NIB.nwkDevAddress, _NIB.nwkPanId, _NIB.nwkLogicalChannel );
??initiatorSelectNwkParams_0:
        ; Setup parameters for call to function zll_SetMacNwkParams
        LCALL   ?Subroutine16 & 0xFFFF
??CrossCallReturnLabel_115:
        LCALL   ??zll_SetMacNwkParams?relay
// 1092 }
        LJMP    ?Subroutine2 & 0xFFFF
          CFI EndBlock cfiBlock64
// 1093 
// 1094 /*********************************************************************
// 1095  * @fn      initiatorSetNwkToInitState
// 1096  *
// 1097  * @brief   Set our network state to its original state.
// 1098  *
// 1099  * @param   void
// 1100  *
// 1101  * @return  void
// 1102  */

        RSEG BANKED_CODE:CODE:NOROOT(0)
// 1103 static void initiatorSetNwkToInitState()
initiatorSetNwkToInitState:
          CFI Block cfiBlock65 Using cfiCommon0
          CFI Function initiatorSetNwkToInitState
        CODE
// 1104 {
        FUNCALL initiatorSetNwkToInitState, ZMacSetReq
        LOCFRAME ISTACK, 2, STACK
        LOCFRAME PSTACK, 0, STACK
        LOCFRAME XSTACK, 0, STACK
        LOCFRAME IOVERLAY, 0, STATIC
        LOCFRAME DOVERLAY, 0, STATIC
        ARGFRAME ISTACK, 2, STACK
        ARGFRAME PSTACK, 0, STACK
        ARGFRAME XSTACK, 0, STACK
        ARGFRAME IOVERLAY, 0, STATIC
        ARGFRAME DOVERLAY, 0, STATIC
        FUNCALL initiatorSetNwkToInitState, zll_SetChannel
        LOCFRAME ISTACK, 2, STACK
        LOCFRAME PSTACK, 0, STACK
        LOCFRAME XSTACK, 0, STACK
        LOCFRAME IOVERLAY, 0, STATIC
        LOCFRAME DOVERLAY, 0, STATIC
        ARGFRAME ISTACK, 2, STACK
        ARGFRAME PSTACK, 0, STACK
        ARGFRAME XSTACK, 0, STACK
        ARGFRAME IOVERLAY, 0, STATIC
        ARGFRAME DOVERLAY, 0, STATIC
        FUNCALL initiatorSetNwkToInitState, nwk_setStateIdle
        LOCFRAME ISTACK, 2, STACK
        LOCFRAME PSTACK, 0, STACK
        LOCFRAME XSTACK, 0, STACK
        LOCFRAME IOVERLAY, 0, STATIC
        LOCFRAME DOVERLAY, 0, STATIC
        ARGFRAME ISTACK, 2, STACK
        ARGFRAME PSTACK, 0, STACK
        ARGFRAME XSTACK, 0, STACK
        ARGFRAME IOVERLAY, 0, STATIC
        ARGFRAME DOVERLAY, 0, STATIC
        FUNCALL initiatorSetNwkToInitState, NLME_SetPollRate
        LOCFRAME ISTACK, 2, STACK
        LOCFRAME PSTACK, 0, STACK
        LOCFRAME XSTACK, 0, STACK
        LOCFRAME IOVERLAY, 0, STATIC
        LOCFRAME DOVERLAY, 0, STATIC
        ARGFRAME ISTACK, 2, STACK
        ARGFRAME PSTACK, 0, STACK
        ARGFRAME XSTACK, 0, STACK
        ARGFRAME IOVERLAY, 0, STATIC
        ARGFRAME DOVERLAY, 0, STATIC
        FUNCALL initiatorSetNwkToInitState, NLME_SetQueuedPollRate
        LOCFRAME ISTACK, 2, STACK
        LOCFRAME PSTACK, 0, STACK
        LOCFRAME XSTACK, 0, STACK
        LOCFRAME IOVERLAY, 0, STATIC
        LOCFRAME DOVERLAY, 0, STATIC
        ARGFRAME ISTACK, 2, STACK
        ARGFRAME PSTACK, 0, STACK
        ARGFRAME XSTACK, 0, STACK
        ARGFRAME IOVERLAY, 0, STATIC
        ARGFRAME DOVERLAY, 0, STATIC
        FUNCALL initiatorSetNwkToInitState, NLME_SetResponseRate
        LOCFRAME ISTACK, 2, STACK
        LOCFRAME PSTACK, 0, STACK
        LOCFRAME XSTACK, 0, STACK
        LOCFRAME IOVERLAY, 0, STATIC
        LOCFRAME DOVERLAY, 0, STATIC
        ARGFRAME ISTACK, 2, STACK
        ARGFRAME PSTACK, 0, STACK
        ARGFRAME XSTACK, 0, STACK
        ARGFRAME IOVERLAY, 0, STATIC
        ARGFRAME DOVERLAY, 0, STATIC
        PUSH    DPL
          CFI DPL0 Frame(CFA_SP, 4)
          CFI CFA_SP SP+-4
        PUSH    DPH
          CFI DPH0 Frame(CFA_SP, 5)
          CFI CFA_SP SP+-5
        ; Saved register size: 2
        ; Auto size: 0
// 1105   // Turn MAC receiver back to its old state
// 1106   ZMacSetReq( ZMacRxOnIdle, &savedRxOnIdle );
        ; Setup parameters for call to function ZMacSetReq
        MOV     R2,#savedRxOnIdle & 0xff
        MOV     R3,#(savedRxOnIdle >> 8) & 0xff
        MOV     R1,#0x52
        LCALL   ??ZMacSetReq?relay
// 1107 
// 1108   // Tune back to our channel
// 1109   zll_SetChannel( _NIB.nwkLogicalChannel );
        ; Setup parameters for call to function zll_SetChannel
        MOV     DPTR,#_NIB + 22
        MOVX    A,@DPTR
        MOV     R1,A
        LCALL   ??zll_SetChannel?relay
// 1110 
// 1111   // Set NWK task to run
// 1112   nwk_setStateIdle( FALSE );
        ; Setup parameters for call to function nwk_setStateIdle
        MOV     R1,#0x0
        LCALL   ??nwk_setStateIdle?relay
// 1113 
// 1114   if ( savedPollRate != zgPollRate )
        MOV     DPTR,#savedPollRate
        LCALL   ??Subroutine42_0 & 0xFFFF
??CrossCallReturnLabel_78:
        MOV     DPTR,#zgPollRate
        MOVX    A,@DPTR
        XRL     A,R0
        JNZ     ??initiatorSetNwkToInitState_0
        INC     DPTR
        MOVX    A,@DPTR
        XRL     A,R1
??initiatorSetNwkToInitState_0:
        JZ      ??initiatorSetNwkToInitState_1
// 1115   {
// 1116     NLME_SetPollRate( savedPollRate );
        ; Setup parameters for call to function NLME_SetPollRate
        MOV     DPTR,#savedPollRate
        LCALL   ??Subroutine47_0 & 0xFFFF
??CrossCallReturnLabel_109:
        LCALL   ??NLME_SetPollRate?relay
// 1117     savedPollRate = POLL_RATE;
        MOV     DPTR,#savedPollRate
        MOV     A,#-0x18
        MOVX    @DPTR,A
        INC     DPTR
        MOV     A,#0x3
        MOVX    @DPTR,A
// 1118   }
// 1119 
// 1120   if ( savedQueuedPollRate != zgQueuedPollRate )
??initiatorSetNwkToInitState_1:
        MOV     DPTR,#savedQueuedPollRate
        LCALL   ??Subroutine42_0 & 0xFFFF
??CrossCallReturnLabel_79:
        MOV     DPTR,#zgQueuedPollRate
        MOVX    A,@DPTR
        XRL     A,R0
        JNZ     ??initiatorSetNwkToInitState_2
        INC     DPTR
        MOVX    A,@DPTR
        XRL     A,R1
??initiatorSetNwkToInitState_2:
        JZ      ??initiatorSetNwkToInitState_3
// 1121   {
// 1122     NLME_SetQueuedPollRate( savedQueuedPollRate );
        ; Setup parameters for call to function NLME_SetQueuedPollRate
        MOV     DPTR,#savedQueuedPollRate
        LCALL   ??Subroutine47_0 & 0xFFFF
??CrossCallReturnLabel_110:
        LCALL   ??NLME_SetQueuedPollRate?relay
// 1123     savedQueuedPollRate = QUEUED_POLL_RATE;
        MOV     DPTR,#savedQueuedPollRate
        MOV     A,#0x64
        MOVX    @DPTR,A
        INC     DPTR
        CLR     A
        MOVX    @DPTR,A
// 1124   }
// 1125 
// 1126   if ( savedResponsePollRate != zgResponsePollRate )
??initiatorSetNwkToInitState_3:
        MOV     DPTR,#savedResponsePollRate
        LCALL   ??Subroutine42_0 & 0xFFFF
??CrossCallReturnLabel_80:
        MOV     DPTR,#zgResponsePollRate
        MOVX    A,@DPTR
        XRL     A,R0
        JNZ     ??initiatorSetNwkToInitState_4
        INC     DPTR
        MOVX    A,@DPTR
        XRL     A,R1
??initiatorSetNwkToInitState_4:
        JZ      ??initiatorSetNwkToInitState_5
// 1127   {
// 1128     NLME_SetResponseRate( savedResponsePollRate );
        ; Setup parameters for call to function NLME_SetResponseRate
        MOV     DPTR,#savedResponsePollRate
        LCALL   ??Subroutine47_0 & 0xFFFF
??CrossCallReturnLabel_111:
        LCALL   ??NLME_SetResponseRate?relay
// 1129     savedResponsePollRate = RESPONSE_POLL_RATE;
        MOV     DPTR,#savedResponsePollRate
        MOV     A,#0x64
        MOVX    @DPTR,A
        INC     DPTR
        CLR     A
        MOVX    @DPTR,A
// 1130   }
// 1131 }
??initiatorSetNwkToInitState_5:
        LJMP    ??Subroutine35_0 & 0xFFFF
          CFI EndBlock cfiBlock65
// 1132 
// 1133 /*********************************************************************
// 1134  * @fn      initiatorSendScanReq
// 1135  *
// 1136  * @brief   Send out an Scan Request command on one of the ZLL channels.
// 1137  *
// 1138  * @param   freshScan - TRUE to start fresh scan, FALSE to resume existing process.
// 1139  *
// 1140  * @return  void
// 1141  */

        RSEG BANKED_CODE:CODE:NOROOT(0)
// 1142 static void initiatorSendScanReq( bool freshScan )
initiatorSendScanReq:
          CFI Block cfiBlock66 Using cfiCommon0
          CFI Function initiatorSendScanReq
        CODE
// 1143 {
        FUNCALL initiatorSendScanReq, zll_IsFactoryNew
        LOCFRAME ISTACK, 0, STACK
        LOCFRAME PSTACK, 0, STACK
        LOCFRAME XSTACK, 32, STACK
        LOCFRAME IOVERLAY, 0, STATIC
        LOCFRAME DOVERLAY, 0, STATIC
        ARGFRAME ISTACK, 0, STACK
        ARGFRAME PSTACK, 0, STACK
        ARGFRAME XSTACK, 32, STACK
        ARGFRAME IOVERLAY, 0, STATIC
        ARGFRAME DOVERLAY, 0, STATIC
        FUNCALL initiatorSendScanReq, zll_SetChannel
        LOCFRAME ISTACK, 0, STACK
        LOCFRAME PSTACK, 0, STACK
        LOCFRAME XSTACK, 32, STACK
        LOCFRAME IOVERLAY, 0, STATIC
        LOCFRAME DOVERLAY, 0, STATIC
        ARGFRAME ISTACK, 0, STACK
        ARGFRAME PSTACK, 0, STACK
        ARGFRAME XSTACK, 32, STACK
        ARGFRAME IOVERLAY, 0, STATIC
        ARGFRAME DOVERLAY, 0, STATIC
        FUNCALL initiatorSendScanReq, zclLL_Send_ScanReq
        LOCFRAME ISTACK, 0, STACK
        LOCFRAME PSTACK, 0, STACK
        LOCFRAME XSTACK, 33, STACK
        LOCFRAME IOVERLAY, 0, STATIC
        LOCFRAME DOVERLAY, 0, STATIC
        ARGFRAME ISTACK, 0, STACK
        ARGFRAME PSTACK, 0, STACK
        ARGFRAME XSTACK, 33, STACK
        ARGFRAME IOVERLAY, 0, STATIC
        ARGFRAME DOVERLAY, 0, STATIC
        FUNCALL initiatorSendScanReq, osal_start_timerEx
        LOCFRAME ISTACK, 0, STACK
        LOCFRAME PSTACK, 0, STACK
        LOCFRAME XSTACK, 36, STACK
        LOCFRAME IOVERLAY, 0, STATIC
        LOCFRAME DOVERLAY, 0, STATIC
        ARGFRAME ISTACK, 0, STACK
        ARGFRAME PSTACK, 0, STACK
        ARGFRAME XSTACK, 36, STACK
        ARGFRAME IOVERLAY, 0, STATIC
        ARGFRAME DOVERLAY, 0, STATIC
        FUNCALL initiatorSendScanReq, zllInitiator_AbortTL
        LOCFRAME ISTACK, 0, STACK
        LOCFRAME PSTACK, 0, STACK
        LOCFRAME XSTACK, 32, STACK
        LOCFRAME IOVERLAY, 0, STATIC
        LOCFRAME DOVERLAY, 0, STATIC
        ARGFRAME ISTACK, 0, STACK
        ARGFRAME PSTACK, 0, STACK
        ARGFRAME XSTACK, 32, STACK
        ARGFRAME IOVERLAY, 0, STATIC
        ARGFRAME DOVERLAY, 0, STATIC
        MOV     A,#-0xc
        LCALL   ?BANKED_ENTER_XDATA
          CFI DPH0 load(1, XDATA, add(CFA_XSP16, literal(-1)))
          CFI DPL0 load(1, XDATA, add(CFA_XSP16, literal(-2)))
          CFI ?BRET_EXT load(1, XDATA, add(CFA_XSP16, literal(-3)))
          CFI ?RET_HIGH load(1, XDATA, add(CFA_XSP16, literal(-4)))
          CFI ?RET_LOW load(1, XDATA, add(CFA_XSP16, literal(-5)))
          CFI R7 load(1, XDATA, add(CFA_XSP16, literal(-6)))
          CFI V3 load(1, XDATA, add(CFA_XSP16, literal(-7)))
          CFI V2 load(1, XDATA, add(CFA_XSP16, literal(-8)))
          CFI V1 load(1, XDATA, add(CFA_XSP16, literal(-9)))
          CFI V0 load(1, XDATA, add(CFA_XSP16, literal(-10)))
          CFI VB load(1, XDATA, add(CFA_XSP16, literal(-11)))
          CFI R6 load(1, XDATA, add(CFA_XSP16, literal(-12)))
          CFI CFA_SP SP+0
          CFI CFA_XSP16 add(XSP16, 12)
        ; Saved register size: 12
        ; Auto size: 20
        MOV     A,#-0x14
        LCALL   ?ALLOC_XSTACK8
          CFI CFA_XSP16 add(XSP16, 32)
        MOV     A,R1
        MOV     R6,A
// 1144   zclLLScanReq_t req;
// 1145   uint8 newChannel;
// 1146   uint8 secondaryChList[] = ZLL_SECONDARY_CHANNELS_SET;
        MOV     A,#0x8
        LCALL   ?XSTACK_DISP0_8
        MOV     R4,DPL
        MOV     R5,DPH
        MOV     DPH,#(`?<Constant {12, 13, 14, 16, 17, 18, 19, 21, 22` >> 8) & 0xff
        MOV     DPL,#`?<Constant {12, 13, 14, 16, 17, 18, 19, 21, 22` & 0xff
        MOV     A,#0xc
        LCALL   ?MOVE_LONG8_XDATA_XDATA
// 1147   static uint8 channelIndex = 0;
// 1148 
// 1149   if ( freshScan )
        MOV     A,R6
        JZ      ??initiatorSendScanReq_0
// 1150   {
// 1151     channelIndex = 0;
        MOV     DPTR,#??channelIndex
        CLR     A
        MOVX    @DPTR,A
// 1152   }
// 1153 
// 1154   // First figure out the channel
// 1155   if ( scanReqChannels == ZLL_SCAN_PRIMARY_CHANNELS )
??initiatorSendScanReq_0:
        MOV     DPTR,#scanReqChannels
        MOVX    A,@DPTR
        XRL     A,#0x1
        JZ      $+5
        LJMP    ??initiatorSendScanReq_1 & 0xFFFF
// 1156   {
// 1157     if ( numScanReqSent < 5 )
        MOV     DPTR,#numScanReqSent
        MOVX    A,@DPTR
        CLR     C
        SUBB    A,#0x5
        JC      $+5
        LJMP    ??initiatorSendScanReq_2 & 0xFFFF
// 1158     {
// 1159       // First five consecutive requests are sent on channel 11
// 1160       newChannel = ZLL_FIRST_CHANNEL;
        MOV     R7,#0xb
// 1161     }
// 1162     else if ( numScanReqSent == 5 )
// 1163     {
// 1164       // Sixth request is sent on channel 15
// 1165       newChannel = ZLL_SECOND_CHANNEL;
// 1166     }
// 1167     else if ( numScanReqSent == 6 )
// 1168     {
// 1169       // Seventh request is sent on channel 20
// 1170       newChannel = ZLL_THIRD_CHANNEL;
// 1171     }
// 1172     else
// 1173     {
// 1174       // Last request is sent on channel 25
// 1175       newChannel = ZLL_FOURTH_CHANNEL;
// 1176     }
// 1177   }
// 1178   else
// 1179   {
// 1180     // scan secondary channel list
// 1181     if ( channelIndex < sizeof(secondaryChList) )
// 1182     {
// 1183        newChannel = secondaryChList[channelIndex++];
// 1184     }
// 1185     else
// 1186     {
// 1187       // set it to initial value for next discovery process
// 1188       channelIndex = 0;
// 1189       return;
// 1190     }
// 1191   }
// 1192 
// 1193   if ( zllTransID != 0 )
??initiatorSendScanReq_3:
        MOV     DPTR,#zllTransID
        MOV     R0,#?V0 + 0
        LCALL   ?L_MOV_X
        MOV     A,?V0 + 0
        ORL     A,?V0 + 1
        ORL     A,?V0 + 2
        ORL     A,?V0 + 3
        JNZ     $+5
        LJMP    ??initiatorSendScanReq_4 & 0xFFFF
// 1194   {
// 1195     // Build the request
// 1196     req.transID = zllTransID;
        MOV     DPTR,#zllTransID
        LCALL   ?XLOAD_R2345
        MOV     DPL,?XSP + 0
        MOV     DPH,?XSP + 1
        LCALL   ?XSTORE_R2345
// 1197 
// 1198     req.zInfo.zInfoByte = 0;
        MOV     A,#0x4
        LCALL   ?XSTACK_DISP0_8
        CLR     A
        MOVX    @DPTR,A
// 1199     req.zLogicalType = zgDeviceLogicalType;
        INC     DPTR
        MOVX    A,@DPTR
        MOV     R1,A
        MOV     DPTR,#zgDeviceLogicalType
        MOVX    A,@DPTR
        ANL     A,#0x3
        MOV     R0,A
        MOV     A,#0x4
        LCALL   ?XSTACK_DISP0_8
        LCALL   ??Subroutine39_0 & 0xFFFF
// 1200     if ( ZDO_Config_Node_Descriptor.CapabilityFlags & CAPINFO_RCVR_ON_IDLE )
??CrossCallReturnLabel_58:
        MOV     DPTR,#ZDO_Config_Node_Descriptor + 2
        MOVX    A,@DPTR
        MOV     C,0xE0 /* A   */.3
        JNC     ??initiatorSendScanReq_5
// 1201     {
// 1202       req.zRxOnWhenIdle = TRUE;
        MOV     A,#0x4
        LCALL   ?XSTACK_DISP0_8
        MOVX    A,@DPTR
        ORL     A,#0x4
        MOVX    @DPTR,A
// 1203     }
// 1204 
// 1205     req.zllInfo.zllInfoByte = 0;
??initiatorSendScanReq_5:
        MOV     A,#0x6
        LCALL   ?XSTACK_DISP0_8
        CLR     A
        MOVX    @DPTR,A
// 1206     req.zllFactoryNew = zll_IsFactoryNew();
        ; Setup parameters for call to function zll_IsFactoryNew
        LCALL   ??zll_IsFactoryNew?relay
        MOV     A,R1
        MOV     R2,A
// 1207     req.zllAddressAssignment = TRUE;
// 1208     req.zllLinkInitiator = TRUE;
        MOV     A,#0x6
        LCALL   ?XSTACK_DISP0_8
        MOVX    A,@DPTR
        ANL     A,#0xfe
        MOV     R0,A
        INC     DPTR
        MOVX    A,@DPTR
        MOV     R1,A
        MOV     A,R2
        MOV     C,0xE0 /* A   */.0
        CLR     A
        RLC     A
        MOV     R2,A
        MOV     A,R0
        ORL     A,R2
        ORL     A,#0x12
        MOV     R0,A
        MOV     A,#0x6
        LCALL   ?XSTACK_DISP0_8
        LCALL   ??Subroutine39_0 & 0xFFFF
// 1209 
// 1210     // First switch to the right channel
// 1211     zll_SetChannel( newChannel );
??CrossCallReturnLabel_59:
        ; Setup parameters for call to function zll_SetChannel
        MOV     A,R7
        MOV     R1,A
        LCALL   ??zll_SetChannel?relay
// 1212 
// 1213     // Broadcast the request
// 1214     zclLL_Send_ScanReq( ZLL_INTERNAL_ENDPOINT, &bcastAddr, &req, initiatorSeqNum++ );
        LCALL   ?Subroutine20 & 0xFFFF
??CrossCallReturnLabel_21:
        LCALL   ?PUSH_XSTACK_I_ONE
          CFI CFA_XSP16 add(XSP16, 33)
        MOV     A,#0x1
        LCALL   ?XSTACK_DISP0_8
        MOV     R4,DPL
        MOV     R5,DPH
        MOV     R2,#bcastAddr & 0xff
        MOV     R3,#(bcastAddr >> 8) & 0xff
        MOV     R1,#0xd
        LCALL   ??zclLL_Send_ScanReq?relay
        MOV     A,#0x1
        LCALL   ?DEALLOC_XSTACK8
          CFI CFA_XSP16 add(XSP16, 32)
// 1215 
// 1216     numScanReqSent++;
        MOV     DPTR,#numScanReqSent
        MOVX    A,@DPTR
        INC     A
        MOVX    @DPTR,A
// 1217 
// 1218     // After each transmission, wait ZLL_APLC_SCAN_TIME_BASE_DURATION seconds
// 1219     // to receive any responses.
// 1220     osal_start_timerEx( zllInitiator_TaskID, ZLL_TL_SCAN_BASE_EVT, ZLL_APLC_SCAN_TIME_BASE_DURATION );
        ; Setup parameters for call to function osal_start_timerEx
        MOV     DPTR,#__Constant_fa
        LCALL   ?PUSH_XSTACK8_X_FOUR
          CFI CFA_XSP16 add(XSP16, 36)
        MOV     R2,#0x40
        MOV     R3,#0x0
        MOV     DPTR,#zllInitiator_TaskID
        MOVX    A,@DPTR
        MOV     R1,A
        LCALL   ??osal_start_timerEx?relay
        MOV     A,#0x4
        LCALL   ?DEALLOC_XSTACK8
          CFI CFA_XSP16 add(XSP16, 32)
        SJMP    ??initiatorSendScanReq_6
// 1221   }
??initiatorSendScanReq_2:
        MOVX    A,@DPTR
        XRL     A,#0x5
        JNZ     ??initiatorSendScanReq_7
        MOV     R7,#0xf
        LJMP    ??initiatorSendScanReq_3 & 0xFFFF
??initiatorSendScanReq_7:
        MOVX    A,@DPTR
        XRL     A,#0x6
        JNZ     ??initiatorSendScanReq_8
        MOV     R7,#0x14
        LJMP    ??initiatorSendScanReq_3 & 0xFFFF
??initiatorSendScanReq_8:
        MOV     R7,#0x19
        LJMP    ??initiatorSendScanReq_3 & 0xFFFF
??initiatorSendScanReq_1:
        MOV     DPTR,#??channelIndex
        MOVX    A,@DPTR
        CLR     C
        SUBB    A,#0xc
        JNC     ??initiatorSendScanReq_9
        MOVX    A,@DPTR
        MOV     R0,A
        MOV     A,#0x8
        LCALL   ?XSTACK_DISP0_8
        MOV     A,DPL
        ADD     A,R0
        MOV     DPL,A
        MOV     A,DPH
        LCALL   ??Subroutine40_0 & 0xFFFF
??CrossCallReturnLabel_68:
        MOV     R7,A
        MOV     DPTR,#??channelIndex
        MOVX    A,@DPTR
        INC     A
        MOVX    @DPTR,A
        LJMP    ??initiatorSendScanReq_3 & 0xFFFF
??initiatorSendScanReq_9:
        CLR     A
        MOVX    @DPTR,A
        SJMP    ??initiatorSendScanReq_6
// 1222   else
// 1223   {
// 1224     zllInitiator_AbortTL();
??initiatorSendScanReq_4:
        ; Setup parameters for call to function zllInitiator_AbortTL
        LCALL   ??zllInitiator_AbortTL?relay
??initiatorSendScanReq_6:
        MOV     A,#0x14
          CFI EndBlock cfiBlock66
// 1225   }
        REQUIRE ?Subroutine3
        ; // Fall through to label ?Subroutine3
// 1226 }

        RSEG BANKED_CODE:CODE:NOROOT(0)
?Subroutine3:
          CFI Block cfiBlock67 Using cfiCommon0
          CFI NoFunction
          CFI CFA_SP SP+0
          CFI CFA_XSP16 add(XSP16, 32)
          CFI VB load(1, XDATA, add(CFA_XSP16, literal(-11)))
          CFI DPL0 load(1, XDATA, add(CFA_XSP16, literal(-2)))
          CFI DPH0 load(1, XDATA, add(CFA_XSP16, literal(-1)))
          CFI R6 load(1, XDATA, add(CFA_XSP16, literal(-12)))
          CFI R7 load(1, XDATA, add(CFA_XSP16, literal(-6)))
          CFI V0 load(1, XDATA, add(CFA_XSP16, literal(-10)))
          CFI V1 load(1, XDATA, add(CFA_XSP16, literal(-9)))
          CFI V2 load(1, XDATA, add(CFA_XSP16, literal(-8)))
          CFI V3 load(1, XDATA, add(CFA_XSP16, literal(-7)))
          CFI ?BRET_EXT load(1, XDATA, add(CFA_XSP16, literal(-3)))
          CFI ?RET_HIGH load(1, XDATA, add(CFA_XSP16, literal(-4)))
          CFI ?RET_LOW load(1, XDATA, add(CFA_XSP16, literal(-5)))
          CFI Invalid
        LCALL   ?DEALLOC_XSTACK8
          CFI CFA_XSP16 add(XSP16, 12)
          CFI Valid
        MOV     R7,#0x4
        LJMP    ?BANKED_LEAVE_XDATA
          CFI EndBlock cfiBlock67
// 1227 
// 1228 /*********************************************************************
// 1229  * @fn      initiatorSendNwkStartReq
// 1230  *
// 1231  * @brief   Send out a Network Start Request command.
// 1232  *
// 1233  * @param   pRsp - received Scan Response
// 1234  *
// 1235  * @return  ZStatus_t
// 1236  */

        RSEG BANKED_CODE:CODE:NOROOT(0)
// 1237 static ZStatus_t initiatorSendNwkStartReq( zclLLScanRsp_t *pRsp )
initiatorSendNwkStartReq:
          CFI Block cfiBlock68 Using cfiCommon0
          CFI Function initiatorSendNwkStartReq
        CODE
// 1238 {
        FUNCALL initiatorSendNwkStartReq, osal_mem_alloc
        LOCFRAME ISTACK, 0, STACK
        LOCFRAME PSTACK, 0, STACK
        LOCFRAME XSTACK, 20, STACK
        LOCFRAME IOVERLAY, 0, STATIC
        LOCFRAME DOVERLAY, 0, STATIC
        ARGFRAME ISTACK, 0, STACK
        ARGFRAME PSTACK, 0, STACK
        ARGFRAME XSTACK, 20, STACK
        ARGFRAME IOVERLAY, 0, STATIC
        ARGFRAME DOVERLAY, 0, STATIC
        FUNCALL initiatorSendNwkStartReq, osal_memset
        LOCFRAME ISTACK, 0, STACK
        LOCFRAME PSTACK, 0, STACK
        LOCFRAME XSTACK, 20, STACK
        LOCFRAME IOVERLAY, 0, STATIC
        LOCFRAME DOVERLAY, 0, STATIC
        ARGFRAME ISTACK, 0, STACK
        ARGFRAME PSTACK, 0, STACK
        ARGFRAME XSTACK, 20, STACK
        ARGFRAME IOVERLAY, 0, STATIC
        ARGFRAME DOVERLAY, 0, STATIC
        FUNCALL initiatorSendNwkStartReq, zll_EncryptNwkKey
        LOCFRAME ISTACK, 0, STACK
        LOCFRAME PSTACK, 0, STACK
        LOCFRAME XSTACK, 28, STACK
        LOCFRAME IOVERLAY, 0, STATIC
        LOCFRAME DOVERLAY, 0, STATIC
        ARGFRAME ISTACK, 0, STACK
        ARGFRAME PSTACK, 0, STACK
        ARGFRAME XSTACK, 28, STACK
        ARGFRAME IOVERLAY, 0, STATIC
        ARGFRAME DOVERLAY, 0, STATIC
        FUNCALL initiatorSendNwkStartReq, zll_PopNwkAddress
        LOCFRAME ISTACK, 0, STACK
        LOCFRAME PSTACK, 0, STACK
        LOCFRAME XSTACK, 20, STACK
        LOCFRAME IOVERLAY, 0, STATIC
        LOCFRAME DOVERLAY, 0, STATIC
        ARGFRAME ISTACK, 0, STACK
        ARGFRAME PSTACK, 0, STACK
        ARGFRAME XSTACK, 20, STACK
        ARGFRAME IOVERLAY, 0, STATIC
        ARGFRAME DOVERLAY, 0, STATIC
        FUNCALL initiatorSendNwkStartReq, osal_rand
        LOCFRAME ISTACK, 0, STACK
        LOCFRAME PSTACK, 0, STACK
        LOCFRAME XSTACK, 20, STACK
        LOCFRAME IOVERLAY, 0, STATIC
        LOCFRAME DOVERLAY, 0, STATIC
        ARGFRAME ISTACK, 0, STACK
        ARGFRAME PSTACK, 0, STACK
        ARGFRAME XSTACK, 20, STACK
        ARGFRAME IOVERLAY, 0, STATIC
        ARGFRAME DOVERLAY, 0, STATIC
        FUNCALL initiatorSendNwkStartReq, zll_PopGrpIDRange
        LOCFRAME ISTACK, 0, STACK
        LOCFRAME PSTACK, 0, STACK
        LOCFRAME XSTACK, 20, STACK
        LOCFRAME IOVERLAY, 0, STATIC
        LOCFRAME DOVERLAY, 0, STATIC
        ARGFRAME ISTACK, 0, STACK
        ARGFRAME PSTACK, 0, STACK
        ARGFRAME XSTACK, 20, STACK
        ARGFRAME IOVERLAY, 0, STATIC
        ARGFRAME DOVERLAY, 0, STATIC
        FUNCALL initiatorSendNwkStartReq, zll_SplitFreeRanges
        LOCFRAME ISTACK, 0, STACK
        LOCFRAME PSTACK, 0, STACK
        LOCFRAME XSTACK, 24, STACK
        LOCFRAME IOVERLAY, 0, STATIC
        LOCFRAME DOVERLAY, 0, STATIC
        ARGFRAME ISTACK, 0, STACK
        ARGFRAME PSTACK, 0, STACK
        ARGFRAME XSTACK, 24, STACK
        ARGFRAME IOVERLAY, 0, STATIC
        ARGFRAME DOVERLAY, 0, STATIC
        FUNCALL initiatorSendNwkStartReq, NLME_GetExtAddr
        LOCFRAME ISTACK, 0, STACK
        LOCFRAME PSTACK, 0, STACK
        LOCFRAME XSTACK, 20, STACK
        LOCFRAME IOVERLAY, 0, STATIC
        LOCFRAME DOVERLAY, 0, STATIC
        ARGFRAME ISTACK, 0, STACK
        ARGFRAME PSTACK, 0, STACK
        ARGFRAME XSTACK, 20, STACK
        ARGFRAME IOVERLAY, 0, STATIC
        ARGFRAME DOVERLAY, 0, STATIC
        FUNCALL initiatorSendNwkStartReq, sAddrExtCpy
        LOCFRAME ISTACK, 0, STACK
        LOCFRAME PSTACK, 0, STACK
        LOCFRAME XSTACK, 20, STACK
        LOCFRAME IOVERLAY, 0, STATIC
        LOCFRAME DOVERLAY, 0, STATIC
        ARGFRAME ISTACK, 0, STACK
        ARGFRAME PSTACK, 0, STACK
        ARGFRAME XSTACK, 20, STACK
        ARGFRAME IOVERLAY, 0, STATIC
        ARGFRAME DOVERLAY, 0, STATIC
        FUNCALL initiatorSendNwkStartReq, zclLL_Send_NwkStartReq
        LOCFRAME ISTACK, 0, STACK
        LOCFRAME PSTACK, 0, STACK
        LOCFRAME XSTACK, 21, STACK
        LOCFRAME IOVERLAY, 0, STATIC
        LOCFRAME DOVERLAY, 0, STATIC
        ARGFRAME ISTACK, 0, STACK
        ARGFRAME PSTACK, 0, STACK
        ARGFRAME XSTACK, 21, STACK
        ARGFRAME IOVERLAY, 0, STATIC
        ARGFRAME DOVERLAY, 0, STATIC
        FUNCALL initiatorSendNwkStartReq, osal_memcpy
        LOCFRAME ISTACK, 0, STACK
        LOCFRAME PSTACK, 0, STACK
        LOCFRAME XSTACK, 23, STACK
        LOCFRAME IOVERLAY, 0, STATIC
        LOCFRAME DOVERLAY, 0, STATIC
        ARGFRAME ISTACK, 0, STACK
        ARGFRAME PSTACK, 0, STACK
        ARGFRAME XSTACK, 23, STACK
        ARGFRAME IOVERLAY, 0, STATIC
        ARGFRAME DOVERLAY, 0, STATIC
        FUNCALL initiatorSendNwkStartReq, osal_start_timerEx
        LOCFRAME ISTACK, 0, STACK
        LOCFRAME PSTACK, 0, STACK
        LOCFRAME XSTACK, 24, STACK
        LOCFRAME IOVERLAY, 0, STATIC
        LOCFRAME DOVERLAY, 0, STATIC
        ARGFRAME ISTACK, 0, STACK
        ARGFRAME PSTACK, 0, STACK
        ARGFRAME XSTACK, 24, STACK
        ARGFRAME IOVERLAY, 0, STATIC
        ARGFRAME DOVERLAY, 0, STATIC
        FUNCALL initiatorSendNwkStartReq, osal_mem_free
        LOCFRAME ISTACK, 0, STACK
        LOCFRAME PSTACK, 0, STACK
        LOCFRAME XSTACK, 20, STACK
        LOCFRAME IOVERLAY, 0, STATIC
        LOCFRAME DOVERLAY, 0, STATIC
        ARGFRAME ISTACK, 0, STACK
        ARGFRAME PSTACK, 0, STACK
        ARGFRAME XSTACK, 20, STACK
        ARGFRAME IOVERLAY, 0, STATIC
        ARGFRAME DOVERLAY, 0, STATIC
        MOV     A,#-0x14
        LCALL   ?BANKED_ENTER_XDATA
          CFI DPH0 load(1, XDATA, add(CFA_XSP16, literal(-1)))
          CFI DPL0 load(1, XDATA, add(CFA_XSP16, literal(-2)))
          CFI ?BRET_EXT load(1, XDATA, add(CFA_XSP16, literal(-3)))
          CFI ?RET_HIGH load(1, XDATA, add(CFA_XSP16, literal(-4)))
          CFI ?RET_LOW load(1, XDATA, add(CFA_XSP16, literal(-5)))
          CFI R7 load(1, XDATA, add(CFA_XSP16, literal(-6)))
          CFI V11 load(1, XDATA, add(CFA_XSP16, literal(-7)))
          CFI V10 load(1, XDATA, add(CFA_XSP16, literal(-8)))
          CFI V9 load(1, XDATA, add(CFA_XSP16, literal(-9)))
          CFI V8 load(1, XDATA, add(CFA_XSP16, literal(-10)))
          CFI V7 load(1, XDATA, add(CFA_XSP16, literal(-11)))
          CFI V6 load(1, XDATA, add(CFA_XSP16, literal(-12)))
          CFI V5 load(1, XDATA, add(CFA_XSP16, literal(-13)))
          CFI V4 load(1, XDATA, add(CFA_XSP16, literal(-14)))
          CFI V3 load(1, XDATA, add(CFA_XSP16, literal(-15)))
          CFI V2 load(1, XDATA, add(CFA_XSP16, literal(-16)))
          CFI V1 load(1, XDATA, add(CFA_XSP16, literal(-17)))
          CFI V0 load(1, XDATA, add(CFA_XSP16, literal(-18)))
          CFI VB load(1, XDATA, add(CFA_XSP16, literal(-19)))
          CFI R6 load(1, XDATA, add(CFA_XSP16, literal(-20)))
          CFI CFA_SP SP+0
          CFI CFA_XSP16 add(XSP16, 20)
        ; Saved register size: 20
        ; Auto size: 0
        MOV     ?V0 + 4,R2
        MOV     ?V0 + 5,R3
// 1239   zclLLNwkStartReq_t *pReq;
// 1240   ZStatus_t status;
// 1241 
// 1242   pReq = (zclLLNwkStartReq_t *)osal_mem_alloc( sizeof( zclLLNwkStartReq_t ) );
        ; Setup parameters for call to function osal_mem_alloc
        MOV     R2,#0x38
        MOV     R3,#0x0
        LCALL   ??osal_mem_alloc?relay
        MOV     ?V0 + 2,R2
        MOV     ?V0 + 3,R3
// 1243   if ( pReq != NULL )
        MOV     A,R2
        ORL     A,?V0 + 3
        JNZ     $+5
        LJMP    ??initiatorSendNwkStartReq_0 & 0xFFFF
// 1244   {
// 1245     uint16 i;
// 1246     zclLLNwkParams_t *pParams = &(pReq->nwkParams);
        MOV     A,R2
        ADD     A,#0x4
        MOV     ?V0 + 0,A
        MOV     A,R3
        ADDC    A,#0x0
        MOV     ?V0 + 1,A
// 1247 
// 1248     osal_memset( pReq, 0, sizeof( zclLLNwkStartReq_t ) );
        ; Setup parameters for call to function osal_memset
        MOV     R4,#0x38
        MOV     R5,#0x0
        MOV     R1,#0x0
        LCALL   ??osal_memset?relay
// 1249 
// 1250     // Build the request
// 1251     pReq->transID = selectedTarget.scanRsp.transID;
        MOV     DPTR,#selectedTarget
        LCALL   ?XLOAD_R2345
        MOV     DPL,?V0 + 2
        MOV     DPH,?V0 + 3
        LCALL   ?XSTORE_R2345
// 1252 
// 1253     // Find out key index (prefer highest)
// 1254     for ( i = 15; i > 0; i-- )
        MOV     R6,#0xf
        MOV     R7,#0x0
// 1255     {
// 1256       if ( ( (uint16)1 << i ) & pRsp->keyBitmask )
??initiatorSendNwkStartReq_1:
        MOV     ?V0 + 6,#0x1
        MOV     ?V0 + 7,#0x0
        MOV     A,R6
        MOV     R0,#?V0 + 6
        LCALL   ?S_SHL
        MOV     DPL,?V0 + 4
        MOV     DPH,?V0 + 5
        INC     DPTR
        INC     DPTR
        INC     DPTR
        INC     DPTR
        INC     DPTR
        INC     DPTR
        INC     DPTR
        INC     DPTR
        INC     DPTR
        MOVX    A,@DPTR
        ANL     A,?V0 + 6
        MOV     R0,A
        INC     DPTR
        MOVX    A,@DPTR
        ANL     A,?V0 + 7
        MOV     R1,A
        MOV     A,R0
        ORL     A,R1
        JNZ     ??initiatorSendNwkStartReq_2
// 1257       {
// 1258         break;
// 1259       }
// 1260     }
        MOV     A,R6
        ADD     A,#-0x1
        DEC     R6
        MOV     A,R7
        ADDC    A,#-0x1
        MOV     R7,A
        MOV     A,R6
        ORL     A,R7
        JNZ     ??initiatorSendNwkStartReq_1
// 1261     pParams->keyIndex = i;
??initiatorSendNwkStartReq_2:
        MOV     A,R6
        MOV     DPL,?V0 + 0
        MOV     DPH,?V0 + 1
        INC     DPTR
        INC     DPTR
        INC     DPTR
        INC     DPTR
        INC     DPTR
        INC     DPTR
        INC     DPTR
        INC     DPTR
        MOVX    @DPTR,A
// 1262 
// 1263     // Copy in the encrypted network key
// 1264     zll_EncryptNwkKey( pParams->nwkKey, i, pRsp->transID, pRsp->responseID );
        MOV     A,?V0 + 0
        ADD     A,#0x9
        MOV     ?V0 + 8,A
        MOV     A,?V0 + 1
        ADDC    A,#0x0
        MOV     ?V0 + 9,A
        MOV     A,?V0 + 4
        ADD     A,#0xb
        MOV     ?V0 + 10,A
        MOV     A,?V0 + 5
        ADDC    A,#0x0
        MOV     ?V0 + 11,A
        ; Setup parameters for call to function zll_EncryptNwkKey
        MOV     DPL,?V0 + 10
        MOV     DPH,A
        LCALL   ?PUSH_XSTACK8_X_FOUR
          CFI CFA_XSP16 add(XSP16, 24)
        MOV     DPL,?V0 + 4
        MOV     DPH,?V0 + 5
        LCALL   ?PUSH_XSTACK8_X_FOUR
          CFI CFA_XSP16 add(XSP16, 28)
        MOV     A,R6
        MOV     R1,A
        MOV     R2,?V0 + 8
        MOV     R3,?V0 + 9
        LCALL   ??zll_EncryptNwkKey?relay
        MOV     A,#0x8
        LCALL   ?DEALLOC_XSTACK8
          CFI CFA_XSP16 add(XSP16, 20)
// 1265 
// 1266     pParams->nwkAddr = zll_PopNwkAddress();
        ; Setup parameters for call to function zll_PopNwkAddress
        LCALL   ??zll_PopNwkAddress?relay
        MOV     ?V0 + 6,R2
        MOV     ?V0 + 7,R3
        MOV     R0,?V0 + 6
        MOV     R1,?V0 + 7
        MOV     A,?V0 + 0
        ADD     A,#0x1c
        MOV     ?V0 + 6,A
        MOV     A,?V0 + 1
        ADDC    A,#0x0
        MOV     ?V0 + 7,A
        MOV     DPL,?V0 + 6
        MOV     DPH,A
        LCALL   ??Subroutine39_0 & 0xFFFF
// 1267     if ( pParams->nwkAddr == 0 )
??CrossCallReturnLabel_60:
        MOV     A,R0
        ORL     A,R1
        JNZ     ??initiatorSendNwkStartReq_3
// 1268     {
// 1269       pParams->nwkAddr = osal_rand();
        ; Setup parameters for call to function osal_rand
        LCALL   ??osal_rand?relay
        MOV     DPL,?V0 + 6
        MOV     DPH,?V0 + 7
        MOV     A,R2
        MOVX    @DPTR,A
        INC     DPTR
        MOV     A,R3
        MOVX    @DPTR,A
// 1270     }
// 1271     // update address for app notification
// 1272     selectedTarget.newNwkAddr = pParams->nwkAddr;
??initiatorSendNwkStartReq_3:
        MOV     DPL,?V0 + 6
        MOV     DPH,?V0 + 7
        LCALL   ?Subroutine15 & 0xFFFF
// 1273 
// 1274     // Set group ID range
// 1275     if ( pRsp->totalGrpIDs > 0 )
??CrossCallReturnLabel_66:
        MOV     A,?V0 + 4
        ADD     A,#0x1e
        MOV     DPL,A
        MOV     A,?V0 + 5
        LCALL   ??Subroutine40_0 & 0xFFFF
??CrossCallReturnLabel_69:
        MOV     R1,A
        JZ      ??initiatorSendNwkStartReq_4
// 1276     {
// 1277       zll_PopGrpIDRange( pRsp->totalGrpIDs, &(pParams->grpIDsBegin), &(pParams->grpIDsEnd) );
        ; Setup parameters for call to function zll_PopGrpIDRange
        MOV     A,?V0 + 0
        ADD     A,#0x20
        MOV     R4,A
        MOV     A,?V0 + 1
        ADDC    A,#0x0
        MOV     R5,A
        MOV     A,?V0 + 0
        ADD     A,#0x1e
        MOV     R2,A
        MOV     A,?V0 + 1
        ADDC    A,#0x0
        MOV     R3,A
        LCALL   ??zll_PopGrpIDRange?relay
// 1278     }
// 1279 
// 1280     if ( pRsp->zllAddressAssignment )
??initiatorSendNwkStartReq_4:
        MOV     DPL,?V0 + 4
        MOV     DPH,?V0 + 5
        INC     DPTR
        INC     DPTR
        INC     DPTR
        INC     DPTR
        INC     DPTR
        INC     DPTR
        INC     DPTR
        MOVX    A,@DPTR
        ANL     A,#0x2
        JZ      ??initiatorSendNwkStartReq_5
// 1281     {
// 1282       zll_SplitFreeRanges( &(pParams->freeNwkAddrBegin), &(pParams->freeNwkAddrEnd),
// 1283                            &(pParams->freeGrpIDBegin), &(pParams->freeGrpIDEnd) );
        ; Setup parameters for call to function zll_SplitFreeRanges
        MOV     A,?V0 + 0
        ADD     A,#0x28
        LCALL   ?Subroutine25 & 0xFFFF
// 1284     }
??CrossCallReturnLabel_52:
        LCALL   ?PUSH_XSTACK_I_TWO
          CFI CFA_XSP16 add(XSP16, 22)
        MOV     A,?V0 + 0
        ADD     A,#0x26
        LCALL   ?Subroutine25 & 0xFFFF
??CrossCallReturnLabel_53:
        LCALL   ?PUSH_XSTACK_I_TWO
          CFI CFA_XSP16 add(XSP16, 24)
        MOV     A,?V0 + 0
        ADD     A,#0x24
        MOV     R4,A
        MOV     A,?V0 + 1
        ADDC    A,#0x0
        MOV     R5,A
        MOV     A,?V0 + 0
        ADD     A,#0x22
        MOV     R2,A
        MOV     A,?V0 + 1
        ADDC    A,#0x0
        MOV     R3,A
        LCALL   ??zll_SplitFreeRanges?relay
        MOV     A,#0x4
        LCALL   ?DEALLOC_XSTACK8
          CFI CFA_XSP16 add(XSP16, 20)
// 1285 
// 1286 #ifdef ZLL_INITIATOR_SET_NEW_NWK_PARAMS
// 1287     pParams->logicalChannel = _NIB.nwkLogicalChannel;
// 1288     pParams->panId = _NIB.nwkPanId;
// 1289     osal_memcpy( pParams->extendedPANID, _NIB.extendedPANID ,Z_EXTADDR_LEN);
// 1290 #endif
// 1291 
// 1292     osal_cpyExtAddr( pReq->initiatorIeeeAddr, NLME_GetExtAddr() );
??initiatorSendNwkStartReq_5:
        ; Setup parameters for call to function sAddrExtCpy
        ; Setup parameters for call to function NLME_GetExtAddr
        LCALL   ??NLME_GetExtAddr?relay
        MOV     A,R2
        MOV     R4,A
        MOV     A,R3
        MOV     R5,A
        MOV     A,?V0 + 2
        ADD     A,#0x2e
        MOV     R2,A
        MOV     A,?V0 + 3
        ADDC    A,#0x0
        MOV     R3,A
        LCALL   ??sAddrExtCpy?relay
// 1293     pReq->initiatorNwkAddr = _NIB.nwkDevAddress;;
        MOV     DPTR,#_NIB + 20
        LCALL   ??Subroutine42_0 & 0xFFFF
??CrossCallReturnLabel_81:
        MOV     A,?V0 + 2
        ADD     A,#0x36
        MOV     DPL,A
        MOV     A,?V0 + 3
        LCALL   ?Subroutine28 & 0xFFFF
??CrossCallReturnLabel_33:
        LCALL   ??Subroutine37_0 & 0xFFFF
// 1294 
// 1295     status = zclLL_Send_NwkStartReq( ZLL_INTERNAL_ENDPOINT, &(selectedTarget.srcAddr), pReq, initiatorSeqNum++ );
??CrossCallReturnLabel_47:
        LCALL   ?PUSH_XSTACK_I_ONE
          CFI CFA_XSP16 add(XSP16, 21)
        MOV     R4,?V0 + 2
        MOV     R5,?V0 + 3
        MOV     R2,#(selectedTarget + 38) & 0xff
        MOV     R3,#((selectedTarget + 38) >> 8) & 0xff
        MOV     R1,#0xd
        LCALL   ??zclLL_Send_NwkStartReq?relay
        MOV     A,#0x1
        LCALL   ?DEALLOC_XSTACK8
          CFI CFA_XSP16 add(XSP16, 20)
        MOV     A,R1
        MOV     ?V0 + 0,A
// 1296     if ( status == ZSuccess )
        JNZ     ??initiatorSendNwkStartReq_6
// 1297     {
// 1298       // Keep a copy of the encryted network key sent to the target
// 1299       keyIndexSent = i;
        MOV     A,R6
        MOV     DPTR,#keyIndexSent
        MOVX    @DPTR,A
// 1300       osal_memcpy( encKeySent, pParams->nwkKey, SEC_KEY_LEN );
        ; Setup parameters for call to function osal_memcpy
        MOV     ?V0 + 4,?V0 + 8
        MOV     ?V0 + 5,?V0 + 9
        MOV     ?V0 + 6,#0x0
        MOV     R0,#?V0 + 4
        LCALL   ?PUSH_XSTACK_I_THREE
          CFI CFA_XSP16 add(XSP16, 23)
        MOV     R4,#0x10
        MOV     R5,#0x0
        MOV     R2,#encKeySent & 0xff
        MOV     R3,#(encKeySent >> 8) & 0xff
        LCALL   ??osal_memcpy?relay
        MOV     A,#0x3
        LCALL   ?DEALLOC_XSTACK8
          CFI CFA_XSP16 add(XSP16, 20)
// 1301       responseIDSent = pRsp->responseID;
        MOV     DPL,?V0 + 10
        MOV     DPH,?V0 + 11
        LCALL   ?XLOAD_R2345
        MOV     DPTR,#responseIDSent
        LCALL   ?XSTORE_R2345
// 1302 
// 1303       // After the transmission, wait ZLL_APLC_RX_WINDOW_DURATION seconds to
// 1304       // receive a response.
// 1305       osal_start_timerEx( zllInitiator_TaskID, ZLL_W4_NWK_START_RSP_EVT, ZLL_APLC_RX_WINDOW_DURATION );
        ; Setup parameters for call to function osal_start_timerEx
        MOV     DPTR,#__Constant_1388
        LCALL   ?PUSH_XSTACK8_X_FOUR
          CFI CFA_XSP16 add(XSP16, 24)
        MOV     R2,#0x0
        MOV     R3,#0x1
        MOV     DPTR,#zllInitiator_TaskID
        MOVX    A,@DPTR
        MOV     R1,A
        LCALL   ??osal_start_timerEx?relay
        MOV     A,#0x4
        LCALL   ?DEALLOC_XSTACK8
          CFI CFA_XSP16 add(XSP16, 20)
// 1306     }
// 1307 
// 1308     osal_mem_free( pReq );
??initiatorSendNwkStartReq_6:
        ; Setup parameters for call to function osal_mem_free
        MOV     R2,?V0 + 2
        MOV     R3,?V0 + 3
        LCALL   ??osal_mem_free?relay
        SJMP    ??initiatorSendNwkStartReq_7
// 1309   }
// 1310   else
// 1311   {
// 1312     status = ZMemError;
??initiatorSendNwkStartReq_0:
        MOV     ?V0 + 0,#0x10
// 1313   }
// 1314 
// 1315   return ( status );
??initiatorSendNwkStartReq_7:
        MOV     R1,?V0 + 0
        MOV     R7,#0xc
        LJMP    ?BANKED_LEAVE_XDATA
          CFI EndBlock cfiBlock68
// 1316 }

        RSEG BANKED_CODE:CODE:NOROOT(0)
?Subroutine28:
          CFI Block cfiCond69 Using cfiCommon0
          CFI Function zllInitiator_event_loop
          CFI Conditional ??CrossCallReturnLabel_32
          CFI R6 load(1, XDATA, add(CFA_XSP16, literal(-16)))
          CFI VB load(1, XDATA, add(CFA_XSP16, literal(-15)))
          CFI V0 load(1, XDATA, add(CFA_XSP16, literal(-14)))
          CFI V1 load(1, XDATA, add(CFA_XSP16, literal(-13)))
          CFI V2 load(1, XDATA, add(CFA_XSP16, literal(-12)))
          CFI V3 load(1, XDATA, add(CFA_XSP16, literal(-11)))
          CFI V4 load(1, XDATA, add(CFA_XSP16, literal(-10)))
          CFI V5 load(1, XDATA, add(CFA_XSP16, literal(-9)))
          CFI V6 load(1, XDATA, add(CFA_XSP16, literal(-8)))
          CFI V7 load(1, XDATA, add(CFA_XSP16, literal(-7)))
          CFI R7 load(1, XDATA, add(CFA_XSP16, literal(-6)))
          CFI ?RET_LOW load(1, XDATA, add(CFA_XSP16, literal(-5)))
          CFI ?RET_HIGH load(1, XDATA, add(CFA_XSP16, literal(-4)))
          CFI ?BRET_EXT load(1, XDATA, add(CFA_XSP16, literal(-3)))
          CFI DPL0 load(1, XDATA, add(CFA_XSP16, literal(-2)))
          CFI DPH0 load(1, XDATA, add(CFA_XSP16, literal(-1)))
          CFI CFA_SP SP+0
          CFI CFA_XSP16 add(XSP16, 30)
          CFI Block cfiCond70 Using cfiCommon0
          CFI (cfiCond70) Function initiatorSendNwkStartReq
          CFI (cfiCond70) Conditional ??CrossCallReturnLabel_33
          CFI (cfiCond70) R6 load(1, XDATA, add(CFA_XSP16, literal(-20)))
          CFI (cfiCond70) VB load(1, XDATA, add(CFA_XSP16, literal(-19)))
          CFI (cfiCond70) V0 load(1, XDATA, add(CFA_XSP16, literal(-18)))
          CFI (cfiCond70) V1 load(1, XDATA, add(CFA_XSP16, literal(-17)))
          CFI (cfiCond70) V2 load(1, XDATA, add(CFA_XSP16, literal(-16)))
          CFI (cfiCond70) V3 load(1, XDATA, add(CFA_XSP16, literal(-15)))
          CFI (cfiCond70) V4 load(1, XDATA, add(CFA_XSP16, literal(-14)))
          CFI (cfiCond70) V5 load(1, XDATA, add(CFA_XSP16, literal(-13)))
          CFI (cfiCond70) V6 load(1, XDATA, add(CFA_XSP16, literal(-12)))
          CFI (cfiCond70) V7 load(1, XDATA, add(CFA_XSP16, literal(-11)))
          CFI (cfiCond70) V8 load(1, XDATA, add(CFA_XSP16, literal(-10)))
          CFI (cfiCond70) V9 load(1, XDATA, add(CFA_XSP16, literal(-9)))
          CFI (cfiCond70) V10 load(1, XDATA, add(CFA_XSP16, literal(-8)))
          CFI (cfiCond70) V11 load(1, XDATA, add(CFA_XSP16, literal(-7)))
          CFI (cfiCond70) R7 load(1, XDATA, add(CFA_XSP16, literal(-6)))
          CFI (cfiCond70) ?RET_LOW load(1, XDATA, add(CFA_XSP16, literal(-5)))
          CFI (cfiCond70) ?RET_HIGH load(1, XDATA, add(CFA_XSP16, literal(-4)))
          CFI (cfiCond70) ?BRET_EXT load(1, XDATA, add(CFA_XSP16, literal(-3)))
          CFI (cfiCond70) DPL0 load(1, XDATA, add(CFA_XSP16, literal(-2)))
          CFI (cfiCond70) DPH0 load(1, XDATA, add(CFA_XSP16, literal(-1)))
          CFI (cfiCond70) CFA_SP SP+0
          CFI (cfiCond70) CFA_XSP16 add(XSP16, 20)
          CFI Block cfiPicker71 Using cfiCommon1
          CFI (cfiPicker71) NoFunction
          CFI (cfiPicker71) Picker
        ADDC    A,#0x0
        MOV     DPH,A
        MOV     A,R0
        MOVX    @DPTR,A
        INC     DPTR
        MOV     A,R1
        RET
          CFI EndBlock cfiCond69
          CFI EndBlock cfiCond70
          CFI EndBlock cfiPicker71

        RSEG BANKED_CODE:CODE:NOROOT(0)
?Subroutine25:
          CFI Block cfiCond72 Using cfiCommon0
          CFI Function initiatorSendNwkStartReq
          CFI Conditional ??CrossCallReturnLabel_52
          CFI R6 load(1, XDATA, add(CFA_XSP16, literal(-20)))
          CFI VB load(1, XDATA, add(CFA_XSP16, literal(-19)))
          CFI V0 load(1, XDATA, add(CFA_XSP16, literal(-18)))
          CFI V1 load(1, XDATA, add(CFA_XSP16, literal(-17)))
          CFI V2 load(1, XDATA, add(CFA_XSP16, literal(-16)))
          CFI V3 load(1, XDATA, add(CFA_XSP16, literal(-15)))
          CFI V4 load(1, XDATA, add(CFA_XSP16, literal(-14)))
          CFI V5 load(1, XDATA, add(CFA_XSP16, literal(-13)))
          CFI V6 load(1, XDATA, add(CFA_XSP16, literal(-12)))
          CFI V7 load(1, XDATA, add(CFA_XSP16, literal(-11)))
          CFI V8 load(1, XDATA, add(CFA_XSP16, literal(-10)))
          CFI V9 load(1, XDATA, add(CFA_XSP16, literal(-9)))
          CFI V10 load(1, XDATA, add(CFA_XSP16, literal(-8)))
          CFI V11 load(1, XDATA, add(CFA_XSP16, literal(-7)))
          CFI R7 load(1, XDATA, add(CFA_XSP16, literal(-6)))
          CFI ?RET_LOW load(1, XDATA, add(CFA_XSP16, literal(-5)))
          CFI ?RET_HIGH load(1, XDATA, add(CFA_XSP16, literal(-4)))
          CFI ?BRET_EXT load(1, XDATA, add(CFA_XSP16, literal(-3)))
          CFI DPL0 load(1, XDATA, add(CFA_XSP16, literal(-2)))
          CFI DPH0 load(1, XDATA, add(CFA_XSP16, literal(-1)))
          CFI CFA_SP SP+0
          CFI CFA_XSP16 add(XSP16, 20)
          CFI Block cfiCond73 Using cfiCommon0
          CFI (cfiCond73) Function initiatorSendNwkStartReq
          CFI (cfiCond73) Conditional ??CrossCallReturnLabel_53
          CFI (cfiCond73) R6 load(1, XDATA, add(CFA_XSP16, literal(-20)))
          CFI (cfiCond73) VB load(1, XDATA, add(CFA_XSP16, literal(-19)))
          CFI (cfiCond73) V0 load(1, XDATA, add(CFA_XSP16, literal(-18)))
          CFI (cfiCond73) V1 load(1, XDATA, add(CFA_XSP16, literal(-17)))
          CFI (cfiCond73) V2 load(1, XDATA, add(CFA_XSP16, literal(-16)))
          CFI (cfiCond73) V3 load(1, XDATA, add(CFA_XSP16, literal(-15)))
          CFI (cfiCond73) V4 load(1, XDATA, add(CFA_XSP16, literal(-14)))
          CFI (cfiCond73) V5 load(1, XDATA, add(CFA_XSP16, literal(-13)))
          CFI (cfiCond73) V6 load(1, XDATA, add(CFA_XSP16, literal(-12)))
          CFI (cfiCond73) V7 load(1, XDATA, add(CFA_XSP16, literal(-11)))
          CFI (cfiCond73) V8 load(1, XDATA, add(CFA_XSP16, literal(-10)))
          CFI (cfiCond73) V9 load(1, XDATA, add(CFA_XSP16, literal(-9)))
          CFI (cfiCond73) V10 load(1, XDATA, add(CFA_XSP16, literal(-8)))
          CFI (cfiCond73) V11 load(1, XDATA, add(CFA_XSP16, literal(-7)))
          CFI (cfiCond73) R7 load(1, XDATA, add(CFA_XSP16, literal(-6)))
          CFI (cfiCond73) ?RET_LOW load(1, XDATA, add(CFA_XSP16, literal(-5)))
          CFI (cfiCond73) ?RET_HIGH load(1, XDATA, add(CFA_XSP16, literal(-4)))
          CFI (cfiCond73) ?BRET_EXT load(1, XDATA, add(CFA_XSP16, literal(-3)))
          CFI (cfiCond73) DPL0 load(1, XDATA, add(CFA_XSP16, literal(-2)))
          CFI (cfiCond73) DPH0 load(1, XDATA, add(CFA_XSP16, literal(-1)))
          CFI (cfiCond73) CFA_SP SP+0
          CFI (cfiCond73) CFA_XSP16 add(XSP16, 22)
          CFI Block cfiPicker74 Using cfiCommon1
          CFI (cfiPicker74) NoFunction
          CFI (cfiPicker74) Picker
        MOV     ?V0 + 4,A
        MOV     A,?V0 + 1
          CFI EndBlock cfiCond72
          CFI EndBlock cfiCond73
          CFI EndBlock cfiPicker74
        REQUIRE ??Subroutine38_0
        ; // Fall through to label ??Subroutine38_0

        RSEG BANKED_CODE:CODE:NOROOT(0)
??Subroutine38_0:
          CFI Block cfiCond75 Using cfiCommon0
          CFI Function initiatorSendNwkJoinReq
          CFI Conditional ??CrossCallReturnLabel_50
          CFI R6 load(1, XDATA, add(CFA_XSP16, literal(-14)))
          CFI VB load(1, XDATA, add(CFA_XSP16, literal(-13)))
          CFI V0 load(1, XDATA, add(CFA_XSP16, literal(-12)))
          CFI V1 load(1, XDATA, add(CFA_XSP16, literal(-11)))
          CFI V2 load(1, XDATA, add(CFA_XSP16, literal(-10)))
          CFI V3 load(1, XDATA, add(CFA_XSP16, literal(-9)))
          CFI V4 load(1, XDATA, add(CFA_XSP16, literal(-8)))
          CFI V5 load(1, XDATA, add(CFA_XSP16, literal(-7)))
          CFI R7 load(1, XDATA, add(CFA_XSP16, literal(-6)))
          CFI ?RET_LOW load(1, XDATA, add(CFA_XSP16, literal(-5)))
          CFI ?RET_HIGH load(1, XDATA, add(CFA_XSP16, literal(-4)))
          CFI ?BRET_EXT load(1, XDATA, add(CFA_XSP16, literal(-3)))
          CFI DPL0 load(1, XDATA, add(CFA_XSP16, literal(-2)))
          CFI DPH0 load(1, XDATA, add(CFA_XSP16, literal(-1)))
          CFI CFA_SP SP+0
          CFI CFA_XSP16 add(XSP16, 14)
          CFI Block cfiCond76 Using cfiCommon0
          CFI (cfiCond76) Function initiatorSendNwkJoinReq
          CFI (cfiCond76) Conditional ??CrossCallReturnLabel_51
          CFI (cfiCond76) R6 load(1, XDATA, add(CFA_XSP16, literal(-14)))
          CFI (cfiCond76) VB load(1, XDATA, add(CFA_XSP16, literal(-13)))
          CFI (cfiCond76) V0 load(1, XDATA, add(CFA_XSP16, literal(-12)))
          CFI (cfiCond76) V1 load(1, XDATA, add(CFA_XSP16, literal(-11)))
          CFI (cfiCond76) V2 load(1, XDATA, add(CFA_XSP16, literal(-10)))
          CFI (cfiCond76) V3 load(1, XDATA, add(CFA_XSP16, literal(-9)))
          CFI (cfiCond76) V4 load(1, XDATA, add(CFA_XSP16, literal(-8)))
          CFI (cfiCond76) V5 load(1, XDATA, add(CFA_XSP16, literal(-7)))
          CFI (cfiCond76) R7 load(1, XDATA, add(CFA_XSP16, literal(-6)))
          CFI (cfiCond76) ?RET_LOW load(1, XDATA, add(CFA_XSP16, literal(-5)))
          CFI (cfiCond76) ?RET_HIGH load(1, XDATA, add(CFA_XSP16, literal(-4)))
          CFI (cfiCond76) ?BRET_EXT load(1, XDATA, add(CFA_XSP16, literal(-3)))
          CFI (cfiCond76) DPL0 load(1, XDATA, add(CFA_XSP16, literal(-2)))
          CFI (cfiCond76) DPH0 load(1, XDATA, add(CFA_XSP16, literal(-1)))
          CFI (cfiCond76) CFA_SP SP+0
          CFI (cfiCond76) CFA_XSP16 add(XSP16, 16)
          CFI Block cfiCond77 Using cfiCommon0
          CFI (cfiCond77) Function initiatorSendNwkStartReq
          CFI (cfiCond77) Conditional ??CrossCallReturnLabel_52
          CFI (cfiCond77) R6 load(1, XDATA, add(CFA_XSP16, literal(-20)))
          CFI (cfiCond77) VB load(1, XDATA, add(CFA_XSP16, literal(-19)))
          CFI (cfiCond77) V0 load(1, XDATA, add(CFA_XSP16, literal(-18)))
          CFI (cfiCond77) V1 load(1, XDATA, add(CFA_XSP16, literal(-17)))
          CFI (cfiCond77) V2 load(1, XDATA, add(CFA_XSP16, literal(-16)))
          CFI (cfiCond77) V3 load(1, XDATA, add(CFA_XSP16, literal(-15)))
          CFI (cfiCond77) V4 load(1, XDATA, add(CFA_XSP16, literal(-14)))
          CFI (cfiCond77) V5 load(1, XDATA, add(CFA_XSP16, literal(-13)))
          CFI (cfiCond77) V6 load(1, XDATA, add(CFA_XSP16, literal(-12)))
          CFI (cfiCond77) V7 load(1, XDATA, add(CFA_XSP16, literal(-11)))
          CFI (cfiCond77) V8 load(1, XDATA, add(CFA_XSP16, literal(-10)))
          CFI (cfiCond77) V9 load(1, XDATA, add(CFA_XSP16, literal(-9)))
          CFI (cfiCond77) V10 load(1, XDATA, add(CFA_XSP16, literal(-8)))
          CFI (cfiCond77) V11 load(1, XDATA, add(CFA_XSP16, literal(-7)))
          CFI (cfiCond77) R7 load(1, XDATA, add(CFA_XSP16, literal(-6)))
          CFI (cfiCond77) ?RET_LOW load(1, XDATA, add(CFA_XSP16, literal(-5)))
          CFI (cfiCond77) ?RET_HIGH load(1, XDATA, add(CFA_XSP16, literal(-4)))
          CFI (cfiCond77) ?BRET_EXT load(1, XDATA, add(CFA_XSP16, literal(-3)))
          CFI (cfiCond77) DPL0 load(1, XDATA, add(CFA_XSP16, literal(-2)))
          CFI (cfiCond77) DPH0 load(1, XDATA, add(CFA_XSP16, literal(-1)))
          CFI (cfiCond77) CFA_SP SP+0
          CFI (cfiCond77) CFA_XSP16 add(XSP16, 20)
          CFI Block cfiCond78 Using cfiCommon0
          CFI (cfiCond78) Function initiatorSendNwkStartReq
          CFI (cfiCond78) Conditional ??CrossCallReturnLabel_53
          CFI (cfiCond78) R6 load(1, XDATA, add(CFA_XSP16, literal(-20)))
          CFI (cfiCond78) VB load(1, XDATA, add(CFA_XSP16, literal(-19)))
          CFI (cfiCond78) V0 load(1, XDATA, add(CFA_XSP16, literal(-18)))
          CFI (cfiCond78) V1 load(1, XDATA, add(CFA_XSP16, literal(-17)))
          CFI (cfiCond78) V2 load(1, XDATA, add(CFA_XSP16, literal(-16)))
          CFI (cfiCond78) V3 load(1, XDATA, add(CFA_XSP16, literal(-15)))
          CFI (cfiCond78) V4 load(1, XDATA, add(CFA_XSP16, literal(-14)))
          CFI (cfiCond78) V5 load(1, XDATA, add(CFA_XSP16, literal(-13)))
          CFI (cfiCond78) V6 load(1, XDATA, add(CFA_XSP16, literal(-12)))
          CFI (cfiCond78) V7 load(1, XDATA, add(CFA_XSP16, literal(-11)))
          CFI (cfiCond78) V8 load(1, XDATA, add(CFA_XSP16, literal(-10)))
          CFI (cfiCond78) V9 load(1, XDATA, add(CFA_XSP16, literal(-9)))
          CFI (cfiCond78) V10 load(1, XDATA, add(CFA_XSP16, literal(-8)))
          CFI (cfiCond78) V11 load(1, XDATA, add(CFA_XSP16, literal(-7)))
          CFI (cfiCond78) R7 load(1, XDATA, add(CFA_XSP16, literal(-6)))
          CFI (cfiCond78) ?RET_LOW load(1, XDATA, add(CFA_XSP16, literal(-5)))
          CFI (cfiCond78) ?RET_HIGH load(1, XDATA, add(CFA_XSP16, literal(-4)))
          CFI (cfiCond78) ?BRET_EXT load(1, XDATA, add(CFA_XSP16, literal(-3)))
          CFI (cfiCond78) DPL0 load(1, XDATA, add(CFA_XSP16, literal(-2)))
          CFI (cfiCond78) DPH0 load(1, XDATA, add(CFA_XSP16, literal(-1)))
          CFI (cfiCond78) CFA_SP SP+0
          CFI (cfiCond78) CFA_XSP16 add(XSP16, 22)
          CFI Block cfiPicker79 Using cfiCommon1
          CFI (cfiPicker79) NoFunction
          CFI (cfiPicker79) Picker
        ADDC    A,#0x0
        MOV     ?V0 + 5,A
        MOV     R0,#?V0 + 4
        RET
          CFI EndBlock cfiCond75
          CFI EndBlock cfiCond76
          CFI EndBlock cfiCond77
          CFI EndBlock cfiCond78
          CFI EndBlock cfiPicker79

        RSEG BANKED_CODE:CODE:NOROOT(0)
?Subroutine15:
          CFI Block cfiCond80 Using cfiCommon0
          CFI Function initiatorSendNwkStartReq
          CFI Conditional ??CrossCallReturnLabel_66
          CFI R6 load(1, XDATA, add(CFA_XSP16, literal(-20)))
          CFI VB load(1, XDATA, add(CFA_XSP16, literal(-19)))
          CFI V0 load(1, XDATA, add(CFA_XSP16, literal(-18)))
          CFI V1 load(1, XDATA, add(CFA_XSP16, literal(-17)))
          CFI V2 load(1, XDATA, add(CFA_XSP16, literal(-16)))
          CFI V3 load(1, XDATA, add(CFA_XSP16, literal(-15)))
          CFI V4 load(1, XDATA, add(CFA_XSP16, literal(-14)))
          CFI V5 load(1, XDATA, add(CFA_XSP16, literal(-13)))
          CFI V6 load(1, XDATA, add(CFA_XSP16, literal(-12)))
          CFI V7 load(1, XDATA, add(CFA_XSP16, literal(-11)))
          CFI V8 load(1, XDATA, add(CFA_XSP16, literal(-10)))
          CFI V9 load(1, XDATA, add(CFA_XSP16, literal(-9)))
          CFI V10 load(1, XDATA, add(CFA_XSP16, literal(-8)))
          CFI V11 load(1, XDATA, add(CFA_XSP16, literal(-7)))
          CFI R7 load(1, XDATA, add(CFA_XSP16, literal(-6)))
          CFI ?RET_LOW load(1, XDATA, add(CFA_XSP16, literal(-5)))
          CFI ?RET_HIGH load(1, XDATA, add(CFA_XSP16, literal(-4)))
          CFI ?BRET_EXT load(1, XDATA, add(CFA_XSP16, literal(-3)))
          CFI DPL0 load(1, XDATA, add(CFA_XSP16, literal(-2)))
          CFI DPH0 load(1, XDATA, add(CFA_XSP16, literal(-1)))
          CFI CFA_SP SP+0
          CFI CFA_XSP16 add(XSP16, 20)
          CFI Block cfiCond81 Using cfiCommon0
          CFI (cfiCond81) Function initiatorSendNwkJoinReq
          CFI (cfiCond81) Conditional ??CrossCallReturnLabel_67
          CFI (cfiCond81) R6 load(1, XDATA, add(CFA_XSP16, literal(-14)))
          CFI (cfiCond81) VB load(1, XDATA, add(CFA_XSP16, literal(-13)))
          CFI (cfiCond81) V0 load(1, XDATA, add(CFA_XSP16, literal(-12)))
          CFI (cfiCond81) V1 load(1, XDATA, add(CFA_XSP16, literal(-11)))
          CFI (cfiCond81) V2 load(1, XDATA, add(CFA_XSP16, literal(-10)))
          CFI (cfiCond81) V3 load(1, XDATA, add(CFA_XSP16, literal(-9)))
          CFI (cfiCond81) V4 load(1, XDATA, add(CFA_XSP16, literal(-8)))
          CFI (cfiCond81) V5 load(1, XDATA, add(CFA_XSP16, literal(-7)))
          CFI (cfiCond81) R7 load(1, XDATA, add(CFA_XSP16, literal(-6)))
          CFI (cfiCond81) ?RET_LOW load(1, XDATA, add(CFA_XSP16, literal(-5)))
          CFI (cfiCond81) ?RET_HIGH load(1, XDATA, add(CFA_XSP16, literal(-4)))
          CFI (cfiCond81) ?BRET_EXT load(1, XDATA, add(CFA_XSP16, literal(-3)))
          CFI (cfiCond81) DPL0 load(1, XDATA, add(CFA_XSP16, literal(-2)))
          CFI (cfiCond81) DPH0 load(1, XDATA, add(CFA_XSP16, literal(-1)))
          CFI (cfiCond81) CFA_SP SP+0
          CFI (cfiCond81) CFA_XSP16 add(XSP16, 14)
          CFI Block cfiPicker82 Using cfiCommon1
          CFI (cfiPicker82) NoFunction
          CFI (cfiPicker82) Picker
        LCALL   ??Subroutine41_0 & 0xFFFF
??CrossCallReturnLabel_93:
        MOV     DPTR,#selectedTarget + 50
          CFI EndBlock cfiCond80
          CFI EndBlock cfiCond81
          CFI EndBlock cfiPicker82
        REQUIRE ??Subroutine39_0
        ; // Fall through to label ??Subroutine39_0

        RSEG BANKED_CODE:CODE:NOROOT(0)
??Subroutine39_0:
          CFI Block cfiCond83 Using cfiCommon0
          CFI Function zllInitiator_StartDevDisc
          CFI Conditional ??CrossCallReturnLabel_54
          CFI R6 load(1, XDATA, add(CFA_XSP16, literal(-16)))
          CFI VB load(1, XDATA, add(CFA_XSP16, literal(-15)))
          CFI V0 load(1, XDATA, add(CFA_XSP16, literal(-14)))
          CFI V1 load(1, XDATA, add(CFA_XSP16, literal(-13)))
          CFI V2 load(1, XDATA, add(CFA_XSP16, literal(-12)))
          CFI V3 load(1, XDATA, add(CFA_XSP16, literal(-11)))
          CFI V4 load(1, XDATA, add(CFA_XSP16, literal(-10)))
          CFI V5 load(1, XDATA, add(CFA_XSP16, literal(-9)))
          CFI V6 load(1, XDATA, add(CFA_XSP16, literal(-8)))
          CFI V7 load(1, XDATA, add(CFA_XSP16, literal(-7)))
          CFI R7 load(1, XDATA, add(CFA_XSP16, literal(-6)))
          CFI ?RET_LOW load(1, XDATA, add(CFA_XSP16, literal(-5)))
          CFI ?RET_HIGH load(1, XDATA, add(CFA_XSP16, literal(-4)))
          CFI ?BRET_EXT load(1, XDATA, add(CFA_XSP16, literal(-3)))
          CFI DPL0 load(1, XDATA, add(CFA_XSP16, literal(-2)))
          CFI DPH0 load(1, XDATA, add(CFA_XSP16, literal(-1)))
          CFI CFA_SP SP+0
          CFI CFA_XSP16 add(XSP16, 17)
          CFI Block cfiCond84 Using cfiCommon0
          CFI (cfiCond84) Function zllInitiator_StartDevDisc
          CFI (cfiCond84) Conditional ??CrossCallReturnLabel_55
          CFI (cfiCond84) R6 load(1, XDATA, add(CFA_XSP16, literal(-16)))
          CFI (cfiCond84) VB load(1, XDATA, add(CFA_XSP16, literal(-15)))
          CFI (cfiCond84) V0 load(1, XDATA, add(CFA_XSP16, literal(-14)))
          CFI (cfiCond84) V1 load(1, XDATA, add(CFA_XSP16, literal(-13)))
          CFI (cfiCond84) V2 load(1, XDATA, add(CFA_XSP16, literal(-12)))
          CFI (cfiCond84) V3 load(1, XDATA, add(CFA_XSP16, literal(-11)))
          CFI (cfiCond84) V4 load(1, XDATA, add(CFA_XSP16, literal(-10)))
          CFI (cfiCond84) V5 load(1, XDATA, add(CFA_XSP16, literal(-9)))
          CFI (cfiCond84) V6 load(1, XDATA, add(CFA_XSP16, literal(-8)))
          CFI (cfiCond84) V7 load(1, XDATA, add(CFA_XSP16, literal(-7)))
          CFI (cfiCond84) R7 load(1, XDATA, add(CFA_XSP16, literal(-6)))
          CFI (cfiCond84) ?RET_LOW load(1, XDATA, add(CFA_XSP16, literal(-5)))
          CFI (cfiCond84) ?RET_HIGH load(1, XDATA, add(CFA_XSP16, literal(-4)))
          CFI (cfiCond84) ?BRET_EXT load(1, XDATA, add(CFA_XSP16, literal(-3)))
          CFI (cfiCond84) DPL0 load(1, XDATA, add(CFA_XSP16, literal(-2)))
          CFI (cfiCond84) DPH0 load(1, XDATA, add(CFA_XSP16, literal(-1)))
          CFI (cfiCond84) CFA_SP SP+0
          CFI (cfiCond84) CFA_XSP16 add(XSP16, 17)
          CFI Block cfiCond85 Using cfiCommon0
          CFI (cfiCond85) Function zllInitiator_StartDevDisc
          CFI (cfiCond85) Conditional ??CrossCallReturnLabel_56
          CFI (cfiCond85) R6 load(1, XDATA, add(CFA_XSP16, literal(-16)))
          CFI (cfiCond85) VB load(1, XDATA, add(CFA_XSP16, literal(-15)))
          CFI (cfiCond85) V0 load(1, XDATA, add(CFA_XSP16, literal(-14)))
          CFI (cfiCond85) V1 load(1, XDATA, add(CFA_XSP16, literal(-13)))
          CFI (cfiCond85) V2 load(1, XDATA, add(CFA_XSP16, literal(-12)))
          CFI (cfiCond85) V3 load(1, XDATA, add(CFA_XSP16, literal(-11)))
          CFI (cfiCond85) V4 load(1, XDATA, add(CFA_XSP16, literal(-10)))
          CFI (cfiCond85) V5 load(1, XDATA, add(CFA_XSP16, literal(-9)))
          CFI (cfiCond85) V6 load(1, XDATA, add(CFA_XSP16, literal(-8)))
          CFI (cfiCond85) V7 load(1, XDATA, add(CFA_XSP16, literal(-7)))
          CFI (cfiCond85) R7 load(1, XDATA, add(CFA_XSP16, literal(-6)))
          CFI (cfiCond85) ?RET_LOW load(1, XDATA, add(CFA_XSP16, literal(-5)))
          CFI (cfiCond85) ?RET_HIGH load(1, XDATA, add(CFA_XSP16, literal(-4)))
          CFI (cfiCond85) ?BRET_EXT load(1, XDATA, add(CFA_XSP16, literal(-3)))
          CFI (cfiCond85) DPL0 load(1, XDATA, add(CFA_XSP16, literal(-2)))
          CFI (cfiCond85) DPH0 load(1, XDATA, add(CFA_XSP16, literal(-1)))
          CFI (cfiCond85) CFA_SP SP+0
          CFI (cfiCond85) CFA_XSP16 add(XSP16, 17)
          CFI Block cfiCond86 Using cfiCommon0
          CFI (cfiCond86) Function zllInitiator_event_loop
          CFI (cfiCond86) Conditional ??CrossCallReturnLabel_57
          CFI (cfiCond86) R6 load(1, XDATA, add(CFA_XSP16, literal(-16)))
          CFI (cfiCond86) VB load(1, XDATA, add(CFA_XSP16, literal(-15)))
          CFI (cfiCond86) V0 load(1, XDATA, add(CFA_XSP16, literal(-14)))
          CFI (cfiCond86) V1 load(1, XDATA, add(CFA_XSP16, literal(-13)))
          CFI (cfiCond86) V2 load(1, XDATA, add(CFA_XSP16, literal(-12)))
          CFI (cfiCond86) V3 load(1, XDATA, add(CFA_XSP16, literal(-11)))
          CFI (cfiCond86) V4 load(1, XDATA, add(CFA_XSP16, literal(-10)))
          CFI (cfiCond86) V5 load(1, XDATA, add(CFA_XSP16, literal(-9)))
          CFI (cfiCond86) V6 load(1, XDATA, add(CFA_XSP16, literal(-8)))
          CFI (cfiCond86) V7 load(1, XDATA, add(CFA_XSP16, literal(-7)))
          CFI (cfiCond86) R7 load(1, XDATA, add(CFA_XSP16, literal(-6)))
          CFI (cfiCond86) ?RET_LOW load(1, XDATA, add(CFA_XSP16, literal(-5)))
          CFI (cfiCond86) ?RET_HIGH load(1, XDATA, add(CFA_XSP16, literal(-4)))
          CFI (cfiCond86) ?BRET_EXT load(1, XDATA, add(CFA_XSP16, literal(-3)))
          CFI (cfiCond86) DPL0 load(1, XDATA, add(CFA_XSP16, literal(-2)))
          CFI (cfiCond86) DPH0 load(1, XDATA, add(CFA_XSP16, literal(-1)))
          CFI (cfiCond86) CFA_SP SP+0
          CFI (cfiCond86) CFA_XSP16 add(XSP16, 30)
          CFI Block cfiCond87 Using cfiCommon0
          CFI (cfiCond87) Function initiatorSendScanReq
          CFI (cfiCond87) Conditional ??CrossCallReturnLabel_58
          CFI (cfiCond87) R6 load(1, XDATA, add(CFA_XSP16, literal(-12)))
          CFI (cfiCond87) VB load(1, XDATA, add(CFA_XSP16, literal(-11)))
          CFI (cfiCond87) V0 load(1, XDATA, add(CFA_XSP16, literal(-10)))
          CFI (cfiCond87) V1 load(1, XDATA, add(CFA_XSP16, literal(-9)))
          CFI (cfiCond87) V2 load(1, XDATA, add(CFA_XSP16, literal(-8)))
          CFI (cfiCond87) V3 load(1, XDATA, add(CFA_XSP16, literal(-7)))
          CFI (cfiCond87) R7 load(1, XDATA, add(CFA_XSP16, literal(-6)))
          CFI (cfiCond87) ?RET_LOW load(1, XDATA, add(CFA_XSP16, literal(-5)))
          CFI (cfiCond87) ?RET_HIGH load(1, XDATA, add(CFA_XSP16, literal(-4)))
          CFI (cfiCond87) ?BRET_EXT load(1, XDATA, add(CFA_XSP16, literal(-3)))
          CFI (cfiCond87) DPL0 load(1, XDATA, add(CFA_XSP16, literal(-2)))
          CFI (cfiCond87) DPH0 load(1, XDATA, add(CFA_XSP16, literal(-1)))
          CFI (cfiCond87) CFA_SP SP+0
          CFI (cfiCond87) CFA_XSP16 add(XSP16, 32)
          CFI Block cfiCond88 Using cfiCommon0
          CFI (cfiCond88) Function initiatorSendScanReq
          CFI (cfiCond88) Conditional ??CrossCallReturnLabel_59
          CFI (cfiCond88) R6 load(1, XDATA, add(CFA_XSP16, literal(-12)))
          CFI (cfiCond88) VB load(1, XDATA, add(CFA_XSP16, literal(-11)))
          CFI (cfiCond88) V0 load(1, XDATA, add(CFA_XSP16, literal(-10)))
          CFI (cfiCond88) V1 load(1, XDATA, add(CFA_XSP16, literal(-9)))
          CFI (cfiCond88) V2 load(1, XDATA, add(CFA_XSP16, literal(-8)))
          CFI (cfiCond88) V3 load(1, XDATA, add(CFA_XSP16, literal(-7)))
          CFI (cfiCond88) R7 load(1, XDATA, add(CFA_XSP16, literal(-6)))
          CFI (cfiCond88) ?RET_LOW load(1, XDATA, add(CFA_XSP16, literal(-5)))
          CFI (cfiCond88) ?RET_HIGH load(1, XDATA, add(CFA_XSP16, literal(-4)))
          CFI (cfiCond88) ?BRET_EXT load(1, XDATA, add(CFA_XSP16, literal(-3)))
          CFI (cfiCond88) DPL0 load(1, XDATA, add(CFA_XSP16, literal(-2)))
          CFI (cfiCond88) DPH0 load(1, XDATA, add(CFA_XSP16, literal(-1)))
          CFI (cfiCond88) CFA_SP SP+0
          CFI (cfiCond88) CFA_XSP16 add(XSP16, 32)
          CFI Block cfiCond89 Using cfiCommon0
          CFI (cfiCond89) Function initiatorSendNwkStartReq
          CFI (cfiCond89) Conditional ??CrossCallReturnLabel_60
          CFI (cfiCond89) R6 load(1, XDATA, add(CFA_XSP16, literal(-20)))
          CFI (cfiCond89) VB load(1, XDATA, add(CFA_XSP16, literal(-19)))
          CFI (cfiCond89) V0 load(1, XDATA, add(CFA_XSP16, literal(-18)))
          CFI (cfiCond89) V1 load(1, XDATA, add(CFA_XSP16, literal(-17)))
          CFI (cfiCond89) V2 load(1, XDATA, add(CFA_XSP16, literal(-16)))
          CFI (cfiCond89) V3 load(1, XDATA, add(CFA_XSP16, literal(-15)))
          CFI (cfiCond89) V4 load(1, XDATA, add(CFA_XSP16, literal(-14)))
          CFI (cfiCond89) V5 load(1, XDATA, add(CFA_XSP16, literal(-13)))
          CFI (cfiCond89) V6 load(1, XDATA, add(CFA_XSP16, literal(-12)))
          CFI (cfiCond89) V7 load(1, XDATA, add(CFA_XSP16, literal(-11)))
          CFI (cfiCond89) V8 load(1, XDATA, add(CFA_XSP16, literal(-10)))
          CFI (cfiCond89) V9 load(1, XDATA, add(CFA_XSP16, literal(-9)))
          CFI (cfiCond89) V10 load(1, XDATA, add(CFA_XSP16, literal(-8)))
          CFI (cfiCond89) V11 load(1, XDATA, add(CFA_XSP16, literal(-7)))
          CFI (cfiCond89) R7 load(1, XDATA, add(CFA_XSP16, literal(-6)))
          CFI (cfiCond89) ?RET_LOW load(1, XDATA, add(CFA_XSP16, literal(-5)))
          CFI (cfiCond89) ?RET_HIGH load(1, XDATA, add(CFA_XSP16, literal(-4)))
          CFI (cfiCond89) ?BRET_EXT load(1, XDATA, add(CFA_XSP16, literal(-3)))
          CFI (cfiCond89) DPL0 load(1, XDATA, add(CFA_XSP16, literal(-2)))
          CFI (cfiCond89) DPH0 load(1, XDATA, add(CFA_XSP16, literal(-1)))
          CFI (cfiCond89) CFA_SP SP+0
          CFI (cfiCond89) CFA_XSP16 add(XSP16, 20)
          CFI Block cfiCond90 Using cfiCommon0
          CFI (cfiCond90) Function initiatorSendNwkJoinReq
          CFI (cfiCond90) Conditional ??CrossCallReturnLabel_61
          CFI (cfiCond90) R6 load(1, XDATA, add(CFA_XSP16, literal(-14)))
          CFI (cfiCond90) VB load(1, XDATA, add(CFA_XSP16, literal(-13)))
          CFI (cfiCond90) V0 load(1, XDATA, add(CFA_XSP16, literal(-12)))
          CFI (cfiCond90) V1 load(1, XDATA, add(CFA_XSP16, literal(-11)))
          CFI (cfiCond90) V2 load(1, XDATA, add(CFA_XSP16, literal(-10)))
          CFI (cfiCond90) V3 load(1, XDATA, add(CFA_XSP16, literal(-9)))
          CFI (cfiCond90) V4 load(1, XDATA, add(CFA_XSP16, literal(-8)))
          CFI (cfiCond90) V5 load(1, XDATA, add(CFA_XSP16, literal(-7)))
          CFI (cfiCond90) R7 load(1, XDATA, add(CFA_XSP16, literal(-6)))
          CFI (cfiCond90) ?RET_LOW load(1, XDATA, add(CFA_XSP16, literal(-5)))
          CFI (cfiCond90) ?RET_HIGH load(1, XDATA, add(CFA_XSP16, literal(-4)))
          CFI (cfiCond90) ?BRET_EXT load(1, XDATA, add(CFA_XSP16, literal(-3)))
          CFI (cfiCond90) DPL0 load(1, XDATA, add(CFA_XSP16, literal(-2)))
          CFI (cfiCond90) DPH0 load(1, XDATA, add(CFA_XSP16, literal(-1)))
          CFI (cfiCond90) CFA_SP SP+0
          CFI (cfiCond90) CFA_XSP16 add(XSP16, 14)
          CFI Block cfiCond91 Using cfiCommon0
          CFI (cfiCond91) Function initiatorReJoinNwk
          CFI (cfiCond91) Conditional ??CrossCallReturnLabel_62
          CFI (cfiCond91) R6 load(1, XDATA, add(CFA_XSP16, literal(-9)))
          CFI (cfiCond91) VB load(1, XDATA, add(CFA_XSP16, literal(-8)))
          CFI (cfiCond91) V0 load(1, XDATA, add(CFA_XSP16, literal(-7)))
          CFI (cfiCond91) R7 load(1, XDATA, add(CFA_XSP16, literal(-6)))
          CFI (cfiCond91) ?RET_LOW load(1, XDATA, add(CFA_XSP16, literal(-5)))
          CFI (cfiCond91) ?RET_HIGH load(1, XDATA, add(CFA_XSP16, literal(-4)))
          CFI (cfiCond91) ?BRET_EXT load(1, XDATA, add(CFA_XSP16, literal(-3)))
          CFI (cfiCond91) DPL0 load(1, XDATA, add(CFA_XSP16, literal(-2)))
          CFI (cfiCond91) DPH0 load(1, XDATA, add(CFA_XSP16, literal(-1)))
          CFI (cfiCond91) CFA_SP SP+0
          CFI (cfiCond91) CFA_XSP16 add(XSP16, 9)
          CFI Block cfiCond92 Using cfiCommon0
          CFI (cfiCond92) Function zllInitiator_SendEPInfo
          CFI (cfiCond92) Conditional ??CrossCallReturnLabel_63
          CFI (cfiCond92) R6 load(1, XDATA, add(CFA_XSP16, literal(-11)))
          CFI (cfiCond92) VB load(1, XDATA, add(CFA_XSP16, literal(-10)))
          CFI (cfiCond92) V0 load(1, XDATA, add(CFA_XSP16, literal(-9)))
          CFI (cfiCond92) V1 load(1, XDATA, add(CFA_XSP16, literal(-8)))
          CFI (cfiCond92) V2 load(1, XDATA, add(CFA_XSP16, literal(-7)))
          CFI (cfiCond92) R7 load(1, XDATA, add(CFA_XSP16, literal(-6)))
          CFI (cfiCond92) ?RET_LOW load(1, XDATA, add(CFA_XSP16, literal(-5)))
          CFI (cfiCond92) ?RET_HIGH load(1, XDATA, add(CFA_XSP16, literal(-4)))
          CFI (cfiCond92) ?BRET_EXT load(1, XDATA, add(CFA_XSP16, literal(-3)))
          CFI (cfiCond92) DPL0 load(1, XDATA, add(CFA_XSP16, literal(-2)))
          CFI (cfiCond92) DPH0 load(1, XDATA, add(CFA_XSP16, literal(-1)))
          CFI (cfiCond92) CFA_SP SP+0
          CFI (cfiCond92) CFA_XSP16 add(XSP16, 34)
          CFI Block cfiCond93 Using cfiCommon0
          CFI (cfiCond93) Function zllInitiator_SendEPInfo
          CFI (cfiCond93) Conditional ??CrossCallReturnLabel_64
          CFI (cfiCond93) R6 load(1, XDATA, add(CFA_XSP16, literal(-11)))
          CFI (cfiCond93) VB load(1, XDATA, add(CFA_XSP16, literal(-10)))
          CFI (cfiCond93) V0 load(1, XDATA, add(CFA_XSP16, literal(-9)))
          CFI (cfiCond93) V1 load(1, XDATA, add(CFA_XSP16, literal(-8)))
          CFI (cfiCond93) V2 load(1, XDATA, add(CFA_XSP16, literal(-7)))
          CFI (cfiCond93) R7 load(1, XDATA, add(CFA_XSP16, literal(-6)))
          CFI (cfiCond93) ?RET_LOW load(1, XDATA, add(CFA_XSP16, literal(-5)))
          CFI (cfiCond93) ?RET_HIGH load(1, XDATA, add(CFA_XSP16, literal(-4)))
          CFI (cfiCond93) ?BRET_EXT load(1, XDATA, add(CFA_XSP16, literal(-3)))
          CFI (cfiCond93) DPL0 load(1, XDATA, add(CFA_XSP16, literal(-2)))
          CFI (cfiCond93) DPH0 load(1, XDATA, add(CFA_XSP16, literal(-1)))
          CFI (cfiCond93) CFA_SP SP+0
          CFI (cfiCond93) CFA_XSP16 add(XSP16, 34)
          CFI Block cfiCond94 Using cfiCommon0
          CFI (cfiCond94) Function zllInitiator_SendEPInfo
          CFI (cfiCond94) Conditional ??CrossCallReturnLabel_65
          CFI (cfiCond94) R6 load(1, XDATA, add(CFA_XSP16, literal(-11)))
          CFI (cfiCond94) VB load(1, XDATA, add(CFA_XSP16, literal(-10)))
          CFI (cfiCond94) V0 load(1, XDATA, add(CFA_XSP16, literal(-9)))
          CFI (cfiCond94) V1 load(1, XDATA, add(CFA_XSP16, literal(-8)))
          CFI (cfiCond94) V2 load(1, XDATA, add(CFA_XSP16, literal(-7)))
          CFI (cfiCond94) R7 load(1, XDATA, add(CFA_XSP16, literal(-6)))
          CFI (cfiCond94) ?RET_LOW load(1, XDATA, add(CFA_XSP16, literal(-5)))
          CFI (cfiCond94) ?RET_HIGH load(1, XDATA, add(CFA_XSP16, literal(-4)))
          CFI (cfiCond94) ?BRET_EXT load(1, XDATA, add(CFA_XSP16, literal(-3)))
          CFI (cfiCond94) DPL0 load(1, XDATA, add(CFA_XSP16, literal(-2)))
          CFI (cfiCond94) DPH0 load(1, XDATA, add(CFA_XSP16, literal(-1)))
          CFI (cfiCond94) CFA_SP SP+0
          CFI (cfiCond94) CFA_XSP16 add(XSP16, 34)
          CFI Block cfiCond95 Using cfiCommon0
          CFI (cfiCond95) Function initiatorSendNwkStartReq
          CFI (cfiCond95) Conditional ??CrossCallReturnLabel_66
          CFI (cfiCond95) R6 load(1, XDATA, add(CFA_XSP16, literal(-20)))
          CFI (cfiCond95) VB load(1, XDATA, add(CFA_XSP16, literal(-19)))
          CFI (cfiCond95) V0 load(1, XDATA, add(CFA_XSP16, literal(-18)))
          CFI (cfiCond95) V1 load(1, XDATA, add(CFA_XSP16, literal(-17)))
          CFI (cfiCond95) V2 load(1, XDATA, add(CFA_XSP16, literal(-16)))
          CFI (cfiCond95) V3 load(1, XDATA, add(CFA_XSP16, literal(-15)))
          CFI (cfiCond95) V4 load(1, XDATA, add(CFA_XSP16, literal(-14)))
          CFI (cfiCond95) V5 load(1, XDATA, add(CFA_XSP16, literal(-13)))
          CFI (cfiCond95) V6 load(1, XDATA, add(CFA_XSP16, literal(-12)))
          CFI (cfiCond95) V7 load(1, XDATA, add(CFA_XSP16, literal(-11)))
          CFI (cfiCond95) V8 load(1, XDATA, add(CFA_XSP16, literal(-10)))
          CFI (cfiCond95) V9 load(1, XDATA, add(CFA_XSP16, literal(-9)))
          CFI (cfiCond95) V10 load(1, XDATA, add(CFA_XSP16, literal(-8)))
          CFI (cfiCond95) V11 load(1, XDATA, add(CFA_XSP16, literal(-7)))
          CFI (cfiCond95) R7 load(1, XDATA, add(CFA_XSP16, literal(-6)))
          CFI (cfiCond95) ?RET_LOW load(1, XDATA, add(CFA_XSP16, literal(-5)))
          CFI (cfiCond95) ?RET_HIGH load(1, XDATA, add(CFA_XSP16, literal(-4)))
          CFI (cfiCond95) ?BRET_EXT load(1, XDATA, add(CFA_XSP16, literal(-3)))
          CFI (cfiCond95) DPL0 load(1, XDATA, add(CFA_XSP16, literal(-2)))
          CFI (cfiCond95) DPH0 load(1, XDATA, add(CFA_XSP16, literal(-1)))
          CFI (cfiCond95) CFA_SP SP+0
          CFI (cfiCond95) CFA_XSP16 add(XSP16, 20)
          CFI Block cfiCond96 Using cfiCommon0
          CFI (cfiCond96) Function initiatorSendNwkJoinReq
          CFI (cfiCond96) Conditional ??CrossCallReturnLabel_67
          CFI (cfiCond96) R6 load(1, XDATA, add(CFA_XSP16, literal(-14)))
          CFI (cfiCond96) VB load(1, XDATA, add(CFA_XSP16, literal(-13)))
          CFI (cfiCond96) V0 load(1, XDATA, add(CFA_XSP16, literal(-12)))
          CFI (cfiCond96) V1 load(1, XDATA, add(CFA_XSP16, literal(-11)))
          CFI (cfiCond96) V2 load(1, XDATA, add(CFA_XSP16, literal(-10)))
          CFI (cfiCond96) V3 load(1, XDATA, add(CFA_XSP16, literal(-9)))
          CFI (cfiCond96) V4 load(1, XDATA, add(CFA_XSP16, literal(-8)))
          CFI (cfiCond96) V5 load(1, XDATA, add(CFA_XSP16, literal(-7)))
          CFI (cfiCond96) R7 load(1, XDATA, add(CFA_XSP16, literal(-6)))
          CFI (cfiCond96) ?RET_LOW load(1, XDATA, add(CFA_XSP16, literal(-5)))
          CFI (cfiCond96) ?RET_HIGH load(1, XDATA, add(CFA_XSP16, literal(-4)))
          CFI (cfiCond96) ?BRET_EXT load(1, XDATA, add(CFA_XSP16, literal(-3)))
          CFI (cfiCond96) DPL0 load(1, XDATA, add(CFA_XSP16, literal(-2)))
          CFI (cfiCond96) DPH0 load(1, XDATA, add(CFA_XSP16, literal(-1)))
          CFI (cfiCond96) CFA_SP SP+0
          CFI (cfiCond96) CFA_XSP16 add(XSP16, 14)
          CFI Block cfiPicker97 Using cfiCommon1
          CFI (cfiPicker97) NoFunction
          CFI (cfiPicker97) Picker
        MOV     A,R0
        MOVX    @DPTR,A
        INC     DPTR
        MOV     A,R1
        MOVX    @DPTR,A
        RET
          CFI EndBlock cfiCond83
          CFI EndBlock cfiCond84
          CFI EndBlock cfiCond85
          CFI EndBlock cfiCond86
          CFI EndBlock cfiCond87
          CFI EndBlock cfiCond88
          CFI EndBlock cfiCond89
          CFI EndBlock cfiCond90
          CFI EndBlock cfiCond91
          CFI EndBlock cfiCond92
          CFI EndBlock cfiCond93
          CFI EndBlock cfiCond94
          CFI EndBlock cfiCond95
          CFI EndBlock cfiCond96
          CFI EndBlock cfiPicker97
// 1317 
// 1318 /*********************************************************************
// 1319  * @fn      initiatorSendNwkJoinReq
// 1320  *
// 1321  * @brief   Send out a Network Join Router or End Device Request command.
// 1322  *
// 1323  * @param   pRsp - received Scan Response
// 1324  *
// 1325  * @return  ZStatus_t
// 1326  */

        RSEG BANKED_CODE:CODE:NOROOT(0)
// 1327 static ZStatus_t initiatorSendNwkJoinReq( zclLLScanRsp_t *pRsp )
initiatorSendNwkJoinReq:
          CFI Block cfiBlock98 Using cfiCommon0
          CFI Function initiatorSendNwkJoinReq
        CODE
// 1328 {
        FUNCALL initiatorSendNwkJoinReq, osal_mem_alloc
        LOCFRAME ISTACK, 0, STACK
        LOCFRAME PSTACK, 0, STACK
        LOCFRAME XSTACK, 14, STACK
        LOCFRAME IOVERLAY, 0, STATIC
        LOCFRAME DOVERLAY, 0, STATIC
        ARGFRAME ISTACK, 0, STACK
        ARGFRAME PSTACK, 0, STACK
        ARGFRAME XSTACK, 14, STACK
        ARGFRAME IOVERLAY, 0, STATIC
        ARGFRAME DOVERLAY, 0, STATIC
        FUNCALL initiatorSendNwkJoinReq, osal_memset
        LOCFRAME ISTACK, 0, STACK
        LOCFRAME PSTACK, 0, STACK
        LOCFRAME XSTACK, 14, STACK
        LOCFRAME IOVERLAY, 0, STATIC
        LOCFRAME DOVERLAY, 0, STATIC
        ARGFRAME ISTACK, 0, STACK
        ARGFRAME PSTACK, 0, STACK
        ARGFRAME XSTACK, 14, STACK
        ARGFRAME IOVERLAY, 0, STATIC
        ARGFRAME DOVERLAY, 0, STATIC
        FUNCALL initiatorSendNwkJoinReq, zll_EncryptNwkKey
        LOCFRAME ISTACK, 0, STACK
        LOCFRAME PSTACK, 0, STACK
        LOCFRAME XSTACK, 22, STACK
        LOCFRAME IOVERLAY, 0, STATIC
        LOCFRAME DOVERLAY, 0, STATIC
        ARGFRAME ISTACK, 0, STACK
        ARGFRAME PSTACK, 0, STACK
        ARGFRAME XSTACK, 22, STACK
        ARGFRAME IOVERLAY, 0, STATIC
        ARGFRAME DOVERLAY, 0, STATIC
        FUNCALL initiatorSendNwkJoinReq, zll_PopNwkAddress
        LOCFRAME ISTACK, 0, STACK
        LOCFRAME PSTACK, 0, STACK
        LOCFRAME XSTACK, 14, STACK
        LOCFRAME IOVERLAY, 0, STATIC
        LOCFRAME DOVERLAY, 0, STATIC
        ARGFRAME ISTACK, 0, STACK
        ARGFRAME PSTACK, 0, STACK
        ARGFRAME XSTACK, 14, STACK
        ARGFRAME IOVERLAY, 0, STATIC
        ARGFRAME DOVERLAY, 0, STATIC
        FUNCALL initiatorSendNwkJoinReq, osal_rand
        LOCFRAME ISTACK, 0, STACK
        LOCFRAME PSTACK, 0, STACK
        LOCFRAME XSTACK, 14, STACK
        LOCFRAME IOVERLAY, 0, STATIC
        LOCFRAME DOVERLAY, 0, STATIC
        ARGFRAME ISTACK, 0, STACK
        ARGFRAME PSTACK, 0, STACK
        ARGFRAME XSTACK, 14, STACK
        ARGFRAME IOVERLAY, 0, STATIC
        ARGFRAME DOVERLAY, 0, STATIC
        FUNCALL initiatorSendNwkJoinReq, zll_PopGrpIDRange
        LOCFRAME ISTACK, 0, STACK
        LOCFRAME PSTACK, 0, STACK
        LOCFRAME XSTACK, 14, STACK
        LOCFRAME IOVERLAY, 0, STATIC
        LOCFRAME DOVERLAY, 0, STATIC
        ARGFRAME ISTACK, 0, STACK
        ARGFRAME PSTACK, 0, STACK
        ARGFRAME XSTACK, 14, STACK
        ARGFRAME IOVERLAY, 0, STATIC
        ARGFRAME DOVERLAY, 0, STATIC
        FUNCALL initiatorSendNwkJoinReq, zll_SplitFreeRanges
        LOCFRAME ISTACK, 0, STACK
        LOCFRAME PSTACK, 0, STACK
        LOCFRAME XSTACK, 18, STACK
        LOCFRAME IOVERLAY, 0, STATIC
        LOCFRAME DOVERLAY, 0, STATIC
        ARGFRAME ISTACK, 0, STACK
        ARGFRAME PSTACK, 0, STACK
        ARGFRAME XSTACK, 18, STACK
        ARGFRAME IOVERLAY, 0, STATIC
        ARGFRAME DOVERLAY, 0, STATIC
        FUNCALL initiatorSendNwkJoinReq, sAddrExtCpy
        LOCFRAME ISTACK, 0, STACK
        LOCFRAME PSTACK, 0, STACK
        LOCFRAME XSTACK, 14, STACK
        LOCFRAME IOVERLAY, 0, STATIC
        LOCFRAME DOVERLAY, 0, STATIC
        ARGFRAME ISTACK, 0, STACK
        ARGFRAME PSTACK, 0, STACK
        ARGFRAME XSTACK, 14, STACK
        ARGFRAME IOVERLAY, 0, STATIC
        ARGFRAME DOVERLAY, 0, STATIC
        FUNCALL initiatorSendNwkJoinReq, zclLL_Send_NwkJoinReq
        LOCFRAME ISTACK, 0, STACK
        LOCFRAME PSTACK, 0, STACK
        LOCFRAME XSTACK, 16, STACK
        LOCFRAME IOVERLAY, 0, STATIC
        LOCFRAME DOVERLAY, 0, STATIC
        ARGFRAME ISTACK, 0, STACK
        ARGFRAME PSTACK, 0, STACK
        ARGFRAME XSTACK, 16, STACK
        ARGFRAME IOVERLAY, 0, STATIC
        ARGFRAME DOVERLAY, 0, STATIC
        FUNCALL initiatorSendNwkJoinReq, zclLL_Send_NwkJoinReq
        LOCFRAME ISTACK, 0, STACK
        LOCFRAME PSTACK, 0, STACK
        LOCFRAME XSTACK, 16, STACK
        LOCFRAME IOVERLAY, 0, STATIC
        LOCFRAME DOVERLAY, 0, STATIC
        ARGFRAME ISTACK, 0, STACK
        ARGFRAME PSTACK, 0, STACK
        ARGFRAME XSTACK, 16, STACK
        ARGFRAME IOVERLAY, 0, STATIC
        ARGFRAME DOVERLAY, 0, STATIC
        FUNCALL initiatorSendNwkJoinReq, osal_start_timerEx
        LOCFRAME ISTACK, 0, STACK
        LOCFRAME PSTACK, 0, STACK
        LOCFRAME XSTACK, 18, STACK
        LOCFRAME IOVERLAY, 0, STATIC
        LOCFRAME DOVERLAY, 0, STATIC
        ARGFRAME ISTACK, 0, STACK
        ARGFRAME PSTACK, 0, STACK
        ARGFRAME XSTACK, 18, STACK
        ARGFRAME IOVERLAY, 0, STATIC
        ARGFRAME DOVERLAY, 0, STATIC
        FUNCALL initiatorSendNwkJoinReq, osal_mem_free
        LOCFRAME ISTACK, 0, STACK
        LOCFRAME PSTACK, 0, STACK
        LOCFRAME XSTACK, 14, STACK
        LOCFRAME IOVERLAY, 0, STATIC
        LOCFRAME DOVERLAY, 0, STATIC
        ARGFRAME ISTACK, 0, STACK
        ARGFRAME PSTACK, 0, STACK
        ARGFRAME XSTACK, 14, STACK
        ARGFRAME IOVERLAY, 0, STATIC
        ARGFRAME DOVERLAY, 0, STATIC
        MOV     A,#-0xe
        LCALL   ?BANKED_ENTER_XDATA
          CFI DPH0 load(1, XDATA, add(CFA_XSP16, literal(-1)))
          CFI DPL0 load(1, XDATA, add(CFA_XSP16, literal(-2)))
          CFI ?BRET_EXT load(1, XDATA, add(CFA_XSP16, literal(-3)))
          CFI ?RET_HIGH load(1, XDATA, add(CFA_XSP16, literal(-4)))
          CFI ?RET_LOW load(1, XDATA, add(CFA_XSP16, literal(-5)))
          CFI R7 load(1, XDATA, add(CFA_XSP16, literal(-6)))
          CFI V5 load(1, XDATA, add(CFA_XSP16, literal(-7)))
          CFI V4 load(1, XDATA, add(CFA_XSP16, literal(-8)))
          CFI V3 load(1, XDATA, add(CFA_XSP16, literal(-9)))
          CFI V2 load(1, XDATA, add(CFA_XSP16, literal(-10)))
          CFI V1 load(1, XDATA, add(CFA_XSP16, literal(-11)))
          CFI V0 load(1, XDATA, add(CFA_XSP16, literal(-12)))
          CFI VB load(1, XDATA, add(CFA_XSP16, literal(-13)))
          CFI R6 load(1, XDATA, add(CFA_XSP16, literal(-14)))
          CFI CFA_SP SP+0
          CFI CFA_XSP16 add(XSP16, 14)
        ; Saved register size: 14
        ; Auto size: 0
        MOV     ?V0 + 2,R2
        MOV     ?V0 + 3,R3
// 1329   zclLLNwkJoinReq_t *pReq;
// 1330   ZStatus_t status;
// 1331 
// 1332   pReq = (zclLLNwkJoinReq_t *)osal_mem_alloc( sizeof( zclLLNwkJoinReq_t ) );
        ; Setup parameters for call to function osal_mem_alloc
        MOV     R2,#0x2f
        MOV     R3,#0x0
        LCALL   ??osal_mem_alloc?relay
        MOV     ?V0 + 0,R2
        MOV     ?V0 + 1,R3
// 1333   if ( pReq != NULL )
        MOV     A,R2
        ORL     A,?V0 + 1
        JNZ     $+5
        LJMP    ??initiatorSendNwkJoinReq_0 & 0xFFFF
// 1334   {
// 1335     uint16 i;
// 1336     zclLLNwkParams_t *pParams = &(pReq->nwkParams);
        MOV     A,R2
        ADD     A,#0x4
        MOV     R6,A
        MOV     A,R3
        ADDC    A,#0x0
        MOV     R7,A
// 1337 
// 1338     osal_memset( pReq, 0, sizeof( zclLLNwkJoinReq_t ) );
        ; Setup parameters for call to function osal_memset
        MOV     R4,#0x2f
        MOV     R5,#0x0
        MOV     R1,#0x0
        LCALL   ??osal_memset?relay
// 1339 
// 1340     // Build the request
// 1341     pReq->transID = selectedTarget.scanRsp.transID;
        MOV     DPTR,#selectedTarget
        LCALL   ?XLOAD_R2345
        MOV     DPL,?V0 + 0
        MOV     DPH,?V0 + 1
        LCALL   ?XSTORE_R2345
// 1342 
// 1343     // Find out key index (prefer highest)
// 1344     for ( i = 15; i > 0; i-- )
        MOV     R2,#0xf
        MOV     R3,#0x0
// 1345     {
// 1346       if ( ( (uint16)1 << i ) & pRsp->keyBitmask )
??initiatorSendNwkJoinReq_1:
        MOV     ?V0 + 4,#0x1
        MOV     ?V0 + 5,#0x0
        MOV     A,R2
        MOV     R0,#?V0 + 4
        LCALL   ?S_SHL
        MOV     DPL,?V0 + 2
        MOV     DPH,?V0 + 3
        INC     DPTR
        INC     DPTR
        INC     DPTR
        INC     DPTR
        INC     DPTR
        INC     DPTR
        INC     DPTR
        INC     DPTR
        INC     DPTR
        MOVX    A,@DPTR
        ANL     A,?V0 + 4
        MOV     R0,A
        INC     DPTR
        MOVX    A,@DPTR
        ANL     A,?V0 + 5
        MOV     R1,A
        MOV     A,R0
        ORL     A,R1
        JNZ     ??initiatorSendNwkJoinReq_2
// 1347       {
// 1348         break;
// 1349       }
// 1350     }
        MOV     A,R2
        ADD     A,#-0x1
        DEC     R2
        MOV     A,R3
        ADDC    A,#-0x1
        MOV     R3,A
        MOV     A,R2
        ORL     A,R3
        JNZ     ??initiatorSendNwkJoinReq_1
// 1351     pParams->keyIndex = i;
??initiatorSendNwkJoinReq_2:
        MOV     A,R2
        MOV     DPL,R6
        MOV     DPH,R7
        INC     DPTR
        INC     DPTR
        INC     DPTR
        INC     DPTR
        INC     DPTR
        INC     DPTR
        INC     DPTR
        INC     DPTR
        MOVX    @DPTR,A
// 1352 
// 1353     // Copy in the encrypted network key
// 1354     zll_EncryptNwkKey( pParams->nwkKey, i, pRsp->transID, pRsp->responseID );
        ; Setup parameters for call to function zll_EncryptNwkKey
        MOV     A,?V0 + 2
        ADD     A,#0xb
        MOV     DPL,A
        MOV     A,?V0 + 3
        LCALL   ??Subroutine36_0 & 0xFFFF
??CrossCallReturnLabel_38:
        LCALL   ?PUSH_XSTACK8_X_FOUR
          CFI CFA_XSP16 add(XSP16, 18)
        MOV     DPL,?V0 + 2
        MOV     DPH,?V0 + 3
        LCALL   ?PUSH_XSTACK8_X_FOUR
          CFI CFA_XSP16 add(XSP16, 22)
        MOV     A,R2
        MOV     R1,A
        MOV     A,R6
        ADD     A,#0x9
        MOV     R2,A
        MOV     A,R7
        ADDC    A,#0x0
        MOV     R3,A
        LCALL   ??zll_EncryptNwkKey?relay
        MOV     A,#0x8
        LCALL   ?DEALLOC_XSTACK8
          CFI CFA_XSP16 add(XSP16, 14)
// 1355 
// 1356     pParams->nwkAddr = zll_PopNwkAddress();
        ; Setup parameters for call to function zll_PopNwkAddress
        LCALL   ??zll_PopNwkAddress?relay
        MOV     A,R6
        ADD     A,#0x1c
        MOV     R0,A
        MOV     A,R7
        ADDC    A,#0x0
        MOV     R1,A
        MOV     ?V0 + 4,R0
        MOV     ?V0 + 5,R1
        MOV     DPL,R0
        MOV     DPH,A
        MOV     A,R2
        MOVX    @DPTR,A
        INC     DPTR
        MOV     A,R3
        MOVX    @DPTR,A
// 1357     if ( pParams->nwkAddr == 0 )
        MOV     A,R2
        ORL     A,R3
        JNZ     ??initiatorSendNwkJoinReq_3
// 1358     {
// 1359       pParams->nwkAddr = osal_rand();
        ; Setup parameters for call to function osal_rand
        LCALL   ??osal_rand?relay
        MOV     DPL,?V0 + 4
        MOV     DPH,?V0 + 5
        MOV     A,R2
        MOVX    @DPTR,A
        INC     DPTR
        MOV     A,R3
        MOVX    @DPTR,A
// 1360     }
// 1361     // update address for app notification
// 1362     selectedTarget.newNwkAddr = pParams->nwkAddr;
??initiatorSendNwkJoinReq_3:
        MOV     DPL,?V0 + 4
        MOV     DPH,?V0 + 5
        LCALL   ?Subroutine15 & 0xFFFF
// 1363 
// 1364     // Set group ID range
// 1365     if ( pRsp->totalGrpIDs > 0 )
??CrossCallReturnLabel_67:
        MOV     A,?V0 + 2
        ADD     A,#0x1e
        MOV     DPL,A
        MOV     A,?V0 + 3
        LCALL   ??Subroutine40_0 & 0xFFFF
??CrossCallReturnLabel_70:
        MOV     R1,A
        JZ      ??initiatorSendNwkJoinReq_4
// 1366     {
// 1367       zll_PopGrpIDRange( pRsp->totalGrpIDs, &(pParams->grpIDsBegin), &(pParams->grpIDsEnd) );
        ; Setup parameters for call to function zll_PopGrpIDRange
        MOV     A,R6
        ADD     A,#0x20
        MOV     R4,A
        MOV     A,R7
        ADDC    A,#0x0
        MOV     R5,A
        MOV     A,R6
        ADD     A,#0x1e
        MOV     R2,A
        MOV     A,R7
        ADDC    A,#0x0
        MOV     R3,A
        LCALL   ??zll_PopGrpIDRange?relay
// 1368     }
// 1369 
// 1370     if ( pRsp->zllAddressAssignment )
??initiatorSendNwkJoinReq_4:
        MOV     DPL,?V0 + 2
        MOV     DPH,?V0 + 3
        INC     DPTR
        INC     DPTR
        INC     DPTR
        INC     DPTR
        INC     DPTR
        INC     DPTR
        INC     DPTR
        MOVX    A,@DPTR
        ANL     A,#0x2
        JZ      ??initiatorSendNwkJoinReq_5
// 1371     {
// 1372       zll_SplitFreeRanges( &(pParams->freeNwkAddrBegin), &(pParams->freeNwkAddrEnd),
// 1373                            &(pParams->freeGrpIDBegin), &(pParams->freeGrpIDEnd) );
        ; Setup parameters for call to function zll_SplitFreeRanges
        MOV     A,R6
        ADD     A,#0x28
        MOV     ?V0 + 4,A
        MOV     A,R7
        LCALL   ??Subroutine38_0 & 0xFFFF
// 1374     }
??CrossCallReturnLabel_50:
        LCALL   ?PUSH_XSTACK_I_TWO
          CFI CFA_XSP16 add(XSP16, 16)
        MOV     A,R6
        ADD     A,#0x26
        MOV     ?V0 + 4,A
        MOV     A,R7
        LCALL   ??Subroutine38_0 & 0xFFFF
??CrossCallReturnLabel_51:
        LCALL   ?PUSH_XSTACK_I_TWO
          CFI CFA_XSP16 add(XSP16, 18)
        MOV     A,R6
        ADD     A,#0x24
        MOV     R4,A
        MOV     A,R7
        ADDC    A,#0x0
        MOV     R5,A
        MOV     A,R6
        ADD     A,#0x22
        MOV     R2,A
        MOV     A,R7
        ADDC    A,#0x0
        MOV     R3,A
        LCALL   ??zll_SplitFreeRanges?relay
        MOV     A,#0x4
        LCALL   ?DEALLOC_XSTACK8
          CFI CFA_XSP16 add(XSP16, 14)
// 1375 
// 1376     pParams->logicalChannel = _NIB.nwkLogicalChannel;
??initiatorSendNwkJoinReq_5:
        MOV     DPTR,#_NIB + 22
        MOVX    A,@DPTR
        PUSH    A
          CFI CFA_SP SP+-1
        MOV     A,R6
        ADD     A,#0x19
        MOV     DPL,A
        MOV     A,R7
        LCALL   ??Subroutine36_0 & 0xFFFF
??CrossCallReturnLabel_39:
        POP     A
          CFI CFA_SP SP+0
        LCALL   ?Subroutine9 & 0xFFFF
// 1377     pParams->panId = _NIB.nwkPanId;
??CrossCallReturnLabel_3:
        MOV     A,R6
        ADD     A,#0x1a
        MOV     DPL,A
        MOV     A,R7
        LCALL   ??Subroutine36_0 & 0xFFFF
??CrossCallReturnLabel_40:
        LCALL   ??Subroutine39_0 & 0xFFFF
// 1378     osal_cpyExtAddr( pParams->extendedPANID, _NIB.extendedPANID );
??CrossCallReturnLabel_61:
        ; Setup parameters for call to function sAddrExtCpy
        MOV     R4,#(_NIB + 53) & 0xff
        MOV     R5,#((_NIB + 53) >> 8) & 0xff
        MOV     A,R6
        MOV     R2,A
        MOV     A,R7
        MOV     R3,A
        LCALL   ??sAddrExtCpy?relay
// 1379     pReq->nwkUpdateId = _NIB.nwkUpdateId;
        MOV     DPTR,#_NIB + 109
        MOVX    A,@DPTR
        PUSH    A
          CFI CFA_SP SP+-1
        MOV     A,?V0 + 0
        ADD     A,#0x2e
        LCALL   ?Subroutine29 & 0xFFFF
??CrossCallReturnLabel_44:
        POP     A
          CFI CFA_SP SP+0
        MOVX    @DPTR,A
// 1380 
// 1381     // Let PAN ID, Extended PAN ID and Logical Channel to be determined by the target
// 1382     if ( pRsp->zLogicalType == ZG_DEVICETYPE_ROUTER )
        MOV     DPL,?V0 + 2
        MOV     DPH,?V0 + 3
        INC     DPTR
        INC     DPTR
        INC     DPTR
        INC     DPTR
        INC     DPTR
        MOVX    A,@DPTR
        ANL     A,#0x3
        XRL     A,#0x1
        MOV     DPTR,#initiatorSeqNum
        JNZ     ??initiatorSendNwkJoinReq_6
// 1383     {
// 1384       // It's a light
// 1385       status = zclLL_Send_NwkJoinRtrReq( ZLL_INTERNAL_ENDPOINT, &(selectedTarget.srcAddr), pReq, initiatorSeqNum++ );
        LCALL   ?Subroutine21 & 0xFFFF
// 1386     }
??CrossCallReturnLabel_23:
        LCALL   ?PUSH_XSTACK_I_ONE
          CFI CFA_XSP16 add(XSP16, 15)
        MOV     ?V0 + 2,#0x12
        SJMP    ??initiatorSendNwkJoinReq_7
          CFI CFA_XSP16 add(XSP16, 14)
// 1387     else // another controller
// 1388     {
// 1389       status = zclLL_Send_NwkJoinEDReq( ZLL_INTERNAL_ENDPOINT, &(selectedTarget.srcAddr), pReq, initiatorSeqNum++ );
??initiatorSendNwkJoinReq_6:
        LCALL   ?Subroutine21 & 0xFFFF
// 1390     }
??CrossCallReturnLabel_24:
        LCALL   ?PUSH_XSTACK_I_ONE
          CFI CFA_XSP16 add(XSP16, 15)
        MOV     ?V0 + 2,#0x14
??initiatorSendNwkJoinReq_7:
        MOV     R0,#?V0 + 2
        LCALL   ?PUSH_XSTACK_I_ONE
          CFI CFA_XSP16 add(XSP16, 16)
        MOV     R4,?V0 + 0
        MOV     R5,?V0 + 1
        MOV     R2,#(selectedTarget + 38) & 0xff
        MOV     R3,#((selectedTarget + 38) >> 8) & 0xff
        MOV     R1,#0xd
        LCALL   ??zclLL_Send_NwkJoinReq?relay
        MOV     A,#0x2
        LCALL   ?DEALLOC_XSTACK8
          CFI CFA_XSP16 add(XSP16, 14)
        MOV     A,R1
        MOV     R6,A
// 1391 
// 1392     if ( status == ZSuccess )
        MOV     A,R6
        JNZ     ??initiatorSendNwkJoinReq_8
// 1393     {
// 1394       // After the transmission, wait ZLL_APLC_RX_WINDOW_DURATION seconds to
// 1395       // receive a response.
// 1396       osal_start_timerEx( zllInitiator_TaskID, ZLL_W4_NWK_JOIN_RSP_EVT, ZLL_APLC_RX_WINDOW_DURATION );
        ; Setup parameters for call to function osal_start_timerEx
        MOV     DPTR,#__Constant_1388
        LCALL   ?PUSH_XSTACK8_X_FOUR
          CFI CFA_XSP16 add(XSP16, 18)
        MOV     R2,#0x0
        MOV     R3,#0x2
        MOV     DPTR,#zllInitiator_TaskID
        MOVX    A,@DPTR
        MOV     R1,A
        LCALL   ??osal_start_timerEx?relay
        MOV     A,#0x4
        LCALL   ?DEALLOC_XSTACK8
          CFI CFA_XSP16 add(XSP16, 14)
// 1397     }
// 1398 
// 1399     osal_mem_free( pReq );
??initiatorSendNwkJoinReq_8:
        ; Setup parameters for call to function osal_mem_free
        MOV     R2,?V0 + 0
        MOV     R3,?V0 + 1
        LCALL   ??osal_mem_free?relay
        SJMP    ??initiatorSendNwkJoinReq_9
// 1400   }
// 1401   else
// 1402   {
// 1403     status = ZMemError;
??initiatorSendNwkJoinReq_0:
        MOV     R6,#0x10
// 1404   }
// 1405 
// 1406   return ( status );
??initiatorSendNwkJoinReq_9:
        MOV     A,R6
        MOV     R1,A
          CFI EndBlock cfiBlock98
        REQUIRE ?Subroutine4
        ; // Fall through to label ?Subroutine4
// 1407 }

        RSEG BANKED_CODE:CODE:NOROOT(0)
?Subroutine4:
          CFI Block cfiBlock99 Using cfiCommon0
          CFI NoFunction
          CFI CFA_SP SP+0
          CFI CFA_XSP16 add(XSP16, 14)
          CFI VB load(1, XDATA, add(CFA_XSP16, literal(-13)))
          CFI DPL0 load(1, XDATA, add(CFA_XSP16, literal(-2)))
          CFI DPH0 load(1, XDATA, add(CFA_XSP16, literal(-1)))
          CFI R6 load(1, XDATA, add(CFA_XSP16, literal(-14)))
          CFI R7 load(1, XDATA, add(CFA_XSP16, literal(-6)))
          CFI V0 load(1, XDATA, add(CFA_XSP16, literal(-12)))
          CFI V1 load(1, XDATA, add(CFA_XSP16, literal(-11)))
          CFI V2 load(1, XDATA, add(CFA_XSP16, literal(-10)))
          CFI V3 load(1, XDATA, add(CFA_XSP16, literal(-9)))
          CFI V4 load(1, XDATA, add(CFA_XSP16, literal(-8)))
          CFI V5 load(1, XDATA, add(CFA_XSP16, literal(-7)))
          CFI ?BRET_EXT load(1, XDATA, add(CFA_XSP16, literal(-3)))
          CFI ?RET_HIGH load(1, XDATA, add(CFA_XSP16, literal(-4)))
          CFI ?RET_LOW load(1, XDATA, add(CFA_XSP16, literal(-5)))
        MOV     R7,#0x6
        LJMP    ?BANKED_LEAVE_XDATA
          CFI EndBlock cfiBlock99

        RSEG BANKED_CODE:CODE:NOROOT(0)
?Subroutine24:
          CFI Block cfiCond100 Using cfiCommon0
          CFI Function initiatorScanRspCB
          CFI Conditional ??CrossCallReturnLabel_71
          CFI R6 load(1, XDATA, add(CFA_XSP16, literal(-12)))
          CFI VB load(1, XDATA, add(CFA_XSP16, literal(-11)))
          CFI V0 load(1, XDATA, add(CFA_XSP16, literal(-10)))
          CFI V1 load(1, XDATA, add(CFA_XSP16, literal(-9)))
          CFI V2 load(1, XDATA, add(CFA_XSP16, literal(-8)))
          CFI V3 load(1, XDATA, add(CFA_XSP16, literal(-7)))
          CFI R7 load(1, XDATA, add(CFA_XSP16, literal(-6)))
          CFI ?RET_LOW load(1, XDATA, add(CFA_XSP16, literal(-5)))
          CFI ?RET_HIGH load(1, XDATA, add(CFA_XSP16, literal(-4)))
          CFI ?BRET_EXT load(1, XDATA, add(CFA_XSP16, literal(-3)))
          CFI DPL0 load(1, XDATA, add(CFA_XSP16, literal(-2)))
          CFI DPH0 load(1, XDATA, add(CFA_XSP16, literal(-1)))
          CFI CFA_SP SP+0
          CFI CFA_XSP16 add(XSP16, 17)
          CFI Block cfiCond101 Using cfiCommon0
          CFI (cfiCond101) Function initiatorNwkUpdateReqCB
          CFI (cfiCond101) Conditional ??CrossCallReturnLabel_72
          CFI (cfiCond101) R6 load(1, XDATA, add(CFA_XSP16, literal(-10)))
          CFI (cfiCond101) VB load(1, XDATA, add(CFA_XSP16, literal(-9)))
          CFI (cfiCond101) V0 load(1, XDATA, add(CFA_XSP16, literal(-8)))
          CFI (cfiCond101) V1 load(1, XDATA, add(CFA_XSP16, literal(-7)))
          CFI (cfiCond101) R7 load(1, XDATA, add(CFA_XSP16, literal(-6)))
          CFI (cfiCond101) ?RET_LOW load(1, XDATA, add(CFA_XSP16, literal(-5)))
          CFI (cfiCond101) ?RET_HIGH load(1, XDATA, add(CFA_XSP16, literal(-4)))
          CFI (cfiCond101) ?BRET_EXT load(1, XDATA, add(CFA_XSP16, literal(-3)))
          CFI (cfiCond101) DPL0 load(1, XDATA, add(CFA_XSP16, literal(-2)))
          CFI (cfiCond101) DPH0 load(1, XDATA, add(CFA_XSP16, literal(-1)))
          CFI (cfiCond101) CFA_SP SP+0
          CFI (cfiCond101) CFA_XSP16 add(XSP16, 10)
          CFI Block cfiCond102 Using cfiCommon0
          CFI (cfiCond102) Function initiatorNwkUpdateReqCB
          CFI (cfiCond102) Conditional ??CrossCallReturnLabel_73
          CFI (cfiCond102) R6 load(1, XDATA, add(CFA_XSP16, literal(-10)))
          CFI (cfiCond102) VB load(1, XDATA, add(CFA_XSP16, literal(-9)))
          CFI (cfiCond102) V0 load(1, XDATA, add(CFA_XSP16, literal(-8)))
          CFI (cfiCond102) V1 load(1, XDATA, add(CFA_XSP16, literal(-7)))
          CFI (cfiCond102) R7 load(1, XDATA, add(CFA_XSP16, literal(-6)))
          CFI (cfiCond102) ?RET_LOW load(1, XDATA, add(CFA_XSP16, literal(-5)))
          CFI (cfiCond102) ?RET_HIGH load(1, XDATA, add(CFA_XSP16, literal(-4)))
          CFI (cfiCond102) ?BRET_EXT load(1, XDATA, add(CFA_XSP16, literal(-3)))
          CFI (cfiCond102) DPL0 load(1, XDATA, add(CFA_XSP16, literal(-2)))
          CFI (cfiCond102) DPH0 load(1, XDATA, add(CFA_XSP16, literal(-1)))
          CFI (cfiCond102) CFA_SP SP+0
          CFI (cfiCond102) CFA_XSP16 add(XSP16, 10)
          CFI Block cfiPicker103 Using cfiCommon1
          CFI (cfiPicker103) NoFunction
          CFI (cfiPicker103) Picker
        MOV     DPL,A
        MOV     A,R7
          CFI EndBlock cfiCond100
          CFI EndBlock cfiCond101
          CFI EndBlock cfiCond102
          CFI EndBlock cfiPicker103
        REQUIRE ??Subroutine40_0
        ; // Fall through to label ??Subroutine40_0

        RSEG BANKED_CODE:CODE:NOROOT(0)
??Subroutine40_0:
          CFI Block cfiCond104 Using cfiCommon0
          CFI Function initiatorSendScanReq
          CFI Conditional ??CrossCallReturnLabel_68
          CFI R6 load(1, XDATA, add(CFA_XSP16, literal(-12)))
          CFI VB load(1, XDATA, add(CFA_XSP16, literal(-11)))
          CFI V0 load(1, XDATA, add(CFA_XSP16, literal(-10)))
          CFI V1 load(1, XDATA, add(CFA_XSP16, literal(-9)))
          CFI V2 load(1, XDATA, add(CFA_XSP16, literal(-8)))
          CFI V3 load(1, XDATA, add(CFA_XSP16, literal(-7)))
          CFI R7 load(1, XDATA, add(CFA_XSP16, literal(-6)))
          CFI ?RET_LOW load(1, XDATA, add(CFA_XSP16, literal(-5)))
          CFI ?RET_HIGH load(1, XDATA, add(CFA_XSP16, literal(-4)))
          CFI ?BRET_EXT load(1, XDATA, add(CFA_XSP16, literal(-3)))
          CFI DPL0 load(1, XDATA, add(CFA_XSP16, literal(-2)))
          CFI DPH0 load(1, XDATA, add(CFA_XSP16, literal(-1)))
          CFI CFA_SP SP+0
          CFI CFA_XSP16 add(XSP16, 32)
          CFI Block cfiCond105 Using cfiCommon0
          CFI (cfiCond105) Function initiatorSendNwkStartReq
          CFI (cfiCond105) Conditional ??CrossCallReturnLabel_69
          CFI (cfiCond105) R6 load(1, XDATA, add(CFA_XSP16, literal(-20)))
          CFI (cfiCond105) VB load(1, XDATA, add(CFA_XSP16, literal(-19)))
          CFI (cfiCond105) V0 load(1, XDATA, add(CFA_XSP16, literal(-18)))
          CFI (cfiCond105) V1 load(1, XDATA, add(CFA_XSP16, literal(-17)))
          CFI (cfiCond105) V2 load(1, XDATA, add(CFA_XSP16, literal(-16)))
          CFI (cfiCond105) V3 load(1, XDATA, add(CFA_XSP16, literal(-15)))
          CFI (cfiCond105) V4 load(1, XDATA, add(CFA_XSP16, literal(-14)))
          CFI (cfiCond105) V5 load(1, XDATA, add(CFA_XSP16, literal(-13)))
          CFI (cfiCond105) V6 load(1, XDATA, add(CFA_XSP16, literal(-12)))
          CFI (cfiCond105) V7 load(1, XDATA, add(CFA_XSP16, literal(-11)))
          CFI (cfiCond105) V8 load(1, XDATA, add(CFA_XSP16, literal(-10)))
          CFI (cfiCond105) V9 load(1, XDATA, add(CFA_XSP16, literal(-9)))
          CFI (cfiCond105) V10 load(1, XDATA, add(CFA_XSP16, literal(-8)))
          CFI (cfiCond105) V11 load(1, XDATA, add(CFA_XSP16, literal(-7)))
          CFI (cfiCond105) R7 load(1, XDATA, add(CFA_XSP16, literal(-6)))
          CFI (cfiCond105) ?RET_LOW load(1, XDATA, add(CFA_XSP16, literal(-5)))
          CFI (cfiCond105) ?RET_HIGH load(1, XDATA, add(CFA_XSP16, literal(-4)))
          CFI (cfiCond105) ?BRET_EXT load(1, XDATA, add(CFA_XSP16, literal(-3)))
          CFI (cfiCond105) DPL0 load(1, XDATA, add(CFA_XSP16, literal(-2)))
          CFI (cfiCond105) DPH0 load(1, XDATA, add(CFA_XSP16, literal(-1)))
          CFI (cfiCond105) CFA_SP SP+0
          CFI (cfiCond105) CFA_XSP16 add(XSP16, 20)
          CFI Block cfiCond106 Using cfiCommon0
          CFI (cfiCond106) Function initiatorSendNwkJoinReq
          CFI (cfiCond106) Conditional ??CrossCallReturnLabel_70
          CFI (cfiCond106) R6 load(1, XDATA, add(CFA_XSP16, literal(-14)))
          CFI (cfiCond106) VB load(1, XDATA, add(CFA_XSP16, literal(-13)))
          CFI (cfiCond106) V0 load(1, XDATA, add(CFA_XSP16, literal(-12)))
          CFI (cfiCond106) V1 load(1, XDATA, add(CFA_XSP16, literal(-11)))
          CFI (cfiCond106) V2 load(1, XDATA, add(CFA_XSP16, literal(-10)))
          CFI (cfiCond106) V3 load(1, XDATA, add(CFA_XSP16, literal(-9)))
          CFI (cfiCond106) V4 load(1, XDATA, add(CFA_XSP16, literal(-8)))
          CFI (cfiCond106) V5 load(1, XDATA, add(CFA_XSP16, literal(-7)))
          CFI (cfiCond106) R7 load(1, XDATA, add(CFA_XSP16, literal(-6)))
          CFI (cfiCond106) ?RET_LOW load(1, XDATA, add(CFA_XSP16, literal(-5)))
          CFI (cfiCond106) ?RET_HIGH load(1, XDATA, add(CFA_XSP16, literal(-4)))
          CFI (cfiCond106) ?BRET_EXT load(1, XDATA, add(CFA_XSP16, literal(-3)))
          CFI (cfiCond106) DPL0 load(1, XDATA, add(CFA_XSP16, literal(-2)))
          CFI (cfiCond106) DPH0 load(1, XDATA, add(CFA_XSP16, literal(-1)))
          CFI (cfiCond106) CFA_SP SP+0
          CFI (cfiCond106) CFA_XSP16 add(XSP16, 14)
          CFI Block cfiCond107 Using cfiCommon0
          CFI (cfiCond107) Function initiatorScanRspCB
          CFI (cfiCond107) Conditional ??CrossCallReturnLabel_71
          CFI (cfiCond107) R6 load(1, XDATA, add(CFA_XSP16, literal(-12)))
          CFI (cfiCond107) VB load(1, XDATA, add(CFA_XSP16, literal(-11)))
          CFI (cfiCond107) V0 load(1, XDATA, add(CFA_XSP16, literal(-10)))
          CFI (cfiCond107) V1 load(1, XDATA, add(CFA_XSP16, literal(-9)))
          CFI (cfiCond107) V2 load(1, XDATA, add(CFA_XSP16, literal(-8)))
          CFI (cfiCond107) V3 load(1, XDATA, add(CFA_XSP16, literal(-7)))
          CFI (cfiCond107) R7 load(1, XDATA, add(CFA_XSP16, literal(-6)))
          CFI (cfiCond107) ?RET_LOW load(1, XDATA, add(CFA_XSP16, literal(-5)))
          CFI (cfiCond107) ?RET_HIGH load(1, XDATA, add(CFA_XSP16, literal(-4)))
          CFI (cfiCond107) ?BRET_EXT load(1, XDATA, add(CFA_XSP16, literal(-3)))
          CFI (cfiCond107) DPL0 load(1, XDATA, add(CFA_XSP16, literal(-2)))
          CFI (cfiCond107) DPH0 load(1, XDATA, add(CFA_XSP16, literal(-1)))
          CFI (cfiCond107) CFA_SP SP+0
          CFI (cfiCond107) CFA_XSP16 add(XSP16, 17)
          CFI Block cfiCond108 Using cfiCommon0
          CFI (cfiCond108) Function initiatorNwkUpdateReqCB
          CFI (cfiCond108) Conditional ??CrossCallReturnLabel_72
          CFI (cfiCond108) R6 load(1, XDATA, add(CFA_XSP16, literal(-10)))
          CFI (cfiCond108) VB load(1, XDATA, add(CFA_XSP16, literal(-9)))
          CFI (cfiCond108) V0 load(1, XDATA, add(CFA_XSP16, literal(-8)))
          CFI (cfiCond108) V1 load(1, XDATA, add(CFA_XSP16, literal(-7)))
          CFI (cfiCond108) R7 load(1, XDATA, add(CFA_XSP16, literal(-6)))
          CFI (cfiCond108) ?RET_LOW load(1, XDATA, add(CFA_XSP16, literal(-5)))
          CFI (cfiCond108) ?RET_HIGH load(1, XDATA, add(CFA_XSP16, literal(-4)))
          CFI (cfiCond108) ?BRET_EXT load(1, XDATA, add(CFA_XSP16, literal(-3)))
          CFI (cfiCond108) DPL0 load(1, XDATA, add(CFA_XSP16, literal(-2)))
          CFI (cfiCond108) DPH0 load(1, XDATA, add(CFA_XSP16, literal(-1)))
          CFI (cfiCond108) CFA_SP SP+0
          CFI (cfiCond108) CFA_XSP16 add(XSP16, 10)
          CFI Block cfiCond109 Using cfiCommon0
          CFI (cfiCond109) Function initiatorNwkUpdateReqCB
          CFI (cfiCond109) Conditional ??CrossCallReturnLabel_73
          CFI (cfiCond109) R6 load(1, XDATA, add(CFA_XSP16, literal(-10)))
          CFI (cfiCond109) VB load(1, XDATA, add(CFA_XSP16, literal(-9)))
          CFI (cfiCond109) V0 load(1, XDATA, add(CFA_XSP16, literal(-8)))
          CFI (cfiCond109) V1 load(1, XDATA, add(CFA_XSP16, literal(-7)))
          CFI (cfiCond109) R7 load(1, XDATA, add(CFA_XSP16, literal(-6)))
          CFI (cfiCond109) ?RET_LOW load(1, XDATA, add(CFA_XSP16, literal(-5)))
          CFI (cfiCond109) ?RET_HIGH load(1, XDATA, add(CFA_XSP16, literal(-4)))
          CFI (cfiCond109) ?BRET_EXT load(1, XDATA, add(CFA_XSP16, literal(-3)))
          CFI (cfiCond109) DPL0 load(1, XDATA, add(CFA_XSP16, literal(-2)))
          CFI (cfiCond109) DPH0 load(1, XDATA, add(CFA_XSP16, literal(-1)))
          CFI (cfiCond109) CFA_SP SP+0
          CFI (cfiCond109) CFA_XSP16 add(XSP16, 10)
          CFI Block cfiPicker110 Using cfiCommon1
          CFI (cfiPicker110) NoFunction
          CFI (cfiPicker110) Picker
        ADDC    A,#0x0
        MOV     DPH,A
        MOVX    A,@DPTR
        RET
          CFI EndBlock cfiCond104
          CFI EndBlock cfiCond105
          CFI EndBlock cfiCond106
          CFI EndBlock cfiCond107
          CFI EndBlock cfiCond108
          CFI EndBlock cfiCond109
          CFI EndBlock cfiPicker110

        RSEG BANKED_CODE:CODE:NOROOT(0)
?Subroutine21:
          CFI Block cfiCond111 Using cfiCommon0
          CFI Function initiatorSendNwkJoinReq
          CFI Conditional ??CrossCallReturnLabel_23
          CFI R6 load(1, XDATA, add(CFA_XSP16, literal(-14)))
          CFI VB load(1, XDATA, add(CFA_XSP16, literal(-13)))
          CFI V0 load(1, XDATA, add(CFA_XSP16, literal(-12)))
          CFI V1 load(1, XDATA, add(CFA_XSP16, literal(-11)))
          CFI V2 load(1, XDATA, add(CFA_XSP16, literal(-10)))
          CFI V3 load(1, XDATA, add(CFA_XSP16, literal(-9)))
          CFI V4 load(1, XDATA, add(CFA_XSP16, literal(-8)))
          CFI V5 load(1, XDATA, add(CFA_XSP16, literal(-7)))
          CFI R7 load(1, XDATA, add(CFA_XSP16, literal(-6)))
          CFI ?RET_LOW load(1, XDATA, add(CFA_XSP16, literal(-5)))
          CFI ?RET_HIGH load(1, XDATA, add(CFA_XSP16, literal(-4)))
          CFI ?BRET_EXT load(1, XDATA, add(CFA_XSP16, literal(-3)))
          CFI DPL0 load(1, XDATA, add(CFA_XSP16, literal(-2)))
          CFI DPH0 load(1, XDATA, add(CFA_XSP16, literal(-1)))
          CFI CFA_SP SP+0
          CFI CFA_XSP16 add(XSP16, 14)
          CFI Block cfiCond112 Using cfiCommon0
          CFI (cfiCond112) Function initiatorSendNwkJoinReq
          CFI (cfiCond112) Conditional ??CrossCallReturnLabel_24
          CFI (cfiCond112) R6 load(1, XDATA, add(CFA_XSP16, literal(-14)))
          CFI (cfiCond112) VB load(1, XDATA, add(CFA_XSP16, literal(-13)))
          CFI (cfiCond112) V0 load(1, XDATA, add(CFA_XSP16, literal(-12)))
          CFI (cfiCond112) V1 load(1, XDATA, add(CFA_XSP16, literal(-11)))
          CFI (cfiCond112) V2 load(1, XDATA, add(CFA_XSP16, literal(-10)))
          CFI (cfiCond112) V3 load(1, XDATA, add(CFA_XSP16, literal(-9)))
          CFI (cfiCond112) V4 load(1, XDATA, add(CFA_XSP16, literal(-8)))
          CFI (cfiCond112) V5 load(1, XDATA, add(CFA_XSP16, literal(-7)))
          CFI (cfiCond112) R7 load(1, XDATA, add(CFA_XSP16, literal(-6)))
          CFI (cfiCond112) ?RET_LOW load(1, XDATA, add(CFA_XSP16, literal(-5)))
          CFI (cfiCond112) ?RET_HIGH load(1, XDATA, add(CFA_XSP16, literal(-4)))
          CFI (cfiCond112) ?BRET_EXT load(1, XDATA, add(CFA_XSP16, literal(-3)))
          CFI (cfiCond112) DPL0 load(1, XDATA, add(CFA_XSP16, literal(-2)))
          CFI (cfiCond112) DPH0 load(1, XDATA, add(CFA_XSP16, literal(-1)))
          CFI (cfiCond112) CFA_SP SP+0
          CFI (cfiCond112) CFA_XSP16 add(XSP16, 14)
          CFI Block cfiPicker113 Using cfiCommon1
          CFI (cfiPicker113) NoFunction
          CFI (cfiPicker113) Picker
        LCALL   ??Subroutine45_0 & 0xFFFF
??CrossCallReturnLabel_105:
        MOV     ?V0 + 2,A
        MOV     R0,#?V0 + 2
        RET
          CFI EndBlock cfiCond111
          CFI EndBlock cfiCond112
          CFI EndBlock cfiPicker113

        RSEG BANKED_CODE:CODE:NOROOT(0)
?Subroutine9:
          CFI Block cfiCond114 Using cfiCommon0
          CFI Function zllInitiator_event_loop
          CFI Conditional ??CrossCallReturnLabel_2
          CFI R6 load(1, XDATA, add(CFA_XSP16, literal(-16)))
          CFI VB load(1, XDATA, add(CFA_XSP16, literal(-15)))
          CFI V0 load(1, XDATA, add(CFA_XSP16, literal(-14)))
          CFI V1 load(1, XDATA, add(CFA_XSP16, literal(-13)))
          CFI V2 load(1, XDATA, add(CFA_XSP16, literal(-12)))
          CFI V3 load(1, XDATA, add(CFA_XSP16, literal(-11)))
          CFI V4 load(1, XDATA, add(CFA_XSP16, literal(-10)))
          CFI V5 load(1, XDATA, add(CFA_XSP16, literal(-9)))
          CFI V6 load(1, XDATA, add(CFA_XSP16, literal(-8)))
          CFI V7 load(1, XDATA, add(CFA_XSP16, literal(-7)))
          CFI R7 load(1, XDATA, add(CFA_XSP16, literal(-6)))
          CFI ?RET_LOW load(1, XDATA, add(CFA_XSP16, literal(-5)))
          CFI ?RET_HIGH load(1, XDATA, add(CFA_XSP16, literal(-4)))
          CFI ?BRET_EXT load(1, XDATA, add(CFA_XSP16, literal(-3)))
          CFI DPL0 load(1, XDATA, add(CFA_XSP16, literal(-2)))
          CFI DPH0 load(1, XDATA, add(CFA_XSP16, literal(-1)))
          CFI CFA_SP SP+0
          CFI CFA_XSP16 add(XSP16, 30)
          CFI Block cfiCond115 Using cfiCommon0
          CFI (cfiCond115) Function initiatorSendNwkJoinReq
          CFI (cfiCond115) Conditional ??CrossCallReturnLabel_3
          CFI (cfiCond115) R6 load(1, XDATA, add(CFA_XSP16, literal(-14)))
          CFI (cfiCond115) VB load(1, XDATA, add(CFA_XSP16, literal(-13)))
          CFI (cfiCond115) V0 load(1, XDATA, add(CFA_XSP16, literal(-12)))
          CFI (cfiCond115) V1 load(1, XDATA, add(CFA_XSP16, literal(-11)))
          CFI (cfiCond115) V2 load(1, XDATA, add(CFA_XSP16, literal(-10)))
          CFI (cfiCond115) V3 load(1, XDATA, add(CFA_XSP16, literal(-9)))
          CFI (cfiCond115) V4 load(1, XDATA, add(CFA_XSP16, literal(-8)))
          CFI (cfiCond115) V5 load(1, XDATA, add(CFA_XSP16, literal(-7)))
          CFI (cfiCond115) R7 load(1, XDATA, add(CFA_XSP16, literal(-6)))
          CFI (cfiCond115) ?RET_LOW load(1, XDATA, add(CFA_XSP16, literal(-5)))
          CFI (cfiCond115) ?RET_HIGH load(1, XDATA, add(CFA_XSP16, literal(-4)))
          CFI (cfiCond115) ?BRET_EXT load(1, XDATA, add(CFA_XSP16, literal(-3)))
          CFI (cfiCond115) DPL0 load(1, XDATA, add(CFA_XSP16, literal(-2)))
          CFI (cfiCond115) DPH0 load(1, XDATA, add(CFA_XSP16, literal(-1)))
          CFI (cfiCond115) CFA_SP SP+0
          CFI (cfiCond115) CFA_XSP16 add(XSP16, 14)
          CFI Block cfiCond116 Using cfiCommon0
          CFI (cfiCond116) Function zllInitiator_SendEPInfo
          CFI (cfiCond116) Conditional ??CrossCallReturnLabel_4
          CFI (cfiCond116) R6 load(1, XDATA, add(CFA_XSP16, literal(-11)))
          CFI (cfiCond116) VB load(1, XDATA, add(CFA_XSP16, literal(-10)))
          CFI (cfiCond116) V0 load(1, XDATA, add(CFA_XSP16, literal(-9)))
          CFI (cfiCond116) V1 load(1, XDATA, add(CFA_XSP16, literal(-8)))
          CFI (cfiCond116) V2 load(1, XDATA, add(CFA_XSP16, literal(-7)))
          CFI (cfiCond116) R7 load(1, XDATA, add(CFA_XSP16, literal(-6)))
          CFI (cfiCond116) ?RET_LOW load(1, XDATA, add(CFA_XSP16, literal(-5)))
          CFI (cfiCond116) ?RET_HIGH load(1, XDATA, add(CFA_XSP16, literal(-4)))
          CFI (cfiCond116) ?BRET_EXT load(1, XDATA, add(CFA_XSP16, literal(-3)))
          CFI (cfiCond116) DPL0 load(1, XDATA, add(CFA_XSP16, literal(-2)))
          CFI (cfiCond116) DPH0 load(1, XDATA, add(CFA_XSP16, literal(-1)))
          CFI (cfiCond116) CFA_SP SP+0
          CFI (cfiCond116) CFA_XSP16 add(XSP16, 34)
          CFI Block cfiPicker117 Using cfiCommon1
          CFI (cfiPicker117) NoFunction
          CFI (cfiPicker117) Picker
        MOVX    @DPTR,A
        LCALL   ?Subroutine31 & 0xFFFF
??CrossCallReturnLabel_94:
        RET
          CFI EndBlock cfiCond114
          CFI EndBlock cfiCond115
          CFI EndBlock cfiCond116
          CFI EndBlock cfiPicker117

        RSEG BANKED_CODE:CODE:NOROOT(0)
?Subroutine31:
          CFI Block cfiCond118 Using cfiCommon0
          CFI Function zllInitiator_event_loop
          CFI Conditional ??CrossCallReturnLabel_95, ??CrossCallReturnLabel_25
          CFI R6 load(1, XDATA, add(CFA_XSP16, literal(-16)))
          CFI VB load(1, XDATA, add(CFA_XSP16, literal(-15)))
          CFI V0 load(1, XDATA, add(CFA_XSP16, literal(-14)))
          CFI V1 load(1, XDATA, add(CFA_XSP16, literal(-13)))
          CFI V2 load(1, XDATA, add(CFA_XSP16, literal(-12)))
          CFI V3 load(1, XDATA, add(CFA_XSP16, literal(-11)))
          CFI V4 load(1, XDATA, add(CFA_XSP16, literal(-10)))
          CFI V5 load(1, XDATA, add(CFA_XSP16, literal(-9)))
          CFI V6 load(1, XDATA, add(CFA_XSP16, literal(-8)))
          CFI V7 load(1, XDATA, add(CFA_XSP16, literal(-7)))
          CFI R7 load(1, XDATA, add(CFA_XSP16, literal(-6)))
          CFI ?RET_LOW load(1, XDATA, add(CFA_XSP16, literal(-5)))
          CFI ?RET_HIGH load(1, XDATA, add(CFA_XSP16, literal(-4)))
          CFI ?BRET_EXT load(1, XDATA, add(CFA_XSP16, literal(-3)))
          CFI DPL0 load(1, XDATA, add(CFA_XSP16, literal(-2)))
          CFI DPH0 load(1, XDATA, add(CFA_XSP16, literal(-1)))
          CFI CFA_SP SP+0
          CFI CFA_XSP16 add(XSP16, 30)
          CFI Block cfiCond119 Using cfiCommon0
          CFI (cfiCond119) Function zllInitiator_event_loop
          CFI (cfiCond119) Conditional ??CrossCallReturnLabel_95, ??CrossCallReturnLabel_26
          CFI (cfiCond119) R6 load(1, XDATA, add(CFA_XSP16, literal(-16)))
          CFI (cfiCond119) VB load(1, XDATA, add(CFA_XSP16, literal(-15)))
          CFI (cfiCond119) V0 load(1, XDATA, add(CFA_XSP16, literal(-14)))
          CFI (cfiCond119) V1 load(1, XDATA, add(CFA_XSP16, literal(-13)))
          CFI (cfiCond119) V2 load(1, XDATA, add(CFA_XSP16, literal(-12)))
          CFI (cfiCond119) V3 load(1, XDATA, add(CFA_XSP16, literal(-11)))
          CFI (cfiCond119) V4 load(1, XDATA, add(CFA_XSP16, literal(-10)))
          CFI (cfiCond119) V5 load(1, XDATA, add(CFA_XSP16, literal(-9)))
          CFI (cfiCond119) V6 load(1, XDATA, add(CFA_XSP16, literal(-8)))
          CFI (cfiCond119) V7 load(1, XDATA, add(CFA_XSP16, literal(-7)))
          CFI (cfiCond119) R7 load(1, XDATA, add(CFA_XSP16, literal(-6)))
          CFI (cfiCond119) ?RET_LOW load(1, XDATA, add(CFA_XSP16, literal(-5)))
          CFI (cfiCond119) ?RET_HIGH load(1, XDATA, add(CFA_XSP16, literal(-4)))
          CFI (cfiCond119) ?BRET_EXT load(1, XDATA, add(CFA_XSP16, literal(-3)))
          CFI (cfiCond119) DPL0 load(1, XDATA, add(CFA_XSP16, literal(-2)))
          CFI (cfiCond119) DPH0 load(1, XDATA, add(CFA_XSP16, literal(-1)))
          CFI (cfiCond119) CFA_SP SP+0
          CFI (cfiCond119) CFA_XSP16 add(XSP16, 30)
          CFI Block cfiCond120 Using cfiCommon0
          CFI (cfiCond120) Function zllInitiator_event_loop
          CFI (cfiCond120) Conditional ??CrossCallReturnLabel_94, ??CrossCallReturnLabel_2
          CFI (cfiCond120) R6 load(1, XDATA, add(CFA_XSP16, literal(-16)))
          CFI (cfiCond120) VB load(1, XDATA, add(CFA_XSP16, literal(-15)))
          CFI (cfiCond120) V0 load(1, XDATA, add(CFA_XSP16, literal(-14)))
          CFI (cfiCond120) V1 load(1, XDATA, add(CFA_XSP16, literal(-13)))
          CFI (cfiCond120) V2 load(1, XDATA, add(CFA_XSP16, literal(-12)))
          CFI (cfiCond120) V3 load(1, XDATA, add(CFA_XSP16, literal(-11)))
          CFI (cfiCond120) V4 load(1, XDATA, add(CFA_XSP16, literal(-10)))
          CFI (cfiCond120) V5 load(1, XDATA, add(CFA_XSP16, literal(-9)))
          CFI (cfiCond120) V6 load(1, XDATA, add(CFA_XSP16, literal(-8)))
          CFI (cfiCond120) V7 load(1, XDATA, add(CFA_XSP16, literal(-7)))
          CFI (cfiCond120) R7 load(1, XDATA, add(CFA_XSP16, literal(-6)))
          CFI (cfiCond120) ?RET_LOW load(1, XDATA, add(CFA_XSP16, literal(-5)))
          CFI (cfiCond120) ?RET_HIGH load(1, XDATA, add(CFA_XSP16, literal(-4)))
          CFI (cfiCond120) ?BRET_EXT load(1, XDATA, add(CFA_XSP16, literal(-3)))
          CFI (cfiCond120) DPL0 load(1, XDATA, add(CFA_XSP16, literal(-2)))
          CFI (cfiCond120) DPH0 load(1, XDATA, add(CFA_XSP16, literal(-1)))
          CFI (cfiCond120) CFA_SP SP+0
          CFI (cfiCond120) CFA_XSP16 add(XSP16, 30)
          CFI Block cfiCond121 Using cfiCommon0
          CFI (cfiCond121) Function initiatorSendNwkJoinReq
          CFI (cfiCond121) Conditional ??CrossCallReturnLabel_94, ??CrossCallReturnLabel_3
          CFI (cfiCond121) R6 load(1, XDATA, add(CFA_XSP16, literal(-14)))
          CFI (cfiCond121) VB load(1, XDATA, add(CFA_XSP16, literal(-13)))
          CFI (cfiCond121) V0 load(1, XDATA, add(CFA_XSP16, literal(-12)))
          CFI (cfiCond121) V1 load(1, XDATA, add(CFA_XSP16, literal(-11)))
          CFI (cfiCond121) V2 load(1, XDATA, add(CFA_XSP16, literal(-10)))
          CFI (cfiCond121) V3 load(1, XDATA, add(CFA_XSP16, literal(-9)))
          CFI (cfiCond121) V4 load(1, XDATA, add(CFA_XSP16, literal(-8)))
          CFI (cfiCond121) V5 load(1, XDATA, add(CFA_XSP16, literal(-7)))
          CFI (cfiCond121) R7 load(1, XDATA, add(CFA_XSP16, literal(-6)))
          CFI (cfiCond121) ?RET_LOW load(1, XDATA, add(CFA_XSP16, literal(-5)))
          CFI (cfiCond121) ?RET_HIGH load(1, XDATA, add(CFA_XSP16, literal(-4)))
          CFI (cfiCond121) ?BRET_EXT load(1, XDATA, add(CFA_XSP16, literal(-3)))
          CFI (cfiCond121) DPL0 load(1, XDATA, add(CFA_XSP16, literal(-2)))
          CFI (cfiCond121) DPH0 load(1, XDATA, add(CFA_XSP16, literal(-1)))
          CFI (cfiCond121) CFA_SP SP+0
          CFI (cfiCond121) CFA_XSP16 add(XSP16, 14)
          CFI Block cfiCond122 Using cfiCommon0
          CFI (cfiCond122) Function zllInitiator_SendEPInfo
          CFI (cfiCond122) Conditional ??CrossCallReturnLabel_94, ??CrossCallReturnLabel_4
          CFI (cfiCond122) R6 load(1, XDATA, add(CFA_XSP16, literal(-11)))
          CFI (cfiCond122) VB load(1, XDATA, add(CFA_XSP16, literal(-10)))
          CFI (cfiCond122) V0 load(1, XDATA, add(CFA_XSP16, literal(-9)))
          CFI (cfiCond122) V1 load(1, XDATA, add(CFA_XSP16, literal(-8)))
          CFI (cfiCond122) V2 load(1, XDATA, add(CFA_XSP16, literal(-7)))
          CFI (cfiCond122) R7 load(1, XDATA, add(CFA_XSP16, literal(-6)))
          CFI (cfiCond122) ?RET_LOW load(1, XDATA, add(CFA_XSP16, literal(-5)))
          CFI (cfiCond122) ?RET_HIGH load(1, XDATA, add(CFA_XSP16, literal(-4)))
          CFI (cfiCond122) ?BRET_EXT load(1, XDATA, add(CFA_XSP16, literal(-3)))
          CFI (cfiCond122) DPL0 load(1, XDATA, add(CFA_XSP16, literal(-2)))
          CFI (cfiCond122) DPH0 load(1, XDATA, add(CFA_XSP16, literal(-1)))
          CFI (cfiCond122) CFA_SP SP+0
          CFI (cfiCond122) CFA_XSP16 add(XSP16, 34)
          CFI Block cfiPicker123 Using cfiCommon1
          CFI (cfiPicker123) NoFunction
          CFI (cfiPicker123) Picker
        MOV     DPTR,#_NIB + 33
          CFI EndBlock cfiCond118
          CFI EndBlock cfiCond119
          CFI EndBlock cfiCond120
          CFI EndBlock cfiCond121
          CFI EndBlock cfiCond122
          CFI EndBlock cfiPicker123
        REQUIRE ??Subroutine41_0
        ; // Fall through to label ??Subroutine41_0

        RSEG BANKED_CODE:CODE:NOROOT(0)
??Subroutine41_0:
          CFI Block cfiCond124 Using cfiCommon0
          CFI Function zllInitiator_ResetToFactoryNew
          CFI Conditional ??CrossCallReturnLabel_96, ??CrossCallReturnLabel_36
          CFI DPL0 Frame(CFA_SP, 4)
          CFI DPH0 Frame(CFA_SP, 5)
          CFI CFA_SP SP+-5
          CFI Block cfiCond125 Using cfiCommon0
          CFI (cfiCond125) Function zllInitiator_event_loop
          CFI (cfiCond125) Conditional ??CrossCallReturnLabel_96, ??CrossCallReturnLabel_37
          CFI (cfiCond125) R6 load(1, XDATA, add(CFA_XSP16, literal(-16)))
          CFI (cfiCond125) VB load(1, XDATA, add(CFA_XSP16, literal(-15)))
          CFI (cfiCond125) V0 load(1, XDATA, add(CFA_XSP16, literal(-14)))
          CFI (cfiCond125) V1 load(1, XDATA, add(CFA_XSP16, literal(-13)))
          CFI (cfiCond125) V2 load(1, XDATA, add(CFA_XSP16, literal(-12)))
          CFI (cfiCond125) V3 load(1, XDATA, add(CFA_XSP16, literal(-11)))
          CFI (cfiCond125) V4 load(1, XDATA, add(CFA_XSP16, literal(-10)))
          CFI (cfiCond125) V5 load(1, XDATA, add(CFA_XSP16, literal(-9)))
          CFI (cfiCond125) V6 load(1, XDATA, add(CFA_XSP16, literal(-8)))
          CFI (cfiCond125) V7 load(1, XDATA, add(CFA_XSP16, literal(-7)))
          CFI (cfiCond125) R7 load(1, XDATA, add(CFA_XSP16, literal(-6)))
          CFI (cfiCond125) ?RET_LOW load(1, XDATA, add(CFA_XSP16, literal(-5)))
          CFI (cfiCond125) ?RET_HIGH load(1, XDATA, add(CFA_XSP16, literal(-4)))
          CFI (cfiCond125) ?BRET_EXT load(1, XDATA, add(CFA_XSP16, literal(-3)))
          CFI (cfiCond125) DPL0 load(1, XDATA, add(CFA_XSP16, literal(-2)))
          CFI (cfiCond125) DPH0 load(1, XDATA, add(CFA_XSP16, literal(-1)))
          CFI (cfiCond125) CFA_SP SP+0
          CFI (cfiCond125) CFA_XSP16 add(XSP16, 30)
          CFI Block cfiCond126 Using cfiCommon0
          CFI (cfiCond126) Function initiatorIdentifyReqCB
          CFI (cfiCond126) Conditional ??CrossCallReturnLabel_96, ??CrossCallReturnLabel_34
          CFI (cfiCond126) R6 load(1, XDATA, add(CFA_XSP16, literal(-10)))
          CFI (cfiCond126) VB load(1, XDATA, add(CFA_XSP16, literal(-9)))
          CFI (cfiCond126) V0 load(1, XDATA, add(CFA_XSP16, literal(-8)))
          CFI (cfiCond126) V1 load(1, XDATA, add(CFA_XSP16, literal(-7)))
          CFI (cfiCond126) R7 load(1, XDATA, add(CFA_XSP16, literal(-6)))
          CFI (cfiCond126) ?RET_LOW load(1, XDATA, add(CFA_XSP16, literal(-5)))
          CFI (cfiCond126) ?RET_HIGH load(1, XDATA, add(CFA_XSP16, literal(-4)))
          CFI (cfiCond126) ?BRET_EXT load(1, XDATA, add(CFA_XSP16, literal(-3)))
          CFI (cfiCond126) DPL0 load(1, XDATA, add(CFA_XSP16, literal(-2)))
          CFI (cfiCond126) DPH0 load(1, XDATA, add(CFA_XSP16, literal(-1)))
          CFI (cfiCond126) CFA_SP SP+0
          CFI (cfiCond126) CFA_XSP16 add(XSP16, 14)
          CFI Block cfiCond127 Using cfiCommon0
          CFI (cfiCond127) Function initiatorScanRspCB
          CFI (cfiCond127) Conditional ??CrossCallReturnLabel_96, ??CrossCallReturnLabel_35
          CFI (cfiCond127) R6 load(1, XDATA, add(CFA_XSP16, literal(-12)))
          CFI (cfiCond127) VB load(1, XDATA, add(CFA_XSP16, literal(-11)))
          CFI (cfiCond127) V0 load(1, XDATA, add(CFA_XSP16, literal(-10)))
          CFI (cfiCond127) V1 load(1, XDATA, add(CFA_XSP16, literal(-9)))
          CFI (cfiCond127) V2 load(1, XDATA, add(CFA_XSP16, literal(-8)))
          CFI (cfiCond127) V3 load(1, XDATA, add(CFA_XSP16, literal(-7)))
          CFI (cfiCond127) R7 load(1, XDATA, add(CFA_XSP16, literal(-6)))
          CFI (cfiCond127) ?RET_LOW load(1, XDATA, add(CFA_XSP16, literal(-5)))
          CFI (cfiCond127) ?RET_HIGH load(1, XDATA, add(CFA_XSP16, literal(-4)))
          CFI (cfiCond127) ?BRET_EXT load(1, XDATA, add(CFA_XSP16, literal(-3)))
          CFI (cfiCond127) DPL0 load(1, XDATA, add(CFA_XSP16, literal(-2)))
          CFI (cfiCond127) DPH0 load(1, XDATA, add(CFA_XSP16, literal(-1)))
          CFI (cfiCond127) CFA_SP SP+0
          CFI (cfiCond127) CFA_XSP16 add(XSP16, 17)
          CFI Block cfiCond128 Using cfiCommon0
          CFI (cfiCond128) Function zllInitiator_event_loop
          CFI (cfiCond128) Conditional ??CrossCallReturnLabel_92, ??CrossCallReturnLabel_11
          CFI (cfiCond128) R6 load(1, XDATA, add(CFA_XSP16, literal(-16)))
          CFI (cfiCond128) VB load(1, XDATA, add(CFA_XSP16, literal(-15)))
          CFI (cfiCond128) V0 load(1, XDATA, add(CFA_XSP16, literal(-14)))
          CFI (cfiCond128) V1 load(1, XDATA, add(CFA_XSP16, literal(-13)))
          CFI (cfiCond128) V2 load(1, XDATA, add(CFA_XSP16, literal(-12)))
          CFI (cfiCond128) V3 load(1, XDATA, add(CFA_XSP16, literal(-11)))
          CFI (cfiCond128) V4 load(1, XDATA, add(CFA_XSP16, literal(-10)))
          CFI (cfiCond128) V5 load(1, XDATA, add(CFA_XSP16, literal(-9)))
          CFI (cfiCond128) V6 load(1, XDATA, add(CFA_XSP16, literal(-8)))
          CFI (cfiCond128) V7 load(1, XDATA, add(CFA_XSP16, literal(-7)))
          CFI (cfiCond128) R7 load(1, XDATA, add(CFA_XSP16, literal(-6)))
          CFI (cfiCond128) ?RET_LOW load(1, XDATA, add(CFA_XSP16, literal(-5)))
          CFI (cfiCond128) ?RET_HIGH load(1, XDATA, add(CFA_XSP16, literal(-4)))
          CFI (cfiCond128) ?BRET_EXT load(1, XDATA, add(CFA_XSP16, literal(-3)))
          CFI (cfiCond128) DPL0 load(1, XDATA, add(CFA_XSP16, literal(-2)))
          CFI (cfiCond128) DPH0 load(1, XDATA, add(CFA_XSP16, literal(-1)))
          CFI (cfiCond128) CFA_SP SP+0
          CFI (cfiCond128) CFA_XSP16 add(XSP16, 30)
          CFI Block cfiCond129 Using cfiCommon0
          CFI (cfiCond129) Function zllInitiator_event_loop
          CFI (cfiCond129) Conditional ??CrossCallReturnLabel_92, ??CrossCallReturnLabel_12
          CFI (cfiCond129) R6 load(1, XDATA, add(CFA_XSP16, literal(-16)))
          CFI (cfiCond129) VB load(1, XDATA, add(CFA_XSP16, literal(-15)))
          CFI (cfiCond129) V0 load(1, XDATA, add(CFA_XSP16, literal(-14)))
          CFI (cfiCond129) V1 load(1, XDATA, add(CFA_XSP16, literal(-13)))
          CFI (cfiCond129) V2 load(1, XDATA, add(CFA_XSP16, literal(-12)))
          CFI (cfiCond129) V3 load(1, XDATA, add(CFA_XSP16, literal(-11)))
          CFI (cfiCond129) V4 load(1, XDATA, add(CFA_XSP16, literal(-10)))
          CFI (cfiCond129) V5 load(1, XDATA, add(CFA_XSP16, literal(-9)))
          CFI (cfiCond129) V6 load(1, XDATA, add(CFA_XSP16, literal(-8)))
          CFI (cfiCond129) V7 load(1, XDATA, add(CFA_XSP16, literal(-7)))
          CFI (cfiCond129) R7 load(1, XDATA, add(CFA_XSP16, literal(-6)))
          CFI (cfiCond129) ?RET_LOW load(1, XDATA, add(CFA_XSP16, literal(-5)))
          CFI (cfiCond129) ?RET_HIGH load(1, XDATA, add(CFA_XSP16, literal(-4)))
          CFI (cfiCond129) ?BRET_EXT load(1, XDATA, add(CFA_XSP16, literal(-3)))
          CFI (cfiCond129) DPL0 load(1, XDATA, add(CFA_XSP16, literal(-2)))
          CFI (cfiCond129) DPH0 load(1, XDATA, add(CFA_XSP16, literal(-1)))
          CFI (cfiCond129) CFA_SP SP+0
          CFI (cfiCond129) CFA_XSP16 add(XSP16, 30)
          CFI Block cfiCond130 Using cfiCommon0
          CFI (cfiCond130) Function zllInitiator_event_loop
          CFI (cfiCond130) Conditional ??CrossCallReturnLabel_91, ??CrossCallReturnLabel_9
          CFI (cfiCond130) R6 load(1, XDATA, add(CFA_XSP16, literal(-16)))
          CFI (cfiCond130) VB load(1, XDATA, add(CFA_XSP16, literal(-15)))
          CFI (cfiCond130) V0 load(1, XDATA, add(CFA_XSP16, literal(-14)))
          CFI (cfiCond130) V1 load(1, XDATA, add(CFA_XSP16, literal(-13)))
          CFI (cfiCond130) V2 load(1, XDATA, add(CFA_XSP16, literal(-12)))
          CFI (cfiCond130) V3 load(1, XDATA, add(CFA_XSP16, literal(-11)))
          CFI (cfiCond130) V4 load(1, XDATA, add(CFA_XSP16, literal(-10)))
          CFI (cfiCond130) V5 load(1, XDATA, add(CFA_XSP16, literal(-9)))
          CFI (cfiCond130) V6 load(1, XDATA, add(CFA_XSP16, literal(-8)))
          CFI (cfiCond130) V7 load(1, XDATA, add(CFA_XSP16, literal(-7)))
          CFI (cfiCond130) R7 load(1, XDATA, add(CFA_XSP16, literal(-6)))
          CFI (cfiCond130) ?RET_LOW load(1, XDATA, add(CFA_XSP16, literal(-5)))
          CFI (cfiCond130) ?RET_HIGH load(1, XDATA, add(CFA_XSP16, literal(-4)))
          CFI (cfiCond130) ?BRET_EXT load(1, XDATA, add(CFA_XSP16, literal(-3)))
          CFI (cfiCond130) DPL0 load(1, XDATA, add(CFA_XSP16, literal(-2)))
          CFI (cfiCond130) DPH0 load(1, XDATA, add(CFA_XSP16, literal(-1)))
          CFI (cfiCond130) CFA_SP SP+0
          CFI (cfiCond130) CFA_XSP16 add(XSP16, 30)
          CFI Block cfiCond131 Using cfiCommon0
          CFI (cfiCond131) Function zllInitiator_event_loop
          CFI (cfiCond131) Conditional ??CrossCallReturnLabel_91, ??CrossCallReturnLabel_10
          CFI (cfiCond131) R6 load(1, XDATA, add(CFA_XSP16, literal(-16)))
          CFI (cfiCond131) VB load(1, XDATA, add(CFA_XSP16, literal(-15)))
          CFI (cfiCond131) V0 load(1, XDATA, add(CFA_XSP16, literal(-14)))
          CFI (cfiCond131) V1 load(1, XDATA, add(CFA_XSP16, literal(-13)))
          CFI (cfiCond131) V2 load(1, XDATA, add(CFA_XSP16, literal(-12)))
          CFI (cfiCond131) V3 load(1, XDATA, add(CFA_XSP16, literal(-11)))
          CFI (cfiCond131) V4 load(1, XDATA, add(CFA_XSP16, literal(-10)))
          CFI (cfiCond131) V5 load(1, XDATA, add(CFA_XSP16, literal(-9)))
          CFI (cfiCond131) V6 load(1, XDATA, add(CFA_XSP16, literal(-8)))
          CFI (cfiCond131) V7 load(1, XDATA, add(CFA_XSP16, literal(-7)))
          CFI (cfiCond131) R7 load(1, XDATA, add(CFA_XSP16, literal(-6)))
          CFI (cfiCond131) ?RET_LOW load(1, XDATA, add(CFA_XSP16, literal(-5)))
          CFI (cfiCond131) ?RET_HIGH load(1, XDATA, add(CFA_XSP16, literal(-4)))
          CFI (cfiCond131) ?BRET_EXT load(1, XDATA, add(CFA_XSP16, literal(-3)))
          CFI (cfiCond131) DPL0 load(1, XDATA, add(CFA_XSP16, literal(-2)))
          CFI (cfiCond131) DPH0 load(1, XDATA, add(CFA_XSP16, literal(-1)))
          CFI (cfiCond131) CFA_SP SP+0
          CFI (cfiCond131) CFA_XSP16 add(XSP16, 30)
          CFI Block cfiCond132 Using cfiCommon0
          CFI (cfiCond132) Function zllInitiator_event_loop
          CFI (cfiCond132) Conditional ??CrossCallReturnLabel_90, ??CrossCallReturnLabel_7
          CFI (cfiCond132) R6 load(1, XDATA, add(CFA_XSP16, literal(-16)))
          CFI (cfiCond132) VB load(1, XDATA, add(CFA_XSP16, literal(-15)))
          CFI (cfiCond132) V0 load(1, XDATA, add(CFA_XSP16, literal(-14)))
          CFI (cfiCond132) V1 load(1, XDATA, add(CFA_XSP16, literal(-13)))
          CFI (cfiCond132) V2 load(1, XDATA, add(CFA_XSP16, literal(-12)))
          CFI (cfiCond132) V3 load(1, XDATA, add(CFA_XSP16, literal(-11)))
          CFI (cfiCond132) V4 load(1, XDATA, add(CFA_XSP16, literal(-10)))
          CFI (cfiCond132) V5 load(1, XDATA, add(CFA_XSP16, literal(-9)))
          CFI (cfiCond132) V6 load(1, XDATA, add(CFA_XSP16, literal(-8)))
          CFI (cfiCond132) V7 load(1, XDATA, add(CFA_XSP16, literal(-7)))
          CFI (cfiCond132) R7 load(1, XDATA, add(CFA_XSP16, literal(-6)))
          CFI (cfiCond132) ?RET_LOW load(1, XDATA, add(CFA_XSP16, literal(-5)))
          CFI (cfiCond132) ?RET_HIGH load(1, XDATA, add(CFA_XSP16, literal(-4)))
          CFI (cfiCond132) ?BRET_EXT load(1, XDATA, add(CFA_XSP16, literal(-3)))
          CFI (cfiCond132) DPL0 load(1, XDATA, add(CFA_XSP16, literal(-2)))
          CFI (cfiCond132) DPH0 load(1, XDATA, add(CFA_XSP16, literal(-1)))
          CFI (cfiCond132) CFA_SP SP+0
          CFI (cfiCond132) CFA_XSP16 add(XSP16, 30)
          CFI Block cfiCond133 Using cfiCommon0
          CFI (cfiCond133) Function zllInitiator_event_loop
          CFI (cfiCond133) Conditional ??CrossCallReturnLabel_90, ??CrossCallReturnLabel_8
          CFI (cfiCond133) R6 load(1, XDATA, add(CFA_XSP16, literal(-16)))
          CFI (cfiCond133) VB load(1, XDATA, add(CFA_XSP16, literal(-15)))
          CFI (cfiCond133) V0 load(1, XDATA, add(CFA_XSP16, literal(-14)))
          CFI (cfiCond133) V1 load(1, XDATA, add(CFA_XSP16, literal(-13)))
          CFI (cfiCond133) V2 load(1, XDATA, add(CFA_XSP16, literal(-12)))
          CFI (cfiCond133) V3 load(1, XDATA, add(CFA_XSP16, literal(-11)))
          CFI (cfiCond133) V4 load(1, XDATA, add(CFA_XSP16, literal(-10)))
          CFI (cfiCond133) V5 load(1, XDATA, add(CFA_XSP16, literal(-9)))
          CFI (cfiCond133) V6 load(1, XDATA, add(CFA_XSP16, literal(-8)))
          CFI (cfiCond133) V7 load(1, XDATA, add(CFA_XSP16, literal(-7)))
          CFI (cfiCond133) R7 load(1, XDATA, add(CFA_XSP16, literal(-6)))
          CFI (cfiCond133) ?RET_LOW load(1, XDATA, add(CFA_XSP16, literal(-5)))
          CFI (cfiCond133) ?RET_HIGH load(1, XDATA, add(CFA_XSP16, literal(-4)))
          CFI (cfiCond133) ?BRET_EXT load(1, XDATA, add(CFA_XSP16, literal(-3)))
          CFI (cfiCond133) DPL0 load(1, XDATA, add(CFA_XSP16, literal(-2)))
          CFI (cfiCond133) DPH0 load(1, XDATA, add(CFA_XSP16, literal(-1)))
          CFI (cfiCond133) CFA_SP SP+0
          CFI (cfiCond133) CFA_XSP16 add(XSP16, 30)
          CFI Block cfiCond134 Using cfiCommon0
          CFI (cfiCond134) Function zllInitiator_event_loop
          CFI (cfiCond134) Conditional ??CrossCallReturnLabel_89, ??CrossCallReturnLabel_5
          CFI (cfiCond134) R6 load(1, XDATA, add(CFA_XSP16, literal(-16)))
          CFI (cfiCond134) VB load(1, XDATA, add(CFA_XSP16, literal(-15)))
          CFI (cfiCond134) V0 load(1, XDATA, add(CFA_XSP16, literal(-14)))
          CFI (cfiCond134) V1 load(1, XDATA, add(CFA_XSP16, literal(-13)))
          CFI (cfiCond134) V2 load(1, XDATA, add(CFA_XSP16, literal(-12)))
          CFI (cfiCond134) V3 load(1, XDATA, add(CFA_XSP16, literal(-11)))
          CFI (cfiCond134) V4 load(1, XDATA, add(CFA_XSP16, literal(-10)))
          CFI (cfiCond134) V5 load(1, XDATA, add(CFA_XSP16, literal(-9)))
          CFI (cfiCond134) V6 load(1, XDATA, add(CFA_XSP16, literal(-8)))
          CFI (cfiCond134) V7 load(1, XDATA, add(CFA_XSP16, literal(-7)))
          CFI (cfiCond134) R7 load(1, XDATA, add(CFA_XSP16, literal(-6)))
          CFI (cfiCond134) ?RET_LOW load(1, XDATA, add(CFA_XSP16, literal(-5)))
          CFI (cfiCond134) ?RET_HIGH load(1, XDATA, add(CFA_XSP16, literal(-4)))
          CFI (cfiCond134) ?BRET_EXT load(1, XDATA, add(CFA_XSP16, literal(-3)))
          CFI (cfiCond134) DPL0 load(1, XDATA, add(CFA_XSP16, literal(-2)))
          CFI (cfiCond134) DPH0 load(1, XDATA, add(CFA_XSP16, literal(-1)))
          CFI (cfiCond134) CFA_SP SP+0
          CFI (cfiCond134) CFA_XSP16 add(XSP16, 30)
          CFI Block cfiCond135 Using cfiCommon0
          CFI (cfiCond135) Function zllInitiator_event_loop
          CFI (cfiCond135) Conditional ??CrossCallReturnLabel_89, ??CrossCallReturnLabel_6
          CFI (cfiCond135) R6 load(1, XDATA, add(CFA_XSP16, literal(-16)))
          CFI (cfiCond135) VB load(1, XDATA, add(CFA_XSP16, literal(-15)))
          CFI (cfiCond135) V0 load(1, XDATA, add(CFA_XSP16, literal(-14)))
          CFI (cfiCond135) V1 load(1, XDATA, add(CFA_XSP16, literal(-13)))
          CFI (cfiCond135) V2 load(1, XDATA, add(CFA_XSP16, literal(-12)))
          CFI (cfiCond135) V3 load(1, XDATA, add(CFA_XSP16, literal(-11)))
          CFI (cfiCond135) V4 load(1, XDATA, add(CFA_XSP16, literal(-10)))
          CFI (cfiCond135) V5 load(1, XDATA, add(CFA_XSP16, literal(-9)))
          CFI (cfiCond135) V6 load(1, XDATA, add(CFA_XSP16, literal(-8)))
          CFI (cfiCond135) V7 load(1, XDATA, add(CFA_XSP16, literal(-7)))
          CFI (cfiCond135) R7 load(1, XDATA, add(CFA_XSP16, literal(-6)))
          CFI (cfiCond135) ?RET_LOW load(1, XDATA, add(CFA_XSP16, literal(-5)))
          CFI (cfiCond135) ?RET_HIGH load(1, XDATA, add(CFA_XSP16, literal(-4)))
          CFI (cfiCond135) ?BRET_EXT load(1, XDATA, add(CFA_XSP16, literal(-3)))
          CFI (cfiCond135) DPL0 load(1, XDATA, add(CFA_XSP16, literal(-2)))
          CFI (cfiCond135) DPH0 load(1, XDATA, add(CFA_XSP16, literal(-1)))
          CFI (cfiCond135) CFA_SP SP+0
          CFI (cfiCond135) CFA_XSP16 add(XSP16, 30)
          CFI Block cfiCond136 Using cfiCommon0
          CFI (cfiCond136) Function initiatorSendNwkStartReq
          CFI (cfiCond136) Conditional ??CrossCallReturnLabel_93, ??CrossCallReturnLabel_66
          CFI (cfiCond136) R6 load(1, XDATA, add(CFA_XSP16, literal(-20)))
          CFI (cfiCond136) VB load(1, XDATA, add(CFA_XSP16, literal(-19)))
          CFI (cfiCond136) V0 load(1, XDATA, add(CFA_XSP16, literal(-18)))
          CFI (cfiCond136) V1 load(1, XDATA, add(CFA_XSP16, literal(-17)))
          CFI (cfiCond136) V2 load(1, XDATA, add(CFA_XSP16, literal(-16)))
          CFI (cfiCond136) V3 load(1, XDATA, add(CFA_XSP16, literal(-15)))
          CFI (cfiCond136) V4 load(1, XDATA, add(CFA_XSP16, literal(-14)))
          CFI (cfiCond136) V5 load(1, XDATA, add(CFA_XSP16, literal(-13)))
          CFI (cfiCond136) V6 load(1, XDATA, add(CFA_XSP16, literal(-12)))
          CFI (cfiCond136) V7 load(1, XDATA, add(CFA_XSP16, literal(-11)))
          CFI (cfiCond136) V8 load(1, XDATA, add(CFA_XSP16, literal(-10)))
          CFI (cfiCond136) V9 load(1, XDATA, add(CFA_XSP16, literal(-9)))
          CFI (cfiCond136) V10 load(1, XDATA, add(CFA_XSP16, literal(-8)))
          CFI (cfiCond136) V11 load(1, XDATA, add(CFA_XSP16, literal(-7)))
          CFI (cfiCond136) R7 load(1, XDATA, add(CFA_XSP16, literal(-6)))
          CFI (cfiCond136) ?RET_LOW load(1, XDATA, add(CFA_XSP16, literal(-5)))
          CFI (cfiCond136) ?RET_HIGH load(1, XDATA, add(CFA_XSP16, literal(-4)))
          CFI (cfiCond136) ?BRET_EXT load(1, XDATA, add(CFA_XSP16, literal(-3)))
          CFI (cfiCond136) DPL0 load(1, XDATA, add(CFA_XSP16, literal(-2)))
          CFI (cfiCond136) DPH0 load(1, XDATA, add(CFA_XSP16, literal(-1)))
          CFI (cfiCond136) CFA_SP SP+0
          CFI (cfiCond136) CFA_XSP16 add(XSP16, 20)
          CFI Block cfiCond137 Using cfiCommon0
          CFI (cfiCond137) Function initiatorSendNwkJoinReq
          CFI (cfiCond137) Conditional ??CrossCallReturnLabel_93, ??CrossCallReturnLabel_67
          CFI (cfiCond137) R6 load(1, XDATA, add(CFA_XSP16, literal(-14)))
          CFI (cfiCond137) VB load(1, XDATA, add(CFA_XSP16, literal(-13)))
          CFI (cfiCond137) V0 load(1, XDATA, add(CFA_XSP16, literal(-12)))
          CFI (cfiCond137) V1 load(1, XDATA, add(CFA_XSP16, literal(-11)))
          CFI (cfiCond137) V2 load(1, XDATA, add(CFA_XSP16, literal(-10)))
          CFI (cfiCond137) V3 load(1, XDATA, add(CFA_XSP16, literal(-9)))
          CFI (cfiCond137) V4 load(1, XDATA, add(CFA_XSP16, literal(-8)))
          CFI (cfiCond137) V5 load(1, XDATA, add(CFA_XSP16, literal(-7)))
          CFI (cfiCond137) R7 load(1, XDATA, add(CFA_XSP16, literal(-6)))
          CFI (cfiCond137) ?RET_LOW load(1, XDATA, add(CFA_XSP16, literal(-5)))
          CFI (cfiCond137) ?RET_HIGH load(1, XDATA, add(CFA_XSP16, literal(-4)))
          CFI (cfiCond137) ?BRET_EXT load(1, XDATA, add(CFA_XSP16, literal(-3)))
          CFI (cfiCond137) DPL0 load(1, XDATA, add(CFA_XSP16, literal(-2)))
          CFI (cfiCond137) DPH0 load(1, XDATA, add(CFA_XSP16, literal(-1)))
          CFI (cfiCond137) CFA_SP SP+0
          CFI (cfiCond137) CFA_XSP16 add(XSP16, 14)
          CFI Block cfiCond138 Using cfiCommon0
          CFI (cfiCond138) Function zllInitiator_event_loop
          CFI (cfiCond138) Conditional ??CrossCallReturnLabel_97, ??CrossCallReturnLabel_87
          CFI (cfiCond138) R6 load(1, XDATA, add(CFA_XSP16, literal(-16)))
          CFI (cfiCond138) VB load(1, XDATA, add(CFA_XSP16, literal(-15)))
          CFI (cfiCond138) V0 load(1, XDATA, add(CFA_XSP16, literal(-14)))
          CFI (cfiCond138) V1 load(1, XDATA, add(CFA_XSP16, literal(-13)))
          CFI (cfiCond138) V2 load(1, XDATA, add(CFA_XSP16, literal(-12)))
          CFI (cfiCond138) V3 load(1, XDATA, add(CFA_XSP16, literal(-11)))
          CFI (cfiCond138) V4 load(1, XDATA, add(CFA_XSP16, literal(-10)))
          CFI (cfiCond138) V5 load(1, XDATA, add(CFA_XSP16, literal(-9)))
          CFI (cfiCond138) V6 load(1, XDATA, add(CFA_XSP16, literal(-8)))
          CFI (cfiCond138) V7 load(1, XDATA, add(CFA_XSP16, literal(-7)))
          CFI (cfiCond138) R7 load(1, XDATA, add(CFA_XSP16, literal(-6)))
          CFI (cfiCond138) ?RET_LOW load(1, XDATA, add(CFA_XSP16, literal(-5)))
          CFI (cfiCond138) ?RET_HIGH load(1, XDATA, add(CFA_XSP16, literal(-4)))
          CFI (cfiCond138) ?BRET_EXT load(1, XDATA, add(CFA_XSP16, literal(-3)))
          CFI (cfiCond138) DPL0 load(1, XDATA, add(CFA_XSP16, literal(-2)))
          CFI (cfiCond138) DPH0 load(1, XDATA, add(CFA_XSP16, literal(-1)))
          CFI (cfiCond138) CFA_SP SP+0
          CFI (cfiCond138) CFA_XSP16 add(XSP16, 30)
          CFI Block cfiCond139 Using cfiCommon0
          CFI (cfiCond139) Function initiatorIdentifyReqCB
          CFI (cfiCond139) Conditional ??CrossCallReturnLabel_97, ??CrossCallReturnLabel_88
          CFI (cfiCond139) R6 load(1, XDATA, add(CFA_XSP16, literal(-10)))
          CFI (cfiCond139) VB load(1, XDATA, add(CFA_XSP16, literal(-9)))
          CFI (cfiCond139) V0 load(1, XDATA, add(CFA_XSP16, literal(-8)))
          CFI (cfiCond139) V1 load(1, XDATA, add(CFA_XSP16, literal(-7)))
          CFI (cfiCond139) R7 load(1, XDATA, add(CFA_XSP16, literal(-6)))
          CFI (cfiCond139) ?RET_LOW load(1, XDATA, add(CFA_XSP16, literal(-5)))
          CFI (cfiCond139) ?RET_HIGH load(1, XDATA, add(CFA_XSP16, literal(-4)))
          CFI (cfiCond139) ?BRET_EXT load(1, XDATA, add(CFA_XSP16, literal(-3)))
          CFI (cfiCond139) DPL0 load(1, XDATA, add(CFA_XSP16, literal(-2)))
          CFI (cfiCond139) DPH0 load(1, XDATA, add(CFA_XSP16, literal(-1)))
          CFI (cfiCond139) CFA_SP SP+0
          CFI (cfiCond139) CFA_XSP16 add(XSP16, 14)
          CFI Block cfiCond140 Using cfiCommon0
          CFI (cfiCond140) Function zllInitiator_StartDevDisc
          CFI (cfiCond140) Conditional ??CrossCallReturnLabel_97, ??CrossCallReturnLabel_74
          CFI (cfiCond140) R6 load(1, XDATA, add(CFA_XSP16, literal(-16)))
          CFI (cfiCond140) VB load(1, XDATA, add(CFA_XSP16, literal(-15)))
          CFI (cfiCond140) V0 load(1, XDATA, add(CFA_XSP16, literal(-14)))
          CFI (cfiCond140) V1 load(1, XDATA, add(CFA_XSP16, literal(-13)))
          CFI (cfiCond140) V2 load(1, XDATA, add(CFA_XSP16, literal(-12)))
          CFI (cfiCond140) V3 load(1, XDATA, add(CFA_XSP16, literal(-11)))
          CFI (cfiCond140) V4 load(1, XDATA, add(CFA_XSP16, literal(-10)))
          CFI (cfiCond140) V5 load(1, XDATA, add(CFA_XSP16, literal(-9)))
          CFI (cfiCond140) V6 load(1, XDATA, add(CFA_XSP16, literal(-8)))
          CFI (cfiCond140) V7 load(1, XDATA, add(CFA_XSP16, literal(-7)))
          CFI (cfiCond140) R7 load(1, XDATA, add(CFA_XSP16, literal(-6)))
          CFI (cfiCond140) ?RET_LOW load(1, XDATA, add(CFA_XSP16, literal(-5)))
          CFI (cfiCond140) ?RET_HIGH load(1, XDATA, add(CFA_XSP16, literal(-4)))
          CFI (cfiCond140) ?BRET_EXT load(1, XDATA, add(CFA_XSP16, literal(-3)))
          CFI (cfiCond140) DPL0 load(1, XDATA, add(CFA_XSP16, literal(-2)))
          CFI (cfiCond140) DPH0 load(1, XDATA, add(CFA_XSP16, literal(-1)))
          CFI (cfiCond140) CFA_SP SP+0
          CFI (cfiCond140) CFA_XSP16 add(XSP16, 17)
          CFI Block cfiCond141 Using cfiCommon0
          CFI (cfiCond141) Function zllInitiator_StartDevDisc
          CFI (cfiCond141) Conditional ??CrossCallReturnLabel_97, ??CrossCallReturnLabel_75
          CFI (cfiCond141) R6 load(1, XDATA, add(CFA_XSP16, literal(-16)))
          CFI (cfiCond141) VB load(1, XDATA, add(CFA_XSP16, literal(-15)))
          CFI (cfiCond141) V0 load(1, XDATA, add(CFA_XSP16, literal(-14)))
          CFI (cfiCond141) V1 load(1, XDATA, add(CFA_XSP16, literal(-13)))
          CFI (cfiCond141) V2 load(1, XDATA, add(CFA_XSP16, literal(-12)))
          CFI (cfiCond141) V3 load(1, XDATA, add(CFA_XSP16, literal(-11)))
          CFI (cfiCond141) V4 load(1, XDATA, add(CFA_XSP16, literal(-10)))
          CFI (cfiCond141) V5 load(1, XDATA, add(CFA_XSP16, literal(-9)))
          CFI (cfiCond141) V6 load(1, XDATA, add(CFA_XSP16, literal(-8)))
          CFI (cfiCond141) V7 load(1, XDATA, add(CFA_XSP16, literal(-7)))
          CFI (cfiCond141) R7 load(1, XDATA, add(CFA_XSP16, literal(-6)))
          CFI (cfiCond141) ?RET_LOW load(1, XDATA, add(CFA_XSP16, literal(-5)))
          CFI (cfiCond141) ?RET_HIGH load(1, XDATA, add(CFA_XSP16, literal(-4)))
          CFI (cfiCond141) ?BRET_EXT load(1, XDATA, add(CFA_XSP16, literal(-3)))
          CFI (cfiCond141) DPL0 load(1, XDATA, add(CFA_XSP16, literal(-2)))
          CFI (cfiCond141) DPH0 load(1, XDATA, add(CFA_XSP16, literal(-1)))
          CFI (cfiCond141) CFA_SP SP+0
          CFI (cfiCond141) CFA_XSP16 add(XSP16, 17)
          CFI Block cfiCond142 Using cfiCommon0
          CFI (cfiCond142) Function zllInitiator_StartDevDisc
          CFI (cfiCond142) Conditional ??CrossCallReturnLabel_97, ??CrossCallReturnLabel_76
          CFI (cfiCond142) R6 load(1, XDATA, add(CFA_XSP16, literal(-16)))
          CFI (cfiCond142) VB load(1, XDATA, add(CFA_XSP16, literal(-15)))
          CFI (cfiCond142) V0 load(1, XDATA, add(CFA_XSP16, literal(-14)))
          CFI (cfiCond142) V1 load(1, XDATA, add(CFA_XSP16, literal(-13)))
          CFI (cfiCond142) V2 load(1, XDATA, add(CFA_XSP16, literal(-12)))
          CFI (cfiCond142) V3 load(1, XDATA, add(CFA_XSP16, literal(-11)))
          CFI (cfiCond142) V4 load(1, XDATA, add(CFA_XSP16, literal(-10)))
          CFI (cfiCond142) V5 load(1, XDATA, add(CFA_XSP16, literal(-9)))
          CFI (cfiCond142) V6 load(1, XDATA, add(CFA_XSP16, literal(-8)))
          CFI (cfiCond142) V7 load(1, XDATA, add(CFA_XSP16, literal(-7)))
          CFI (cfiCond142) R7 load(1, XDATA, add(CFA_XSP16, literal(-6)))
          CFI (cfiCond142) ?RET_LOW load(1, XDATA, add(CFA_XSP16, literal(-5)))
          CFI (cfiCond142) ?RET_HIGH load(1, XDATA, add(CFA_XSP16, literal(-4)))
          CFI (cfiCond142) ?BRET_EXT load(1, XDATA, add(CFA_XSP16, literal(-3)))
          CFI (cfiCond142) DPL0 load(1, XDATA, add(CFA_XSP16, literal(-2)))
          CFI (cfiCond142) DPH0 load(1, XDATA, add(CFA_XSP16, literal(-1)))
          CFI (cfiCond142) CFA_SP SP+0
          CFI (cfiCond142) CFA_XSP16 add(XSP16, 17)
          CFI Block cfiCond143 Using cfiCommon0
          CFI (cfiCond143) Function zllInitiator_event_loop
          CFI (cfiCond143) Conditional ??CrossCallReturnLabel_97, ??CrossCallReturnLabel_77
          CFI (cfiCond143) R6 load(1, XDATA, add(CFA_XSP16, literal(-16)))
          CFI (cfiCond143) VB load(1, XDATA, add(CFA_XSP16, literal(-15)))
          CFI (cfiCond143) V0 load(1, XDATA, add(CFA_XSP16, literal(-14)))
          CFI (cfiCond143) V1 load(1, XDATA, add(CFA_XSP16, literal(-13)))
          CFI (cfiCond143) V2 load(1, XDATA, add(CFA_XSP16, literal(-12)))
          CFI (cfiCond143) V3 load(1, XDATA, add(CFA_XSP16, literal(-11)))
          CFI (cfiCond143) V4 load(1, XDATA, add(CFA_XSP16, literal(-10)))
          CFI (cfiCond143) V5 load(1, XDATA, add(CFA_XSP16, literal(-9)))
          CFI (cfiCond143) V6 load(1, XDATA, add(CFA_XSP16, literal(-8)))
          CFI (cfiCond143) V7 load(1, XDATA, add(CFA_XSP16, literal(-7)))
          CFI (cfiCond143) R7 load(1, XDATA, add(CFA_XSP16, literal(-6)))
          CFI (cfiCond143) ?RET_LOW load(1, XDATA, add(CFA_XSP16, literal(-5)))
          CFI (cfiCond143) ?RET_HIGH load(1, XDATA, add(CFA_XSP16, literal(-4)))
          CFI (cfiCond143) ?BRET_EXT load(1, XDATA, add(CFA_XSP16, literal(-3)))
          CFI (cfiCond143) DPL0 load(1, XDATA, add(CFA_XSP16, literal(-2)))
          CFI (cfiCond143) DPH0 load(1, XDATA, add(CFA_XSP16, literal(-1)))
          CFI (cfiCond143) CFA_SP SP+0
          CFI (cfiCond143) CFA_XSP16 add(XSP16, 30)
          CFI Block cfiCond144 Using cfiCommon0
          CFI (cfiCond144) Function initiatorSetNwkToInitState
          CFI (cfiCond144) Conditional ??CrossCallReturnLabel_97, ??CrossCallReturnLabel_78
          CFI (cfiCond144) DPL0 Frame(CFA_SP, 4)
          CFI (cfiCond144) DPH0 Frame(CFA_SP, 5)
          CFI (cfiCond144) CFA_SP SP+-5
          CFI Block cfiCond145 Using cfiCommon0
          CFI (cfiCond145) Function initiatorSetNwkToInitState
          CFI (cfiCond145) Conditional ??CrossCallReturnLabel_97, ??CrossCallReturnLabel_79
          CFI (cfiCond145) DPL0 Frame(CFA_SP, 4)
          CFI (cfiCond145) DPH0 Frame(CFA_SP, 5)
          CFI (cfiCond145) CFA_SP SP+-5
          CFI Block cfiCond146 Using cfiCommon0
          CFI (cfiCond146) Function initiatorSetNwkToInitState
          CFI (cfiCond146) Conditional ??CrossCallReturnLabel_97, ??CrossCallReturnLabel_80
          CFI (cfiCond146) DPL0 Frame(CFA_SP, 4)
          CFI (cfiCond146) DPH0 Frame(CFA_SP, 5)
          CFI (cfiCond146) CFA_SP SP+-5
          CFI Block cfiCond147 Using cfiCommon0
          CFI (cfiCond147) Function initiatorSendNwkStartReq
          CFI (cfiCond147) Conditional ??CrossCallReturnLabel_97, ??CrossCallReturnLabel_81
          CFI (cfiCond147) R6 load(1, XDATA, add(CFA_XSP16, literal(-20)))
          CFI (cfiCond147) VB load(1, XDATA, add(CFA_XSP16, literal(-19)))
          CFI (cfiCond147) V0 load(1, XDATA, add(CFA_XSP16, literal(-18)))
          CFI (cfiCond147) V1 load(1, XDATA, add(CFA_XSP16, literal(-17)))
          CFI (cfiCond147) V2 load(1, XDATA, add(CFA_XSP16, literal(-16)))
          CFI (cfiCond147) V3 load(1, XDATA, add(CFA_XSP16, literal(-15)))
          CFI (cfiCond147) V4 load(1, XDATA, add(CFA_XSP16, literal(-14)))
          CFI (cfiCond147) V5 load(1, XDATA, add(CFA_XSP16, literal(-13)))
          CFI (cfiCond147) V6 load(1, XDATA, add(CFA_XSP16, literal(-12)))
          CFI (cfiCond147) V7 load(1, XDATA, add(CFA_XSP16, literal(-11)))
          CFI (cfiCond147) V8 load(1, XDATA, add(CFA_XSP16, literal(-10)))
          CFI (cfiCond147) V9 load(1, XDATA, add(CFA_XSP16, literal(-9)))
          CFI (cfiCond147) V10 load(1, XDATA, add(CFA_XSP16, literal(-8)))
          CFI (cfiCond147) V11 load(1, XDATA, add(CFA_XSP16, literal(-7)))
          CFI (cfiCond147) R7 load(1, XDATA, add(CFA_XSP16, literal(-6)))
          CFI (cfiCond147) ?RET_LOW load(1, XDATA, add(CFA_XSP16, literal(-5)))
          CFI (cfiCond147) ?RET_HIGH load(1, XDATA, add(CFA_XSP16, literal(-4)))
          CFI (cfiCond147) ?BRET_EXT load(1, XDATA, add(CFA_XSP16, literal(-3)))
          CFI (cfiCond147) DPL0 load(1, XDATA, add(CFA_XSP16, literal(-2)))
          CFI (cfiCond147) DPH0 load(1, XDATA, add(CFA_XSP16, literal(-1)))
          CFI (cfiCond147) CFA_SP SP+0
          CFI (cfiCond147) CFA_XSP16 add(XSP16, 20)
          CFI Block cfiCond148 Using cfiCommon0
          CFI (cfiCond148) Function initiatorReJoinNwk
          CFI (cfiCond148) Conditional ??CrossCallReturnLabel_97, ??CrossCallReturnLabel_82
          CFI (cfiCond148) R6 load(1, XDATA, add(CFA_XSP16, literal(-9)))
          CFI (cfiCond148) VB load(1, XDATA, add(CFA_XSP16, literal(-8)))
          CFI (cfiCond148) V0 load(1, XDATA, add(CFA_XSP16, literal(-7)))
          CFI (cfiCond148) R7 load(1, XDATA, add(CFA_XSP16, literal(-6)))
          CFI (cfiCond148) ?RET_LOW load(1, XDATA, add(CFA_XSP16, literal(-5)))
          CFI (cfiCond148) ?RET_HIGH load(1, XDATA, add(CFA_XSP16, literal(-4)))
          CFI (cfiCond148) ?BRET_EXT load(1, XDATA, add(CFA_XSP16, literal(-3)))
          CFI (cfiCond148) DPL0 load(1, XDATA, add(CFA_XSP16, literal(-2)))
          CFI (cfiCond148) DPH0 load(1, XDATA, add(CFA_XSP16, literal(-1)))
          CFI (cfiCond148) CFA_SP SP+0
          CFI (cfiCond148) CFA_XSP16 add(XSP16, 9)
          CFI Block cfiCond149 Using cfiCommon0
          CFI (cfiCond149) Function initiatorDeviceInfoRspCB
          CFI (cfiCond149) Conditional ??CrossCallReturnLabel_97, ??CrossCallReturnLabel_83
          CFI (cfiCond149) R6 load(1, XDATA, add(CFA_XSP16, literal(-14)))
          CFI (cfiCond149) VB load(1, XDATA, add(CFA_XSP16, literal(-13)))
          CFI (cfiCond149) V0 load(1, XDATA, add(CFA_XSP16, literal(-12)))
          CFI (cfiCond149) V1 load(1, XDATA, add(CFA_XSP16, literal(-11)))
          CFI (cfiCond149) V2 load(1, XDATA, add(CFA_XSP16, literal(-10)))
          CFI (cfiCond149) V3 load(1, XDATA, add(CFA_XSP16, literal(-9)))
          CFI (cfiCond149) V4 load(1, XDATA, add(CFA_XSP16, literal(-8)))
          CFI (cfiCond149) V5 load(1, XDATA, add(CFA_XSP16, literal(-7)))
          CFI (cfiCond149) R7 load(1, XDATA, add(CFA_XSP16, literal(-6)))
          CFI (cfiCond149) ?RET_LOW load(1, XDATA, add(CFA_XSP16, literal(-5)))
          CFI (cfiCond149) ?RET_HIGH load(1, XDATA, add(CFA_XSP16, literal(-4)))
          CFI (cfiCond149) ?BRET_EXT load(1, XDATA, add(CFA_XSP16, literal(-3)))
          CFI (cfiCond149) DPL0 load(1, XDATA, add(CFA_XSP16, literal(-2)))
          CFI (cfiCond149) DPH0 load(1, XDATA, add(CFA_XSP16, literal(-1)))
          CFI (cfiCond149) CFA_SP SP+0
          CFI (cfiCond149) CFA_XSP16 add(XSP16, 52)
          CFI Block cfiCond150 Using cfiCommon0
          CFI (cfiCond150) Function initiatorNwkUpdateReqCB
          CFI (cfiCond150) Conditional ??CrossCallReturnLabel_97, ??CrossCallReturnLabel_84
          CFI (cfiCond150) R6 load(1, XDATA, add(CFA_XSP16, literal(-10)))
          CFI (cfiCond150) VB load(1, XDATA, add(CFA_XSP16, literal(-9)))
          CFI (cfiCond150) V0 load(1, XDATA, add(CFA_XSP16, literal(-8)))
          CFI (cfiCond150) V1 load(1, XDATA, add(CFA_XSP16, literal(-7)))
          CFI (cfiCond150) R7 load(1, XDATA, add(CFA_XSP16, literal(-6)))
          CFI (cfiCond150) ?RET_LOW load(1, XDATA, add(CFA_XSP16, literal(-5)))
          CFI (cfiCond150) ?RET_HIGH load(1, XDATA, add(CFA_XSP16, literal(-4)))
          CFI (cfiCond150) ?BRET_EXT load(1, XDATA, add(CFA_XSP16, literal(-3)))
          CFI (cfiCond150) DPL0 load(1, XDATA, add(CFA_XSP16, literal(-2)))
          CFI (cfiCond150) DPH0 load(1, XDATA, add(CFA_XSP16, literal(-1)))
          CFI (cfiCond150) CFA_SP SP+0
          CFI (cfiCond150) CFA_XSP16 add(XSP16, 10)
          CFI Block cfiCond151 Using cfiCommon0
          CFI (cfiCond151) Function zllInitiator_SendEPInfo
          CFI (cfiCond151) Conditional ??CrossCallReturnLabel_97, ??CrossCallReturnLabel_85
          CFI (cfiCond151) R6 load(1, XDATA, add(CFA_XSP16, literal(-11)))
          CFI (cfiCond151) VB load(1, XDATA, add(CFA_XSP16, literal(-10)))
          CFI (cfiCond151) V0 load(1, XDATA, add(CFA_XSP16, literal(-9)))
          CFI (cfiCond151) V1 load(1, XDATA, add(CFA_XSP16, literal(-8)))
          CFI (cfiCond151) V2 load(1, XDATA, add(CFA_XSP16, literal(-7)))
          CFI (cfiCond151) R7 load(1, XDATA, add(CFA_XSP16, literal(-6)))
          CFI (cfiCond151) ?RET_LOW load(1, XDATA, add(CFA_XSP16, literal(-5)))
          CFI (cfiCond151) ?RET_HIGH load(1, XDATA, add(CFA_XSP16, literal(-4)))
          CFI (cfiCond151) ?BRET_EXT load(1, XDATA, add(CFA_XSP16, literal(-3)))
          CFI (cfiCond151) DPL0 load(1, XDATA, add(CFA_XSP16, literal(-2)))
          CFI (cfiCond151) DPH0 load(1, XDATA, add(CFA_XSP16, literal(-1)))
          CFI (cfiCond151) CFA_SP SP+0
          CFI (cfiCond151) CFA_XSP16 add(XSP16, 34)
          CFI Block cfiCond152 Using cfiCommon0
          CFI (cfiCond152) Function zllInitiator_SendEPInfo
          CFI (cfiCond152) Conditional ??CrossCallReturnLabel_97, ??CrossCallReturnLabel_86
          CFI (cfiCond152) R6 load(1, XDATA, add(CFA_XSP16, literal(-11)))
          CFI (cfiCond152) VB load(1, XDATA, add(CFA_XSP16, literal(-10)))
          CFI (cfiCond152) V0 load(1, XDATA, add(CFA_XSP16, literal(-9)))
          CFI (cfiCond152) V1 load(1, XDATA, add(CFA_XSP16, literal(-8)))
          CFI (cfiCond152) V2 load(1, XDATA, add(CFA_XSP16, literal(-7)))
          CFI (cfiCond152) R7 load(1, XDATA, add(CFA_XSP16, literal(-6)))
          CFI (cfiCond152) ?RET_LOW load(1, XDATA, add(CFA_XSP16, literal(-5)))
          CFI (cfiCond152) ?RET_HIGH load(1, XDATA, add(CFA_XSP16, literal(-4)))
          CFI (cfiCond152) ?BRET_EXT load(1, XDATA, add(CFA_XSP16, literal(-3)))
          CFI (cfiCond152) DPL0 load(1, XDATA, add(CFA_XSP16, literal(-2)))
          CFI (cfiCond152) DPH0 load(1, XDATA, add(CFA_XSP16, literal(-1)))
          CFI (cfiCond152) CFA_SP SP+0
          CFI (cfiCond152) CFA_XSP16 add(XSP16, 34)
          CFI Block cfiCond153 Using cfiCommon0
          CFI (cfiCond153) Function zllInitiator_event_loop
          CFI (cfiCond153) Conditional ??CrossCallReturnLabel_95, ??CrossCallReturnLabel_25
          CFI (cfiCond153) R6 load(1, XDATA, add(CFA_XSP16, literal(-16)))
          CFI (cfiCond153) VB load(1, XDATA, add(CFA_XSP16, literal(-15)))
          CFI (cfiCond153) V0 load(1, XDATA, add(CFA_XSP16, literal(-14)))
          CFI (cfiCond153) V1 load(1, XDATA, add(CFA_XSP16, literal(-13)))
          CFI (cfiCond153) V2 load(1, XDATA, add(CFA_XSP16, literal(-12)))
          CFI (cfiCond153) V3 load(1, XDATA, add(CFA_XSP16, literal(-11)))
          CFI (cfiCond153) V4 load(1, XDATA, add(CFA_XSP16, literal(-10)))
          CFI (cfiCond153) V5 load(1, XDATA, add(CFA_XSP16, literal(-9)))
          CFI (cfiCond153) V6 load(1, XDATA, add(CFA_XSP16, literal(-8)))
          CFI (cfiCond153) V7 load(1, XDATA, add(CFA_XSP16, literal(-7)))
          CFI (cfiCond153) R7 load(1, XDATA, add(CFA_XSP16, literal(-6)))
          CFI (cfiCond153) ?RET_LOW load(1, XDATA, add(CFA_XSP16, literal(-5)))
          CFI (cfiCond153) ?RET_HIGH load(1, XDATA, add(CFA_XSP16, literal(-4)))
          CFI (cfiCond153) ?BRET_EXT load(1, XDATA, add(CFA_XSP16, literal(-3)))
          CFI (cfiCond153) DPL0 load(1, XDATA, add(CFA_XSP16, literal(-2)))
          CFI (cfiCond153) DPH0 load(1, XDATA, add(CFA_XSP16, literal(-1)))
          CFI (cfiCond153) CFA_SP SP+0
          CFI (cfiCond153) CFA_XSP16 add(XSP16, 30)
          CFI Block cfiCond154 Using cfiCommon0
          CFI (cfiCond154) Function zllInitiator_event_loop
          CFI (cfiCond154) Conditional ??CrossCallReturnLabel_95, ??CrossCallReturnLabel_26
          CFI (cfiCond154) R6 load(1, XDATA, add(CFA_XSP16, literal(-16)))
          CFI (cfiCond154) VB load(1, XDATA, add(CFA_XSP16, literal(-15)))
          CFI (cfiCond154) V0 load(1, XDATA, add(CFA_XSP16, literal(-14)))
          CFI (cfiCond154) V1 load(1, XDATA, add(CFA_XSP16, literal(-13)))
          CFI (cfiCond154) V2 load(1, XDATA, add(CFA_XSP16, literal(-12)))
          CFI (cfiCond154) V3 load(1, XDATA, add(CFA_XSP16, literal(-11)))
          CFI (cfiCond154) V4 load(1, XDATA, add(CFA_XSP16, literal(-10)))
          CFI (cfiCond154) V5 load(1, XDATA, add(CFA_XSP16, literal(-9)))
          CFI (cfiCond154) V6 load(1, XDATA, add(CFA_XSP16, literal(-8)))
          CFI (cfiCond154) V7 load(1, XDATA, add(CFA_XSP16, literal(-7)))
          CFI (cfiCond154) R7 load(1, XDATA, add(CFA_XSP16, literal(-6)))
          CFI (cfiCond154) ?RET_LOW load(1, XDATA, add(CFA_XSP16, literal(-5)))
          CFI (cfiCond154) ?RET_HIGH load(1, XDATA, add(CFA_XSP16, literal(-4)))
          CFI (cfiCond154) ?BRET_EXT load(1, XDATA, add(CFA_XSP16, literal(-3)))
          CFI (cfiCond154) DPL0 load(1, XDATA, add(CFA_XSP16, literal(-2)))
          CFI (cfiCond154) DPH0 load(1, XDATA, add(CFA_XSP16, literal(-1)))
          CFI (cfiCond154) CFA_SP SP+0
          CFI (cfiCond154) CFA_XSP16 add(XSP16, 30)
          CFI Block cfiCond155 Using cfiCommon0
          CFI (cfiCond155) Function zllInitiator_event_loop
          CFI (cfiCond155) Conditional ??CrossCallReturnLabel_94, ??CrossCallReturnLabel_2
          CFI (cfiCond155) R6 load(1, XDATA, add(CFA_XSP16, literal(-16)))
          CFI (cfiCond155) VB load(1, XDATA, add(CFA_XSP16, literal(-15)))
          CFI (cfiCond155) V0 load(1, XDATA, add(CFA_XSP16, literal(-14)))
          CFI (cfiCond155) V1 load(1, XDATA, add(CFA_XSP16, literal(-13)))
          CFI (cfiCond155) V2 load(1, XDATA, add(CFA_XSP16, literal(-12)))
          CFI (cfiCond155) V3 load(1, XDATA, add(CFA_XSP16, literal(-11)))
          CFI (cfiCond155) V4 load(1, XDATA, add(CFA_XSP16, literal(-10)))
          CFI (cfiCond155) V5 load(1, XDATA, add(CFA_XSP16, literal(-9)))
          CFI (cfiCond155) V6 load(1, XDATA, add(CFA_XSP16, literal(-8)))
          CFI (cfiCond155) V7 load(1, XDATA, add(CFA_XSP16, literal(-7)))
          CFI (cfiCond155) R7 load(1, XDATA, add(CFA_XSP16, literal(-6)))
          CFI (cfiCond155) ?RET_LOW load(1, XDATA, add(CFA_XSP16, literal(-5)))
          CFI (cfiCond155) ?RET_HIGH load(1, XDATA, add(CFA_XSP16, literal(-4)))
          CFI (cfiCond155) ?BRET_EXT load(1, XDATA, add(CFA_XSP16, literal(-3)))
          CFI (cfiCond155) DPL0 load(1, XDATA, add(CFA_XSP16, literal(-2)))
          CFI (cfiCond155) DPH0 load(1, XDATA, add(CFA_XSP16, literal(-1)))
          CFI (cfiCond155) CFA_SP SP+0
          CFI (cfiCond155) CFA_XSP16 add(XSP16, 30)
          CFI Block cfiCond156 Using cfiCommon0
          CFI (cfiCond156) Function initiatorSendNwkJoinReq
          CFI (cfiCond156) Conditional ??CrossCallReturnLabel_94, ??CrossCallReturnLabel_3
          CFI (cfiCond156) R6 load(1, XDATA, add(CFA_XSP16, literal(-14)))
          CFI (cfiCond156) VB load(1, XDATA, add(CFA_XSP16, literal(-13)))
          CFI (cfiCond156) V0 load(1, XDATA, add(CFA_XSP16, literal(-12)))
          CFI (cfiCond156) V1 load(1, XDATA, add(CFA_XSP16, literal(-11)))
          CFI (cfiCond156) V2 load(1, XDATA, add(CFA_XSP16, literal(-10)))
          CFI (cfiCond156) V3 load(1, XDATA, add(CFA_XSP16, literal(-9)))
          CFI (cfiCond156) V4 load(1, XDATA, add(CFA_XSP16, literal(-8)))
          CFI (cfiCond156) V5 load(1, XDATA, add(CFA_XSP16, literal(-7)))
          CFI (cfiCond156) R7 load(1, XDATA, add(CFA_XSP16, literal(-6)))
          CFI (cfiCond156) ?RET_LOW load(1, XDATA, add(CFA_XSP16, literal(-5)))
          CFI (cfiCond156) ?RET_HIGH load(1, XDATA, add(CFA_XSP16, literal(-4)))
          CFI (cfiCond156) ?BRET_EXT load(1, XDATA, add(CFA_XSP16, literal(-3)))
          CFI (cfiCond156) DPL0 load(1, XDATA, add(CFA_XSP16, literal(-2)))
          CFI (cfiCond156) DPH0 load(1, XDATA, add(CFA_XSP16, literal(-1)))
          CFI (cfiCond156) CFA_SP SP+0
          CFI (cfiCond156) CFA_XSP16 add(XSP16, 14)
          CFI Block cfiCond157 Using cfiCommon0
          CFI (cfiCond157) Function zllInitiator_SendEPInfo
          CFI (cfiCond157) Conditional ??CrossCallReturnLabel_94, ??CrossCallReturnLabel_4
          CFI (cfiCond157) R6 load(1, XDATA, add(CFA_XSP16, literal(-11)))
          CFI (cfiCond157) VB load(1, XDATA, add(CFA_XSP16, literal(-10)))
          CFI (cfiCond157) V0 load(1, XDATA, add(CFA_XSP16, literal(-9)))
          CFI (cfiCond157) V1 load(1, XDATA, add(CFA_XSP16, literal(-8)))
          CFI (cfiCond157) V2 load(1, XDATA, add(CFA_XSP16, literal(-7)))
          CFI (cfiCond157) R7 load(1, XDATA, add(CFA_XSP16, literal(-6)))
          CFI (cfiCond157) ?RET_LOW load(1, XDATA, add(CFA_XSP16, literal(-5)))
          CFI (cfiCond157) ?RET_HIGH load(1, XDATA, add(CFA_XSP16, literal(-4)))
          CFI (cfiCond157) ?BRET_EXT load(1, XDATA, add(CFA_XSP16, literal(-3)))
          CFI (cfiCond157) DPL0 load(1, XDATA, add(CFA_XSP16, literal(-2)))
          CFI (cfiCond157) DPH0 load(1, XDATA, add(CFA_XSP16, literal(-1)))
          CFI (cfiCond157) CFA_SP SP+0
          CFI (cfiCond157) CFA_XSP16 add(XSP16, 34)
          CFI Block cfiPicker158 Using cfiCommon1
          CFI (cfiPicker158) NoFunction
          CFI (cfiPicker158) Picker
        MOVX    A,@DPTR
        MOV     R0,A
        INC     DPTR
        MOVX    A,@DPTR
        MOV     R1,A
        RET
          CFI EndBlock cfiCond124
          CFI EndBlock cfiCond125
          CFI EndBlock cfiCond126
          CFI EndBlock cfiCond127
          CFI EndBlock cfiCond128
          CFI EndBlock cfiCond129
          CFI EndBlock cfiCond130
          CFI EndBlock cfiCond131
          CFI EndBlock cfiCond132
          CFI EndBlock cfiCond133
          CFI EndBlock cfiCond134
          CFI EndBlock cfiCond135
          CFI EndBlock cfiCond136
          CFI EndBlock cfiCond137
          CFI EndBlock cfiCond138
          CFI EndBlock cfiCond139
          CFI EndBlock cfiCond140
          CFI EndBlock cfiCond141
          CFI EndBlock cfiCond142
          CFI EndBlock cfiCond143
          CFI EndBlock cfiCond144
          CFI EndBlock cfiCond145
          CFI EndBlock cfiCond146
          CFI EndBlock cfiCond147
          CFI EndBlock cfiCond148
          CFI EndBlock cfiCond149
          CFI EndBlock cfiCond150
          CFI EndBlock cfiCond151
          CFI EndBlock cfiCond152
          CFI EndBlock cfiCond153
          CFI EndBlock cfiCond154
          CFI EndBlock cfiCond155
          CFI EndBlock cfiCond156
          CFI EndBlock cfiCond157
          CFI EndBlock cfiPicker158
// 1408 
// 1409 /*********************************************************************
// 1410  * @fn      initiatorSendNwkUpdateReq
// 1411  *
// 1412  * @brief   Send out a Network Update Request command.
// 1413  *
// 1414  * @param   pRsp - received Scan Response
// 1415  *
// 1416  * @return  ZStatus_t
// 1417  */
// 1418 static ZStatus_t initiatorSendNwkUpdateReq( zclLLScanRsp_t *pRsp )
// 1419 {
// 1420   zclLLNwkUpdateReq_t *pReq;
// 1421   ZStatus_t status;
// 1422 
// 1423   pReq = (zclLLNwkUpdateReq_t *)osal_mem_alloc( sizeof( zclLLNwkUpdateReq_t ) );
// 1424   if ( pReq!= NULL )
// 1425   {
// 1426     // Build the request
// 1427     pReq->transID = pRsp->transID;
// 1428     osal_cpyExtAddr( pReq->extendedPANID, _NIB.extendedPANID );
// 1429     pReq->nwkUpdateId = _NIB.nwkUpdateId;
// 1430     pReq->logicalChannel = _NIB.nwkLogicalChannel;
// 1431     pReq->PANID = _NIB.nwkPanId;
// 1432     pReq->nwkAddr = pRsp->nwkAddr;
// 1433 
// 1434     status = zclLL_Send_NwkUpdateReq( ZLL_INTERNAL_ENDPOINT, &(selectedTarget.srcAddr), pReq, initiatorSeqNum++ );
// 1435 
// 1436     osal_mem_free( pReq );
// 1437   }
// 1438   else
// 1439   {
// 1440     status = ZMemError;
// 1441   }
// 1442 
// 1443   return ( status );
// 1444 }
// 1445 
// 1446 //#define ZLL_ORPHAN_JOIN // Uncomment this line for Orphan Joining
// 1447 
// 1448 /*********************************************************************
// 1449  * @fn      initiatorReJoinNwk
// 1450  *
// 1451  * @brief   Send out an Rejoin Request or Orphan Join Request command
// 1452  *          depending on the Start Mode.
// 1453  *
// 1454  * @param   startMode - MODE_REJOIN or MODE_RESUME
// 1455  *
// 1456  * @return  none
// 1457  */

        RSEG BANKED_CODE:CODE:NOROOT(0)
// 1458 static void initiatorReJoinNwk( devStartModes_t startMode )
initiatorReJoinNwk:
          CFI Block cfiBlock159 Using cfiCommon0
          CFI Function initiatorReJoinNwk
        CODE
// 1459 {
        FUNCALL initiatorReJoinNwk, nwk_setStateIdle
        LOCFRAME ISTACK, 0, STACK
        LOCFRAME PSTACK, 0, STACK
        LOCFRAME XSTACK, 9, STACK
        LOCFRAME IOVERLAY, 0, STATIC
        LOCFRAME DOVERLAY, 0, STATIC
        ARGFRAME ISTACK, 0, STACK
        ARGFRAME PSTACK, 0, STACK
        ARGFRAME XSTACK, 9, STACK
        ARGFRAME IOVERLAY, 0, STATIC
        ARGFRAME DOVERLAY, 0, STATIC
        FUNCALL initiatorReJoinNwk, zll_SetMacNwkParams
        LOCFRAME ISTACK, 0, STACK
        LOCFRAME PSTACK, 0, STACK
        LOCFRAME XSTACK, 9, STACK
        LOCFRAME IOVERLAY, 0, STATIC
        LOCFRAME DOVERLAY, 0, STATIC
        ARGFRAME ISTACK, 0, STACK
        ARGFRAME PSTACK, 0, STACK
        ARGFRAME XSTACK, 9, STACK
        ARGFRAME IOVERLAY, 0, STATIC
        ARGFRAME DOVERLAY, 0, STATIC
        FUNCALL initiatorReJoinNwk, sAddrExtCpy
        LOCFRAME ISTACK, 0, STACK
        LOCFRAME PSTACK, 0, STACK
        LOCFRAME XSTACK, 9, STACK
        LOCFRAME IOVERLAY, 0, STATIC
        LOCFRAME DOVERLAY, 0, STATIC
        ARGFRAME ISTACK, 0, STACK
        ARGFRAME PSTACK, 0, STACK
        ARGFRAME XSTACK, 9, STACK
        ARGFRAME IOVERLAY, 0, STATIC
        ARGFRAME DOVERLAY, 0, STATIC
        FUNCALL initiatorReJoinNwk, osal_set_event
        LOCFRAME ISTACK, 0, STACK
        LOCFRAME PSTACK, 0, STACK
        LOCFRAME XSTACK, 9, STACK
        LOCFRAME IOVERLAY, 0, STATIC
        LOCFRAME DOVERLAY, 0, STATIC
        ARGFRAME ISTACK, 0, STACK
        ARGFRAME PSTACK, 0, STACK
        ARGFRAME XSTACK, 9, STACK
        ARGFRAME IOVERLAY, 0, STATIC
        ARGFRAME DOVERLAY, 0, STATIC
        MOV     A,#-0x9
        LCALL   ?BANKED_ENTER_XDATA
          CFI DPH0 load(1, XDATA, add(CFA_XSP16, literal(-1)))
          CFI DPL0 load(1, XDATA, add(CFA_XSP16, literal(-2)))
          CFI ?BRET_EXT load(1, XDATA, add(CFA_XSP16, literal(-3)))
          CFI ?RET_HIGH load(1, XDATA, add(CFA_XSP16, literal(-4)))
          CFI ?RET_LOW load(1, XDATA, add(CFA_XSP16, literal(-5)))
          CFI R7 load(1, XDATA, add(CFA_XSP16, literal(-6)))
          CFI V0 load(1, XDATA, add(CFA_XSP16, literal(-7)))
          CFI VB load(1, XDATA, add(CFA_XSP16, literal(-8)))
          CFI R6 load(1, XDATA, add(CFA_XSP16, literal(-9)))
          CFI CFA_SP SP+0
          CFI CFA_XSP16 add(XSP16, 9)
        ; Saved register size: 9
        ; Auto size: 0
        MOV     A,R1
        MOV     R6,A
// 1460   // Set NWK task to run
// 1461   nwk_setStateIdle( FALSE );
        ; Setup parameters for call to function nwk_setStateIdle
        MOV     R1,#0x0
        LCALL   ??nwk_setStateIdle?relay
// 1462 
// 1463   // Configure MAC with our network parameters
// 1464   zll_SetMacNwkParams( _NIB.nwkDevAddress, _NIB.nwkPanId, _NIB.nwkLogicalChannel );
        ; Setup parameters for call to function zll_SetMacNwkParams
        LCALL   ?Subroutine16 & 0xFFFF
??CrossCallReturnLabel_116:
        LCALL   ??zll_SetMacNwkParams?relay
// 1465 
// 1466   // Use the new network paramters
// 1467   zgConfigPANID = _NIB.nwkPanId;
        MOV     DPTR,#_NIB + 33
        LCALL   ??Subroutine42_0 & 0xFFFF
??CrossCallReturnLabel_82:
        MOV     DPTR,#zgConfigPANID
        LCALL   ??Subroutine39_0 & 0xFFFF
// 1468   zgDefaultChannelList = _NIB.channelList;
??CrossCallReturnLabel_62:
        MOV     DPTR,#_NIB + 36
        LCALL   ?XLOAD_R2345
        MOV     DPTR,#zgDefaultChannelList
        LCALL   ?XSTORE_R2345
// 1469   osal_cpyExtAddr( ZDO_UseExtendedPANID, _NIB.extendedPANID );
        ; Setup parameters for call to function sAddrExtCpy
        MOV     R4,#(_NIB + 53) & 0xff
        MOV     R5,#((_NIB + 53) >> 8) & 0xff
        MOV     R2,#ZDO_UseExtendedPANID & 0xff
        MOV     R3,#(ZDO_UseExtendedPANID >> 8) & 0xff
        LCALL   ??sAddrExtCpy?relay
// 1470 
// 1471 #ifdef ZLL_ORPHAN_JOIN
// 1472   devStartMode = MODE_RESUME;
// 1473 #else
// 1474   devStartMode = startMode;
        MOV     A,R6
        MOV     DPTR,#devStartMode
        MOVX    @DPTR,A
// 1475 #endif
// 1476 
// 1477   _tmpRejoinState = TRUE;
        MOV     DPTR,#_tmpRejoinState
        MOV     A,#0x1
        MOVX    @DPTR,A
// 1478 
// 1479   // Start the network joining process
// 1480   osal_set_event( ZDAppTaskID, ZDO_NETWORK_INIT );
        ; Setup parameters for call to function osal_set_event
        MOV     R2,A
        MOV     R3,#0x0
        MOV     DPTR,#ZDAppTaskID
        MOVX    A,@DPTR
        MOV     R1,A
        LCALL   ??osal_set_event?relay
// 1481 }
        LJMP    ?Subroutine2 & 0xFFFF
          CFI EndBlock cfiBlock159

        RSEG BANKED_CODE:CODE:NOROOT(0)
?Subroutine23:
          CFI Block cfiCond160 Using cfiCommon0
          CFI Function zllInitiator_event_loop
          CFI Conditional ??CrossCallReturnLabel_87
          CFI R6 load(1, XDATA, add(CFA_XSP16, literal(-16)))
          CFI VB load(1, XDATA, add(CFA_XSP16, literal(-15)))
          CFI V0 load(1, XDATA, add(CFA_XSP16, literal(-14)))
          CFI V1 load(1, XDATA, add(CFA_XSP16, literal(-13)))
          CFI V2 load(1, XDATA, add(CFA_XSP16, literal(-12)))
          CFI V3 load(1, XDATA, add(CFA_XSP16, literal(-11)))
          CFI V4 load(1, XDATA, add(CFA_XSP16, literal(-10)))
          CFI V5 load(1, XDATA, add(CFA_XSP16, literal(-9)))
          CFI V6 load(1, XDATA, add(CFA_XSP16, literal(-8)))
          CFI V7 load(1, XDATA, add(CFA_XSP16, literal(-7)))
          CFI R7 load(1, XDATA, add(CFA_XSP16, literal(-6)))
          CFI ?RET_LOW load(1, XDATA, add(CFA_XSP16, literal(-5)))
          CFI ?RET_HIGH load(1, XDATA, add(CFA_XSP16, literal(-4)))
          CFI ?BRET_EXT load(1, XDATA, add(CFA_XSP16, literal(-3)))
          CFI DPL0 load(1, XDATA, add(CFA_XSP16, literal(-2)))
          CFI DPH0 load(1, XDATA, add(CFA_XSP16, literal(-1)))
          CFI CFA_SP SP+0
          CFI CFA_XSP16 add(XSP16, 30)
          CFI Block cfiCond161 Using cfiCommon0
          CFI (cfiCond161) Function initiatorIdentifyReqCB
          CFI (cfiCond161) Conditional ??CrossCallReturnLabel_88
          CFI (cfiCond161) R6 load(1, XDATA, add(CFA_XSP16, literal(-10)))
          CFI (cfiCond161) VB load(1, XDATA, add(CFA_XSP16, literal(-9)))
          CFI (cfiCond161) V0 load(1, XDATA, add(CFA_XSP16, literal(-8)))
          CFI (cfiCond161) V1 load(1, XDATA, add(CFA_XSP16, literal(-7)))
          CFI (cfiCond161) R7 load(1, XDATA, add(CFA_XSP16, literal(-6)))
          CFI (cfiCond161) ?RET_LOW load(1, XDATA, add(CFA_XSP16, literal(-5)))
          CFI (cfiCond161) ?RET_HIGH load(1, XDATA, add(CFA_XSP16, literal(-4)))
          CFI (cfiCond161) ?BRET_EXT load(1, XDATA, add(CFA_XSP16, literal(-3)))
          CFI (cfiCond161) DPL0 load(1, XDATA, add(CFA_XSP16, literal(-2)))
          CFI (cfiCond161) DPH0 load(1, XDATA, add(CFA_XSP16, literal(-1)))
          CFI (cfiCond161) CFA_SP SP+0
          CFI (cfiCond161) CFA_XSP16 add(XSP16, 14)
          CFI Block cfiPicker162 Using cfiCommon1
          CFI (cfiPicker162) NoFunction
          CFI (cfiPicker162) Picker
        INC     DPTR
        INC     DPTR
        INC     DPTR
        INC     DPTR
          CFI EndBlock cfiCond160
          CFI EndBlock cfiCond161
          CFI EndBlock cfiPicker162
        REQUIRE ??Subroutine42_0
        ; // Fall through to label ??Subroutine42_0

        RSEG BANKED_CODE:CODE:NOROOT(0)
??Subroutine42_0:
          CFI Block cfiCond163 Using cfiCommon0
          CFI Function zllInitiator_StartDevDisc
          CFI Conditional ??CrossCallReturnLabel_74
          CFI R6 load(1, XDATA, add(CFA_XSP16, literal(-16)))
          CFI VB load(1, XDATA, add(CFA_XSP16, literal(-15)))
          CFI V0 load(1, XDATA, add(CFA_XSP16, literal(-14)))
          CFI V1 load(1, XDATA, add(CFA_XSP16, literal(-13)))
          CFI V2 load(1, XDATA, add(CFA_XSP16, literal(-12)))
          CFI V3 load(1, XDATA, add(CFA_XSP16, literal(-11)))
          CFI V4 load(1, XDATA, add(CFA_XSP16, literal(-10)))
          CFI V5 load(1, XDATA, add(CFA_XSP16, literal(-9)))
          CFI V6 load(1, XDATA, add(CFA_XSP16, literal(-8)))
          CFI V7 load(1, XDATA, add(CFA_XSP16, literal(-7)))
          CFI R7 load(1, XDATA, add(CFA_XSP16, literal(-6)))
          CFI ?RET_LOW load(1, XDATA, add(CFA_XSP16, literal(-5)))
          CFI ?RET_HIGH load(1, XDATA, add(CFA_XSP16, literal(-4)))
          CFI ?BRET_EXT load(1, XDATA, add(CFA_XSP16, literal(-3)))
          CFI DPL0 load(1, XDATA, add(CFA_XSP16, literal(-2)))
          CFI DPH0 load(1, XDATA, add(CFA_XSP16, literal(-1)))
          CFI CFA_SP SP+0
          CFI CFA_XSP16 add(XSP16, 17)
          CFI Block cfiCond164 Using cfiCommon0
          CFI (cfiCond164) Function zllInitiator_StartDevDisc
          CFI (cfiCond164) Conditional ??CrossCallReturnLabel_75
          CFI (cfiCond164) R6 load(1, XDATA, add(CFA_XSP16, literal(-16)))
          CFI (cfiCond164) VB load(1, XDATA, add(CFA_XSP16, literal(-15)))
          CFI (cfiCond164) V0 load(1, XDATA, add(CFA_XSP16, literal(-14)))
          CFI (cfiCond164) V1 load(1, XDATA, add(CFA_XSP16, literal(-13)))
          CFI (cfiCond164) V2 load(1, XDATA, add(CFA_XSP16, literal(-12)))
          CFI (cfiCond164) V3 load(1, XDATA, add(CFA_XSP16, literal(-11)))
          CFI (cfiCond164) V4 load(1, XDATA, add(CFA_XSP16, literal(-10)))
          CFI (cfiCond164) V5 load(1, XDATA, add(CFA_XSP16, literal(-9)))
          CFI (cfiCond164) V6 load(1, XDATA, add(CFA_XSP16, literal(-8)))
          CFI (cfiCond164) V7 load(1, XDATA, add(CFA_XSP16, literal(-7)))
          CFI (cfiCond164) R7 load(1, XDATA, add(CFA_XSP16, literal(-6)))
          CFI (cfiCond164) ?RET_LOW load(1, XDATA, add(CFA_XSP16, literal(-5)))
          CFI (cfiCond164) ?RET_HIGH load(1, XDATA, add(CFA_XSP16, literal(-4)))
          CFI (cfiCond164) ?BRET_EXT load(1, XDATA, add(CFA_XSP16, literal(-3)))
          CFI (cfiCond164) DPL0 load(1, XDATA, add(CFA_XSP16, literal(-2)))
          CFI (cfiCond164) DPH0 load(1, XDATA, add(CFA_XSP16, literal(-1)))
          CFI (cfiCond164) CFA_SP SP+0
          CFI (cfiCond164) CFA_XSP16 add(XSP16, 17)
          CFI Block cfiCond165 Using cfiCommon0
          CFI (cfiCond165) Function zllInitiator_StartDevDisc
          CFI (cfiCond165) Conditional ??CrossCallReturnLabel_76
          CFI (cfiCond165) R6 load(1, XDATA, add(CFA_XSP16, literal(-16)))
          CFI (cfiCond165) VB load(1, XDATA, add(CFA_XSP16, literal(-15)))
          CFI (cfiCond165) V0 load(1, XDATA, add(CFA_XSP16, literal(-14)))
          CFI (cfiCond165) V1 load(1, XDATA, add(CFA_XSP16, literal(-13)))
          CFI (cfiCond165) V2 load(1, XDATA, add(CFA_XSP16, literal(-12)))
          CFI (cfiCond165) V3 load(1, XDATA, add(CFA_XSP16, literal(-11)))
          CFI (cfiCond165) V4 load(1, XDATA, add(CFA_XSP16, literal(-10)))
          CFI (cfiCond165) V5 load(1, XDATA, add(CFA_XSP16, literal(-9)))
          CFI (cfiCond165) V6 load(1, XDATA, add(CFA_XSP16, literal(-8)))
          CFI (cfiCond165) V7 load(1, XDATA, add(CFA_XSP16, literal(-7)))
          CFI (cfiCond165) R7 load(1, XDATA, add(CFA_XSP16, literal(-6)))
          CFI (cfiCond165) ?RET_LOW load(1, XDATA, add(CFA_XSP16, literal(-5)))
          CFI (cfiCond165) ?RET_HIGH load(1, XDATA, add(CFA_XSP16, literal(-4)))
          CFI (cfiCond165) ?BRET_EXT load(1, XDATA, add(CFA_XSP16, literal(-3)))
          CFI (cfiCond165) DPL0 load(1, XDATA, add(CFA_XSP16, literal(-2)))
          CFI (cfiCond165) DPH0 load(1, XDATA, add(CFA_XSP16, literal(-1)))
          CFI (cfiCond165) CFA_SP SP+0
          CFI (cfiCond165) CFA_XSP16 add(XSP16, 17)
          CFI Block cfiCond166 Using cfiCommon0
          CFI (cfiCond166) Function zllInitiator_event_loop
          CFI (cfiCond166) Conditional ??CrossCallReturnLabel_77
          CFI (cfiCond166) R6 load(1, XDATA, add(CFA_XSP16, literal(-16)))
          CFI (cfiCond166) VB load(1, XDATA, add(CFA_XSP16, literal(-15)))
          CFI (cfiCond166) V0 load(1, XDATA, add(CFA_XSP16, literal(-14)))
          CFI (cfiCond166) V1 load(1, XDATA, add(CFA_XSP16, literal(-13)))
          CFI (cfiCond166) V2 load(1, XDATA, add(CFA_XSP16, literal(-12)))
          CFI (cfiCond166) V3 load(1, XDATA, add(CFA_XSP16, literal(-11)))
          CFI (cfiCond166) V4 load(1, XDATA, add(CFA_XSP16, literal(-10)))
          CFI (cfiCond166) V5 load(1, XDATA, add(CFA_XSP16, literal(-9)))
          CFI (cfiCond166) V6 load(1, XDATA, add(CFA_XSP16, literal(-8)))
          CFI (cfiCond166) V7 load(1, XDATA, add(CFA_XSP16, literal(-7)))
          CFI (cfiCond166) R7 load(1, XDATA, add(CFA_XSP16, literal(-6)))
          CFI (cfiCond166) ?RET_LOW load(1, XDATA, add(CFA_XSP16, literal(-5)))
          CFI (cfiCond166) ?RET_HIGH load(1, XDATA, add(CFA_XSP16, literal(-4)))
          CFI (cfiCond166) ?BRET_EXT load(1, XDATA, add(CFA_XSP16, literal(-3)))
          CFI (cfiCond166) DPL0 load(1, XDATA, add(CFA_XSP16, literal(-2)))
          CFI (cfiCond166) DPH0 load(1, XDATA, add(CFA_XSP16, literal(-1)))
          CFI (cfiCond166) CFA_SP SP+0
          CFI (cfiCond166) CFA_XSP16 add(XSP16, 30)
          CFI Block cfiCond167 Using cfiCommon0
          CFI (cfiCond167) Function initiatorSetNwkToInitState
          CFI (cfiCond167) Conditional ??CrossCallReturnLabel_78
          CFI (cfiCond167) DPL0 Frame(CFA_SP, 4)
          CFI (cfiCond167) DPH0 Frame(CFA_SP, 5)
          CFI (cfiCond167) CFA_SP SP+-5
          CFI Block cfiCond168 Using cfiCommon0
          CFI (cfiCond168) Function initiatorSetNwkToInitState
          CFI (cfiCond168) Conditional ??CrossCallReturnLabel_79
          CFI (cfiCond168) DPL0 Frame(CFA_SP, 4)
          CFI (cfiCond168) DPH0 Frame(CFA_SP, 5)
          CFI (cfiCond168) CFA_SP SP+-5
          CFI Block cfiCond169 Using cfiCommon0
          CFI (cfiCond169) Function initiatorSetNwkToInitState
          CFI (cfiCond169) Conditional ??CrossCallReturnLabel_80
          CFI (cfiCond169) DPL0 Frame(CFA_SP, 4)
          CFI (cfiCond169) DPH0 Frame(CFA_SP, 5)
          CFI (cfiCond169) CFA_SP SP+-5
          CFI Block cfiCond170 Using cfiCommon0
          CFI (cfiCond170) Function initiatorSendNwkStartReq
          CFI (cfiCond170) Conditional ??CrossCallReturnLabel_81
          CFI (cfiCond170) R6 load(1, XDATA, add(CFA_XSP16, literal(-20)))
          CFI (cfiCond170) VB load(1, XDATA, add(CFA_XSP16, literal(-19)))
          CFI (cfiCond170) V0 load(1, XDATA, add(CFA_XSP16, literal(-18)))
          CFI (cfiCond170) V1 load(1, XDATA, add(CFA_XSP16, literal(-17)))
          CFI (cfiCond170) V2 load(1, XDATA, add(CFA_XSP16, literal(-16)))
          CFI (cfiCond170) V3 load(1, XDATA, add(CFA_XSP16, literal(-15)))
          CFI (cfiCond170) V4 load(1, XDATA, add(CFA_XSP16, literal(-14)))
          CFI (cfiCond170) V5 load(1, XDATA, add(CFA_XSP16, literal(-13)))
          CFI (cfiCond170) V6 load(1, XDATA, add(CFA_XSP16, literal(-12)))
          CFI (cfiCond170) V7 load(1, XDATA, add(CFA_XSP16, literal(-11)))
          CFI (cfiCond170) V8 load(1, XDATA, add(CFA_XSP16, literal(-10)))
          CFI (cfiCond170) V9 load(1, XDATA, add(CFA_XSP16, literal(-9)))
          CFI (cfiCond170) V10 load(1, XDATA, add(CFA_XSP16, literal(-8)))
          CFI (cfiCond170) V11 load(1, XDATA, add(CFA_XSP16, literal(-7)))
          CFI (cfiCond170) R7 load(1, XDATA, add(CFA_XSP16, literal(-6)))
          CFI (cfiCond170) ?RET_LOW load(1, XDATA, add(CFA_XSP16, literal(-5)))
          CFI (cfiCond170) ?RET_HIGH load(1, XDATA, add(CFA_XSP16, literal(-4)))
          CFI (cfiCond170) ?BRET_EXT load(1, XDATA, add(CFA_XSP16, literal(-3)))
          CFI (cfiCond170) DPL0 load(1, XDATA, add(CFA_XSP16, literal(-2)))
          CFI (cfiCond170) DPH0 load(1, XDATA, add(CFA_XSP16, literal(-1)))
          CFI (cfiCond170) CFA_SP SP+0
          CFI (cfiCond170) CFA_XSP16 add(XSP16, 20)
          CFI Block cfiCond171 Using cfiCommon0
          CFI (cfiCond171) Function initiatorReJoinNwk
          CFI (cfiCond171) Conditional ??CrossCallReturnLabel_82
          CFI (cfiCond171) R6 load(1, XDATA, add(CFA_XSP16, literal(-9)))
          CFI (cfiCond171) VB load(1, XDATA, add(CFA_XSP16, literal(-8)))
          CFI (cfiCond171) V0 load(1, XDATA, add(CFA_XSP16, literal(-7)))
          CFI (cfiCond171) R7 load(1, XDATA, add(CFA_XSP16, literal(-6)))
          CFI (cfiCond171) ?RET_LOW load(1, XDATA, add(CFA_XSP16, literal(-5)))
          CFI (cfiCond171) ?RET_HIGH load(1, XDATA, add(CFA_XSP16, literal(-4)))
          CFI (cfiCond171) ?BRET_EXT load(1, XDATA, add(CFA_XSP16, literal(-3)))
          CFI (cfiCond171) DPL0 load(1, XDATA, add(CFA_XSP16, literal(-2)))
          CFI (cfiCond171) DPH0 load(1, XDATA, add(CFA_XSP16, literal(-1)))
          CFI (cfiCond171) CFA_SP SP+0
          CFI (cfiCond171) CFA_XSP16 add(XSP16, 9)
          CFI Block cfiCond172 Using cfiCommon0
          CFI (cfiCond172) Function initiatorDeviceInfoRspCB
          CFI (cfiCond172) Conditional ??CrossCallReturnLabel_83
          CFI (cfiCond172) R6 load(1, XDATA, add(CFA_XSP16, literal(-14)))
          CFI (cfiCond172) VB load(1, XDATA, add(CFA_XSP16, literal(-13)))
          CFI (cfiCond172) V0 load(1, XDATA, add(CFA_XSP16, literal(-12)))
          CFI (cfiCond172) V1 load(1, XDATA, add(CFA_XSP16, literal(-11)))
          CFI (cfiCond172) V2 load(1, XDATA, add(CFA_XSP16, literal(-10)))
          CFI (cfiCond172) V3 load(1, XDATA, add(CFA_XSP16, literal(-9)))
          CFI (cfiCond172) V4 load(1, XDATA, add(CFA_XSP16, literal(-8)))
          CFI (cfiCond172) V5 load(1, XDATA, add(CFA_XSP16, literal(-7)))
          CFI (cfiCond172) R7 load(1, XDATA, add(CFA_XSP16, literal(-6)))
          CFI (cfiCond172) ?RET_LOW load(1, XDATA, add(CFA_XSP16, literal(-5)))
          CFI (cfiCond172) ?RET_HIGH load(1, XDATA, add(CFA_XSP16, literal(-4)))
          CFI (cfiCond172) ?BRET_EXT load(1, XDATA, add(CFA_XSP16, literal(-3)))
          CFI (cfiCond172) DPL0 load(1, XDATA, add(CFA_XSP16, literal(-2)))
          CFI (cfiCond172) DPH0 load(1, XDATA, add(CFA_XSP16, literal(-1)))
          CFI (cfiCond172) CFA_SP SP+0
          CFI (cfiCond172) CFA_XSP16 add(XSP16, 52)
          CFI Block cfiCond173 Using cfiCommon0
          CFI (cfiCond173) Function initiatorNwkUpdateReqCB
          CFI (cfiCond173) Conditional ??CrossCallReturnLabel_84
          CFI (cfiCond173) R6 load(1, XDATA, add(CFA_XSP16, literal(-10)))
          CFI (cfiCond173) VB load(1, XDATA, add(CFA_XSP16, literal(-9)))
          CFI (cfiCond173) V0 load(1, XDATA, add(CFA_XSP16, literal(-8)))
          CFI (cfiCond173) V1 load(1, XDATA, add(CFA_XSP16, literal(-7)))
          CFI (cfiCond173) R7 load(1, XDATA, add(CFA_XSP16, literal(-6)))
          CFI (cfiCond173) ?RET_LOW load(1, XDATA, add(CFA_XSP16, literal(-5)))
          CFI (cfiCond173) ?RET_HIGH load(1, XDATA, add(CFA_XSP16, literal(-4)))
          CFI (cfiCond173) ?BRET_EXT load(1, XDATA, add(CFA_XSP16, literal(-3)))
          CFI (cfiCond173) DPL0 load(1, XDATA, add(CFA_XSP16, literal(-2)))
          CFI (cfiCond173) DPH0 load(1, XDATA, add(CFA_XSP16, literal(-1)))
          CFI (cfiCond173) CFA_SP SP+0
          CFI (cfiCond173) CFA_XSP16 add(XSP16, 10)
          CFI Block cfiCond174 Using cfiCommon0
          CFI (cfiCond174) Function zllInitiator_SendEPInfo
          CFI (cfiCond174) Conditional ??CrossCallReturnLabel_85
          CFI (cfiCond174) R6 load(1, XDATA, add(CFA_XSP16, literal(-11)))
          CFI (cfiCond174) VB load(1, XDATA, add(CFA_XSP16, literal(-10)))
          CFI (cfiCond174) V0 load(1, XDATA, add(CFA_XSP16, literal(-9)))
          CFI (cfiCond174) V1 load(1, XDATA, add(CFA_XSP16, literal(-8)))
          CFI (cfiCond174) V2 load(1, XDATA, add(CFA_XSP16, literal(-7)))
          CFI (cfiCond174) R7 load(1, XDATA, add(CFA_XSP16, literal(-6)))
          CFI (cfiCond174) ?RET_LOW load(1, XDATA, add(CFA_XSP16, literal(-5)))
          CFI (cfiCond174) ?RET_HIGH load(1, XDATA, add(CFA_XSP16, literal(-4)))
          CFI (cfiCond174) ?BRET_EXT load(1, XDATA, add(CFA_XSP16, literal(-3)))
          CFI (cfiCond174) DPL0 load(1, XDATA, add(CFA_XSP16, literal(-2)))
          CFI (cfiCond174) DPH0 load(1, XDATA, add(CFA_XSP16, literal(-1)))
          CFI (cfiCond174) CFA_SP SP+0
          CFI (cfiCond174) CFA_XSP16 add(XSP16, 34)
          CFI Block cfiCond175 Using cfiCommon0
          CFI (cfiCond175) Function zllInitiator_SendEPInfo
          CFI (cfiCond175) Conditional ??CrossCallReturnLabel_86
          CFI (cfiCond175) R6 load(1, XDATA, add(CFA_XSP16, literal(-11)))
          CFI (cfiCond175) VB load(1, XDATA, add(CFA_XSP16, literal(-10)))
          CFI (cfiCond175) V0 load(1, XDATA, add(CFA_XSP16, literal(-9)))
          CFI (cfiCond175) V1 load(1, XDATA, add(CFA_XSP16, literal(-8)))
          CFI (cfiCond175) V2 load(1, XDATA, add(CFA_XSP16, literal(-7)))
          CFI (cfiCond175) R7 load(1, XDATA, add(CFA_XSP16, literal(-6)))
          CFI (cfiCond175) ?RET_LOW load(1, XDATA, add(CFA_XSP16, literal(-5)))
          CFI (cfiCond175) ?RET_HIGH load(1, XDATA, add(CFA_XSP16, literal(-4)))
          CFI (cfiCond175) ?BRET_EXT load(1, XDATA, add(CFA_XSP16, literal(-3)))
          CFI (cfiCond175) DPL0 load(1, XDATA, add(CFA_XSP16, literal(-2)))
          CFI (cfiCond175) DPH0 load(1, XDATA, add(CFA_XSP16, literal(-1)))
          CFI (cfiCond175) CFA_SP SP+0
          CFI (cfiCond175) CFA_XSP16 add(XSP16, 34)
          CFI Block cfiCond176 Using cfiCommon0
          CFI (cfiCond176) Function zllInitiator_event_loop
          CFI (cfiCond176) Conditional ??CrossCallReturnLabel_87
          CFI (cfiCond176) R6 load(1, XDATA, add(CFA_XSP16, literal(-16)))
          CFI (cfiCond176) VB load(1, XDATA, add(CFA_XSP16, literal(-15)))
          CFI (cfiCond176) V0 load(1, XDATA, add(CFA_XSP16, literal(-14)))
          CFI (cfiCond176) V1 load(1, XDATA, add(CFA_XSP16, literal(-13)))
          CFI (cfiCond176) V2 load(1, XDATA, add(CFA_XSP16, literal(-12)))
          CFI (cfiCond176) V3 load(1, XDATA, add(CFA_XSP16, literal(-11)))
          CFI (cfiCond176) V4 load(1, XDATA, add(CFA_XSP16, literal(-10)))
          CFI (cfiCond176) V5 load(1, XDATA, add(CFA_XSP16, literal(-9)))
          CFI (cfiCond176) V6 load(1, XDATA, add(CFA_XSP16, literal(-8)))
          CFI (cfiCond176) V7 load(1, XDATA, add(CFA_XSP16, literal(-7)))
          CFI (cfiCond176) R7 load(1, XDATA, add(CFA_XSP16, literal(-6)))
          CFI (cfiCond176) ?RET_LOW load(1, XDATA, add(CFA_XSP16, literal(-5)))
          CFI (cfiCond176) ?RET_HIGH load(1, XDATA, add(CFA_XSP16, literal(-4)))
          CFI (cfiCond176) ?BRET_EXT load(1, XDATA, add(CFA_XSP16, literal(-3)))
          CFI (cfiCond176) DPL0 load(1, XDATA, add(CFA_XSP16, literal(-2)))
          CFI (cfiCond176) DPH0 load(1, XDATA, add(CFA_XSP16, literal(-1)))
          CFI (cfiCond176) CFA_SP SP+0
          CFI (cfiCond176) CFA_XSP16 add(XSP16, 30)
          CFI Block cfiCond177 Using cfiCommon0
          CFI (cfiCond177) Function initiatorIdentifyReqCB
          CFI (cfiCond177) Conditional ??CrossCallReturnLabel_88
          CFI (cfiCond177) R6 load(1, XDATA, add(CFA_XSP16, literal(-10)))
          CFI (cfiCond177) VB load(1, XDATA, add(CFA_XSP16, literal(-9)))
          CFI (cfiCond177) V0 load(1, XDATA, add(CFA_XSP16, literal(-8)))
          CFI (cfiCond177) V1 load(1, XDATA, add(CFA_XSP16, literal(-7)))
          CFI (cfiCond177) R7 load(1, XDATA, add(CFA_XSP16, literal(-6)))
          CFI (cfiCond177) ?RET_LOW load(1, XDATA, add(CFA_XSP16, literal(-5)))
          CFI (cfiCond177) ?RET_HIGH load(1, XDATA, add(CFA_XSP16, literal(-4)))
          CFI (cfiCond177) ?BRET_EXT load(1, XDATA, add(CFA_XSP16, literal(-3)))
          CFI (cfiCond177) DPL0 load(1, XDATA, add(CFA_XSP16, literal(-2)))
          CFI (cfiCond177) DPH0 load(1, XDATA, add(CFA_XSP16, literal(-1)))
          CFI (cfiCond177) CFA_SP SP+0
          CFI (cfiCond177) CFA_XSP16 add(XSP16, 14)
          CFI Block cfiPicker178 Using cfiCommon1
          CFI (cfiPicker178) NoFunction
          CFI (cfiPicker178) Picker
        LCALL   ??Subroutine41_0 & 0xFFFF
??CrossCallReturnLabel_97:
        RET
          CFI EndBlock cfiCond163
          CFI EndBlock cfiCond164
          CFI EndBlock cfiCond165
          CFI EndBlock cfiCond166
          CFI EndBlock cfiCond167
          CFI EndBlock cfiCond168
          CFI EndBlock cfiCond169
          CFI EndBlock cfiCond170
          CFI EndBlock cfiCond171
          CFI EndBlock cfiCond172
          CFI EndBlock cfiCond173
          CFI EndBlock cfiCond174
          CFI EndBlock cfiCond175
          CFI EndBlock cfiCond176
          CFI EndBlock cfiCond177
          CFI EndBlock cfiPicker178
// 1482 
// 1483 /*********************************************************************
// 1484  * @fn      initiatorScanReqCB
// 1485  *
// 1486  * @brief   This callback is called to process a Scan Request command.
// 1487  *
// 1488  * @param   srcAddr - sender's address
// 1489  * @param   pReq - parsed command
// 1490  * @param   seqNum - command sequence number
// 1491  *
// 1492  * @return  ZStatus_t
// 1493  */

        RSEG BANKED_CODE:CODE:NOROOT(0)
// 1494 static ZStatus_t initiatorScanReqCB( afAddrType_t *srcAddr, zclLLScanReq_t *pReq, uint8 seqNum )
initiatorScanReqCB:
          CFI Block cfiBlock179 Using cfiCommon0
          CFI Function initiatorScanReqCB
        CODE
// 1495 {
        FUNCALL initiatorScanReqCB, zll_GetMsgRssi
        LOCFRAME ISTACK, 0, STACK
        LOCFRAME PSTACK, 0, STACK
        LOCFRAME XSTACK, 31, STACK
        LOCFRAME IOVERLAY, 0, STATIC
        LOCFRAME DOVERLAY, 0, STATIC
        ARGFRAME ISTACK, 0, STACK
        ARGFRAME PSTACK, 0, STACK
        ARGFRAME XSTACK, 31, STACK
        ARGFRAME IOVERLAY, 0, STATIC
        ARGFRAME DOVERLAY, 0, STATIC
        FUNCALL initiatorScanReqCB, osal_memcpy
        LOCFRAME ISTACK, 0, STACK
        LOCFRAME PSTACK, 0, STACK
        LOCFRAME XSTACK, 34, STACK
        LOCFRAME IOVERLAY, 0, STATIC
        LOCFRAME DOVERLAY, 0, STATIC
        ARGFRAME ISTACK, 0, STACK
        ARGFRAME PSTACK, 0, STACK
        ARGFRAME XSTACK, 34, STACK
        ARGFRAME IOVERLAY, 0, STATIC
        ARGFRAME DOVERLAY, 0, STATIC
        FUNCALL initiatorScanReqCB, zll_IsFactoryNew
        LOCFRAME ISTACK, 0, STACK
        LOCFRAME PSTACK, 0, STACK
        LOCFRAME XSTACK, 31, STACK
        LOCFRAME IOVERLAY, 0, STATIC
        LOCFRAME DOVERLAY, 0, STATIC
        ARGFRAME ISTACK, 0, STACK
        ARGFRAME PSTACK, 0, STACK
        ARGFRAME XSTACK, 31, STACK
        ARGFRAME IOVERLAY, 0, STATIC
        ARGFRAME DOVERLAY, 0, STATIC
        FUNCALL initiatorScanReqCB, osal_get_timeoutEx
        LOCFRAME ISTACK, 0, STACK
        LOCFRAME PSTACK, 0, STACK
        LOCFRAME XSTACK, 31, STACK
        LOCFRAME IOVERLAY, 0, STATIC
        LOCFRAME DOVERLAY, 0, STATIC
        ARGFRAME ISTACK, 0, STACK
        ARGFRAME PSTACK, 0, STACK
        ARGFRAME XSTACK, 31, STACK
        ARGFRAME IOVERLAY, 0, STATIC
        ARGFRAME DOVERLAY, 0, STATIC
        FUNCALL initiatorScanReqCB, zll_SendScanRsp
        LOCFRAME ISTACK, 0, STACK
        LOCFRAME PSTACK, 0, STACK
        LOCFRAME XSTACK, 35, STACK
        LOCFRAME IOVERLAY, 0, STATIC
        LOCFRAME DOVERLAY, 0, STATIC
        ARGFRAME ISTACK, 0, STACK
        ARGFRAME PSTACK, 0, STACK
        ARGFRAME XSTACK, 35, STACK
        ARGFRAME IOVERLAY, 0, STATIC
        ARGFRAME DOVERLAY, 0, STATIC
        FUNCALL initiatorScanReqCB, zll_IsFactoryNew
        LOCFRAME ISTACK, 0, STACK
        LOCFRAME PSTACK, 0, STACK
        LOCFRAME XSTACK, 31, STACK
        LOCFRAME IOVERLAY, 0, STATIC
        LOCFRAME DOVERLAY, 0, STATIC
        ARGFRAME ISTACK, 0, STACK
        ARGFRAME PSTACK, 0, STACK
        ARGFRAME XSTACK, 31, STACK
        ARGFRAME IOVERLAY, 0, STATIC
        ARGFRAME DOVERLAY, 0, STATIC
        FUNCALL initiatorScanReqCB, osal_stop_timerEx
        LOCFRAME ISTACK, 0, STACK
        LOCFRAME PSTACK, 0, STACK
        LOCFRAME XSTACK, 31, STACK
        LOCFRAME IOVERLAY, 0, STATIC
        LOCFRAME DOVERLAY, 0, STATIC
        ARGFRAME ISTACK, 0, STACK
        ARGFRAME PSTACK, 0, STACK
        ARGFRAME XSTACK, 31, STACK
        ARGFRAME IOVERLAY, 0, STATIC
        ARGFRAME DOVERLAY, 0, STATIC
        MOV     A,#-0x13
        LCALL   ?BANKED_ENTER_XDATA
          CFI DPH0 load(1, XDATA, add(CFA_XSP16, literal(-1)))
          CFI DPL0 load(1, XDATA, add(CFA_XSP16, literal(-2)))
          CFI ?BRET_EXT load(1, XDATA, add(CFA_XSP16, literal(-3)))
          CFI ?RET_HIGH load(1, XDATA, add(CFA_XSP16, literal(-4)))
          CFI ?RET_LOW load(1, XDATA, add(CFA_XSP16, literal(-5)))
          CFI R7 load(1, XDATA, add(CFA_XSP16, literal(-6)))
          CFI V10 load(1, XDATA, add(CFA_XSP16, literal(-7)))
          CFI V9 load(1, XDATA, add(CFA_XSP16, literal(-8)))
          CFI V8 load(1, XDATA, add(CFA_XSP16, literal(-9)))
          CFI V7 load(1, XDATA, add(CFA_XSP16, literal(-10)))
          CFI V6 load(1, XDATA, add(CFA_XSP16, literal(-11)))
          CFI V5 load(1, XDATA, add(CFA_XSP16, literal(-12)))
          CFI V4 load(1, XDATA, add(CFA_XSP16, literal(-13)))
          CFI V3 load(1, XDATA, add(CFA_XSP16, literal(-14)))
          CFI V2 load(1, XDATA, add(CFA_XSP16, literal(-15)))
          CFI V1 load(1, XDATA, add(CFA_XSP16, literal(-16)))
          CFI V0 load(1, XDATA, add(CFA_XSP16, literal(-17)))
          CFI VB load(1, XDATA, add(CFA_XSP16, literal(-18)))
          CFI R6 load(1, XDATA, add(CFA_XSP16, literal(-19)))
          CFI CFA_SP SP+0
          CFI CFA_XSP16 add(XSP16, 19)
        ; Saved register size: 19
        ; Auto size: 12
        MOV     A,#-0xc
        LCALL   ?ALLOC_XSTACK8
          CFI CFA_XSP16 add(XSP16, 31)
        MOV     ?V0 + 2,R2
        MOV     ?V0 + 3,R3
        MOV     ?V0 + 0,R4
        MOV     ?V0 + 1,R5
        MOV     ?V0 + 4,R1
// 1496   int8 rssi;
// 1497   rssi = zll_GetMsgRssi();
// 1498   if( ( rssi > ZLL_TL_WORST_RSSI ) && ( pReq->zllLinkInitiator == TRUE ) )
        ; Setup parameters for call to function zll_GetMsgRssi
        LCALL   ??zll_GetMsgRssi?relay
        MOV     A,R1
        LCALL   ?Subroutine26 & 0xFFFF
??CrossCallReturnLabel_28:
        JNC     $+5
        LJMP    ??initiatorScanReqCB_0 & 0xFFFF
        MOV     A,?V0 + 0
        ADD     A,#0x6
        MOV     R6,A
        MOV     A,?V0 + 1
        ADDC    A,#0x0
        MOV     R7,A
        MOV     DPL,R6
        MOV     DPH,R7
        MOVX    A,@DPTR
        ANL     A,#0x10
        JNZ     $+5
        LJMP    ??initiatorScanReqCB_0 & 0xFFFF
// 1499   {
// 1500     // response to the originator, but switch to dst PAN 0xFFFF
// 1501     afAddrType_t dstAddr;
// 1502     osal_memcpy(&dstAddr, srcAddr, sizeof(afAddrType_t));
        ; Setup parameters for call to function osal_memcpy
        MOV     ?V0 + 8,?V0 + 2
        MOV     ?V0 + 9,?V0 + 3
        MOV     ?V0 + 10,#0x0
        MOV     R0,#?V0 + 8
        LCALL   ?PUSH_XSTACK_I_THREE
          CFI CFA_XSP16 add(XSP16, 34)
        MOV     R4,#0xc
        MOV     R5,#0x0
        MOV     A,#0x3
        LCALL   ?XSTACK_DISP0_8
        MOV     R2,DPL
        MOV     R3,DPH
        LCALL   ??osal_memcpy?relay
        MOV     A,#0x3
        LCALL   ?DEALLOC_XSTACK8
          CFI CFA_XSP16 add(XSP16, 31)
// 1503     dstAddr.panId = 0xFFFF;
        MOV     A,#0xa
        LCALL   ?XSTACK_DISP0_8
        MOV     A,#-0x1
        MOVX    @DPTR,A
        INC     DPTR
        MOVX    @DPTR,A
// 1504 
// 1505     // If, during its scan, a non factory new initiator receives another scan
// 1506     // request inter-PAN command frame from a factory new target, it shall be ignored.
// 1507     if ( ( pReq->zllFactoryNew == TRUE ) && !zll_IsFactoryNew() &&
// 1508          osal_get_timeoutEx( zllInitiator_TaskID, ZLL_TL_SCAN_BASE_EVT ) )
        MOV     DPL,R6
        MOV     DPH,R7
        MOVX    A,@DPTR
        MOV     C,0xE0 /* A   */.0
        JNC     ??initiatorScanReqCB_1
        ; Setup parameters for call to function zll_IsFactoryNew
        LCALL   ??zll_IsFactoryNew?relay
        MOV     A,R1
        JNZ     ??initiatorScanReqCB_1
        ; Setup parameters for call to function osal_get_timeoutEx
        MOV     R2,#0x40
        MOV     R3,#0x0
        MOV     DPTR,#zllInitiator_TaskID
        MOVX    A,@DPTR
        MOV     R1,A
        LCALL   ??osal_get_timeoutEx?relay
        MOV     A,R2
        ORL     A,R3
        ORL     A,R4
        ORL     A,R5
        JNZ     ??initiatorScanReqCB_0
// 1509     {
// 1510       return ( ZSuccess );
// 1511     }
// 1512 
// 1513     // Send a Scan Response back
// 1514     if ( zll_SendScanRsp( ZLL_INTERNAL_ENDPOINT, &dstAddr, pReq->transID, seqNum ) == ZSuccess )
??initiatorScanReqCB_1:
        ; Setup parameters for call to function zll_SendScanRsp
        MOV     DPL,?V0 + 0
        MOV     DPH,?V0 + 1
        LCALL   ?PUSH_XSTACK8_X_FOUR
          CFI CFA_XSP16 add(XSP16, 35)
        MOV     R4,?V0 + 4
        MOV     A,#0x4
        LCALL   ?XSTACK_DISP0_8
        MOV     R2,DPL
        MOV     R3,DPH
        MOV     R1,#0xd
        LCALL   ??zll_SendScanRsp?relay
        MOV     A,#0x4
        LCALL   ?DEALLOC_XSTACK8
          CFI CFA_XSP16 add(XSP16, 31)
        MOV     A,R1
        JNZ     ??initiatorScanReqCB_0
// 1515     {
// 1516       // If we're a factory new initiator and are in the middle of a Device
// 1517       // Discovery, stop the procedure and wait for subsequent configuration
// 1518       // information from the non-factory new initiator that we just responded to.
// 1519       if ( zll_IsFactoryNew() && !pReq->zllFactoryNew )
        ; Setup parameters for call to function zll_IsFactoryNew
        LCALL   ??zll_IsFactoryNew?relay
        MOV     A,R1
        JZ      ??initiatorScanReqCB_0
        MOV     DPL,R6
        MOV     DPH,R7
        MOVX    A,@DPTR
        MOV     C,0xE0 /* A   */.0
        JC      ??initiatorScanReqCB_0
// 1520       {
// 1521         osal_stop_timerEx( zllInitiator_TaskID, ZLL_TL_SCAN_BASE_EVT );
        ; Setup parameters for call to function osal_stop_timerEx
        MOV     R2,#0x40
        MOV     R3,#0x0
        MOV     DPTR,#zllInitiator_TaskID
        MOVX    A,@DPTR
        MOV     R1,A
        LCALL   ??osal_stop_timerEx?relay
// 1522 
// 1523       }
// 1524     }
// 1525   }
// 1526 
// 1527   return ( ZSuccess );
??initiatorScanReqCB_0:
        MOV     R1,#0x0
        MOV     A,#0xc
        LCALL   ?DEALLOC_XSTACK8
          CFI CFA_XSP16 add(XSP16, 19)
        MOV     R7,#0xb
        LJMP    ?BANKED_LEAVE_XDATA
          CFI EndBlock cfiBlock179
// 1528 }

        RSEG BANKED_CODE:CODE:NOROOT(0)
?Subroutine26:
          CFI Block cfiCond180 Using cfiCommon0
          CFI Function zllInitiator_event_loop
          CFI Conditional ??CrossCallReturnLabel_27
          CFI R6 load(1, XDATA, add(CFA_XSP16, literal(-16)))
          CFI VB load(1, XDATA, add(CFA_XSP16, literal(-15)))
          CFI V0 load(1, XDATA, add(CFA_XSP16, literal(-14)))
          CFI V1 load(1, XDATA, add(CFA_XSP16, literal(-13)))
          CFI V2 load(1, XDATA, add(CFA_XSP16, literal(-12)))
          CFI V3 load(1, XDATA, add(CFA_XSP16, literal(-11)))
          CFI V4 load(1, XDATA, add(CFA_XSP16, literal(-10)))
          CFI V5 load(1, XDATA, add(CFA_XSP16, literal(-9)))
          CFI V6 load(1, XDATA, add(CFA_XSP16, literal(-8)))
          CFI V7 load(1, XDATA, add(CFA_XSP16, literal(-7)))
          CFI R7 load(1, XDATA, add(CFA_XSP16, literal(-6)))
          CFI ?RET_LOW load(1, XDATA, add(CFA_XSP16, literal(-5)))
          CFI ?RET_HIGH load(1, XDATA, add(CFA_XSP16, literal(-4)))
          CFI ?BRET_EXT load(1, XDATA, add(CFA_XSP16, literal(-3)))
          CFI DPL0 load(1, XDATA, add(CFA_XSP16, literal(-2)))
          CFI DPH0 load(1, XDATA, add(CFA_XSP16, literal(-1)))
          CFI CFA_SP SP+0
          CFI CFA_XSP16 add(XSP16, 30)
          CFI Block cfiCond181 Using cfiCommon0
          CFI (cfiCond181) Function initiatorScanReqCB
          CFI (cfiCond181) Conditional ??CrossCallReturnLabel_28
          CFI (cfiCond181) R6 load(1, XDATA, add(CFA_XSP16, literal(-19)))
          CFI (cfiCond181) VB load(1, XDATA, add(CFA_XSP16, literal(-18)))
          CFI (cfiCond181) V0 load(1, XDATA, add(CFA_XSP16, literal(-17)))
          CFI (cfiCond181) V1 load(1, XDATA, add(CFA_XSP16, literal(-16)))
          CFI (cfiCond181) V2 load(1, XDATA, add(CFA_XSP16, literal(-15)))
          CFI (cfiCond181) V3 load(1, XDATA, add(CFA_XSP16, literal(-14)))
          CFI (cfiCond181) V4 load(1, XDATA, add(CFA_XSP16, literal(-13)))
          CFI (cfiCond181) V5 load(1, XDATA, add(CFA_XSP16, literal(-12)))
          CFI (cfiCond181) V6 load(1, XDATA, add(CFA_XSP16, literal(-11)))
          CFI (cfiCond181) V7 load(1, XDATA, add(CFA_XSP16, literal(-10)))
          CFI (cfiCond181) V8 load(1, XDATA, add(CFA_XSP16, literal(-9)))
          CFI (cfiCond181) V9 load(1, XDATA, add(CFA_XSP16, literal(-8)))
          CFI (cfiCond181) V10 load(1, XDATA, add(CFA_XSP16, literal(-7)))
          CFI (cfiCond181) R7 load(1, XDATA, add(CFA_XSP16, literal(-6)))
          CFI (cfiCond181) ?RET_LOW load(1, XDATA, add(CFA_XSP16, literal(-5)))
          CFI (cfiCond181) ?RET_HIGH load(1, XDATA, add(CFA_XSP16, literal(-4)))
          CFI (cfiCond181) ?BRET_EXT load(1, XDATA, add(CFA_XSP16, literal(-3)))
          CFI (cfiCond181) DPL0 load(1, XDATA, add(CFA_XSP16, literal(-2)))
          CFI (cfiCond181) DPH0 load(1, XDATA, add(CFA_XSP16, literal(-1)))
          CFI (cfiCond181) CFA_SP SP+0
          CFI (cfiCond181) CFA_XSP16 add(XSP16, 31)
          CFI Block cfiCond182 Using cfiCommon0
          CFI (cfiCond182) Function initiatorScanRspCB
          CFI (cfiCond182) Conditional ??CrossCallReturnLabel_29
          CFI (cfiCond182) R6 load(1, XDATA, add(CFA_XSP16, literal(-12)))
          CFI (cfiCond182) VB load(1, XDATA, add(CFA_XSP16, literal(-11)))
          CFI (cfiCond182) V0 load(1, XDATA, add(CFA_XSP16, literal(-10)))
          CFI (cfiCond182) V1 load(1, XDATA, add(CFA_XSP16, literal(-9)))
          CFI (cfiCond182) V2 load(1, XDATA, add(CFA_XSP16, literal(-8)))
          CFI (cfiCond182) V3 load(1, XDATA, add(CFA_XSP16, literal(-7)))
          CFI (cfiCond182) R7 load(1, XDATA, add(CFA_XSP16, literal(-6)))
          CFI (cfiCond182) ?RET_LOW load(1, XDATA, add(CFA_XSP16, literal(-5)))
          CFI (cfiCond182) ?RET_HIGH load(1, XDATA, add(CFA_XSP16, literal(-4)))
          CFI (cfiCond182) ?BRET_EXT load(1, XDATA, add(CFA_XSP16, literal(-3)))
          CFI (cfiCond182) DPL0 load(1, XDATA, add(CFA_XSP16, literal(-2)))
          CFI (cfiCond182) DPH0 load(1, XDATA, add(CFA_XSP16, literal(-1)))
          CFI (cfiCond182) CFA_SP SP+0
          CFI (cfiCond182) CFA_XSP16 add(XSP16, 17)
          CFI Block cfiPicker183 Using cfiCommon1
          CFI (cfiPicker183) NoFunction
          CFI (cfiPicker183) Picker
        CLR     C
        SUBB    A,#-0x27
        MOV     C,0xD0 /* PSW */.2
        XRL     A,PSW
        RLC     A
        RET
          CFI EndBlock cfiCond180
          CFI EndBlock cfiCond181
          CFI EndBlock cfiCond182
          CFI EndBlock cfiPicker183
// 1529 
// 1530 /*********************************************************************
// 1531  * @fn      initiatorDeviceInfoReqCB
// 1532  *
// 1533  * @brief   This callback is called to process a Device Information
// 1534  *          Request command.
// 1535  *
// 1536  * @param   srcAddr - sender's address
// 1537  * @param   pReq - parsed command
// 1538  * @param   seqNum - command sequence number
// 1539  *
// 1540  * @return  ZStatus_t
// 1541  */

        RSEG BANKED_CODE:CODE:NOROOT(0)
// 1542 static ZStatus_t initiatorDeviceInfoReqCB( afAddrType_t *srcAddr, zclLLDeviceInfoReq_t *pReq, uint8 seqNum )
initiatorDeviceInfoReqCB:
          CFI Block cfiBlock184 Using cfiCommon0
          CFI Function initiatorDeviceInfoReqCB
        CODE
// 1543 {
        FUNCALL initiatorDeviceInfoReqCB, zll_IsValidTransID
        LOCFRAME ISTACK, 0, STACK
        LOCFRAME PSTACK, 0, STACK
        LOCFRAME XSTACK, 11, STACK
        LOCFRAME IOVERLAY, 0, STATIC
        LOCFRAME DOVERLAY, 0, STATIC
        ARGFRAME ISTACK, 0, STACK
        ARGFRAME PSTACK, 0, STACK
        ARGFRAME XSTACK, 11, STACK
        ARGFRAME IOVERLAY, 0, STATIC
        ARGFRAME DOVERLAY, 0, STATIC
        FUNCALL initiatorDeviceInfoReqCB, zll_SendDeviceInfoRsp
        LOCFRAME ISTACK, 0, STACK
        LOCFRAME PSTACK, 0, STACK
        LOCFRAME XSTACK, 15, STACK
        LOCFRAME IOVERLAY, 0, STATIC
        LOCFRAME DOVERLAY, 0, STATIC
        ARGFRAME ISTACK, 0, STACK
        ARGFRAME PSTACK, 0, STACK
        ARGFRAME XSTACK, 15, STACK
        ARGFRAME IOVERLAY, 0, STATIC
        ARGFRAME DOVERLAY, 0, STATIC
        MOV     A,#-0xb
        LCALL   ?BANKED_ENTER_XDATA
          CFI DPH0 load(1, XDATA, add(CFA_XSP16, literal(-1)))
          CFI DPL0 load(1, XDATA, add(CFA_XSP16, literal(-2)))
          CFI ?BRET_EXT load(1, XDATA, add(CFA_XSP16, literal(-3)))
          CFI ?RET_HIGH load(1, XDATA, add(CFA_XSP16, literal(-4)))
          CFI ?RET_LOW load(1, XDATA, add(CFA_XSP16, literal(-5)))
          CFI R7 load(1, XDATA, add(CFA_XSP16, literal(-6)))
          CFI V2 load(1, XDATA, add(CFA_XSP16, literal(-7)))
          CFI V1 load(1, XDATA, add(CFA_XSP16, literal(-8)))
          CFI V0 load(1, XDATA, add(CFA_XSP16, literal(-9)))
          CFI VB load(1, XDATA, add(CFA_XSP16, literal(-10)))
          CFI R6 load(1, XDATA, add(CFA_XSP16, literal(-11)))
          CFI CFA_SP SP+0
          CFI CFA_XSP16 add(XSP16, 11)
        ; Saved register size: 11
        ; Auto size: 0
        MOV     A,R2
        MOV     R6,A
        MOV     A,R3
        MOV     R7,A
        MOV     ?V0 + 0,R4
        MOV     ?V0 + 1,R5
        MOV     ?V0 + 2,R1
// 1544   if ( zll_IsValidTransID( pReq->transID ) == FALSE )
        ; Setup parameters for call to function zll_IsValidTransID
        MOV     DPL,R4
        MOV     DPH,R5
        LCALL   ?XLOAD_R2345
        LCALL   ??zll_IsValidTransID?relay
        MOV     A,R1
        JNZ     ??initiatorDeviceInfoReqCB_0
// 1545   {
// 1546     return ( ZFailure );
        MOV     R1,#0x1
        SJMP    ??initiatorDeviceInfoReqCB_1
// 1547   }
// 1548   return ( zll_SendDeviceInfoRsp( ZLL_INTERNAL_ENDPOINT, srcAddr,
// 1549                                   pReq->startIndex, pReq->transID, seqNum ) );
??initiatorDeviceInfoReqCB_0:
        ; Setup parameters for call to function zll_SendDeviceInfoRsp
        MOV     DPL,?V0 + 0
        MOV     DPH,?V0 + 1
        LCALL   ?PUSH_XSTACK8_X_FOUR
          CFI CFA_XSP16 add(XSP16, 15)
        MOV     R5,?V0 + 2
        MOV     DPL,?V0 + 0
        MOV     DPH,?V0 + 1
        INC     DPTR
        INC     DPTR
        INC     DPTR
        INC     DPTR
        MOVX    A,@DPTR
        MOV     R4,A
        MOV     A,R6
        MOV     R2,A
        MOV     A,R7
        MOV     R3,A
        MOV     R1,#0xd
        LCALL   ??zll_SendDeviceInfoRsp?relay
        MOV     A,#0x4
        LCALL   ?DEALLOC_XSTACK8
          CFI CFA_XSP16 add(XSP16, 11)
??initiatorDeviceInfoReqCB_1:
        LJMP    ??Subroutine44_0 & 0xFFFF
          CFI EndBlock cfiBlock184
// 1550 }
// 1551 
// 1552 /*********************************************************************
// 1553  * @fn      initiatorIdentifyReqCB
// 1554  *
// 1555  * @brief   This callback is called to process an Identify Request command.
// 1556  *
// 1557  * @param   srcAddr - sender's address
// 1558  * @param   pReq - parsed command
// 1559  *
// 1560  * @return  ZStatus_t
// 1561  */

        RSEG BANKED_CODE:CODE:NOROOT(0)
// 1562 static ZStatus_t initiatorIdentifyReqCB( afAddrType_t *srcAddr, zclLLIdentifyReq_t *pReq )
initiatorIdentifyReqCB:
          CFI Block cfiBlock185 Using cfiCommon0
          CFI Function initiatorIdentifyReqCB
        CODE
// 1563 {
        FUNCALL initiatorIdentifyReqCB, zll_IsValidTransID
        LOCFRAME ISTACK, 0, STACK
        LOCFRAME PSTACK, 0, STACK
        LOCFRAME XSTACK, 14, STACK
        LOCFRAME IOVERLAY, 0, STATIC
        LOCFRAME DOVERLAY, 0, STATIC
        ARGFRAME ISTACK, 0, STACK
        ARGFRAME PSTACK, 0, STACK
        ARGFRAME XSTACK, 14, STACK
        ARGFRAME IOVERLAY, 0, STATIC
        ARGFRAME DOVERLAY, 0, STATIC
        MOV     A,#-0xa
        LCALL   ?BANKED_ENTER_XDATA
          CFI DPH0 load(1, XDATA, add(CFA_XSP16, literal(-1)))
          CFI DPL0 load(1, XDATA, add(CFA_XSP16, literal(-2)))
          CFI ?BRET_EXT load(1, XDATA, add(CFA_XSP16, literal(-3)))
          CFI ?RET_HIGH load(1, XDATA, add(CFA_XSP16, literal(-4)))
          CFI ?RET_LOW load(1, XDATA, add(CFA_XSP16, literal(-5)))
          CFI R7 load(1, XDATA, add(CFA_XSP16, literal(-6)))
          CFI V1 load(1, XDATA, add(CFA_XSP16, literal(-7)))
          CFI V0 load(1, XDATA, add(CFA_XSP16, literal(-8)))
          CFI VB load(1, XDATA, add(CFA_XSP16, literal(-9)))
          CFI R6 load(1, XDATA, add(CFA_XSP16, literal(-10)))
          CFI CFA_SP SP+0
          CFI CFA_XSP16 add(XSP16, 10)
        ; Saved register size: 10
        ; Auto size: 4
        MOV     A,#-0x4
        LCALL   ?ALLOC_XSTACK8
          CFI CFA_XSP16 add(XSP16, 14)
        MOV     A,R2
        MOV     R6,A
        MOV     A,R3
        MOV     R7,A
        MOV     ?V0 + 0,R4
        MOV     ?V0 + 1,R5
// 1564   if ( zll_IsValidTransID( pReq->transID ) == FALSE )
        ; Setup parameters for call to function zll_IsValidTransID
        MOV     DPL,R4
        MOV     DPH,R5
        LCALL   ?XLOAD_R2345
        LCALL   ??zll_IsValidTransID?relay
        MOV     A,R1
        JNZ     ??initiatorIdentifyReqCB_0
// 1565   {
// 1566     return ( ZFailure );
        MOV     R1,#0x1
        SJMP    ??initiatorIdentifyReqCB_1
// 1567   }
// 1568   // The target should identify itself
// 1569   if ( pfnIdentifyCB != NULL )
??initiatorIdentifyReqCB_0:
        MOV     DPTR,#pfnIdentifyCB
        LCALL   ??Subroutine33_0 & 0xFFFF
??CrossCallReturnLabel_34:
        JZ      ??initiatorIdentifyReqCB_2
// 1570   {
// 1571     zclIdentify_t cmd;
// 1572 
// 1573     cmd.srcAddr = srcAddr;
        MOV     DPL,?XSP + 0
        MOV     DPH,?XSP + 1
        MOV     A,R6
        MOVX    @DPTR,A
        INC     DPTR
        MOV     A,R7
        MOVX    @DPTR,A
// 1574 
// 1575     // Values of the Identify Duration field:
// 1576     // - Exit identify mode: 0x0000
// 1577     // - Length of time to remain in identify mode: 0x0001-0xfffe
// 1578     // - Remain in identify mode for a default time known by the receiver: 0xffff
// 1579     if ( pReq->IdDuration == 0xffff )
        MOV     DPL,?V0 + 0
        MOV     DPH,?V0 + 1
        LCALL   ?Subroutine23 & 0xFFFF
??CrossCallReturnLabel_88:
        MOV     A,#-0x1
        XRL     A,R0
        JNZ     ??initiatorIdentifyReqCB_3
        MOV     A,#-0x1
        XRL     A,R1
??initiatorIdentifyReqCB_3:
        JNZ     ??initiatorIdentifyReqCB_4
// 1580     {
// 1581       cmd.identifyTime = ZLL_DEFAULT_IDENTIFY_TIME;
        MOV     A,#0x2
        LCALL   ?XSTACK_DISP0_8
        MOV     A,#0x3
        MOVX    @DPTR,A
        INC     DPTR
        CLR     A
        SJMP    ??initiatorIdentifyReqCB_5
// 1582     }
// 1583     else
// 1584     {
// 1585       cmd.identifyTime = pReq->IdDuration;
??initiatorIdentifyReqCB_4:
        MOV     A,#0x2
        LCALL   ?XSTACK_DISP0_8
        MOV     A,R0
        MOVX    @DPTR,A
        INC     DPTR
        MOV     A,R1
??initiatorIdentifyReqCB_5:
        MOVX    @DPTR,A
// 1586     }
// 1587 
// 1588     (*pfnIdentifyCB)( &cmd );
        ; Setup parameters for indirect call
        MOV     DPL,?XSP + 0
        MOV     DPH,?XSP + 1
        MOV     R2,DPL
        MOV     R3,DPH
        MOV     DPTR,#pfnIdentifyCB
        MOVX    A,@DPTR
        MOV     R0,A
        INC     DPTR
        LCALL   ??Subroutine43_0 & 0xFFFF
// 1589   }
??CrossCallReturnLabel_100:
        LCALL   ?CALL_IND
// 1590 
// 1591   return ( ZSuccess );
??initiatorIdentifyReqCB_2:
        MOV     R1,#0x0
??initiatorIdentifyReqCB_1:
        MOV     A,#0x4
        LCALL   ?DEALLOC_XSTACK8
          CFI EndBlock cfiBlock185
        REQUIRE ?Subroutine6
        ; // Fall through to label ?Subroutine6
// 1592 }

        RSEG BANKED_CODE:CODE:NOROOT(0)
?Subroutine6:
          CFI Block cfiBlock186 Using cfiCommon0
          CFI NoFunction
          CFI CFA_SP SP+0
          CFI CFA_XSP16 add(XSP16, 10)
          CFI VB load(1, XDATA, add(CFA_XSP16, literal(-9)))
          CFI DPL0 load(1, XDATA, add(CFA_XSP16, literal(-2)))
          CFI DPH0 load(1, XDATA, add(CFA_XSP16, literal(-1)))
          CFI R6 load(1, XDATA, add(CFA_XSP16, literal(-10)))
          CFI R7 load(1, XDATA, add(CFA_XSP16, literal(-6)))
          CFI V0 load(1, XDATA, add(CFA_XSP16, literal(-8)))
          CFI V1 load(1, XDATA, add(CFA_XSP16, literal(-7)))
          CFI ?BRET_EXT load(1, XDATA, add(CFA_XSP16, literal(-3)))
          CFI ?RET_HIGH load(1, XDATA, add(CFA_XSP16, literal(-4)))
          CFI ?RET_LOW load(1, XDATA, add(CFA_XSP16, literal(-5)))
        MOV     R7,#0x2
        LJMP    ?BANKED_LEAVE_XDATA
          CFI EndBlock cfiBlock186

        RSEG BANKED_CODE:CODE:NOROOT(0)
?Subroutine18:
          CFI Block cfiCond187 Using cfiCommon0
          CFI Function zllInitiator_event_loop
          CFI Conditional ??CrossCallReturnLabel_103
          CFI R6 load(1, XDATA, add(CFA_XSP16, literal(-16)))
          CFI VB load(1, XDATA, add(CFA_XSP16, literal(-15)))
          CFI V0 load(1, XDATA, add(CFA_XSP16, literal(-14)))
          CFI V1 load(1, XDATA, add(CFA_XSP16, literal(-13)))
          CFI V2 load(1, XDATA, add(CFA_XSP16, literal(-12)))
          CFI V3 load(1, XDATA, add(CFA_XSP16, literal(-11)))
          CFI V4 load(1, XDATA, add(CFA_XSP16, literal(-10)))
          CFI V5 load(1, XDATA, add(CFA_XSP16, literal(-9)))
          CFI V6 load(1, XDATA, add(CFA_XSP16, literal(-8)))
          CFI V7 load(1, XDATA, add(CFA_XSP16, literal(-7)))
          CFI R7 load(1, XDATA, add(CFA_XSP16, literal(-6)))
          CFI ?RET_LOW load(1, XDATA, add(CFA_XSP16, literal(-5)))
          CFI ?RET_HIGH load(1, XDATA, add(CFA_XSP16, literal(-4)))
          CFI ?BRET_EXT load(1, XDATA, add(CFA_XSP16, literal(-3)))
          CFI DPL0 load(1, XDATA, add(CFA_XSP16, literal(-2)))
          CFI DPH0 load(1, XDATA, add(CFA_XSP16, literal(-1)))
          CFI CFA_SP SP+0
          CFI CFA_XSP16 add(XSP16, 30)
          CFI Block cfiCond188 Using cfiCommon0
          CFI (cfiCond188) Function zllInitiator_event_loop
          CFI (cfiCond188) Conditional ??CrossCallReturnLabel_104
          CFI (cfiCond188) R6 load(1, XDATA, add(CFA_XSP16, literal(-16)))
          CFI (cfiCond188) VB load(1, XDATA, add(CFA_XSP16, literal(-15)))
          CFI (cfiCond188) V0 load(1, XDATA, add(CFA_XSP16, literal(-14)))
          CFI (cfiCond188) V1 load(1, XDATA, add(CFA_XSP16, literal(-13)))
          CFI (cfiCond188) V2 load(1, XDATA, add(CFA_XSP16, literal(-12)))
          CFI (cfiCond188) V3 load(1, XDATA, add(CFA_XSP16, literal(-11)))
          CFI (cfiCond188) V4 load(1, XDATA, add(CFA_XSP16, literal(-10)))
          CFI (cfiCond188) V5 load(1, XDATA, add(CFA_XSP16, literal(-9)))
          CFI (cfiCond188) V6 load(1, XDATA, add(CFA_XSP16, literal(-8)))
          CFI (cfiCond188) V7 load(1, XDATA, add(CFA_XSP16, literal(-7)))
          CFI (cfiCond188) R7 load(1, XDATA, add(CFA_XSP16, literal(-6)))
          CFI (cfiCond188) ?RET_LOW load(1, XDATA, add(CFA_XSP16, literal(-5)))
          CFI (cfiCond188) ?RET_HIGH load(1, XDATA, add(CFA_XSP16, literal(-4)))
          CFI (cfiCond188) ?BRET_EXT load(1, XDATA, add(CFA_XSP16, literal(-3)))
          CFI (cfiCond188) DPL0 load(1, XDATA, add(CFA_XSP16, literal(-2)))
          CFI (cfiCond188) DPH0 load(1, XDATA, add(CFA_XSP16, literal(-1)))
          CFI (cfiCond188) CFA_SP SP+0
          CFI (cfiCond188) CFA_XSP16 add(XSP16, 30)
          CFI Block cfiPicker189 Using cfiCommon1
          CFI (cfiPicker189) NoFunction
          CFI (cfiPicker189) Picker
        MOV     DPL,?XSP + 0
        MOV     DPH,?XSP + 1
        MOV     R2,DPL
        MOV     R3,DPH
        MOV     DPTR,#pfnNotifyAppCB + 1
          CFI EndBlock cfiCond187
          CFI EndBlock cfiCond188
          CFI EndBlock cfiPicker189
        REQUIRE ??Subroutine43_0
        ; // Fall through to label ??Subroutine43_0

        RSEG BANKED_CODE:CODE:NOROOT(0)
??Subroutine43_0:
          CFI Block cfiCond190 Using cfiCommon0
          CFI Function zllInitiator_ResetToFactoryNew
          CFI Conditional ??CrossCallReturnLabel_98
          CFI DPL0 Frame(CFA_SP, 4)
          CFI DPH0 Frame(CFA_SP, 5)
          CFI CFA_SP SP+-5
          CFI Block cfiCond191 Using cfiCommon0
          CFI (cfiCond191) Function zllInitiator_event_loop
          CFI (cfiCond191) Conditional ??CrossCallReturnLabel_99
          CFI (cfiCond191) R6 load(1, XDATA, add(CFA_XSP16, literal(-16)))
          CFI (cfiCond191) VB load(1, XDATA, add(CFA_XSP16, literal(-15)))
          CFI (cfiCond191) V0 load(1, XDATA, add(CFA_XSP16, literal(-14)))
          CFI (cfiCond191) V1 load(1, XDATA, add(CFA_XSP16, literal(-13)))
          CFI (cfiCond191) V2 load(1, XDATA, add(CFA_XSP16, literal(-12)))
          CFI (cfiCond191) V3 load(1, XDATA, add(CFA_XSP16, literal(-11)))
          CFI (cfiCond191) V4 load(1, XDATA, add(CFA_XSP16, literal(-10)))
          CFI (cfiCond191) V5 load(1, XDATA, add(CFA_XSP16, literal(-9)))
          CFI (cfiCond191) V6 load(1, XDATA, add(CFA_XSP16, literal(-8)))
          CFI (cfiCond191) V7 load(1, XDATA, add(CFA_XSP16, literal(-7)))
          CFI (cfiCond191) R7 load(1, XDATA, add(CFA_XSP16, literal(-6)))
          CFI (cfiCond191) ?RET_LOW load(1, XDATA, add(CFA_XSP16, literal(-5)))
          CFI (cfiCond191) ?RET_HIGH load(1, XDATA, add(CFA_XSP16, literal(-4)))
          CFI (cfiCond191) ?BRET_EXT load(1, XDATA, add(CFA_XSP16, literal(-3)))
          CFI (cfiCond191) DPL0 load(1, XDATA, add(CFA_XSP16, literal(-2)))
          CFI (cfiCond191) DPH0 load(1, XDATA, add(CFA_XSP16, literal(-1)))
          CFI (cfiCond191) CFA_SP SP+0
          CFI (cfiCond191) CFA_XSP16 add(XSP16, 30)
          CFI Block cfiCond192 Using cfiCommon0
          CFI (cfiCond192) Function initiatorIdentifyReqCB
          CFI (cfiCond192) Conditional ??CrossCallReturnLabel_100
          CFI (cfiCond192) R6 load(1, XDATA, add(CFA_XSP16, literal(-10)))
          CFI (cfiCond192) VB load(1, XDATA, add(CFA_XSP16, literal(-9)))
          CFI (cfiCond192) V0 load(1, XDATA, add(CFA_XSP16, literal(-8)))
          CFI (cfiCond192) V1 load(1, XDATA, add(CFA_XSP16, literal(-7)))
          CFI (cfiCond192) R7 load(1, XDATA, add(CFA_XSP16, literal(-6)))
          CFI (cfiCond192) ?RET_LOW load(1, XDATA, add(CFA_XSP16, literal(-5)))
          CFI (cfiCond192) ?RET_HIGH load(1, XDATA, add(CFA_XSP16, literal(-4)))
          CFI (cfiCond192) ?BRET_EXT load(1, XDATA, add(CFA_XSP16, literal(-3)))
          CFI (cfiCond192) DPL0 load(1, XDATA, add(CFA_XSP16, literal(-2)))
          CFI (cfiCond192) DPH0 load(1, XDATA, add(CFA_XSP16, literal(-1)))
          CFI (cfiCond192) CFA_SP SP+0
          CFI (cfiCond192) CFA_XSP16 add(XSP16, 14)
          CFI Block cfiCond193 Using cfiCommon0
          CFI (cfiCond193) Function initiatorScanRspCB
          CFI (cfiCond193) Conditional ??CrossCallReturnLabel_101
          CFI (cfiCond193) R6 load(1, XDATA, add(CFA_XSP16, literal(-12)))
          CFI (cfiCond193) VB load(1, XDATA, add(CFA_XSP16, literal(-11)))
          CFI (cfiCond193) V0 load(1, XDATA, add(CFA_XSP16, literal(-10)))
          CFI (cfiCond193) V1 load(1, XDATA, add(CFA_XSP16, literal(-9)))
          CFI (cfiCond193) V2 load(1, XDATA, add(CFA_XSP16, literal(-8)))
          CFI (cfiCond193) V3 load(1, XDATA, add(CFA_XSP16, literal(-7)))
          CFI (cfiCond193) R7 load(1, XDATA, add(CFA_XSP16, literal(-6)))
          CFI (cfiCond193) ?RET_LOW load(1, XDATA, add(CFA_XSP16, literal(-5)))
          CFI (cfiCond193) ?RET_HIGH load(1, XDATA, add(CFA_XSP16, literal(-4)))
          CFI (cfiCond193) ?BRET_EXT load(1, XDATA, add(CFA_XSP16, literal(-3)))
          CFI (cfiCond193) DPL0 load(1, XDATA, add(CFA_XSP16, literal(-2)))
          CFI (cfiCond193) DPH0 load(1, XDATA, add(CFA_XSP16, literal(-1)))
          CFI (cfiCond193) CFA_SP SP+0
          CFI (cfiCond193) CFA_XSP16 add(XSP16, 17)
          CFI Block cfiCond194 Using cfiCommon0
          CFI (cfiCond194) Function initiatorDeviceInfoRspCB
          CFI (cfiCond194) Conditional ??CrossCallReturnLabel_102
          CFI (cfiCond194) R6 load(1, XDATA, add(CFA_XSP16, literal(-14)))
          CFI (cfiCond194) VB load(1, XDATA, add(CFA_XSP16, literal(-13)))
          CFI (cfiCond194) V0 load(1, XDATA, add(CFA_XSP16, literal(-12)))
          CFI (cfiCond194) V1 load(1, XDATA, add(CFA_XSP16, literal(-11)))
          CFI (cfiCond194) V2 load(1, XDATA, add(CFA_XSP16, literal(-10)))
          CFI (cfiCond194) V3 load(1, XDATA, add(CFA_XSP16, literal(-9)))
          CFI (cfiCond194) V4 load(1, XDATA, add(CFA_XSP16, literal(-8)))
          CFI (cfiCond194) V5 load(1, XDATA, add(CFA_XSP16, literal(-7)))
          CFI (cfiCond194) R7 load(1, XDATA, add(CFA_XSP16, literal(-6)))
          CFI (cfiCond194) ?RET_LOW load(1, XDATA, add(CFA_XSP16, literal(-5)))
          CFI (cfiCond194) ?RET_HIGH load(1, XDATA, add(CFA_XSP16, literal(-4)))
          CFI (cfiCond194) ?BRET_EXT load(1, XDATA, add(CFA_XSP16, literal(-3)))
          CFI (cfiCond194) DPL0 load(1, XDATA, add(CFA_XSP16, literal(-2)))
          CFI (cfiCond194) DPH0 load(1, XDATA, add(CFA_XSP16, literal(-1)))
          CFI (cfiCond194) CFA_SP SP+0
          CFI (cfiCond194) CFA_XSP16 add(XSP16, 52)
          CFI Block cfiCond195 Using cfiCommon0
          CFI (cfiCond195) Function zllInitiator_event_loop
          CFI (cfiCond195) Conditional ??CrossCallReturnLabel_103
          CFI (cfiCond195) R6 load(1, XDATA, add(CFA_XSP16, literal(-16)))
          CFI (cfiCond195) VB load(1, XDATA, add(CFA_XSP16, literal(-15)))
          CFI (cfiCond195) V0 load(1, XDATA, add(CFA_XSP16, literal(-14)))
          CFI (cfiCond195) V1 load(1, XDATA, add(CFA_XSP16, literal(-13)))
          CFI (cfiCond195) V2 load(1, XDATA, add(CFA_XSP16, literal(-12)))
          CFI (cfiCond195) V3 load(1, XDATA, add(CFA_XSP16, literal(-11)))
          CFI (cfiCond195) V4 load(1, XDATA, add(CFA_XSP16, literal(-10)))
          CFI (cfiCond195) V5 load(1, XDATA, add(CFA_XSP16, literal(-9)))
          CFI (cfiCond195) V6 load(1, XDATA, add(CFA_XSP16, literal(-8)))
          CFI (cfiCond195) V7 load(1, XDATA, add(CFA_XSP16, literal(-7)))
          CFI (cfiCond195) R7 load(1, XDATA, add(CFA_XSP16, literal(-6)))
          CFI (cfiCond195) ?RET_LOW load(1, XDATA, add(CFA_XSP16, literal(-5)))
          CFI (cfiCond195) ?RET_HIGH load(1, XDATA, add(CFA_XSP16, literal(-4)))
          CFI (cfiCond195) ?BRET_EXT load(1, XDATA, add(CFA_XSP16, literal(-3)))
          CFI (cfiCond195) DPL0 load(1, XDATA, add(CFA_XSP16, literal(-2)))
          CFI (cfiCond195) DPH0 load(1, XDATA, add(CFA_XSP16, literal(-1)))
          CFI (cfiCond195) CFA_SP SP+0
          CFI (cfiCond195) CFA_XSP16 add(XSP16, 30)
          CFI Block cfiCond196 Using cfiCommon0
          CFI (cfiCond196) Function zllInitiator_event_loop
          CFI (cfiCond196) Conditional ??CrossCallReturnLabel_104
          CFI (cfiCond196) R6 load(1, XDATA, add(CFA_XSP16, literal(-16)))
          CFI (cfiCond196) VB load(1, XDATA, add(CFA_XSP16, literal(-15)))
          CFI (cfiCond196) V0 load(1, XDATA, add(CFA_XSP16, literal(-14)))
          CFI (cfiCond196) V1 load(1, XDATA, add(CFA_XSP16, literal(-13)))
          CFI (cfiCond196) V2 load(1, XDATA, add(CFA_XSP16, literal(-12)))
          CFI (cfiCond196) V3 load(1, XDATA, add(CFA_XSP16, literal(-11)))
          CFI (cfiCond196) V4 load(1, XDATA, add(CFA_XSP16, literal(-10)))
          CFI (cfiCond196) V5 load(1, XDATA, add(CFA_XSP16, literal(-9)))
          CFI (cfiCond196) V6 load(1, XDATA, add(CFA_XSP16, literal(-8)))
          CFI (cfiCond196) V7 load(1, XDATA, add(CFA_XSP16, literal(-7)))
          CFI (cfiCond196) R7 load(1, XDATA, add(CFA_XSP16, literal(-6)))
          CFI (cfiCond196) ?RET_LOW load(1, XDATA, add(CFA_XSP16, literal(-5)))
          CFI (cfiCond196) ?RET_HIGH load(1, XDATA, add(CFA_XSP16, literal(-4)))
          CFI (cfiCond196) ?BRET_EXT load(1, XDATA, add(CFA_XSP16, literal(-3)))
          CFI (cfiCond196) DPL0 load(1, XDATA, add(CFA_XSP16, literal(-2)))
          CFI (cfiCond196) DPH0 load(1, XDATA, add(CFA_XSP16, literal(-1)))
          CFI (cfiCond196) CFA_SP SP+0
          CFI (cfiCond196) CFA_XSP16 add(XSP16, 30)
          CFI Block cfiPicker197 Using cfiCommon1
          CFI (cfiPicker197) NoFunction
          CFI (cfiPicker197) Picker
        MOVX    A,@DPTR
        MOV     DPH,A
        MOV     DPL,R0
        RET
          CFI EndBlock cfiCond190
          CFI EndBlock cfiCond191
          CFI EndBlock cfiCond192
          CFI EndBlock cfiCond193
          CFI EndBlock cfiCond194
          CFI EndBlock cfiCond195
          CFI EndBlock cfiCond196
          CFI EndBlock cfiPicker197
// 1593 
// 1594 /*********************************************************************
// 1595  * @fn      initiatorResetToFNReqCB
// 1596  *
// 1597  * @brief   This callback is called to process a Reset to Factory New
// 1598  *          Request command.
// 1599  *
// 1600  * @param   srcAddr - sender's address
// 1601  * @param   pReq - parsed command
// 1602  *
// 1603  * @return  ZStatus_t
// 1604  */

        RSEG BANKED_CODE:CODE:NOROOT(0)
// 1605 static ZStatus_t initiatorResetToFNReqCB( afAddrType_t *srcAddr, zclLLResetToFNReq_t *pReq )
initiatorResetToFNReqCB:
          CFI Block cfiBlock198 Using cfiCommon0
          CFI Function initiatorResetToFNReqCB
        CODE
// 1606 {
        FUNCALL initiatorResetToFNReqCB, zll_IsValidTransID
        LOCFRAME ISTACK, 2, STACK
        LOCFRAME PSTACK, 0, STACK
        LOCFRAME XSTACK, 0, STACK
        LOCFRAME IOVERLAY, 0, STATIC
        LOCFRAME DOVERLAY, 0, STATIC
        ARGFRAME ISTACK, 2, STACK
        ARGFRAME PSTACK, 0, STACK
        ARGFRAME XSTACK, 0, STACK
        ARGFRAME IOVERLAY, 0, STATIC
        ARGFRAME DOVERLAY, 0, STATIC
        FUNCALL initiatorResetToFNReqCB, zll_IsFactoryNew
        LOCFRAME ISTACK, 2, STACK
        LOCFRAME PSTACK, 0, STACK
        LOCFRAME XSTACK, 0, STACK
        LOCFRAME IOVERLAY, 0, STATIC
        LOCFRAME DOVERLAY, 0, STATIC
        ARGFRAME ISTACK, 2, STACK
        ARGFRAME PSTACK, 0, STACK
        ARGFRAME XSTACK, 0, STACK
        ARGFRAME IOVERLAY, 0, STATIC
        ARGFRAME DOVERLAY, 0, STATIC
        FUNCALL initiatorResetToFNReqCB, osal_set_event
        LOCFRAME ISTACK, 2, STACK
        LOCFRAME PSTACK, 0, STACK
        LOCFRAME XSTACK, 0, STACK
        LOCFRAME IOVERLAY, 0, STATIC
        LOCFRAME DOVERLAY, 0, STATIC
        ARGFRAME ISTACK, 2, STACK
        ARGFRAME PSTACK, 0, STACK
        ARGFRAME XSTACK, 0, STACK
        ARGFRAME IOVERLAY, 0, STATIC
        ARGFRAME DOVERLAY, 0, STATIC
        PUSH    DPL
          CFI DPL0 Frame(CFA_SP, 4)
          CFI CFA_SP SP+-4
        PUSH    DPH
          CFI DPH0 Frame(CFA_SP, 5)
          CFI CFA_SP SP+-5
        ; Saved register size: 2
        ; Auto size: 0
// 1607   // If factory new, discard the request
// 1608   if ( ( zll_IsValidTransID( pReq->transID ) == FALSE ) || zll_IsFactoryNew() )
        ; Setup parameters for call to function zll_IsValidTransID
        MOV     DPL,R4
        MOV     DPH,R5
        LCALL   ?XLOAD_R2345
        LCALL   ??zll_IsValidTransID?relay
        MOV     A,R1
        JZ      ??initiatorResetToFNReqCB_0
        ; Setup parameters for call to function zll_IsFactoryNew
        LCALL   ??zll_IsFactoryNew?relay
        MOV     A,R1
        JZ      ??initiatorResetToFNReqCB_1
// 1609   {
// 1610     return ( ZFailure );
??initiatorResetToFNReqCB_0:
        MOV     R1,#0x1
        SJMP    ??initiatorResetToFNReqCB_2
// 1611   }
// 1612 
// 1613   osal_set_event( zllInitiator_TaskID, ZLL_RESET_TO_FN_EVT );
??initiatorResetToFNReqCB_1:
        ; Setup parameters for call to function osal_set_event
        MOV     R2,#0x4
        MOV     R3,#0x0
        MOV     DPTR,#zllInitiator_TaskID
        MOVX    A,@DPTR
        MOV     R1,A
        LCALL   ??osal_set_event?relay
// 1614   return ( ZSuccess );
        MOV     R1,#0x0
??initiatorResetToFNReqCB_2:
        LJMP    ??Subroutine35_0 & 0xFFFF
          CFI EndBlock cfiBlock198
// 1615 }
// 1616 
// 1617 /*********************************************************************
// 1618  * @fn      initiatorNwkJoinReqCB
// 1619  *
// 1620  * @brief   This callback is called to process Network Join End Device
// 1621  *          Request and Network Join End Device Request commands.
// 1622  *
// 1623  * @param   srcAddr - sender's address
// 1624  * @param   pReq - parsed command
// 1625  * @param   seqNum - command sequence number
// 1626  *
// 1627  * @return  ZStatus_t
// 1628  */

        RSEG BANKED_CODE:CODE:NOROOT(0)
// 1629 static ZStatus_t initiatorNwkJoinReqCB( afAddrType_t *srcAddr, zclLLNwkJoinReq_t *pReq, uint8 seqNum )
initiatorNwkJoinReqCB:
          CFI Block cfiBlock199 Using cfiCommon0
          CFI Function initiatorNwkJoinReqCB
        CODE
// 1630 {
        FUNCALL initiatorNwkJoinReqCB, zll_IsValidTransID
        LOCFRAME ISTACK, 0, STACK
        LOCFRAME PSTACK, 0, STACK
        LOCFRAME XSTACK, 28, STACK
        LOCFRAME IOVERLAY, 0, STATIC
        LOCFRAME DOVERLAY, 0, STATIC
        ARGFRAME ISTACK, 0, STACK
        ARGFRAME PSTACK, 0, STACK
        ARGFRAME XSTACK, 28, STACK
        ARGFRAME IOVERLAY, 0, STATIC
        ARGFRAME DOVERLAY, 0, STATIC
        FUNCALL initiatorNwkJoinReqCB, nwk_ExtPANIDValid
        LOCFRAME ISTACK, 0, STACK
        LOCFRAME PSTACK, 0, STACK
        LOCFRAME XSTACK, 28, STACK
        LOCFRAME IOVERLAY, 0, STATIC
        LOCFRAME DOVERLAY, 0, STATIC
        ARGFRAME ISTACK, 0, STACK
        ARGFRAME PSTACK, 0, STACK
        ARGFRAME XSTACK, 28, STACK
        ARGFRAME IOVERLAY, 0, STATIC
        ARGFRAME DOVERLAY, 0, STATIC
        FUNCALL initiatorNwkJoinReqCB, osal_set_event
        LOCFRAME ISTACK, 0, STACK
        LOCFRAME PSTACK, 0, STACK
        LOCFRAME XSTACK, 28, STACK
        LOCFRAME IOVERLAY, 0, STATIC
        LOCFRAME DOVERLAY, 0, STATIC
        ARGFRAME ISTACK, 0, STACK
        ARGFRAME PSTACK, 0, STACK
        ARGFRAME XSTACK, 28, STACK
        ARGFRAME IOVERLAY, 0, STATIC
        ARGFRAME DOVERLAY, 0, STATIC
        FUNCALL initiatorNwkJoinReqCB, osal_stop_timerEx
        LOCFRAME ISTACK, 0, STACK
        LOCFRAME PSTACK, 0, STACK
        LOCFRAME XSTACK, 28, STACK
        LOCFRAME IOVERLAY, 0, STATIC
        LOCFRAME DOVERLAY, 0, STATIC
        ARGFRAME ISTACK, 0, STACK
        ARGFRAME PSTACK, 0, STACK
        ARGFRAME XSTACK, 28, STACK
        ARGFRAME IOVERLAY, 0, STATIC
        ARGFRAME DOVERLAY, 0, STATIC
        FUNCALL initiatorNwkJoinReqCB, osal_stop_timerEx
        LOCFRAME ISTACK, 0, STACK
        LOCFRAME PSTACK, 0, STACK
        LOCFRAME XSTACK, 28, STACK
        LOCFRAME IOVERLAY, 0, STATIC
        LOCFRAME DOVERLAY, 0, STATIC
        ARGFRAME ISTACK, 0, STACK
        ARGFRAME PSTACK, 0, STACK
        ARGFRAME XSTACK, 28, STACK
        ARGFRAME IOVERLAY, 0, STATIC
        ARGFRAME DOVERLAY, 0, STATIC
        FUNCALL initiatorNwkJoinReqCB, zclLL_Send_NwkJoinRsp
        LOCFRAME ISTACK, 0, STACK
        LOCFRAME PSTACK, 0, STACK
        LOCFRAME XSTACK, 30, STACK
        LOCFRAME IOVERLAY, 0, STATIC
        LOCFRAME DOVERLAY, 0, STATIC
        ARGFRAME ISTACK, 0, STACK
        ARGFRAME PSTACK, 0, STACK
        ARGFRAME XSTACK, 30, STACK
        ARGFRAME IOVERLAY, 0, STATIC
        ARGFRAME DOVERLAY, 0, STATIC
        MOV     A,#-0xb
        LCALL   ?BANKED_ENTER_XDATA
          CFI DPH0 load(1, XDATA, add(CFA_XSP16, literal(-1)))
          CFI DPL0 load(1, XDATA, add(CFA_XSP16, literal(-2)))
          CFI ?BRET_EXT load(1, XDATA, add(CFA_XSP16, literal(-3)))
          CFI ?RET_HIGH load(1, XDATA, add(CFA_XSP16, literal(-4)))
          CFI ?RET_LOW load(1, XDATA, add(CFA_XSP16, literal(-5)))
          CFI R7 load(1, XDATA, add(CFA_XSP16, literal(-6)))
          CFI V2 load(1, XDATA, add(CFA_XSP16, literal(-7)))
          CFI V1 load(1, XDATA, add(CFA_XSP16, literal(-8)))
          CFI V0 load(1, XDATA, add(CFA_XSP16, literal(-9)))
          CFI VB load(1, XDATA, add(CFA_XSP16, literal(-10)))
          CFI R6 load(1, XDATA, add(CFA_XSP16, literal(-11)))
          CFI CFA_SP SP+0
          CFI CFA_XSP16 add(XSP16, 11)
        ; Saved register size: 11
        ; Auto size: 17
        MOV     A,#-0x11
        LCALL   ?ALLOC_XSTACK8
          CFI CFA_XSP16 add(XSP16, 28)
        MOV     A,R2
        MOV     R6,A
        MOV     A,R3
        MOV     R7,A
        MOV     ?V0 + 0,R4
        MOV     ?V0 + 1,R5
        MOV     ?V0 + 2,R1
// 1631   zclLLNwkJoinRsp_t rsp;
// 1632   afAddrType_t dstAddr;
// 1633 
// 1634   if ( zll_IsValidTransID( pReq->transID ) == FALSE )
        ; Setup parameters for call to function zll_IsValidTransID
        MOV     DPL,R4
        MOV     DPH,R5
        LCALL   ?XLOAD_R2345
        LCALL   ??zll_IsValidTransID?relay
        MOV     A,R1
        JNZ     ??initiatorNwkJoinReqCB_0
// 1635   {
// 1636     return ( ZFailure );
        MOV     R1,#0x1
        LJMP    ??initiatorNwkJoinReqCB_1 & 0xFFFF
// 1637   }
// 1638 
// 1639   rsp.transID = pReq->transID;
??initiatorNwkJoinReqCB_0:
        MOV     DPL,?V0 + 0
        MOV     DPH,?V0 + 1
        LCALL   ?XLOAD_R2345
        MOV     DPL,?XSP + 0
        MOV     DPH,?XSP + 1
        LCALL   ?XSTORE_R2345
// 1640 
// 1641   if ( nwk_ExtPANIDValid( pReq->nwkParams.extendedPANID ) )
        ; Setup parameters for call to function nwk_ExtPANIDValid
        LCALL   ?Subroutine27 & 0xFFFF
??CrossCallReturnLabel_31:
        LCALL   ??nwk_ExtPANIDValid?relay
        MOV     A,R1
        JZ      ??initiatorNwkJoinReqCB_2
// 1642     //NOTE: additional nwk params verification may be added here, e.g. ranges.
// 1643   {
// 1644     // Save the request for later
// 1645     joinReq = *pReq;
        MOV     DPL,?V0 + 0
        MOV     DPH,?V0 + 1
        MOV     R4,#joinReq & 0xff
        MOV     R5,#(joinReq >> 8) & 0xff
        MOV     A,#0x2f
        LCALL   ?MOVE_LONG8_XDATA_XDATA
// 1646 
// 1647     // Notify our task to join the new network
// 1648     osal_set_event( zllInitiator_TaskID, ZLL_ENDDEVICE_JOIN_EVT );
        ; Setup parameters for call to function osal_set_event
        MOV     R2,#0x2
        MOV     R3,A
        MOV     DPTR,#zllInitiator_TaskID
        MOVX    A,@DPTR
        MOV     R1,A
        LCALL   ??osal_set_event?relay
// 1649 
// 1650     osal_stop_timerEx( zllInitiator_TaskID, ZLL_DISABLE_RX_EVT );
        ; Setup parameters for call to function osal_stop_timerEx
        MOV     R2,#0x0
        MOV     R3,#0x4
        MOV     DPTR,#zllInitiator_TaskID
        MOVX    A,@DPTR
        MOV     R1,A
        LCALL   ??osal_stop_timerEx?relay
// 1651     osal_stop_timerEx( zllInitiator_TaskID, ZLL_CFG_TARGET_EVT );
        ; Setup parameters for call to function osal_stop_timerEx
        MOV     R2,#-0x80
        MOV     R3,#0x0
        MOV     DPTR,#zllInitiator_TaskID
        MOVX    A,@DPTR
        MOV     R1,A
        LCALL   ??osal_stop_timerEx?relay
// 1652 
// 1653     rsp.status = ZLL_NETWORK_JOIN_RSP_STATUS_SUCCESS;
        MOV     A,#0x4
        LCALL   ?XSTACK_DISP0_8
        CLR     A
        SJMP    ??initiatorNwkJoinReqCB_3
// 1654   }
// 1655   else
// 1656   {
// 1657     rsp.status = ZLL_NETWORK_JOIN_RSP_STATUS_FAILURE;
??initiatorNwkJoinReqCB_2:
        MOV     A,#0x4
        LCALL   ?XSTACK_DISP0_8
        MOV     A,#0x1
??initiatorNwkJoinReqCB_3:
        MOVX    @DPTR,A
// 1658   }
// 1659 
// 1660   dstAddr = *srcAddr;
        MOV     A,#0x5
        LCALL   ?XSTACK_DISP0_8
        MOV     R4,DPL
        MOV     R5,DPH
        MOV     DPH,R7
        MOV     DPL,R6
        MOV     A,#0xc
        LCALL   ?MOVE_LONG8_XDATA_XDATA
// 1661   dstAddr.panId = 0xFFFF;
        MOV     A,#0xf
        LCALL   ?XSTACK_DISP0_8
        MOV     A,#-0x1
        MOVX    @DPTR,A
        INC     DPTR
        MOVX    @DPTR,A
// 1662 
// 1663   // Send a response back
// 1664 #if ( ZSTACK_ROUTER_BUILD )
// 1665   zclLL_Send_NwkJoinRtrRsp( ZLL_INTERNAL_ENDPOINT, &dstAddr, &rsp, seqNum );
        ; Setup parameters for call to function zclLL_Send_NwkJoinRsp
        MOV     A,?V0 + 2
        MOV     ?V0 + 0,A
        MOV     R0,#?V0 + 0
        LCALL   ?PUSH_XSTACK_I_ONE
          CFI CFA_XSP16 add(XSP16, 29)
        MOV     ?V0 + 0,#0x13
        MOV     R0,#?V0 + 0
        LCALL   ?PUSH_XSTACK_I_ONE
          CFI CFA_XSP16 add(XSP16, 30)
        MOV     A,#0x2
        LCALL   ?XSTACK_DISP0_8
        MOV     R4,DPL
        MOV     R5,DPH
        MOV     A,#0x7
        LCALL   ?XSTACK_DISP0_8
        MOV     R2,DPL
        MOV     R3,DPH
        MOV     R1,#0xd
        LCALL   ??zclLL_Send_NwkJoinRsp?relay
        MOV     A,#0x2
        LCALL   ?DEALLOC_XSTACK8
          CFI CFA_XSP16 add(XSP16, 28)
// 1666 #else
// 1667   zclLL_Send_NwkJoinEDRsp( ZLL_INTERNAL_ENDPOINT, &dstAddr, &rsp, seqNum );
// 1668 #endif
// 1669 
// 1670   return ( ZSuccess );
        MOV     R1,#0x0
??initiatorNwkJoinReqCB_1:
        MOV     A,#0x11
          CFI EndBlock cfiBlock199
        REQUIRE ?Subroutine5
        ; // Fall through to label ?Subroutine5
// 1671 }

        RSEG BANKED_CODE:CODE:NOROOT(0)
?Subroutine5:
          CFI Block cfiBlock200 Using cfiCommon0
          CFI NoFunction
          CFI CFA_SP SP+0
          CFI CFA_XSP16 add(XSP16, 28)
          CFI VB load(1, XDATA, add(CFA_XSP16, literal(-10)))
          CFI DPL0 load(1, XDATA, add(CFA_XSP16, literal(-2)))
          CFI DPH0 load(1, XDATA, add(CFA_XSP16, literal(-1)))
          CFI R6 load(1, XDATA, add(CFA_XSP16, literal(-11)))
          CFI R7 load(1, XDATA, add(CFA_XSP16, literal(-6)))
          CFI V0 load(1, XDATA, add(CFA_XSP16, literal(-9)))
          CFI V1 load(1, XDATA, add(CFA_XSP16, literal(-8)))
          CFI V2 load(1, XDATA, add(CFA_XSP16, literal(-7)))
          CFI ?BRET_EXT load(1, XDATA, add(CFA_XSP16, literal(-3)))
          CFI ?RET_HIGH load(1, XDATA, add(CFA_XSP16, literal(-4)))
          CFI ?RET_LOW load(1, XDATA, add(CFA_XSP16, literal(-5)))
          CFI Invalid
        LCALL   ?DEALLOC_XSTACK8
          CFI EndBlock cfiBlock200
        REQUIRE ??Subroutine44_0
        ; // Fall through to label ??Subroutine44_0

        RSEG BANKED_CODE:CODE:NOROOT(0)
??Subroutine44_0:
          CFI Block cfiBlock201 Using cfiCommon0
          CFI NoFunction
          CFI CFA_SP SP+0
          CFI CFA_XSP16 add(XSP16, 11)
          CFI VB load(1, XDATA, add(CFA_XSP16, literal(-10)))
          CFI DPL0 load(1, XDATA, add(CFA_XSP16, literal(-2)))
          CFI DPH0 load(1, XDATA, add(CFA_XSP16, literal(-1)))
          CFI R6 load(1, XDATA, add(CFA_XSP16, literal(-11)))
          CFI R7 load(1, XDATA, add(CFA_XSP16, literal(-6)))
          CFI V0 load(1, XDATA, add(CFA_XSP16, literal(-9)))
          CFI V1 load(1, XDATA, add(CFA_XSP16, literal(-8)))
          CFI V2 load(1, XDATA, add(CFA_XSP16, literal(-7)))
          CFI ?BRET_EXT load(1, XDATA, add(CFA_XSP16, literal(-3)))
          CFI ?RET_HIGH load(1, XDATA, add(CFA_XSP16, literal(-4)))
          CFI ?RET_LOW load(1, XDATA, add(CFA_XSP16, literal(-5)))
        MOV     R7,#0x3
        LJMP    ?BANKED_LEAVE_XDATA
          CFI EndBlock cfiBlock201

        RSEG BANKED_CODE:CODE:NOROOT(0)
?Subroutine27:
          CFI Block cfiCond202 Using cfiCommon0
          CFI Function zllInitiator_event_loop
          CFI Conditional ??CrossCallReturnLabel_30
          CFI R6 load(1, XDATA, add(CFA_XSP16, literal(-16)))
          CFI VB load(1, XDATA, add(CFA_XSP16, literal(-15)))
          CFI V0 load(1, XDATA, add(CFA_XSP16, literal(-14)))
          CFI V1 load(1, XDATA, add(CFA_XSP16, literal(-13)))
          CFI V2 load(1, XDATA, add(CFA_XSP16, literal(-12)))
          CFI V3 load(1, XDATA, add(CFA_XSP16, literal(-11)))
          CFI V4 load(1, XDATA, add(CFA_XSP16, literal(-10)))
          CFI V5 load(1, XDATA, add(CFA_XSP16, literal(-9)))
          CFI V6 load(1, XDATA, add(CFA_XSP16, literal(-8)))
          CFI V7 load(1, XDATA, add(CFA_XSP16, literal(-7)))
          CFI R7 load(1, XDATA, add(CFA_XSP16, literal(-6)))
          CFI ?RET_LOW load(1, XDATA, add(CFA_XSP16, literal(-5)))
          CFI ?RET_HIGH load(1, XDATA, add(CFA_XSP16, literal(-4)))
          CFI ?BRET_EXT load(1, XDATA, add(CFA_XSP16, literal(-3)))
          CFI DPL0 load(1, XDATA, add(CFA_XSP16, literal(-2)))
          CFI DPH0 load(1, XDATA, add(CFA_XSP16, literal(-1)))
          CFI CFA_SP SP+0
          CFI CFA_XSP16 add(XSP16, 30)
          CFI Block cfiCond203 Using cfiCommon0
          CFI (cfiCond203) Function initiatorNwkJoinReqCB
          CFI (cfiCond203) Conditional ??CrossCallReturnLabel_31
          CFI (cfiCond203) R6 load(1, XDATA, add(CFA_XSP16, literal(-11)))
          CFI (cfiCond203) VB load(1, XDATA, add(CFA_XSP16, literal(-10)))
          CFI (cfiCond203) V0 load(1, XDATA, add(CFA_XSP16, literal(-9)))
          CFI (cfiCond203) V1 load(1, XDATA, add(CFA_XSP16, literal(-8)))
          CFI (cfiCond203) V2 load(1, XDATA, add(CFA_XSP16, literal(-7)))
          CFI (cfiCond203) R7 load(1, XDATA, add(CFA_XSP16, literal(-6)))
          CFI (cfiCond203) ?RET_LOW load(1, XDATA, add(CFA_XSP16, literal(-5)))
          CFI (cfiCond203) ?RET_HIGH load(1, XDATA, add(CFA_XSP16, literal(-4)))
          CFI (cfiCond203) ?BRET_EXT load(1, XDATA, add(CFA_XSP16, literal(-3)))
          CFI (cfiCond203) DPL0 load(1, XDATA, add(CFA_XSP16, literal(-2)))
          CFI (cfiCond203) DPH0 load(1, XDATA, add(CFA_XSP16, literal(-1)))
          CFI (cfiCond203) CFA_SP SP+0
          CFI (cfiCond203) CFA_XSP16 add(XSP16, 28)
          CFI Block cfiPicker204 Using cfiCommon1
          CFI (cfiPicker204) NoFunction
          CFI (cfiPicker204) Picker
        MOV     A,?V0 + 0
        ADD     A,#0x4
        MOV     R2,A
        MOV     A,?V0 + 1
        ADDC    A,#0x0
        MOV     R3,A
        RET
          CFI EndBlock cfiCond202
          CFI EndBlock cfiCond203
          CFI EndBlock cfiPicker204
// 1672 
// 1673 /*********************************************************************
// 1674  * @fn      initiatorScanReqCB
// 1675  *
// 1676  * @brief   This callback is called to process a Scan Response command.
// 1677  *
// 1678  * @param   srcAddr - sender's address
// 1679  * @param   pRsp - parsed command
// 1680  *
// 1681  * @return  ZStatus_t
// 1682  */

        RSEG BANKED_CODE:CODE:NOROOT(0)
// 1683 static ZStatus_t initiatorScanRspCB( afAddrType_t *srcAddr, zclLLScanRsp_t *pRsp )
initiatorScanRspCB:
          CFI Block cfiBlock205 Using cfiCommon0
          CFI Function initiatorScanRspCB
        CODE
// 1684 {
        FUNCALL initiatorScanRspCB, osal_get_timeoutEx
        LOCFRAME ISTACK, 0, STACK
        LOCFRAME PSTACK, 0, STACK
        LOCFRAME XSTACK, 17, STACK
        LOCFRAME IOVERLAY, 0, STATIC
        LOCFRAME DOVERLAY, 0, STATIC
        ARGFRAME ISTACK, 0, STACK
        ARGFRAME PSTACK, 0, STACK
        ARGFRAME XSTACK, 17, STACK
        ARGFRAME IOVERLAY, 0, STATIC
        ARGFRAME DOVERLAY, 0, STATIC
        FUNCALL initiatorScanRspCB, zll_IsValidTransID
        LOCFRAME ISTACK, 0, STACK
        LOCFRAME PSTACK, 0, STACK
        LOCFRAME XSTACK, 17, STACK
        LOCFRAME IOVERLAY, 0, STATIC
        LOCFRAME DOVERLAY, 0, STATIC
        ARGFRAME ISTACK, 0, STACK
        ARGFRAME PSTACK, 0, STACK
        ARGFRAME XSTACK, 17, STACK
        ARGFRAME IOVERLAY, 0, STATIC
        ARGFRAME DOVERLAY, 0, STATIC
        FUNCALL initiatorScanRspCB, zll_GetNwkKeyBitmask
        LOCFRAME ISTACK, 0, STACK
        LOCFRAME PSTACK, 0, STACK
        LOCFRAME XSTACK, 17, STACK
        LOCFRAME IOVERLAY, 0, STATIC
        LOCFRAME DOVERLAY, 0, STATIC
        ARGFRAME ISTACK, 0, STACK
        ARGFRAME PSTACK, 0, STACK
        ARGFRAME XSTACK, 17, STACK
        ARGFRAME IOVERLAY, 0, STATIC
        ARGFRAME DOVERLAY, 0, STATIC
        FUNCALL initiatorScanRspCB, zll_GetMsgRssi
        LOCFRAME ISTACK, 0, STACK
        LOCFRAME PSTACK, 0, STACK
        LOCFRAME XSTACK, 17, STACK
        LOCFRAME IOVERLAY, 0, STATIC
        LOCFRAME DOVERLAY, 0, STATIC
        ARGFRAME ISTACK, 0, STACK
        ARGFRAME PSTACK, 0, STACK
        ARGFRAME XSTACK, 17, STACK
        ARGFRAME IOVERLAY, 0, STATIC
        ARGFRAME DOVERLAY, 0, STATIC
        FUNCALL initiatorScanRspCB, ZMacGetReq
        LOCFRAME ISTACK, 0, STACK
        LOCFRAME PSTACK, 0, STACK
        LOCFRAME XSTACK, 17, STACK
        LOCFRAME IOVERLAY, 0, STATIC
        LOCFRAME DOVERLAY, 0, STATIC
        ARGFRAME ISTACK, 0, STACK
        ARGFRAME PSTACK, 0, STACK
        ARGFRAME XSTACK, 17, STACK
        ARGFRAME IOVERLAY, 0, STATIC
        ARGFRAME DOVERLAY, 0, STATIC
        FUNCALL initiatorScanRspCB, zclLL_Send_DeviceInfoReq
        LOCFRAME ISTACK, 0, STACK
        LOCFRAME PSTACK, 0, STACK
        LOCFRAME XSTACK, 18, STACK
        LOCFRAME IOVERLAY, 0, STATIC
        LOCFRAME DOVERLAY, 0, STATIC
        ARGFRAME ISTACK, 0, STACK
        ARGFRAME PSTACK, 0, STACK
        ARGFRAME XSTACK, 18, STACK
        ARGFRAME IOVERLAY, 0, STATIC
        ARGFRAME DOVERLAY, 0, STATIC
        MOV     A,#-0xc
        LCALL   ?BANKED_ENTER_XDATA
          CFI DPH0 load(1, XDATA, add(CFA_XSP16, literal(-1)))
          CFI DPL0 load(1, XDATA, add(CFA_XSP16, literal(-2)))
          CFI ?BRET_EXT load(1, XDATA, add(CFA_XSP16, literal(-3)))
          CFI ?RET_HIGH load(1, XDATA, add(CFA_XSP16, literal(-4)))
          CFI ?RET_LOW load(1, XDATA, add(CFA_XSP16, literal(-5)))
          CFI R7 load(1, XDATA, add(CFA_XSP16, literal(-6)))
          CFI V3 load(1, XDATA, add(CFA_XSP16, literal(-7)))
          CFI V2 load(1, XDATA, add(CFA_XSP16, literal(-8)))
          CFI V1 load(1, XDATA, add(CFA_XSP16, literal(-9)))
          CFI V0 load(1, XDATA, add(CFA_XSP16, literal(-10)))
          CFI VB load(1, XDATA, add(CFA_XSP16, literal(-11)))
          CFI R6 load(1, XDATA, add(CFA_XSP16, literal(-12)))
          CFI CFA_SP SP+0
          CFI CFA_XSP16 add(XSP16, 12)
        ; Saved register size: 12
        ; Auto size: 5
        MOV     A,#-0x5
        LCALL   ?ALLOC_XSTACK8
          CFI CFA_XSP16 add(XSP16, 17)
        MOV     ?V0 + 0,R2
        MOV     ?V0 + 1,R3
        MOV     A,R4
        MOV     R6,A
        MOV     A,R5
        MOV     R7,A
// 1685   if ( osal_get_timeoutEx( zllInitiator_TaskID, ZLL_TL_SCAN_BASE_EVT )
// 1686        && ( zll_IsValidTransID( pRsp->transID ) )
// 1687        && ( pRsp->keyBitmask & zll_GetNwkKeyBitmask() ) )
        ; Setup parameters for call to function osal_get_timeoutEx
        MOV     R2,#0x40
        MOV     R3,#0x0
        MOV     DPTR,#zllInitiator_TaskID
        MOVX    A,@DPTR
        MOV     R1,A
        LCALL   ??osal_get_timeoutEx?relay
        MOV     A,R2
        ORL     A,R3
        ORL     A,R4
        ORL     A,R5
        JNZ     $+5
        LJMP    ??initiatorScanRspCB_0 & 0xFFFF
        ; Setup parameters for call to function zll_IsValidTransID
        MOV     DPL,R6
        MOV     DPH,R7
        LCALL   ?XLOAD_R2345
        LCALL   ??zll_IsValidTransID?relay
        MOV     A,R1
        JNZ     $+5
        LJMP    ??initiatorScanRspCB_0 & 0xFFFF
        ; Setup parameters for call to function zll_GetNwkKeyBitmask
        LCALL   ??zll_GetNwkKeyBitmask?relay
        MOV     ?V0 + 2,R2
        MOV     ?V0 + 3,R3
        MOV     R0,?V0 + 2
        MOV     R1,?V0 + 3
        MOV     DPL,R6
        MOV     DPH,R7
        INC     DPTR
        INC     DPTR
        INC     DPTR
        INC     DPTR
        INC     DPTR
        INC     DPTR
        INC     DPTR
        INC     DPTR
        INC     DPTR
        MOVX    A,@DPTR
        ANL     A,R0
        MOV     R0,A
        INC     DPTR
        MOVX    A,@DPTR
        ANL     A,R1
        MOV     R1,A
        MOV     A,R0
        ORL     A,R1
        JNZ     $+5
        LJMP    ??initiatorScanRspCB_0 & 0xFFFF
// 1688   {
// 1689     uint8 selectThisTarget = FALSE;
// 1690     int8 rssi = zll_GetMsgRssi();
        ; Setup parameters for call to function zll_GetMsgRssi
        LCALL   ??zll_GetMsgRssi?relay
        MOV     A,R1
        MOV     ?V0 + 2,A
// 1691     if ( pfnSelectDiscDevCB != NULL )
        MOV     DPTR,#pfnSelectDiscDevCB
        LCALL   ??Subroutine33_0 & 0xFFFF
??CrossCallReturnLabel_35:
        JZ      ??initiatorScanRspCB_1
// 1692     {
// 1693       selectThisTarget = pfnSelectDiscDevCB( pRsp, rssi );
// 1694     }
// 1695     // Default selection - according to RSSI
// 1696     else if ( rssi > ZLL_TL_WORST_RSSI )
// 1697     {
// 1698       if ( ( rssi + pRsp->rssiCorrection ) > selectedTarget.lastRssi )
// 1699       {
// 1700         // Better RSSI, select this target
// 1701         selectThisTarget = TRUE;
// 1702       }
// 1703     }
// 1704 
// 1705     if ( selectThisTarget )
        ; Setup parameters for indirect call
        MOV     R1,?V0 + 2
        MOV     A,R6
        MOV     R2,A
        MOV     A,R7
        MOV     R3,A
        LCALL   ??Subroutine43_0 & 0xFFFF
??CrossCallReturnLabel_101:
        LCALL   ?CALL_IND
        MOV     A,R1
        JNZ     ??initiatorScanRspCB_2
// 1706     {
// 1707       selectedTarget.scanRsp = *pRsp;
// 1708       selectedTarget.lastRssi = rssi;
// 1709       selectedTarget.srcAddr = *srcAddr;
// 1710       selectedTarget.srcAddr.panId = 0xFFFF;
// 1711 
// 1712       // Remember channel we heard back this scan response on
// 1713       ZMacGetReq( ZMacChannel, &(selectedTarget.rxChannel));
// 1714 
// 1715       if ( pRsp->numSubDevices > 1 )
// 1716       {
// 1717         selectedTarget.scanRsp.deviceInfo.endpoint = DEV_INFO_INVALID_EP;
// 1718 
// 1719         zclLLDeviceInfoReq_t devInfoReq;
// 1720         devInfoReq.transID = pRsp->transID;
// 1721         devInfoReq.startIndex = 0;
// 1722         return zclLL_Send_DeviceInfoReq( ZLL_INTERNAL_ENDPOINT, srcAddr,
// 1723                                     &devInfoReq, initiatorSeqNum++ );
// 1724       }
// 1725     }
// 1726     return ( ZSuccess );
??initiatorScanRspCB_3:
        MOV     R1,#0x0
        LJMP    ??initiatorScanRspCB_4 & 0xFFFF
??initiatorScanRspCB_1:
        MOV     A,?V0 + 2
        LCALL   ?Subroutine26 & 0xFFFF
??CrossCallReturnLabel_29:
        JC      ??initiatorScanRspCB_3
        MOV     DPTR,#selectedTarget + 53
        MOVX    A,@DPTR
        MOV     R2,A
        RLC     A
        SUBB    A,0xE0 /* A   */
        MOV     R3,A
        MOV     A,?V0 + 2
        MOV     R0,A
        RLC     A
        SUBB    A,0xE0 /* A   */
        MOV     R1,A
        MOV     DPL,R6
        MOV     DPH,R7
        INC     DPTR
        INC     DPTR
        INC     DPTR
        INC     DPTR
        MOVX    A,@DPTR
        MOV     R4,A
        MOV     A,R0
        ADD     A,R4
        MOV     R0,A
        MOV     A,R1
        ADDC    A,#0x0
        MOV     R1,A
        CLR     C
        MOV     A,R2
        SUBB    A,R0
        MOV     A,R3
        SUBB    A,R1
        MOV     C,0xD0 /* PSW */.2
        XRL     A,PSW
        RLC     A
        JNC     ??initiatorScanRspCB_3
??initiatorScanRspCB_2:
        MOV     DPL,R6
        MOV     DPH,R7
        MOV     R4,#selectedTarget & 0xff
        MOV     R5,#(selectedTarget >> 8) & 0xff
        MOV     A,#0x26
        LCALL   ?MOVE_LONG8_XDATA_XDATA
        MOV     A,?V0 + 2
        MOV     DPTR,#selectedTarget + 53
        MOVX    @DPTR,A
        MOV     DPL,?V0 + 0
        MOV     DPH,?V0 + 1
        MOV     A,#0xc
        LCALL   ?MOVE_LONG8_XDATA_XDATA
        MOV     DPTR,#selectedTarget + 48
        MOV     A,#-0x1
        MOVX    @DPTR,A
        INC     DPTR
        MOVX    @DPTR,A
        ; Setup parameters for call to function ZMacGetReq
        MOV     R2,#(selectedTarget + 52) & 0xff
        MOV     R3,#((selectedTarget + 52) >> 8) & 0xff
        MOV     R1,#-0x1f
        LCALL   ??ZMacGetReq?relay
        MOV     A,R6
        ADD     A,#0x1d
        LCALL   ?Subroutine24 & 0xFFFF
??CrossCallReturnLabel_71:
        CLR     C
        SUBB    A,#0x2
        JC      ??initiatorScanRspCB_3
        MOV     DPTR,#selectedTarget + 31
        MOV     A,#-0x2
        MOVX    @DPTR,A
        MOV     DPL,R6
        MOV     DPH,R7
        LCALL   ?XLOAD_R2345
        MOV     DPL,?XSP + 0
        MOV     DPH,?XSP + 1
        LCALL   ?XSTORE_R2345
        MOV     A,#0x4
        LCALL   ?XSTACK_DISP0_8
        CLR     A
        LCALL   ?Subroutine8 & 0xFFFF
// 1727   }
??CrossCallReturnLabel_1:
        LCALL   ?PUSH_XSTACK_I_ONE
          CFI CFA_XSP16 add(XSP16, 18)
        MOV     A,#0x1
        LCALL   ?XSTACK_DISP0_8
        MOV     R4,DPL
        MOV     R5,DPH
        MOV     R2,?V0 + 0
        MOV     R3,?V0 + 1
        MOV     R1,#0xd
        LCALL   ??zclLL_Send_DeviceInfoReq?relay
        MOV     A,#0x1
        LCALL   ?DEALLOC_XSTACK8
          CFI CFA_XSP16 add(XSP16, 17)
        SJMP    ??initiatorScanRspCB_4
// 1728 
// 1729   return ( ZFailure );
??initiatorScanRspCB_0:
        MOV     R1,#0x1
??initiatorScanRspCB_4:
        MOV     A,#0x5
        LJMP    ?Subroutine3 & 0xFFFF
          CFI EndBlock cfiBlock205
// 1730 }

        RSEG BANKED_CODE:CODE:NOROOT(0)
?Subroutine8:
          CFI Block cfiCond206 Using cfiCommon0
          CFI Function zllInitiator_event_loop
          CFI Conditional ??CrossCallReturnLabel_0
          CFI R6 load(1, XDATA, add(CFA_XSP16, literal(-16)))
          CFI VB load(1, XDATA, add(CFA_XSP16, literal(-15)))
          CFI V0 load(1, XDATA, add(CFA_XSP16, literal(-14)))
          CFI V1 load(1, XDATA, add(CFA_XSP16, literal(-13)))
          CFI V2 load(1, XDATA, add(CFA_XSP16, literal(-12)))
          CFI V3 load(1, XDATA, add(CFA_XSP16, literal(-11)))
          CFI V4 load(1, XDATA, add(CFA_XSP16, literal(-10)))
          CFI V5 load(1, XDATA, add(CFA_XSP16, literal(-9)))
          CFI V6 load(1, XDATA, add(CFA_XSP16, literal(-8)))
          CFI V7 load(1, XDATA, add(CFA_XSP16, literal(-7)))
          CFI R7 load(1, XDATA, add(CFA_XSP16, literal(-6)))
          CFI ?RET_LOW load(1, XDATA, add(CFA_XSP16, literal(-5)))
          CFI ?RET_HIGH load(1, XDATA, add(CFA_XSP16, literal(-4)))
          CFI ?BRET_EXT load(1, XDATA, add(CFA_XSP16, literal(-3)))
          CFI DPL0 load(1, XDATA, add(CFA_XSP16, literal(-2)))
          CFI DPH0 load(1, XDATA, add(CFA_XSP16, literal(-1)))
          CFI CFA_SP SP+0
          CFI CFA_XSP16 add(XSP16, 30)
          CFI Block cfiCond207 Using cfiCommon0
          CFI (cfiCond207) Function initiatorScanRspCB
          CFI (cfiCond207) Conditional ??CrossCallReturnLabel_1
          CFI (cfiCond207) R6 load(1, XDATA, add(CFA_XSP16, literal(-12)))
          CFI (cfiCond207) VB load(1, XDATA, add(CFA_XSP16, literal(-11)))
          CFI (cfiCond207) V0 load(1, XDATA, add(CFA_XSP16, literal(-10)))
          CFI (cfiCond207) V1 load(1, XDATA, add(CFA_XSP16, literal(-9)))
          CFI (cfiCond207) V2 load(1, XDATA, add(CFA_XSP16, literal(-8)))
          CFI (cfiCond207) V3 load(1, XDATA, add(CFA_XSP16, literal(-7)))
          CFI (cfiCond207) R7 load(1, XDATA, add(CFA_XSP16, literal(-6)))
          CFI (cfiCond207) ?RET_LOW load(1, XDATA, add(CFA_XSP16, literal(-5)))
          CFI (cfiCond207) ?RET_HIGH load(1, XDATA, add(CFA_XSP16, literal(-4)))
          CFI (cfiCond207) ?BRET_EXT load(1, XDATA, add(CFA_XSP16, literal(-3)))
          CFI (cfiCond207) DPL0 load(1, XDATA, add(CFA_XSP16, literal(-2)))
          CFI (cfiCond207) DPH0 load(1, XDATA, add(CFA_XSP16, literal(-1)))
          CFI (cfiCond207) CFA_SP SP+0
          CFI (cfiCond207) CFA_XSP16 add(XSP16, 17)
          CFI Block cfiPicker208 Using cfiCommon1
          CFI (cfiPicker208) NoFunction
          CFI (cfiPicker208) Picker
        LCALL   ?Subroutine30 & 0xFFFF
??CrossCallReturnLabel_49:
        MOV     ?V0 + 2,A
        MOV     R0,#?V0 + 2
        RET
          CFI EndBlock cfiCond206
          CFI EndBlock cfiCond207
          CFI EndBlock cfiPicker208

        RSEG BANKED_CODE:CODE:NOROOT(0)
?Subroutine30:
          CFI Block cfiCond209 Using cfiCommon0
          CFI Function zllInitiator_event_loop
          CFI Conditional ??CrossCallReturnLabel_48, ??CrossCallReturnLabel_45
          CFI R6 load(1, XDATA, add(CFA_XSP16, literal(-16)))
          CFI VB load(1, XDATA, add(CFA_XSP16, literal(-15)))
          CFI V0 load(1, XDATA, add(CFA_XSP16, literal(-14)))
          CFI V1 load(1, XDATA, add(CFA_XSP16, literal(-13)))
          CFI V2 load(1, XDATA, add(CFA_XSP16, literal(-12)))
          CFI V3 load(1, XDATA, add(CFA_XSP16, literal(-11)))
          CFI V4 load(1, XDATA, add(CFA_XSP16, literal(-10)))
          CFI V5 load(1, XDATA, add(CFA_XSP16, literal(-9)))
          CFI V6 load(1, XDATA, add(CFA_XSP16, literal(-8)))
          CFI V7 load(1, XDATA, add(CFA_XSP16, literal(-7)))
          CFI R7 load(1, XDATA, add(CFA_XSP16, literal(-6)))
          CFI ?RET_LOW load(1, XDATA, add(CFA_XSP16, literal(-5)))
          CFI ?RET_HIGH load(1, XDATA, add(CFA_XSP16, literal(-4)))
          CFI ?BRET_EXT load(1, XDATA, add(CFA_XSP16, literal(-3)))
          CFI DPL0 load(1, XDATA, add(CFA_XSP16, literal(-2)))
          CFI DPH0 load(1, XDATA, add(CFA_XSP16, literal(-1)))
          CFI CFA_SP SP+0
          CFI CFA_XSP16 add(XSP16, 30)
          CFI Block cfiCond210 Using cfiCommon0
          CFI (cfiCond210) Function zllInitiator_event_loop
          CFI (cfiCond210) Conditional ??CrossCallReturnLabel_48, ??CrossCallReturnLabel_46
          CFI (cfiCond210) R6 load(1, XDATA, add(CFA_XSP16, literal(-16)))
          CFI (cfiCond210) VB load(1, XDATA, add(CFA_XSP16, literal(-15)))
          CFI (cfiCond210) V0 load(1, XDATA, add(CFA_XSP16, literal(-14)))
          CFI (cfiCond210) V1 load(1, XDATA, add(CFA_XSP16, literal(-13)))
          CFI (cfiCond210) V2 load(1, XDATA, add(CFA_XSP16, literal(-12)))
          CFI (cfiCond210) V3 load(1, XDATA, add(CFA_XSP16, literal(-11)))
          CFI (cfiCond210) V4 load(1, XDATA, add(CFA_XSP16, literal(-10)))
          CFI (cfiCond210) V5 load(1, XDATA, add(CFA_XSP16, literal(-9)))
          CFI (cfiCond210) V6 load(1, XDATA, add(CFA_XSP16, literal(-8)))
          CFI (cfiCond210) V7 load(1, XDATA, add(CFA_XSP16, literal(-7)))
          CFI (cfiCond210) R7 load(1, XDATA, add(CFA_XSP16, literal(-6)))
          CFI (cfiCond210) ?RET_LOW load(1, XDATA, add(CFA_XSP16, literal(-5)))
          CFI (cfiCond210) ?RET_HIGH load(1, XDATA, add(CFA_XSP16, literal(-4)))
          CFI (cfiCond210) ?BRET_EXT load(1, XDATA, add(CFA_XSP16, literal(-3)))
          CFI (cfiCond210) DPL0 load(1, XDATA, add(CFA_XSP16, literal(-2)))
          CFI (cfiCond210) DPH0 load(1, XDATA, add(CFA_XSP16, literal(-1)))
          CFI (cfiCond210) CFA_SP SP+0
          CFI (cfiCond210) CFA_XSP16 add(XSP16, 30)
          CFI Block cfiCond211 Using cfiCommon0
          CFI (cfiCond211) Function initiatorSendNwkStartReq
          CFI (cfiCond211) Conditional ??CrossCallReturnLabel_48, ??CrossCallReturnLabel_47
          CFI (cfiCond211) R6 load(1, XDATA, add(CFA_XSP16, literal(-20)))
          CFI (cfiCond211) VB load(1, XDATA, add(CFA_XSP16, literal(-19)))
          CFI (cfiCond211) V0 load(1, XDATA, add(CFA_XSP16, literal(-18)))
          CFI (cfiCond211) V1 load(1, XDATA, add(CFA_XSP16, literal(-17)))
          CFI (cfiCond211) V2 load(1, XDATA, add(CFA_XSP16, literal(-16)))
          CFI (cfiCond211) V3 load(1, XDATA, add(CFA_XSP16, literal(-15)))
          CFI (cfiCond211) V4 load(1, XDATA, add(CFA_XSP16, literal(-14)))
          CFI (cfiCond211) V5 load(1, XDATA, add(CFA_XSP16, literal(-13)))
          CFI (cfiCond211) V6 load(1, XDATA, add(CFA_XSP16, literal(-12)))
          CFI (cfiCond211) V7 load(1, XDATA, add(CFA_XSP16, literal(-11)))
          CFI (cfiCond211) V8 load(1, XDATA, add(CFA_XSP16, literal(-10)))
          CFI (cfiCond211) V9 load(1, XDATA, add(CFA_XSP16, literal(-9)))
          CFI (cfiCond211) V10 load(1, XDATA, add(CFA_XSP16, literal(-8)))
          CFI (cfiCond211) V11 load(1, XDATA, add(CFA_XSP16, literal(-7)))
          CFI (cfiCond211) R7 load(1, XDATA, add(CFA_XSP16, literal(-6)))
          CFI (cfiCond211) ?RET_LOW load(1, XDATA, add(CFA_XSP16, literal(-5)))
          CFI (cfiCond211) ?RET_HIGH load(1, XDATA, add(CFA_XSP16, literal(-4)))
          CFI (cfiCond211) ?BRET_EXT load(1, XDATA, add(CFA_XSP16, literal(-3)))
          CFI (cfiCond211) DPL0 load(1, XDATA, add(CFA_XSP16, literal(-2)))
          CFI (cfiCond211) DPH0 load(1, XDATA, add(CFA_XSP16, literal(-1)))
          CFI (cfiCond211) CFA_SP SP+0
          CFI (cfiCond211) CFA_XSP16 add(XSP16, 20)
          CFI Block cfiCond212 Using cfiCommon0
          CFI (cfiCond212) Function zllInitiator_event_loop
          CFI (cfiCond212) Conditional ??CrossCallReturnLabel_49, ??CrossCallReturnLabel_0
          CFI (cfiCond212) R6 load(1, XDATA, add(CFA_XSP16, literal(-16)))
          CFI (cfiCond212) VB load(1, XDATA, add(CFA_XSP16, literal(-15)))
          CFI (cfiCond212) V0 load(1, XDATA, add(CFA_XSP16, literal(-14)))
          CFI (cfiCond212) V1 load(1, XDATA, add(CFA_XSP16, literal(-13)))
          CFI (cfiCond212) V2 load(1, XDATA, add(CFA_XSP16, literal(-12)))
          CFI (cfiCond212) V3 load(1, XDATA, add(CFA_XSP16, literal(-11)))
          CFI (cfiCond212) V4 load(1, XDATA, add(CFA_XSP16, literal(-10)))
          CFI (cfiCond212) V5 load(1, XDATA, add(CFA_XSP16, literal(-9)))
          CFI (cfiCond212) V6 load(1, XDATA, add(CFA_XSP16, literal(-8)))
          CFI (cfiCond212) V7 load(1, XDATA, add(CFA_XSP16, literal(-7)))
          CFI (cfiCond212) R7 load(1, XDATA, add(CFA_XSP16, literal(-6)))
          CFI (cfiCond212) ?RET_LOW load(1, XDATA, add(CFA_XSP16, literal(-5)))
          CFI (cfiCond212) ?RET_HIGH load(1, XDATA, add(CFA_XSP16, literal(-4)))
          CFI (cfiCond212) ?BRET_EXT load(1, XDATA, add(CFA_XSP16, literal(-3)))
          CFI (cfiCond212) DPL0 load(1, XDATA, add(CFA_XSP16, literal(-2)))
          CFI (cfiCond212) DPH0 load(1, XDATA, add(CFA_XSP16, literal(-1)))
          CFI (cfiCond212) CFA_SP SP+0
          CFI (cfiCond212) CFA_XSP16 add(XSP16, 30)
          CFI Block cfiCond213 Using cfiCommon0
          CFI (cfiCond213) Function initiatorScanRspCB
          CFI (cfiCond213) Conditional ??CrossCallReturnLabel_49, ??CrossCallReturnLabel_1
          CFI (cfiCond213) R6 load(1, XDATA, add(CFA_XSP16, literal(-12)))
          CFI (cfiCond213) VB load(1, XDATA, add(CFA_XSP16, literal(-11)))
          CFI (cfiCond213) V0 load(1, XDATA, add(CFA_XSP16, literal(-10)))
          CFI (cfiCond213) V1 load(1, XDATA, add(CFA_XSP16, literal(-9)))
          CFI (cfiCond213) V2 load(1, XDATA, add(CFA_XSP16, literal(-8)))
          CFI (cfiCond213) V3 load(1, XDATA, add(CFA_XSP16, literal(-7)))
          CFI (cfiCond213) R7 load(1, XDATA, add(CFA_XSP16, literal(-6)))
          CFI (cfiCond213) ?RET_LOW load(1, XDATA, add(CFA_XSP16, literal(-5)))
          CFI (cfiCond213) ?RET_HIGH load(1, XDATA, add(CFA_XSP16, literal(-4)))
          CFI (cfiCond213) ?BRET_EXT load(1, XDATA, add(CFA_XSP16, literal(-3)))
          CFI (cfiCond213) DPL0 load(1, XDATA, add(CFA_XSP16, literal(-2)))
          CFI (cfiCond213) DPH0 load(1, XDATA, add(CFA_XSP16, literal(-1)))
          CFI (cfiCond213) CFA_SP SP+0
          CFI (cfiCond213) CFA_XSP16 add(XSP16, 17)
          CFI Block cfiPicker214 Using cfiCommon1
          CFI (cfiPicker214) NoFunction
          CFI (cfiPicker214) Picker
        MOVX    @DPTR,A
        LCALL   ?Subroutine32 & 0xFFFF
??CrossCallReturnLabel_107:
        RET
          CFI EndBlock cfiCond209
          CFI EndBlock cfiCond210
          CFI EndBlock cfiCond211
          CFI EndBlock cfiCond212
          CFI EndBlock cfiCond213
          CFI EndBlock cfiPicker214

        RSEG BANKED_CODE:CODE:NOROOT(0)
?Subroutine32:
          CFI Block cfiCond215 Using cfiCommon0
          CFI Function zllInitiator_event_loop
          CFI Conditional ??CrossCallReturnLabel_107, ??CrossCallReturnLabel_48, ??CrossCallReturnLabel_45
          CFI R6 load(1, XDATA, add(CFA_XSP16, literal(-16)))
          CFI VB load(1, XDATA, add(CFA_XSP16, literal(-15)))
          CFI V0 load(1, XDATA, add(CFA_XSP16, literal(-14)))
          CFI V1 load(1, XDATA, add(CFA_XSP16, literal(-13)))
          CFI V2 load(1, XDATA, add(CFA_XSP16, literal(-12)))
          CFI V3 load(1, XDATA, add(CFA_XSP16, literal(-11)))
          CFI V4 load(1, XDATA, add(CFA_XSP16, literal(-10)))
          CFI V5 load(1, XDATA, add(CFA_XSP16, literal(-9)))
          CFI V6 load(1, XDATA, add(CFA_XSP16, literal(-8)))
          CFI V7 load(1, XDATA, add(CFA_XSP16, literal(-7)))
          CFI R7 load(1, XDATA, add(CFA_XSP16, literal(-6)))
          CFI ?RET_LOW load(1, XDATA, add(CFA_XSP16, literal(-5)))
          CFI ?RET_HIGH load(1, XDATA, add(CFA_XSP16, literal(-4)))
          CFI ?BRET_EXT load(1, XDATA, add(CFA_XSP16, literal(-3)))
          CFI DPL0 load(1, XDATA, add(CFA_XSP16, literal(-2)))
          CFI DPH0 load(1, XDATA, add(CFA_XSP16, literal(-1)))
          CFI CFA_SP SP+0
          CFI CFA_XSP16 add(XSP16, 30)
          CFI Block cfiCond216 Using cfiCommon0
          CFI (cfiCond216) Function zllInitiator_event_loop
          CFI (cfiCond216) Conditional ??CrossCallReturnLabel_107, ??CrossCallReturnLabel_48, ??CrossCallReturnLabel_46
          CFI (cfiCond216) R6 load(1, XDATA, add(CFA_XSP16, literal(-16)))
          CFI (cfiCond216) VB load(1, XDATA, add(CFA_XSP16, literal(-15)))
          CFI (cfiCond216) V0 load(1, XDATA, add(CFA_XSP16, literal(-14)))
          CFI (cfiCond216) V1 load(1, XDATA, add(CFA_XSP16, literal(-13)))
          CFI (cfiCond216) V2 load(1, XDATA, add(CFA_XSP16, literal(-12)))
          CFI (cfiCond216) V3 load(1, XDATA, add(CFA_XSP16, literal(-11)))
          CFI (cfiCond216) V4 load(1, XDATA, add(CFA_XSP16, literal(-10)))
          CFI (cfiCond216) V5 load(1, XDATA, add(CFA_XSP16, literal(-9)))
          CFI (cfiCond216) V6 load(1, XDATA, add(CFA_XSP16, literal(-8)))
          CFI (cfiCond216) V7 load(1, XDATA, add(CFA_XSP16, literal(-7)))
          CFI (cfiCond216) R7 load(1, XDATA, add(CFA_XSP16, literal(-6)))
          CFI (cfiCond216) ?RET_LOW load(1, XDATA, add(CFA_XSP16, literal(-5)))
          CFI (cfiCond216) ?RET_HIGH load(1, XDATA, add(CFA_XSP16, literal(-4)))
          CFI (cfiCond216) ?BRET_EXT load(1, XDATA, add(CFA_XSP16, literal(-3)))
          CFI (cfiCond216) DPL0 load(1, XDATA, add(CFA_XSP16, literal(-2)))
          CFI (cfiCond216) DPH0 load(1, XDATA, add(CFA_XSP16, literal(-1)))
          CFI (cfiCond216) CFA_SP SP+0
          CFI (cfiCond216) CFA_XSP16 add(XSP16, 30)
          CFI Block cfiCond217 Using cfiCommon0
          CFI (cfiCond217) Function initiatorSendNwkStartReq
          CFI (cfiCond217) Conditional ??CrossCallReturnLabel_107, ??CrossCallReturnLabel_48, ??CrossCallReturnLabel_47
          CFI (cfiCond217) R6 load(1, XDATA, add(CFA_XSP16, literal(-20)))
          CFI (cfiCond217) VB load(1, XDATA, add(CFA_XSP16, literal(-19)))
          CFI (cfiCond217) V0 load(1, XDATA, add(CFA_XSP16, literal(-18)))
          CFI (cfiCond217) V1 load(1, XDATA, add(CFA_XSP16, literal(-17)))
          CFI (cfiCond217) V2 load(1, XDATA, add(CFA_XSP16, literal(-16)))
          CFI (cfiCond217) V3 load(1, XDATA, add(CFA_XSP16, literal(-15)))
          CFI (cfiCond217) V4 load(1, XDATA, add(CFA_XSP16, literal(-14)))
          CFI (cfiCond217) V5 load(1, XDATA, add(CFA_XSP16, literal(-13)))
          CFI (cfiCond217) V6 load(1, XDATA, add(CFA_XSP16, literal(-12)))
          CFI (cfiCond217) V7 load(1, XDATA, add(CFA_XSP16, literal(-11)))
          CFI (cfiCond217) V8 load(1, XDATA, add(CFA_XSP16, literal(-10)))
          CFI (cfiCond217) V9 load(1, XDATA, add(CFA_XSP16, literal(-9)))
          CFI (cfiCond217) V10 load(1, XDATA, add(CFA_XSP16, literal(-8)))
          CFI (cfiCond217) V11 load(1, XDATA, add(CFA_XSP16, literal(-7)))
          CFI (cfiCond217) R7 load(1, XDATA, add(CFA_XSP16, literal(-6)))
          CFI (cfiCond217) ?RET_LOW load(1, XDATA, add(CFA_XSP16, literal(-5)))
          CFI (cfiCond217) ?RET_HIGH load(1, XDATA, add(CFA_XSP16, literal(-4)))
          CFI (cfiCond217) ?BRET_EXT load(1, XDATA, add(CFA_XSP16, literal(-3)))
          CFI (cfiCond217) DPL0 load(1, XDATA, add(CFA_XSP16, literal(-2)))
          CFI (cfiCond217) DPH0 load(1, XDATA, add(CFA_XSP16, literal(-1)))
          CFI (cfiCond217) CFA_SP SP+0
          CFI (cfiCond217) CFA_XSP16 add(XSP16, 20)
          CFI Block cfiCond218 Using cfiCommon0
          CFI (cfiCond218) Function zllInitiator_event_loop
          CFI (cfiCond218) Conditional ??CrossCallReturnLabel_107, ??CrossCallReturnLabel_49, ??CrossCallReturnLabel_0
          CFI (cfiCond218) R6 load(1, XDATA, add(CFA_XSP16, literal(-16)))
          CFI (cfiCond218) VB load(1, XDATA, add(CFA_XSP16, literal(-15)))
          CFI (cfiCond218) V0 load(1, XDATA, add(CFA_XSP16, literal(-14)))
          CFI (cfiCond218) V1 load(1, XDATA, add(CFA_XSP16, literal(-13)))
          CFI (cfiCond218) V2 load(1, XDATA, add(CFA_XSP16, literal(-12)))
          CFI (cfiCond218) V3 load(1, XDATA, add(CFA_XSP16, literal(-11)))
          CFI (cfiCond218) V4 load(1, XDATA, add(CFA_XSP16, literal(-10)))
          CFI (cfiCond218) V5 load(1, XDATA, add(CFA_XSP16, literal(-9)))
          CFI (cfiCond218) V6 load(1, XDATA, add(CFA_XSP16, literal(-8)))
          CFI (cfiCond218) V7 load(1, XDATA, add(CFA_XSP16, literal(-7)))
          CFI (cfiCond218) R7 load(1, XDATA, add(CFA_XSP16, literal(-6)))
          CFI (cfiCond218) ?RET_LOW load(1, XDATA, add(CFA_XSP16, literal(-5)))
          CFI (cfiCond218) ?RET_HIGH load(1, XDATA, add(CFA_XSP16, literal(-4)))
          CFI (cfiCond218) ?BRET_EXT load(1, XDATA, add(CFA_XSP16, literal(-3)))
          CFI (cfiCond218) DPL0 load(1, XDATA, add(CFA_XSP16, literal(-2)))
          CFI (cfiCond218) DPH0 load(1, XDATA, add(CFA_XSP16, literal(-1)))
          CFI (cfiCond218) CFA_SP SP+0
          CFI (cfiCond218) CFA_XSP16 add(XSP16, 30)
          CFI Block cfiCond219 Using cfiCommon0
          CFI (cfiCond219) Function initiatorScanRspCB
          CFI (cfiCond219) Conditional ??CrossCallReturnLabel_107, ??CrossCallReturnLabel_49, ??CrossCallReturnLabel_1
          CFI (cfiCond219) R6 load(1, XDATA, add(CFA_XSP16, literal(-12)))
          CFI (cfiCond219) VB load(1, XDATA, add(CFA_XSP16, literal(-11)))
          CFI (cfiCond219) V0 load(1, XDATA, add(CFA_XSP16, literal(-10)))
          CFI (cfiCond219) V1 load(1, XDATA, add(CFA_XSP16, literal(-9)))
          CFI (cfiCond219) V2 load(1, XDATA, add(CFA_XSP16, literal(-8)))
          CFI (cfiCond219) V3 load(1, XDATA, add(CFA_XSP16, literal(-7)))
          CFI (cfiCond219) R7 load(1, XDATA, add(CFA_XSP16, literal(-6)))
          CFI (cfiCond219) ?RET_LOW load(1, XDATA, add(CFA_XSP16, literal(-5)))
          CFI (cfiCond219) ?RET_HIGH load(1, XDATA, add(CFA_XSP16, literal(-4)))
          CFI (cfiCond219) ?BRET_EXT load(1, XDATA, add(CFA_XSP16, literal(-3)))
          CFI (cfiCond219) DPL0 load(1, XDATA, add(CFA_XSP16, literal(-2)))
          CFI (cfiCond219) DPH0 load(1, XDATA, add(CFA_XSP16, literal(-1)))
          CFI (cfiCond219) CFA_SP SP+0
          CFI (cfiCond219) CFA_XSP16 add(XSP16, 17)
          CFI Block cfiCond220 Using cfiCommon0
          CFI (cfiCond220) Function initiatorSendScanReq
          CFI (cfiCond220) Conditional ??CrossCallReturnLabel_106, ??CrossCallReturnLabel_21
          CFI (cfiCond220) R6 load(1, XDATA, add(CFA_XSP16, literal(-12)))
          CFI (cfiCond220) VB load(1, XDATA, add(CFA_XSP16, literal(-11)))
          CFI (cfiCond220) V0 load(1, XDATA, add(CFA_XSP16, literal(-10)))
          CFI (cfiCond220) V1 load(1, XDATA, add(CFA_XSP16, literal(-9)))
          CFI (cfiCond220) V2 load(1, XDATA, add(CFA_XSP16, literal(-8)))
          CFI (cfiCond220) V3 load(1, XDATA, add(CFA_XSP16, literal(-7)))
          CFI (cfiCond220) R7 load(1, XDATA, add(CFA_XSP16, literal(-6)))
          CFI (cfiCond220) ?RET_LOW load(1, XDATA, add(CFA_XSP16, literal(-5)))
          CFI (cfiCond220) ?RET_HIGH load(1, XDATA, add(CFA_XSP16, literal(-4)))
          CFI (cfiCond220) ?BRET_EXT load(1, XDATA, add(CFA_XSP16, literal(-3)))
          CFI (cfiCond220) DPL0 load(1, XDATA, add(CFA_XSP16, literal(-2)))
          CFI (cfiCond220) DPH0 load(1, XDATA, add(CFA_XSP16, literal(-1)))
          CFI (cfiCond220) CFA_SP SP+0
          CFI (cfiCond220) CFA_XSP16 add(XSP16, 32)
          CFI Block cfiCond221 Using cfiCommon0
          CFI (cfiCond221) Function zllInitiator_ResetToFNSelectedTarget
          CFI (cfiCond221) Conditional ??CrossCallReturnLabel_106, ??CrossCallReturnLabel_22
          CFI (cfiCond221) R6 load(1, XDATA, add(CFA_XSP16, literal(-12)))
          CFI (cfiCond221) VB load(1, XDATA, add(CFA_XSP16, literal(-11)))
          CFI (cfiCond221) V0 load(1, XDATA, add(CFA_XSP16, literal(-10)))
          CFI (cfiCond221) V1 load(1, XDATA, add(CFA_XSP16, literal(-9)))
          CFI (cfiCond221) V2 load(1, XDATA, add(CFA_XSP16, literal(-8)))
          CFI (cfiCond221) V3 load(1, XDATA, add(CFA_XSP16, literal(-7)))
          CFI (cfiCond221) R7 load(1, XDATA, add(CFA_XSP16, literal(-6)))
          CFI (cfiCond221) ?RET_LOW load(1, XDATA, add(CFA_XSP16, literal(-5)))
          CFI (cfiCond221) ?RET_HIGH load(1, XDATA, add(CFA_XSP16, literal(-4)))
          CFI (cfiCond221) ?BRET_EXT load(1, XDATA, add(CFA_XSP16, literal(-3)))
          CFI (cfiCond221) DPL0 load(1, XDATA, add(CFA_XSP16, literal(-2)))
          CFI (cfiCond221) DPH0 load(1, XDATA, add(CFA_XSP16, literal(-1)))
          CFI (cfiCond221) CFA_SP SP+0
          CFI (cfiCond221) CFA_XSP16 add(XSP16, 16)
          CFI Block cfiPicker222 Using cfiCommon1
          CFI (cfiPicker222) NoFunction
          CFI (cfiPicker222) Picker
        MOV     DPTR,#initiatorSeqNum
          CFI EndBlock cfiCond215
          CFI EndBlock cfiCond216
          CFI EndBlock cfiCond217
          CFI EndBlock cfiCond218
          CFI EndBlock cfiCond219
          CFI EndBlock cfiCond220
          CFI EndBlock cfiCond221
          CFI EndBlock cfiPicker222
        REQUIRE ??Subroutine45_0
        ; // Fall through to label ??Subroutine45_0

        RSEG BANKED_CODE:CODE:NOROOT(0)
??Subroutine45_0:
          CFI Block cfiCond223 Using cfiCommon0
          CFI Function initiatorSendNwkJoinReq
          CFI Conditional ??CrossCallReturnLabel_105, ??CrossCallReturnLabel_23
          CFI R6 load(1, XDATA, add(CFA_XSP16, literal(-14)))
          CFI VB load(1, XDATA, add(CFA_XSP16, literal(-13)))
          CFI V0 load(1, XDATA, add(CFA_XSP16, literal(-12)))
          CFI V1 load(1, XDATA, add(CFA_XSP16, literal(-11)))
          CFI V2 load(1, XDATA, add(CFA_XSP16, literal(-10)))
          CFI V3 load(1, XDATA, add(CFA_XSP16, literal(-9)))
          CFI V4 load(1, XDATA, add(CFA_XSP16, literal(-8)))
          CFI V5 load(1, XDATA, add(CFA_XSP16, literal(-7)))
          CFI R7 load(1, XDATA, add(CFA_XSP16, literal(-6)))
          CFI ?RET_LOW load(1, XDATA, add(CFA_XSP16, literal(-5)))
          CFI ?RET_HIGH load(1, XDATA, add(CFA_XSP16, literal(-4)))
          CFI ?BRET_EXT load(1, XDATA, add(CFA_XSP16, literal(-3)))
          CFI DPL0 load(1, XDATA, add(CFA_XSP16, literal(-2)))
          CFI DPH0 load(1, XDATA, add(CFA_XSP16, literal(-1)))
          CFI CFA_SP SP+0
          CFI CFA_XSP16 add(XSP16, 14)
          CFI Block cfiCond224 Using cfiCommon0
          CFI (cfiCond224) Function initiatorSendNwkJoinReq
          CFI (cfiCond224) Conditional ??CrossCallReturnLabel_105, ??CrossCallReturnLabel_24
          CFI (cfiCond224) R6 load(1, XDATA, add(CFA_XSP16, literal(-14)))
          CFI (cfiCond224) VB load(1, XDATA, add(CFA_XSP16, literal(-13)))
          CFI (cfiCond224) V0 load(1, XDATA, add(CFA_XSP16, literal(-12)))
          CFI (cfiCond224) V1 load(1, XDATA, add(CFA_XSP16, literal(-11)))
          CFI (cfiCond224) V2 load(1, XDATA, add(CFA_XSP16, literal(-10)))
          CFI (cfiCond224) V3 load(1, XDATA, add(CFA_XSP16, literal(-9)))
          CFI (cfiCond224) V4 load(1, XDATA, add(CFA_XSP16, literal(-8)))
          CFI (cfiCond224) V5 load(1, XDATA, add(CFA_XSP16, literal(-7)))
          CFI (cfiCond224) R7 load(1, XDATA, add(CFA_XSP16, literal(-6)))
          CFI (cfiCond224) ?RET_LOW load(1, XDATA, add(CFA_XSP16, literal(-5)))
          CFI (cfiCond224) ?RET_HIGH load(1, XDATA, add(CFA_XSP16, literal(-4)))
          CFI (cfiCond224) ?BRET_EXT load(1, XDATA, add(CFA_XSP16, literal(-3)))
          CFI (cfiCond224) DPL0 load(1, XDATA, add(CFA_XSP16, literal(-2)))
          CFI (cfiCond224) DPH0 load(1, XDATA, add(CFA_XSP16, literal(-1)))
          CFI (cfiCond224) CFA_SP SP+0
          CFI (cfiCond224) CFA_XSP16 add(XSP16, 14)
          CFI Block cfiCond225 Using cfiCommon0
          CFI (cfiCond225) Function zllInitiator_event_loop
          CFI (cfiCond225) Conditional ??CrossCallReturnLabel_107, ??CrossCallReturnLabel_48, ??CrossCallReturnLabel_45
          CFI (cfiCond225) R6 load(1, XDATA, add(CFA_XSP16, literal(-16)))
          CFI (cfiCond225) VB load(1, XDATA, add(CFA_XSP16, literal(-15)))
          CFI (cfiCond225) V0 load(1, XDATA, add(CFA_XSP16, literal(-14)))
          CFI (cfiCond225) V1 load(1, XDATA, add(CFA_XSP16, literal(-13)))
          CFI (cfiCond225) V2 load(1, XDATA, add(CFA_XSP16, literal(-12)))
          CFI (cfiCond225) V3 load(1, XDATA, add(CFA_XSP16, literal(-11)))
          CFI (cfiCond225) V4 load(1, XDATA, add(CFA_XSP16, literal(-10)))
          CFI (cfiCond225) V5 load(1, XDATA, add(CFA_XSP16, literal(-9)))
          CFI (cfiCond225) V6 load(1, XDATA, add(CFA_XSP16, literal(-8)))
          CFI (cfiCond225) V7 load(1, XDATA, add(CFA_XSP16, literal(-7)))
          CFI (cfiCond225) R7 load(1, XDATA, add(CFA_XSP16, literal(-6)))
          CFI (cfiCond225) ?RET_LOW load(1, XDATA, add(CFA_XSP16, literal(-5)))
          CFI (cfiCond225) ?RET_HIGH load(1, XDATA, add(CFA_XSP16, literal(-4)))
          CFI (cfiCond225) ?BRET_EXT load(1, XDATA, add(CFA_XSP16, literal(-3)))
          CFI (cfiCond225) DPL0 load(1, XDATA, add(CFA_XSP16, literal(-2)))
          CFI (cfiCond225) DPH0 load(1, XDATA, add(CFA_XSP16, literal(-1)))
          CFI (cfiCond225) CFA_SP SP+0
          CFI (cfiCond225) CFA_XSP16 add(XSP16, 30)
          CFI Block cfiCond226 Using cfiCommon0
          CFI (cfiCond226) Function zllInitiator_event_loop
          CFI (cfiCond226) Conditional ??CrossCallReturnLabel_107, ??CrossCallReturnLabel_48, ??CrossCallReturnLabel_46
          CFI (cfiCond226) R6 load(1, XDATA, add(CFA_XSP16, literal(-16)))
          CFI (cfiCond226) VB load(1, XDATA, add(CFA_XSP16, literal(-15)))
          CFI (cfiCond226) V0 load(1, XDATA, add(CFA_XSP16, literal(-14)))
          CFI (cfiCond226) V1 load(1, XDATA, add(CFA_XSP16, literal(-13)))
          CFI (cfiCond226) V2 load(1, XDATA, add(CFA_XSP16, literal(-12)))
          CFI (cfiCond226) V3 load(1, XDATA, add(CFA_XSP16, literal(-11)))
          CFI (cfiCond226) V4 load(1, XDATA, add(CFA_XSP16, literal(-10)))
          CFI (cfiCond226) V5 load(1, XDATA, add(CFA_XSP16, literal(-9)))
          CFI (cfiCond226) V6 load(1, XDATA, add(CFA_XSP16, literal(-8)))
          CFI (cfiCond226) V7 load(1, XDATA, add(CFA_XSP16, literal(-7)))
          CFI (cfiCond226) R7 load(1, XDATA, add(CFA_XSP16, literal(-6)))
          CFI (cfiCond226) ?RET_LOW load(1, XDATA, add(CFA_XSP16, literal(-5)))
          CFI (cfiCond226) ?RET_HIGH load(1, XDATA, add(CFA_XSP16, literal(-4)))
          CFI (cfiCond226) ?BRET_EXT load(1, XDATA, add(CFA_XSP16, literal(-3)))
          CFI (cfiCond226) DPL0 load(1, XDATA, add(CFA_XSP16, literal(-2)))
          CFI (cfiCond226) DPH0 load(1, XDATA, add(CFA_XSP16, literal(-1)))
          CFI (cfiCond226) CFA_SP SP+0
          CFI (cfiCond226) CFA_XSP16 add(XSP16, 30)
          CFI Block cfiCond227 Using cfiCommon0
          CFI (cfiCond227) Function initiatorSendNwkStartReq
          CFI (cfiCond227) Conditional ??CrossCallReturnLabel_107, ??CrossCallReturnLabel_48, ??CrossCallReturnLabel_47
          CFI (cfiCond227) R6 load(1, XDATA, add(CFA_XSP16, literal(-20)))
          CFI (cfiCond227) VB load(1, XDATA, add(CFA_XSP16, literal(-19)))
          CFI (cfiCond227) V0 load(1, XDATA, add(CFA_XSP16, literal(-18)))
          CFI (cfiCond227) V1 load(1, XDATA, add(CFA_XSP16, literal(-17)))
          CFI (cfiCond227) V2 load(1, XDATA, add(CFA_XSP16, literal(-16)))
          CFI (cfiCond227) V3 load(1, XDATA, add(CFA_XSP16, literal(-15)))
          CFI (cfiCond227) V4 load(1, XDATA, add(CFA_XSP16, literal(-14)))
          CFI (cfiCond227) V5 load(1, XDATA, add(CFA_XSP16, literal(-13)))
          CFI (cfiCond227) V6 load(1, XDATA, add(CFA_XSP16, literal(-12)))
          CFI (cfiCond227) V7 load(1, XDATA, add(CFA_XSP16, literal(-11)))
          CFI (cfiCond227) V8 load(1, XDATA, add(CFA_XSP16, literal(-10)))
          CFI (cfiCond227) V9 load(1, XDATA, add(CFA_XSP16, literal(-9)))
          CFI (cfiCond227) V10 load(1, XDATA, add(CFA_XSP16, literal(-8)))
          CFI (cfiCond227) V11 load(1, XDATA, add(CFA_XSP16, literal(-7)))
          CFI (cfiCond227) R7 load(1, XDATA, add(CFA_XSP16, literal(-6)))
          CFI (cfiCond227) ?RET_LOW load(1, XDATA, add(CFA_XSP16, literal(-5)))
          CFI (cfiCond227) ?RET_HIGH load(1, XDATA, add(CFA_XSP16, literal(-4)))
          CFI (cfiCond227) ?BRET_EXT load(1, XDATA, add(CFA_XSP16, literal(-3)))
          CFI (cfiCond227) DPL0 load(1, XDATA, add(CFA_XSP16, literal(-2)))
          CFI (cfiCond227) DPH0 load(1, XDATA, add(CFA_XSP16, literal(-1)))
          CFI (cfiCond227) CFA_SP SP+0
          CFI (cfiCond227) CFA_XSP16 add(XSP16, 20)
          CFI Block cfiCond228 Using cfiCommon0
          CFI (cfiCond228) Function zllInitiator_event_loop
          CFI (cfiCond228) Conditional ??CrossCallReturnLabel_107, ??CrossCallReturnLabel_49, ??CrossCallReturnLabel_0
          CFI (cfiCond228) R6 load(1, XDATA, add(CFA_XSP16, literal(-16)))
          CFI (cfiCond228) VB load(1, XDATA, add(CFA_XSP16, literal(-15)))
          CFI (cfiCond228) V0 load(1, XDATA, add(CFA_XSP16, literal(-14)))
          CFI (cfiCond228) V1 load(1, XDATA, add(CFA_XSP16, literal(-13)))
          CFI (cfiCond228) V2 load(1, XDATA, add(CFA_XSP16, literal(-12)))
          CFI (cfiCond228) V3 load(1, XDATA, add(CFA_XSP16, literal(-11)))
          CFI (cfiCond228) V4 load(1, XDATA, add(CFA_XSP16, literal(-10)))
          CFI (cfiCond228) V5 load(1, XDATA, add(CFA_XSP16, literal(-9)))
          CFI (cfiCond228) V6 load(1, XDATA, add(CFA_XSP16, literal(-8)))
          CFI (cfiCond228) V7 load(1, XDATA, add(CFA_XSP16, literal(-7)))
          CFI (cfiCond228) R7 load(1, XDATA, add(CFA_XSP16, literal(-6)))
          CFI (cfiCond228) ?RET_LOW load(1, XDATA, add(CFA_XSP16, literal(-5)))
          CFI (cfiCond228) ?RET_HIGH load(1, XDATA, add(CFA_XSP16, literal(-4)))
          CFI (cfiCond228) ?BRET_EXT load(1, XDATA, add(CFA_XSP16, literal(-3)))
          CFI (cfiCond228) DPL0 load(1, XDATA, add(CFA_XSP16, literal(-2)))
          CFI (cfiCond228) DPH0 load(1, XDATA, add(CFA_XSP16, literal(-1)))
          CFI (cfiCond228) CFA_SP SP+0
          CFI (cfiCond228) CFA_XSP16 add(XSP16, 30)
          CFI Block cfiCond229 Using cfiCommon0
          CFI (cfiCond229) Function initiatorScanRspCB
          CFI (cfiCond229) Conditional ??CrossCallReturnLabel_107, ??CrossCallReturnLabel_49, ??CrossCallReturnLabel_1
          CFI (cfiCond229) R6 load(1, XDATA, add(CFA_XSP16, literal(-12)))
          CFI (cfiCond229) VB load(1, XDATA, add(CFA_XSP16, literal(-11)))
          CFI (cfiCond229) V0 load(1, XDATA, add(CFA_XSP16, literal(-10)))
          CFI (cfiCond229) V1 load(1, XDATA, add(CFA_XSP16, literal(-9)))
          CFI (cfiCond229) V2 load(1, XDATA, add(CFA_XSP16, literal(-8)))
          CFI (cfiCond229) V3 load(1, XDATA, add(CFA_XSP16, literal(-7)))
          CFI (cfiCond229) R7 load(1, XDATA, add(CFA_XSP16, literal(-6)))
          CFI (cfiCond229) ?RET_LOW load(1, XDATA, add(CFA_XSP16, literal(-5)))
          CFI (cfiCond229) ?RET_HIGH load(1, XDATA, add(CFA_XSP16, literal(-4)))
          CFI (cfiCond229) ?BRET_EXT load(1, XDATA, add(CFA_XSP16, literal(-3)))
          CFI (cfiCond229) DPL0 load(1, XDATA, add(CFA_XSP16, literal(-2)))
          CFI (cfiCond229) DPH0 load(1, XDATA, add(CFA_XSP16, literal(-1)))
          CFI (cfiCond229) CFA_SP SP+0
          CFI (cfiCond229) CFA_XSP16 add(XSP16, 17)
          CFI Block cfiCond230 Using cfiCommon0
          CFI (cfiCond230) Function initiatorSendScanReq
          CFI (cfiCond230) Conditional ??CrossCallReturnLabel_106, ??CrossCallReturnLabel_21
          CFI (cfiCond230) R6 load(1, XDATA, add(CFA_XSP16, literal(-12)))
          CFI (cfiCond230) VB load(1, XDATA, add(CFA_XSP16, literal(-11)))
          CFI (cfiCond230) V0 load(1, XDATA, add(CFA_XSP16, literal(-10)))
          CFI (cfiCond230) V1 load(1, XDATA, add(CFA_XSP16, literal(-9)))
          CFI (cfiCond230) V2 load(1, XDATA, add(CFA_XSP16, literal(-8)))
          CFI (cfiCond230) V3 load(1, XDATA, add(CFA_XSP16, literal(-7)))
          CFI (cfiCond230) R7 load(1, XDATA, add(CFA_XSP16, literal(-6)))
          CFI (cfiCond230) ?RET_LOW load(1, XDATA, add(CFA_XSP16, literal(-5)))
          CFI (cfiCond230) ?RET_HIGH load(1, XDATA, add(CFA_XSP16, literal(-4)))
          CFI (cfiCond230) ?BRET_EXT load(1, XDATA, add(CFA_XSP16, literal(-3)))
          CFI (cfiCond230) DPL0 load(1, XDATA, add(CFA_XSP16, literal(-2)))
          CFI (cfiCond230) DPH0 load(1, XDATA, add(CFA_XSP16, literal(-1)))
          CFI (cfiCond230) CFA_SP SP+0
          CFI (cfiCond230) CFA_XSP16 add(XSP16, 32)
          CFI Block cfiCond231 Using cfiCommon0
          CFI (cfiCond231) Function zllInitiator_ResetToFNSelectedTarget
          CFI (cfiCond231) Conditional ??CrossCallReturnLabel_106, ??CrossCallReturnLabel_22
          CFI (cfiCond231) R6 load(1, XDATA, add(CFA_XSP16, literal(-12)))
          CFI (cfiCond231) VB load(1, XDATA, add(CFA_XSP16, literal(-11)))
          CFI (cfiCond231) V0 load(1, XDATA, add(CFA_XSP16, literal(-10)))
          CFI (cfiCond231) V1 load(1, XDATA, add(CFA_XSP16, literal(-9)))
          CFI (cfiCond231) V2 load(1, XDATA, add(CFA_XSP16, literal(-8)))
          CFI (cfiCond231) V3 load(1, XDATA, add(CFA_XSP16, literal(-7)))
          CFI (cfiCond231) R7 load(1, XDATA, add(CFA_XSP16, literal(-6)))
          CFI (cfiCond231) ?RET_LOW load(1, XDATA, add(CFA_XSP16, literal(-5)))
          CFI (cfiCond231) ?RET_HIGH load(1, XDATA, add(CFA_XSP16, literal(-4)))
          CFI (cfiCond231) ?BRET_EXT load(1, XDATA, add(CFA_XSP16, literal(-3)))
          CFI (cfiCond231) DPL0 load(1, XDATA, add(CFA_XSP16, literal(-2)))
          CFI (cfiCond231) DPH0 load(1, XDATA, add(CFA_XSP16, literal(-1)))
          CFI (cfiCond231) CFA_SP SP+0
          CFI (cfiCond231) CFA_XSP16 add(XSP16, 16)
          CFI Block cfiPicker232 Using cfiCommon1
          CFI (cfiPicker232) NoFunction
          CFI (cfiPicker232) Picker
        MOVX    A,@DPTR
        MOV     R0,A
        MOV     A,#0x1
        ADD     A,R0
        MOVX    @DPTR,A
        ; Setup parameters for call to function zclLL_Send_IndentifyReq
        ; Setup parameters for call to function zclLL_Send_IndentifyReq
        ; Setup parameters for call to function zclLL_Send_NwkStartReq
        ; Setup parameters for call to function zclLL_Send_NwkUpdateReq
        ; Setup parameters for call to function zclLL_Send_DeviceInfoReq
        ; Setup parameters for call to function zclLL_Send_ScanReq
        ; Setup parameters for call to function zclLL_Send_ResetToFNReq
        ; Setup parameters for call to function zclLL_Send_NwkJoinReq
        ; Setup parameters for call to function zclLL_Send_NwkJoinReq
        MOV     A,R0
        RET
          CFI EndBlock cfiCond223
          CFI EndBlock cfiCond224
          CFI EndBlock cfiCond225
          CFI EndBlock cfiCond226
          CFI EndBlock cfiCond227
          CFI EndBlock cfiCond228
          CFI EndBlock cfiCond229
          CFI EndBlock cfiCond230
          CFI EndBlock cfiCond231
          CFI EndBlock cfiPicker232
// 1731 
// 1732 /*********************************************************************
// 1733  * @fn      initiatorDeviceInfoRspCB
// 1734  *
// 1735  * @brief   This callback is called to process a Device Information
// 1736  *          Response command.
// 1737  *          If sub-device is selected, selectedTarget data is updated.
// 1738  *
// 1739  * @param   srcAddr - sender's address
// 1740  * @param   pRsp - parsed command
// 1741  *
// 1742  * @return  ZStatus_t
// 1743  */

        RSEG BANKED_CODE:CODE:NOROOT(0)
// 1744 static ZStatus_t initiatorDeviceInfoRspCB( afAddrType_t *srcAddr, zclLLDeviceInfoRsp_t *pRsp )
initiatorDeviceInfoRspCB:
          CFI Block cfiBlock233 Using cfiCommon0
          CFI Function initiatorDeviceInfoRspCB
        CODE
// 1745 {
        FUNCALL initiatorDeviceInfoRspCB, zll_IsValidTransID
        LOCFRAME ISTACK, 0, STACK
        LOCFRAME PSTACK, 0, STACK
        LOCFRAME XSTACK, 52, STACK
        LOCFRAME IOVERLAY, 0, STATIC
        LOCFRAME DOVERLAY, 0, STATIC
        ARGFRAME ISTACK, 0, STACK
        ARGFRAME PSTACK, 0, STACK
        ARGFRAME XSTACK, 52, STACK
        ARGFRAME IOVERLAY, 0, STATIC
        ARGFRAME DOVERLAY, 0, STATIC
        FUNCALL initiatorDeviceInfoRspCB, initiatorClearSelectedTarget
        LOCFRAME ISTACK, 0, STACK
        LOCFRAME PSTACK, 0, STACK
        LOCFRAME XSTACK, 52, STACK
        LOCFRAME IOVERLAY, 0, STATIC
        LOCFRAME DOVERLAY, 0, STATIC
        ARGFRAME ISTACK, 0, STACK
        ARGFRAME PSTACK, 0, STACK
        ARGFRAME XSTACK, 52, STACK
        ARGFRAME IOVERLAY, 0, STATIC
        ARGFRAME DOVERLAY, 0, STATIC
        MOV     A,#-0xe
        LCALL   ?BANKED_ENTER_XDATA
          CFI DPH0 load(1, XDATA, add(CFA_XSP16, literal(-1)))
          CFI DPL0 load(1, XDATA, add(CFA_XSP16, literal(-2)))
          CFI ?BRET_EXT load(1, XDATA, add(CFA_XSP16, literal(-3)))
          CFI ?RET_HIGH load(1, XDATA, add(CFA_XSP16, literal(-4)))
          CFI ?RET_LOW load(1, XDATA, add(CFA_XSP16, literal(-5)))
          CFI R7 load(1, XDATA, add(CFA_XSP16, literal(-6)))
          CFI V5 load(1, XDATA, add(CFA_XSP16, literal(-7)))
          CFI V4 load(1, XDATA, add(CFA_XSP16, literal(-8)))
          CFI V3 load(1, XDATA, add(CFA_XSP16, literal(-9)))
          CFI V2 load(1, XDATA, add(CFA_XSP16, literal(-10)))
          CFI V1 load(1, XDATA, add(CFA_XSP16, literal(-11)))
          CFI V0 load(1, XDATA, add(CFA_XSP16, literal(-12)))
          CFI VB load(1, XDATA, add(CFA_XSP16, literal(-13)))
          CFI R6 load(1, XDATA, add(CFA_XSP16, literal(-14)))
          CFI CFA_SP SP+0
          CFI CFA_XSP16 add(XSP16, 14)
        ; Saved register size: 14
        ; Auto size: 38
        MOV     A,#-0x26
        LCALL   ?ALLOC_XSTACK8
          CFI CFA_XSP16 add(XSP16, 52)
        MOV     ?V0 + 0,R2
        MOV     ?V0 + 1,R3
        MOV     A,R4
        MOV     R6,A
        MOV     A,R5
        MOV     R7,A
// 1746   if ( zll_IsValidTransID( pRsp->transID )
// 1747        && ( srcAddr->addr.shortAddr == selectedTarget.srcAddr.addr.shortAddr ) )
        ; Setup parameters for call to function zll_IsValidTransID
        MOV     DPL,R6
        MOV     DPH,R7
        LCALL   ?XLOAD_R2345
        LCALL   ??zll_IsValidTransID?relay
        MOV     A,R1
        JNZ     $+5
        LJMP    ??initiatorDeviceInfoRspCB_0 & 0xFFFF
        MOV     DPL,?V0 + 0
        MOV     DPH,?V0 + 1
        LCALL   ??Subroutine42_0 & 0xFFFF
??CrossCallReturnLabel_83:
        MOV     DPTR,#selectedTarget + 38
        MOVX    A,@DPTR
        XRL     A,R0
        JNZ     ??initiatorDeviceInfoRspCB_1
        INC     DPTR
        MOVX    A,@DPTR
        XRL     A,R1
??initiatorDeviceInfoRspCB_1:
        JZ      $+5
        LJMP    ??initiatorDeviceInfoRspCB_0 & 0xFFFF
// 1748   {
// 1749     uint8 selectedIdx = pRsp->cnt;
        MOV     A,R6
        ADD     A,#0x6
        MOV     ?V0 + 0,A
        MOV     A,R7
        ADDC    A,#0x0
        MOV     ?V0 + 1,A
        MOV     DPL,?V0 + 0
        MOV     DPH,A
        MOVX    A,@DPTR
        MOV     ?V0 + 3,A
// 1750     zclLLScanRsp_t tmpInfo = selectedTarget.scanRsp;
        MOV     DPL,?XSP + 0
        MOV     DPH,?XSP + 1
        MOV     R4,DPL
        MOV     R5,DPH
        MOV     DPH,#(selectedTarget >> 8) & 0xff
        MOV     DPL,#selectedTarget & 0xff
        MOV     A,#0x26
        LCALL   ?MOVE_LONG8_XDATA_XDATA
// 1751 
// 1752     for (uint8 i = 0; i < pRsp->cnt; ++i )
        MOV     ?V0 + 2,A
        SJMP    ??initiatorDeviceInfoRspCB_2
// 1753     {
// 1754       if ( pfnSelectDiscDevCB != NULL )
// 1755       {
// 1756         tmpInfo.deviceInfo = pRsp->devInfoRec[i].deviceInfo;
??initiatorDeviceInfoRspCB_3:
        PUSH    DPL
          CFI CFA_SP SP+-1
        PUSH    DPH
          CFI CFA_SP SP+-2
        MOV     A,#0x1f
        LCALL   ?XSTACK_DISP0_8
        MOV     R4,DPL
        MOV     R5,DPH
        POP     DPH
          CFI CFA_SP SP+-1
        POP     DPL
          CFI CFA_SP SP+0
        MOV     A,#0x7
        LCALL   ?MOVE_LONG8_XDATA_XDATA
// 1757         if ( pfnSelectDiscDevCB( &tmpInfo, selectedTarget.lastRssi ) )
        ; Setup parameters for indirect call
        MOV     DPTR,#selectedTarget + 53
        MOVX    A,@DPTR
        MOV     R1,A
        MOV     DPL,?XSP + 0
        MOV     DPH,?XSP + 1
        MOV     R2,DPL
        MOV     R3,DPH
        MOV     DPTR,#pfnSelectDiscDevCB
        MOVX    A,@DPTR
        MOV     R0,A
        INC     DPTR
        LCALL   ??Subroutine43_0 & 0xFFFF
??CrossCallReturnLabel_102:
        LCALL   ?CALL_IND
        MOV     A,R1
        JZ      ??initiatorDeviceInfoRspCB_4
// 1758         {
// 1759           selectedIdx = i;
        MOV     ?V0 + 3,?V0 + 2
// 1760           // no break here to allow cycling through all sub-devices
// 1761         }
// 1762       }
??initiatorDeviceInfoRspCB_4:
        INC     ?V0 + 2
??initiatorDeviceInfoRspCB_2:
        MOV     DPL,?V0 + 0
        MOV     DPH,?V0 + 1
        MOVX    A,@DPTR
        MOV     R0,A
        MOV     A,?V0 + 2
        CLR     C
        SUBB    A,R0
        JNC     ??initiatorDeviceInfoRspCB_5
        MOV     ?V0 + 4,?V0 + 2
        MOV     ?V0 + 5,#0x0
        MOV     A,#0x4
        MOV     R0,#?V0 + 4
        LCALL   ?S_SHL
        MOV     DPL,R6
        MOV     DPH,R7
        INC     DPTR
        INC     DPTR
        INC     DPTR
        INC     DPTR
        INC     DPTR
        INC     DPTR
        INC     DPTR
        MOVX    A,@DPTR
        ADD     A,?V0 + 4
        MOV     R0,A
        INC     DPTR
        MOVX    A,@DPTR
        ADDC    A,?V0 + 5
        MOV     R1,A
        MOV     DPTR,#pfnSelectDiscDevCB
        LCALL   ??Subroutine47_0 & 0xFFFF
??CrossCallReturnLabel_112:
        MOV     A,R2
        ORL     A,R3
        MOV     DPL,R0
        MOV     DPH,R1
        INC     DPTR
        INC     DPTR
        INC     DPTR
        INC     DPTR
        INC     DPTR
        INC     DPTR
        INC     DPTR
        INC     DPTR
        JNZ     ??initiatorDeviceInfoRspCB_3
// 1763       else
// 1764       {
// 1765         if ( pRsp->devInfoRec[i].deviceInfo.profileID == ZLL_PROFILE_ID )
        INC     DPTR
        MOVX    A,@DPTR
        XRL     A,#0x5e
        JNZ     ??initiatorDeviceInfoRspCB_6
        INC     DPTR
        MOVX    A,@DPTR
        XRL     A,#0xc0
??initiatorDeviceInfoRspCB_6:
        JNZ     ??initiatorDeviceInfoRspCB_4
// 1766         {
// 1767           selectedIdx = i;
        MOV     ?V0 + 3,?V0 + 2
// 1768           break; // first match
        SJMP    ??initiatorDeviceInfoRspCB_7
// 1769         }
// 1770       }
// 1771     }
// 1772     if ( selectedIdx < pRsp->cnt )
??initiatorDeviceInfoRspCB_5:
        MOV     A,?V0 + 3
        CLR     C
        SUBB    A,R0
        JNC     ??initiatorDeviceInfoRspCB_8
// 1773     {
// 1774       // NOTE - the original scan response device info is overwritten with the
// 1775       // selected sub-device info, to complete the data required for the application.
// 1776       selectedTarget.scanRsp.deviceInfo = pRsp->devInfoRec[selectedIdx].deviceInfo;
??initiatorDeviceInfoRspCB_7:
        MOV     ?V0 + 0,?V0 + 3
        MOV     ?V0 + 1,#0x0
        MOV     A,#0x4
        MOV     R0,#?V0 + 0
        LCALL   ?S_SHL
        MOV     DPL,R6
        MOV     DPH,R7
        INC     DPTR
        INC     DPTR
        INC     DPTR
        INC     DPTR
        INC     DPTR
        INC     DPTR
        INC     DPTR
        MOVX    A,@DPTR
        ADD     A,?V0 + 0
        MOV     R0,A
        INC     DPTR
        MOVX    A,@DPTR
        ADDC    A,?V0 + 1
        MOV     DPL,R0
        MOV     DPH,A
        INC     DPTR
        INC     DPTR
        INC     DPTR
        INC     DPTR
        INC     DPTR
        INC     DPTR
        INC     DPTR
        INC     DPTR
        MOV     R4,#(selectedTarget + 31) & 0xff
        MOV     R5,#((selectedTarget + 31) >> 8) & 0xff
        MOV     A,#0x7
        LCALL   ?MOVE_LONG8_XDATA_XDATA
        SJMP    ??initiatorDeviceInfoRspCB_9
// 1777     }
// 1778     else
// 1779     {
// 1780       // no sub-device of the currently selected device was selected.
// 1781       // clear selection
// 1782       initiatorClearSelectedTarget();
??initiatorDeviceInfoRspCB_8:
        ; Setup parameters for call to function initiatorClearSelectedTarget
        LCALL   ??initiatorClearSelectedTarget?relay
// 1783     }
// 1784     return ( ZSuccess );
??initiatorDeviceInfoRspCB_9:
        MOV     R1,#0x0
        SJMP    ??initiatorDeviceInfoRspCB_10
// 1785   }
// 1786   return ( ZFailure );
??initiatorDeviceInfoRspCB_0:
        MOV     R1,#0x1
??initiatorDeviceInfoRspCB_10:
        MOV     A,#0x26
        LCALL   ?DEALLOC_XSTACK8
          CFI CFA_XSP16 add(XSP16, 14)
        LJMP    ?Subroutine4 & 0xFFFF
          CFI EndBlock cfiBlock233
// 1787 }
// 1788 
// 1789 /*********************************************************************
// 1790  * @fn      initiatorNwkStartRspCB
// 1791  *
// 1792  * @brief   This callback is called to process a Network Start Response command.
// 1793  *
// 1794  * @param   srcAddr - sender's address
// 1795  * @param   pRsp - parsed command
// 1796  *
// 1797  * @return  ZStatus_t
// 1798  */

        RSEG BANKED_CODE:CODE:NOROOT(0)
// 1799 static ZStatus_t initiatorNwkStartRspCB( afAddrType_t *srcAddr, zclLLNwkStartRsp_t *pRsp )
initiatorNwkStartRspCB:
          CFI Block cfiBlock234 Using cfiCommon0
          CFI Function initiatorNwkStartRspCB
        CODE
// 1800 {
        FUNCALL initiatorNwkStartRspCB, zll_IsValidTransID
        LOCFRAME ISTACK, 0, STACK
        LOCFRAME PSTACK, 0, STACK
        LOCFRAME XSTACK, 9, STACK
        LOCFRAME IOVERLAY, 0, STATIC
        LOCFRAME DOVERLAY, 0, STATIC
        ARGFRAME ISTACK, 0, STACK
        ARGFRAME PSTACK, 0, STACK
        ARGFRAME XSTACK, 9, STACK
        ARGFRAME IOVERLAY, 0, STATIC
        ARGFRAME DOVERLAY, 0, STATIC
        FUNCALL initiatorNwkStartRspCB, osal_get_timeoutEx
        LOCFRAME ISTACK, 0, STACK
        LOCFRAME PSTACK, 0, STACK
        LOCFRAME XSTACK, 9, STACK
        LOCFRAME IOVERLAY, 0, STATIC
        LOCFRAME DOVERLAY, 0, STATIC
        ARGFRAME ISTACK, 0, STACK
        ARGFRAME PSTACK, 0, STACK
        ARGFRAME XSTACK, 9, STACK
        ARGFRAME IOVERLAY, 0, STATIC
        ARGFRAME DOVERLAY, 0, STATIC
        FUNCALL initiatorNwkStartRspCB, osal_start_timerEx
        LOCFRAME ISTACK, 0, STACK
        LOCFRAME PSTACK, 0, STACK
        LOCFRAME XSTACK, 13, STACK
        LOCFRAME IOVERLAY, 0, STATIC
        LOCFRAME DOVERLAY, 0, STATIC
        ARGFRAME ISTACK, 0, STACK
        ARGFRAME PSTACK, 0, STACK
        ARGFRAME XSTACK, 13, STACK
        ARGFRAME IOVERLAY, 0, STATIC
        ARGFRAME DOVERLAY, 0, STATIC
        MOV     A,#-0x9
        LCALL   ?BANKED_ENTER_XDATA
          CFI DPH0 load(1, XDATA, add(CFA_XSP16, literal(-1)))
          CFI DPL0 load(1, XDATA, add(CFA_XSP16, literal(-2)))
          CFI ?BRET_EXT load(1, XDATA, add(CFA_XSP16, literal(-3)))
          CFI ?RET_HIGH load(1, XDATA, add(CFA_XSP16, literal(-4)))
          CFI ?RET_LOW load(1, XDATA, add(CFA_XSP16, literal(-5)))
          CFI R7 load(1, XDATA, add(CFA_XSP16, literal(-6)))
          CFI V0 load(1, XDATA, add(CFA_XSP16, literal(-7)))
          CFI VB load(1, XDATA, add(CFA_XSP16, literal(-8)))
          CFI R6 load(1, XDATA, add(CFA_XSP16, literal(-9)))
          CFI CFA_SP SP+0
          CFI CFA_XSP16 add(XSP16, 9)
        ; Saved register size: 9
        ; Auto size: 0
        MOV     A,R4
        MOV     R6,A
        MOV     A,R5
        MOV     R7,A
// 1801   if ( zll_IsValidTransID( pRsp->transID ) == FALSE )
        ; Setup parameters for call to function zll_IsValidTransID
        MOV     DPL,R6
        MOV     DPH,R7
        LCALL   ?XLOAD_R2345
        LCALL   ??zll_IsValidTransID?relay
        MOV     A,R1
        JNZ     ??initiatorNwkStartRspCB_0
// 1802   {
// 1803     return ( ZFailure );
        MOV     R1,#0x1
        SJMP    ??initiatorNwkStartRspCB_1
// 1804   }
// 1805   // Make sure we didn't timeout waiting for this response
// 1806   if ( osal_get_timeoutEx( zllInitiator_TaskID, ZLL_W4_NWK_START_RSP_EVT ) )
??initiatorNwkStartRspCB_0:
        ; Setup parameters for call to function osal_get_timeoutEx
        MOV     R2,#0x0
        MOV     R3,#0x1
        MOV     DPTR,#zllInitiator_TaskID
        MOVX    A,@DPTR
        MOV     R1,A
        LCALL   ??osal_get_timeoutEx?relay
        MOV     A,R2
        ORL     A,R3
        ORL     A,R4
        ORL     A,R5
        JZ      ??initiatorNwkStartRspCB_2
// 1807   {
// 1808     // Save the Network Start Response for later
// 1809     rxRsp.nwkStartRsp = *pRsp;
        MOV     DPL,R6
        MOV     DPH,R7
        MOV     R4,#rxRsp & 0xff
        MOV     R5,#(rxRsp >> 8) & 0xff
        MOV     A,#0x11
        LCALL   ?MOVE_LONG8_XDATA_XDATA
// 1810 
// 1811     // No need to wait longer
// 1812     osal_start_timerEx( zllInitiator_TaskID, ZLL_W4_NWK_START_RSP_EVT, 0 );
        ; Setup parameters for call to function osal_start_timerEx
        MOV     DPTR,#__Constant_0
        LCALL   ?PUSH_XSTACK8_X_FOUR
          CFI CFA_XSP16 add(XSP16, 13)
        MOV     R2,#0x0
        MOV     R3,#0x1
        MOV     DPTR,#zllInitiator_TaskID
        MOVX    A,@DPTR
        MOV     R1,A
        LCALL   ??osal_start_timerEx?relay
        MOV     A,#0x4
        LCALL   ?DEALLOC_XSTACK8
          CFI CFA_XSP16 add(XSP16, 9)
// 1813   }
// 1814 
// 1815   return ( ZSuccess );
??initiatorNwkStartRspCB_2:
        MOV     R1,#0x0
          CFI EndBlock cfiBlock234
??initiatorNwkStartRspCB_1:
        REQUIRE ?Subroutine2
        ; // Fall through to label ?Subroutine2
// 1816 }

        RSEG BANKED_CODE:CODE:NOROOT(0)
?Subroutine2:
          CFI Block cfiBlock235 Using cfiCommon0
          CFI NoFunction
          CFI CFA_SP SP+0
          CFI CFA_XSP16 add(XSP16, 9)
          CFI VB load(1, XDATA, add(CFA_XSP16, literal(-8)))
          CFI DPL0 load(1, XDATA, add(CFA_XSP16, literal(-2)))
          CFI DPH0 load(1, XDATA, add(CFA_XSP16, literal(-1)))
          CFI R6 load(1, XDATA, add(CFA_XSP16, literal(-9)))
          CFI R7 load(1, XDATA, add(CFA_XSP16, literal(-6)))
          CFI V0 load(1, XDATA, add(CFA_XSP16, literal(-7)))
          CFI ?BRET_EXT load(1, XDATA, add(CFA_XSP16, literal(-3)))
          CFI ?RET_HIGH load(1, XDATA, add(CFA_XSP16, literal(-4)))
          CFI ?RET_LOW load(1, XDATA, add(CFA_XSP16, literal(-5)))
        MOV     R7,#0x1
        LJMP    ?BANKED_LEAVE_XDATA
          CFI EndBlock cfiBlock235
// 1817 
// 1818 /*********************************************************************
// 1819  * @fn      initiatorNwkJoinRtrRspCB
// 1820  *
// 1821  * @brief   This callback is called to process a Network Join Router
// 1822  *          Response command.
// 1823  *
// 1824  * @param   srcAddr - sender's address
// 1825  * @param   pRsp - parsed command
// 1826  *
// 1827  * @return  ZStatus_t
// 1828  */

        RSEG BANKED_CODE:CODE:NOROOT(0)
// 1829 static ZStatus_t initiatorNwkJoinRtrRspCB( afAddrType_t *srcAddr, zclLLNwkJoinRsp_t *pRsp )
initiatorNwkJoinRtrRspCB:
          CFI Block cfiBlock236 Using cfiCommon0
          CFI Function initiatorNwkJoinRtrRspCB
        CODE
// 1830 {
        FUNCALL initiatorNwkJoinRtrRspCB, zll_IsValidTransID
        LOCFRAME ISTACK, 0, STACK
        LOCFRAME PSTACK, 0, STACK
        LOCFRAME XSTACK, 9, STACK
        LOCFRAME IOVERLAY, 0, STATIC
        LOCFRAME DOVERLAY, 0, STATIC
        ARGFRAME ISTACK, 0, STACK
        ARGFRAME PSTACK, 0, STACK
        ARGFRAME XSTACK, 9, STACK
        ARGFRAME IOVERLAY, 0, STATIC
        ARGFRAME DOVERLAY, 0, STATIC
        FUNCALL initiatorNwkJoinRtrRspCB, osal_get_timeoutEx
        LOCFRAME ISTACK, 0, STACK
        LOCFRAME PSTACK, 0, STACK
        LOCFRAME XSTACK, 9, STACK
        LOCFRAME IOVERLAY, 0, STATIC
        LOCFRAME DOVERLAY, 0, STATIC
        ARGFRAME ISTACK, 0, STACK
        ARGFRAME PSTACK, 0, STACK
        ARGFRAME XSTACK, 9, STACK
        ARGFRAME IOVERLAY, 0, STATIC
        ARGFRAME DOVERLAY, 0, STATIC
        FUNCALL initiatorNwkJoinRtrRspCB, osal_start_timerEx
        LOCFRAME ISTACK, 0, STACK
        LOCFRAME PSTACK, 0, STACK
        LOCFRAME XSTACK, 13, STACK
        LOCFRAME IOVERLAY, 0, STATIC
        LOCFRAME DOVERLAY, 0, STATIC
        ARGFRAME ISTACK, 0, STACK
        ARGFRAME PSTACK, 0, STACK
        ARGFRAME XSTACK, 13, STACK
        ARGFRAME IOVERLAY, 0, STATIC
        ARGFRAME DOVERLAY, 0, STATIC
        MOV     A,#-0x9
        LCALL   ?BANKED_ENTER_XDATA
          CFI DPH0 load(1, XDATA, add(CFA_XSP16, literal(-1)))
          CFI DPL0 load(1, XDATA, add(CFA_XSP16, literal(-2)))
          CFI ?BRET_EXT load(1, XDATA, add(CFA_XSP16, literal(-3)))
          CFI ?RET_HIGH load(1, XDATA, add(CFA_XSP16, literal(-4)))
          CFI ?RET_LOW load(1, XDATA, add(CFA_XSP16, literal(-5)))
          CFI R7 load(1, XDATA, add(CFA_XSP16, literal(-6)))
          CFI V0 load(1, XDATA, add(CFA_XSP16, literal(-7)))
          CFI VB load(1, XDATA, add(CFA_XSP16, literal(-8)))
          CFI R6 load(1, XDATA, add(CFA_XSP16, literal(-9)))
          CFI CFA_SP SP+0
          CFI CFA_XSP16 add(XSP16, 9)
        ; Saved register size: 9
        ; Auto size: 0
        MOV     A,R4
        MOV     R6,A
        MOV     A,R5
        MOV     R7,A
// 1831   if ( zll_IsValidTransID( pRsp->transID ) == FALSE )
        ; Setup parameters for call to function zll_IsValidTransID
        MOV     DPL,R6
        MOV     DPH,R7
        LCALL   ?XLOAD_R2345
        LCALL   ??zll_IsValidTransID?relay
        MOV     A,R1
        JNZ     ??initiatorNwkJoinRtrRspCB_0
// 1832   {
// 1833     return ( ZFailure );
        MOV     R1,#0x1
        SJMP    ??initiatorNwkJoinRtrRspCB_1
// 1834   }
// 1835   // Make sure we didn't timeout waiting for this response
// 1836   if ( osal_get_timeoutEx( zllInitiator_TaskID, ZLL_W4_NWK_JOIN_RSP_EVT ) )
??initiatorNwkJoinRtrRspCB_0:
        ; Setup parameters for call to function osal_get_timeoutEx
        MOV     R2,#0x0
        MOV     R3,#0x2
        MOV     DPTR,#zllInitiator_TaskID
        MOVX    A,@DPTR
        MOV     R1,A
        LCALL   ??osal_get_timeoutEx?relay
        MOV     A,R2
        ORL     A,R3
        ORL     A,R4
        ORL     A,R5
        JZ      ??initiatorNwkJoinRtrRspCB_2
// 1837   {
// 1838     // Save the Network Start Response for later
// 1839     rxRsp.nwkJoinRsp = *pRsp;
        MOV     DPL,R6
        MOV     DPH,R7
        MOV     R4,#rxRsp & 0xff
        MOV     R5,#(rxRsp >> 8) & 0xff
        MOV     A,#0x5
        LCALL   ?MOVE_LONG8_XDATA_XDATA
// 1840 
// 1841     // No need to wait longer
// 1842     osal_start_timerEx( zllInitiator_TaskID, ZLL_W4_NWK_JOIN_RSP_EVT, 0 );
        ; Setup parameters for call to function osal_start_timerEx
        MOV     DPTR,#__Constant_0
        LCALL   ?PUSH_XSTACK8_X_FOUR
          CFI CFA_XSP16 add(XSP16, 13)
        MOV     R2,#0x0
        MOV     R3,#0x2
        MOV     DPTR,#zllInitiator_TaskID
        MOVX    A,@DPTR
        MOV     R1,A
        LCALL   ??osal_start_timerEx?relay
        MOV     A,#0x4
        LCALL   ?DEALLOC_XSTACK8
          CFI CFA_XSP16 add(XSP16, 9)
// 1843   }
// 1844 
// 1845   return ( ZSuccess );
??initiatorNwkJoinRtrRspCB_2:
        MOV     R1,#0x0
??initiatorNwkJoinRtrRspCB_1:
        SJMP    ?Subroutine2
          CFI EndBlock cfiBlock236
// 1846 }
// 1847 
// 1848 /*********************************************************************
// 1849  * @fn      initiatorNwkJoinEDRspCB
// 1850  *
// 1851  * @brief   This callback is called to process a Network Join End Device
// 1852  *          Response command.
// 1853  *
// 1854  * @param   srcAddr - sender's address
// 1855  * @param   pRsp - parsed command
// 1856  *
// 1857  * @return  ZStatus_t
// 1858  */

        RSEG BANKED_CODE:CODE:NOROOT(0)
// 1859 static ZStatus_t initiatorNwkJoinEDRspCB( afAddrType_t *srcAddr, zclLLNwkJoinRsp_t *pRsp )
initiatorNwkJoinEDRspCB:
          CFI Block cfiBlock237 Using cfiCommon0
          CFI Function initiatorNwkJoinEDRspCB
        CODE
// 1860 {
        FUNCALL initiatorNwkJoinEDRspCB, zll_IsValidTransID
        LOCFRAME ISTACK, 0, STACK
        LOCFRAME PSTACK, 0, STACK
        LOCFRAME XSTACK, 9, STACK
        LOCFRAME IOVERLAY, 0, STATIC
        LOCFRAME DOVERLAY, 0, STATIC
        ARGFRAME ISTACK, 0, STACK
        ARGFRAME PSTACK, 0, STACK
        ARGFRAME XSTACK, 9, STACK
        ARGFRAME IOVERLAY, 0, STATIC
        ARGFRAME DOVERLAY, 0, STATIC
        FUNCALL initiatorNwkJoinEDRspCB, osal_get_timeoutEx
        LOCFRAME ISTACK, 0, STACK
        LOCFRAME PSTACK, 0, STACK
        LOCFRAME XSTACK, 9, STACK
        LOCFRAME IOVERLAY, 0, STATIC
        LOCFRAME DOVERLAY, 0, STATIC
        ARGFRAME ISTACK, 0, STACK
        ARGFRAME PSTACK, 0, STACK
        ARGFRAME XSTACK, 9, STACK
        ARGFRAME IOVERLAY, 0, STATIC
        ARGFRAME DOVERLAY, 0, STATIC
        FUNCALL initiatorNwkJoinEDRspCB, osal_start_timerEx
        LOCFRAME ISTACK, 0, STACK
        LOCFRAME PSTACK, 0, STACK
        LOCFRAME XSTACK, 13, STACK
        LOCFRAME IOVERLAY, 0, STATIC
        LOCFRAME DOVERLAY, 0, STATIC
        ARGFRAME ISTACK, 0, STACK
        ARGFRAME PSTACK, 0, STACK
        ARGFRAME XSTACK, 13, STACK
        ARGFRAME IOVERLAY, 0, STATIC
        ARGFRAME DOVERLAY, 0, STATIC
        MOV     A,#-0x9
        LCALL   ?BANKED_ENTER_XDATA
          CFI DPH0 load(1, XDATA, add(CFA_XSP16, literal(-1)))
          CFI DPL0 load(1, XDATA, add(CFA_XSP16, literal(-2)))
          CFI ?BRET_EXT load(1, XDATA, add(CFA_XSP16, literal(-3)))
          CFI ?RET_HIGH load(1, XDATA, add(CFA_XSP16, literal(-4)))
          CFI ?RET_LOW load(1, XDATA, add(CFA_XSP16, literal(-5)))
          CFI R7 load(1, XDATA, add(CFA_XSP16, literal(-6)))
          CFI V0 load(1, XDATA, add(CFA_XSP16, literal(-7)))
          CFI VB load(1, XDATA, add(CFA_XSP16, literal(-8)))
          CFI R6 load(1, XDATA, add(CFA_XSP16, literal(-9)))
          CFI CFA_SP SP+0
          CFI CFA_XSP16 add(XSP16, 9)
        ; Saved register size: 9
        ; Auto size: 0
        MOV     A,R4
        MOV     R6,A
        MOV     A,R5
        MOV     R7,A
// 1861   if ( zll_IsValidTransID( pRsp->transID ) == FALSE )
        ; Setup parameters for call to function zll_IsValidTransID
        MOV     DPL,R6
        MOV     DPH,R7
        LCALL   ?XLOAD_R2345
        LCALL   ??zll_IsValidTransID?relay
        MOV     A,R1
        JNZ     ??initiatorNwkJoinEDRspCB_0
// 1862   {
// 1863     return ( ZFailure );
        MOV     R1,#0x1
        SJMP    ??initiatorNwkJoinEDRspCB_1
// 1864   }
// 1865   // Make sure we didn't timeout waiting for this response
// 1866   if ( osal_get_timeoutEx( zllInitiator_TaskID, ZLL_W4_NWK_JOIN_RSP_EVT ) )
??initiatorNwkJoinEDRspCB_0:
        ; Setup parameters for call to function osal_get_timeoutEx
        MOV     R2,#0x0
        MOV     R3,#0x2
        MOV     DPTR,#zllInitiator_TaskID
        MOVX    A,@DPTR
        MOV     R1,A
        LCALL   ??osal_get_timeoutEx?relay
        MOV     A,R2
        ORL     A,R3
        ORL     A,R4
        ORL     A,R5
        JZ      ??initiatorNwkJoinEDRspCB_2
// 1867   {
// 1868     // Save the Network Start Response for later
// 1869     rxRsp.nwkJoinRsp = *pRsp;
        MOV     DPL,R6
        MOV     DPH,R7
        MOV     R4,#rxRsp & 0xff
        MOV     R5,#(rxRsp >> 8) & 0xff
        MOV     A,#0x5
        LCALL   ?MOVE_LONG8_XDATA_XDATA
// 1870 
// 1871     // No need to wait longer
// 1872     osal_start_timerEx( zllInitiator_TaskID, ZLL_W4_NWK_JOIN_RSP_EVT, 0 );
        ; Setup parameters for call to function osal_start_timerEx
        MOV     DPTR,#__Constant_0
        LCALL   ?PUSH_XSTACK8_X_FOUR
          CFI CFA_XSP16 add(XSP16, 13)
        MOV     R2,#0x0
        MOV     R3,#0x2
        MOV     DPTR,#zllInitiator_TaskID
        MOVX    A,@DPTR
        MOV     R1,A
        LCALL   ??osal_start_timerEx?relay
        MOV     A,#0x4
        LCALL   ?DEALLOC_XSTACK8
          CFI CFA_XSP16 add(XSP16, 9)
        SJMP    ??initiatorNwkJoinEDRspCB_3
// 1873 
// 1874   }
// 1875   else
// 1876   {
// 1877     rxRsp.nwkJoinRsp.status = ZLL_NETWORK_JOIN_RSP_STATUS_FAILURE;
??initiatorNwkJoinEDRspCB_2:
        MOV     DPTR,#rxRsp + 4
        MOV     A,#0x1
        MOVX    @DPTR,A
// 1878   }
// 1879 
// 1880   return ( ZSuccess );
??initiatorNwkJoinEDRspCB_3:
        MOV     R1,#0x0
??initiatorNwkJoinEDRspCB_1:
        LJMP    ?Subroutine2 & 0xFFFF
          CFI EndBlock cfiBlock237
// 1881 }
// 1882 
// 1883 /*********************************************************************
// 1884  * @fn      initiatorNwkUpdateReqCB
// 1885  *
// 1886  * @brief   This callback is called to process a Network Update Request
// 1887  *          command.
// 1888  *
// 1889  * @param   srcAddr - sender's address
// 1890  * @param   pReq - parsed command
// 1891  *
// 1892  * @return  ZStatus_t
// 1893  */

        RSEG BANKED_CODE:CODE:NOROOT(0)
// 1894 static ZStatus_t initiatorNwkUpdateReqCB( afAddrType_t *srcAddr, zclLLNwkUpdateReq_t *pReq )
initiatorNwkUpdateReqCB:
          CFI Block cfiBlock238 Using cfiCommon0
          CFI Function initiatorNwkUpdateReqCB
        CODE
// 1895 {
        FUNCALL initiatorNwkUpdateReqCB, zll_IsValidTransID
        LOCFRAME ISTACK, 0, STACK
        LOCFRAME PSTACK, 0, STACK
        LOCFRAME XSTACK, 10, STACK
        LOCFRAME IOVERLAY, 0, STATIC
        LOCFRAME DOVERLAY, 0, STATIC
        ARGFRAME ISTACK, 0, STACK
        ARGFRAME PSTACK, 0, STACK
        ARGFRAME XSTACK, 10, STACK
        ARGFRAME IOVERLAY, 0, STATIC
        ARGFRAME DOVERLAY, 0, STATIC
        FUNCALL initiatorNwkUpdateReqCB, sAddrExtCmp
        LOCFRAME ISTACK, 0, STACK
        LOCFRAME PSTACK, 0, STACK
        LOCFRAME XSTACK, 10, STACK
        LOCFRAME IOVERLAY, 0, STATIC
        LOCFRAME DOVERLAY, 0, STATIC
        ARGFRAME ISTACK, 0, STACK
        ARGFRAME PSTACK, 0, STACK
        ARGFRAME XSTACK, 10, STACK
        ARGFRAME IOVERLAY, 0, STATIC
        ARGFRAME DOVERLAY, 0, STATIC
        FUNCALL initiatorNwkUpdateReqCB, zll_NewNwkUpdateId
        LOCFRAME ISTACK, 0, STACK
        LOCFRAME PSTACK, 0, STACK
        LOCFRAME XSTACK, 10, STACK
        LOCFRAME IOVERLAY, 0, STATIC
        LOCFRAME DOVERLAY, 0, STATIC
        ARGFRAME ISTACK, 0, STACK
        ARGFRAME PSTACK, 0, STACK
        ARGFRAME XSTACK, 10, STACK
        ARGFRAME IOVERLAY, 0, STATIC
        ARGFRAME DOVERLAY, 0, STATIC
        FUNCALL initiatorNwkUpdateReqCB, zll_ProcessNwkUpdate
        LOCFRAME ISTACK, 0, STACK
        LOCFRAME PSTACK, 0, STACK
        LOCFRAME XSTACK, 10, STACK
        LOCFRAME IOVERLAY, 0, STATIC
        LOCFRAME DOVERLAY, 0, STATIC
        ARGFRAME ISTACK, 0, STACK
        ARGFRAME PSTACK, 0, STACK
        ARGFRAME XSTACK, 10, STACK
        ARGFRAME IOVERLAY, 0, STATIC
        ARGFRAME DOVERLAY, 0, STATIC
        MOV     A,#-0xa
        LCALL   ?BANKED_ENTER_XDATA
          CFI DPH0 load(1, XDATA, add(CFA_XSP16, literal(-1)))
          CFI DPL0 load(1, XDATA, add(CFA_XSP16, literal(-2)))
          CFI ?BRET_EXT load(1, XDATA, add(CFA_XSP16, literal(-3)))
          CFI ?RET_HIGH load(1, XDATA, add(CFA_XSP16, literal(-4)))
          CFI ?RET_LOW load(1, XDATA, add(CFA_XSP16, literal(-5)))
          CFI R7 load(1, XDATA, add(CFA_XSP16, literal(-6)))
          CFI V1 load(1, XDATA, add(CFA_XSP16, literal(-7)))
          CFI V0 load(1, XDATA, add(CFA_XSP16, literal(-8)))
          CFI VB load(1, XDATA, add(CFA_XSP16, literal(-9)))
          CFI R6 load(1, XDATA, add(CFA_XSP16, literal(-10)))
          CFI CFA_SP SP+0
          CFI CFA_XSP16 add(XSP16, 10)
        ; Saved register size: 10
        ; Auto size: 0
        MOV     A,R4
        MOV     R6,A
        MOV     A,R5
        MOV     R7,A
// 1896   if ( zll_IsValidTransID( pReq->transID ) == FALSE )
        ; Setup parameters for call to function zll_IsValidTransID
        MOV     DPL,R6
        MOV     DPH,R7
        LCALL   ?XLOAD_R2345
        LCALL   ??zll_IsValidTransID?relay
        MOV     A,R1
        JNZ     ??initiatorNwkUpdateReqCB_0
// 1897   {
// 1898     return ( ZFailure );
        MOV     R1,#0x1
        SJMP    ??initiatorNwkUpdateReqCB_1
// 1899   }
// 1900   // Discard the request if the Extended PAN ID and PAN ID are not
// 1901   // identical with our corresponding stored values
// 1902   if ( ZLL_SAME_NWK( pReq->PANID, pReq->extendedPANID ) )
??initiatorNwkUpdateReqCB_0:
        MOV     DPTR,#_NIB + 33
        LCALL   ??Subroutine42_0 & 0xFFFF
??CrossCallReturnLabel_84:
        MOV     A,R6
        ADD     A,#0xe
        LCALL   ?Subroutine24 & 0xFFFF
??CrossCallReturnLabel_72:
        XRL     A,R0
        JNZ     ??initiatorNwkUpdateReqCB_2
        INC     DPTR
        MOVX    A,@DPTR
        XRL     A,R1
??initiatorNwkUpdateReqCB_2:
        JNZ     ??initiatorNwkUpdateReqCB_3
        ; Setup parameters for call to function sAddrExtCmp
        MOV     A,R6
        ADD     A,#0x4
        MOV     R4,A
        MOV     A,R7
        ADDC    A,#0x0
        MOV     R5,A
        MOV     R2,#(_NIB + 53) & 0xff
        MOV     R3,#((_NIB + 53) >> 8) & 0xff
        LCALL   ??sAddrExtCmp?relay
        MOV     A,R1
        JZ      ??initiatorNwkUpdateReqCB_3
// 1903   {
// 1904     uint8 newUpdateId = zll_NewNwkUpdateId( pReq->nwkUpdateId, _NIB.nwkUpdateId);
        MOV     A,R6
        ADD     A,#0xc
        MOV     R0,A
        MOV     A,R7
        ADDC    A,#0x0
        MOV     R1,A
        MOV     ?V0 + 0,R0
        MOV     ?V0 + 1,R1
        ; Setup parameters for call to function zll_NewNwkUpdateId
        MOV     DPTR,#_NIB + 109
        MOVX    A,@DPTR
        MOV     R2,A
        MOV     DPL,R0
        MOV     DPH,R1
        MOVX    A,@DPTR
        MOV     R1,A
        LCALL   ??zll_NewNwkUpdateId?relay
        MOV     A,R1
        MOV     R0,A
// 1905     if ( _NIB.nwkUpdateId != newUpdateId )
        MOV     DPTR,#_NIB + 109
        MOVX    A,@DPTR
        XRL     A,R0
        JZ      ??initiatorNwkUpdateReqCB_3
// 1906     {
// 1907       // Update the network update id and logical channel
// 1908       zll_ProcessNwkUpdate( pReq->nwkUpdateId, pReq->logicalChannel );
        ; Setup parameters for call to function zll_ProcessNwkUpdate
        MOV     A,R6
        ADD     A,#0xd
        LCALL   ?Subroutine24 & 0xFFFF
// 1909     }
// 1910   }
??CrossCallReturnLabel_73:
        MOV     R2,A
        MOV     DPL,?V0 + 0
        MOV     DPH,?V0 + 1
        MOVX    A,@DPTR
        MOV     R1,A
        LCALL   ??zll_ProcessNwkUpdate?relay
// 1911 
// 1912   return ( ZSuccess );
??initiatorNwkUpdateReqCB_3:
        MOV     R1,#0x0
??initiatorNwkUpdateReqCB_1:
        LJMP    ?Subroutine6 & 0xFFFF
          CFI EndBlock cfiBlock238
// 1913 }
// 1914 
// 1915 /******************************************************************************
// 1916  * @fn      initiatorZdoLeaveCnfCB
// 1917  *
// 1918  * @brief   This callback is called to process a Leave Confirmation message.
// 1919  *
// 1920  *          Note: this callback function returns a pointer if it has handled
// 1921  *                the confirmation message and no further action should be
// 1922  *                taken with it. It returns NULL if it has not handled the
// 1923  *                confirmation message and normal processing should take place.
// 1924  *
// 1925  * @param   pParam - received message
// 1926  *
// 1927  * @return  Pointer if message processed. NULL, otherwise.
// 1928  */

        RSEG BANKED_CODE:CODE:NOROOT(0)
// 1929 static void *initiatorZdoLeaveCnfCB( void *pParam )
initiatorZdoLeaveCnfCB:
          CFI Block cfiBlock239 Using cfiCommon0
          CFI Function initiatorZdoLeaveCnfCB
        CODE
// 1930 {
        FUNCALL initiatorZdoLeaveCnfCB, osal_set_event
        LOCFRAME ISTACK, 2, STACK
        LOCFRAME PSTACK, 0, STACK
        LOCFRAME XSTACK, 0, STACK
        LOCFRAME IOVERLAY, 0, STATIC
        LOCFRAME DOVERLAY, 0, STATIC
        ARGFRAME ISTACK, 2, STACK
        ARGFRAME PSTACK, 0, STACK
        ARGFRAME XSTACK, 0, STACK
        ARGFRAME IOVERLAY, 0, STATIC
        ARGFRAME DOVERLAY, 0, STATIC
        PUSH    DPL
          CFI DPL0 Frame(CFA_SP, 4)
          CFI CFA_SP SP+-4
        PUSH    DPH
          CFI DPH0 Frame(CFA_SP, 5)
          CFI CFA_SP SP+-5
        ; Saved register size: 2
        ; Auto size: 0
// 1931   (void)pParam;
// 1932 
// 1933   // Did we initiate the leave?
// 1934   if ( zllLeaveInitiated == FALSE )
        MOV     DPTR,#zllLeaveInitiated
        MOVX    A,@DPTR
        JNZ     ??initiatorZdoLeaveCnfCB_0
// 1935   {
// 1936     return ( NULL );
        MOV     R2,#0x0
        MOV     R3,#0x0
        SJMP    ??initiatorZdoLeaveCnfCB_1
// 1937   }
// 1938 
// 1939   if ( zllLeaveInitiated == ZLL_LEAVE_TO_JOIN_NWK )
??initiatorZdoLeaveCnfCB_0:
        XRL     A,#0x1
        JNZ     ??initiatorZdoLeaveCnfCB_2
// 1940   {
// 1941     // Notify our task to join the new network
// 1942     osal_set_event( zllInitiator_TaskID, ZLL_JOIN_NWK_EVT );
        ; Setup parameters for call to function osal_set_event
        MOV     R2,#0x10
        MOV     R3,#0x0
        MOV     DPTR,#zllInitiator_TaskID
        MOVX    A,@DPTR
        MOV     R1,A
        LCALL   ??osal_set_event?relay
// 1943   }
// 1944 
// 1945   return ( (void *)&zllLeaveInitiated );
??initiatorZdoLeaveCnfCB_2:
        MOV     R2,#zllLeaveInitiated & 0xff
        MOV     R3,#(zllLeaveInitiated >> 8) & 0xff
??initiatorZdoLeaveCnfCB_1:
        LJMP    ??Subroutine35_0 & 0xFFFF
          CFI EndBlock cfiBlock239
// 1946 }
// 1947 
// 1948 /*********************************************************************
// 1949  * @fn      zllInitiator_ChannelChange
// 1950  *
// 1951  * @brief   Change channel to supprot Frequency agility.
// 1952  *
// 1953  * @param   targetChannel - channel to
// 1954  *
// 1955  * @return  status
// 1956  */

        RSEG BANKED_CODE:CODE:NOROOT(0)
// 1957 ZStatus_t zllInitiator_ChannelChange( uint8 targetChannel )
zllInitiator_ChannelChange:
          CFI Block cfiBlock240 Using cfiCommon0
          CFI Function zllInitiator_ChannelChange
        CODE
// 1958 {
        FUNCALL zllInitiator_ChannelChange, NLME_SetUpdateID
        LOCFRAME ISTACK, 0, STACK
        LOCFRAME PSTACK, 0, STACK
        LOCFRAME XSTACK, 21, STACK
        LOCFRAME IOVERLAY, 0, STATIC
        LOCFRAME DOVERLAY, 0, STATIC
        ARGFRAME ISTACK, 0, STACK
        ARGFRAME PSTACK, 0, STACK
        ARGFRAME XSTACK, 21, STACK
        ARGFRAME IOVERLAY, 0, STATIC
        ARGFRAME DOVERLAY, 0, STATIC
        FUNCALL zllInitiator_ChannelChange, ZDP_MgmtNwkUpdateReq
        LOCFRAME ISTACK, 0, STACK
        LOCFRAME PSTACK, 0, STACK
        LOCFRAME XSTACK, 27, STACK
        LOCFRAME IOVERLAY, 0, STATIC
        LOCFRAME DOVERLAY, 0, STATIC
        ARGFRAME ISTACK, 0, STACK
        ARGFRAME PSTACK, 0, STACK
        ARGFRAME XSTACK, 27, STACK
        ARGFRAME IOVERLAY, 0, STATIC
        ARGFRAME DOVERLAY, 0, STATIC
        MOV     A,#-0xc
        LCALL   ?BANKED_ENTER_XDATA
          CFI DPH0 load(1, XDATA, add(CFA_XSP16, literal(-1)))
          CFI DPL0 load(1, XDATA, add(CFA_XSP16, literal(-2)))
          CFI ?BRET_EXT load(1, XDATA, add(CFA_XSP16, literal(-3)))
          CFI ?RET_HIGH load(1, XDATA, add(CFA_XSP16, literal(-4)))
          CFI ?RET_LOW load(1, XDATA, add(CFA_XSP16, literal(-5)))
          CFI R7 load(1, XDATA, add(CFA_XSP16, literal(-6)))
          CFI V3 load(1, XDATA, add(CFA_XSP16, literal(-7)))
          CFI V2 load(1, XDATA, add(CFA_XSP16, literal(-8)))
          CFI V1 load(1, XDATA, add(CFA_XSP16, literal(-9)))
          CFI V0 load(1, XDATA, add(CFA_XSP16, literal(-10)))
          CFI VB load(1, XDATA, add(CFA_XSP16, literal(-11)))
          CFI R6 load(1, XDATA, add(CFA_XSP16, literal(-12)))
          CFI CFA_SP SP+0
          CFI CFA_XSP16 add(XSP16, 12)
        ; Saved register size: 12
        ; Auto size: 9
        MOV     A,#-0x9
        LCALL   ?ALLOC_XSTACK8
          CFI CFA_XSP16 add(XSP16, 21)
        MOV     A,R1
        MOV     R6,A
// 1959     uint32 channelMask;
// 1960     zAddrType_t dstAddr = {0};
        MOV     DPL,?XSP + 0
        MOV     DPH,?XSP + 1
        MOV     R4,DPL
        MOV     R5,DPH
        MOV     DPH,#(`?<Constant {{0}}>` >> 8) & 0xff
        MOV     DPL,#`?<Constant {{0}}>` & 0xff
        MOV     A,#0x9
        LCALL   ?MOVE_LONG8_XDATA_XDATA
// 1961     if ( ( targetChannel < 11 ) || targetChannel > 26 )
        MOV     A,#-0xb
        ADD     A,R6
        CLR     C
        SUBB    A,#0x10
        JC      ??zllInitiator_ChannelChange_0
// 1962     {
// 1963       if (ZLL_PRIMARY_CHANNEL (_NIB.nwkLogicalChannel))
        MOV     DPTR,#_NIB + 22
        MOVX    A,@DPTR
        MOV     R0,A
        MOV     A,#0xb
        XRL     A,R0
        JZ      ??zllInitiator_ChannelChange_1
        MOV     A,#0xf
        XRL     A,R0
        JZ      ??zllInitiator_ChannelChange_2
        MOV     A,#0x14
        XRL     A,R0
        JZ      ??zllInitiator_ChannelChange_3
        MOV     A,#0x19
        XRL     A,R0
        JZ      ??zllInitiator_ChannelChange_4
// 1964       {
// 1965         switch (_NIB.nwkLogicalChannel)
// 1966         {
// 1967         case ZLL_FIRST_CHANNEL:
// 1968           targetChannel = ZLL_SECOND_CHANNEL;
// 1969           break;
// 1970         case ZLL_SECOND_CHANNEL:
// 1971           targetChannel = ZLL_THIRD_CHANNEL;
// 1972           break;
// 1973         case ZLL_THIRD_CHANNEL:
// 1974           targetChannel = ZLL_FOURTH_CHANNEL;
// 1975           break;
// 1976         case ZLL_FOURTH_CHANNEL:
// 1977           targetChannel = ZLL_FIRST_CHANNEL;
// 1978         }
// 1979       }
// 1980       else
// 1981       {
// 1982         targetChannel = _NIB.nwkLogicalChannel + 1;
        MOV     A,#0x1
        ADD     A,R0
        MOV     R6,A
// 1983         if ( _NIB.nwkLogicalChannel > 26 )
        MOV     A,R0
        CLR     C
        SUBB    A,#0x1b
        JC      ??zllInitiator_ChannelChange_0
// 1984           targetChannel = 11;
??zllInitiator_ChannelChange_4:
        MOV     R6,#0xb
// 1985       }
// 1986     }
// 1987 
// 1988     dstAddr.addrMode = AddrBroadcast;
??zllInitiator_ChannelChange_0:
        MOV     A,#0x8
        LCALL   ?XSTACK_DISP0_8
        MOV     A,#0xf
        MOVX    @DPTR,A
// 1989     dstAddr.addr.shortAddr = NWK_BROADCAST_SHORTADDR_DEVRXON;
        MOV     DPL,?XSP + 0
        MOV     DPH,?XSP + 1
        MOV     A,#-0x3
        MOVX    @DPTR,A
        INC     DPTR
        MOV     A,#-0x1
        MOVX    @DPTR,A
// 1990     channelMask = (uint32)1 << targetChannel;
// 1991 
// 1992     // Increment the nwkUpdateId parameter and set the updateID in the beacon
// 1993     NLME_SetUpdateID(_NIB.nwkUpdateId + 1);
        ; Setup parameters for call to function NLME_SetUpdateID
        MOV     DPTR,#_NIB + 109
        MOVX    A,@DPTR
        INC     A
        MOV     R1,A
        LCALL   ??NLME_SetUpdateID?relay
// 1994 
// 1995     ZDP_MgmtNwkUpdateReq( &dstAddr, channelMask, 0xfe, 0, _NIB.nwkUpdateId, 0 );
        ; Setup parameters for call to function ZDP_MgmtNwkUpdateReq
        CLR     A
        MOV     ?V0 + 0,A
        MOV     ?V0 + 1,A
        MOV     R0,#?V0 + 0
        LCALL   ?PUSH_XSTACK_I_TWO
          CFI CFA_XSP16 add(XSP16, 23)
        MOV     ?V0 + 0,#0x1
        MOV     ?V0 + 2,#0x0
        MOV     ?V0 + 3,#0x0
        MOV     A,R6
        MOV     R0,#?V0 + 0
        LCALL   ?L_SHL
        MOV     R0,#?V0 + 0
        LCALL   ?PUSH_XSTACK_I_FOUR
          CFI CFA_XSP16 add(XSP16, 27)
        MOV     DPTR,#_NIB + 109
        MOVX    A,@DPTR
        MOV     R5,A
        MOV     R4,#0x0
        MOV     R1,#-0x2
        MOV     A,#0x6
        LCALL   ?XSTACK_DISP0_8
        MOV     R2,DPL
        MOV     R3,DPH
        LCALL   ??ZDP_MgmtNwkUpdateReq?relay
        MOV     A,#0x6
        LCALL   ?DEALLOC_XSTACK8
          CFI CFA_XSP16 add(XSP16, 21)
// 1996 
// 1997     return ZSuccess;
        MOV     R1,#0x0
        MOV     A,#0x9
        LJMP    ?Subroutine3 & 0xFFFF
??zllInitiator_ChannelChange_1:
        MOV     R6,#0xf
        SJMP    ??zllInitiator_ChannelChange_0
??zllInitiator_ChannelChange_2:
        MOV     R6,#0x14
        SJMP    ??zllInitiator_ChannelChange_0
??zllInitiator_ChannelChange_3:
        MOV     R6,#0x19
        SJMP    ??zllInitiator_ChannelChange_0
          CFI EndBlock cfiBlock240
// 1998 }
// 1999 
// 2000 /*********************************************************************
// 2001  * @fn      zllInitiator_ClassicalCommissioningInit
// 2002  *
// 2003  * @brief   Start Classical Commissioning.
// 2004  *
// 2005  * @param   none
// 2006  *
// 2007  * @return  status
// 2008  */

        RSEG BANKED_CODE:CODE:NOROOT(0)
// 2009 ZStatus_t zllInitiator_ClassicalCommissioningStart()
zllInitiator_ClassicalCommissioningStart:
          CFI Block cfiBlock241 Using cfiCommon0
          CFI Function zllInitiator_ClassicalCommissioningStart
        CODE
// 2010 {
        FUNCALL zllInitiator_ClassicalCommissioningStart, zll_ClassicalCommissioningInit
        LOCFRAME ISTACK, 2, STACK
        LOCFRAME PSTACK, 0, STACK
        LOCFRAME XSTACK, 0, STACK
        LOCFRAME IOVERLAY, 0, STATIC
        LOCFRAME DOVERLAY, 0, STATIC
        ARGFRAME ISTACK, 2, STACK
        ARGFRAME PSTACK, 0, STACK
        ARGFRAME XSTACK, 0, STACK
        ARGFRAME IOVERLAY, 0, STATIC
        ARGFRAME DOVERLAY, 0, STATIC
        PUSH    DPL
          CFI DPL0 Frame(CFA_SP, 4)
          CFI CFA_SP SP+-4
        PUSH    DPH
          CFI DPH0 Frame(CFA_SP, 5)
          CFI CFA_SP SP+-5
        ; Saved register size: 2
        ; Auto size: 0
// 2011   ZStatus_t status;
// 2012   status = zll_ClassicalCommissioningInit();
// 2013   if ( ( POLL_RATE == 0 ) && ( status == ZSuccess ) )
// 2014   {
// 2015     //Allow completion of authentication process in the new network
// 2016     NLME_SetPollRate( ZLL_INITIATOR_TEMP_POST_TL_POLL_RATE );
// 2017     //Polling will be reset after authentication by ZDApp_DeviceAuthEvt(), but just in case
// 2018     osal_start_timerEx( zllInitiator_TaskID, ZLL_DISABLE_RX_EVT, 2*ZLL_APLC_RX_WINDOW_DURATION );
// 2019   }
// 2020   return status;
        ; Setup parameters for call to function zll_ClassicalCommissioningInit
        LCALL   ??zll_ClassicalCommissioningInit?relay
        LJMP    ??Subroutine35_0 & 0xFFFF
          CFI EndBlock cfiBlock241
// 2021 }
// 2022 
// 2023 /*********************************************************************
// 2024  * @fn      zllSampleRemote_SendEPInfo
// 2025  *
// 2026  * @brief   Send Endpoint info command.
// 2027  *
// 2028  * @param   srcEP - source endpoint
// 2029  * @param   dstAddr - destination address
// 2030  * @param   seqNum - transaction sequnece number
// 2031  *
// 2032  * @return  ZStatus_t
// 2033  */

        RSEG BANKED_CODE:CODE:NOROOT(0)
// 2034 ZStatus_t zllInitiator_SendEPInfo( uint8 srcEP, afAddrType_t *dstAddr, uint8 seqNum)
zllInitiator_SendEPInfo:
          CFI Block cfiBlock242 Using cfiCommon0
          CFI Function zllInitiator_SendEPInfo
        CODE
// 2035 {
        FUNCALL zllInitiator_SendEPInfo, zll_GetSubDeviceInfo
        LOCFRAME ISTACK, 0, STACK
        LOCFRAME PSTACK, 0, STACK
        LOCFRAME XSTACK, 34, STACK
        LOCFRAME IOVERLAY, 0, STATIC
        LOCFRAME DOVERLAY, 0, STATIC
        ARGFRAME ISTACK, 0, STACK
        ARGFRAME PSTACK, 0, STACK
        ARGFRAME XSTACK, 34, STACK
        ARGFRAME IOVERLAY, 0, STATIC
        ARGFRAME DOVERLAY, 0, STATIC
        FUNCALL zllInitiator_SendEPInfo, NLME_GetExtAddr
        LOCFRAME ISTACK, 0, STACK
        LOCFRAME PSTACK, 0, STACK
        LOCFRAME XSTACK, 34, STACK
        LOCFRAME IOVERLAY, 0, STATIC
        LOCFRAME DOVERLAY, 0, STATIC
        ARGFRAME ISTACK, 0, STACK
        ARGFRAME PSTACK, 0, STACK
        ARGFRAME XSTACK, 34, STACK
        ARGFRAME IOVERLAY, 0, STATIC
        ARGFRAME DOVERLAY, 0, STATIC
        FUNCALL zllInitiator_SendEPInfo, sAddrExtCpy
        LOCFRAME ISTACK, 0, STACK
        LOCFRAME PSTACK, 0, STACK
        LOCFRAME XSTACK, 34, STACK
        LOCFRAME IOVERLAY, 0, STATIC
        LOCFRAME DOVERLAY, 0, STATIC
        ARGFRAME ISTACK, 0, STACK
        ARGFRAME PSTACK, 0, STACK
        ARGFRAME XSTACK, 34, STACK
        ARGFRAME IOVERLAY, 0, STATIC
        ARGFRAME DOVERLAY, 0, STATIC
        FUNCALL zllInitiator_SendEPInfo, NLME_GetShortAddr
        LOCFRAME ISTACK, 0, STACK
        LOCFRAME PSTACK, 0, STACK
        LOCFRAME XSTACK, 34, STACK
        LOCFRAME IOVERLAY, 0, STATIC
        LOCFRAME DOVERLAY, 0, STATIC
        ARGFRAME ISTACK, 0, STACK
        ARGFRAME PSTACK, 0, STACK
        ARGFRAME XSTACK, 34, STACK
        ARGFRAME IOVERLAY, 0, STATIC
        ARGFRAME DOVERLAY, 0, STATIC
        FUNCALL zllInitiator_SendEPInfo, zclLL_Send_EndpointInfo
        LOCFRAME ISTACK, 0, STACK
        LOCFRAME PSTACK, 0, STACK
        LOCFRAME XSTACK, 36, STACK
        LOCFRAME IOVERLAY, 0, STATIC
        LOCFRAME DOVERLAY, 0, STATIC
        ARGFRAME ISTACK, 0, STACK
        ARGFRAME PSTACK, 0, STACK
        ARGFRAME XSTACK, 36, STACK
        ARGFRAME IOVERLAY, 0, STATIC
        ARGFRAME DOVERLAY, 0, STATIC
        MOV     A,#-0xb
        LCALL   ?BANKED_ENTER_XDATA
          CFI DPH0 load(1, XDATA, add(CFA_XSP16, literal(-1)))
          CFI DPL0 load(1, XDATA, add(CFA_XSP16, literal(-2)))
          CFI ?BRET_EXT load(1, XDATA, add(CFA_XSP16, literal(-3)))
          CFI ?RET_HIGH load(1, XDATA, add(CFA_XSP16, literal(-4)))
          CFI ?RET_LOW load(1, XDATA, add(CFA_XSP16, literal(-5)))
          CFI R7 load(1, XDATA, add(CFA_XSP16, literal(-6)))
          CFI V2 load(1, XDATA, add(CFA_XSP16, literal(-7)))
          CFI V1 load(1, XDATA, add(CFA_XSP16, literal(-8)))
          CFI V0 load(1, XDATA, add(CFA_XSP16, literal(-9)))
          CFI VB load(1, XDATA, add(CFA_XSP16, literal(-10)))
          CFI R6 load(1, XDATA, add(CFA_XSP16, literal(-11)))
          CFI CFA_SP SP+0
          CFI CFA_XSP16 add(XSP16, 11)
        ; Saved register size: 11
        ; Auto size: 23
        MOV     A,#-0x17
        LCALL   ?ALLOC_XSTACK8
          CFI CFA_XSP16 add(XSP16, 34)
        MOV     ?V0 + 0,R1
        MOV     A,R2
        MOV     R6,A
        MOV     A,R3
        MOV     R7,A
        MOV     ?V0 + 1,R4
// 2036     zclLLEndpointInfo_t zclLLEndpointInfoCmd;
// 2037     zclLLDeviceInfo_t  zclLLDeviceInfo;
// 2038       //send Epinfo cmd
// 2039     zll_GetSubDeviceInfo( 0, &zclLLDeviceInfo );
        ; Setup parameters for call to function zll_GetSubDeviceInfo
        MOV     DPL,?XSP + 0
        MOV     DPH,?XSP + 1
        MOV     R2,DPL
        MOV     R3,DPH
        MOV     R1,#0x0
        LCALL   ??zll_GetSubDeviceInfo?relay
// 2040     zclLLEndpointInfoCmd.endpoint = zclLLDeviceInfo.endpoint;
        MOV     DPL,?XSP + 0
        MOV     DPH,?XSP + 1
        MOVX    A,@DPTR
        PUSH    A
          CFI CFA_SP SP+-1
        MOV     A,#0x11
        LCALL   ?XSTACK_DISP0_8
        POP     A
          CFI CFA_SP SP+0
        MOVX    @DPTR,A
// 2041     zclLLEndpointInfoCmd.profileID = zclLLDeviceInfo.profileID;
        MOV     A,#0x1
        LCALL   ?XSTACK_DISP0_8
        LCALL   ??Subroutine42_0 & 0xFFFF
??CrossCallReturnLabel_85:
        MOV     A,#0x12
        LCALL   ?XSTACK_DISP0_8
        LCALL   ??Subroutine39_0 & 0xFFFF
// 2042     zclLLEndpointInfoCmd.deviceID = zclLLDeviceInfo.deviceID;
??CrossCallReturnLabel_63:
        MOV     A,#0x3
        LCALL   ?XSTACK_DISP0_8
        LCALL   ??Subroutine42_0 & 0xFFFF
??CrossCallReturnLabel_86:
        MOV     A,#0x14
        LCALL   ?XSTACK_DISP0_8
        LCALL   ??Subroutine39_0 & 0xFFFF
// 2043     zclLLEndpointInfoCmd.version = zclLLDeviceInfo.version;
??CrossCallReturnLabel_64:
        MOV     A,#0x5
        LCALL   ?XSTACK_DISP0_8
        MOVX    A,@DPTR
        PUSH    A
          CFI CFA_SP SP+-1
        MOV     A,#0x16
        LCALL   ?XSTACK_DISP0_8
        POP     A
          CFI CFA_SP SP+0
        MOVX    @DPTR,A
// 2044 
// 2045     osal_cpyExtAddr( zclLLEndpointInfoCmd.ieeeAddr, NLME_GetExtAddr() );
        ; Setup parameters for call to function sAddrExtCpy
        ; Setup parameters for call to function NLME_GetExtAddr
        LCALL   ??NLME_GetExtAddr?relay
        MOV     A,R2
        MOV     R4,A
        MOV     A,R3
        MOV     R5,A
        MOV     A,#0x7
        LCALL   ?XSTACK_DISP0_8
        MOV     R2,DPL
        MOV     R3,DPH
        LCALL   ??sAddrExtCpy?relay
// 2046     zclLLEndpointInfoCmd.nwkAddr = NLME_GetShortAddr();
        ; Setup parameters for call to function NLME_GetShortAddr
        LCALL   ??NLME_GetShortAddr?relay
        MOV     A,#0xf
        LCALL   ?XSTACK_DISP0_8
        MOV     A,R2
        MOVX    @DPTR,A
        INC     DPTR
        MOV     A,R3
        LCALL   ?Subroutine9 & 0xFFFF
// 2047 
// 2048     dstAddr->panId = _NIB.nwkPanId;
??CrossCallReturnLabel_4:
        MOV     DPL,R6
        MOV     DPH,R7
        INC     DPTR
        INC     DPTR
        INC     DPTR
        INC     DPTR
        INC     DPTR
        INC     DPTR
        INC     DPTR
        INC     DPTR
        INC     DPTR
        INC     DPTR
        LCALL   ??Subroutine39_0 & 0xFFFF
// 2049     return zclLL_Send_EndpointInfo( srcEP, dstAddr, &zclLLEndpointInfoCmd,
// 2050                                           0, seqNum );
??CrossCallReturnLabel_65:
        ; Setup parameters for call to function zclLL_Send_EndpointInfo
        MOV     A,?V0 + 1
        MOV     ?V0 + 2,A
        MOV     R0,#?V0 + 2
        LCALL   ?PUSH_XSTACK_I_ONE
          CFI CFA_XSP16 add(XSP16, 35)
        MOV     ?V0 + 2,#0x0
        MOV     R0,#?V0 + 2
        LCALL   ?PUSH_XSTACK_I_ONE
          CFI CFA_XSP16 add(XSP16, 36)
        MOV     A,#0x9
        LCALL   ?XSTACK_DISP0_8
        MOV     R4,DPL
        MOV     R5,DPH
        MOV     A,R6
        MOV     R2,A
        MOV     A,R7
        MOV     R3,A
        MOV     R1,?V0 + 0
        LCALL   ??zclLL_Send_EndpointInfo?relay
        MOV     A,#0x2
        LCALL   ?DEALLOC_XSTACK8
          CFI CFA_XSP16 add(XSP16, 34)
        MOV     A,#0x17
        LJMP    ?Subroutine5 & 0xFFFF
          CFI EndBlock cfiBlock242
// 2051 }
// 2052 
// 2053 /*********************************************************************
// 2054  * @fn      zllInitiator_OrphanedRejoin
// 2055  *
// 2056  * @brief   Try to rejoin the network if the device is orphaned.
// 2057  *
// 2058  * @param   none
// 2059  *
// 2060  * @return  status - success if rejoin is initiated
// 2061  */

        RSEG BANKED_CODE:CODE:NOROOT(0)
// 2062 ZStatus_t zllInitiator_OrphanedRejoin()
zllInitiator_OrphanedRejoin:
          CFI Block cfiBlock243 Using cfiCommon0
          CFI Function zllInitiator_OrphanedRejoin
        CODE
// 2063 {
        FUNCALL zllInitiator_OrphanedRejoin, zll_IsFactoryNew
        LOCFRAME ISTACK, 2, STACK
        LOCFRAME PSTACK, 0, STACK
        LOCFRAME XSTACK, 0, STACK
        LOCFRAME IOVERLAY, 0, STATIC
        LOCFRAME DOVERLAY, 0, STATIC
        ARGFRAME ISTACK, 2, STACK
        ARGFRAME PSTACK, 0, STACK
        ARGFRAME XSTACK, 0, STACK
        ARGFRAME IOVERLAY, 0, STATIC
        ARGFRAME DOVERLAY, 0, STATIC
        FUNCALL zllInitiator_OrphanedRejoin, initiatorReJoinNwk
        LOCFRAME ISTACK, 2, STACK
        LOCFRAME PSTACK, 0, STACK
        LOCFRAME XSTACK, 0, STACK
        LOCFRAME IOVERLAY, 0, STATIC
        LOCFRAME DOVERLAY, 0, STATIC
        ARGFRAME ISTACK, 2, STACK
        ARGFRAME PSTACK, 0, STACK
        ARGFRAME XSTACK, 0, STACK
        ARGFRAME IOVERLAY, 0, STATIC
        ARGFRAME DOVERLAY, 0, STATIC
        PUSH    DPL
          CFI DPL0 Frame(CFA_SP, 4)
          CFI CFA_SP SP+-4
        PUSH    DPH
          CFI DPH0 Frame(CFA_SP, 5)
          CFI CFA_SP SP+-5
        ; Saved register size: 2
        ; Auto size: 0
// 2064   if ( ( _NIB.nwkState == NWK_DISC ) && ( _NIB.nwkCoordAddress != INVALID_NODE_ADDR ) && !zll_IsFactoryNew() )
        MOV     DPTR,#_NIB + 35
        MOVX    A,@DPTR
        XRL     A,#0x2
        JNZ     ??zllInitiator_OrphanedRejoin_0
        MOV     DPTR,#_NIB + 23
        MOVX    A,@DPTR
        XRL     A,#0xfe
        JNZ     ??zllInitiator_OrphanedRejoin_1
        INC     DPTR
        MOVX    A,@DPTR
        CPL     A
??zllInitiator_OrphanedRejoin_1:
        JZ      ??zllInitiator_OrphanedRejoin_0
        ; Setup parameters for call to function zll_IsFactoryNew
        LCALL   ??zll_IsFactoryNew?relay
        MOV     A,R1
        JNZ     ??zllInitiator_OrphanedRejoin_0
// 2065   {
// 2066     initiatorReJoinNwk( MODE_REJOIN );
        ; Setup parameters for call to function initiatorReJoinNwk
        MOV     R1,#0x3
        LCALL   ??initiatorReJoinNwk?relay
// 2067     return ZSuccess;
        MOV     R1,#0x0
        SJMP    ??zllInitiator_OrphanedRejoin_2
// 2068   }
// 2069   return ZFailure;
??zllInitiator_OrphanedRejoin_0:
        MOV     R1,#0x1
??zllInitiator_OrphanedRejoin_2:
        LJMP    ??Subroutine35_0 & 0xFFFF
          CFI EndBlock cfiBlock243
// 2070 }
// 2071 
// 2072 /*********************************************************************
// 2073  * @fn      zllInitiator_ResetToFNSelectedTarget
// 2074  *
// 2075  * @brief   Send Reset to Factory New Request command to the selected
// 2076  *          target of the current Touch-Link transaction.
// 2077  *          Note - this function should be called within no later than
// 2078  *          ZLL_APLC_INTER_PAN_TRANS_ID_LIFETIME ms from the Scan Request.
// 2079  *
// 2080  * @param   none
// 2081  *
// 2082  * @return  status - failure is returned due to invalid selected target or
// 2083  *          expired Touch-Link transaction.
// 2084  */

        RSEG BANKED_CODE:CODE:NOROOT(0)
// 2085 ZStatus_t zllInitiator_ResetToFNSelectedTarget()
zllInitiator_ResetToFNSelectedTarget:
          CFI Block cfiBlock244 Using cfiCommon0
          CFI Function zllInitiator_ResetToFNSelectedTarget
        CODE
// 2086 {
        FUNCALL zllInitiator_ResetToFNSelectedTarget, osal_stop_timerEx
        LOCFRAME ISTACK, 0, STACK
        LOCFRAME PSTACK, 0, STACK
        LOCFRAME XSTACK, 16, STACK
        LOCFRAME IOVERLAY, 0, STATIC
        LOCFRAME DOVERLAY, 0, STATIC
        ARGFRAME ISTACK, 0, STACK
        ARGFRAME PSTACK, 0, STACK
        ARGFRAME XSTACK, 16, STACK
        ARGFRAME IOVERLAY, 0, STATIC
        ARGFRAME DOVERLAY, 0, STATIC
        FUNCALL zllInitiator_ResetToFNSelectedTarget, zll_SetChannel
        LOCFRAME ISTACK, 0, STACK
        LOCFRAME PSTACK, 0, STACK
        LOCFRAME XSTACK, 16, STACK
        LOCFRAME IOVERLAY, 0, STATIC
        LOCFRAME DOVERLAY, 0, STATIC
        ARGFRAME ISTACK, 0, STACK
        ARGFRAME PSTACK, 0, STACK
        ARGFRAME XSTACK, 16, STACK
        ARGFRAME IOVERLAY, 0, STATIC
        ARGFRAME DOVERLAY, 0, STATIC
        FUNCALL zllInitiator_ResetToFNSelectedTarget, zclLL_Send_ResetToFNReq
        LOCFRAME ISTACK, 0, STACK
        LOCFRAME PSTACK, 0, STACK
        LOCFRAME XSTACK, 17, STACK
        LOCFRAME IOVERLAY, 0, STATIC
        LOCFRAME DOVERLAY, 0, STATIC
        ARGFRAME ISTACK, 0, STACK
        ARGFRAME PSTACK, 0, STACK
        ARGFRAME XSTACK, 17, STACK
        ARGFRAME IOVERLAY, 0, STATIC
        ARGFRAME DOVERLAY, 0, STATIC
        MOV     A,#-0xc
        LCALL   ?BANKED_ENTER_XDATA
          CFI DPH0 load(1, XDATA, add(CFA_XSP16, literal(-1)))
          CFI DPL0 load(1, XDATA, add(CFA_XSP16, literal(-2)))
          CFI ?BRET_EXT load(1, XDATA, add(CFA_XSP16, literal(-3)))
          CFI ?RET_HIGH load(1, XDATA, add(CFA_XSP16, literal(-4)))
          CFI ?RET_LOW load(1, XDATA, add(CFA_XSP16, literal(-5)))
          CFI R7 load(1, XDATA, add(CFA_XSP16, literal(-6)))
          CFI V3 load(1, XDATA, add(CFA_XSP16, literal(-7)))
          CFI V2 load(1, XDATA, add(CFA_XSP16, literal(-8)))
          CFI V1 load(1, XDATA, add(CFA_XSP16, literal(-9)))
          CFI V0 load(1, XDATA, add(CFA_XSP16, literal(-10)))
          CFI VB load(1, XDATA, add(CFA_XSP16, literal(-11)))
          CFI R6 load(1, XDATA, add(CFA_XSP16, literal(-12)))
          CFI CFA_SP SP+0
          CFI CFA_XSP16 add(XSP16, 12)
        ; Saved register size: 12
        ; Auto size: 4
        MOV     A,#-0x4
        LCALL   ?ALLOC_XSTACK8
          CFI CFA_XSP16 add(XSP16, 16)
// 2087   if ( ( zllTransID == 0 ) || ( selectedTarget.lastRssi == ZLL_TL_WORST_RSSI ) )
        MOV     DPTR,#zllTransID
        MOV     R0,#?V0 + 0
        LCALL   ?L_MOV_X
        MOV     A,?V0 + 0
        ORL     A,?V0 + 1
        ORL     A,?V0 + 2
        ORL     A,?V0 + 3
        JZ      ??zllInitiator_ResetToFNSelectedTarget_0
        MOV     DPTR,#selectedTarget + 53
        MOVX    A,@DPTR
        XRL     A,#0xd8
        JNZ     ??zllInitiator_ResetToFNSelectedTarget_1
// 2088   {
// 2089     return ( ZFailure );
??zllInitiator_ResetToFNSelectedTarget_0:
        MOV     R1,#0x1
        SJMP    ??zllInitiator_ResetToFNSelectedTarget_2
// 2090   }
// 2091   zclLLResetToFNReq_t req;
// 2092   req.transID = zllTransID;
??zllInitiator_ResetToFNSelectedTarget_1:
        MOV     DPTR,#zllTransID
        LCALL   ?XLOAD_R2345
        MOV     DPL,?XSP + 0
        MOV     DPH,?XSP + 1
        LCALL   ?XSTORE_R2345
// 2093 
// 2094   // Cancel further touch-link commissioning (if called during identify interval)
// 2095   osal_stop_timerEx( zllInitiator_TaskID, ZLL_CFG_TARGET_EVT );
        ; Setup parameters for call to function osal_stop_timerEx
        MOV     R2,#-0x80
        MOV     R3,#0x0
        MOV     DPTR,#zllInitiator_TaskID
        MOVX    A,@DPTR
        MOV     R1,A
        LCALL   ??osal_stop_timerEx?relay
// 2096 
// 2097   zll_SetChannel( selectedTarget.rxChannel );
        ; Setup parameters for call to function zll_SetChannel
        MOV     DPTR,#selectedTarget + 52
        MOVX    A,@DPTR
        MOV     R1,A
        LCALL   ??zll_SetChannel?relay
// 2098   return zclLL_Send_ResetToFNReq( ZLL_INTERNAL_ENDPOINT, &(selectedTarget.srcAddr), &req, initiatorSeqNum++ );
        LCALL   ?Subroutine20 & 0xFFFF
??CrossCallReturnLabel_22:
        LCALL   ?PUSH_XSTACK_I_ONE
          CFI CFA_XSP16 add(XSP16, 17)
        MOV     A,#0x1
        LCALL   ?XSTACK_DISP0_8
        MOV     R4,DPL
        MOV     R5,DPH
        MOV     R2,#(selectedTarget + 38) & 0xff
        MOV     R3,#((selectedTarget + 38) >> 8) & 0xff
        MOV     R1,#0xd
        LCALL   ??zclLL_Send_ResetToFNReq?relay
        MOV     A,#0x1
        LCALL   ?DEALLOC_XSTACK8
          CFI CFA_XSP16 add(XSP16, 16)
??zllInitiator_ResetToFNSelectedTarget_2:
        MOV     A,#0x4
        LJMP    ?Subroutine3 & 0xFFFF
          CFI EndBlock cfiBlock244
// 2099 }

        RSEG BANKED_CODE:CODE:NOROOT(0)
?Subroutine20:
          CFI Block cfiCond245 Using cfiCommon0
          CFI Function initiatorSendScanReq
          CFI Conditional ??CrossCallReturnLabel_21
          CFI R6 load(1, XDATA, add(CFA_XSP16, literal(-12)))
          CFI VB load(1, XDATA, add(CFA_XSP16, literal(-11)))
          CFI V0 load(1, XDATA, add(CFA_XSP16, literal(-10)))
          CFI V1 load(1, XDATA, add(CFA_XSP16, literal(-9)))
          CFI V2 load(1, XDATA, add(CFA_XSP16, literal(-8)))
          CFI V3 load(1, XDATA, add(CFA_XSP16, literal(-7)))
          CFI R7 load(1, XDATA, add(CFA_XSP16, literal(-6)))
          CFI ?RET_LOW load(1, XDATA, add(CFA_XSP16, literal(-5)))
          CFI ?RET_HIGH load(1, XDATA, add(CFA_XSP16, literal(-4)))
          CFI ?BRET_EXT load(1, XDATA, add(CFA_XSP16, literal(-3)))
          CFI DPL0 load(1, XDATA, add(CFA_XSP16, literal(-2)))
          CFI DPH0 load(1, XDATA, add(CFA_XSP16, literal(-1)))
          CFI CFA_SP SP+0
          CFI CFA_XSP16 add(XSP16, 32)
          CFI Block cfiCond246 Using cfiCommon0
          CFI (cfiCond246) Function zllInitiator_ResetToFNSelectedTarget
          CFI (cfiCond246) Conditional ??CrossCallReturnLabel_22
          CFI (cfiCond246) R6 load(1, XDATA, add(CFA_XSP16, literal(-12)))
          CFI (cfiCond246) VB load(1, XDATA, add(CFA_XSP16, literal(-11)))
          CFI (cfiCond246) V0 load(1, XDATA, add(CFA_XSP16, literal(-10)))
          CFI (cfiCond246) V1 load(1, XDATA, add(CFA_XSP16, literal(-9)))
          CFI (cfiCond246) V2 load(1, XDATA, add(CFA_XSP16, literal(-8)))
          CFI (cfiCond246) V3 load(1, XDATA, add(CFA_XSP16, literal(-7)))
          CFI (cfiCond246) R7 load(1, XDATA, add(CFA_XSP16, literal(-6)))
          CFI (cfiCond246) ?RET_LOW load(1, XDATA, add(CFA_XSP16, literal(-5)))
          CFI (cfiCond246) ?RET_HIGH load(1, XDATA, add(CFA_XSP16, literal(-4)))
          CFI (cfiCond246) ?BRET_EXT load(1, XDATA, add(CFA_XSP16, literal(-3)))
          CFI (cfiCond246) DPL0 load(1, XDATA, add(CFA_XSP16, literal(-2)))
          CFI (cfiCond246) DPH0 load(1, XDATA, add(CFA_XSP16, literal(-1)))
          CFI (cfiCond246) CFA_SP SP+0
          CFI (cfiCond246) CFA_XSP16 add(XSP16, 16)
          CFI Block cfiPicker247 Using cfiCommon1
          CFI (cfiPicker247) NoFunction
          CFI (cfiPicker247) Picker
        LCALL   ?Subroutine32 & 0xFFFF
??CrossCallReturnLabel_106:
        MOV     ?V0 + 0,A
        MOV     R0,#?V0 + 0
        RET
          CFI EndBlock cfiCond245
          CFI EndBlock cfiCond246
          CFI EndBlock cfiPicker247
// 2100 
// 2101 #if defined ( MT_APP_FUNC )
// 2102 /*********************************************************************
// 2103  * @fn      initiatorProcessRpcMsg
// 2104  *
// 2105  * @brief   Process MT_APP ZLL RPC message
// 2106  *
// 2107  * @param   srcEP - Sending Apps endpoint
// 2108  * @param   len - length of the received message
// 2109  * @param   msg - pointer to message
// 2110  *          0 - lo byte destination address
// 2111  *          1 - hi byte destination address
// 2112  *          2 - destination endpoint
// 2113  *          3 - lo byte cluster ID
// 2114  *          4 - hi byte cluster ID
// 2115  *          5 - message length
// 2116  *          6 - destination address mode (first byte of data)
// 2117  *          7 - zcl command frame
// 2118  *
// 2119  * @return  none
// 2120  */
// 2121 static ZStatus_t initiatorProcessRpcMsg( uint8 srcEP, uint8 len, uint8 *msg )
// 2122 {
// 2123   uint16 clusterID;
// 2124   uint8 zllRpcCmdID;
// 2125   clusterID = BUILD_UINT16( msg[ZLL_MT_APP_RPC_OFFSET_CLUSTER_ID],
// 2126                             msg[ZLL_MT_APP_RPC_OFFSET_CLUSTER_ID + 1] );
// 2127   zllRpcCmdID = msg[ZLL_MT_APP_RPC_OFFSET_CMD_ID];
// 2128 
// 2129   if ( clusterID == ZLL_MT_APP_RPC_CLUSTER_ID )
// 2130   {
// 2131     switch ( zllRpcCmdID )
// 2132     {
// 2133       case ZLL_MT_APP_RPC_CMD_TOUCHLINK:
// 2134         zllInitiator_StartDevDisc();
// 2135         break;
// 2136       case ZLL_MT_APP_RPC_CMD_RESET_TO_FN:
// 2137         zllInitiator_ResetToFactoryNew();
// 2138         break;
// 2139       case ZLL_MT_APP_RPC_CMD_CH_CHANNEL:
// 2140         zllInitiator_ChannelChange( ( len > ( ZLL_MT_APP_RPC_OFFSET_CMD_ID - 1 ) ) ?
// 2141                                      msg[ZLL_MT_APP_RPC_OFFSET_CMD_ID + 1] : 0 );
// 2142         break;
// 2143       case ZLL_MT_APP_RPC_CMD_JOIN_HA:
// 2144         zllInitiator_ClassicalCommissioningStart();
// 2145         break;
// 2146       case ZLL_MT_APP_RPC_CMD_SEND_RESET_TO_FN:
// 2147         zllInitiator_ResetToFNSelectedTarget();
// 2148         break;
// 2149 #if (ZSTACK_ROUTER_BUILD)
// 2150       case ZLL_MT_APP_RPC_CMD_PERMIT_JOIN:
// 2151         zllInitiator_PermitJoin( ( len > ( ZLL_MT_APP_RPC_OFFSET_CMD_ID - 1 ) ) ?
// 2152                                msg[ZLL_MT_APP_RPC_OFFSET_CMD_ID + 1] : 0 );
// 2153         break;
// 2154       case ZLL_MT_APP_RPC_CMD_START_DISTRIB_NWK:
// 2155         zllInitiator_BridgeStartNetwork();
// 2156         break;
// 2157 
// 2158 #endif
// 2159     }
// 2160     return ( ZSuccess );
// 2161   }
// 2162   else
// 2163   {
// 2164     return ( ZFailure );
// 2165   }
// 2166 }
// 2167 #endif //defined ( MT_APP_FUNC )
// 2168 
// 2169 #if (ZSTACK_ROUTER_BUILD)
// 2170 /*********************************************************************
// 2171  * @fn      zllInitiator_PermitJoin
// 2172  *
// 2173  * @brief   Set the router permit join flag, to allow or deny classical
// 2174  *          commissioning by other ZigBee devices.
// 2175  *
// 2176  * @param   duration - enable up to aplcMaxPermitJoinDuration seconds,
// 2177  *                     0 to disable
// 2178  *
// 2179  * @return  status
// 2180  */

        RSEG BANKED_CODE:CODE:NOROOT(0)
// 2181 ZStatus_t zllInitiator_PermitJoin( uint8 duration )
zllInitiator_PermitJoin:
          CFI Block cfiBlock248 Using cfiCommon0
          CFI Function zllInitiator_PermitJoin
        CODE
// 2182 {
        FUNCALL zllInitiator_PermitJoin, zll_PermitJoin
        LOCFRAME ISTACK, 0, STACK
        LOCFRAME PSTACK, 0, STACK
        LOCFRAME XSTACK, 9, STACK
        LOCFRAME IOVERLAY, 0, STATIC
        LOCFRAME DOVERLAY, 0, STATIC
        ARGFRAME ISTACK, 0, STACK
        ARGFRAME PSTACK, 0, STACK
        ARGFRAME XSTACK, 9, STACK
        ARGFRAME IOVERLAY, 0, STATIC
        ARGFRAME DOVERLAY, 0, STATIC
        MOV     A,#-0x9
        LCALL   ?BANKED_ENTER_XDATA
          CFI DPH0 load(1, XDATA, add(CFA_XSP16, literal(-1)))
          CFI DPL0 load(1, XDATA, add(CFA_XSP16, literal(-2)))
          CFI ?BRET_EXT load(1, XDATA, add(CFA_XSP16, literal(-3)))
          CFI ?RET_HIGH load(1, XDATA, add(CFA_XSP16, literal(-4)))
          CFI ?RET_LOW load(1, XDATA, add(CFA_XSP16, literal(-5)))
          CFI R7 load(1, XDATA, add(CFA_XSP16, literal(-6)))
          CFI V0 load(1, XDATA, add(CFA_XSP16, literal(-7)))
          CFI VB load(1, XDATA, add(CFA_XSP16, literal(-8)))
          CFI R6 load(1, XDATA, add(CFA_XSP16, literal(-9)))
          CFI CFA_SP SP+0
          CFI CFA_XSP16 add(XSP16, 9)
        ; Saved register size: 9
        ; Auto size: 0
// 2183   return zll_PermitJoin( duration );
        ; Setup parameters for call to function zll_PermitJoin
        LCALL   ??zll_PermitJoin?relay
        LJMP    ?Subroutine2 & 0xFFFF
          CFI EndBlock cfiBlock248
// 2184 }
// 2185 
// 2186 /*********************************************************************
// 2187  * @fn      zllInitiator_BridgeStartNetwork
// 2188  *
// 2189  * @brief   Start a new ZLL network, without coordinator or Trust Center.
// 2190  *
// 2191  * @param   none
// 2192  *
// 2193  * @return  status
// 2194  */

        RSEG BANKED_CODE:CODE:NOROOT(0)
// 2195 ZStatus_t zllInitiator_BridgeStartNetwork( void )
zllInitiator_BridgeStartNetwork:
          CFI Block cfiBlock249 Using cfiCommon0
          CFI Function zllInitiator_BridgeStartNetwork
        CODE
// 2196 {
        FUNCALL zllInitiator_BridgeStartNetwork, zll_IsFactoryNew
        LOCFRAME ISTACK, 0, STACK
        LOCFRAME PSTACK, 0, STACK
        LOCFRAME XSTACK, 25, STACK
        LOCFRAME IOVERLAY, 0, STATIC
        LOCFRAME DOVERLAY, 0, STATIC
        ARGFRAME ISTACK, 0, STACK
        ARGFRAME PSTACK, 0, STACK
        ARGFRAME XSTACK, 25, STACK
        ARGFRAME IOVERLAY, 0, STATIC
        ARGFRAME DOVERLAY, 0, STATIC
        FUNCALL zllInitiator_BridgeStartNetwork, zll_SetNIB
        LOCFRAME ISTACK, 0, STACK
        LOCFRAME PSTACK, 0, STACK
        LOCFRAME XSTACK, 29, STACK
        LOCFRAME IOVERLAY, 0, STATIC
        LOCFRAME DOVERLAY, 0, STATIC
        ARGFRAME ISTACK, 0, STACK
        ARGFRAME PSTACK, 0, STACK
        ARGFRAME XSTACK, 29, STACK
        ARGFRAME IOVERLAY, 0, STATIC
        ARGFRAME DOVERLAY, 0, STATIC
        FUNCALL zllInitiator_BridgeStartNetwork, zll_GenerateRandNum
        LOCFRAME ISTACK, 0, STACK
        LOCFRAME PSTACK, 0, STACK
        LOCFRAME XSTACK, 25, STACK
        LOCFRAME IOVERLAY, 0, STATIC
        LOCFRAME DOVERLAY, 0, STATIC
        ARGFRAME ISTACK, 0, STACK
        ARGFRAME PSTACK, 0, STACK
        ARGFRAME XSTACK, 25, STACK
        ARGFRAME IOVERLAY, 0, STATIC
        ARGFRAME DOVERLAY, 0, STATIC
        FUNCALL zllInitiator_BridgeStartNetwork, zll_UpdateNwkKey
        LOCFRAME ISTACK, 0, STACK
        LOCFRAME PSTACK, 0, STACK
        LOCFRAME XSTACK, 25, STACK
        LOCFRAME IOVERLAY, 0, STATIC
        LOCFRAME DOVERLAY, 0, STATIC
        ARGFRAME ISTACK, 0, STACK
        ARGFRAME PSTACK, 0, STACK
        ARGFRAME XSTACK, 25, STACK
        ARGFRAME IOVERLAY, 0, STATIC
        ARGFRAME DOVERLAY, 0, STATIC
        FUNCALL zllInitiator_BridgeStartNetwork, ZDSecMgrUpdateTCAddress
        LOCFRAME ISTACK, 0, STACK
        LOCFRAME PSTACK, 0, STACK
        LOCFRAME XSTACK, 25, STACK
        LOCFRAME IOVERLAY, 0, STATIC
        LOCFRAME DOVERLAY, 0, STATIC
        ARGFRAME ISTACK, 0, STACK
        ARGFRAME PSTACK, 0, STACK
        ARGFRAME XSTACK, 25, STACK
        ARGFRAME IOVERLAY, 0, STATIC
        ARGFRAME DOVERLAY, 0, STATIC
        FUNCALL zllInitiator_BridgeStartNetwork, zll_UpdateNV
        LOCFRAME ISTACK, 0, STACK
        LOCFRAME PSTACK, 0, STACK
        LOCFRAME XSTACK, 25, STACK
        LOCFRAME IOVERLAY, 0, STATIC
        LOCFRAME DOVERLAY, 0, STATIC
        ARGFRAME ISTACK, 0, STACK
        ARGFRAME PSTACK, 0, STACK
        ARGFRAME XSTACK, 25, STACK
        ARGFRAME IOVERLAY, 0, STATIC
        ARGFRAME DOVERLAY, 0, STATIC
        FUNCALL zllInitiator_BridgeStartNetwork, ZDApp_LeaveCtrlReset
        LOCFRAME ISTACK, 0, STACK
        LOCFRAME PSTACK, 0, STACK
        LOCFRAME XSTACK, 25, STACK
        LOCFRAME IOVERLAY, 0, STATIC
        LOCFRAME DOVERLAY, 0, STATIC
        ARGFRAME ISTACK, 0, STACK
        ARGFRAME PSTACK, 0, STACK
        ARGFRAME XSTACK, 25, STACK
        ARGFRAME IOVERLAY, 0, STATIC
        ARGFRAME DOVERLAY, 0, STATIC
        FUNCALL zllInitiator_BridgeStartNetwork, ZDOInitDevice
        LOCFRAME ISTACK, 0, STACK
        LOCFRAME PSTACK, 0, STACK
        LOCFRAME XSTACK, 25, STACK
        LOCFRAME IOVERLAY, 0, STATIC
        LOCFRAME DOVERLAY, 0, STATIC
        ARGFRAME ISTACK, 0, STACK
        ARGFRAME PSTACK, 0, STACK
        ARGFRAME XSTACK, 25, STACK
        ARGFRAME IOVERLAY, 0, STATIC
        ARGFRAME DOVERLAY, 0, STATIC
        MOV     A,#-0x9
        LCALL   ?BANKED_ENTER_XDATA
          CFI DPH0 load(1, XDATA, add(CFA_XSP16, literal(-1)))
          CFI DPL0 load(1, XDATA, add(CFA_XSP16, literal(-2)))
          CFI ?BRET_EXT load(1, XDATA, add(CFA_XSP16, literal(-3)))
          CFI ?RET_HIGH load(1, XDATA, add(CFA_XSP16, literal(-4)))
          CFI ?RET_LOW load(1, XDATA, add(CFA_XSP16, literal(-5)))
          CFI R7 load(1, XDATA, add(CFA_XSP16, literal(-6)))
          CFI V0 load(1, XDATA, add(CFA_XSP16, literal(-7)))
          CFI VB load(1, XDATA, add(CFA_XSP16, literal(-8)))
          CFI R6 load(1, XDATA, add(CFA_XSP16, literal(-9)))
          CFI CFA_SP SP+0
          CFI CFA_XSP16 add(XSP16, 9)
        ; Saved register size: 9
        ; Auto size: 16
        MOV     A,#-0x10
        LCALL   ?ALLOC_XSTACK8
          CFI CFA_XSP16 add(XSP16, 25)
// 2197   if ( !zll_IsFactoryNew() )
        ; Setup parameters for call to function zll_IsFactoryNew
        LCALL   ??zll_IsFactoryNew?relay
        MOV     A,R1
        JNZ     ??zllInitiator_BridgeStartNetwork_0
// 2198   {
// 2199     return ( ZFailure );
        MOV     R1,#0x1
        SJMP    ??zllInitiator_BridgeStartNetwork_1
// 2200   }
// 2201 
// 2202     // Assuming initiatorSelectNwkParams() was called,
// 2203     // Copy the new network parameters to NV
// 2204   zll_SetNIB( NWK_ROUTER, _NIB.nwkDevAddress, _NIB.extendedPANID,
// 2205               _NIB.nwkLogicalChannel, _NIB.nwkPanId, _NIB.nwkUpdateId );
??zllInitiator_BridgeStartNetwork_0:
        ; Setup parameters for call to function zll_SetNIB
        MOV     DPTR,#_NIB + 109
        LCALL   ?Subroutine19 & 0xFFFF
??CrossCallReturnLabel_19:
        LCALL   ?PUSH_XSTACK_I_ONE
          CFI CFA_XSP16 add(XSP16, 26)
        MOV     DPTR,#_NIB + 33
        LCALL   ?PUSH_XSTACK8_X_TWO
          CFI CFA_XSP16 add(XSP16, 28)
        MOV     DPTR,#_NIB + 22
        LCALL   ?Subroutine19 & 0xFFFF
??CrossCallReturnLabel_20:
        LCALL   ?PUSH_XSTACK_I_ONE
          CFI CFA_XSP16 add(XSP16, 29)
        MOV     R4,#(_NIB + 53) & 0xff
        MOV     R5,#((_NIB + 53) >> 8) & 0xff
        LCALL   ??Subroutine46_0 & 0xFFFF
??CrossCallReturnLabel_114:
        MOV     R1,#0x8
        LCALL   ??zll_SetNIB?relay
        MOV     A,#0x4
        LCALL   ?DEALLOC_XSTACK8
          CFI CFA_XSP16 add(XSP16, 25)
// 2206 
// 2207 #ifdef ZLL_DEV_FIXED_NWK_KEY
// 2208   uint8 nwkKey[SEC_KEY_LEN] = ZLL_DEV_FIXED_NWK_KEY;
// 2209 #else
// 2210   uint8 nwkKey[SEC_KEY_LEN];
// 2211   zll_GenerateRandNum( nwkKey, SEC_KEY_LEN );
        ; Setup parameters for call to function zll_GenerateRandNum
        MOV     R1,#0x10
        MOV     DPL,?XSP + 0
        MOV     DPH,?XSP + 1
        MOV     R2,DPL
        MOV     R3,DPH
        LCALL   ??zll_GenerateRandNum?relay
// 2212 #endif
// 2213   zll_UpdateNwkKey(nwkKey,0);
        ; Setup parameters for call to function zll_UpdateNwkKey
        MOV     R1,#0x0
        MOV     DPL,?XSP + 0
        MOV     DPH,?XSP + 1
        MOV     R2,DPL
        MOV     R3,DPH
        LCALL   ??zll_UpdateNwkKey?relay
// 2214 
// 2215   // setting apsTrustCenterAddress to 0xffffffff
// 2216   ZDSecMgrUpdateTCAddress( NULL );
        ; Setup parameters for call to function ZDSecMgrUpdateTCAddress
        MOV     R2,#0x0
        MOV     R3,#0x0
        LCALL   ??ZDSecMgrUpdateTCAddress?relay
// 2217 
// 2218   // Use the new free ranges
// 2219   //zll_UpdateFreeRanges( pParams );
// 2220 
// 2221   // Save free ranges
// 2222   zll_UpdateNV( ZLL_UPDATE_NV_RANGES | ZLL_UPDATE_NV_NIB );
        ; Setup parameters for call to function zll_UpdateNV
        MOV     R1,#0x3
        LCALL   ??zll_UpdateNV?relay
// 2223 
// 2224   // In case we're here after a leave
// 2225   zllLeaveInitiated = FALSE;
        MOV     DPTR,#zllLeaveInitiated
        CLR     A
        MOVX    @DPTR,A
// 2226 
// 2227   // Clear leave control logic
// 2228   ZDApp_LeaveCtrlReset();
        ; Setup parameters for call to function ZDApp_LeaveCtrlReset
        LCALL   ??ZDApp_LeaveCtrlReset?relay
// 2229 
// 2230   // Start operating on the network, based on NV values
// 2231   ZDOInitDevice( 0 );
        ; Setup parameters for call to function ZDOInitDevice
        MOV     R2,#0x0
        MOV     R3,#0x0
        LCALL   ??ZDOInitDevice?relay
// 2232 
// 2233   return ( ZSuccess );
        MOV     R1,#0x0
??zllInitiator_BridgeStartNetwork_1:
        MOV     A,#0x10
        LCALL   ?DEALLOC_XSTACK8
          CFI CFA_XSP16 add(XSP16, 9)
        LJMP    ?Subroutine2 & 0xFFFF
          CFI EndBlock cfiBlock249
// 2234 }

        RSEG BANKED_CODE:CODE:NOROOT(0)
?Subroutine19:
          CFI Block cfiCond250 Using cfiCommon0
          CFI Function zllInitiator_event_loop
          CFI Conditional ??CrossCallReturnLabel_15
          CFI R6 load(1, XDATA, add(CFA_XSP16, literal(-16)))
          CFI VB load(1, XDATA, add(CFA_XSP16, literal(-15)))
          CFI V0 load(1, XDATA, add(CFA_XSP16, literal(-14)))
          CFI V1 load(1, XDATA, add(CFA_XSP16, literal(-13)))
          CFI V2 load(1, XDATA, add(CFA_XSP16, literal(-12)))
          CFI V3 load(1, XDATA, add(CFA_XSP16, literal(-11)))
          CFI V4 load(1, XDATA, add(CFA_XSP16, literal(-10)))
          CFI V5 load(1, XDATA, add(CFA_XSP16, literal(-9)))
          CFI V6 load(1, XDATA, add(CFA_XSP16, literal(-8)))
          CFI V7 load(1, XDATA, add(CFA_XSP16, literal(-7)))
          CFI R7 load(1, XDATA, add(CFA_XSP16, literal(-6)))
          CFI ?RET_LOW load(1, XDATA, add(CFA_XSP16, literal(-5)))
          CFI ?RET_HIGH load(1, XDATA, add(CFA_XSP16, literal(-4)))
          CFI ?BRET_EXT load(1, XDATA, add(CFA_XSP16, literal(-3)))
          CFI DPL0 load(1, XDATA, add(CFA_XSP16, literal(-2)))
          CFI DPH0 load(1, XDATA, add(CFA_XSP16, literal(-1)))
          CFI CFA_SP SP+0
          CFI CFA_XSP16 add(XSP16, 30)
          CFI Block cfiCond251 Using cfiCommon0
          CFI (cfiCond251) Function zllInitiator_event_loop
          CFI (cfiCond251) Conditional ??CrossCallReturnLabel_16
          CFI (cfiCond251) R6 load(1, XDATA, add(CFA_XSP16, literal(-16)))
          CFI (cfiCond251) VB load(1, XDATA, add(CFA_XSP16, literal(-15)))
          CFI (cfiCond251) V0 load(1, XDATA, add(CFA_XSP16, literal(-14)))
          CFI (cfiCond251) V1 load(1, XDATA, add(CFA_XSP16, literal(-13)))
          CFI (cfiCond251) V2 load(1, XDATA, add(CFA_XSP16, literal(-12)))
          CFI (cfiCond251) V3 load(1, XDATA, add(CFA_XSP16, literal(-11)))
          CFI (cfiCond251) V4 load(1, XDATA, add(CFA_XSP16, literal(-10)))
          CFI (cfiCond251) V5 load(1, XDATA, add(CFA_XSP16, literal(-9)))
          CFI (cfiCond251) V6 load(1, XDATA, add(CFA_XSP16, literal(-8)))
          CFI (cfiCond251) V7 load(1, XDATA, add(CFA_XSP16, literal(-7)))
          CFI (cfiCond251) R7 load(1, XDATA, add(CFA_XSP16, literal(-6)))
          CFI (cfiCond251) ?RET_LOW load(1, XDATA, add(CFA_XSP16, literal(-5)))
          CFI (cfiCond251) ?RET_HIGH load(1, XDATA, add(CFA_XSP16, literal(-4)))
          CFI (cfiCond251) ?BRET_EXT load(1, XDATA, add(CFA_XSP16, literal(-3)))
          CFI (cfiCond251) DPL0 load(1, XDATA, add(CFA_XSP16, literal(-2)))
          CFI (cfiCond251) DPH0 load(1, XDATA, add(CFA_XSP16, literal(-1)))
          CFI (cfiCond251) CFA_SP SP+0
          CFI (cfiCond251) CFA_XSP16 add(XSP16, 33)
          CFI Block cfiCond252 Using cfiCommon0
          CFI (cfiCond252) Function zllInitiator_event_loop
          CFI (cfiCond252) Conditional ??CrossCallReturnLabel_17
          CFI (cfiCond252) R6 load(1, XDATA, add(CFA_XSP16, literal(-16)))
          CFI (cfiCond252) VB load(1, XDATA, add(CFA_XSP16, literal(-15)))
          CFI (cfiCond252) V0 load(1, XDATA, add(CFA_XSP16, literal(-14)))
          CFI (cfiCond252) V1 load(1, XDATA, add(CFA_XSP16, literal(-13)))
          CFI (cfiCond252) V2 load(1, XDATA, add(CFA_XSP16, literal(-12)))
          CFI (cfiCond252) V3 load(1, XDATA, add(CFA_XSP16, literal(-11)))
          CFI (cfiCond252) V4 load(1, XDATA, add(CFA_XSP16, literal(-10)))
          CFI (cfiCond252) V5 load(1, XDATA, add(CFA_XSP16, literal(-9)))
          CFI (cfiCond252) V6 load(1, XDATA, add(CFA_XSP16, literal(-8)))
          CFI (cfiCond252) V7 load(1, XDATA, add(CFA_XSP16, literal(-7)))
          CFI (cfiCond252) R7 load(1, XDATA, add(CFA_XSP16, literal(-6)))
          CFI (cfiCond252) ?RET_LOW load(1, XDATA, add(CFA_XSP16, literal(-5)))
          CFI (cfiCond252) ?RET_HIGH load(1, XDATA, add(CFA_XSP16, literal(-4)))
          CFI (cfiCond252) ?BRET_EXT load(1, XDATA, add(CFA_XSP16, literal(-3)))
          CFI (cfiCond252) DPL0 load(1, XDATA, add(CFA_XSP16, literal(-2)))
          CFI (cfiCond252) DPH0 load(1, XDATA, add(CFA_XSP16, literal(-1)))
          CFI (cfiCond252) CFA_SP SP+0
          CFI (cfiCond252) CFA_XSP16 add(XSP16, 30)
          CFI Block cfiCond253 Using cfiCommon0
          CFI (cfiCond253) Function zllInitiator_event_loop
          CFI (cfiCond253) Conditional ??CrossCallReturnLabel_18
          CFI (cfiCond253) R6 load(1, XDATA, add(CFA_XSP16, literal(-16)))
          CFI (cfiCond253) VB load(1, XDATA, add(CFA_XSP16, literal(-15)))
          CFI (cfiCond253) V0 load(1, XDATA, add(CFA_XSP16, literal(-14)))
          CFI (cfiCond253) V1 load(1, XDATA, add(CFA_XSP16, literal(-13)))
          CFI (cfiCond253) V2 load(1, XDATA, add(CFA_XSP16, literal(-12)))
          CFI (cfiCond253) V3 load(1, XDATA, add(CFA_XSP16, literal(-11)))
          CFI (cfiCond253) V4 load(1, XDATA, add(CFA_XSP16, literal(-10)))
          CFI (cfiCond253) V5 load(1, XDATA, add(CFA_XSP16, literal(-9)))
          CFI (cfiCond253) V6 load(1, XDATA, add(CFA_XSP16, literal(-8)))
          CFI (cfiCond253) V7 load(1, XDATA, add(CFA_XSP16, literal(-7)))
          CFI (cfiCond253) R7 load(1, XDATA, add(CFA_XSP16, literal(-6)))
          CFI (cfiCond253) ?RET_LOW load(1, XDATA, add(CFA_XSP16, literal(-5)))
          CFI (cfiCond253) ?RET_HIGH load(1, XDATA, add(CFA_XSP16, literal(-4)))
          CFI (cfiCond253) ?BRET_EXT load(1, XDATA, add(CFA_XSP16, literal(-3)))
          CFI (cfiCond253) DPL0 load(1, XDATA, add(CFA_XSP16, literal(-2)))
          CFI (cfiCond253) DPH0 load(1, XDATA, add(CFA_XSP16, literal(-1)))
          CFI (cfiCond253) CFA_SP SP+0
          CFI (cfiCond253) CFA_XSP16 add(XSP16, 33)
          CFI Block cfiCond254 Using cfiCommon0
          CFI (cfiCond254) Function zllInitiator_BridgeStartNetwork
          CFI (cfiCond254) Conditional ??CrossCallReturnLabel_19
          CFI (cfiCond254) R6 load(1, XDATA, add(CFA_XSP16, literal(-9)))
          CFI (cfiCond254) VB load(1, XDATA, add(CFA_XSP16, literal(-8)))
          CFI (cfiCond254) V0 load(1, XDATA, add(CFA_XSP16, literal(-7)))
          CFI (cfiCond254) R7 load(1, XDATA, add(CFA_XSP16, literal(-6)))
          CFI (cfiCond254) ?RET_LOW load(1, XDATA, add(CFA_XSP16, literal(-5)))
          CFI (cfiCond254) ?RET_HIGH load(1, XDATA, add(CFA_XSP16, literal(-4)))
          CFI (cfiCond254) ?BRET_EXT load(1, XDATA, add(CFA_XSP16, literal(-3)))
          CFI (cfiCond254) DPL0 load(1, XDATA, add(CFA_XSP16, literal(-2)))
          CFI (cfiCond254) DPH0 load(1, XDATA, add(CFA_XSP16, literal(-1)))
          CFI (cfiCond254) CFA_SP SP+0
          CFI (cfiCond254) CFA_XSP16 add(XSP16, 25)
          CFI Block cfiCond255 Using cfiCommon0
          CFI (cfiCond255) Function zllInitiator_BridgeStartNetwork
          CFI (cfiCond255) Conditional ??CrossCallReturnLabel_20
          CFI (cfiCond255) R6 load(1, XDATA, add(CFA_XSP16, literal(-9)))
          CFI (cfiCond255) VB load(1, XDATA, add(CFA_XSP16, literal(-8)))
          CFI (cfiCond255) V0 load(1, XDATA, add(CFA_XSP16, literal(-7)))
          CFI (cfiCond255) R7 load(1, XDATA, add(CFA_XSP16, literal(-6)))
          CFI (cfiCond255) ?RET_LOW load(1, XDATA, add(CFA_XSP16, literal(-5)))
          CFI (cfiCond255) ?RET_HIGH load(1, XDATA, add(CFA_XSP16, literal(-4)))
          CFI (cfiCond255) ?BRET_EXT load(1, XDATA, add(CFA_XSP16, literal(-3)))
          CFI (cfiCond255) DPL0 load(1, XDATA, add(CFA_XSP16, literal(-2)))
          CFI (cfiCond255) DPH0 load(1, XDATA, add(CFA_XSP16, literal(-1)))
          CFI (cfiCond255) CFA_SP SP+0
          CFI (cfiCond255) CFA_XSP16 add(XSP16, 28)
          CFI Block cfiPicker256 Using cfiCommon1
          CFI (cfiPicker256) NoFunction
          CFI (cfiPicker256) Picker
        MOVX    A,@DPTR
        MOV     ?V0 + 0,A
        MOV     R0,#?V0 + 0
        RET
          CFI EndBlock cfiCond250
          CFI EndBlock cfiCond251
          CFI EndBlock cfiCond252
          CFI EndBlock cfiCond253
          CFI EndBlock cfiCond254
          CFI EndBlock cfiCond255
          CFI EndBlock cfiPicker256

        RSEG BANKED_CODE:CODE:NOROOT(0)
?Subroutine16:
          CFI Block cfiCond257 Using cfiCommon0
          CFI Function initiatorSelectNwkParams
          CFI Conditional ??CrossCallReturnLabel_115
          CFI R6 load(1, XDATA, add(CFA_XSP16, literal(-9)))
          CFI VB load(1, XDATA, add(CFA_XSP16, literal(-8)))
          CFI V0 load(1, XDATA, add(CFA_XSP16, literal(-7)))
          CFI R7 load(1, XDATA, add(CFA_XSP16, literal(-6)))
          CFI ?RET_LOW load(1, XDATA, add(CFA_XSP16, literal(-5)))
          CFI ?RET_HIGH load(1, XDATA, add(CFA_XSP16, literal(-4)))
          CFI ?BRET_EXT load(1, XDATA, add(CFA_XSP16, literal(-3)))
          CFI DPL0 load(1, XDATA, add(CFA_XSP16, literal(-2)))
          CFI DPH0 load(1, XDATA, add(CFA_XSP16, literal(-1)))
          CFI CFA_SP SP+0
          CFI CFA_XSP16 add(XSP16, 9)
          CFI Block cfiCond258 Using cfiCommon0
          CFI (cfiCond258) Function initiatorReJoinNwk
          CFI (cfiCond258) Conditional ??CrossCallReturnLabel_116
          CFI (cfiCond258) R6 load(1, XDATA, add(CFA_XSP16, literal(-9)))
          CFI (cfiCond258) VB load(1, XDATA, add(CFA_XSP16, literal(-8)))
          CFI (cfiCond258) V0 load(1, XDATA, add(CFA_XSP16, literal(-7)))
          CFI (cfiCond258) R7 load(1, XDATA, add(CFA_XSP16, literal(-6)))
          CFI (cfiCond258) ?RET_LOW load(1, XDATA, add(CFA_XSP16, literal(-5)))
          CFI (cfiCond258) ?RET_HIGH load(1, XDATA, add(CFA_XSP16, literal(-4)))
          CFI (cfiCond258) ?BRET_EXT load(1, XDATA, add(CFA_XSP16, literal(-3)))
          CFI (cfiCond258) DPL0 load(1, XDATA, add(CFA_XSP16, literal(-2)))
          CFI (cfiCond258) DPH0 load(1, XDATA, add(CFA_XSP16, literal(-1)))
          CFI (cfiCond258) CFA_SP SP+0
          CFI (cfiCond258) CFA_XSP16 add(XSP16, 9)
          CFI Block cfiPicker259 Using cfiCommon1
          CFI (cfiPicker259) NoFunction
          CFI (cfiPicker259) Picker
        MOV     DPTR,#_NIB + 22
        MOVX    A,@DPTR
        MOV     R1,A
        MOV     DPTR,#_NIB + 33
        MOVX    A,@DPTR
        MOV     R4,A
        INC     DPTR
        MOVX    A,@DPTR
        MOV     R5,A
          CFI EndBlock cfiCond257
          CFI EndBlock cfiCond258
          CFI EndBlock cfiPicker259
        REQUIRE ??Subroutine46_0
        ; // Fall through to label ??Subroutine46_0

        RSEG BANKED_CODE:CODE:NOROOT(0)
??Subroutine46_0:
          CFI Block cfiCond260 Using cfiCommon0
          CFI Function zllInitiator_event_loop
          CFI Conditional ??CrossCallReturnLabel_113
          CFI R6 load(1, XDATA, add(CFA_XSP16, literal(-16)))
          CFI VB load(1, XDATA, add(CFA_XSP16, literal(-15)))
          CFI V0 load(1, XDATA, add(CFA_XSP16, literal(-14)))
          CFI V1 load(1, XDATA, add(CFA_XSP16, literal(-13)))
          CFI V2 load(1, XDATA, add(CFA_XSP16, literal(-12)))
          CFI V3 load(1, XDATA, add(CFA_XSP16, literal(-11)))
          CFI V4 load(1, XDATA, add(CFA_XSP16, literal(-10)))
          CFI V5 load(1, XDATA, add(CFA_XSP16, literal(-9)))
          CFI V6 load(1, XDATA, add(CFA_XSP16, literal(-8)))
          CFI V7 load(1, XDATA, add(CFA_XSP16, literal(-7)))
          CFI R7 load(1, XDATA, add(CFA_XSP16, literal(-6)))
          CFI ?RET_LOW load(1, XDATA, add(CFA_XSP16, literal(-5)))
          CFI ?RET_HIGH load(1, XDATA, add(CFA_XSP16, literal(-4)))
          CFI ?BRET_EXT load(1, XDATA, add(CFA_XSP16, literal(-3)))
          CFI DPL0 load(1, XDATA, add(CFA_XSP16, literal(-2)))
          CFI DPH0 load(1, XDATA, add(CFA_XSP16, literal(-1)))
          CFI CFA_SP SP+0
          CFI CFA_XSP16 add(XSP16, 34)
          CFI Block cfiCond261 Using cfiCommon0
          CFI (cfiCond261) Function zllInitiator_BridgeStartNetwork
          CFI (cfiCond261) Conditional ??CrossCallReturnLabel_114
          CFI (cfiCond261) R6 load(1, XDATA, add(CFA_XSP16, literal(-9)))
          CFI (cfiCond261) VB load(1, XDATA, add(CFA_XSP16, literal(-8)))
          CFI (cfiCond261) V0 load(1, XDATA, add(CFA_XSP16, literal(-7)))
          CFI (cfiCond261) R7 load(1, XDATA, add(CFA_XSP16, literal(-6)))
          CFI (cfiCond261) ?RET_LOW load(1, XDATA, add(CFA_XSP16, literal(-5)))
          CFI (cfiCond261) ?RET_HIGH load(1, XDATA, add(CFA_XSP16, literal(-4)))
          CFI (cfiCond261) ?BRET_EXT load(1, XDATA, add(CFA_XSP16, literal(-3)))
          CFI (cfiCond261) DPL0 load(1, XDATA, add(CFA_XSP16, literal(-2)))
          CFI (cfiCond261) DPH0 load(1, XDATA, add(CFA_XSP16, literal(-1)))
          CFI (cfiCond261) CFA_SP SP+0
          CFI (cfiCond261) CFA_XSP16 add(XSP16, 29)
          CFI Block cfiCond262 Using cfiCommon0
          CFI (cfiCond262) Function initiatorSelectNwkParams
          CFI (cfiCond262) Conditional ??CrossCallReturnLabel_115
          CFI (cfiCond262) R6 load(1, XDATA, add(CFA_XSP16, literal(-9)))
          CFI (cfiCond262) VB load(1, XDATA, add(CFA_XSP16, literal(-8)))
          CFI (cfiCond262) V0 load(1, XDATA, add(CFA_XSP16, literal(-7)))
          CFI (cfiCond262) R7 load(1, XDATA, add(CFA_XSP16, literal(-6)))
          CFI (cfiCond262) ?RET_LOW load(1, XDATA, add(CFA_XSP16, literal(-5)))
          CFI (cfiCond262) ?RET_HIGH load(1, XDATA, add(CFA_XSP16, literal(-4)))
          CFI (cfiCond262) ?BRET_EXT load(1, XDATA, add(CFA_XSP16, literal(-3)))
          CFI (cfiCond262) DPL0 load(1, XDATA, add(CFA_XSP16, literal(-2)))
          CFI (cfiCond262) DPH0 load(1, XDATA, add(CFA_XSP16, literal(-1)))
          CFI (cfiCond262) CFA_SP SP+0
          CFI (cfiCond262) CFA_XSP16 add(XSP16, 9)
          CFI Block cfiCond263 Using cfiCommon0
          CFI (cfiCond263) Function initiatorReJoinNwk
          CFI (cfiCond263) Conditional ??CrossCallReturnLabel_116
          CFI (cfiCond263) R6 load(1, XDATA, add(CFA_XSP16, literal(-9)))
          CFI (cfiCond263) VB load(1, XDATA, add(CFA_XSP16, literal(-8)))
          CFI (cfiCond263) V0 load(1, XDATA, add(CFA_XSP16, literal(-7)))
          CFI (cfiCond263) R7 load(1, XDATA, add(CFA_XSP16, literal(-6)))
          CFI (cfiCond263) ?RET_LOW load(1, XDATA, add(CFA_XSP16, literal(-5)))
          CFI (cfiCond263) ?RET_HIGH load(1, XDATA, add(CFA_XSP16, literal(-4)))
          CFI (cfiCond263) ?BRET_EXT load(1, XDATA, add(CFA_XSP16, literal(-3)))
          CFI (cfiCond263) DPL0 load(1, XDATA, add(CFA_XSP16, literal(-2)))
          CFI (cfiCond263) DPH0 load(1, XDATA, add(CFA_XSP16, literal(-1)))
          CFI (cfiCond263) CFA_SP SP+0
          CFI (cfiCond263) CFA_XSP16 add(XSP16, 9)
          CFI Block cfiPicker264 Using cfiCommon1
          CFI (cfiPicker264) NoFunction
          CFI (cfiPicker264) Picker
        MOV     DPTR,#_NIB + 20
          CFI EndBlock cfiCond260
          CFI EndBlock cfiCond261
          CFI EndBlock cfiCond262
          CFI EndBlock cfiCond263
          CFI EndBlock cfiPicker264
        REQUIRE ??Subroutine47_0
        ; // Fall through to label ??Subroutine47_0

        RSEG BANKED_CODE:CODE:NOROOT(0)
??Subroutine47_0:
          CFI Block cfiCond265 Using cfiCommon0
          CFI Function zllInitiator_event_loop
          CFI Conditional ??CrossCallReturnLabel_108
          CFI R6 load(1, XDATA, add(CFA_XSP16, literal(-16)))
          CFI VB load(1, XDATA, add(CFA_XSP16, literal(-15)))
          CFI V0 load(1, XDATA, add(CFA_XSP16, literal(-14)))
          CFI V1 load(1, XDATA, add(CFA_XSP16, literal(-13)))
          CFI V2 load(1, XDATA, add(CFA_XSP16, literal(-12)))
          CFI V3 load(1, XDATA, add(CFA_XSP16, literal(-11)))
          CFI V4 load(1, XDATA, add(CFA_XSP16, literal(-10)))
          CFI V5 load(1, XDATA, add(CFA_XSP16, literal(-9)))
          CFI V6 load(1, XDATA, add(CFA_XSP16, literal(-8)))
          CFI V7 load(1, XDATA, add(CFA_XSP16, literal(-7)))
          CFI R7 load(1, XDATA, add(CFA_XSP16, literal(-6)))
          CFI ?RET_LOW load(1, XDATA, add(CFA_XSP16, literal(-5)))
          CFI ?RET_HIGH load(1, XDATA, add(CFA_XSP16, literal(-4)))
          CFI ?BRET_EXT load(1, XDATA, add(CFA_XSP16, literal(-3)))
          CFI DPL0 load(1, XDATA, add(CFA_XSP16, literal(-2)))
          CFI DPH0 load(1, XDATA, add(CFA_XSP16, literal(-1)))
          CFI CFA_SP SP+0
          CFI CFA_XSP16 add(XSP16, 30)
          CFI Block cfiCond266 Using cfiCommon0
          CFI (cfiCond266) Function initiatorSetNwkToInitState
          CFI (cfiCond266) Conditional ??CrossCallReturnLabel_109
          CFI (cfiCond266) DPL0 Frame(CFA_SP, 4)
          CFI (cfiCond266) DPH0 Frame(CFA_SP, 5)
          CFI (cfiCond266) CFA_SP SP+-5
          CFI Block cfiCond267 Using cfiCommon0
          CFI (cfiCond267) Function initiatorSetNwkToInitState
          CFI (cfiCond267) Conditional ??CrossCallReturnLabel_110
          CFI (cfiCond267) DPL0 Frame(CFA_SP, 4)
          CFI (cfiCond267) DPH0 Frame(CFA_SP, 5)
          CFI (cfiCond267) CFA_SP SP+-5
          CFI Block cfiCond268 Using cfiCommon0
          CFI (cfiCond268) Function initiatorSetNwkToInitState
          CFI (cfiCond268) Conditional ??CrossCallReturnLabel_111
          CFI (cfiCond268) DPL0 Frame(CFA_SP, 4)
          CFI (cfiCond268) DPH0 Frame(CFA_SP, 5)
          CFI (cfiCond268) CFA_SP SP+-5
          CFI Block cfiCond269 Using cfiCommon0
          CFI (cfiCond269) Function initiatorDeviceInfoRspCB
          CFI (cfiCond269) Conditional ??CrossCallReturnLabel_112
          CFI (cfiCond269) R6 load(1, XDATA, add(CFA_XSP16, literal(-14)))
          CFI (cfiCond269) VB load(1, XDATA, add(CFA_XSP16, literal(-13)))
          CFI (cfiCond269) V0 load(1, XDATA, add(CFA_XSP16, literal(-12)))
          CFI (cfiCond269) V1 load(1, XDATA, add(CFA_XSP16, literal(-11)))
          CFI (cfiCond269) V2 load(1, XDATA, add(CFA_XSP16, literal(-10)))
          CFI (cfiCond269) V3 load(1, XDATA, add(CFA_XSP16, literal(-9)))
          CFI (cfiCond269) V4 load(1, XDATA, add(CFA_XSP16, literal(-8)))
          CFI (cfiCond269) V5 load(1, XDATA, add(CFA_XSP16, literal(-7)))
          CFI (cfiCond269) R7 load(1, XDATA, add(CFA_XSP16, literal(-6)))
          CFI (cfiCond269) ?RET_LOW load(1, XDATA, add(CFA_XSP16, literal(-5)))
          CFI (cfiCond269) ?RET_HIGH load(1, XDATA, add(CFA_XSP16, literal(-4)))
          CFI (cfiCond269) ?BRET_EXT load(1, XDATA, add(CFA_XSP16, literal(-3)))
          CFI (cfiCond269) DPL0 load(1, XDATA, add(CFA_XSP16, literal(-2)))
          CFI (cfiCond269) DPH0 load(1, XDATA, add(CFA_XSP16, literal(-1)))
          CFI (cfiCond269) CFA_SP SP+0
          CFI (cfiCond269) CFA_XSP16 add(XSP16, 52)
          CFI Block cfiCond270 Using cfiCommon0
          CFI (cfiCond270) Function zllInitiator_event_loop
          CFI (cfiCond270) Conditional ??CrossCallReturnLabel_113
          CFI (cfiCond270) R6 load(1, XDATA, add(CFA_XSP16, literal(-16)))
          CFI (cfiCond270) VB load(1, XDATA, add(CFA_XSP16, literal(-15)))
          CFI (cfiCond270) V0 load(1, XDATA, add(CFA_XSP16, literal(-14)))
          CFI (cfiCond270) V1 load(1, XDATA, add(CFA_XSP16, literal(-13)))
          CFI (cfiCond270) V2 load(1, XDATA, add(CFA_XSP16, literal(-12)))
          CFI (cfiCond270) V3 load(1, XDATA, add(CFA_XSP16, literal(-11)))
          CFI (cfiCond270) V4 load(1, XDATA, add(CFA_XSP16, literal(-10)))
          CFI (cfiCond270) V5 load(1, XDATA, add(CFA_XSP16, literal(-9)))
          CFI (cfiCond270) V6 load(1, XDATA, add(CFA_XSP16, literal(-8)))
          CFI (cfiCond270) V7 load(1, XDATA, add(CFA_XSP16, literal(-7)))
          CFI (cfiCond270) R7 load(1, XDATA, add(CFA_XSP16, literal(-6)))
          CFI (cfiCond270) ?RET_LOW load(1, XDATA, add(CFA_XSP16, literal(-5)))
          CFI (cfiCond270) ?RET_HIGH load(1, XDATA, add(CFA_XSP16, literal(-4)))
          CFI (cfiCond270) ?BRET_EXT load(1, XDATA, add(CFA_XSP16, literal(-3)))
          CFI (cfiCond270) DPL0 load(1, XDATA, add(CFA_XSP16, literal(-2)))
          CFI (cfiCond270) DPH0 load(1, XDATA, add(CFA_XSP16, literal(-1)))
          CFI (cfiCond270) CFA_SP SP+0
          CFI (cfiCond270) CFA_XSP16 add(XSP16, 34)
          CFI Block cfiCond271 Using cfiCommon0
          CFI (cfiCond271) Function zllInitiator_BridgeStartNetwork
          CFI (cfiCond271) Conditional ??CrossCallReturnLabel_114
          CFI (cfiCond271) R6 load(1, XDATA, add(CFA_XSP16, literal(-9)))
          CFI (cfiCond271) VB load(1, XDATA, add(CFA_XSP16, literal(-8)))
          CFI (cfiCond271) V0 load(1, XDATA, add(CFA_XSP16, literal(-7)))
          CFI (cfiCond271) R7 load(1, XDATA, add(CFA_XSP16, literal(-6)))
          CFI (cfiCond271) ?RET_LOW load(1, XDATA, add(CFA_XSP16, literal(-5)))
          CFI (cfiCond271) ?RET_HIGH load(1, XDATA, add(CFA_XSP16, literal(-4)))
          CFI (cfiCond271) ?BRET_EXT load(1, XDATA, add(CFA_XSP16, literal(-3)))
          CFI (cfiCond271) DPL0 load(1, XDATA, add(CFA_XSP16, literal(-2)))
          CFI (cfiCond271) DPH0 load(1, XDATA, add(CFA_XSP16, literal(-1)))
          CFI (cfiCond271) CFA_SP SP+0
          CFI (cfiCond271) CFA_XSP16 add(XSP16, 29)
          CFI Block cfiCond272 Using cfiCommon0
          CFI (cfiCond272) Function initiatorSelectNwkParams
          CFI (cfiCond272) Conditional ??CrossCallReturnLabel_115
          CFI (cfiCond272) R6 load(1, XDATA, add(CFA_XSP16, literal(-9)))
          CFI (cfiCond272) VB load(1, XDATA, add(CFA_XSP16, literal(-8)))
          CFI (cfiCond272) V0 load(1, XDATA, add(CFA_XSP16, literal(-7)))
          CFI (cfiCond272) R7 load(1, XDATA, add(CFA_XSP16, literal(-6)))
          CFI (cfiCond272) ?RET_LOW load(1, XDATA, add(CFA_XSP16, literal(-5)))
          CFI (cfiCond272) ?RET_HIGH load(1, XDATA, add(CFA_XSP16, literal(-4)))
          CFI (cfiCond272) ?BRET_EXT load(1, XDATA, add(CFA_XSP16, literal(-3)))
          CFI (cfiCond272) DPL0 load(1, XDATA, add(CFA_XSP16, literal(-2)))
          CFI (cfiCond272) DPH0 load(1, XDATA, add(CFA_XSP16, literal(-1)))
          CFI (cfiCond272) CFA_SP SP+0
          CFI (cfiCond272) CFA_XSP16 add(XSP16, 9)
          CFI Block cfiCond273 Using cfiCommon0
          CFI (cfiCond273) Function initiatorReJoinNwk
          CFI (cfiCond273) Conditional ??CrossCallReturnLabel_116
          CFI (cfiCond273) R6 load(1, XDATA, add(CFA_XSP16, literal(-9)))
          CFI (cfiCond273) VB load(1, XDATA, add(CFA_XSP16, literal(-8)))
          CFI (cfiCond273) V0 load(1, XDATA, add(CFA_XSP16, literal(-7)))
          CFI (cfiCond273) R7 load(1, XDATA, add(CFA_XSP16, literal(-6)))
          CFI (cfiCond273) ?RET_LOW load(1, XDATA, add(CFA_XSP16, literal(-5)))
          CFI (cfiCond273) ?RET_HIGH load(1, XDATA, add(CFA_XSP16, literal(-4)))
          CFI (cfiCond273) ?BRET_EXT load(1, XDATA, add(CFA_XSP16, literal(-3)))
          CFI (cfiCond273) DPL0 load(1, XDATA, add(CFA_XSP16, literal(-2)))
          CFI (cfiCond273) DPH0 load(1, XDATA, add(CFA_XSP16, literal(-1)))
          CFI (cfiCond273) CFA_SP SP+0
          CFI (cfiCond273) CFA_XSP16 add(XSP16, 9)
          CFI Block cfiPicker274 Using cfiCommon1
          CFI (cfiPicker274) NoFunction
          CFI (cfiPicker274) Picker
        MOVX    A,@DPTR
        MOV     R2,A
        INC     DPTR
        MOVX    A,@DPTR
        MOV     R3,A
        RET
          CFI EndBlock cfiCond265
          CFI EndBlock cfiCond266
          CFI EndBlock cfiCond267
          CFI EndBlock cfiCond268
          CFI EndBlock cfiCond269
          CFI EndBlock cfiCond270
          CFI EndBlock cfiCond271
          CFI EndBlock cfiCond272
          CFI EndBlock cfiCond273
          CFI EndBlock cfiPicker274

        RSEG XDATA_ID:CODE:NOROOT(0)
`?<Initializer for initiatorRegisteredMsgAppTas`:
        DATA8
        DB 255

        RSEG XDATA_ID:CODE:NOROOT(0)
`?<Initializer for zllInitiator_CmdCBs>`:
        DATA16
        DW ??initiatorScanReqCB?relay
        DW ??initiatorDeviceInfoReqCB?relay
        DW ??initiatorIdentifyReqCB?relay
        DW ??initiatorResetToFNReqCB?relay
        DW 0H
        DW ??initiatorNwkJoinReqCB?relay
        DW 0H
        DW ??initiatorNwkUpdateReqCB?relay
        DW ??initiatorScanRspCB?relay
        DW ??initiatorDeviceInfoRspCB?relay
        DW ??initiatorNwkStartRspCB?relay
        DW ??initiatorNwkJoinRtrRspCB?relay
        DW ??initiatorNwkJoinEDRspCB?relay

        RSEG BANK_RELAYS:CODE:REORDER:NOROOT(0)
??zllInitiator_InitDevice?relay:
        CODE
        LCALL   ?BDISPATCH
        DATA24
        DC24    zllInitiator_InitDevice

        RSEG BANK_RELAYS:CODE:REORDER:NOROOT(0)
??zllInitiator_ResetToFactoryNew?relay:
        CODE
        LCALL   ?BDISPATCH
        DATA24
        DC24    zllInitiator_ResetToFactoryNew

        RSEG BANK_RELAYS:CODE:REORDER:NOROOT(0)
??zllInitiator_RegisterIdentifyCB?relay:
        CODE
        LCALL   ?BDISPATCH
        DATA24
        DC24    zllInitiator_RegisterIdentifyCB

        RSEG BANK_RELAYS:CODE:REORDER:NOROOT(0)
??zllInitiator_RegisterNotifyTLCB?relay:
        CODE
        LCALL   ?BDISPATCH
        DATA24
        DC24    zllInitiator_RegisterNotifyTLCB

        RSEG BANK_RELAYS:CODE:REORDER:NOROOT(0)
??zllInitiator_RegisterResetAppCB?relay:
        CODE
        LCALL   ?BDISPATCH
        DATA24
        DC24    zllInitiator_RegisterResetAppCB

        RSEG BANK_RELAYS:CODE:REORDER:NOROOT(0)
??zllInitiator_RegisterSelectDiscDevCB?relay:
        CODE
        LCALL   ?BDISPATCH
        DATA24
        DC24    zllInitiator_RegisterSelectDiscDevCB

        RSEG BANK_RELAYS:CODE:REORDER:NOROOT(0)
??zllInitiator_StartDevDisc?relay:
        CODE
        LCALL   ?BDISPATCH
        DATA24
        DC24    zllInitiator_StartDevDisc

        RSEG BANK_RELAYS:CODE:REORDER:NOROOT(0)
??zllInitiator_AbortTL?relay:
        CODE
        LCALL   ?BDISPATCH
        DATA24
        DC24    zllInitiator_AbortTL

        RSEG BANK_RELAYS:CODE:REORDER:NOROOT(0)
??zllInitiator_Init?relay:
        CODE
        LCALL   ?BDISPATCH
        DATA24
        DC24    zllInitiator_Init

        RSEG BANK_RELAYS:CODE:REORDER:NOROOT(0)
??zllInitiator_RegisterApp?relay:
        CODE
        LCALL   ?BDISPATCH
        DATA24
        DC24    zllInitiator_RegisterApp

        RSEG BANK_RELAYS:CODE:REORDER:NOROOT(0)
??zllInitiator_RegisterForMsg?relay:
        CODE
        LCALL   ?BDISPATCH
        DATA24
        DC24    zllInitiator_RegisterForMsg

        RSEG BANK_RELAYS:CODE:REORDER:NOROOT(0)
??zllInitiator_event_loop?relay:
        CODE
        LCALL   ?BDISPATCH
        DATA24
        DC24    zllInitiator_event_loop

        RSEG BANK_RELAYS:CODE:REORDER:NOROOT(0)
??initiatorJoinNwk?relay:
        CODE
        LCALL   ?BDISPATCH
        DATA24
        DC24    initiatorJoinNwk

        RSEG BANK_RELAYS:CODE:REORDER:NOROOT(0)
??initiatorClearSelectedTarget?relay:
        CODE
        LCALL   ?BDISPATCH
        DATA24
        DC24    initiatorClearSelectedTarget

        RSEG BANK_RELAYS:CODE:REORDER:NOROOT(0)
??initiatorSelectNwkParams?relay:
        CODE
        LCALL   ?BDISPATCH
        DATA24
        DC24    initiatorSelectNwkParams

        RSEG BANK_RELAYS:CODE:REORDER:NOROOT(0)
??initiatorSetNwkToInitState?relay:
        CODE
        LCALL   ?BDISPATCH
        DATA24
        DC24    initiatorSetNwkToInitState

        RSEG BANK_RELAYS:CODE:REORDER:NOROOT(0)
??initiatorSendScanReq?relay:
        CODE
        LCALL   ?BDISPATCH
        DATA24
        DC24    initiatorSendScanReq

        RSEG BANK_RELAYS:CODE:REORDER:NOROOT(0)
??initiatorSendNwkStartReq?relay:
        CODE
        LCALL   ?BDISPATCH
        DATA24
        DC24    initiatorSendNwkStartReq

        RSEG BANK_RELAYS:CODE:REORDER:NOROOT(0)
??initiatorSendNwkJoinReq?relay:
        CODE
        LCALL   ?BDISPATCH
        DATA24
        DC24    initiatorSendNwkJoinReq

        RSEG BANK_RELAYS:CODE:REORDER:NOROOT(0)
??initiatorReJoinNwk?relay:
        CODE
        LCALL   ?BDISPATCH
        DATA24
        DC24    initiatorReJoinNwk

        RSEG BANK_RELAYS:CODE:REORDER:NOROOT(0)
??initiatorScanReqCB?relay:
        CODE
        LCALL   ?BDISPATCH
        DATA24
        DC24    initiatorScanReqCB

        RSEG BANK_RELAYS:CODE:REORDER:NOROOT(0)
??initiatorDeviceInfoReqCB?relay:
        CODE
        LCALL   ?BDISPATCH
        DATA24
        DC24    initiatorDeviceInfoReqCB

        RSEG BANK_RELAYS:CODE:REORDER:NOROOT(0)
??initiatorIdentifyReqCB?relay:
        CODE
        LCALL   ?BDISPATCH
        DATA24
        DC24    initiatorIdentifyReqCB

        RSEG BANK_RELAYS:CODE:REORDER:NOROOT(0)
??initiatorResetToFNReqCB?relay:
        CODE
        LCALL   ?BDISPATCH
        DATA24
        DC24    initiatorResetToFNReqCB

        RSEG BANK_RELAYS:CODE:REORDER:NOROOT(0)
??initiatorNwkJoinReqCB?relay:
        CODE
        LCALL   ?BDISPATCH
        DATA24
        DC24    initiatorNwkJoinReqCB

        RSEG BANK_RELAYS:CODE:REORDER:NOROOT(0)
??initiatorScanRspCB?relay:
        CODE
        LCALL   ?BDISPATCH
        DATA24
        DC24    initiatorScanRspCB

        RSEG BANK_RELAYS:CODE:REORDER:NOROOT(0)
??initiatorDeviceInfoRspCB?relay:
        CODE
        LCALL   ?BDISPATCH
        DATA24
        DC24    initiatorDeviceInfoRspCB

        RSEG BANK_RELAYS:CODE:REORDER:NOROOT(0)
??initiatorNwkStartRspCB?relay:
        CODE
        LCALL   ?BDISPATCH
        DATA24
        DC24    initiatorNwkStartRspCB

        RSEG BANK_RELAYS:CODE:REORDER:NOROOT(0)
??initiatorNwkJoinRtrRspCB?relay:
        CODE
        LCALL   ?BDISPATCH
        DATA24
        DC24    initiatorNwkJoinRtrRspCB

        RSEG BANK_RELAYS:CODE:REORDER:NOROOT(0)
??initiatorNwkJoinEDRspCB?relay:
        CODE
        LCALL   ?BDISPATCH
        DATA24
        DC24    initiatorNwkJoinEDRspCB

        RSEG BANK_RELAYS:CODE:REORDER:NOROOT(0)
??initiatorNwkUpdateReqCB?relay:
        CODE
        LCALL   ?BDISPATCH
        DATA24
        DC24    initiatorNwkUpdateReqCB

        RSEG BANK_RELAYS:CODE:REORDER:NOROOT(0)
??initiatorZdoLeaveCnfCB?relay:
        CODE
        LCALL   ?BDISPATCH
        DATA24
        DC24    initiatorZdoLeaveCnfCB

        RSEG BANK_RELAYS:CODE:REORDER:NOROOT(0)
??zllInitiator_ChannelChange?relay:
        CODE
        LCALL   ?BDISPATCH
        DATA24
        DC24    zllInitiator_ChannelChange

        RSEG BANK_RELAYS:CODE:REORDER:NOROOT(0)
??zllInitiator_ClassicalCommissioningStart?rela:
        CODE
        LCALL   ?BDISPATCH
        DATA24
        DC24    zllInitiator_ClassicalCommissioningStart

        RSEG BANK_RELAYS:CODE:REORDER:NOROOT(0)
??zllInitiator_SendEPInfo?relay:
        CODE
        LCALL   ?BDISPATCH
        DATA24
        DC24    zllInitiator_SendEPInfo

        RSEG BANK_RELAYS:CODE:REORDER:NOROOT(0)
??zllInitiator_OrphanedRejoin?relay:
        CODE
        LCALL   ?BDISPATCH
        DATA24
        DC24    zllInitiator_OrphanedRejoin

        RSEG BANK_RELAYS:CODE:REORDER:NOROOT(0)
??zllInitiator_ResetToFNSelectedTarget?relay:
        CODE
        LCALL   ?BDISPATCH
        DATA24
        DC24    zllInitiator_ResetToFNSelectedTarget

        RSEG BANK_RELAYS:CODE:REORDER:NOROOT(0)
??zllInitiator_PermitJoin?relay:
        CODE
        LCALL   ?BDISPATCH
        DATA24
        DC24    zllInitiator_PermitJoin

        RSEG BANK_RELAYS:CODE:REORDER:NOROOT(0)
??zllInitiator_BridgeStartNetwork?relay:
        CODE
        LCALL   ?BDISPATCH
        DATA24
        DC24    zllInitiator_BridgeStartNetwork

        RSEG XDATA_ROM_C:CONST:REORDER:NOROOT(0)
        DATA8
`?<Constant {12, 13, 14, 16, 17, 18, 19, 21, 22`:
        DB 12
        DB 13
        DB 14
        DB 16
        DB 17
        DB 18
        DB 19
        DB 21
        DB 22
        DB 23
        DB 24
        DB 26

        RSEG XDATA_ROM_C:CONST:REORDER:NOROOT(0)
        DATA8
`?<Constant {{0}}>`:
        DATA16
        DW 0
        DB 0, 0, 0, 0, 0, 0
        DB 0

        RSEG XDATA_ROM_C:CONST:REORDER:NOROOT(0)
        DATA32
__Constant_1f40:
        DD 8000

        RSEG XDATA_ROM_C:CONST:REORDER:NOROOT(0)
        DATA32
__Constant_1d4c:
        DD 7500

        RSEG XDATA_ROM_C:CONST:REORDER:NOROOT(0)
        DATA32
__Constant_1f4:
        DD 500

        RSEG XDATA_ROM_C:CONST:REORDER:NOROOT(0)
        DATA32
__Constant_7d0:
        DD 2000

        RSEG XDATA_ROM_C:CONST:REORDER:NOROOT(0)
        DATA32
__Constant_fa:
        DD 250

        RSEG XDATA_ROM_C:CONST:REORDER:NOROOT(0)
        DATA32
__Constant_1388:
        DD 5000

        RSEG XDATA_ROM_C:CONST:REORDER:NOROOT(0)
        DATA32
__Constant_0:
        DD 0

        END
// 2235 #endif //(ZSTACK_ROUTER_BUILD)
// 2236 
// 2237 /*********************************************************************
// 2238 *********************************************************************/
// 
// 6 616 bytes in segment BANKED_CODE
//   234 bytes in segment BANK_RELAYS
//    27 bytes in segment XDATA_I
//    27 bytes in segment XDATA_ID
//    49 bytes in segment XDATA_ROM_C
//   171 bytes in segment XDATA_Z
// 
// 6 877 bytes of CODE  memory
//    21 bytes of CONST memory (+ 28 bytes shared)
//   198 bytes of XDATA memory
//
//Errors: none
//Warnings: none
